
kernel.elf:	file format ELF32-riscv


Disassembly of section .init:

80000000 _start:
80000000: 97 15 00 00                  	auipc	a1, 1
80000004: 93 85 c5 a7                  	addi	a1, a1, -1412
80000008: 73 25 10 fc                  	csrr	a0, 4033
8000000c: 0b 10 b5 00                  	vx_wspawn	a0, a1
80000010: ef 00 d0 26                  	jal	2668
80000014: 13 05 10 00                  	addi	a0, zero, 1
80000018: 0b 00 05 00                  	vx_tmc	a0
8000001c: 17 35 00 00                  	auipc	a0, 3
80000020: 13 05 05 da                  	addi	a0, a0, -608
80000024: 17 36 00 00                  	auipc	a2, 3
80000028: 13 06 86 e1                  	addi	a2, a2, -488
8000002c: 33 06 a6 40                  	sub	a2, a2, a0
80000030: 93 05 00 00                  	mv	a1, zero
80000034: ef 10 40 0b                  	jal	4276
80000038: 17 15 00 00                  	auipc	a0, 1
8000003c: 13 05 85 b0                  	addi	a0, a0, -1272
80000040: ef 10 00 06                  	jal	4192
80000044: ef 00 90 26                  	jal	2664
80000048: ef 00 d0 1e                  	jal	2540
8000004c: 6f 10 80 06                  	j	4200

Disassembly of section .text:

80000050 register_fini:
80000050: 93 07 00 00                  	mv	a5, zero
80000054: 63 88 07 00                  	beqz	a5, 16
80000058: 37 15 00 80                  	lui	a0, 524289
8000005c: 13 05 05 b4                  	addi	a0, a0, -1216
80000060: 6f 10 00 04                  	j	4160
80000064: 67 80 00 00                  	ret

80000068 _Z15shader_functioniP12kernel_arg_t:
80000068: 13 01 01 ef                  	addi	sp, sp, -272
8000006c: 23 26 11 10                  	sw	ra, 268(sp)
80000070: 23 24 81 10                  	sw	s0, 264(sp)
80000074: 23 22 91 10                  	sw	s1, 260(sp)
80000078: 23 20 21 11                  	sw	s2, 256(sp)
8000007c: 23 2e 31 0f                  	sw	s3, 252(sp)
80000080: 23 2c 41 0f                  	sw	s4, 248(sp)
80000084: 23 2a 51 0f                  	sw	s5, 244(sp)
80000088: 23 28 61 0f                  	sw	s6, 240(sp)
8000008c: 23 26 71 0f                  	sw	s7, 236(sp)
80000090: 23 24 81 0f                  	sw	s8, 232(sp)
80000094: 23 22 91 0f                  	sw	s9, 228(sp)
80000098: 23 20 a1 0f                  	sw	s10, 224(sp)
8000009c: 23 2e b1 0d                  	sw	s11, 220(sp)
800000a0: 93 80 05 00                  	mv	ra, a1
800000a4: 03 a5 05 02                  	lw	a0, 32(a1)
800000a8: 23 2e a1 02                  	sw	a0, 60(sp)
800000ac: 23 24 01 0c                  	sw	zero, 200(sp)
800000b0: b7 05 00 01                  	lui	a1, 4096
800000b4: 23 2c b1 0a                  	sw	a1, 184(sp)
800000b8: 23 24 b1 0a                  	sw	a1, 168(sp)
800000bc: 23 2c b1 08                  	sw	a1, 152(sp)
800000c0: 23 24 b1 08                  	sw	a1, 136(sp)
800000c4: 23 26 01 0c                  	sw	zero, 204(sp)
800000c8: 23 2e b1 0a                  	sw	a1, 188(sp)
800000cc: 23 26 b1 0a                  	sw	a1, 172(sp)
800000d0: 23 2e b1 08                  	sw	a1, 156(sp)
800000d4: 23 26 b1 08                  	sw	a1, 140(sp)
800000d8: 23 28 01 0c                  	sw	zero, 208(sp)
800000dc: 23 20 b1 0c                  	sw	a1, 192(sp)
800000e0: 23 28 b1 0a                  	sw	a1, 176(sp)
800000e4: 23 20 b1 0a                  	sw	a1, 160(sp)
800000e8: 23 28 b1 08                  	sw	a1, 144(sp)
800000ec: 23 2a 01 0c                  	sw	zero, 212(sp)
800000f0: 23 22 b1 0c                  	sw	a1, 196(sp)
800000f4: 23 2a b1 0a                  	sw	a1, 180(sp)
800000f8: 23 22 b1 0a                  	sw	a1, 164(sp)
800000fc: 37 05 00 01                  	lui	a0, 4096
80000100: 23 2c a1 02                  	sw	a0, 56(sp)
80000104: 23 2a b1 08                  	sw	a1, 148(sp)
80000108: 0b 05 00 02                  	vx_rast	
8000010c: 23 2a a1 04                  	sw	a0, 84(sp)
80000110: 93 35 15 00                  	seqz	a1, a0
80000114: 0b a0 05 00                  	vx_split	a1
80000118: e3 02 05 0a                  	beqz	a0, 2212
8000011c: f3 25 40 cc                  	csrr	a1, tmask
80000120: 23 20 b1 00                  	sw	a1, 0(sp)
80000124: b7 15 00 80                  	lui	a1, 524289
80000128: 93 85 c5 9f                  	addi	a1, a1, -1540
8000012c: 23 24 b1 00                  	sw	a1, 8(sp)
80000130: b7 45 00 00                  	lui	a1, 4
80000134: 93 85 f5 ff                  	addi	a1, a1, -1
80000138: 23 26 b1 00                  	sw	a1, 12(sp)
8000013c: b7 05 01 00                  	lui	a1, 16
80000140: 93 85 25 00                  	addi	a1, a1, 2
80000144: 23 22 b1 00                  	sw	a1, 4(sp)
80000148: 37 09 00 01                  	lui	s2, 4096
8000014c: b7 05 00 01                  	lui	a1, 4096
80000150: 23 26 b1 02                  	sw	a1, 44(sp)
80000154: b7 0d 00 01                  	lui	s11, 4096
80000158: b7 0a 00 01                  	lui	s5, 4096
8000015c: b7 09 00 01                  	lui	s3, 4096
80000160: b7 05 00 01                  	lui	a1, 4096
80000164: 23 28 b1 02                  	sw	a1, 48(sp)
80000168: 37 0d 00 01                  	lui	s10, 4096
8000016c: 37 0a 00 01                  	lui	s4, 4096
80000170: 37 0c 00 01                  	lui	s8, 4096
80000174: b7 05 00 01                  	lui	a1, 4096
80000178: 23 2a b1 02                  	sw	a1, 52(sp)
8000017c: 6f 00 c0 01                  	j	28
80000180: 0b 30 00 00                  	vx_join	
80000184: 0b 05 00 02                  	vx_rast	
80000188: 23 2a a1 04                  	sw	a0, 84(sp)
8000018c: b3 35 a0 00                  	snez	a1, a0
80000190: 0b 80 15 00                  	vx_pred	a1
80000194: e3 00 05 02                  	beqz	a0, 2080
80000198: 23 28 21 01                  	sw	s2, 16(sp)
8000019c: 23 2a 31 01                  	sw	s3, 20(sp)
800001a0: 23 2c 81 01                  	sw	s8, 24(sp)
800001a4: 23 2e b1 01                  	sw	s11, 28(sp)
800001a8: 23 20 a1 03                  	sw	s10, 32(sp)
800001ac: 23 22 51 03                  	sw	s5, 36(sp)
800001b0: 23 24 41 03                  	sw	s4, 40(sp)
800001b4: 73 24 20 7c                  	csrr	s0, 1986
800001b8: f3 24 60 7c                  	csrr	s1, 1990
800001bc: 93 5d 15 00                  	srli	s11, a0, 1
800001c0: 73 25 a0 7c                  	csrr	a0, 1994
800001c4: 93 55 f4 41                  	srai	a1, s0, 31
800001c8: 13 d6 f4 41                  	srai	a2, s1, 31
800001cc: b3 86 84 00                  	add	a3, s1, s0
800001d0: 33 b7 96 00                  	sltu	a4, a3, s1
800001d4: b3 05 b6 00                  	add	a1, a2, a1
800001d8: b3 85 e5 00                  	add	a1, a1, a4
800001dc: 13 56 f5 41                  	srai	a2, a0, 31
800001e0: 33 85 a6 00                  	add	a0, a3, a0
800001e4: b3 36 d5 00                  	sltu	a3, a0, a3
800001e8: b3 85 c5 00                  	add	a1, a1, a2
800001ec: b3 85 d5 00                  	add	a1, a1, a3
800001f0: 23 20 a1 04                  	sw	a0, 64(sp)
800001f4: 23 22 b1 04                  	sw	a1, 68(sp)
800001f8: 03 2a 81 00                  	lw	s4, 8(sp)
800001fc: 13 05 0a 00                  	mv	a0, s4
80000200: 93 0a 01 04                  	addi	s5, sp, 64
80000204: 93 85 0a 00                  	mv	a1, s5
80000208: 13 8d 00 00                  	mv	s10, ra
8000020c: ef 00 d0 40                  	jal	3084
80000210: 03 25 81 04                  	lw	a0, 72(sp)
80000214: ab 1c 85 04                  	vx_imadd	s9, a0, s0, zero, 2
80000218: 03 25 81 04                  	lw	a0, 72(sp)
8000021c: 23 2c 91 07                  	sw	s9, 120(sp)
80000220: 2b 1c 95 04                  	vx_imadd	s8, a0, s1, zero, 2
80000224: 23 24 81 07                  	sw	s8, 104(sp)
80000228: 73 24 30 7c                  	csrr	s0, 1987
8000022c: f3 24 70 7c                  	csrr	s1, 1991
80000230: 73 25 b0 7c                  	csrr	a0, 1995
80000234: 93 55 f4 41                  	srai	a1, s0, 31
80000238: 13 d6 f4 41                  	srai	a2, s1, 31
8000023c: b3 86 84 00                  	add	a3, s1, s0
80000240: 33 b7 96 00                  	sltu	a4, a3, s1
80000244: b3 05 b6 00                  	add	a1, a2, a1
80000248: b3 85 e5 00                  	add	a1, a1, a4
8000024c: 13 56 f5 41                  	srai	a2, a0, 31
80000250: 33 85 a6 00                  	add	a0, a3, a0
80000254: b3 36 d5 00                  	sltu	a3, a0, a3
80000258: b3 85 c5 00                  	add	a1, a1, a2
8000025c: b3 85 d5 00                  	add	a1, a1, a3
80000260: 23 20 a1 04                  	sw	a0, 64(sp)
80000264: 23 22 b1 04                  	sw	a1, 68(sp)
80000268: 13 05 0a 00                  	mv	a0, s4
8000026c: 93 85 0a 00                  	mv	a1, s5
80000270: ef 00 90 3a                  	jal	2984
80000274: 03 25 81 04                  	lw	a0, 72(sp)
80000278: 2b 1b 85 04                  	vx_imadd	s6, a0, s0, zero, 2
8000027c: 03 25 81 04                  	lw	a0, 72(sp)
80000280: 23 2e 61 07                  	sw	s6, 124(sp)
80000284: ab 19 95 04                  	vx_imadd	s3, a0, s1, zero, 2
80000288: 23 26 31 07                  	sw	s3, 108(sp)
8000028c: 73 24 40 7c                  	csrr	s0, 1988
80000290: f3 24 80 7c                  	csrr	s1, 1992
80000294: 73 25 c0 7c                  	csrr	a0, 1996
80000298: 93 55 f4 41                  	srai	a1, s0, 31
8000029c: 13 d6 f4 41                  	srai	a2, s1, 31
800002a0: b3 86 84 00                  	add	a3, s1, s0
800002a4: 33 b7 96 00                  	sltu	a4, a3, s1
800002a8: b3 05 b6 00                  	add	a1, a2, a1
800002ac: b3 85 e5 00                  	add	a1, a1, a4
800002b0: 13 56 f5 41                  	srai	a2, a0, 31
800002b4: 33 85 a6 00                  	add	a0, a3, a0
800002b8: b3 36 d5 00                  	sltu	a3, a0, a3
800002bc: b3 85 c5 00                  	add	a1, a1, a2
800002c0: b3 85 d5 00                  	add	a1, a1, a3
800002c4: 23 20 a1 04                  	sw	a0, 64(sp)
800002c8: 23 22 b1 04                  	sw	a1, 68(sp)
800002cc: 13 05 0a 00                  	mv	a0, s4
800002d0: 93 85 0a 00                  	mv	a1, s5
800002d4: ef 00 50 34                  	jal	2884
800002d8: 03 25 81 04                  	lw	a0, 72(sp)
800002dc: 2b 19 85 04                  	vx_imadd	s2, a0, s0, zero, 2
800002e0: 03 25 81 04                  	lw	a0, 72(sp)
800002e4: 23 20 21 09                  	sw	s2, 128(sp)
800002e8: ab 1b 95 04                  	vx_imadd	s7, a0, s1, zero, 2
800002ec: 23 28 71 07                  	sw	s7, 112(sp)
800002f0: 73 24 50 7c                  	csrr	s0, 1989
800002f4: f3 24 90 7c                  	csrr	s1, 1993
800002f8: 73 25 d0 7c                  	csrr	a0, 1997
800002fc: 93 55 f4 41                  	srai	a1, s0, 31
80000300: 13 d6 f4 41                  	srai	a2, s1, 31
80000304: b3 86 84 00                  	add	a3, s1, s0
80000308: 33 b7 96 00                  	sltu	a4, a3, s1
8000030c: b3 05 b6 00                  	add	a1, a2, a1
80000310: b3 85 e5 00                  	add	a1, a1, a4
80000314: 13 56 f5 41                  	srai	a2, a0, 31
80000318: 33 85 a6 00                  	add	a0, a3, a0
8000031c: b3 36 d5 00                  	sltu	a3, a0, a3
80000320: b3 85 c5 00                  	add	a1, a1, a2
80000324: b3 85 d5 00                  	add	a1, a1, a3
80000328: 23 20 a1 04                  	sw	a0, 64(sp)
8000032c: 23 22 b1 04                  	sw	a1, 68(sp)
80000330: 13 05 0a 00                  	mv	a0, s4
80000334: 93 85 0a 00                  	mv	a1, s5
80000338: ef 00 10 2e                  	jal	2784
8000033c: 93 00 0d 00                  	mv	ra, s10
80000340: 03 25 81 04                  	lw	a0, 72(sp)
80000344: ab 18 85 04                  	vx_imadd	a7, a0, s0, zero, 2
80000348: 83 25 81 04                  	lw	a1, 72(sp)
8000034c: 23 22 11 09                  	sw	a7, 132(sp)
80000350: 2b 93 95 04                  	vx_imadd	t1, a1, s1, zero, 2
80000354: 23 2a 61 06                  	sw	t1, 116(sp)
80000358: 83 46 4d 02                  	lbu	a3, 36(s10)
8000035c: 13 05 80 07                  	addi	a0, zero, 120
80000360: 33 86 ad 02                  	<unknown>
80000364: 63 86 06 06                  	beqz	a3, 108
80000368: 03 25 c1 03                  	lw	a0, 60(sp)
8000036c: b3 06 c5 00                  	add	a3, a0, a2
80000370: 03 a7 46 02                  	lw	a4, 36(a3)
80000374: 83 a7 c6 02                  	lw	a5, 44(a3)
80000378: 2b 17 97 7f                  	vx_imadd	a4, a4, s9, a5, 3
8000037c: 83 a7 86 02                  	lw	a5, 40(a3)
80000380: 2b 97 87 77                  	vx_imadd	a4, a5, s8, a4, 3
80000384: 23 24 e1 0c                  	sw	a4, 200(sp)
80000388: 03 a7 46 02                  	lw	a4, 36(a3)
8000038c: 83 a7 c6 02                  	lw	a5, 44(a3)
80000390: 2b 17 67 7f                  	vx_imadd	a4, a4, s6, a5, 3
80000394: 83 a7 86 02                  	lw	a5, 40(a3)
80000398: 2b 97 37 77                  	vx_imadd	a4, a5, s3, a4, 3
8000039c: 23 26 e1 0c                  	sw	a4, 204(sp)
800003a0: 03 a7 46 02                  	lw	a4, 36(a3)
800003a4: 83 a7 c6 02                  	lw	a5, 44(a3)
800003a8: 2b 17 27 7f                  	vx_imadd	a4, a4, s2, a5, 3
800003ac: 83 a7 86 02                  	lw	a5, 40(a3)
800003b0: 2b 97 77 77                  	vx_imadd	a4, a5, s7, a4, 3
800003b4: 23 28 e1 0c                  	sw	a4, 208(sp)
800003b8: 03 a7 46 02                  	lw	a4, 36(a3)
800003bc: 83 a7 c6 02                  	lw	a5, 44(a3)
800003c0: 2b 17 17 7f                  	vx_imadd	a4, a4, a7, a5, 3
800003c4: 83 a6 86 02                  	lw	a3, 40(a3)
800003c8: ab 96 66 76                  	vx_imadd	a3, a3, t1, a4, 3
800003cc: 23 2a d1 0c                  	sw	a3, 212(sp)
800003d0: 83 c6 50 02                  	lbu	a3, 37(ra)
800003d4: 63 82 06 3e                  	beqz	a3, 996
800003d8: 03 25 c1 03                  	lw	a0, 60(sp)
800003dc: b3 06 c5 00                  	add	a3, a0, a2
800003e0: 03 a7 06 03                  	lw	a4, 48(a3)
800003e4: 83 a7 86 03                  	lw	a5, 56(a3)
800003e8: 2b 17 97 7f                  	vx_imadd	a4, a4, s9, a5, 3
800003ec: 83 a7 46 03                  	lw	a5, 52(a3)
800003f0: 2b 97 87 77                  	vx_imadd	a4, a5, s8, a4, 3
800003f4: 23 2c e1 0a                  	sw	a4, 184(sp)
800003f8: 03 a7 06 03                  	lw	a4, 48(a3)
800003fc: 83 a7 86 03                  	lw	a5, 56(a3)
80000400: 2b 17 67 7f                  	vx_imadd	a4, a4, s6, a5, 3
80000404: 83 a7 46 03                  	lw	a5, 52(a3)
80000408: 2b 9a 37 77                  	vx_imadd	s4, a5, s3, a4, 3
8000040c: 23 2e 41 0b                  	sw	s4, 188(sp)
80000410: 03 a7 06 03                  	lw	a4, 48(a3)
80000414: 83 a7 86 03                  	lw	a5, 56(a3)
80000418: 2b 17 27 7f                  	vx_imadd	a4, a4, s2, a5, 3
8000041c: 83 a7 46 03                  	lw	a5, 52(a3)
80000420: ab 9a 77 77                  	vx_imadd	s5, a5, s7, a4, 3
80000424: 23 20 51 0d                  	sw	s5, 192(sp)
80000428: 03 a7 06 03                  	lw	a4, 48(a3)
8000042c: 83 a7 86 03                  	lw	a5, 56(a3)
80000430: 2b 17 17 7f                  	vx_imadd	a4, a4, a7, a5, 3
80000434: 83 a7 46 03                  	lw	a5, 52(a3)
80000438: 2b 95 67 76                  	vx_imadd	a0, a5, t1, a4, 3
8000043c: 23 2c a1 02                  	sw	a0, 56(sp)
80000440: 23 22 a1 0c                  	sw	a0, 196(sp)
80000444: 03 a7 c6 03                  	lw	a4, 60(a3)
80000448: 83 a7 46 04                  	lw	a5, 68(a3)
8000044c: 2b 17 97 7f                  	vx_imadd	a4, a4, s9, a5, 3
80000450: 83 a7 06 04                  	lw	a5, 64(a3)
80000454: 2b 97 87 77                  	vx_imadd	a4, a5, s8, a4, 3
80000458: 23 24 e1 0a                  	sw	a4, 168(sp)
8000045c: 03 a7 c6 03                  	lw	a4, 60(a3)
80000460: 83 a7 46 04                  	lw	a5, 68(a3)
80000464: 2b 17 67 7f                  	vx_imadd	a4, a4, s6, a5, 3
80000468: 83 a7 06 04                  	lw	a5, 64(a3)
8000046c: 2b 9d 37 77                  	vx_imadd	s10, a5, s3, a4, 3
80000470: 23 26 a1 0b                  	sw	s10, 172(sp)
80000474: 03 a7 c6 03                  	lw	a4, 60(a3)
80000478: 83 a7 46 04                  	lw	a5, 68(a3)
8000047c: 2b 17 27 7f                  	vx_imadd	a4, a4, s2, a5, 3
80000480: 83 a7 06 04                  	lw	a5, 64(a3)
80000484: ab 9d 77 77                  	vx_imadd	s11, a5, s7, a4, 3
80000488: 23 28 b1 0b                  	sw	s11, 176(sp)
8000048c: 03 a7 c6 03                  	lw	a4, 60(a3)
80000490: 83 a7 46 04                  	lw	a5, 68(a3)
80000494: 2b 17 17 7f                  	vx_imadd	a4, a4, a7, a5, 3
80000498: 83 a7 06 04                  	lw	a5, 64(a3)
8000049c: 2b 97 67 76                  	vx_imadd	a4, a5, t1, a4, 3
800004a0: 23 2a e1 0a                  	sw	a4, 180(sp)
800004a4: 03 a7 86 04                  	lw	a4, 72(a3)
800004a8: 83 a7 06 05                  	lw	a5, 80(a3)
800004ac: 2b 17 97 7f                  	vx_imadd	a4, a4, s9, a5, 3
800004b0: 83 a7 c6 04                  	lw	a5, 76(a3)
800004b4: 2b 95 87 77                  	vx_imadd	a0, a5, s8, a4, 3
800004b8: 23 2a a1 02                  	sw	a0, 52(sp)
800004bc: 23 2c a1 08                  	sw	a0, 152(sp)
800004c0: 03 a7 86 04                  	lw	a4, 72(a3)
800004c4: 83 a7 06 05                  	lw	a5, 80(a3)
800004c8: 2b 17 67 7f                  	vx_imadd	a4, a4, s6, a5, 3
800004cc: 83 a7 c6 04                  	lw	a5, 76(a3)
800004d0: 2b 95 37 77                  	vx_imadd	a0, a5, s3, a4, 3
800004d4: 23 28 a1 02                  	sw	a0, 48(sp)
800004d8: 23 2e a1 08                  	sw	a0, 156(sp)
800004dc: 03 a7 86 04                  	lw	a4, 72(a3)
800004e0: 83 a7 06 05                  	lw	a5, 80(a3)
800004e4: 2b 17 27 7f                  	vx_imadd	a4, a4, s2, a5, 3
800004e8: 83 a7 c6 04                  	lw	a5, 76(a3)
800004ec: 2b 95 77 77                  	vx_imadd	a0, a5, s7, a4, 3
800004f0: 23 26 a1 02                  	sw	a0, 44(sp)
800004f4: 23 20 a1 0a                  	sw	a0, 160(sp)
800004f8: 03 a7 86 04                  	lw	a4, 72(a3)
800004fc: 83 a7 06 05                  	lw	a5, 80(a3)
80000500: 2b 15 17 7f                  	vx_imadd	a0, a4, a7, a5, 3
80000504: 03 a7 c6 04                  	lw	a4, 76(a3)
80000508: 2b 15 67 56                  	vx_imadd	a0, a4, t1, a0, 3
8000050c: 23 22 a1 0a                  	sw	a0, 164(sp)
80000510: 03 a5 46 05                  	lw	a0, 84(a3)
80000514: 83 a5 c6 05                  	lw	a1, 92(a3)
80000518: 2b 15 95 5f                  	vx_imadd	a0, a0, s9, a1, 3
8000051c: 83 a5 86 05                  	lw	a1, 88(a3)
80000520: 2b 9c 85 57                  	vx_imadd	s8, a1, s8, a0, 3
80000524: 23 24 81 09                  	sw	s8, 136(sp)
80000528: 03 a5 46 05                  	lw	a0, 84(a3)
8000052c: 83 a5 c6 05                  	lw	a1, 92(a3)
80000530: 2b 15 65 5f                  	vx_imadd	a0, a0, s6, a1, 3
80000534: 83 a5 86 05                  	lw	a1, 88(a3)
80000538: ab 99 35 57                  	vx_imadd	s3, a1, s3, a0, 3
8000053c: 23 26 31 09                  	sw	s3, 140(sp)
80000540: 03 a5 46 05                  	lw	a0, 84(a3)
80000544: 83 a5 c6 05                  	lw	a1, 92(a3)
80000548: 2b 15 25 5f                  	vx_imadd	a0, a0, s2, a1, 3
8000054c: 83 a5 86 05                  	lw	a1, 88(a3)
80000550: 83 2b 01 07                  	lw	s7, 112(sp)
80000554: 2b 99 75 57                  	vx_imadd	s2, a1, s7, a0, 3
80000558: 23 28 21 09                  	sw	s2, 144(sp)
8000055c: 83 a5 46 05                  	lw	a1, 84(a3)
80000560: 83 28 41 08                  	lw	a7, 132(sp)
80000564: 03 a7 c6 05                  	lw	a4, 92(a3)
80000568: 2b 97 15 77                  	vx_imadd	a4, a1, a7, a4, 3
8000056c: 83 a6 86 05                  	lw	a3, 88(a3)
80000570: 03 23 41 07                  	lw	t1, 116(sp)
80000574: ab 96 66 76                  	vx_imadd	a3, a3, t1, a4, 3
80000578: 23 2a d1 08                  	sw	a3, 148(sp)
8000057c: 83 c6 60 02                  	lbu	a3, 38(ra)
80000580: 63 8e 06 24                  	beqz	a3, 604
80000584: 03 25 c1 03                  	lw	a0, 60(sp)
80000588: 33 06 c5 00                  	add	a2, a0, a2
8000058c: 83 26 06 06                  	lw	a3, 96(a2)
80000590: 03 27 81 07                  	lw	a4, 120(sp)
80000594: 83 27 86 06                  	lw	a5, 104(a2)
80000598: ab 96 e6 7e                  	vx_imadd	a3, a3, a4, a5, 3
8000059c: 83 27 46 06                  	lw	a5, 100(a2)
800005a0: 83 24 81 06                  	lw	s1, 104(sp)
800005a4: 2b 98 97 6e                  	vx_imadd	a6, a5, s1, a3, 3
800005a8: 83 27 06 06                  	lw	a5, 96(a2)
800005ac: 03 24 c1 07                  	lw	s0, 124(sp)
800005b0: 83 26 86 06                  	lw	a3, 104(a2)
800005b4: ab 96 87 6e                  	vx_imadd	a3, a5, s0, a3, 3
800005b8: 83 27 46 06                  	lw	a5, 100(a2)
800005bc: 03 25 c1 06                  	lw	a0, 108(sp)
800005c0: ab 92 a7 6e                  	vx_imadd	t0, a5, a0, a3, 3
800005c4: 83 27 06 06                  	lw	a5, 96(a2)
800005c8: 83 26 01 08                  	lw	a3, 128(sp)
800005cc: 83 25 86 06                  	lw	a1, 104(a2)
800005d0: ab 95 d7 5e                  	vx_imadd	a1, a5, a3, a1, 3
800005d4: 83 27 46 06                  	lw	a5, 100(a2)
800005d8: ab 93 77 5f                  	vx_imadd	t2, a5, s7, a1, 3
800005dc: 83 27 06 06                  	lw	a5, 96(a2)
800005e0: 83 25 86 06                  	lw	a1, 104(a2)
800005e4: ab 95 17 5f                  	vx_imadd	a1, a5, a7, a1, 3
800005e8: 83 27 46 06                  	lw	a5, 100(a2)
800005ec: 2b 9e 67 5e                  	vx_imadd	t3, a5, t1, a1, 3
800005f0: 83 27 c6 06                  	lw	a5, 108(a2)
800005f4: 83 25 46 07                  	lw	a1, 116(a2)
800005f8: ab 95 e7 5e                  	vx_imadd	a1, a5, a4, a1, 3
800005fc: 03 27 06 07                  	lw	a4, 112(a2)
80000600: ab 15 97 5e                  	vx_imadd	a1, a4, s1, a1, 3
80000604: 03 27 c6 06                  	lw	a4, 108(a2)
80000608: 83 27 46 07                  	lw	a5, 116(a2)
8000060c: 2b 17 87 7e                  	vx_imadd	a4, a4, s0, a5, 3
80000610: 83 27 06 07                  	lw	a5, 112(a2)
80000614: 2b 95 a7 76                  	vx_imadd	a0, a5, a0, a4, 3
80000618: 03 27 c6 06                  	lw	a4, 108(a2)
8000061c: 83 27 46 07                  	lw	a5, 116(a2)
80000620: ab 16 d7 7e                  	vx_imadd	a3, a4, a3, a5, 3
80000624: 03 27 06 07                  	lw	a4, 112(a2)
80000628: ab 17 77 6f                  	vx_imadd	a5, a4, s7, a3, 3
8000062c: 83 26 c6 06                  	lw	a3, 108(a2)
80000630: 03 27 46 07                  	lw	a4, 116(a2)
80000634: ab 96 16 77                  	vx_imadd	a3, a3, a7, a4, 3
80000638: 03 26 06 07                  	lw	a2, 112(a2)
8000063c: ab 14 66 6e                  	vx_imadd	s1, a2, t1, a3, 3
80000640: 13 56 18 40                  	srai	a2, a6, 1
80000644: 93 d5 15 40                  	srai	a1, a1, 1
80000648: 2b 07 b6 00                  	vx_tex	a4, a2, a1, zero
8000064c: 93 d5 12 40                  	srai	a1, t0, 1
80000650: 13 55 15 40                  	srai	a0, a0, 1
80000654: ab 86 a5 00                  	vx_tex	a3, a1, a0, zero
80000658: 13 d5 13 40                  	srai	a0, t2, 1
8000065c: 93 d5 17 40                  	srai	a1, a5, 1
80000660: 2b 06 b5 00                  	vx_tex	a2, a0, a1, zero
80000664: 13 55 1e 40                  	srai	a0, t3, 1
80000668: 93 d5 14 40                  	srai	a1, s1, 1
8000066c: 2b 05 b5 00                  	vx_tex	a0, a0, a1, zero
80000670: 83 c5 70 02                  	lbu	a1, 39(ra)
80000674: 63 8a 05 24                  	beqz	a1, 596
80000678: 13 58 85 01                  	srli	a6, a0, 24
8000067c: 93 58 85 00                  	srli	a7, a0, 8
80000680: 93 52 05 01                  	srli	t0, a0, 16
80000684: 13 53 86 01                  	srli	t1, a2, 24
80000688: 93 53 86 00                  	srli	t2, a2, 8
8000068c: 13 5e 06 01                  	srli	t3, a2, 16
80000690: 93 de 86 01                  	srli	t4, a3, 24
80000694: 13 df 86 00                  	srli	t5, a3, 8
80000698: 93 df 06 01                  	srli	t6, a3, 16
8000069c: 93 57 87 01                  	srli	a5, a4, 24
800006a0: 83 24 81 0b                  	lw	s1, 184(sp)
800006a4: 13 54 87 00                  	srli	s0, a4, 8
800006a8: 93 55 07 01                  	srli	a1, a4, 16
800006ac: 93 f5 f5 0f                  	andi	a1, a1, 255
800006b0: b3 85 b4 02                  	<unknown>
800006b4: 83 24 81 0a                  	lw	s1, 168(sp)
800006b8: 93 d5 85 01                  	srli	a1, a1, 24
800006bc: 23 0d b1 04                  	sb	a1, 90(sp)
800006c0: 93 75 f4 0f                  	andi	a1, s0, 255
800006c4: b3 85 b4 02                  	<unknown>
800006c8: 93 d5 85 01                  	srli	a1, a1, 24
800006cc: a3 0c b1 04                  	sb	a1, 89(sp)
800006d0: 93 75 f7 0f                  	andi	a1, a4, 255
800006d4: 03 27 41 03                  	lw	a4, 52(sp)
800006d8: b3 05 b7 02                  	<unknown>
800006dc: 93 d5 85 01                  	srli	a1, a1, 24
800006e0: 23 0c b1 04                  	sb	a1, 88(sp)
800006e4: b3 05 fc 02                  	<unknown>
800006e8: 93 d5 85 01                  	srli	a1, a1, 24
800006ec: a3 0d b1 04                  	sb	a1, 91(sp)
800006f0: 93 f5 ff 0f                  	andi	a1, t6, 255
800006f4: b3 05 ba 02                  	<unknown>
800006f8: 93 d5 85 01                  	srli	a1, a1, 24
800006fc: 23 0f b1 04                  	sb	a1, 94(sp)
80000700: 93 75 ff 0f                  	andi	a1, t5, 255
80000704: b3 05 bd 02                  	<unknown>
80000708: 93 d5 85 01                  	srli	a1, a1, 24
8000070c: a3 0e b1 04                  	sb	a1, 93(sp)
80000710: 93 f5 f6 0f                  	andi	a1, a3, 255
80000714: 83 26 01 03                  	lw	a3, 48(sp)
80000718: b3 85 b6 02                  	<unknown>
8000071c: 93 d5 85 01                  	srli	a1, a1, 24
80000720: 23 0e b1 04                  	sb	a1, 92(sp)
80000724: b3 85 d9 03                  	<unknown>
80000728: 93 d5 85 01                  	srli	a1, a1, 24
8000072c: a3 0f b1 04                  	sb	a1, 95(sp)
80000730: 93 75 fe 0f                  	andi	a1, t3, 255
80000734: b3 85 ba 02                  	<unknown>
80000738: 93 d5 85 01                  	srli	a1, a1, 24
8000073c: 23 01 b1 06                  	sb	a1, 98(sp)
80000740: 93 f5 f3 0f                  	andi	a1, t2, 255
80000744: b3 85 bd 02                  	<unknown>
80000748: 93 d5 85 01                  	srli	a1, a1, 24
8000074c: a3 00 b1 06                  	sb	a1, 97(sp)
80000750: 93 75 f6 0f                  	andi	a1, a2, 255
80000754: 03 26 c1 02                  	lw	a2, 44(sp)
80000758: b3 05 b6 02                  	<unknown>
8000075c: 93 d5 85 01                  	srli	a1, a1, 24
80000760: 23 00 b1 06                  	sb	a1, 96(sp)
80000764: b3 05 69 02                  	<unknown>
80000768: 93 d5 85 01                  	srli	a1, a1, 24
8000076c: a3 01 b1 06                  	sb	a1, 99(sp)
80000770: 93 f5 f2 0f                  	andi	a1, t0, 255
80000774: 03 26 81 03                  	lw	a2, 56(sp)
80000778: b3 05 b6 02                  	<unknown>
8000077c: 03 26 41 0b                  	lw	a2, 180(sp)
80000780: 93 d5 85 01                  	srli	a1, a1, 24
80000784: 23 03 b1 06                  	sb	a1, 102(sp)
80000788: 93 f5 f8 0f                  	andi	a1, a7, 255
8000078c: b3 05 b6 02                  	<unknown>
80000790: 93 d5 85 01                  	srli	a1, a1, 24
80000794: 03 26 41 0a                  	lw	a2, 164(sp)
80000798: a3 02 b1 06                  	sb	a1, 101(sp)
8000079c: 13 75 f5 0f                  	andi	a0, a0, 255
800007a0: 83 25 41 09                  	lw	a1, 148(sp)
800007a4: 33 05 a6 02                  	<unknown>
800007a8: 13 55 85 01                  	srli	a0, a0, 24
800007ac: 23 02 a1 06                  	sb	a0, 100(sp)
800007b0: 33 85 05 03                  	<unknown>
800007b4: 6f 00 80 10                  	j	264
800007b8: 03 2a 81 02                  	lw	s4, 40(sp)
800007bc: 83 2a 41 02                  	lw	s5, 36(sp)
800007c0: 03 2d 01 02                  	lw	s10, 32(sp)
800007c4: 83 2d c1 01                  	lw	s11, 28(sp)
800007c8: 03 2c 81 01                  	lw	s8, 24(sp)
800007cc: 83 29 41 01                  	lw	s3, 20(sp)
800007d0: 03 29 01 01                  	lw	s2, 16(sp)
800007d4: 83 c6 60 02                  	lbu	a3, 38(ra)
800007d8: e3 96 06 da                  	bnez	a3, -596
800007dc: 03 25 81 0b                  	lw	a0, 184(sp)
800007e0: 83 25 81 0a                  	lw	a1, 168(sp)
800007e4: 13 06 f0 0f                  	addi	a2, zero, 255
800007e8: 33 05 c5 02                  	<unknown>
800007ec: 13 55 85 01                  	srli	a0, a0, 24
800007f0: 23 0d a1 04                  	sb	a0, 90(sp)
800007f4: 33 85 c5 02                  	<unknown>
800007f8: 13 55 85 01                  	srli	a0, a0, 24
800007fc: a3 0c a1 04                  	sb	a0, 89(sp)
80000800: 03 25 41 03                  	lw	a0, 52(sp)
80000804: 33 05 c5 02                  	<unknown>
80000808: 13 55 85 01                  	srli	a0, a0, 24
8000080c: 23 0c a1 04                  	sb	a0, 88(sp)
80000810: 33 05 cc 02                  	<unknown>
80000814: 13 55 85 01                  	srli	a0, a0, 24
80000818: a3 0d a1 04                  	sb	a0, 91(sp)
8000081c: 33 05 ca 02                  	<unknown>
80000820: 13 55 85 01                  	srli	a0, a0, 24
80000824: 23 0f a1 04                  	sb	a0, 94(sp)
80000828: 33 05 cd 02                  	<unknown>
8000082c: 13 55 85 01                  	srli	a0, a0, 24
80000830: a3 0e a1 04                  	sb	a0, 93(sp)
80000834: 03 25 01 03                  	lw	a0, 48(sp)
80000838: 33 05 c5 02                  	<unknown>
8000083c: 13 55 85 01                  	srli	a0, a0, 24
80000840: 23 0e a1 04                  	sb	a0, 92(sp)
80000844: 33 85 c9 02                  	<unknown>
80000848: 13 55 85 01                  	srli	a0, a0, 24
8000084c: a3 0f a1 04                  	sb	a0, 95(sp)
80000850: 33 85 ca 02                  	<unknown>
80000854: 13 55 85 01                  	srli	a0, a0, 24
80000858: 23 01 a1 06                  	sb	a0, 98(sp)
8000085c: 33 85 cd 02                  	<unknown>
80000860: 13 55 85 01                  	srli	a0, a0, 24
80000864: a3 00 a1 06                  	sb	a0, 97(sp)
80000868: 03 25 c1 02                  	lw	a0, 44(sp)
8000086c: 33 05 c5 02                  	<unknown>
80000870: 13 55 85 01                  	srli	a0, a0, 24
80000874: 23 00 a1 06                  	sb	a0, 96(sp)
80000878: 33 05 c9 02                  	<unknown>
8000087c: 13 55 85 01                  	srli	a0, a0, 24
80000880: a3 01 a1 06                  	sb	a0, 99(sp)
80000884: 03 25 41 0b                  	lw	a0, 180(sp)
80000888: 83 25 81 03                  	lw	a1, 56(sp)
8000088c: b3 85 c5 02                  	<unknown>
80000890: 93 d5 85 01                  	srli	a1, a1, 24
80000894: 23 03 b1 06                  	sb	a1, 102(sp)
80000898: 33 05 c5 02                  	<unknown>
8000089c: 83 25 41 0a                  	lw	a1, 164(sp)
800008a0: 13 55 85 01                  	srli	a0, a0, 24
800008a4: a3 02 a1 06                  	sb	a0, 101(sp)
800008a8: 03 25 41 09                  	lw	a0, 148(sp)
800008ac: b3 85 c5 02                  	<unknown>
800008b0: 93 d5 85 01                  	srli	a1, a1, 24
800008b4: 23 02 b1 06                  	sb	a1, 100(sp)
800008b8: 33 05 c5 02                  	<unknown>
800008bc: 13 55 85 01                  	srli	a0, a0, 24
800008c0: a3 03 a1 06                  	sb	a0, 103(sp)
800008c4: 6f 00 40 01                  	j	20
800008c8: 23 2c e1 04                  	sw	a4, 88(sp)
800008cc: 23 2e d1 04                  	sw	a3, 92(sp)
800008d0: 23 20 c1 06                  	sw	a2, 96(sp)
800008d4: 23 22 a1 06                  	sw	a0, 100(sp)
800008d8: f3 25 10 7c                  	csrr	a1, 1985
800008dc: 23 20 b1 04                  	sw	a1, 64(sp)
800008e0: 93 f6 15 00                  	andi	a3, a1, 1
800008e4: 13 b5 16 00                  	seqz	a0, a3
800008e8: 0b 20 05 00                  	vx_split	a0
800008ec: 13 d5 45 00                  	srli	a0, a1, 4
800008f0: 03 26 c1 00                  	lw	a2, 12(sp)
800008f4: 33 75 c5 00                  	and	a0, a0, a2
800008f8: 13 d6 25 01                  	srli	a2, a1, 18
800008fc: 63 8e 06 00                  	beqz	a3, 28
80000900: 83 26 81 05                  	lw	a3, 88(sp)
80000904: 03 27 81 0c                  	lw	a4, 200(sp)
80000908: 93 17 16 01                  	slli	a5, a2, 17
8000090c: 93 14 25 00                  	slli	s1, a0, 2
80000910: b3 e7 f4 00                  	or	a5, s1, a5
80000914: 2b 80 d7 74                  	vx_rop	a5, a3, a4
80000918: 0b 30 00 00                  	vx_join	
8000091c: 93 f6 25 00                  	andi	a3, a1, 2
80000920: 13 b7 16 00                  	seqz	a4, a3
80000924: 0b 20 07 00                  	vx_split	a4
80000928: 63 80 06 02                  	beqz	a3, 32
8000092c: 93 16 16 01                  	slli	a3, a2, 17
80000930: 03 27 c1 05                  	lw	a4, 92(sp)
80000934: 83 27 c1 0c                  	lw	a5, 204(sp)
80000938: 93 14 25 00                  	slli	s1, a0, 2
8000093c: b3 e6 96 00                  	or	a3, a3, s1
80000940: 93 e6 26 00                  	ori	a3, a3, 2
80000944: 2b 80 e6 7c                  	vx_rop	a3, a4, a5
80000948: 0b 30 00 00                  	vx_join	
8000094c: 93 f6 45 00                  	andi	a3, a1, 4
80000950: 13 b7 16 00                  	seqz	a4, a3
80000954: 0b 20 07 00                  	vx_split	a4
80000958: 63 82 06 02                  	beqz	a3, 36
8000095c: 93 16 16 01                  	slli	a3, a2, 17
80000960: 03 27 01 06                  	lw	a4, 96(sp)
80000964: 83 27 01 0d                  	lw	a5, 208(sp)
80000968: 93 14 25 00                  	slli	s1, a0, 2
8000096c: b3 e6 96 00                  	or	a3, a3, s1
80000970: b7 04 01 00                  	lui	s1, 16
80000974: b3 e6 96 00                  	or	a3, a3, s1
80000978: 2b 80 e6 7c                  	vx_rop	a3, a4, a5
8000097c: 0b 30 00 00                  	vx_join	
80000980: 93 f5 85 00                  	andi	a1, a1, 8
80000984: 93 b6 15 00                  	seqz	a3, a1
80000988: 0b a0 06 00                  	vx_split	a3
8000098c: 63 8a 05 fe                  	beqz	a1, -2060
80000990: 93 15 16 01                  	slli	a1, a2, 17
80000994: 03 26 41 06                  	lw	a2, 100(sp)
80000998: 83 26 41 0d                  	lw	a3, 212(sp)
8000099c: 13 15 25 00                  	slli	a0, a0, 2
800009a0: 33 e5 a5 00                  	or	a0, a1, a0
800009a4: 83 25 41 00                  	lw	a1, 4(sp)
800009a8: 33 65 b5 00                  	or	a0, a0, a1
800009ac: 2b 00 c5 6c                  	vx_rop	a0, a2, a3
800009b0: 6f f0 0f fd                  	j	-2096
800009b4: 03 25 01 00                  	lw	a0, 0(sp)
800009b8: 0b 00 05 00                  	vx_tmc	a0
800009bc: 0b 30 00 00                  	vx_join	
800009c0: 83 2d c1 0d                  	lw	s11, 220(sp)
800009c4: 03 2d 01 0e                  	lw	s10, 224(sp)
800009c8: 83 2c 41 0e                  	lw	s9, 228(sp)
800009cc: 03 2c 81 0e                  	lw	s8, 232(sp)
800009d0: 83 2b c1 0e                  	lw	s7, 236(sp)
800009d4: 03 2b 01 0f                  	lw	s6, 240(sp)
800009d8: 83 2a 41 0f                  	lw	s5, 244(sp)
800009dc: 03 2a 81 0f                  	lw	s4, 248(sp)
800009e0: 83 29 c1 0f                  	lw	s3, 252(sp)
800009e4: 03 29 01 10                  	lw	s2, 256(sp)
800009e8: 83 24 41 10                  	lw	s1, 260(sp)
800009ec: 03 24 81 10                  	lw	s0, 264(sp)
800009f0: 83 20 c1 10                  	lw	ra, 268(sp)
800009f4: 13 01 01 11                  	addi	sp, sp, 272
800009f8: 67 80 00 00                  	ret

800009fc _ZL7InversePv:
800009fc: 13 01 01 ff                  	addi	sp, sp, -16
80000a00: 23 26 11 00                  	sw	ra, 12(sp)
80000a04: 23 24 81 00                  	sw	s0, 8(sp)
80000a08: 13 04 05 00                  	mv	s0, a0
80000a0c: 03 26 05 00                  	lw	a2, 0(a0)
80000a10: 83 26 45 00                  	lw	a3, 4(a0)
80000a14: 93 05 00 10                  	addi	a1, zero, 256
80000a18: 13 05 00 00                  	mv	a0, zero
80000a1c: ef 00 90 16                  	jal	2408
80000a20: 23 24 a4 00                  	sw	a0, 8(s0)
80000a24: 03 24 81 00                  	lw	s0, 8(sp)
80000a28: 83 20 c1 00                  	lw	ra, 12(sp)
80000a2c: 13 01 01 01                  	addi	sp, sp, 16
80000a30: 67 80 00 00                  	ret

80000a34 main:
80000a34: 13 01 01 ff                  	addi	sp, sp, -16
80000a38: 23 26 11 00                  	sw	ra, 12(sp)
80000a3c: 73 25 10 fc                  	csrr	a0, 4033
80000a40: f3 25 00 fc                  	csrr	a1, 4032
80000a44: 33 85 a5 02                  	<unknown>
80000a48: b7 05 00 80                  	lui	a1, 524288
80000a4c: 93 85 85 06                  	addi	a1, a1, 104
80000a50: 37 f6 ff 7f                  	lui	a2, 524287
80000a54: ef 00 c0 26                  	jal	620
80000a58: 13 05 00 00                  	mv	a0, zero
80000a5c: 83 20 c1 00                  	lw	ra, 12(sp)
80000a60: 13 01 01 01                  	addi	sp, sp, 16
80000a64: 67 80 00 00                  	ret

80000a68 _exit:
80000a68: 13 04 05 00                  	mv	s0, a0
80000a6c: ef 00 00 42                  	jal	1056
80000a70: 93 01 04 00                  	mv	gp, s0
80000a74: 13 05 00 00                  	mv	a0, zero
80000a78: 0b 00 05 00                  	vx_tmc	a0

80000a7c vx_set_sp:
80000a7c: 13 05 f0 ff                  	addi	a0, zero, -1
80000a80: 0b 00 05 00                  	vx_tmc	a0
80000a84: 37 01 00 ff                  	lui	sp, 1044480
80000a88: b7 25 00 00                  	lui	a1, 2
80000a8c: 73 26 20 cc                  	csrr	a2, 3266
80000a90: b3 85 c5 02                  	<unknown>
80000a94: 33 01 b1 40                  	sub	sp, sp, a1
80000a98: f3 26 30 cc                  	csrr	a3, 3267
80000a9c: 63 86 06 00                  	beqz	a3, 12
80000aa0: 13 05 00 00                  	mv	a0, zero
80000aa4: 0b 00 05 00                  	vx_tmc	a0

80000aa8 RETURN:
80000aa8: 67 80 00 00                  	ret

80000aac __libc_init_array:
80000aac: 13 01 01 ff                  	addi	sp, sp, -16
80000ab0: 23 24 81 00                  	sw	s0, 8(sp)
80000ab4: 23 20 21 01                  	sw	s2, 0(sp)
80000ab8: 17 24 00 00                  	auipc	s0, 2
80000abc: 13 04 04 ed                  	addi	s0, s0, -304
80000ac0: 17 29 00 00                  	auipc	s2, 2
80000ac4: 13 09 89 ec                  	addi	s2, s2, -312
80000ac8: 33 09 89 40                  	sub	s2, s2, s0
80000acc: 23 26 11 00                  	sw	ra, 12(sp)
80000ad0: 23 22 91 00                  	sw	s1, 4(sp)
80000ad4: 13 59 29 40                  	srai	s2, s2, 2
80000ad8: 63 0e 09 00                  	beqz	s2, 28
80000adc: 93 04 00 00                  	mv	s1, zero
80000ae0: 83 27 04 00                  	lw	a5, 0(s0)
80000ae4: 93 84 14 00                  	addi	s1, s1, 1
80000ae8: 13 04 44 00                  	addi	s0, s0, 4
80000aec: e7 80 07 00                  	jalr	a5
80000af0: e3 18 99 fe                  	bne	s2, s1, -16
80000af4: 17 24 00 00                  	auipc	s0, 2
80000af8: 13 04 44 e9                  	addi	s0, s0, -364
80000afc: 17 29 00 00                  	auipc	s2, 2
80000b00: 13 09 09 e9                  	addi	s2, s2, -368
80000b04: 33 09 89 40                  	sub	s2, s2, s0
80000b08: 13 59 29 40                  	srai	s2, s2, 2
80000b0c: 63 0e 09 00                  	beqz	s2, 28
80000b10: 93 04 00 00                  	mv	s1, zero
80000b14: 83 27 04 00                  	lw	a5, 0(s0)
80000b18: 93 84 14 00                  	addi	s1, s1, 1
80000b1c: 13 04 44 00                  	addi	s0, s0, 4
80000b20: e7 80 07 00                  	jalr	a5
80000b24: e3 18 99 fe                  	bne	s2, s1, -16
80000b28: 83 20 c1 00                  	lw	ra, 12(sp)
80000b2c: 03 24 81 00                  	lw	s0, 8(sp)
80000b30: 83 24 41 00                  	lw	s1, 4(sp)
80000b34: 03 29 01 00                  	lw	s2, 0(sp)
80000b38: 13 01 01 01                  	addi	sp, sp, 16
80000b3c: 67 80 00 00                  	ret

80000b40 __libc_fini_array:
80000b40: 13 01 01 ff                  	addi	sp, sp, -16
80000b44: 23 24 81 00                  	sw	s0, 8(sp)
80000b48: 97 27 00 00                  	auipc	a5, 2
80000b4c: 93 87 47 e4                  	addi	a5, a5, -444
80000b50: 17 24 00 00                  	auipc	s0, 2
80000b54: 13 04 c4 e3                  	addi	s0, s0, -452
80000b58: b3 87 87 40                  	sub	a5, a5, s0
80000b5c: 23 22 91 00                  	sw	s1, 4(sp)
80000b60: 23 26 11 00                  	sw	ra, 12(sp)
80000b64: 93 d4 27 40                  	srai	s1, a5, 2
80000b68: 63 80 04 02                  	beqz	s1, 32
80000b6c: 93 87 c7 ff                  	addi	a5, a5, -4
80000b70: 33 84 87 00                  	add	s0, a5, s0
80000b74: 83 27 04 00                  	lw	a5, 0(s0)
80000b78: 93 84 f4 ff                  	addi	s1, s1, -1
80000b7c: 13 04 c4 ff                  	addi	s0, s0, -4
80000b80: e7 80 07 00                  	jalr	a5
80000b84: e3 98 04 fe                  	bnez	s1, -16
80000b88: 83 20 c1 00                  	lw	ra, 12(sp)
80000b8c: 03 24 81 00                  	lw	s0, 8(sp)
80000b90: 83 24 41 00                  	lw	s1, 4(sp)
80000b94: 13 01 01 01                  	addi	sp, sp, 16
80000b98: 67 80 00 00                  	ret

80000b9c spawn_tasks_all_stub:
80000b9c: 13 01 01 fe                  	addi	sp, sp, -32
80000ba0: 23 2e 11 00                  	sw	ra, 28(sp)
80000ba4: 23 2c 81 00                  	sw	s0, 24(sp)
80000ba8: 23 2a 91 00                  	sw	s1, 20(sp)
80000bac: 23 28 21 01                  	sw	s2, 16(sp)
80000bb0: 23 26 31 01                  	sw	s3, 12(sp)
80000bb4: 23 24 41 01                  	sw	s4, 8(sp)
80000bb8: f3 27 50 cc                  	csrr	a5, 3269
80000bbc: 73 27 30 cc                  	csrr	a4, 3267
80000bc0: f3 26 00 cc                  	csrr	a3, 3264
80000bc4: f3 25 00 fc                  	csrr	a1, 4032
80000bc8: 13 96 27 00                  	slli	a2, a5, 2
80000bcc: 97 27 00 00                  	auipc	a5, 2
80000bd0: 93 87 07 1f                  	addi	a5, a5, 496
80000bd4: b3 87 c7 00                  	add	a5, a5, a2
80000bd8: 03 aa 07 00                  	lw	s4, 0(a5)
80000bdc: 03 24 0a 01                  	lw	s0, 16(s4)
80000be0: 03 26 ca 00                  	lw	a2, 12(s4)
80000be4: b3 24 87 00                  	slt	s1, a4, s0
80000be8: 93 07 04 00                  	mv	a5, s0
80000bec: b3 84 c4 00                  	add	s1, s1, a2
80000bf0: 33 04 e6 02                  	<unknown>
80000bf4: 63 54 f7 00                  	bge	a4, a5, 8
80000bf8: 93 07 07 00                  	mv	a5, a4
80000bfc: 33 04 f4 00                  	add	s0, s0, a5
80000c00: 03 27 8a 00                  	lw	a4, 8(s4)
80000c04: 83 29 0a 00                  	lw	s3, 0(s4)
80000c08: 03 29 4a 00                  	lw	s2, 4(s4)
80000c0c: 33 04 b4 02                  	<unknown>
80000c10: b3 87 d4 02                  	<unknown>
80000c14: 33 04 e4 00                  	add	s0, s0, a4
80000c18: 33 04 f4 00                  	add	s0, s0, a5
80000c1c: b3 84 84 00                  	add	s1, s1, s0
80000c20: 63 5c 94 00                  	bge	s0, s1, 24
80000c24: 13 05 04 00                  	mv	a0, s0
80000c28: 93 05 09 00                  	mv	a1, s2
80000c2c: 13 04 14 00                  	addi	s0, s0, 1
80000c30: e7 80 09 00                  	jalr	s3
80000c34: e3 98 84 fe                  	bne	s1, s0, -16
80000c38: 03 27 4a 01                  	lw	a4, 20(s4)
80000c3c: 93 07 00 00                  	mv	a5, zero
80000c40: 0b c0 e7 00                  	vx_bar	a5, a4
80000c44: 83 20 c1 01                  	lw	ra, 28(sp)
80000c48: 03 24 81 01                  	lw	s0, 24(sp)
80000c4c: 83 24 41 01                  	lw	s1, 20(sp)
80000c50: 03 29 01 01                  	lw	s2, 16(sp)
80000c54: 83 29 c1 00                  	lw	s3, 12(sp)
80000c58: 03 2a 81 00                  	lw	s4, 8(sp)
80000c5c: 13 01 01 02                  	addi	sp, sp, 32
80000c60: 67 80 00 00                  	ret

80000c64 spawn_tasks_rem_stub:
80000c64: f3 27 50 cc                  	csrr	a5, 3269
80000c68: 73 25 20 cc                  	csrr	a0, 3266
80000c6c: 13 97 27 00                  	slli	a4, a5, 2
80000c70: 97 27 00 00                  	auipc	a5, 2
80000c74: 93 87 c7 14                  	addi	a5, a5, 332
80000c78: b3 87 e7 00                  	add	a5, a5, a4
80000c7c: 83 a7 07 00                  	lw	a5, 0(a5)
80000c80: 03 a7 87 00                  	lw	a4, 8(a5)
80000c84: 03 a3 07 00                  	lw	t1, 0(a5)
80000c88: 83 a5 47 00                  	lw	a1, 4(a5)
80000c8c: 33 05 e5 00                  	add	a0, a0, a4
80000c90: 67 00 03 00                  	jr	t1

80000c94 spawn_tasks_all_cb:
80000c94: 13 01 01 ff                  	addi	sp, sp, -16
80000c98: 23 26 11 00                  	sw	ra, 12(sp)
80000c9c: 93 07 f0 ff                  	addi	a5, zero, -1
80000ca0: 0b 80 07 00                  	vx_tmc	a5
80000ca4: ef f0 9f ef                  	jal	-264
80000ca8: f3 27 30 cc                  	csrr	a5, 3267
80000cac: 93 b7 17 00                  	seqz	a5, a5
80000cb0: 0b 80 07 00                  	vx_tmc	a5
80000cb4: 83 20 c1 00                  	lw	ra, 12(sp)
80000cb8: 13 01 01 01                  	addi	sp, sp, 16
80000cbc: 67 80 00 00                  	ret

80000cc0 vx_spawn_tasks:
80000cc0: 13 01 01 fd                  	addi	sp, sp, -48
80000cc4: 23 26 11 02                  	sw	ra, 44(sp)
80000cc8: 23 24 81 02                  	sw	s0, 40(sp)
80000ccc: 23 22 91 02                  	sw	s1, 36(sp)
80000cd0: 23 20 21 03                  	sw	s2, 32(sp)
80000cd4: f3 26 20 fc                  	csrr	a3, 4034
80000cd8: f3 28 10 fc                  	csrr	a7, 4033
80000cdc: f3 24 00 fc                  	csrr	s1, 4032
80000ce0: f3 27 50 cc                  	csrr	a5, 3269
80000ce4: 13 07 f0 01                  	addi	a4, zero, 31
80000ce8: 63 48 f7 08                  	blt	a4, a5, 144
80000cec: 33 88 14 03                  	<unknown>
80000cf0: 13 07 10 00                  	addi	a4, zero, 1
80000cf4: 63 54 a8 00                  	bge	a6, a0, 8
80000cf8: 33 47 05 03                  	<unknown>
80000cfc: 63 ca e6 08                  	blt	a3, a4, 148
80000d00: 63 dc e7 06                  	bge	a5, a4, 120
80000d04: 93 86 f6 ff                  	addi	a3, a3, -1
80000d08: 33 43 e5 02                  	<unknown>
80000d0c: 13 08 03 00                  	mv	a6, t1
80000d10: 63 96 f6 00                  	bne	a3, a5, 12
80000d14: 33 65 e5 02                  	<unknown>
80000d18: 33 08 65 00                  	add	a6, a0, t1
80000d1c: 33 49 98 02                  	<unknown>
80000d20: 33 64 98 02                  	<unknown>
80000d24: 63 4c 19 07                  	blt	s2, a7, 120
80000d28: 13 05 10 00                  	addi	a0, zero, 1
80000d2c: b3 46 19 03                  	<unknown>
80000d30: 63 86 06 00                  	beqz	a3, 12
80000d34: 13 85 06 00                  	mv	a0, a3
80000d38: b3 66 19 03                  	<unknown>
80000d3c: 17 27 00 00                  	auipc	a4, 2
80000d40: 13 07 07 08                  	addi	a4, a4, 128
80000d44: 23 24 b1 00                  	sw	a1, 8(sp)
80000d48: 23 26 c1 00                  	sw	a2, 12(sp)
80000d4c: 23 2a a1 00                  	sw	a0, 20(sp)
80000d50: 23 2c d1 00                  	sw	a3, 24(sp)
80000d54: 23 2e 01 00                  	sw	zero, 28(sp)
80000d58: 33 03 f3 02                  	<unknown>
80000d5c: 93 97 27 00                  	slli	a5, a5, 2
80000d60: b3 07 f7 00                  	add	a5, a4, a5
80000d64: 13 07 81 00                  	addi	a4, sp, 8
80000d68: 23 a0 e7 00                  	sw	a4, 0(a5)
80000d6c: 23 28 61 00                  	sw	t1, 16(sp)
80000d70: 63 4c 20 03                  	bgtz	s2, 56
80000d74: 63 16 04 06                  	bnez	s0, 108
80000d78: 83 20 c1 02                  	lw	ra, 44(sp)
80000d7c: 03 24 81 02                  	lw	s0, 40(sp)
80000d80: 83 24 41 02                  	lw	s1, 36(sp)
80000d84: 03 29 01 02                  	lw	s2, 32(sp)
80000d88: 13 01 01 03                  	addi	sp, sp, 48
80000d8c: 67 80 00 00                  	ret
80000d90: 13 87 06 00                  	mv	a4, a3
80000d94: e3 c8 e7 f6                  	blt	a5, a4, -144
80000d98: 6f f0 1f fe                  	j	-32
80000d9c: 93 06 00 00                  	mv	a3, zero
80000da0: 13 05 10 00                  	addi	a0, zero, 1
80000da4: 6f f0 9f f9                  	j	-104
80000da8: 93 07 09 00                  	mv	a5, s2
80000dac: 63 d4 28 01                  	bge	a7, s2, 8
80000db0: 93 87 08 00                  	mv	a5, a7
80000db4: 23 2e f1 00                  	sw	a5, 28(sp)
80000db8: 17 07 00 00                  	auipc	a4, 0
80000dbc: 13 07 c7 ed                  	addi	a4, a4, -292
80000dc0: 0b 90 e7 00                  	vx_wspawn	a5, a4
80000dc4: 93 07 f0 ff                  	addi	a5, zero, -1
80000dc8: 0b 80 07 00                  	vx_tmc	a5
80000dcc: ef f0 1f dd                  	jal	-560
80000dd0: f3 27 30 cc                  	csrr	a5, 3267
80000dd4: 93 b7 17 00                  	seqz	a5, a5
80000dd8: 0b 80 07 00                  	vx_tmc	a5
80000ddc: e3 0e 04 f8                  	beqz	s0, -100
80000de0: b3 04 99 02                  	<unknown>
80000de4: 13 09 10 00                  	addi	s2, zero, 1
80000de8: 33 18 89 00                  	sll	a6, s2, s0
80000dec: 13 08 f8 ff                  	addi	a6, a6, -1
80000df0: 23 28 91 00                  	sw	s1, 16(sp)
80000df4: 0b 00 08 00                  	vx_tmc	a6
80000df8: ef f0 df e6                  	jal	-404
80000dfc: 0b 00 09 00                  	vx_tmc	s2
80000e00: 83 20 c1 02                  	lw	ra, 44(sp)
80000e04: 03 24 81 02                  	lw	s0, 40(sp)
80000e08: 83 24 41 02                  	lw	s1, 36(sp)
80000e0c: 03 29 01 02                  	lw	s2, 32(sp)
80000e10: 13 01 01 03                  	addi	sp, sp, 48
80000e14: 67 80 00 00                  	ret

80000e18 vx_serial:
80000e18: 13 01 81 fe                  	addi	sp, sp, -24
80000e1c: 23 2a 11 00                  	sw	ra, 20(sp)
80000e20: 23 28 41 01                  	sw	s4, 16(sp)
80000e24: 23 26 31 01                  	sw	s3, 12(sp)
80000e28: 23 24 21 01                  	sw	s2, 8(sp)
80000e2c: 23 22 91 00                  	sw	s1, 4(sp)
80000e30: 23 20 81 00                  	sw	s0, 0(sp)
80000e34: 13 0a 05 00                  	mv	s4, a0
80000e38: 93 89 05 00                  	mv	s3, a1
80000e3c: 73 29 00 fc                  	csrr	s2, 4032
80000e40: f3 24 00 cc                  	csrr	s1, 3264
80000e44: 13 04 00 00                  	mv	s0, zero

80000e48 label_loop:
80000e48: b3 02 94 40                  	sub	t0, s0, s1
80000e4c: 13 b3 12 00                  	seqz	t1, t0
80000e50: 0b 20 03 00                  	vx_split	t1
80000e54: 63 96 02 00                  	bnez	t0, 12
80000e58: 13 85 09 00                  	mv	a0, s3
80000e5c: e7 00 0a 00                  	jalr	s4

80000e60 label_join:
80000e60: 0b 30 00 00                  	vx_join	
80000e64: 13 04 14 00                  	addi	s0, s0, 1
80000e68: e3 40 24 ff                  	blt	s0, s2, -32
80000e6c: 83 20 41 01                  	lw	ra, 20(sp)
80000e70: 03 2a 01 01                  	lw	s4, 16(sp)
80000e74: 83 29 c1 00                  	lw	s3, 12(sp)
80000e78: 03 29 81 00                  	lw	s2, 8(sp)
80000e7c: 83 24 41 00                  	lw	s1, 4(sp)
80000e80: 03 24 01 00                  	lw	s0, 0(sp)
80000e84: 13 01 81 01                  	addi	sp, sp, 24
80000e88: 67 80 00 00                  	ret

80000e8c vx_perf_dump:
80000e8c: f3 27 50 cc                  	csrr	a5, 3269
80000e90: 37 07 ff 00                  	lui	a4, 4080
80000e94: b3 87 e7 00                  	add	a5, a5, a4
80000e98: 93 97 87 00                  	slli	a5, a5, 8
80000e9c: 73 27 00 b0                  	csrr	a4, mcycle
80000ea0: 23 a0 e7 00                  	sw	a4, 0(a5)
80000ea4: 73 27 10 b0                  	csrr	a4, 2817
80000ea8: 23 a2 e7 00                  	sw	a4, 4(a5)
80000eac: 73 27 20 b0                  	csrr	a4, minstret
80000eb0: 23 a4 e7 00                  	sw	a4, 8(a5)
80000eb4: 73 27 30 b0                  	csrr	a4, mhpmcounter3
80000eb8: 23 a6 e7 00                  	sw	a4, 12(a5)
80000ebc: 73 27 40 b0                  	csrr	a4, mhpmcounter4
80000ec0: 23 a8 e7 00                  	sw	a4, 16(a5)
80000ec4: 73 27 50 b0                  	csrr	a4, mhpmcounter5
80000ec8: 23 aa e7 00                  	sw	a4, 20(a5)
80000ecc: 73 27 60 b0                  	csrr	a4, mhpmcounter6
80000ed0: 23 ac e7 00                  	sw	a4, 24(a5)
80000ed4: 73 27 70 b0                  	csrr	a4, mhpmcounter7
80000ed8: 23 ae e7 00                  	sw	a4, 28(a5)
80000edc: 73 27 80 b0                  	csrr	a4, mhpmcounter8
80000ee0: 23 a0 e7 02                  	sw	a4, 32(a5)
80000ee4: 73 27 90 b0                  	csrr	a4, mhpmcounter9
80000ee8: 23 a2 e7 02                  	sw	a4, 36(a5)
80000eec: 73 27 a0 b0                  	csrr	a4, mhpmcounter10
80000ef0: 23 a4 e7 02                  	sw	a4, 40(a5)
80000ef4: 73 27 b0 b0                  	csrr	a4, mhpmcounter11
80000ef8: 23 a6 e7 02                  	sw	a4, 44(a5)
80000efc: 73 27 c0 b0                  	csrr	a4, mhpmcounter12
80000f00: 23 a8 e7 02                  	sw	a4, 48(a5)
80000f04: 73 27 d0 b0                  	csrr	a4, mhpmcounter13
80000f08: 23 aa e7 02                  	sw	a4, 52(a5)
80000f0c: 73 27 e0 b0                  	csrr	a4, mhpmcounter14
80000f10: 23 ac e7 02                  	sw	a4, 56(a5)
80000f14: 73 27 f0 b0                  	csrr	a4, mhpmcounter15
80000f18: 23 ae e7 02                  	sw	a4, 60(a5)
80000f1c: 73 27 00 b1                  	csrr	a4, mhpmcounter16
80000f20: 23 a0 e7 04                  	sw	a4, 64(a5)
80000f24: 73 27 10 b1                  	csrr	a4, mhpmcounter17
80000f28: 23 a2 e7 04                  	sw	a4, 68(a5)
80000f2c: 73 27 20 b1                  	csrr	a4, mhpmcounter18
80000f30: 23 a4 e7 04                  	sw	a4, 72(a5)
80000f34: 73 27 30 b1                  	csrr	a4, mhpmcounter19
80000f38: 23 a6 e7 04                  	sw	a4, 76(a5)
80000f3c: 73 27 40 b1                  	csrr	a4, mhpmcounter20
80000f40: 23 a8 e7 04                  	sw	a4, 80(a5)
80000f44: 73 27 50 b1                  	csrr	a4, mhpmcounter21
80000f48: 23 aa e7 04                  	sw	a4, 84(a5)
80000f4c: 73 27 60 b1                  	csrr	a4, mhpmcounter22
80000f50: 23 ac e7 04                  	sw	a4, 88(a5)
80000f54: 73 27 70 b1                  	csrr	a4, mhpmcounter23
80000f58: 23 ae e7 04                  	sw	a4, 92(a5)
80000f5c: 73 27 80 b1                  	csrr	a4, mhpmcounter24
80000f60: 23 a0 e7 06                  	sw	a4, 96(a5)
80000f64: 73 27 90 b1                  	csrr	a4, mhpmcounter25
80000f68: 23 a2 e7 06                  	sw	a4, 100(a5)
80000f6c: 73 27 a0 b1                  	csrr	a4, mhpmcounter26
80000f70: 23 a4 e7 06                  	sw	a4, 104(a5)
80000f74: 73 27 b0 b1                  	csrr	a4, mhpmcounter27
80000f78: 23 a6 e7 06                  	sw	a4, 108(a5)
80000f7c: 73 27 c0 b1                  	csrr	a4, mhpmcounter28
80000f80: 23 a8 e7 06                  	sw	a4, 112(a5)
80000f84: 73 27 d0 b1                  	csrr	a4, mhpmcounter29
80000f88: 23 aa e7 06                  	sw	a4, 116(a5)
80000f8c: 73 27 e0 b1                  	csrr	a4, mhpmcounter30
80000f90: 23 ac e7 06                  	sw	a4, 120(a5)
80000f94: 73 27 f0 b1                  	csrr	a4, mhpmcounter31
80000f98: 23 ae e7 06                  	sw	a4, 124(a5)
80000f9c: 73 27 00 b8                  	csrr	a4, mcycleh
80000fa0: 23 a0 e7 08                  	sw	a4, 128(a5)
80000fa4: 73 27 10 b8                  	csrr	a4, 2945
80000fa8: 23 a2 e7 08                  	sw	a4, 132(a5)
80000fac: 73 27 20 b8                  	csrr	a4, minstreth
80000fb0: 23 a4 e7 08                  	sw	a4, 136(a5)
80000fb4: 73 27 30 b8                  	csrr	a4, mhpmcounter3h
80000fb8: 23 a6 e7 08                  	sw	a4, 140(a5)
80000fbc: 73 27 40 b8                  	csrr	a4, mhpmcounter4h
80000fc0: 23 a8 e7 08                  	sw	a4, 144(a5)
80000fc4: 73 27 50 b8                  	csrr	a4, mhpmcounter5h
80000fc8: 23 aa e7 08                  	sw	a4, 148(a5)
80000fcc: 73 27 60 b8                  	csrr	a4, mhpmcounter6h
80000fd0: 23 ac e7 08                  	sw	a4, 152(a5)
80000fd4: 73 27 70 b8                  	csrr	a4, mhpmcounter7h
80000fd8: 23 ae e7 08                  	sw	a4, 156(a5)
80000fdc: 73 27 80 b8                  	csrr	a4, mhpmcounter8h
80000fe0: 23 a0 e7 0a                  	sw	a4, 160(a5)
80000fe4: 73 27 90 b8                  	csrr	a4, mhpmcounter9h
80000fe8: 23 a2 e7 0a                  	sw	a4, 164(a5)
80000fec: 73 27 a0 b8                  	csrr	a4, mhpmcounter10h
80000ff0: 23 a4 e7 0a                  	sw	a4, 168(a5)
80000ff4: 73 27 b0 b8                  	csrr	a4, mhpmcounter11h
80000ff8: 23 a6 e7 0a                  	sw	a4, 172(a5)
80000ffc: 73 27 c0 b8                  	csrr	a4, mhpmcounter12h
80001000: 23 a8 e7 0a                  	sw	a4, 176(a5)
80001004: 73 27 d0 b8                  	csrr	a4, mhpmcounter13h
80001008: 23 aa e7 0a                  	sw	a4, 180(a5)
8000100c: 73 27 e0 b8                  	csrr	a4, mhpmcounter14h
80001010: 23 ac e7 0a                  	sw	a4, 184(a5)
80001014: 73 27 f0 b8                  	csrr	a4, mhpmcounter15h
80001018: 23 ae e7 0a                  	sw	a4, 188(a5)
8000101c: 73 27 00 b9                  	csrr	a4, mhpmcounter16h
80001020: 23 a0 e7 0c                  	sw	a4, 192(a5)
80001024: 73 27 10 b9                  	csrr	a4, mhpmcounter17h
80001028: 23 a2 e7 0c                  	sw	a4, 196(a5)
8000102c: 73 27 20 b9                  	csrr	a4, mhpmcounter18h
80001030: 23 a4 e7 0c                  	sw	a4, 200(a5)
80001034: 73 27 30 b9                  	csrr	a4, mhpmcounter19h
80001038: 23 a6 e7 0c                  	sw	a4, 204(a5)
8000103c: 73 27 40 b9                  	csrr	a4, mhpmcounter20h
80001040: 23 a8 e7 0c                  	sw	a4, 208(a5)
80001044: 73 27 50 b9                  	csrr	a4, mhpmcounter21h
80001048: 23 aa e7 0c                  	sw	a4, 212(a5)
8000104c: 73 27 60 b9                  	csrr	a4, mhpmcounter22h
80001050: 23 ac e7 0c                  	sw	a4, 216(a5)
80001054: 73 27 70 b9                  	csrr	a4, mhpmcounter23h
80001058: 23 ae e7 0c                  	sw	a4, 220(a5)
8000105c: 73 27 80 b9                  	csrr	a4, mhpmcounter24h
80001060: 23 a0 e7 0e                  	sw	a4, 224(a5)
80001064: 73 27 90 b9                  	csrr	a4, mhpmcounter25h
80001068: 23 a2 e7 0e                  	sw	a4, 228(a5)
8000106c: 73 27 a0 b9                  	csrr	a4, mhpmcounter26h
80001070: 23 a4 e7 0e                  	sw	a4, 232(a5)
80001074: 73 27 b0 b9                  	csrr	a4, mhpmcounter27h
80001078: 23 a6 e7 0e                  	sw	a4, 236(a5)
8000107c: 73 27 c0 b9                  	csrr	a4, mhpmcounter28h
80001080: 23 a8 e7 0e                  	sw	a4, 240(a5)
80001084: 73 27 d0 b9                  	csrr	a4, mhpmcounter29h
80001088: 23 aa e7 0e                  	sw	a4, 244(a5)
8000108c: 73 27 e0 b9                  	csrr	a4, mhpmcounter30h
80001090: 23 ac e7 0e                  	sw	a4, 248(a5)
80001094: 73 27 f0 b9                  	csrr	a4, mhpmcounter31h
80001098: 23 ae e7 0e                  	sw	a4, 252(a5)
8000109c: 67 80 00 00                  	ret

800010a0 atexit:
800010a0: 93 05 05 00                  	mv	a1, a0
800010a4: 93 06 00 00                  	mv	a3, zero
800010a8: 13 06 00 00                  	mv	a2, zero
800010ac: 13 05 00 00                  	mv	a0, zero
800010b0: 6f 00 40 11                  	j	276

800010b4 exit:
800010b4: 13 01 01 ff                  	addi	sp, sp, -16
800010b8: 93 05 00 00                  	mv	a1, zero
800010bc: 23 24 81 00                  	sw	s0, 8(sp)
800010c0: 23 26 11 00                  	sw	ra, 12(sp)
800010c4: 13 04 05 00                  	mv	s0, a0
800010c8: ef 00 80 19                  	jal	408
800010cc: b7 37 00 80                  	lui	a5, 524291
800010d0: 03 a5 87 db                  	lw	a0, -584(a5)
800010d4: 83 27 c5 03                  	lw	a5, 60(a0)
800010d8: 63 84 07 00                  	beqz	a5, 8
800010dc: e7 80 07 00                  	jalr	a5
800010e0: 13 05 04 00                  	mv	a0, s0
800010e4: ef f0 5f 98                  	jal	-1660

800010e8 memset:
800010e8: 13 03 f0 00                  	addi	t1, zero, 15
800010ec: 13 07 05 00                  	mv	a4, a0
800010f0: 63 7e c3 02                  	bgeu	t1, a2, 60
800010f4: 93 77 f7 00                  	andi	a5, a4, 15
800010f8: 63 90 07 0a                  	bnez	a5, 160
800010fc: 63 92 05 08                  	bnez	a1, 132
80001100: 93 76 06 ff                  	andi	a3, a2, -16
80001104: 13 76 f6 00                  	andi	a2, a2, 15
80001108: b3 86 e6 00                  	add	a3, a3, a4
8000110c: 23 20 b7 00                  	sw	a1, 0(a4)
80001110: 23 22 b7 00                  	sw	a1, 4(a4)
80001114: 23 24 b7 00                  	sw	a1, 8(a4)
80001118: 23 26 b7 00                  	sw	a1, 12(a4)
8000111c: 13 07 07 01                  	addi	a4, a4, 16
80001120: e3 66 d7 fe                  	bltu	a4, a3, -20
80001124: 63 14 06 00                  	bnez	a2, 8
80001128: 67 80 00 00                  	ret
8000112c: b3 06 c3 40                  	sub	a3, t1, a2
80001130: 93 96 26 00                  	slli	a3, a3, 2
80001134: 97 02 00 00                  	auipc	t0, 0
80001138: b3 86 56 00                  	add	a3, a3, t0
8000113c: 67 80 c6 00                  	jr	12(a3)
80001140: 23 07 b7 00                  	sb	a1, 14(a4)
80001144: a3 06 b7 00                  	sb	a1, 13(a4)
80001148: 23 06 b7 00                  	sb	a1, 12(a4)
8000114c: a3 05 b7 00                  	sb	a1, 11(a4)
80001150: 23 05 b7 00                  	sb	a1, 10(a4)
80001154: a3 04 b7 00                  	sb	a1, 9(a4)
80001158: 23 04 b7 00                  	sb	a1, 8(a4)
8000115c: a3 03 b7 00                  	sb	a1, 7(a4)
80001160: 23 03 b7 00                  	sb	a1, 6(a4)
80001164: a3 02 b7 00                  	sb	a1, 5(a4)
80001168: 23 02 b7 00                  	sb	a1, 4(a4)
8000116c: a3 01 b7 00                  	sb	a1, 3(a4)
80001170: 23 01 b7 00                  	sb	a1, 2(a4)
80001174: a3 00 b7 00                  	sb	a1, 1(a4)
80001178: 23 00 b7 00                  	sb	a1, 0(a4)
8000117c: 67 80 00 00                  	ret
80001180: 93 f5 f5 0f                  	andi	a1, a1, 255
80001184: 93 96 85 00                  	slli	a3, a1, 8
80001188: b3 e5 d5 00                  	or	a1, a1, a3
8000118c: 93 96 05 01                  	slli	a3, a1, 16
80001190: b3 e5 d5 00                  	or	a1, a1, a3
80001194: 6f f0 df f6                  	j	-148
80001198: 93 96 27 00                  	slli	a3, a5, 2
8000119c: 97 02 00 00                  	auipc	t0, 0
800011a0: b3 86 56 00                  	add	a3, a3, t0
800011a4: 93 82 00 00                  	mv	t0, ra
800011a8: e7 80 06 fa                  	jalr	-96(a3)
800011ac: 93 80 02 00                  	mv	ra, t0
800011b0: 93 87 07 ff                  	addi	a5, a5, -16
800011b4: 33 07 f7 40                  	sub	a4, a4, a5
800011b8: 33 06 f6 00                  	add	a2, a2, a5
800011bc: e3 78 c3 f6                  	bgeu	t1, a2, -144
800011c0: 6f f0 df f3                  	j	-196

800011c4 __register_exitproc:
800011c4: b7 37 00 80                  	lui	a5, 524291
800011c8: 03 a7 87 db                  	lw	a4, -584(a5)
800011cc: 83 27 87 14                  	lw	a5, 328(a4)
800011d0: 63 8c 07 04                  	beqz	a5, 88
800011d4: 03 a7 47 00                  	lw	a4, 4(a5)
800011d8: 13 08 f0 01                  	addi	a6, zero, 31
800011dc: 63 4e e8 06                  	blt	a6, a4, 124
800011e0: 13 18 27 00                  	slli	a6, a4, 2
800011e4: 63 06 05 02                  	beqz	a0, 44
800011e8: 33 83 07 01                  	add	t1, a5, a6
800011ec: 23 24 c3 08                  	sw	a2, 136(t1)
800011f0: 83 a8 87 18                  	lw	a7, 392(a5)
800011f4: 13 06 10 00                  	addi	a2, zero, 1
800011f8: 33 16 e6 00                  	sll	a2, a2, a4
800011fc: b3 e8 c8 00                  	or	a7, a7, a2
80001200: 23 a4 17 19                  	sw	a7, 392(a5)
80001204: 23 24 d3 10                  	sw	a3, 264(t1)
80001208: 93 06 20 00                  	addi	a3, zero, 2
8000120c: 63 04 d5 02                  	beq	a0, a3, 40
80001210: 13 07 17 00                  	addi	a4, a4, 1
80001214: 23 a2 e7 00                  	sw	a4, 4(a5)
80001218: b3 87 07 01                  	add	a5, a5, a6
8000121c: 23 a4 b7 00                  	sw	a1, 8(a5)
80001220: 13 05 00 00                  	mv	a0, zero
80001224: 67 80 00 00                  	ret
80001228: 93 07 c7 14                  	addi	a5, a4, 332
8000122c: 23 24 f7 14                  	sw	a5, 328(a4)
80001230: 6f f0 5f fa                  	j	-92
80001234: 83 a6 c7 18                  	lw	a3, 396(a5)
80001238: 13 07 17 00                  	addi	a4, a4, 1
8000123c: 23 a2 e7 00                  	sw	a4, 4(a5)
80001240: 33 e6 c6 00                  	or	a2, a3, a2
80001244: 23 a6 c7 18                  	sw	a2, 396(a5)
80001248: b3 87 07 01                  	add	a5, a5, a6
8000124c: 23 a4 b7 00                  	sw	a1, 8(a5)
80001250: 13 05 00 00                  	mv	a0, zero
80001254: 67 80 00 00                  	ret
80001258: 13 05 f0 ff                  	addi	a0, zero, -1
8000125c: 67 80 00 00                  	ret

80001260 __call_exitprocs:
80001260: 13 01 01 fd                  	addi	sp, sp, -48
80001264: b7 37 00 80                  	lui	a5, 524291
80001268: 23 2c 41 01                  	sw	s4, 24(sp)
8000126c: 03 aa 87 db                  	lw	s4, -584(a5)
80001270: 23 20 21 03                  	sw	s2, 32(sp)
80001274: 23 26 11 02                  	sw	ra, 44(sp)
80001278: 03 29 8a 14                  	lw	s2, 328(s4)
8000127c: 23 24 81 02                  	sw	s0, 40(sp)
80001280: 23 22 91 02                  	sw	s1, 36(sp)
80001284: 23 2e 31 01                  	sw	s3, 28(sp)
80001288: 23 2a 51 01                  	sw	s5, 20(sp)
8000128c: 23 28 61 01                  	sw	s6, 16(sp)
80001290: 23 26 71 01                  	sw	s7, 12(sp)
80001294: 23 24 81 01                  	sw	s8, 8(sp)
80001298: 63 00 09 04                  	beqz	s2, 64
8000129c: 13 0b 05 00                  	mv	s6, a0
800012a0: 93 8b 05 00                  	mv	s7, a1
800012a4: 93 0a 10 00                  	addi	s5, zero, 1
800012a8: 93 09 f0 ff                  	addi	s3, zero, -1
800012ac: 83 24 49 00                  	lw	s1, 4(s2)
800012b0: 13 84 f4 ff                  	addi	s0, s1, -1
800012b4: 63 42 04 02                  	bltz	s0, 36
800012b8: 93 94 24 00                  	slli	s1, s1, 2
800012bc: b3 04 99 00                  	add	s1, s2, s1
800012c0: 63 84 0b 04                  	beqz	s7, 72
800012c4: 83 a7 44 10                  	lw	a5, 260(s1)
800012c8: 63 80 77 05                  	beq	a5, s7, 64
800012cc: 13 04 f4 ff                  	addi	s0, s0, -1
800012d0: 93 84 c4 ff                  	addi	s1, s1, -4
800012d4: e3 16 34 ff                  	bne	s0, s3, -20
800012d8: 83 20 c1 02                  	lw	ra, 44(sp)
800012dc: 03 24 81 02                  	lw	s0, 40(sp)
800012e0: 83 24 41 02                  	lw	s1, 36(sp)
800012e4: 03 29 01 02                  	lw	s2, 32(sp)
800012e8: 83 29 c1 01                  	lw	s3, 28(sp)
800012ec: 03 2a 81 01                  	lw	s4, 24(sp)
800012f0: 83 2a 41 01                  	lw	s5, 20(sp)
800012f4: 03 2b 01 01                  	lw	s6, 16(sp)
800012f8: 83 2b c1 00                  	lw	s7, 12(sp)
800012fc: 03 2c 81 00                  	lw	s8, 8(sp)
80001300: 13 01 01 03                  	addi	sp, sp, 48
80001304: 67 80 00 00                  	ret
80001308: 83 27 49 00                  	lw	a5, 4(s2)
8000130c: 83 a6 44 00                  	lw	a3, 4(s1)
80001310: 93 87 f7 ff                  	addi	a5, a5, -1
80001314: 63 8e 87 04                  	beq	a5, s0, 92
80001318: 23 a2 04 00                  	sw	zero, 4(s1)
8000131c: e3 88 06 fa                  	beqz	a3, -80
80001320: 83 27 89 18                  	lw	a5, 392(s2)
80001324: 33 97 8a 00                  	sll	a4, s5, s0
80001328: 03 2c 49 00                  	lw	s8, 4(s2)
8000132c: b3 77 f7 00                  	and	a5, a4, a5
80001330: 63 92 07 02                  	bnez	a5, 36
80001334: e7 80 06 00                  	jalr	a3
80001338: 03 27 49 00                  	lw	a4, 4(s2)
8000133c: 83 27 8a 14                  	lw	a5, 328(s4)
80001340: 63 14 87 01                  	bne	a4, s8, 8
80001344: e3 04 f9 f8                  	beq	s2, a5, -120
80001348: e3 88 07 f8                  	beqz	a5, -112
8000134c: 13 89 07 00                  	mv	s2, a5
80001350: 6f f0 df f5                  	j	-164
80001354: 83 27 c9 18                  	lw	a5, 396(s2)
80001358: 83 a5 44 08                  	lw	a1, 132(s1)
8000135c: 33 77 f7 00                  	and	a4, a4, a5
80001360: 63 1c 07 00                  	bnez	a4, 24
80001364: 13 05 0b 00                  	mv	a0, s6
80001368: e7 80 06 00                  	jalr	a3
8000136c: 6f f0 df fc                  	j	-52
80001370: 23 22 89 00                  	sw	s0, 4(s2)
80001374: 6f f0 9f fa                  	j	-88
80001378: 13 85 05 00                  	mv	a0, a1
8000137c: e7 80 06 00                  	jalr	a3
80001380: 6f f0 9f fb                  	j	-72

80001384 __divdi3:
80001384: 13 0e 05 00                  	mv	t3, a0
80001388: 13 08 00 00                  	mv	a6, zero
8000138c: 63 dc 05 00                  	bgez	a1, 24
80001390: b3 37 a0 00                  	snez	a5, a0
80001394: b3 05 b0 40                  	neg	a1, a1
80001398: b3 85 f5 40                  	sub	a1, a1, a5
8000139c: 33 0e a0 40                  	neg	t3, a0
800013a0: 13 08 f0 ff                  	addi	a6, zero, -1
800013a4: 63 dc 06 00                  	bgez	a3, 24
800013a8: 33 37 c0 00                  	snez	a4, a2
800013ac: b3 07 d0 40                  	neg	a5, a3
800013b0: 13 48 f8 ff                  	not	a6, a6
800013b4: b3 86 e7 40                  	sub	a3, a5, a4
800013b8: 33 06 c0 40                  	neg	a2, a2
800013bc: 93 08 06 00                  	mv	a7, a2
800013c0: 93 8f 06 00                  	mv	t6, a3
800013c4: 93 0e 0e 00                  	mv	t4, t3
800013c8: 13 83 05 00                  	mv	t1, a1
800013cc: 63 90 06 2a                  	bnez	a3, 672
800013d0: 37 27 00 80                  	lui	a4, 524290
800013d4: 13 07 47 80                  	addi	a4, a4, -2044
800013d8: 63 f6 c5 0e                  	bgeu	a1, a2, 236
800013dc: b7 07 01 00                  	lui	a5, 16
800013e0: 63 78 f6 0c                  	bgeu	a2, a5, 208
800013e4: 93 07 f0 0f                  	addi	a5, zero, 255
800013e8: b3 b7 c7 00                  	sltu	a5, a5, a2
800013ec: 93 97 37 00                  	slli	a5, a5, 3
800013f0: b3 56 f6 00                  	srl	a3, a2, a5
800013f4: 33 07 d7 00                  	add	a4, a4, a3
800013f8: 03 47 07 00                  	lbu	a4, 0(a4)
800013fc: 93 06 00 02                  	addi	a3, zero, 32
80001400: b3 07 f7 00                  	add	a5, a4, a5
80001404: 33 87 f6 40                  	sub	a4, a3, a5
80001408: 63 8c f6 00                  	beq	a3, a5, 24
8000140c: b3 95 e5 00                  	sll	a1, a1, a4
80001410: b3 57 fe 00                  	srl	a5, t3, a5
80001414: b3 18 e6 00                  	sll	a7, a2, a4
80001418: 33 e3 b7 00                  	or	t1, a5, a1
8000141c: b3 1e ee 00                  	sll	t4, t3, a4
80001420: 13 d5 08 01                  	srli	a0, a7, 16
80001424: b3 55 a3 02                  	<unknown>
80001428: 13 96 08 01                  	slli	a2, a7, 16
8000142c: 13 56 06 01                  	srli	a2, a2, 16
80001430: 93 d7 0e 01                  	srli	a5, t4, 16
80001434: 33 77 a3 02                  	<unknown>
80001438: 93 86 05 00                  	mv	a3, a1
8000143c: 33 03 b6 02                  	<unknown>
80001440: 13 17 07 01                  	slli	a4, a4, 16
80001444: b3 67 f7 00                  	or	a5, a4, a5
80001448: 63 fe 67 00                  	bgeu	a5, t1, 28
8000144c: b3 87 17 01                  	add	a5, a5, a7
80001450: 93 86 f5 ff                  	addi	a3, a1, -1
80001454: 63 e8 17 01                  	bltu	a5, a7, 16
80001458: 63 f6 67 00                  	bgeu	a5, t1, 12
8000145c: 93 86 e5 ff                  	addi	a3, a1, -2
80001460: b3 87 17 01                  	add	a5, a5, a7
80001464: b3 87 67 40                  	sub	a5, a5, t1
80001468: 33 f7 a7 02                  	<unknown>
8000146c: 93 9e 0e 01                  	slli	t4, t4, 16
80001470: 93 de 0e 01                  	srli	t4, t4, 16
80001474: b3 d7 a7 02                  	<unknown>
80001478: 13 17 07 01                  	slli	a4, a4, 16
8000147c: b3 6e d7 01                  	or	t4, a4, t4
80001480: 33 06 f6 02                  	<unknown>
80001484: 13 87 07 00                  	mv	a4, a5
80001488: 63 fc ce 00                  	bgeu	t4, a2, 24
8000148c: b3 8e d8 01                  	add	t4, a7, t4
80001490: 13 87 f7 ff                  	addi	a4, a5, -1
80001494: 63 e6 1e 01                  	bltu	t4, a7, 12
80001498: 63 f4 ce 00                  	bgeu	t4, a2, 8
8000149c: 13 87 e7 ff                  	addi	a4, a5, -2
800014a0: 13 95 06 01                  	slli	a0, a3, 16
800014a4: 33 65 e5 00                  	or	a0, a0, a4
800014a8: 13 03 00 00                  	mv	t1, zero
800014ac: 6f 00 40 0e                  	j	228
800014b0: b7 06 00 01                  	lui	a3, 4096
800014b4: 93 07 00 01                  	addi	a5, zero, 16
800014b8: e3 6c d6 f2                  	bltu	a2, a3, -200
800014bc: 93 07 80 01                  	addi	a5, zero, 24
800014c0: 6f f0 1f f3                  	j	-208
800014c4: 63 16 06 00                  	bnez	a2, 12
800014c8: 93 08 10 00                  	addi	a7, zero, 1
800014cc: b3 d8 d8 02                  	<unknown>
800014d0: b7 07 01 00                  	lui	a5, 16
800014d4: 63 fc f8 0c                  	bgeu	a7, a5, 216
800014d8: 93 07 f0 0f                  	addi	a5, zero, 255
800014dc: 63 f4 17 01                  	bgeu	a5, a7, 8
800014e0: 93 0f 80 00                  	addi	t6, zero, 8
800014e4: b3 d7 f8 01                  	srl	a5, a7, t6
800014e8: 33 07 f7 00                  	add	a4, a4, a5
800014ec: 83 47 07 00                  	lbu	a5, 0(a4)
800014f0: 93 06 00 02                  	addi	a3, zero, 32
800014f4: b3 87 f7 01                  	add	a5, a5, t6
800014f8: 33 87 f6 40                  	sub	a4, a3, a5
800014fc: 63 92 f6 0c                  	bne	a3, a5, 196
80001500: b3 85 15 41                  	sub	a1, a1, a7
80001504: 13 03 10 00                  	addi	t1, zero, 1
80001508: 13 d5 08 01                  	srli	a0, a7, 16
8000150c: 13 96 08 01                  	slli	a2, a7, 16
80001510: 13 56 06 01                  	srli	a2, a2, 16
80001514: 13 d7 0e 01                  	srli	a4, t4, 16
80001518: b3 d7 a5 02                  	<unknown>
8000151c: b3 f6 a5 02                  	<unknown>
80001520: b3 05 f6 02                  	<unknown>
80001524: 93 96 06 01                  	slli	a3, a3, 16
80001528: 33 e7 e6 00                  	or	a4, a3, a4
8000152c: 93 86 07 00                  	mv	a3, a5
80001530: 63 7e b7 00                  	bgeu	a4, a1, 28
80001534: 33 07 17 01                  	add	a4, a4, a7
80001538: 93 86 f7 ff                  	addi	a3, a5, -1
8000153c: 63 68 17 01                  	bltu	a4, a7, 16
80001540: 63 76 b7 00                  	bgeu	a4, a1, 12
80001544: 93 86 e7 ff                  	addi	a3, a5, -2
80001548: 33 07 17 01                  	add	a4, a4, a7
8000154c: 33 07 b7 40                  	sub	a4, a4, a1
80001550: b3 77 a7 02                  	<unknown>
80001554: 93 9e 0e 01                  	slli	t4, t4, 16
80001558: 93 de 0e 01                  	srli	t4, t4, 16
8000155c: 33 57 a7 02                  	<unknown>
80001560: 93 97 07 01                  	slli	a5, a5, 16
80001564: b3 ee d7 01                  	or	t4, a5, t4
80001568: 33 06 e6 02                  	<unknown>
8000156c: 93 07 07 00                  	mv	a5, a4
80001570: 63 fc ce 00                  	bgeu	t4, a2, 24
80001574: b3 8e d8 01                  	add	t4, a7, t4
80001578: 93 07 f7 ff                  	addi	a5, a4, -1
8000157c: 63 e6 1e 01                  	bltu	t4, a7, 12
80001580: 63 f4 ce 00                  	bgeu	t4, a2, 8
80001584: 93 07 e7 ff                  	addi	a5, a4, -2
80001588: 13 95 06 01                  	slli	a0, a3, 16
8000158c: 33 65 f5 00                  	or	a0, a0, a5
80001590: 93 05 03 00                  	mv	a1, t1
80001594: 63 0a 08 00                  	beqz	a6, 20
80001598: 33 37 a0 00                  	snez	a4, a0
8000159c: b3 07 60 40                  	neg	a5, t1
800015a0: b3 85 e7 40                  	sub	a1, a5, a4
800015a4: 33 05 a0 40                  	neg	a0, a0
800015a8: 67 80 00 00                  	ret
800015ac: b7 07 00 01                  	lui	a5, 4096
800015b0: 93 0f 00 01                  	addi	t6, zero, 16
800015b4: e3 e8 f8 f2                  	bltu	a7, a5, -208
800015b8: 93 0f 80 01                  	addi	t6, zero, 24
800015bc: 6f f0 9f f2                  	j	-216
800015c0: b3 98 e8 00                  	sll	a7, a7, a4
800015c4: 33 d5 f5 00                  	srl	a0, a1, a5
800015c8: b3 1e ee 00                  	sll	t4, t3, a4
800015cc: b3 95 e5 00                  	sll	a1, a1, a4
800015d0: b3 57 fe 00                  	srl	a5, t3, a5
800015d4: 13 de 08 01                  	srli	t3, a7, 16
800015d8: 33 e6 b7 00                  	or	a2, a5, a1
800015dc: b3 57 c5 03                  	<unknown>
800015e0: 93 95 08 01                  	slli	a1, a7, 16
800015e4: 93 d5 05 01                  	srli	a1, a1, 16
800015e8: 33 77 c5 03                  	<unknown>
800015ec: 13 55 06 01                  	srli	a0, a2, 16
800015f0: 13 83 07 00                  	mv	t1, a5
800015f4: b3 86 f5 02                  	<unknown>
800015f8: 13 17 07 01                  	slli	a4, a4, 16
800015fc: 33 67 a7 00                  	or	a4, a4, a0
80001600: 63 7e d7 00                  	bgeu	a4, a3, 28
80001604: 33 07 17 01                  	add	a4, a4, a7
80001608: 13 83 f7 ff                  	addi	t1, a5, -1
8000160c: 63 68 17 01                  	bltu	a4, a7, 16
80001610: 63 76 d7 00                  	bgeu	a4, a3, 12
80001614: 13 83 e7 ff                  	addi	t1, a5, -2
80001618: 33 07 17 01                  	add	a4, a4, a7
8000161c: b3 06 d7 40                  	sub	a3, a4, a3
80001620: 33 f7 c6 03                  	<unknown>
80001624: 13 16 06 01                  	slli	a2, a2, 16
80001628: 13 56 06 01                  	srli	a2, a2, 16
8000162c: b3 d6 c6 03                  	<unknown>
80001630: 13 17 07 01                  	slli	a4, a4, 16
80001634: b3 87 d5 02                  	<unknown>
80001638: b3 65 c7 00                  	or	a1, a4, a2
8000163c: 13 87 06 00                  	mv	a4, a3
80001640: 63 fe f5 00                  	bgeu	a1, a5, 28
80001644: b3 85 15 01                  	add	a1, a1, a7
80001648: 13 87 f6 ff                  	addi	a4, a3, -1
8000164c: 63 e8 15 01                  	bltu	a1, a7, 16
80001650: 63 f6 f5 00                  	bgeu	a1, a5, 12
80001654: 13 87 e6 ff                  	addi	a4, a3, -2
80001658: b3 85 15 01                  	add	a1, a1, a7
8000165c: 13 13 03 01                  	slli	t1, t1, 16
80001660: b3 85 f5 40                  	sub	a1, a1, a5
80001664: 33 63 e3 00                  	or	t1, t1, a4
80001668: 6f f0 1f ea                  	j	-352
8000166c: 63 e6 d5 18                  	bltu	a1, a3, 396
80001670: b7 07 01 00                  	lui	a5, 16
80001674: 63 f4 f6 04                  	bgeu	a3, a5, 72
80001678: 13 07 f0 0f                  	addi	a4, zero, 255
8000167c: b3 37 d7 00                  	sltu	a5, a4, a3
80001680: 93 97 37 00                  	slli	a5, a5, 3
80001684: 37 27 00 80                  	lui	a4, 524290
80001688: 33 d5 f6 00                  	srl	a0, a3, a5
8000168c: 13 07 47 80                  	addi	a4, a4, -2044
80001690: 33 07 a7 00                  	add	a4, a4, a0
80001694: 03 47 07 00                  	lbu	a4, 0(a4)
80001698: 33 07 f7 00                  	add	a4, a4, a5
8000169c: 93 07 00 02                  	addi	a5, zero, 32
800016a0: 33 83 e7 40                  	sub	t1, a5, a4
800016a4: 63 96 e7 02                  	bne	a5, a4, 44
800016a8: 13 05 10 00                  	addi	a0, zero, 1
800016ac: e3 e2 b6 ee                  	bltu	a3, a1, -284
800016b0: 33 35 ce 00                  	sltu	a0, t3, a2
800016b4: 13 45 15 00                  	xori	a0, a0, 1
800016b8: 6f f0 9f ed                  	j	-296
800016bc: 37 07 00 01                  	lui	a4, 4096
800016c0: 93 07 00 01                  	addi	a5, zero, 16
800016c4: e3 e0 e6 fc                  	bltu	a3, a4, -64
800016c8: 93 07 80 01                  	addi	a5, zero, 24
800016cc: 6f f0 9f fb                  	j	-72
800016d0: b3 57 e6 00                  	srl	a5, a2, a4
800016d4: b3 96 66 00                  	sll	a3, a3, t1
800016d8: b3 e6 d7 00                  	or	a3, a5, a3
800016dc: 33 d5 e5 00                  	srl	a0, a1, a4
800016e0: b3 97 65 00                  	sll	a5, a1, t1
800016e4: 33 57 ee 00                  	srl	a4, t3, a4
800016e8: 93 df 06 01                  	srli	t6, a3, 16
800016ec: b3 65 f7 00                  	or	a1, a4, a5
800016f0: 33 77 f5 03                  	<unknown>
800016f4: 33 1f 66 00                  	sll	t5, a2, t1
800016f8: 13 96 06 01                  	slli	a2, a3, 16
800016fc: 13 56 06 01                  	srli	a2, a2, 16
80001700: 93 d7 05 01                  	srli	a5, a1, 16
80001704: 33 55 f5 03                  	<unknown>
80001708: 13 17 07 01                  	slli	a4, a4, 16
8000170c: b3 67 f7 00                  	or	a5, a4, a5
80001710: b3 08 a6 02                  	<unknown>
80001714: 93 0e 05 00                  	mv	t4, a0
80001718: 63 fe 17 01                  	bgeu	a5, a7, 28
8000171c: b3 87 d7 00                  	add	a5, a5, a3
80001720: 93 0e f5 ff                  	addi	t4, a0, -1
80001724: 63 e8 d7 00                  	bltu	a5, a3, 16
80001728: 63 f6 17 01                  	bgeu	a5, a7, 12
8000172c: 93 0e e5 ff                  	addi	t4, a0, -2
80001730: b3 87 d7 00                  	add	a5, a5, a3
80001734: b3 87 17 41                  	sub	a5, a5, a7
80001738: b3 f8 f7 03                  	<unknown>
8000173c: 93 95 05 01                  	slli	a1, a1, 16
80001740: 93 d5 05 01                  	srli	a1, a1, 16
80001744: b3 d7 f7 03                  	<unknown>
80001748: 93 98 08 01                  	slli	a7, a7, 16
8000174c: 33 e7 b8 00                  	or	a4, a7, a1
80001750: 33 06 f6 02                  	<unknown>
80001754: 93 85 07 00                  	mv	a1, a5
80001758: 63 7e c7 00                  	bgeu	a4, a2, 28
8000175c: 33 07 d7 00                  	add	a4, a4, a3
80001760: 93 85 f7 ff                  	addi	a1, a5, -1
80001764: 63 68 d7 00                  	bltu	a4, a3, 16
80001768: 63 76 c7 00                  	bgeu	a4, a2, 12
8000176c: 93 85 e7 ff                  	addi	a1, a5, -2
80001770: 33 07 d7 00                  	add	a4, a4, a3
80001774: 13 95 0e 01                  	slli	a0, t4, 16
80001778: b7 0e 01 00                  	lui	t4, 16
8000177c: 33 65 b5 00                  	or	a0, a0, a1
80001780: 93 86 fe ff                  	addi	a3, t4, -1
80001784: b3 75 d5 00                  	and	a1, a0, a3
80001788: 33 07 c7 40                  	sub	a4, a4, a2
8000178c: b3 76 df 00                  	and	a3, t5, a3
80001790: 13 56 05 01                  	srli	a2, a0, 16
80001794: 13 5f 0f 01                  	srli	t5, t5, 16
80001798: b3 88 d5 02                  	<unknown>
8000179c: b3 06 d6 02                  	<unknown>
800017a0: 93 d7 08 01                  	srli	a5, a7, 16
800017a4: b3 85 e5 03                  	<unknown>
800017a8: b3 85 d5 00                  	add	a1, a1, a3
800017ac: b3 87 b7 00                  	add	a5, a5, a1
800017b0: 33 06 e6 03                  	<unknown>
800017b4: 63 f4 d7 00                  	bgeu	a5, a3, 8
800017b8: 33 06 d6 01                  	add	a2, a2, t4
800017bc: 93 d6 07 01                  	srli	a3, a5, 16
800017c0: 33 86 c6 00                  	add	a2, a3, a2
800017c4: 63 66 c7 02                  	bltu	a4, a2, 44
800017c8: e3 10 c7 ce                  	bne	a4, a2, -800
800017cc: 37 07 01 00                  	lui	a4, 16
800017d0: 13 07 f7 ff                  	addi	a4, a4, -1
800017d4: b3 f7 e7 00                  	and	a5, a5, a4
800017d8: 93 97 07 01                  	slli	a5, a5, 16
800017dc: b3 f8 e8 00                  	and	a7, a7, a4
800017e0: 33 1e 6e 00                  	sll	t3, t3, t1
800017e4: b3 87 17 01                  	add	a5, a5, a7
800017e8: 13 03 00 00                  	mv	t1, zero
800017ec: e3 72 fe da                  	bgeu	t3, a5, -604
800017f0: 13 05 f5 ff                  	addi	a0, a0, -1
800017f4: 6f f0 5f cb                  	j	-844
800017f8: 13 03 00 00                  	mv	t1, zero
800017fc: 13 05 00 00                  	mv	a0, zero
80001800: 6f f0 1f d9                  	j	-624

Disassembly of section .rodata:

80001804 __clz_tab:
80001804: 00 01                        	<unknown>
80001806: 02 02                        	<unknown>
80001808: 03 03 03 03                  	lb	t1, 48(t1)
8000180c: 04 04                        	<unknown>
8000180e: 04 04                        	<unknown>
80001810: 04 04                        	<unknown>
80001812: 04 04                        	<unknown>
80001814: 05 05                        	<unknown>
80001816: 05 05                        	<unknown>
80001818: 05 05                        	<unknown>
8000181a: 05 05                        	<unknown>
8000181c: 05 05                        	<unknown>
8000181e: 05 05                        	<unknown>
80001820: 05 05                        	<unknown>
80001822: 05 05                        	<unknown>
80001824: 06 06                        	<unknown>
80001826: 06 06                        	<unknown>
80001828: 06 06                        	<unknown>
8000182a: 06 06                        	<unknown>
8000182c: 06 06                        	<unknown>
8000182e: 06 06                        	<unknown>
80001830: 06 06                        	<unknown>
80001832: 06 06                        	<unknown>
80001834: 06 06                        	<unknown>
80001836: 06 06                        	<unknown>
80001838: 06 06                        	<unknown>
8000183a: 06 06                        	<unknown>
8000183c: 06 06                        	<unknown>
8000183e: 06 06                        	<unknown>
80001840: 06 06                        	<unknown>
80001842: 06 06                        	<unknown>
80001844: 07 07 07 07                  	<unknown>
80001848: 07 07 07 07                  	<unknown>
8000184c: 07 07 07 07                  	<unknown>
80001850: 07 07 07 07                  	<unknown>
80001854: 07 07 07 07                  	<unknown>
80001858: 07 07 07 07                  	<unknown>
8000185c: 07 07 07 07                  	<unknown>
80001860: 07 07 07 07                  	<unknown>
80001864: 07 07 07 07                  	<unknown>
80001868: 07 07 07 07                  	<unknown>
8000186c: 07 07 07 07                  	<unknown>
80001870: 07 07 07 07                  	<unknown>
80001874: 07 07 07 07                  	<unknown>
80001878: 07 07 07 07                  	<unknown>
8000187c: 07 07 07 07                  	<unknown>
80001880: 07 07 07 07                  	<unknown>
80001884: 08 08                        	<unknown>
80001886: 08 08                        	<unknown>
80001888: 08 08                        	<unknown>
8000188a: 08 08                        	<unknown>
8000188c: 08 08                        	<unknown>
8000188e: 08 08                        	<unknown>
80001890: 08 08                        	<unknown>
80001892: 08 08                        	<unknown>
80001894: 08 08                        	<unknown>
80001896: 08 08                        	<unknown>
80001898: 08 08                        	<unknown>
8000189a: 08 08                        	<unknown>
8000189c: 08 08                        	<unknown>
8000189e: 08 08                        	<unknown>
800018a0: 08 08                        	<unknown>
800018a2: 08 08                        	<unknown>
800018a4: 08 08                        	<unknown>
800018a6: 08 08                        	<unknown>
800018a8: 08 08                        	<unknown>
800018aa: 08 08                        	<unknown>
800018ac: 08 08                        	<unknown>
800018ae: 08 08                        	<unknown>
800018b0: 08 08                        	<unknown>
800018b2: 08 08                        	<unknown>
800018b4: 08 08                        	<unknown>
800018b6: 08 08                        	<unknown>
800018b8: 08 08                        	<unknown>
800018ba: 08 08                        	<unknown>
800018bc: 08 08                        	<unknown>
800018be: 08 08                        	<unknown>
800018c0: 08 08                        	<unknown>
800018c2: 08 08                        	<unknown>
800018c4: 08 08                        	<unknown>
800018c6: 08 08                        	<unknown>
800018c8: 08 08                        	<unknown>
800018ca: 08 08                        	<unknown>
800018cc: 08 08                        	<unknown>
800018ce: 08 08                        	<unknown>
800018d0: 08 08                        	<unknown>
800018d2: 08 08                        	<unknown>
800018d4: 08 08                        	<unknown>
800018d6: 08 08                        	<unknown>
800018d8: 08 08                        	<unknown>
800018da: 08 08                        	<unknown>
800018dc: 08 08                        	<unknown>
800018de: 08 08                        	<unknown>
800018e0: 08 08                        	<unknown>
800018e2: 08 08                        	<unknown>
800018e4: 08 08                        	<unknown>
800018e6: 08 08                        	<unknown>
800018e8: 08 08                        	<unknown>
800018ea: 08 08                        	<unknown>
800018ec: 08 08                        	<unknown>
800018ee: 08 08                        	<unknown>
800018f0: 08 08                        	<unknown>
800018f2: 08 08                        	<unknown>
800018f4: 08 08                        	<unknown>
800018f6: 08 08                        	<unknown>
800018f8: 08 08                        	<unknown>
800018fa: 08 08                        	<unknown>
800018fc: 08 08                        	<unknown>
800018fe: 08 08                        	<unknown>
80001900: 08 08                        	<unknown>
80001902: 08 08                        	<unknown>

Disassembly of section .eh_frame:

80001904 .eh_frame:
80001904: 10 00                        	<unknown>
80001906: 00 00                        	<unknown>
80001908: 00 00                        	<unknown>
8000190a: 00 00                        	<unknown>
8000190c: 01 7a                        	<unknown>
8000190e: 52 00                        	<unknown>
80001910: 01 7c                        	<unknown>
80001912: 01 01                        	<unknown>
80001914: 1b 0c 02 00                  	<unknown>
80001918: 2c 00                        	<unknown>
8000191a: 00 00                        	<unknown>
8000191c: 18 00                        	<unknown>
8000191e: 00 00                        	<unknown>
80001920: 48 e7                        	<unknown>
80001922: ff ff 94 09                  	<unknown>
80001926: 00 00                        	<unknown>
80001928: 00 44                        	<unknown>
8000192a: 0e 90                        	<unknown>
8000192c: 02 74                        	<unknown>
8000192e: 81 01                        	<unknown>
80001930: 88 02                        	<unknown>
80001932: 89 03                        	<unknown>
80001934: 92 04                        	<unknown>
80001936: 93 05 94 06                  	addi	a1, s0, 105
8000193a: 95 07                        	<unknown>
8000193c: 96 08                        	<unknown>
8000193e: 97 09 98 0a                  	auipc	s3, 43392
80001942: 99 0b                        	<unknown>
80001944: 9a 0c                        	<unknown>
80001946: 9b 0d 14 00                  	<unknown>
8000194a: 00 00                        	<unknown>
8000194c: 48 00                        	<unknown>
8000194e: 00 00                        	<unknown>
80001950: e4 f0                        	<unknown>
80001952: ff ff 34 00                  	<unknown>
80001956: 00 00                        	<unknown>
80001958: 00 44                        	<unknown>
8000195a: 0e 10                        	<unknown>
8000195c: 44 81                        	<unknown>
8000195e: 01 00                        	<unknown>
80001960: 10 00                        	<unknown>
80001962: 00 00                        	<unknown>
80001964: 00 00                        	<unknown>
80001966: 00 00                        	<unknown>
80001968: 03 7a 52 00                  	<unknown>
8000196c: 01 7c                        	<unknown>
8000196e: 01 01                        	<unknown>
80001970: 1b 0d 02 00                  	<unknown>
80001974: 10 00                        	<unknown>
80001976: 00 00                        	<unknown>
80001978: 18 00                        	<unknown>
8000197a: 00 00                        	<unknown>
8000197c: 08 fa                        	<unknown>
8000197e: ff ff 80 04                  	<unknown>
80001982: 00 00                        	<unknown>
80001984: 00 00                        	<unknown>
80001986: 00 00                        	<unknown>

Disassembly of section .init_array:

80002988 __preinit_array_start:
80002988: 50 00                        	<unknown>
8000298a: 00 80                        	<unknown>

Disassembly of section .data:

80002990 impure_data:
80002990: 00 00                        	<unknown>
80002992: 00 00                        	<unknown>
80002994: 7c 2c                        	<unknown>
80002996: 00 80                        	<unknown>
80002998: e4 2c                        	<unknown>
8000299a: 00 80                        	<unknown>
8000299c: 4c 2d                        	<unknown>
8000299e: 00 80                        	<unknown>
		...
80002a38: 01 00                        	<unknown>
80002a3a: 00 00                        	<unknown>
80002a3c: 00 00                        	<unknown>
80002a3e: 00 00                        	<unknown>
80002a40: 0e 33                        	<unknown>
80002a42: cd ab                        	<unknown>
80002a44: 34 12                        	<unknown>
80002a46: 6d e6                        	<unknown>
80002a48: ec de                        	<unknown>
80002a4a: 05 00                        	<unknown>
80002a4c: 0b 00 00 00                  	vx_tmc	zero
		...

Disassembly of section .sdata:

80002db8 _global_impure_ptr:
80002db8: 90 29                        	<unknown>
80002dba: 00 80                        	<unknown>

Disassembly of section .bss:

80002dbc g_wspawn_args:
...

Disassembly of section .comment:

00000000 .comment:
       0: 63 6c 61 6e                  	bltu	sp, t1, 1784
       4: 67 20 76 65                  	<unknown>
       8: 72 73                        	<unknown>
       a: 69 6f                        	<unknown>
       c: 6e 20                        	<unknown>
       e: 31 30                        	<unknown>
      10: 2e 30                        	<unknown>
      12: 2e 31                        	<unknown>
      14: 20 28                        	<unknown>
      16: 68 74                        	<unknown>
      18: 74 70                        	<unknown>
      1a: 73 3a 2f 2f                  	csrrc	s4, 754, t5
      1e: 67 69 74 68                  	<unknown>
      22: 75 62                        	<unknown>
      24: 2e 63                        	<unknown>
      26: 6f 6d 2f 6c                  	jal	s10, 1009346
      2a: 6c 76                        	<unknown>
      2c: 6d 2f                        	<unknown>
      2e: 6c 6c                        	<unknown>
      30: 76 6d                        	<unknown>
      32: 2d 70                        	<unknown>
      34: 72 6f                        	<unknown>
      36: 6a 65                        	<unknown>
      38: 63 74 2e 67                  	bgeu	t3, s2, 1640
      3c: 69 74                        	<unknown>
      3e: 20 31                        	<unknown>
      40: 30 65                        	<unknown>
      42: 63 63 34 64                  	bltu	s0, gp, 1606
      46: 30 32                        	<unknown>
      48: 66 61                        	<unknown>
      4a: 34 37                        	<unknown>
      4c: 39 38                        	<unknown>
      4e: 36 33                        	<unknown>
      50: 33 38 61 31                  	<unknown>
      54: 62 61                        	<unknown>
      56: 65 33                        	<unknown>
      58: 64 39                        	<unknown>
      5a: 34 30                        	<unknown>
      5c: 33 66 39 65                  	<unknown>
      60: 32 62                        	<unknown>
      62: 30 61                        	<unknown>
      64: 39 65                        	<unknown>
      66: 62 29                        	<unknown>
      68: 00 47                        	<unknown>
      6a: 43 43 3a 20                  	<unknown>
      6e: 28 47                        	<unknown>
      70: 4e 55                        	<unknown>
      72: 29 20                        	<unknown>
      74: 39 2e                        	<unknown>
      76: 32 2e                        	<unknown>
      78: 30 00                        	<unknown>

Disassembly of section .riscv.attributes:

00000000 .riscv.attributes:
       0: 41 25                        	<unknown>
       2: 00 00                        	<unknown>
       4: 00 72                        	<unknown>
       6: 69 73                        	<unknown>
       8: 63 76 00 01                  	bgeu	zero, a6, 12
       c: 1b 00 00 00                  	<unknown>
      10: 04 10                        	<unknown>
      12: 05 72                        	<unknown>
      14: 76 33                        	<unknown>
      16: 32 69                        	<unknown>
      18: 32 70                        	<unknown>
      1a: 30 5f                        	<unknown>
      1c: 6d 32                        	<unknown>
      1e: 70 30                        	<unknown>
      20: 5f 66 32 70                  	<unknown>
      24: 30 00                        	<unknown>

Disassembly of section .debug_aranges:

00000000 .debug_aranges:
       0: 1c 00                        	<unknown>
       2: 00 00                        	<unknown>
       4: 02 00                        	<unknown>
       6: 00 00                        	<unknown>
       8: 00 00                        	<unknown>
       a: 04 00                        	<unknown>
       c: 00 00                        	<unknown>
       e: 00 00                        	<unknown>
      10: 84 13                        	<unknown>
      12: 00 80                        	<unknown>
      14: 80 04                        	<unknown>
		...
      1e: 00 00                        	<unknown>
      20: 14 00                        	<unknown>
      22: 00 00                        	<unknown>
      24: 02 00                        	<unknown>
      26: 7b 12 00 00                  	<unknown>
      2a: 04 00                        	<unknown>
		...

Disassembly of section .debug_info:

00000000 .debug_info:
       0: 77 12 00 00                  	<unknown>
       4: 04 00                        	<unknown>
       6: 00 00                        	<unknown>
       8: 00 00                        	<unknown>
       a: 04 01                        	<unknown>
       c: e2 04                        	<unknown>
       e: 00 00                        	<unknown>
      10: 0c 6d                        	<unknown>
      12: 04 00                        	<unknown>
      14: 00 d5                        	<unknown>
      16: 01 00                        	<unknown>
      18: 00 84                        	<unknown>
      1a: 13 00 80 80                  	addi	zero, zero, -2040
      1e: 04 00                        	<unknown>
      20: 00 00                        	<unknown>
      22: 00 00                        	<unknown>
      24: 00 02                        	<unknown>
      26: 08 07                        	<unknown>
      28: ca 02                        	<unknown>
      2a: 00 00                        	<unknown>
      2c: 02 04                        	<unknown>
      2e: 07 d4 02 00                  	<unknown>
      32: 00 03                        	<unknown>
      34: 04 05                        	<unknown>
      36: 69 6e                        	<unknown>
      38: 74 00                        	<unknown>
      3a: 02 08                        	<unknown>
      3c: 05 f1                        	<unknown>
      3e: 03 00 00 02                  	lb	zero, 32(zero)
      42: 10 04                        	<unknown>
      44: c0 00                        	<unknown>
      46: 00 00                        	<unknown>
      48: 02 01                        	<unknown>
      4a: 06 aa                        	<unknown>
      4c: 06 00                        	<unknown>
      4e: 00 02                        	<unknown>
      50: 01 08                        	<unknown>
      52: a8 06                        	<unknown>
      54: 00 00                        	<unknown>
      56: 02 02                        	<unknown>
      58: 05 00                        	<unknown>
      5a: 00 00                        	<unknown>
      5c: 00 02                        	<unknown>
      5e: 02 07                        	<unknown>
      60: ea 02                        	<unknown>
      62: 00 00                        	<unknown>
      64: 02 04                        	<unknown>
      66: 05 f6                        	<unknown>
      68: 03 00 00 02                  	lb	zero, 32(zero)
      6c: 04 07                        	<unknown>
      6e: cf 02 00 00                  	<unknown>
      72: 04 46                        	<unknown>
      74: 03 00 00 02                  	lb	zero, 32(zero)
      78: 5e 01                        	<unknown>
      7a: 17 2c 00 00                  	auipc	s8, 2
      7e: 00 05                        	<unknown>
      80: 25 04                        	<unknown>
      82: 00 00                        	<unknown>
      84: 03 2e 0e 64                  	lw	t3, 1600(t3)
      88: 00 00                        	<unknown>
      8a: 00 05                        	<unknown>
      8c: 27 06 00 00                  	<unknown>
      90: 03 74 0e 64                  	<unknown>
      94: 00 00                        	<unknown>
      96: 00 05                        	<unknown>
      98: 12 07                        	<unknown>
      9a: 00 00                        	<unknown>
      9c: 03 93 17 33                  	lh	t1, 817(a5)
      a0: 00 00                        	<unknown>
      a2: 00 06                        	<unknown>
      a4: 04 03                        	<unknown>
      a6: a5 03                        	<unknown>
      a8: c5 00                        	<unknown>
      aa: 00 00                        	<unknown>
      ac: 07 31 03 00                  	<unknown>
      b0: 00 03                        	<unknown>
      b2: a7 0c 72 00                  	<unknown>
      b6: 00 00                        	<unknown>
      b8: 07 9c 02 00                  	<unknown>
      bc: 00 03                        	<unknown>
      be: a8 13                        	<unknown>
      c0: c5 00                        	<unknown>
      c2: 00 00                        	<unknown>
      c4: 00 08                        	<unknown>
      c6: 4f 00 00 00                  	<unknown>
      ca: d5 00                        	<unknown>
      cc: 00 00                        	<unknown>
      ce: 09 2c                        	<unknown>
      d0: 00 00                        	<unknown>
      d2: 00 03                        	<unknown>
      d4: 00 0a                        	<unknown>
      d6: 08 03                        	<unknown>
      d8: a2 09                        	<unknown>
      da: f9 00                        	<unknown>
      dc: 00 00                        	<unknown>
      de: 0b 97 03 00                  	<unknown>
      e2: 00 03                        	<unknown>
      e4: a4 07                        	<unknown>
      e6: 33 00 00 00                  	add	zero, zero, zero
      ea: 00 0b                        	<unknown>
      ec: 19 06                        	<unknown>
      ee: 00 00                        	<unknown>
      f0: 03 a9 05 a3                  	lw	s2, -1488(a1)
      f4: 00 00                        	<unknown>
      f6: 00 04                        	<unknown>
      f8: 00 05                        	<unknown>
      fa: 4a 04                        	<unknown>
      fc: 00 00                        	<unknown>
      fe: 03 aa 03 d5                  	lw	s4, -688(t2)
     102: 00 00                        	<unknown>
     104: 00 0c                        	<unknown>
     106: 04 05                        	<unknown>
     108: bb 06 00 00                  	<unknown>
     10c: 04 16                        	<unknown>
     10e: 19 6b                        	<unknown>
     110: 00 00                        	<unknown>
     112: 00 05                        	<unknown>
     114: 55 04                        	<unknown>
     116: 00 00                        	<unknown>
     118: 05 0c                        	<unknown>
     11a: 0d 33                        	<unknown>
     11c: 00 00                        	<unknown>
     11e: 00 05                        	<unknown>
     120: cb 04 00 00                  	<unknown>
     124: 04 23                        	<unknown>
     126: 1b 13 01 00                  	<unknown>
     12a: 00 0d                        	<unknown>
     12c: d0 03                        	<unknown>
     12e: 00 00                        	<unknown>
     130: 18 04                        	<unknown>
     132: 34 08                        	<unknown>
     134: 85 01                        	<unknown>
     136: 00 00                        	<unknown>
     138: 0b d4 07 00                  	<unknown>
     13c: 00 04                        	<unknown>
     13e: 36 13                        	<unknown>
     140: 85 01                        	<unknown>
     142: 00 00                        	<unknown>
     144: 00 0e                        	<unknown>
     146: 5f 6b 00 04                  	<unknown>
     14a: 37 07 33 00                  	lui	a4, 816
     14e: 00 00                        	<unknown>
     150: 04 0b                        	<unknown>
     152: f6 05                        	<unknown>
     154: 00 00                        	<unknown>
     156: 04 37                        	<unknown>
     158: 0b 33 00 00                  	<unknown>
     15c: 00 08                        	<unknown>
     15e: 0b 40 02 00                  	vx_bar	tp, zero
     162: 00 04                        	<unknown>
     164: 37 14 33 00                  	lui	s0, 817
     168: 00 00                        	<unknown>
     16a: 0c 0b                        	<unknown>
     16c: 6b 01 00 00                  	<unknown>
     170: 04 37                        	<unknown>
     172: 1b 33 00 00                  	<unknown>
     176: 00 10                        	<unknown>
     178: 0e 5f                        	<unknown>
     17a: 78 00                        	<unknown>
     17c: 04 38                        	<unknown>
     17e: 0b 8b 01 00                  	<unknown>
     182: 00 14                        	<unknown>
     184: 00 0f                        	<unknown>
     186: 04 2b                        	<unknown>
     188: 01 00                        	<unknown>
     18a: 00 08                        	<unknown>
     18c: 07 01 00 00                  	<unknown>
     190: 9b 01 00 00                  	<unknown>
     194: 09 2c                        	<unknown>
     196: 00 00                        	<unknown>
     198: 00 00                        	<unknown>
     19a: 00 0d                        	<unknown>
     19c: 7f 02 00 00                  	<unknown>
     1a0: 24 04                        	<unknown>
     1a2: 3c 08                        	<unknown>
     1a4: 1e 02                        	<unknown>
     1a6: 00 00                        	<unknown>
     1a8: 0b f8 00 00                  	<unknown>
     1ac: 00 04                        	<unknown>
     1ae: 3e 09                        	<unknown>
     1b0: 33 00 00 00                  	add	zero, zero, zero
     1b4: 00 0b                        	<unknown>
     1b6: 70 07                        	<unknown>
     1b8: 00 00                        	<unknown>
     1ba: 04 3f                        	<unknown>
     1bc: 09 33                        	<unknown>
     1be: 00 00                        	<unknown>
     1c0: 00 04                        	<unknown>
     1c2: 0b 14 01 00                  	<unknown>
     1c6: 00 04                        	<unknown>
     1c8: 40 09                        	<unknown>
     1ca: 33 00 00 00                  	add	zero, zero, zero
     1ce: 08 0b                        	<unknown>
     1d0: c5 07                        	<unknown>
     1d2: 00 00                        	<unknown>
     1d4: 04 41                        	<unknown>
     1d6: 09 33                        	<unknown>
     1d8: 00 00                        	<unknown>
     1da: 00 0c                        	<unknown>
     1dc: 0b ff 03 00                  	<unknown>
     1e0: 00 04                        	<unknown>
     1e2: 42 09                        	<unknown>
     1e4: 33 00 00 00                  	add	zero, zero, zero
     1e8: 10 0b                        	<unknown>
     1ea: 8d 03                        	<unknown>
     1ec: 00 00                        	<unknown>
     1ee: 04 43                        	<unknown>
     1f0: 09 33                        	<unknown>
     1f2: 00 00                        	<unknown>
     1f4: 00 14                        	<unknown>
     1f6: 0b fb 06 00                  	<unknown>
     1fa: 00 04                        	<unknown>
     1fc: 44 09                        	<unknown>
     1fe: 33 00 00 00                  	add	zero, zero, zero
     202: 18 0b                        	<unknown>
     204: ac 07                        	<unknown>
     206: 00 00                        	<unknown>
     208: 04 45                        	<unknown>
     20a: 09 33                        	<unknown>
     20c: 00 00                        	<unknown>
     20e: 00 1c                        	<unknown>
     210: 0b 56 07 00                  	<unknown>
     214: 00 04                        	<unknown>
     216: 46 09                        	<unknown>
     218: 33 00 00 00                  	add	zero, zero, zero
     21c: 20 00                        	<unknown>
     21e: 10 31                        	<unknown>
     220: 01 00                        	<unknown>
     222: 00 08                        	<unknown>
     224: 01 04                        	<unknown>
     226: 4f 08 63 02                  	<unknown>
     22a: 00 00                        	<unknown>
     22c: 0b 33 02 00                  	<unknown>
     230: 00 04                        	<unknown>
     232: 50 0a                        	<unknown>
     234: 63 02 00 00                  	beqz	zero, 4
     238: 00 0b                        	<unknown>
     23a: a7 04 00 00                  	<unknown>
     23e: 04 51                        	<unknown>
     240: 09 63                        	<unknown>
     242: 02 00                        	<unknown>
     244: 00 80                        	<unknown>
     246: 11 9f                        	<unknown>
     248: 06 00                        	<unknown>
     24a: 00 04                        	<unknown>
     24c: 53 0a 07 01                  	<unknown>
     250: 00 00                        	<unknown>
     252: 00 01                        	<unknown>
     254: 11 63                        	<unknown>
     256: 01 00                        	<unknown>
     258: 00 04                        	<unknown>
     25a: 56 0a                        	<unknown>
     25c: 07 01 00 00                  	<unknown>
     260: 04 01                        	<unknown>
     262: 00 08                        	<unknown>
     264: 05 01                        	<unknown>
     266: 00 00                        	<unknown>
     268: 73 02 00 00                  	<unknown>
     26c: 09 2c                        	<unknown>
     26e: 00 00                        	<unknown>
     270: 00 1f                        	<unknown>
     272: 00 10                        	<unknown>
     274: 08 04                        	<unknown>
     276: 00 00                        	<unknown>
     278: 90 01                        	<unknown>
     27a: 04 62                        	<unknown>
     27c: 08 b6                        	<unknown>
     27e: 02 00                        	<unknown>
     280: 00 0b                        	<unknown>
     282: d4 07                        	<unknown>
     284: 00 00                        	<unknown>
     286: 04 63                        	<unknown>
     288: 12 b6                        	<unknown>
     28a: 02 00                        	<unknown>
     28c: 00 00                        	<unknown>
     28e: 0b df 05 00                  	<unknown>
     292: 00 04                        	<unknown>
     294: 64 06                        	<unknown>
     296: 33 00 00 00                  	add	zero, zero, zero
     29a: 04 0b                        	<unknown>
     29c: 3b 02 00 00                  	<unknown>
     2a0: 04 66                        	<unknown>
     2a2: 09 bc                        	<unknown>
     2a4: 02 00                        	<unknown>
     2a6: 00 08                        	<unknown>
     2a8: 0b 31 01 00                  	<unknown>
     2ac: 00 04                        	<unknown>
     2ae: 67 1e 1e 02                  	<unknown>
     2b2: 00 00                        	<unknown>
     2b4: 88 00                        	<unknown>
     2b6: 0f 04 73 02                  	<unknown>
     2ba: 00 00                        	<unknown>
     2bc: 08 cc                        	<unknown>
     2be: 02 00                        	<unknown>
     2c0: 00 cc                        	<unknown>
     2c2: 02 00                        	<unknown>
     2c4: 00 09                        	<unknown>
     2c6: 2c 00                        	<unknown>
     2c8: 00 00                        	<unknown>
     2ca: 1f 00 0f 04                  	<unknown>
     2ce: d2 02                        	<unknown>
     2d0: 00 00                        	<unknown>
     2d2: 12 0d                        	<unknown>
     2d4: be 07                        	<unknown>
     2d6: 00 00                        	<unknown>
     2d8: 08 04                        	<unknown>
     2da: 7a 08                        	<unknown>
     2dc: fb 02 00 00                  	<unknown>
     2e0: 0b 0e 01 00                  	<unknown>
     2e4: 00 04                        	<unknown>
     2e6: 7b 11 fb 02                  	<unknown>
     2ea: 00 00                        	<unknown>
     2ec: 00 0b                        	<unknown>
     2ee: 1c 00                        	<unknown>
     2f0: 00 00                        	<unknown>
     2f2: 04 7c                        	<unknown>
     2f4: 06 33                        	<unknown>
     2f6: 00 00                        	<unknown>
     2f8: 00 04                        	<unknown>
     2fa: 00 0f                        	<unknown>
     2fc: 04 4f                        	<unknown>
     2fe: 00 00                        	<unknown>
     300: 00 0d                        	<unknown>
     302: bb 05 00 00                  	<unknown>
     306: 68 04                        	<unknown>
     308: ba 08                        	<unknown>
     30a: 44 04                        	<unknown>
     30c: 00 00                        	<unknown>
     30e: 0e 5f                        	<unknown>
     310: 70 00                        	<unknown>
     312: 04 bb                        	<unknown>
     314: 12 fb                        	<unknown>
     316: 02 00                        	<unknown>
     318: 00 00                        	<unknown>
     31a: 0e 5f                        	<unknown>
     31c: 72 00                        	<unknown>
     31e: 04 bc                        	<unknown>
     320: 07 33 00 00                  	<unknown>
     324: 00 04                        	<unknown>
     326: 0e 5f                        	<unknown>
     328: 77 00 04 bd                  	<unknown>
     32c: 07 33 00 00                  	<unknown>
     330: 00 08                        	<unknown>
     332: 0b 5c 01 00                  	<unknown>
     336: 00 04                        	<unknown>
     338: be 09                        	<unknown>
     33a: 56 00                        	<unknown>
     33c: 00 00                        	<unknown>
     33e: 0c 0b                        	<unknown>
     340: ab 02 00 00                  	vx_tex	t0, zero, zero, zero
     344: 04 bf                        	<unknown>
     346: 09 56                        	<unknown>
     348: 00 00                        	<unknown>
     34a: 00 0e                        	<unknown>
     34c: 0e 5f                        	<unknown>
     34e: 62 66                        	<unknown>
     350: 00 04                        	<unknown>
     352: c0 11                        	<unknown>
     354: d3 02 00 00                  	<unknown>
     358: 10 0b                        	<unknown>
     35a: a8 00                        	<unknown>
     35c: 00 00                        	<unknown>
     35e: 04 c1                        	<unknown>
     360: 07 33 00 00                  	<unknown>
     364: 00 18                        	<unknown>
     366: 0b 3f 01 00                  	<unknown>
     36a: 00 04                        	<unknown>
     36c: c8 0a                        	<unknown>
     36e: 05 01                        	<unknown>
     370: 00 00                        	<unknown>
     372: 1c 0b                        	<unknown>
     374: 67 04 00 00                  	jalr	s0, zero
     378: 04 ca                        	<unknown>
     37a: 1d c8                        	<unknown>
     37c: 05 00                        	<unknown>
     37e: 00 20                        	<unknown>
     380: 0b 86 03 00                  	<unknown>
     384: 00 04                        	<unknown>
     386: cc 1d                        	<unknown>
     388: f7 05 00 00                  	<unknown>
     38c: 24 0b                        	<unknown>
     38e: 21 06                        	<unknown>
     390: 00 00                        	<unknown>
     392: 04 cf                        	<unknown>
     394: 0d 1b                        	<unknown>
     396: 06 00                        	<unknown>
     398: 00 28                        	<unknown>
     39a: 0b 01 01 00                  	<unknown>
     39e: 00 04                        	<unknown>
     3a0: d0 09                        	<unknown>
     3a2: 35 06                        	<unknown>
     3a4: 00 00                        	<unknown>
     3a6: 2c 0e                        	<unknown>
     3a8: 5f 75 62 00                  	<unknown>
     3ac: 04 d3                        	<unknown>
     3ae: 11 d3                        	<unknown>
     3b0: 02 00                        	<unknown>
     3b2: 00 30                        	<unknown>
     3b4: 0e 5f                        	<unknown>
     3b6: 75 70                        	<unknown>
     3b8: 00 04                        	<unknown>
     3ba: d4 12                        	<unknown>
     3bc: fb 02 00 00                  	<unknown>
     3c0: 38 0e                        	<unknown>
     3c2: 5f 75 72 00                  	<unknown>
     3c6: 04 d5                        	<unknown>
     3c8: 07 33 00 00                  	<unknown>
     3cc: 00 3c                        	<unknown>
     3ce: 0b 08 01 00                  	<unknown>
     3d2: 00 04                        	<unknown>
     3d4: d8 11                        	<unknown>
     3d6: 3b 06 00 00                  	<unknown>
     3da: 40 0b                        	<unknown>
     3dc: 3e 07                        	<unknown>
     3de: 00 00                        	<unknown>
     3e0: 04 d9                        	<unknown>
     3e2: 11 4b                        	<unknown>
     3e4: 06 00                        	<unknown>
     3e6: 00 43                        	<unknown>
     3e8: 0e 5f                        	<unknown>
     3ea: 6c 62                        	<unknown>
     3ec: 00 04                        	<unknown>
     3ee: dc 11                        	<unknown>
     3f0: d3 02 00 00                  	<unknown>
     3f4: 44 0b                        	<unknown>
     3f6: 38 06                        	<unknown>
     3f8: 00 00                        	<unknown>
     3fa: 04 df                        	<unknown>
     3fc: 07 33 00 00                  	<unknown>
     400: 00 4c                        	<unknown>
     402: 0b c8 03 00                  	<unknown>
     406: 00 04                        	<unknown>
     408: e0 0a                        	<unknown>
     40a: 7f 00 00 00                  	<unknown>
     40e: 50 0b                        	<unknown>
     410: 5b 00 00 00                  	<unknown>
     414: 04 e3                        	<unknown>
     416: 12 62                        	<unknown>
     418: 04 00                        	<unknown>
     41a: 00 54                        	<unknown>
     41c: 0b 4d 03 00                  	<unknown>
     420: 00 04                        	<unknown>
     422: e7 0c 1f 01                  	jalr	s9, 17(t5)
     426: 00 00                        	<unknown>
     428: 58 0b                        	<unknown>
     42a: 93 02 00 00                  	mv	t0, zero
     42e: 04 e9                        	<unknown>
     430: 0e f9                        	<unknown>
     432: 00 00                        	<unknown>
     434: 00 5c                        	<unknown>
     436: 0b d4 04 00                  	<unknown>
     43a: 00 04                        	<unknown>
     43c: ea 09                        	<unknown>
     43e: 33 00 00 00                  	add	zero, zero, zero
     442: 64 00                        	<unknown>
     444: 13 97 00 00                  	slli	a4, ra, 0
     448: 00 62                        	<unknown>
     44a: 04 00                        	<unknown>
     44c: 00 14                        	<unknown>
     44e: 62 04                        	<unknown>
     450: 00 00                        	<unknown>
     452: 14 05                        	<unknown>
     454: 01 00                        	<unknown>
     456: 00 14                        	<unknown>
     458: b6 05                        	<unknown>
     45a: 00 00                        	<unknown>
     45c: 14 33                        	<unknown>
     45e: 00 00                        	<unknown>
     460: 00 00                        	<unknown>
     462: 0f 04 6d 04                  	<unknown>
     466: 00 00                        	<unknown>
     468: 15 62                        	<unknown>
     46a: 04 00                        	<unknown>
     46c: 00 16                        	<unknown>
     46e: fe 05                        	<unknown>
     470: 00 00                        	<unknown>
     472: 28 04                        	<unknown>
     474: 04 65                        	<unknown>
     476: 02 08                        	<unknown>
     478: b6 05                        	<unknown>
     47a: 00 00                        	<unknown>
     47c: 17 c4 04 00                  	auipc	s0, 76
     480: 00 04                        	<unknown>
     482: 67 02 07 33                  	jalr	tp, 816(a4)
     486: 00 00                        	<unknown>
     488: 00 00                        	<unknown>
     48a: 17 0b 07 00                  	auipc	s6, 112
     48e: 00 04                        	<unknown>
     490: 6c 02                        	<unknown>
     492: 0b a7 06 00                  	<unknown>
     496: 00 04                        	<unknown>
     498: 17 f3 06 00                  	auipc	t1, 111
     49c: 00 04                        	<unknown>
     49e: 6c 02                        	<unknown>
     4a0: 14 a7                        	<unknown>
     4a2: 06 00                        	<unknown>
     4a4: 00 08                        	<unknown>
     4a6: 17 46 02 00                  	auipc	a2, 36
     4aa: 00 04                        	<unknown>
     4ac: 6c 02                        	<unknown>
     4ae: 1e a7                        	<unknown>
     4b0: 06 00                        	<unknown>
     4b2: 00 0c                        	<unknown>
     4b4: 17 da 05 00                  	auipc	s4, 93
     4b8: 00 04                        	<unknown>
     4ba: 6e 02                        	<unknown>
     4bc: 08 33                        	<unknown>
     4be: 00 00                        	<unknown>
     4c0: 00 10                        	<unknown>
     4c2: 17 2a 00 00                  	auipc	s4, 2
     4c6: 00 04                        	<unknown>
     4c8: 6f 02 08 a7                  	jal	tp, -523664
     4cc: 08 00                        	<unknown>
     4ce: 00 14                        	<unknown>
     4d0: 17 66 02 00                  	auipc	a2, 38
     4d4: 00 04                        	<unknown>
     4d6: 72 02                        	<unknown>
     4d8: 07 33 00 00                  	<unknown>
     4dc: 00 30                        	<unknown>
     4de: 17 e4 05 00                  	auipc	s0, 94
     4e2: 00 04                        	<unknown>
     4e4: 73 02 16 bc                  	<unknown>
     4e8: 08 00                        	<unknown>
     4ea: 00 34                        	<unknown>
     4ec: 17 1a 04 00                  	auipc	s4, 65
     4f0: 00 04                        	<unknown>
     4f2: 75 02                        	<unknown>
     4f4: 07 33 00 00                  	<unknown>
     4f8: 00 38                        	<unknown>
     4fa: 17 ec 05 00                  	auipc	s8, 94
     4fe: 00 04                        	<unknown>
     500: 77 02 0a cd                  	<unknown>
     504: 08 00                        	<unknown>
     506: 00 3c                        	<unknown>
     508: 17 29 03 00                  	auipc	s2, 50
     50c: 00 04                        	<unknown>
     50e: 7a 02                        	<unknown>
     510: 13 85 01 00                  	mv	a0, gp
     514: 00 40                        	<unknown>
     516: 17 77 01 00                  	auipc	a4, 23
     51a: 00 04                        	<unknown>
     51c: 7b 02 07 33                  	<unknown>
     520: 00 00                        	<unknown>
     522: 00 44                        	<unknown>
     524: 17 a7 07 00                  	auipc	a4, 122
     528: 00 04                        	<unknown>
     52a: 7c 02                        	<unknown>
     52c: 13 85 01 00                  	mv	a0, gp
     530: 00 48                        	<unknown>
     532: 17 36 04 00                  	auipc	a2, 67
     536: 00 04                        	<unknown>
     538: 7d 02                        	<unknown>
     53a: 14 d3                        	<unknown>
     53c: 08 00                        	<unknown>
     53e: 00 4c                        	<unknown>
     540: 17 a3 02 00                  	auipc	t1, 42
     544: 00 04                        	<unknown>
     546: 80 02                        	<unknown>
     548: 07 33 00 00                  	<unknown>
     54c: 00 50                        	<unknown>
     54e: 17 ae 01 00                  	auipc	t3, 26
     552: 00 04                        	<unknown>
     554: 81 02                        	<unknown>
     556: 09 b6                        	<unknown>
     558: 05 00                        	<unknown>
     55a: 00 54                        	<unknown>
     55c: 17 bd 04 00                  	auipc	s10, 75
     560: 00 04                        	<unknown>
     562: a4 02                        	<unknown>
     564: 07 82 08 00                  	<unknown>
     568: 00 58                        	<unknown>
     56a: 18 08                        	<unknown>
     56c: 04 00                        	<unknown>
     56e: 00 04                        	<unknown>
     570: a8 02                        	<unknown>
     572: 13 b6 02 00                  	sltiu	a2, t0, 0
     576: 00 48                        	<unknown>
     578: 01 18                        	<unknown>
     57a: 07 03 00 00                  	<unknown>
     57e: 04 a9                        	<unknown>
     580: 02 12                        	<unknown>
     582: 73 02 00 00                  	<unknown>
     586: 4c 01                        	<unknown>
     588: 18 25                        	<unknown>
     58a: 07 00 00 04                  	<unknown>
     58e: ad 02                        	<unknown>
     590: 0c e4                        	<unknown>
     592: 08 00                        	<unknown>
     594: 00 dc                        	<unknown>
     596: 02 18                        	<unknown>
     598: 47 01 00 00                  	<unknown>
     59c: 04 b2                        	<unknown>
     59e: 02 10                        	<unknown>
     5a0: 68 06                        	<unknown>
     5a2: 00 00                        	<unknown>
     5a4: e0 02                        	<unknown>
     5a6: 18 2c                        	<unknown>
     5a8: 01 00                        	<unknown>
     5aa: 00 04                        	<unknown>
     5ac: b4 02                        	<unknown>
     5ae: 0a f0                        	<unknown>
     5b0: 08 00                        	<unknown>
     5b2: 00 ec                        	<unknown>
     5b4: 02 00                        	<unknown>
     5b6: 0f 04 bc 05                  	<unknown>
     5ba: 00 00                        	<unknown>
     5bc: 02 01                        	<unknown>
     5be: 08 b1                        	<unknown>
     5c0: 06 00                        	<unknown>
     5c2: 00 15                        	<unknown>
     5c4: bc 05                        	<unknown>
     5c6: 00 00                        	<unknown>
     5c8: 0f 04 44 04                  	<unknown>
     5cc: 00 00                        	<unknown>
     5ce: 13 97 00 00                  	slli	a4, ra, 0
     5d2: 00 ec                        	<unknown>
     5d4: 05 00                        	<unknown>
     5d6: 00 14                        	<unknown>
     5d8: 62 04                        	<unknown>
     5da: 00 00                        	<unknown>
     5dc: 14 05                        	<unknown>
     5de: 01 00                        	<unknown>
     5e0: 00 14                        	<unknown>
     5e2: ec 05                        	<unknown>
     5e4: 00 00                        	<unknown>
     5e6: 14 33                        	<unknown>
     5e8: 00 00                        	<unknown>
     5ea: 00 00                        	<unknown>
     5ec: 0f 04 c3 05                  	<unknown>
     5f0: 00 00                        	<unknown>
     5f2: 15 ec                        	<unknown>
     5f4: 05 00                        	<unknown>
     5f6: 00 0f                        	<unknown>
     5f8: 04 ce                        	<unknown>
     5fa: 05 00                        	<unknown>
     5fc: 00 13                        	<unknown>
     5fe: 8b 00 00 00                  	<unknown>
     602: 1b 06 00 00                  	<unknown>
     606: 14 62                        	<unknown>
     608: 04 00                        	<unknown>
     60a: 00 14                        	<unknown>
     60c: 05 01                        	<unknown>
     60e: 00 00                        	<unknown>
     610: 14 8b                        	<unknown>
     612: 00 00                        	<unknown>
     614: 00 14                        	<unknown>
     616: 33 00 00 00                  	add	zero, zero, zero
     61a: 00 0f                        	<unknown>
     61c: 04 fd                        	<unknown>
     61e: 05 00                        	<unknown>
     620: 00 13                        	<unknown>
     622: 33 00 00 00                  	add	zero, zero, zero
     626: 35 06                        	<unknown>
     628: 00 00                        	<unknown>
     62a: 14 62                        	<unknown>
     62c: 04 00                        	<unknown>
     62e: 00 14                        	<unknown>
     630: 05 01                        	<unknown>
     632: 00 00                        	<unknown>
     634: 00 0f                        	<unknown>
     636: 04 21                        	<unknown>
     638: 06 00                        	<unknown>
     63a: 00 08                        	<unknown>
     63c: 4f 00 00 00                  	<unknown>
     640: 4b 06 00 00                  	<unknown>
     644: 09 2c                        	<unknown>
     646: 00 00                        	<unknown>
     648: 00 02                        	<unknown>
     64a: 00 08                        	<unknown>
     64c: 4f 00 00 00                  	<unknown>
     650: 5b 06 00 00                  	<unknown>
     654: 09 2c                        	<unknown>
     656: 00 00                        	<unknown>
     658: 00 00                        	<unknown>
     65a: 00 04                        	<unknown>
     65c: 70 01                        	<unknown>
     65e: 00 00                        	<unknown>
     660: 04 24                        	<unknown>
     662: 01 1a                        	<unknown>
     664: 01 03                        	<unknown>
     666: 00 00                        	<unknown>
     668: 19 05                        	<unknown>
     66a: 07 00 00 0c                  	<unknown>
     66e: 04 28                        	<unknown>
     670: 01 08                        	<unknown>
     672: a1 06                        	<unknown>
     674: 00 00                        	<unknown>
     676: 17 d4 07 00                  	auipc	s0, 125
     67a: 00 04                        	<unknown>
     67c: 2a 01                        	<unknown>
     67e: 11 a1                        	<unknown>
     680: 06 00                        	<unknown>
     682: 00 00                        	<unknown>
     684: 17 c3 02 00                  	auipc	t1, 44
     688: 00 04                        	<unknown>
     68a: 2b 01 07 33                  	vx_cmov	sp, a4, a6, t1
     68e: 00 00                        	<unknown>
     690: 00 04                        	<unknown>
     692: 17 dc 04 00                  	auipc	s8, 77
     696: 00 04                        	<unknown>
     698: 2c 01                        	<unknown>
     69a: 0b a7 06 00                  	<unknown>
     69e: 00 08                        	<unknown>
     6a0: 00 0f                        	<unknown>
     6a2: 04 68                        	<unknown>
     6a4: 06 00                        	<unknown>
     6a6: 00 0f                        	<unknown>
     6a8: 04 5b                        	<unknown>
     6aa: 06 00                        	<unknown>
     6ac: 00 19                        	<unknown>
     6ae: 22 00                        	<unknown>
     6b0: 00 00                        	<unknown>
     6b2: 0e 04                        	<unknown>
     6b4: 44 01                        	<unknown>
     6b6: 08 e6                        	<unknown>
     6b8: 06 00                        	<unknown>
     6ba: 00 17                        	<unknown>
     6bc: 6f 06 00 00                  	jal	a2, 0
     6c0: 04 45                        	<unknown>
     6c2: 01 12                        	<unknown>
     6c4: e6 06                        	<unknown>
     6c6: 00 00                        	<unknown>
     6c8: 00 17                        	<unknown>
     6ca: 63 03 00 00                  	beqz	zero, 6
     6ce: 04 46                        	<unknown>
     6d0: 01 12                        	<unknown>
     6d2: e6 06                        	<unknown>
     6d4: 00 00                        	<unknown>
     6d6: 06 17                        	<unknown>
     6d8: b6 06                        	<unknown>
     6da: 00 00                        	<unknown>
     6dc: 04 47                        	<unknown>
     6de: 01 12                        	<unknown>
     6e0: 5d 00                        	<unknown>
     6e2: 00 00                        	<unknown>
     6e4: 0c 00                        	<unknown>
     6e6: 08 5d                        	<unknown>
     6e8: 00 00                        	<unknown>
     6ea: 00 f6                        	<unknown>
     6ec: 06 00                        	<unknown>
     6ee: 00 09                        	<unknown>
     6f0: 2c 00                        	<unknown>
     6f2: 00 00                        	<unknown>
     6f4: 02 00                        	<unknown>
     6f6: 1a d0                        	<unknown>
     6f8: 04 85                        	<unknown>
     6fa: 02 07                        	<unknown>
     6fc: 0b 08 00 00                  	<unknown>
     700: 17 9f 03 00                  	auipc	t5, 57
     704: 00 04                        	<unknown>
     706: 87 02 18 2c                  	<unknown>
     70a: 00 00                        	<unknown>
     70c: 00 00                        	<unknown>
     70e: 17 8b 06 00                  	auipc	s6, 104
     712: 00 04                        	<unknown>
     714: 88 02                        	<unknown>
     716: 12 b6                        	<unknown>
     718: 05 00                        	<unknown>
     71a: 00 04                        	<unknown>
     71c: 17 1c 03 00                  	auipc	s8, 49
     720: 00 04                        	<unknown>
     722: 89 02                        	<unknown>
     724: 10 0b                        	<unknown>
     726: 08 00                        	<unknown>
     728: 00 08                        	<unknown>
     72a: 17 61 07 00                  	auipc	sp, 118
     72e: 00 04                        	<unknown>
     730: 8a 02                        	<unknown>
     732: 17 9b 01 00                  	auipc	s6, 25
     736: 00 24                        	<unknown>
     738: 17 4e 02 00                  	auipc	t3, 36
     73c: 00 04                        	<unknown>
     73e: 8b 02 0f 33                  	<unknown>
     742: 00 00                        	<unknown>
     744: 00 48                        	<unknown>
     746: 17 cf 07 00                  	auipc	t5, 124
     74a: 00 04                        	<unknown>
     74c: 8c 02                        	<unknown>
     74e: 2c 25                        	<unknown>
     750: 00 00                        	<unknown>
     752: 00 50                        	<unknown>
     754: 17 79 07 00                  	auipc	s2, 119
     758: 00 04                        	<unknown>
     75a: 8d 02                        	<unknown>
     75c: 1a ad                        	<unknown>
     75e: 06 00                        	<unknown>
     760: 00 58                        	<unknown>
     762: 17 cd 05 00                  	auipc	s10, 92
     766: 00 04                        	<unknown>
     768: 8e 02                        	<unknown>
     76a: 16 f9                        	<unknown>
     76c: 00 00                        	<unknown>
     76e: 00 68                        	<unknown>
     770: 17 99 07 00                  	auipc	s2, 121
     774: 00 04                        	<unknown>
     776: 8f 02 16 f9                  	<unknown>
     77a: 00 00                        	<unknown>
     77c: 00 70                        	<unknown>
     77e: 17 1e 01 00                  	auipc	t3, 17
     782: 00 04                        	<unknown>
     784: 90 02                        	<unknown>
     786: 16 f9                        	<unknown>
     788: 00 00                        	<unknown>
     78a: 00 78                        	<unknown>
     78c: 17 1b 07 00                  	auipc	s6, 113
     790: 00 04                        	<unknown>
     792: 91 02                        	<unknown>
     794: 10 1b                        	<unknown>
     796: 08 00                        	<unknown>
     798: 00 80                        	<unknown>
     79a: 17 10 03 00                  	auipc	zero, 49
     79e: 00 04                        	<unknown>
     7a0: 92 02                        	<unknown>
     7a2: 10 2b                        	<unknown>
     7a4: 08 00                        	<unknown>
     7a6: 00 88                        	<unknown>
     7a8: 17 4e 00 00                  	auipc	t3, 4
     7ac: 00 04                        	<unknown>
     7ae: 93 02 0f 33                  	addi	t0, t5, 816
     7b2: 00 00                        	<unknown>
     7b4: 00 a0                        	<unknown>
     7b6: 17 c7 01 00                  	auipc	a4, 28
     7ba: 00 04                        	<unknown>
     7bc: 94 02                        	<unknown>
     7be: 16 f9                        	<unknown>
     7c0: 00 00                        	<unknown>
     7c2: 00 a4                        	<unknown>
     7c4: 17 e1 00 00                  	auipc	sp, 14
     7c8: 00 04                        	<unknown>
     7ca: 95 02                        	<unknown>
     7cc: 16 f9                        	<unknown>
     7ce: 00 00                        	<unknown>
     7d0: 00 ac                        	<unknown>
     7d2: 17 b6 01 00                  	auipc	a2, 27
     7d6: 00 04                        	<unknown>
     7d8: 96 02                        	<unknown>
     7da: 16 f9                        	<unknown>
     7dc: 00 00                        	<unknown>
     7de: 00 b4                        	<unknown>
     7e0: 17 61 00 00                  	auipc	sp, 6
     7e4: 00 04                        	<unknown>
     7e6: 97 02 16 f9                  	auipc	t0, 1020256
     7ea: 00 00                        	<unknown>
     7ec: 00 bc                        	<unknown>
     7ee: 17 8d 00 00                  	auipc	s10, 8
     7f2: 00 04                        	<unknown>
     7f4: 98 02                        	<unknown>
     7f6: 16 f9                        	<unknown>
     7f8: 00 00                        	<unknown>
     7fa: 00 c4                        	<unknown>
     7fc: 17 c2 04 00                  	auipc	tp, 76
     800: 00 04                        	<unknown>
     802: 99 02                        	<unknown>
     804: 08 33                        	<unknown>
     806: 00 00                        	<unknown>
     808: 00 cc                        	<unknown>
     80a: 00 08                        	<unknown>
     80c: bc 05                        	<unknown>
     80e: 00 00                        	<unknown>
     810: 1b 08 00 00                  	<unknown>
     814: 09 2c                        	<unknown>
     816: 00 00                        	<unknown>
     818: 00 19                        	<unknown>
     81a: 00 08                        	<unknown>
     81c: bc 05                        	<unknown>
     81e: 00 00                        	<unknown>
     820: 2b 08 00 00                  	vx_tex	a6, zero, zero, zero
     824: 09 2c                        	<unknown>
     826: 00 00                        	<unknown>
     828: 00 07                        	<unknown>
     82a: 00 08                        	<unknown>
     82c: bc 05                        	<unknown>
     82e: 00 00                        	<unknown>
     830: 3b 08 00 00                  	<unknown>
     834: 09 2c                        	<unknown>
     836: 00 00                        	<unknown>
     838: 00 17                        	<unknown>
     83a: 00 1a                        	<unknown>
     83c: f0 04                        	<unknown>
     83e: 9e 02                        	<unknown>
     840: 07 62 08 00                  	<unknown>
     844: 00 17                        	<unknown>
     846: 37 03 00 00                  	lui	t1, 0
     84a: 04 a1                        	<unknown>
     84c: 02 1b                        	<unknown>
     84e: 62 08                        	<unknown>
     850: 00 00                        	<unknown>
     852: 00 17                        	<unknown>
     854: 5d 02                        	<unknown>
     856: 00 00                        	<unknown>
     858: 04 a2                        	<unknown>
     85a: 02 18                        	<unknown>
     85c: 72 08                        	<unknown>
     85e: 00 00                        	<unknown>
     860: 78 00                        	<unknown>
     862: 08 fb                        	<unknown>
     864: 02 00                        	<unknown>
     866: 00 72                        	<unknown>
     868: 08 00                        	<unknown>
     86a: 00 09                        	<unknown>
     86c: 2c 00                        	<unknown>
     86e: 00 00                        	<unknown>
     870: 1d 00                        	<unknown>
     872: 08 2c                        	<unknown>
     874: 00 00                        	<unknown>
     876: 00 82                        	<unknown>
     878: 08 00                        	<unknown>
     87a: 00 09                        	<unknown>
     87c: 2c 00                        	<unknown>
     87e: 00 00                        	<unknown>
     880: 1d 00                        	<unknown>
     882: 1b f0 04 83                  	<unknown>
     886: 02 03                        	<unknown>
     888: a7 08 00 00                  	<unknown>
     88c: 1c fe                        	<unknown>
     88e: 05 00                        	<unknown>
     890: 00 04                        	<unknown>
     892: 9a 02                        	<unknown>
     894: 0b f6 06 00                  	<unknown>
     898: 00 1c                        	<unknown>
     89a: 44 07                        	<unknown>
     89c: 00 00                        	<unknown>
     89e: 04 a3                        	<unknown>
     8a0: 02 0b                        	<unknown>
     8a2: 3b 08 00 00                  	<unknown>
     8a6: 00 08                        	<unknown>
     8a8: bc 05                        	<unknown>
     8aa: 00 00                        	<unknown>
     8ac: b7 08 00 00                  	lui	a7, 0
     8b0: 09 2c                        	<unknown>
     8b2: 00 00                        	<unknown>
     8b4: 00 18                        	<unknown>
     8b6: 00 1d                        	<unknown>
     8b8: d6 00                        	<unknown>
     8ba: 00 00                        	<unknown>
     8bc: 0f 04 b7 08                  	<unknown>
     8c0: 00 00                        	<unknown>
     8c2: 1e cd                        	<unknown>
     8c4: 08 00                        	<unknown>
     8c6: 00 14                        	<unknown>
     8c8: 62 04                        	<unknown>
     8ca: 00 00                        	<unknown>
     8cc: 00 0f                        	<unknown>
     8ce: 04 c2                        	<unknown>
     8d0: 08 00                        	<unknown>
     8d2: 00 0f                        	<unknown>
     8d4: 04 85                        	<unknown>
     8d6: 01 00                        	<unknown>
     8d8: 00 1e                        	<unknown>
     8da: e4 08                        	<unknown>
     8dc: 00 00                        	<unknown>
     8de: 14 33                        	<unknown>
     8e0: 00 00                        	<unknown>
     8e2: 00 00                        	<unknown>
     8e4: 0f 04 ea 08                  	<unknown>
     8e8: 00 00                        	<unknown>
     8ea: 0f 04 d9 08                  	<unknown>
     8ee: 00 00                        	<unknown>
     8f0: 08 5b                        	<unknown>
     8f2: 06 00                        	<unknown>
     8f4: 00 00                        	<unknown>
     8f6: 09 00                        	<unknown>
     8f8: 00 09                        	<unknown>
     8fa: 2c 00                        	<unknown>
     8fc: 00 00                        	<unknown>
     8fe: 02 00                        	<unknown>
     900: 1f df 06 00                  	<unknown>
     904: 00 04                        	<unknown>
     906: 33 03 17 62                  	<unknown>
     90a: 04 00                        	<unknown>
     90c: 00 1f                        	<unknown>
     90e: d8 06                        	<unknown>
     910: 00 00                        	<unknown>
     912: 04 34                        	<unknown>
     914: 03 1d 68 04                  	lh	s10, 70(a6)
     918: 00 00                        	<unknown>
     91a: 08 f2                        	<unknown>
     91c: 05 00                        	<unknown>
     91e: 00 25                        	<unknown>
     920: 09 00                        	<unknown>
     922: 00 20                        	<unknown>
     924: 00 15                        	<unknown>
     926: 1a 09                        	<unknown>
     928: 00 00                        	<unknown>
     92a: 21 a1                        	<unknown>
     92c: 01 00                        	<unknown>
     92e: 00 06                        	<unknown>
     930: 14 24                        	<unknown>
     932: 25 09                        	<unknown>
     934: 00 00                        	<unknown>
     936: 21 c3                        	<unknown>
     938: 05 00                        	<unknown>
     93a: 00 06                        	<unknown>
     93c: 15 15                        	<unknown>
     93e: 33 00 00 00                  	add	zero, zero, zero
     942: 0f 04 48 09                  	<unknown>
     946: 00 00                        	<unknown>
     948: 13 33 00 00                  	sltiu	t1, zero, 0
     94c: 00 5c                        	<unknown>
     94e: 09 00                        	<unknown>
     950: 00 14                        	<unknown>
     952: 5c 09                        	<unknown>
     954: 00 00                        	<unknown>
     956: 14 5c                        	<unknown>
     958: 09 00                        	<unknown>
     95a: 00 00                        	<unknown>
     95c: 0f 04 62 09                  	<unknown>
     960: 00 00                        	<unknown>
     962: 22 21                        	<unknown>
     964: 10 04                        	<unknown>
     966: 00 00                        	<unknown>
     968: 07 67 0e b6                  	<unknown>
     96c: 05 00                        	<unknown>
     96e: 00 21                        	<unknown>
     970: 3e 03                        	<unknown>
     972: 00 00                        	<unknown>
     974: 08 10                        	<unknown>
     976: 0f 7b 09 00                  	<unknown>
     97a: 00 0f                        	<unknown>
     97c: 04 b6                        	<unknown>
     97e: 05 00                        	<unknown>
     980: 00 21                        	<unknown>
     982: 13 04 00 00                  	mv	s0, zero
     986: 08 fc                        	<unknown>
     988: 0e b6                        	<unknown>
     98a: 05 00                        	<unknown>
     98c: 00 21                        	<unknown>
     98e: b1 00                        	<unknown>
     990: 00 00                        	<unknown>
     992: 08 fd                        	<unknown>
     994: 0c 33                        	<unknown>
     996: 00 00                        	<unknown>
     998: 00 21                        	<unknown>
     99a: 75 06                        	<unknown>
     99c: 00 00                        	<unknown>
     99e: 08 fd                        	<unknown>
     9a0: 14 33                        	<unknown>
     9a2: 00 00                        	<unknown>
     9a4: 00 21                        	<unknown>
     9a6: 88 07                        	<unknown>
     9a8: 00 00                        	<unknown>
     9aa: 08 fd                        	<unknown>
     9ac: 1c 33                        	<unknown>
     9ae: 00 00                        	<unknown>
     9b0: 00 21                        	<unknown>
     9b2: 7d 03                        	<unknown>
     9b4: 00 00                        	<unknown>
     9b6: 08 ff                        	<unknown>
     9b8: 0c 33                        	<unknown>
     9ba: 00 00                        	<unknown>
     9bc: 00 21                        	<unknown>
     9be: 40 04                        	<unknown>
     9c0: 00 00                        	<unknown>
     9c2: 09 9a                        	<unknown>
     9c4: 16 64                        	<unknown>
     9c6: 00 00                        	<unknown>
     9c8: 00 21                        	<unknown>
     9ca: 35 00                        	<unknown>
     9cc: 00 00                        	<unknown>
     9ce: 09 9b                        	<unknown>
     9d0: 15 33                        	<unknown>
     9d2: 00 00                        	<unknown>
     9d4: 00 08                        	<unknown>
     9d6: b6 05                        	<unknown>
     9d8: 00 00                        	<unknown>
     9da: e5 09                        	<unknown>
     9dc: 00 00                        	<unknown>
     9de: 09 2c                        	<unknown>
     9e0: 00 00                        	<unknown>
     9e2: 00 01                        	<unknown>
     9e4: 00 21                        	<unknown>
     9e6: f0 00                        	<unknown>
     9e8: 00 00                        	<unknown>
     9ea: 09 9e                        	<unknown>
     9ec: 17 d5 09 00                  	auipc	a0, 157
     9f0: 00 05                        	<unknown>
     9f2: b1 02                        	<unknown>
     9f4: 00 00                        	<unknown>
     9f6: 0a 2a                        	<unknown>
     9f8: 16 2c                        	<unknown>
     9fa: 00 00                        	<unknown>
     9fc: 00 05                        	<unknown>
     9fe: b1 05                        	<unknown>
     a00: 00 00                        	<unknown>
     a02: 0a 2f                        	<unknown>
     a04: 15 09                        	<unknown>
     a06: 0a 00                        	<unknown>
     a08: 00 0f                        	<unknown>
     a0a: 04 0f                        	<unknown>
     a0c: 0a 00                        	<unknown>
     a0e: 00 13                        	<unknown>
     a10: f1 09                        	<unknown>
     a12: 00 00                        	<unknown>
     a14: 1e 0a                        	<unknown>
     a16: 00 00                        	<unknown>
     a18: 14 5c                        	<unknown>
     a1a: 09 00                        	<unknown>
     a1c: 00 00                        	<unknown>
     a1e: 05 da                        	<unknown>
     a20: 07 00 00 0a                  	<unknown>
     a24: 36 0f                        	<unknown>
     a26: 42 09                        	<unknown>
     a28: 00 00                        	<unknown>
     a2a: 21 0a                        	<unknown>
     a2c: 00 00                        	<unknown>
     a2e: 00 0a                        	<unknown>
     a30: bb 12 fd 09                  	<unknown>
     a34: 00 00                        	<unknown>
     a36: 21 c3                        	<unknown>
     a38: 06 00                        	<unknown>
     a3a: 00 0a                        	<unknown>
     a3c: be 10                        	<unknown>
     a3e: 1e 0a                        	<unknown>
     a40: 00 00                        	<unknown>
     a42: 23 84 02 00                  	sb	zero, 8(t0)
     a46: 00 07                        	<unknown>
     a48: 04 2c                        	<unknown>
     a4a: 00 00                        	<unknown>
     a4c: 00 0b                        	<unknown>
     a4e: 18 06                        	<unknown>
     a50: 7f 0a 00 00                  	<unknown>
     a54: 24 9d                        	<unknown>
     a56: 04 00                        	<unknown>
     a58: 00 00                        	<unknown>
     a5a: 24 58                        	<unknown>
     a5c: 03 00 00 01                  	lb	zero, 16(zero)
     a60: 24 d8                        	<unknown>
     a62: 03 00 00 02                  	lb	zero, 32(zero)
     a66: 24 ac                        	<unknown>
     a68: 03 00 00 03                  	lb	zero, 48(zero)
     a6c: 24 94                        	<unknown>
     a6e: 04 00                        	<unknown>
     a70: 00 04                        	<unknown>
     a72: 24 8f                        	<unknown>
     a74: 07 00 00 05                  	<unknown>
     a78: 24 7e                        	<unknown>
     a7a: 07 00 00 06                  	<unknown>
     a7e: 00 21                        	<unknown>
     a80: cc 00                        	<unknown>
     a82: 00 00                        	<unknown>
     a84: 0b 21 1c 42                  	<unknown>
     a88: 0a 00                        	<unknown>
     a8a: 00 23                        	<unknown>
     a8c: b7 03 00 00                  	lui	t2, 0
     a90: 07 04 2c 00                  	<unknown>
     a94: 00 00                        	<unknown>
     a96: 0b 23 06 b0                  	<unknown>
     a9a: 0a 00                        	<unknown>
     a9c: 00 24                        	<unknown>
     a9e: a7 05 00 00                  	<unknown>
     aa2: 00 24                        	<unknown>
     aa4: b3 04 00 00                  	add	s1, zero, zero
     aa8: 01 24                        	<unknown>
     aaa: 98 06                        	<unknown>
     aac: 00 00                        	<unknown>
     aae: 02 00                        	<unknown>
     ab0: 21 4f                        	<unknown>
     ab2: 01 00                        	<unknown>
     ab4: 00 0b                        	<unknown>
     ab6: 28 1e                        	<unknown>
     ab8: 8b 0a 00 00                  	<unknown>
     abc: 23 70 00 00                  	<unknown>
     ac0: 00 07                        	<unknown>
     ac2: 04 2c                        	<unknown>
     ac4: 00 00                        	<unknown>
     ac6: 00 0b                        	<unknown>
     ac8: 2b 06 db 0a                  	vx_cmov	a2, s6, a3, ra
     acc: 00 00                        	<unknown>
     ace: 24 41                        	<unknown>
     ad0: 06 00                        	<unknown>
     ad2: 00 00                        	<unknown>
     ad4: 24 2f                        	<unknown>
     ad6: 06 00                        	<unknown>
     ad8: 00 01                        	<unknown>
     ada: 00 21                        	<unknown>
     adc: 89 01                        	<unknown>
     ade: 00 00                        	<unknown>
     ae0: 0b 2f 2a bc                  	<unknown>
     ae4: 0a 00                        	<unknown>
     ae6: 00 21                        	<unknown>
     ae8: 6e 03                        	<unknown>
     aea: 00 00                        	<unknown>
     aec: 0c 29                        	<unknown>
     aee: 1a 25                        	<unknown>
     af0: 09 00                        	<unknown>
     af2: 00 21                        	<unknown>
     af4: 5f 06 00 00                  	<unknown>
     af8: 0c 38                        	<unknown>
     afa: 1a 25                        	<unknown>
     afc: 09 00                        	<unknown>
     afe: 00 05                        	<unknown>
     b00: b6 07                        	<unknown>
     b02: 00 00                        	<unknown>
     b04: 0d 7b                        	<unknown>
     b06: 16 4f                        	<unknown>
     b08: 00 00                        	<unknown>
     b0a: 00 15                        	<unknown>
     b0c: ff 0a 00 00                  	<unknown>
     b10: 05 82                        	<unknown>
     b12: 01 00                        	<unknown>
     b14: 00 0d                        	<unknown>
     b16: 80 0f                        	<unknown>
     b18: 33 00 00 00                  	add	zero, zero, zero
     b1c: 05 81                        	<unknown>
     b1e: 01 00                        	<unknown>
     b20: 00 0d                        	<unknown>
     b22: 81 16                        	<unknown>
     b24: 2c 00                        	<unknown>
     b26: 00 00                        	<unknown>
     b28: 05 ec                        	<unknown>
     b2a: 06 00                        	<unknown>
     b2c: 00 0d                        	<unknown>
     b2e: 84 0f                        	<unknown>
     b30: 3a 00                        	<unknown>
     b32: 00 00                        	<unknown>
     b34: 05 eb                        	<unknown>
     b36: 06 00                        	<unknown>
     b38: 00 0d                        	<unknown>
     b3a: 85 16                        	<unknown>
     b3c: 25 00                        	<unknown>
     b3e: 00 00                        	<unknown>
     b40: 02 04                        	<unknown>
     b42: 04 eb                        	<unknown>
     b44: 03 00 00 02                  	lb	zero, 32(zero)
     b48: 08 03                        	<unknown>
     b4a: e3 03 00 00                  	beqz	zero, 2054
     b4e: 02 08                        	<unknown>
     b50: 04 c5                        	<unknown>
     b52: 00 00                        	<unknown>
     b54: 00 02                        	<unknown>
     b56: 10 03                        	<unknown>
     b58: 3f 00 00 00                  	<unknown>
     b5c: 02 20                        	<unknown>
     b5e: 03 b8 00 00                  	<unknown>
     b62: 00 19                        	<unknown>
     b64: e1 02                        	<unknown>
     b66: 00 00                        	<unknown>
     b68: 08 0d                        	<unknown>
     b6a: ed 01                        	<unknown>
     b6c: 0a 8e                        	<unknown>
     b6e: 0b 00 00 25                  	<unknown>
     b72: 6c 6f                        	<unknown>
     b74: 77 00 0d ed                  	<unknown>
     b78: 01 1a                        	<unknown>
     b7a: 10 0b                        	<unknown>
     b7c: 00 00                        	<unknown>
     b7e: 00 17                        	<unknown>
     b80: 7c 06                        	<unknown>
     b82: 00 00                        	<unknown>
     b84: 0d ed                        	<unknown>
     b86: 01 1f                        	<unknown>
     b88: 10 0b                        	<unknown>
     b8a: 00 00                        	<unknown>
     b8c: 04 00                        	<unknown>
     b8e: 1b 08 0d f4                  	<unknown>
     b92: 01 09                        	<unknown>
     b94: b0 0b                        	<unknown>
     b96: 00 00                        	<unknown>
     b98: 26 73                        	<unknown>
     b9a: 00 0d                        	<unknown>
     b9c: f6 01                        	<unknown>
     b9e: 13 63 0b 00                  	ori	t1, s6, 0
     ba2: 00 26                        	<unknown>
     ba4: 6c 6c                        	<unknown>
     ba6: 00 0d                        	<unknown>
     ba8: f7 01 0a 28                  	<unknown>
     bac: 0b 00 00 00                  	vx_tmc	zero
     bb0: 04 bb                        	<unknown>
     bb2: 02 00                        	<unknown>
     bb4: 00 0d                        	<unknown>
     bb6: f8 01                        	<unknown>
     bb8: 03 8e 0b 00                  	lb	t3, 0(s7)
     bbc: 00 15                        	<unknown>
     bbe: b0 0b                        	<unknown>
     bc0: 00 00                        	<unknown>
     bc2: 08 0b                        	<unknown>
     bc4: 0b 00 00 d2                  	<unknown>
     bc8: 0b 00 00 09                  	<unknown>
     bcc: 2c 00                        	<unknown>
     bce: 00 00                        	<unknown>
     bd0: ff 00 15 c2                  	<unknown>
     bd4: 0b 00 00 1f                  	<unknown>
     bd8: 2f 07 00 00                  	<unknown>
     bdc: 0d fc                        	<unknown>
     bde: 01 16                        	<unknown>
     be0: d2 0b                        	<unknown>
     be2: 00 00                        	<unknown>
     be4: 1f fd 02 00                  	<unknown>
     be8: 00 0d                        	<unknown>
     bea: 02 02                        	<unknown>
     bec: 16 d2                        	<unknown>
     bee: 0b 00 00 27                  	<unknown>
     bf2: 49 06                        	<unknown>
     bf4: 00 00                        	<unknown>
     bf6: 01 cf                        	<unknown>
     bf8: 04 01                        	<unknown>
     bfa: 28 0b                        	<unknown>
     bfc: 00 00                        	<unknown>
     bfe: 84 13                        	<unknown>
     c00: 00 80                        	<unknown>
     c02: 80 04                        	<unknown>
     c04: 00 00                        	<unknown>
     c06: 01 9c                        	<unknown>
     c08: 03 0f 00 00                  	lb	t5, 0(zero)
     c0c: 28 75                        	<unknown>
     c0e: 00 01                        	<unknown>
     c10: cf 04 12 28                  	<unknown>
     c14: 0b 00 00 00                  	vx_tmc	zero
     c18: 00 00                        	<unknown>
     c1a: 00 28                        	<unknown>
     c1c: 76 00                        	<unknown>
     c1e: 01 cf                        	<unknown>
     c20: 04 1c                        	<unknown>
     c22: 28 0b                        	<unknown>
     c24: 00 00                        	<unknown>
     c26: c8 00                        	<unknown>
     c28: 00 00                        	<unknown>
     c2a: 29 63                        	<unknown>
     c2c: 00 01                        	<unknown>
     c2e: d1 04                        	<unknown>
     c30: 09 10                        	<unknown>
     c32: 0b 00 00 f0                  	<unknown>
     c36: 00 00                        	<unknown>
     c38: 00 29                        	<unknown>
     c3a: 75 75                        	<unknown>
     c3c: 00 01                        	<unknown>
     c3e: d2 04                        	<unknown>
     c40: 0b b0 0b 00                  	<unknown>
     c44: 00 1c                        	<unknown>
     c46: 01 00                        	<unknown>
     c48: 00 29                        	<unknown>
     c4a: 76 76                        	<unknown>
     c4c: 00 01                        	<unknown>
     c4e: d3 04 0b b0                  	<unknown>
     c52: 0b 00 00 34                  	<unknown>
     c56: 01 00                        	<unknown>
     c58: 00 29                        	<unknown>
     c5a: 77 00 01 d4                  	<unknown>
     c5e: 04 0a                        	<unknown>
     c60: 28 0b                        	<unknown>
     c62: 00 00                        	<unknown>
     c64: 4c 01                        	<unknown>
     c66: 00 00                        	<unknown>
     c68: 2a 03                        	<unknown>
     c6a: 0f 00 00 bc                  	<unknown>
     c6e: 13 00 80 00                  	addi	zero, zero, 8
     c72: 00 00                        	<unknown>
     c74: 00 01                        	<unknown>
     c76: dd 04                        	<unknown>
     c78: 07 2b 2b 0f                  	<unknown>
     c7c: 00 00                        	<unknown>
     c7e: 64 01                        	<unknown>
     c80: 00 00                        	<unknown>
     c82: 2c 20                        	<unknown>
     c84: 0f 00 00 2c                  	<unknown>
     c88: 15 0f                        	<unknown>
     c8a: 00 00                        	<unknown>
     c8c: 2d 00                        	<unknown>
     c8e: 00 00                        	<unknown>
     c90: 00 2e                        	<unknown>
     c92: 37 0f 00 00                  	lui	t5, 0
     c96: 2e 43                        	<unknown>
     c98: 0f 00 00 2e                  	<unknown>
     c9c: 4f 0f 00 00                  	<unknown>
     ca0: 2f 5b 0f 00                  	<unknown>
     ca4: 00 84                        	<unknown>
     ca6: 01 00                        	<unknown>
     ca8: 00 2f                        	<unknown>
     caa: 67 0f 00 00                  	jalr	t5, zero
     cae: 2a 02                        	<unknown>
     cb0: 00 00                        	<unknown>
     cb2: 2f 73 0f 00                  	<unknown>
     cb6: 00 3d                        	<unknown>
     cb8: 02 00                        	<unknown>
     cba: 00 2f                        	<unknown>
     cbc: 7f 0f 00 00                  	<unknown>
     cc0: ad 02                        	<unknown>
     cc2: 00 00                        	<unknown>
     cc4: 2f 8b 0f 00                  	<unknown>
     cc8: 00 f7                        	<unknown>
     cca: 02 00                        	<unknown>
     ccc: 00 2f                        	<unknown>
     cce: 97 0f 00 00                  	auipc	t6, 0
     cd2: 15 03                        	<unknown>
     cd4: 00 00                        	<unknown>
     cd6: 2f a3 0f 00                  	<unknown>
     cda: 00 3e                        	<unknown>
     cdc: 03 00 00 2f                  	lb	zero, 752(zero)
     ce0: af 0f 00 00                  	<unknown>
     ce4: 68 03                        	<unknown>
     ce6: 00 00                        	<unknown>
     ce8: 2f ba 0f 00                  	<unknown>
     cec: 00 86                        	<unknown>
     cee: 03 00 00 2e                  	lb	zero, 736(zero)
     cf2: c6 0f                        	<unknown>
     cf4: 00 00                        	<unknown>
     cf6: 30 d2                        	<unknown>
     cf8: 0f 00 00 20                  	<unknown>
     cfc: 00 00                        	<unknown>
     cfe: 00 16                        	<unknown>
     d00: 0d 00                        	<unknown>
     d02: 00 2f                        	<unknown>
     d04: d7 0f 00 00                  	<unknown>
     d08: c5 03                        	<unknown>
     d0a: 00 00                        	<unknown>
     d0c: 2f e4 0f 00                  	<unknown>
     d10: 00 01                        	<unknown>
     d12: 04 00                        	<unknown>
     d14: 00 00                        	<unknown>
     d16: 31 f2                        	<unknown>
     d18: 0f 00 00 20                  	<unknown>
     d1c: 14 00                        	<unknown>
     d1e: 80 88                        	<unknown>
     d20: 00 00                        	<unknown>
     d22: 00 67                        	<unknown>
     d24: 0d 00                        	<unknown>
     d26: 00 2f                        	<unknown>
     d28: f7 0f 00 00                  	<unknown>
     d2c: 14 04                        	<unknown>
     d2e: 00 00                        	<unknown>
     d30: 2f 04 10 00                  	<unknown>
     d34: 00 36                        	<unknown>
     d36: 04 00                        	<unknown>
     d38: 00 2f                        	<unknown>
     d3a: 11 10                        	<unknown>
     d3c: 00 00                        	<unknown>
     d3e: 5a 04                        	<unknown>
     d40: 00 00                        	<unknown>
     d42: 2f 1e 10 00                  	<unknown>
     d46: 00 78                        	<unknown>
     d48: 04 00                        	<unknown>
     d4a: 00 2f                        	<unknown>
     d4c: 2b 10 00 00                  	vx_imadd	zero, zero, zero, zero, 0
     d50: 96 04                        	<unknown>
     d52: 00 00                        	<unknown>
     d54: 2f 38 10 00                  	<unknown>
     d58: 00 d1                        	<unknown>
     d5a: 04 00                        	<unknown>
     d5c: 00 2f                        	<unknown>
     d5e: 45 10                        	<unknown>
     d60: 00 00                        	<unknown>
     d62: ef 04 00 00                  	jal	s1, 0
     d66: 00 30                        	<unknown>
     d68: 68 11                        	<unknown>
     d6a: 00 00                        	<unknown>
     d6c: 38 00                        	<unknown>
     d6e: 00 00                        	<unknown>
     d70: 26 0e                        	<unknown>
     d72: 00 00                        	<unknown>
     d74: 2f 69 11 00                  	<unknown>
     d78: 00 0d                        	<unknown>
     d7a: 05 00                        	<unknown>
     d7c: 00 2f                        	<unknown>
     d7e: 75 11                        	<unknown>
     d80: 00 00                        	<unknown>
     d82: 20 05                        	<unknown>
     d84: 00 00                        	<unknown>
     d86: 30 81                        	<unknown>
     d88: 11 00                        	<unknown>
     d8a: 00 50                        	<unknown>
     d8c: 00 00                        	<unknown>
     d8e: 00 d3                        	<unknown>
     d90: 0d 00                        	<unknown>
     d92: 00 2f                        	<unknown>
     d94: 86 11                        	<unknown>
     d96: 00 00                        	<unknown>
     d98: 61 05                        	<unknown>
     d9a: 00 00                        	<unknown>
     d9c: 2f 93 11 00                  	<unknown>
     da0: 00 74                        	<unknown>
     da2: 05 00                        	<unknown>
     da4: 00 2f                        	<unknown>
     da6: a0 11                        	<unknown>
     da8: 00 00                        	<unknown>
     daa: 98 05                        	<unknown>
     dac: 00 00                        	<unknown>
     dae: 2f ad 11 00                  	<unknown>
     db2: 00 b6                        	<unknown>
     db4: 05 00                        	<unknown>
     db6: 00 2f                        	<unknown>
     db8: ba 11                        	<unknown>
     dba: 00 00                        	<unknown>
     dbc: d4 05                        	<unknown>
     dbe: 00 00                        	<unknown>
     dc0: 2f c7 11 00                  	<unknown>
     dc4: 00 0f                        	<unknown>
     dc6: 06 00                        	<unknown>
     dc8: 00 2f                        	<unknown>
     dca: d4 11                        	<unknown>
     dcc: 00 00                        	<unknown>
     dce: 38 06                        	<unknown>
     dd0: 00 00                        	<unknown>
     dd2: 00 32                        	<unknown>
     dd4: e2 11                        	<unknown>
     dd6: 00 00                        	<unknown>
     dd8: 80 00                        	<unknown>
     dda: 00 00                        	<unknown>
     ddc: 2f e7 11 00                  	<unknown>
     de0: 00 66                        	<unknown>
     de2: 06 00                        	<unknown>
     de4: 00 2f                        	<unknown>
     de6: f4 11                        	<unknown>
     de8: 00 00                        	<unknown>
     dea: 79 06                        	<unknown>
     dec: 00 00                        	<unknown>
     dee: 2f 01 12 00                  	<unknown>
     df2: 00 cc                        	<unknown>
     df4: 06 00                        	<unknown>
     df6: 00 2f                        	<unknown>
     df8: 0e 12                        	<unknown>
     dfa: 00 00                        	<unknown>
     dfc: df 06 00 00                  	<unknown>
     e00: 2f 1b 12 00                  	<unknown>
     e04: 00 f2                        	<unknown>
     e06: 06 00                        	<unknown>
     e08: 00 2f                        	<unknown>
     e0a: 28 12                        	<unknown>
     e0c: 00 00                        	<unknown>
     e0e: 45 07                        	<unknown>
     e10: 00 00                        	<unknown>
     e12: 2f 35 12 00                  	<unknown>
     e16: 00 58                        	<unknown>
     e18: 07 00 00 2f                  	<unknown>
     e1c: 42 12                        	<unknown>
     e1e: 00 00                        	<unknown>
     e20: 89 07                        	<unknown>
     e22: 00 00                        	<unknown>
     e24: 00 00                        	<unknown>
     e26: 30 53                        	<unknown>
     e28: 10 00                        	<unknown>
     e2a: 00 b0                        	<unknown>
     e2c: 00 00                        	<unknown>
     e2e: 00 46                        	<unknown>
     e30: 0e 00                        	<unknown>
     e32: 00 2f                        	<unknown>
     e34: 58 10                        	<unknown>
     e36: 00 00                        	<unknown>
     e38: 9c 07                        	<unknown>
     e3a: 00 00                        	<unknown>
     e3c: 2f 65 10 00                  	<unknown>
     e40: 00 d8                        	<unknown>
     e42: 07 00 00 00                  	<unknown>
     e46: 31 d4                        	<unknown>
     e48: 10 00                        	<unknown>
     e4a: 00 08                        	<unknown>
     e4c: 15 00                        	<unknown>
     e4e: 80 88                        	<unknown>
     e50: 00 00                        	<unknown>
     e52: 00 97                        	<unknown>
     e54: 0e 00                        	<unknown>
     e56: 00 2f                        	<unknown>
     e58: d9 10                        	<unknown>
     e5a: 00 00                        	<unknown>
     e5c: f6 07                        	<unknown>
     e5e: 00 00                        	<unknown>
     e60: 2f e6 10 00                  	<unknown>
     e64: 00 18                        	<unknown>
     e66: 08 00                        	<unknown>
     e68: 00 2f                        	<unknown>
     e6a: f3 10 00 00                  	csrrw	ra, ustatus, zero
     e6e: 3c 08                        	<unknown>
     e70: 00 00                        	<unknown>
     e72: 2f 00 11 00                  	<unknown>
     e76: 00 5a                        	<unknown>
     e78: 08 00                        	<unknown>
     e7a: 00 2f                        	<unknown>
     e7c: 0d 11                        	<unknown>
     e7e: 00 00                        	<unknown>
     e80: 78 08                        	<unknown>
     e82: 00 00                        	<unknown>
     e84: 2f 1a 11 00                  	<unknown>
     e88: 00 a1                        	<unknown>
     e8a: 08 00                        	<unknown>
     e8c: 00 2f                        	<unknown>
     e8e: 27 11 00 00                  	<unknown>
     e92: bf 08 00 00                  	<unknown>
     e96: 00 30                        	<unknown>
     e98: 73 10 00 00                  	csrw	ustatus, zero
     e9c: c8 00                        	<unknown>
     e9e: 00 00                        	<unknown>
     ea0: e4 0e                        	<unknown>
     ea2: 00 00                        	<unknown>
     ea4: 2f 78 10 00                  	<unknown>
     ea8: 00 dd                        	<unknown>
     eaa: 08 00                        	<unknown>
     eac: 00 2f                        	<unknown>
     eae: 85 10                        	<unknown>
     eb0: 00 00                        	<unknown>
     eb2: f0 08                        	<unknown>
     eb4: 00 00                        	<unknown>
     eb6: 2f 92 10 00                  	<unknown>
     eba: 00 14                        	<unknown>
     ebc: 09 00                        	<unknown>
     ebe: 00 2f                        	<unknown>
     ec0: 9f 10 00 00                  	<unknown>
     ec4: 32 09                        	<unknown>
     ec6: 00 00                        	<unknown>
     ec8: 2f ac 10 00                  	<unknown>
     ecc: 00 50                        	<unknown>
     ece: 09 00                        	<unknown>
     ed0: 00 2f                        	<unknown>
     ed2: b9 10                        	<unknown>
     ed4: 00 00                        	<unknown>
     ed6: 84 09                        	<unknown>
     ed8: 00 00                        	<unknown>
     eda: 2f c6 10 00                  	<unknown>
     ede: 00 ad                        	<unknown>
     ee0: 09 00                        	<unknown>
     ee2: 00 00                        	<unknown>
     ee4: 32 35                        	<unknown>
     ee6: 11 00                        	<unknown>
     ee8: 00 e0                        	<unknown>
     eea: 00 00                        	<unknown>
     eec: 00 2f                        	<unknown>
     eee: 3a 11                        	<unknown>
     ef0: 00 00                        	<unknown>
     ef2: db 09 00 00                  	<unknown>
     ef6: 2f 47 11 00                  	<unknown>
     efa: 00 f9                        	<unknown>
     efc: 09 00                        	<unknown>
     efe: 00 00                        	<unknown>
     f00: 00 00                        	<unknown>
     f02: 00 33                        	<unknown>
     f04: 52 06                        	<unknown>
     f06: 00 00                        	<unknown>
     f08: 01 f7                        	<unknown>
     f0a: 03 01 34 0b                  	lb	sp, 179(s0)
     f0e: 00 00                        	<unknown>
     f10: 03 74 12 00                  	<unknown>
     f14: 00 34                        	<unknown>
     f16: 6e 00                        	<unknown>
     f18: 01 f7                        	<unknown>
     f1a: 03 17 34 0b                  	lh	a4, 179(s0)
     f1e: 00 00                        	<unknown>
     f20: 34 64                        	<unknown>
     f22: 00 01                        	<unknown>
     f24: f7 03 22 34                  	<unknown>
     f28: 0b 00 00 34                  	<unknown>
     f2c: 72 70                        	<unknown>
     f2e: 00 01                        	<unknown>
     f30: f7 03 2e 74                  	<unknown>
     f34: 12 00                        	<unknown>
     f36: 00 35                        	<unknown>
     f38: 6e 6e                        	<unknown>
     f3a: 00 01                        	<unknown>
     f3c: f9 03                        	<unknown>
     f3e: 11 bd                        	<unknown>
     f40: 0b 00 00 35                  	<unknown>
     f44: 64 64                        	<unknown>
     f46: 00 01                        	<unknown>
     f48: fa 03                        	<unknown>
     f4a: 11 bd                        	<unknown>
     f4c: 0b 00 00 35                  	<unknown>
     f50: 72 72                        	<unknown>
     f52: 00 01                        	<unknown>
     f54: fb 03 0b b0                  	<unknown>
     f58: 0b 00 00 35                  	<unknown>
     f5c: 64 30                        	<unknown>
     f5e: 00 01                        	<unknown>
     f60: fc 03                        	<unknown>
     f62: 0a 1c                        	<unknown>
     f64: 0b 00 00 35                  	<unknown>
     f68: 64 31                        	<unknown>
     f6a: 00 01                        	<unknown>
     f6c: fc 03                        	<unknown>
     f6e: 0e 1c                        	<unknown>
     f70: 0b 00 00 35                  	<unknown>
     f74: 6e 30                        	<unknown>
     f76: 00 01                        	<unknown>
     f78: fc 03                        	<unknown>
     f7a: 12 1c                        	<unknown>
     f7c: 0b 00 00 35                  	<unknown>
     f80: 6e 31                        	<unknown>
     f82: 00 01                        	<unknown>
     f84: fc 03                        	<unknown>
     f86: 16 1c                        	<unknown>
     f88: 0b 00 00 35                  	<unknown>
     f8c: 6e 32                        	<unknown>
     f8e: 00 01                        	<unknown>
     f90: fc 03                        	<unknown>
     f92: 1a 1c                        	<unknown>
     f94: 0b 00 00 35                  	<unknown>
     f98: 71 30                        	<unknown>
     f9a: 00 01                        	<unknown>
     f9c: fd 03                        	<unknown>
     f9e: 0a 1c                        	<unknown>
     fa0: 0b 00 00 35                  	<unknown>
     fa4: 71 31                        	<unknown>
     fa6: 00 01                        	<unknown>
     fa8: fd 03                        	<unknown>
     faa: 0e 1c                        	<unknown>
     fac: 0b 00 00 35                  	<unknown>
     fb0: 62 00                        	<unknown>
     fb2: 01 fe                        	<unknown>
     fb4: 03 0a 1c 0b                  	lb	s4, 177(s8)
     fb8: 00 00                        	<unknown>
     fba: 35 62                        	<unknown>
     fbc: 6d 00                        	<unknown>
     fbe: 01 fe                        	<unknown>
     fc0: 03 0d 1c 0b                  	lb	s10, 177(s8)
     fc4: 00 00                        	<unknown>
     fc6: 35 77                        	<unknown>
     fc8: 77 00 01 c7                  	<unknown>
     fcc: 04 11                        	<unknown>
     fce: bd 0b                        	<unknown>
     fd0: 00 00                        	<unknown>
     fd2: 36 f2                        	<unknown>
     fd4: 0f 00 00 37                  	<unknown>
     fd8: d3 06 00 00                  	<unknown>
     fdc: 01 2e                        	<unknown>
     fde: 04 04                        	<unknown>
     fe0: 1c 0b                        	<unknown>
     fe2: 00 00                        	<unknown>
     fe4: 35 5f                        	<unknown>
     fe6: 5f 61 00 01                  	<unknown>
     fea: 2e 04                        	<unknown>
     fec: 04 1c                        	<unknown>
     fee: 0b 00 00 00                  	vx_tmc	zero
     ff2: 36 53                        	<unknown>
     ff4: 10 00                        	<unknown>
     ff6: 00 37                        	<unknown>
     ff8: a3 00 00 00                  	sb	zero, 1(zero)
     ffc: 01 3a                        	<unknown>
     ffe: 04 04                        	<unknown>
    1000: 1c 0b                        	<unknown>
    1002: 00 00                        	<unknown>
    1004: 37 9e 00 00                  	lui	t3, 9
    1008: 00 01                        	<unknown>
    100a: 3a 04                        	<unknown>
    100c: 04 1c                        	<unknown>
    100e: 0b 00 00 37                  	<unknown>
    1012: 86 06                        	<unknown>
    1014: 00 00                        	<unknown>
    1016: 01 3a                        	<unknown>
    1018: 04 04                        	<unknown>
    101a: 1c 0b                        	<unknown>
    101c: 00 00                        	<unknown>
    101e: 37 81 06 00                  	lui	sp, 104
    1022: 00 01                        	<unknown>
    1024: 3a 04                        	<unknown>
    1026: 04 1c                        	<unknown>
    1028: 0b 00 00 37                  	<unknown>
    102c: 51 07                        	<unknown>
    102e: 00 00                        	<unknown>
    1030: 01 3a                        	<unknown>
    1032: 04 04                        	<unknown>
    1034: 1c 0b                        	<unknown>
    1036: 00 00                        	<unknown>
    1038: 37 4c 07 00                  	lui	s8, 116
    103c: 00 01                        	<unknown>
    103e: 3a 04                        	<unknown>
    1040: 04 1c                        	<unknown>
    1042: 0b 00 00 35                  	<unknown>
    1046: 5f 5f 6d 00                  	<unknown>
    104a: 01 3a                        	<unknown>
    104c: 04 04                        	<unknown>
    104e: 1c 0b                        	<unknown>
    1050: 00 00                        	<unknown>
    1052: 00 36                        	<unknown>
    1054: 73 10 00 00                  	csrw	ustatus, zero
    1058: 37 d3 06 00                  	lui	t1, 109
    105c: 00 01                        	<unknown>
    105e: 46 04                        	<unknown>
    1060: 04 1c                        	<unknown>
    1062: 0b 00 00 35                  	<unknown>
    1066: 5f 5f 61 00                  	<unknown>
    106a: 01 46                        	<unknown>
    106c: 04 04                        	<unknown>
    106e: 1c 0b                        	<unknown>
    1070: 00 00                        	<unknown>
    1072: 00 36                        	<unknown>
    1074: d4 10                        	<unknown>
    1076: 00 00                        	<unknown>
    1078: 37 a3 00 00                  	lui	t1, 10
    107c: 00 01                        	<unknown>
    107e: 5f 04 08 1c                  	<unknown>
    1082: 0b 00 00 37                  	<unknown>
    1086: 9e 00                        	<unknown>
    1088: 00 00                        	<unknown>
    108a: 01 5f                        	<unknown>
    108c: 04 08                        	<unknown>
    108e: 1c 0b                        	<unknown>
    1090: 00 00                        	<unknown>
    1092: 37 86 06 00                  	lui	a2, 104
    1096: 00 01                        	<unknown>
    1098: 5f 04 08 1c                  	<unknown>
    109c: 0b 00 00 37                  	<unknown>
    10a0: 81 06                        	<unknown>
    10a2: 00 00                        	<unknown>
    10a4: 01 5f                        	<unknown>
    10a6: 04 08                        	<unknown>
    10a8: 1c 0b                        	<unknown>
    10aa: 00 00                        	<unknown>
    10ac: 37 51 07 00                  	lui	sp, 117
    10b0: 00 01                        	<unknown>
    10b2: 5f 04 08 1c                  	<unknown>
    10b6: 0b 00 00 37                  	<unknown>
    10ba: 4c 07                        	<unknown>
    10bc: 00 00                        	<unknown>
    10be: 01 5f                        	<unknown>
    10c0: 04 08                        	<unknown>
    10c2: 1c 0b                        	<unknown>
    10c4: 00 00                        	<unknown>
    10c6: 35 5f                        	<unknown>
    10c8: 5f 6d 00 01                  	<unknown>
    10cc: 5f 04 08 1c                  	<unknown>
    10d0: 0b 00 00 00                  	vx_tmc	zero
    10d4: 36 35                        	<unknown>
    10d6: 11 00                        	<unknown>
    10d8: 00 37                        	<unknown>
    10da: a3 00 00 00                  	sb	zero, 1(zero)
    10de: 01 64                        	<unknown>
    10e0: 04 04                        	<unknown>
    10e2: 1c 0b                        	<unknown>
    10e4: 00 00                        	<unknown>
    10e6: 37 9e 00 00                  	lui	t3, 9
    10ea: 00 01                        	<unknown>
    10ec: 64 04                        	<unknown>
    10ee: 04 1c                        	<unknown>
    10f0: 0b 00 00 37                  	<unknown>
    10f4: 86 06                        	<unknown>
    10f6: 00 00                        	<unknown>
    10f8: 01 64                        	<unknown>
    10fa: 04 04                        	<unknown>
    10fc: 1c 0b                        	<unknown>
    10fe: 00 00                        	<unknown>
    1100: 37 81 06 00                  	lui	sp, 104
    1104: 00 01                        	<unknown>
    1106: 64 04                        	<unknown>
    1108: 04 1c                        	<unknown>
    110a: 0b 00 00 37                  	<unknown>
    110e: 51 07                        	<unknown>
    1110: 00 00                        	<unknown>
    1112: 01 64                        	<unknown>
    1114: 04 04                        	<unknown>
    1116: 1c 0b                        	<unknown>
    1118: 00 00                        	<unknown>
    111a: 37 4c 07 00                  	lui	s8, 116
    111e: 00 01                        	<unknown>
    1120: 64 04                        	<unknown>
    1122: 04 1c                        	<unknown>
    1124: 0b 00 00 35                  	<unknown>
    1128: 5f 5f 6d 00                  	<unknown>
    112c: 01 64                        	<unknown>
    112e: 04 04                        	<unknown>
    1130: 1c 0b                        	<unknown>
    1132: 00 00                        	<unknown>
    1134: 00 36                        	<unknown>
    1136: 55 11                        	<unknown>
    1138: 00 00                        	<unknown>
    113a: 37 d3 06 00                  	lui	t1, 109
    113e: 00 01                        	<unknown>
    1140: 87 04 04 1c                  	<unknown>
    1144: 0b 00 00 35                  	<unknown>
    1148: 5f 5f 61 00                  	<unknown>
    114c: 01 87                        	<unknown>
    114e: 04 04                        	<unknown>
    1150: 1c 0b                        	<unknown>
    1152: 00 00                        	<unknown>
    1154: 00 36                        	<unknown>
    1156: 68 11                        	<unknown>
    1158: 00 00                        	<unknown>
    115a: 35 5f                        	<unknown>
    115c: 5f 78 00 01                  	<unknown>
    1160: 95 04                        	<unknown>
    1162: 05 1c                        	<unknown>
    1164: 0b 00 00 00                  	vx_tmc	zero
    1168: 38 35                        	<unknown>
    116a: 6d 31                        	<unknown>
    116c: 00 01                        	<unknown>
    116e: a5 04                        	<unknown>
    1170: 0f 1c 0b 00                  	<unknown>
    1174: 00 35                        	<unknown>
    1176: 6d 30                        	<unknown>
    1178: 00 01                        	<unknown>
    117a: a5 04                        	<unknown>
    117c: 13 1c 0b 00                  	slli	s8, s6, 0
    1180: 00 36                        	<unknown>
    1182: e2 11                        	<unknown>
    1184: 00 00                        	<unknown>
    1186: 37 a3 00 00                  	lui	t1, 10
    118a: 00 01                        	<unknown>
    118c: b0 04                        	<unknown>
    118e: 08 1c                        	<unknown>
    1190: 0b 00 00 37                  	<unknown>
    1194: 9e 00                        	<unknown>
    1196: 00 00                        	<unknown>
    1198: 01 b0                        	<unknown>
    119a: 04 08                        	<unknown>
    119c: 1c 0b                        	<unknown>
    119e: 00 00                        	<unknown>
    11a0: 37 86 06 00                  	lui	a2, 104
    11a4: 00 01                        	<unknown>
    11a6: b0 04                        	<unknown>
    11a8: 08 1c                        	<unknown>
    11aa: 0b 00 00 37                  	<unknown>
    11ae: 81 06                        	<unknown>
    11b0: 00 00                        	<unknown>
    11b2: 01 b0                        	<unknown>
    11b4: 04 08                        	<unknown>
    11b6: 1c 0b                        	<unknown>
    11b8: 00 00                        	<unknown>
    11ba: 37 51 07 00                  	lui	sp, 117
    11be: 00 01                        	<unknown>
    11c0: b0 04                        	<unknown>
    11c2: 08 1c                        	<unknown>
    11c4: 0b 00 00 37                  	<unknown>
    11c8: 4c 07                        	<unknown>
    11ca: 00 00                        	<unknown>
    11cc: 01 b0                        	<unknown>
    11ce: 04 08                        	<unknown>
    11d0: 1c 0b                        	<unknown>
    11d2: 00 00                        	<unknown>
    11d4: 35 5f                        	<unknown>
    11d6: 5f 6d 00 01                  	<unknown>
    11da: b0 04                        	<unknown>
    11dc: 08 1c                        	<unknown>
    11de: 0b 00 00 00                  	vx_tmc	zero
    11e2: 36 50                        	<unknown>
    11e4: 12 00                        	<unknown>
    11e6: 00 37                        	<unknown>
    11e8: 05 06                        	<unknown>
    11ea: 00 00                        	<unknown>
    11ec: 01 b1                        	<unknown>
    11ee: 04 08                        	<unknown>
    11f0: 1c 0b                        	<unknown>
    11f2: 00 00                        	<unknown>
    11f4: 37 0a 06 00                  	lui	s4, 96
    11f8: 00 01                        	<unknown>
    11fa: b1 04                        	<unknown>
    11fc: 08 1c                        	<unknown>
    11fe: 0b 00 00 37                  	<unknown>
    1202: 0f 06 00 00                  	<unknown>
    1206: 01 b1                        	<unknown>
    1208: 04 08                        	<unknown>
    120a: 1c 0b                        	<unknown>
    120c: 00 00                        	<unknown>
    120e: 37 14 06 00                  	lui	s0, 97
    1212: 00 01                        	<unknown>
    1214: b1 04                        	<unknown>
    1216: 08 1c                        	<unknown>
    1218: 0b 00 00 37                  	<unknown>
    121c: 69 03                        	<unknown>
    121e: 00 00                        	<unknown>
    1220: 01 b1                        	<unknown>
    1222: 04 08                        	<unknown>
    1224: 1c 0b                        	<unknown>
    1226: 00 00                        	<unknown>
    1228: 37 31 04 00                  	lui	sp, 67
    122c: 00 01                        	<unknown>
    122e: b1 04                        	<unknown>
    1230: 08 1c                        	<unknown>
    1232: 0b 00 00 37                  	<unknown>
    1236: 53 03 00 00                  	<unknown>
    123a: 01 b1                        	<unknown>
    123c: 04 08                        	<unknown>
    123e: 1c 0b                        	<unknown>
    1240: 00 00                        	<unknown>
    1242: 37 2c 04 00                  	lui	s8, 66
    1246: 00 01                        	<unknown>
    1248: b1 04                        	<unknown>
    124a: 08 1c                        	<unknown>
    124c: 0b 00 00 00                  	vx_tmc	zero
    1250: 36 63                        	<unknown>
    1252: 12 00                        	<unknown>
    1254: 00 35                        	<unknown>
    1256: 5f 5f 78 00                  	<unknown>
    125a: 01 b6                        	<unknown>
    125c: 04 05                        	<unknown>
    125e: 1c 0b                        	<unknown>
    1260: 00 00                        	<unknown>
    1262: 00 38                        	<unknown>
    1264: 35 5f                        	<unknown>
    1266: 5f 78 00 01                  	<unknown>
    126a: be 04                        	<unknown>
    126c: 05 1c                        	<unknown>
    126e: 0b 00 00 00                  	vx_tmc	zero
    1272: 00 00                        	<unknown>
    1274: 0f 04 34 0b                  	<unknown>
    1278: 00 00                        	<unknown>
    127a: 00 66                        	<unknown>
    127c: 0b 00 00 04                  	<unknown>
    1280: 00 e4                        	<unknown>
    1282: 02 00                        	<unknown>
    1284: 00 04                        	<unknown>
    1286: 01 e2                        	<unknown>
    1288: 07 00 00 0c                  	<unknown>
    128c: 6d 04                        	<unknown>
    128e: 00 00                        	<unknown>
    1290: d5 01                        	<unknown>
    1292: 00 00                        	<unknown>
    1294: d2 09                        	<unknown>
    1296: 00 00                        	<unknown>
    1298: 02 04                        	<unknown>
    129a: 05 69                        	<unknown>
    129c: 6e 74                        	<unknown>
    129e: 00 03                        	<unknown>
    12a0: 04 07                        	<unknown>
    12a2: d4 02                        	<unknown>
    12a4: 00 00                        	<unknown>
    12a6: 03 08 05 f1                  	lb	a6, -240(a0)
    12aa: 03 00 00 03                  	lb	zero, 48(zero)
    12ae: 10 04                        	<unknown>
    12b0: c0 00                        	<unknown>
    12b2: 00 00                        	<unknown>
    12b4: 03 01 06 aa                  	lb	sp, -1376(a2)
    12b8: 06 00                        	<unknown>
    12ba: 00 03                        	<unknown>
    12bc: 01 08                        	<unknown>
    12be: a8 06                        	<unknown>
    12c0: 00 00                        	<unknown>
    12c2: 03 02 05 00                  	lb	tp, 0(a0)
    12c6: 00 00                        	<unknown>
    12c8: 00 03                        	<unknown>
    12ca: 02 07                        	<unknown>
    12cc: ea 02                        	<unknown>
    12ce: 00 00                        	<unknown>
    12d0: 03 04 05 f6                  	lb	s0, -160(a0)
    12d4: 03 00 00 03                  	lb	zero, 48(zero)
    12d8: 04 07                        	<unknown>
    12da: cf 02 00 00                  	<unknown>
    12de: 03 08 07 ca                  	lb	a6, -864(a4)
    12e2: 02 00                        	<unknown>
    12e4: 00 04                        	<unknown>
    12e6: 46 03                        	<unknown>
    12e8: 00 00                        	<unknown>
    12ea: 01 5e                        	<unknown>
    12ec: 01 17                        	<unknown>
    12ee: 24 00                        	<unknown>
    12f0: 00 00                        	<unknown>
    12f2: 05 25                        	<unknown>
    12f4: 04 00                        	<unknown>
    12f6: 00 02                        	<unknown>
    12f8: 2e 0e                        	<unknown>
    12fa: 55 00                        	<unknown>
    12fc: 00 00                        	<unknown>
    12fe: 05 27                        	<unknown>
    1300: 06 00                        	<unknown>
    1302: 00 02                        	<unknown>
    1304: 74 0e                        	<unknown>
    1306: 55 00                        	<unknown>
    1308: 00 00                        	<unknown>
    130a: 05 12                        	<unknown>
    130c: 07 00 00 02                  	<unknown>
    1310: 93 17 1d 00                  	slli	a5, s10, 1
    1314: 00 00                        	<unknown>
    1316: 06 04                        	<unknown>
    1318: 02 a5                        	<unknown>
    131a: 03 bd 00 00                  	<unknown>
    131e: 00 07                        	<unknown>
    1320: 31 03                        	<unknown>
    1322: 00 00                        	<unknown>
    1324: 02 a7                        	<unknown>
    1326: 0c 6a                        	<unknown>
    1328: 00 00                        	<unknown>
    132a: 00 07                        	<unknown>
    132c: 9c 02                        	<unknown>
    132e: 00 00                        	<unknown>
    1330: 02 a8                        	<unknown>
    1332: 13 bd 00 00                  	sltiu	s10, ra, 0
    1336: 00 00                        	<unknown>
    1338: 08 40                        	<unknown>
    133a: 00 00                        	<unknown>
    133c: 00 cd                        	<unknown>
    133e: 00 00                        	<unknown>
    1340: 00 09                        	<unknown>
    1342: 24 00                        	<unknown>
    1344: 00 00                        	<unknown>
    1346: 03 00 0a 08                  	lb	zero, 128(s4)
    134a: 02 a2                        	<unknown>
    134c: 09 f1                        	<unknown>
    134e: 00 00                        	<unknown>
    1350: 00 0b                        	<unknown>
    1352: 97 03 00 00                  	auipc	t2, 0
    1356: 02 a4                        	<unknown>
    1358: 07 1d 00 00                  	<unknown>
    135c: 00 00                        	<unknown>
    135e: 0b 19 06 00                  	<unknown>
    1362: 00 02                        	<unknown>
    1364: a9 05                        	<unknown>
    1366: 9b 00 00 00                  	<unknown>
    136a: 04 00                        	<unknown>
    136c: 05 4a                        	<unknown>
    136e: 04 00                        	<unknown>
    1370: 00 02                        	<unknown>
    1372: aa 03                        	<unknown>
    1374: cd 00                        	<unknown>
    1376: 00 00                        	<unknown>
    1378: 0c 04                        	<unknown>
    137a: 05 bb                        	<unknown>
    137c: 06 00                        	<unknown>
    137e: 00 03                        	<unknown>
    1380: 16 19                        	<unknown>
    1382: 5c 00                        	<unknown>
    1384: 00 00                        	<unknown>
    1386: 05 55                        	<unknown>
    1388: 04 00                        	<unknown>
    138a: 00 04                        	<unknown>
    138c: 0c 0d                        	<unknown>
    138e: 1d 00                        	<unknown>
    1390: 00 00                        	<unknown>
    1392: 05 cb                        	<unknown>
    1394: 04 00                        	<unknown>
    1396: 00 03                        	<unknown>
    1398: 23 1b 0b 01                  	sh	a6, 22(s6)
    139c: 00 00                        	<unknown>
    139e: 0d d0                        	<unknown>
    13a0: 03 00 00 18                  	lb	zero, 384(zero)
    13a4: 03 34 08 7d                  	<unknown>
    13a8: 01 00                        	<unknown>
    13aa: 00 0b                        	<unknown>
    13ac: d4 07                        	<unknown>
    13ae: 00 00                        	<unknown>
    13b0: 03 36 13 7d                  	<unknown>
    13b4: 01 00                        	<unknown>
    13b6: 00 00                        	<unknown>
    13b8: 0e 5f                        	<unknown>
    13ba: 6b 00 03 37                  	<unknown>
    13be: 07 1d 00 00                  	<unknown>
    13c2: 00 04                        	<unknown>
    13c4: 0b f6 05 00                  	<unknown>
    13c8: 00 03                        	<unknown>
    13ca: 37 0b 1d 00                  	lui	s6, 464
    13ce: 00 00                        	<unknown>
    13d0: 08 0b                        	<unknown>
    13d2: 40 02                        	<unknown>
    13d4: 00 00                        	<unknown>
    13d6: 03 37 14 1d                  	<unknown>
    13da: 00 00                        	<unknown>
    13dc: 00 0c                        	<unknown>
    13de: 0b 6b 01 00                  	<unknown>
    13e2: 00 03                        	<unknown>
    13e4: 37 1b 1d 00                  	lui	s6, 465
    13e8: 00 00                        	<unknown>
    13ea: 10 0e                        	<unknown>
    13ec: 5f 78 00 03                  	<unknown>
    13f0: 38 0b                        	<unknown>
    13f2: 83 01 00 00                  	lb	gp, 0(zero)
    13f6: 14 00                        	<unknown>
    13f8: 0f 04 23 01                  	<unknown>
    13fc: 00 00                        	<unknown>
    13fe: 08 ff                        	<unknown>
    1400: 00 00                        	<unknown>
    1402: 00 93                        	<unknown>
    1404: 01 00                        	<unknown>
    1406: 00 09                        	<unknown>
    1408: 24 00                        	<unknown>
    140a: 00 00                        	<unknown>
    140c: 00 00                        	<unknown>
    140e: 0d 7f                        	<unknown>
    1410: 02 00                        	<unknown>
    1412: 00 24                        	<unknown>
    1414: 03 3c 08 16                  	<unknown>
    1418: 02 00                        	<unknown>
    141a: 00 0b                        	<unknown>
    141c: f8 00                        	<unknown>
    141e: 00 00                        	<unknown>
    1420: 03 3e 09 1d                  	<unknown>
    1424: 00 00                        	<unknown>
    1426: 00 00                        	<unknown>
    1428: 0b 70 07 00                  	<unknown>
    142c: 00 03                        	<unknown>
    142e: 3f 09 1d 00                  	<unknown>
    1432: 00 00                        	<unknown>
    1434: 04 0b                        	<unknown>
    1436: 14 01                        	<unknown>
    1438: 00 00                        	<unknown>
    143a: 03 40 09 1d                  	lbu	zero, 464(s2)
    143e: 00 00                        	<unknown>
    1440: 00 08                        	<unknown>
    1442: 0b c5 07 00                  	<unknown>
    1446: 00 03                        	<unknown>
    1448: 41 09                        	<unknown>
    144a: 1d 00                        	<unknown>
    144c: 00 00                        	<unknown>
    144e: 0c 0b                        	<unknown>
    1450: ff 03 00 00                  	<unknown>
    1454: 03 42 09 1d                  	lbu	tp, 464(s2)
    1458: 00 00                        	<unknown>
    145a: 00 10                        	<unknown>
    145c: 0b 8d 03 00                  	<unknown>
    1460: 00 03                        	<unknown>
    1462: 43 09 1d 00                  	<unknown>
    1466: 00 00                        	<unknown>
    1468: 14 0b                        	<unknown>
    146a: fb 06 00 00                  	<unknown>
    146e: 03 44 09 1d                  	lbu	s0, 464(s2)
    1472: 00 00                        	<unknown>
    1474: 00 18                        	<unknown>
    1476: 0b ac 07 00                  	<unknown>
    147a: 00 03                        	<unknown>
    147c: 45 09                        	<unknown>
    147e: 1d 00                        	<unknown>
    1480: 00 00                        	<unknown>
    1482: 1c 0b                        	<unknown>
    1484: 56 07                        	<unknown>
    1486: 00 00                        	<unknown>
    1488: 03 46 09 1d                  	lbu	a2, 464(s2)
    148c: 00 00                        	<unknown>
    148e: 00 20                        	<unknown>
    1490: 00 10                        	<unknown>
    1492: 31 01                        	<unknown>
    1494: 00 00                        	<unknown>
    1496: 08 01                        	<unknown>
    1498: 03 4f 08 5b                  	lbu	t5, 1456(a6)
    149c: 02 00                        	<unknown>
    149e: 00 0b                        	<unknown>
    14a0: 33 02 00 00                  	add	tp, zero, zero
    14a4: 03 50 0a 5b                  	lhu	zero, 1456(s4)
    14a8: 02 00                        	<unknown>
    14aa: 00 00                        	<unknown>
    14ac: 0b a7 04 00                  	<unknown>
    14b0: 00 03                        	<unknown>
    14b2: 51 09                        	<unknown>
    14b4: 5b 02 00 00                  	<unknown>
    14b8: 80 11                        	<unknown>
    14ba: 9f 06 00 00                  	<unknown>
    14be: 03 53 0a ff                  	lhu	t1, -16(s4)
    14c2: 00 00                        	<unknown>
    14c4: 00 00                        	<unknown>
    14c6: 01 11                        	<unknown>
    14c8: 63 01 00 00                  	beqz	zero, 2
    14cc: 03 56 0a ff                  	lhu	a2, -16(s4)
    14d0: 00 00                        	<unknown>
    14d2: 00 04                        	<unknown>
    14d4: 01 00                        	<unknown>
    14d6: 08 fd                        	<unknown>
    14d8: 00 00                        	<unknown>
    14da: 00 6b                        	<unknown>
    14dc: 02 00                        	<unknown>
    14de: 00 09                        	<unknown>
    14e0: 24 00                        	<unknown>
    14e2: 00 00                        	<unknown>
    14e4: 1f 00 10 08                  	<unknown>
    14e8: 04 00                        	<unknown>
    14ea: 00 90                        	<unknown>
    14ec: 01 03                        	<unknown>
    14ee: 62 08                        	<unknown>
    14f0: ae 02                        	<unknown>
    14f2: 00 00                        	<unknown>
    14f4: 0b d4 07 00                  	<unknown>
    14f8: 00 03                        	<unknown>
    14fa: 63 12 ae 02                  	bne	t3, a0, 36
    14fe: 00 00                        	<unknown>
    1500: 00 0b                        	<unknown>
    1502: df 05 00 00                  	<unknown>
    1506: 03 64 06 1d                  	<unknown>
    150a: 00 00                        	<unknown>
    150c: 00 04                        	<unknown>
    150e: 0b 3b 02 00                  	<unknown>
    1512: 00 03                        	<unknown>
    1514: 66 09                        	<unknown>
    1516: b4 02                        	<unknown>
    1518: 00 00                        	<unknown>
    151a: 08 0b                        	<unknown>
    151c: 31 01                        	<unknown>
    151e: 00 00                        	<unknown>
    1520: 03 67 1e 16                  	<unknown>
    1524: 02 00                        	<unknown>
    1526: 00 88                        	<unknown>
    1528: 00 0f                        	<unknown>
    152a: 04 6b                        	<unknown>
    152c: 02 00                        	<unknown>
    152e: 00 08                        	<unknown>
    1530: c4 02                        	<unknown>
    1532: 00 00                        	<unknown>
    1534: c4 02                        	<unknown>
    1536: 00 00                        	<unknown>
    1538: 09 24                        	<unknown>
    153a: 00 00                        	<unknown>
    153c: 00 1f                        	<unknown>
    153e: 00 0f                        	<unknown>
    1540: 04 ca                        	<unknown>
    1542: 02 00                        	<unknown>
    1544: 00 12                        	<unknown>
    1546: 0d be                        	<unknown>
    1548: 07 00 00 08                  	<unknown>
    154c: 03 7a 08 f3                  	<unknown>
    1550: 02 00                        	<unknown>
    1552: 00 0b                        	<unknown>
    1554: 0e 01                        	<unknown>
    1556: 00 00                        	<unknown>
    1558: 03 7b 11 f3                  	<unknown>
    155c: 02 00                        	<unknown>
    155e: 00 00                        	<unknown>
    1560: 0b 1c 00 00                  	<unknown>
    1564: 00 03                        	<unknown>
    1566: 7c 06                        	<unknown>
    1568: 1d 00                        	<unknown>
    156a: 00 00                        	<unknown>
    156c: 04 00                        	<unknown>
    156e: 0f 04 40 00                  	<unknown>
    1572: 00 00                        	<unknown>
    1574: 0d bb                        	<unknown>
    1576: 05 00                        	<unknown>
    1578: 00 68                        	<unknown>
    157a: 03 ba 08 3c                  	<unknown>
    157e: 04 00                        	<unknown>
    1580: 00 0e                        	<unknown>
    1582: 5f 70 00 03                  	<unknown>
    1586: bb 12 f3 02                  	<unknown>
    158a: 00 00                        	<unknown>
    158c: 00 0e                        	<unknown>
    158e: 5f 72 00 03                  	<unknown>
    1592: bc 07                        	<unknown>
    1594: 1d 00                        	<unknown>
    1596: 00 00                        	<unknown>
    1598: 04 0e                        	<unknown>
    159a: 5f 77 00 03                  	<unknown>
    159e: bd 07                        	<unknown>
    15a0: 1d 00                        	<unknown>
    15a2: 00 00                        	<unknown>
    15a4: 08 0b                        	<unknown>
    15a6: 5c 01                        	<unknown>
    15a8: 00 00                        	<unknown>
    15aa: 03 be 09 47                  	<unknown>
    15ae: 00 00                        	<unknown>
    15b0: 00 0c                        	<unknown>
    15b2: 0b ab 02 00                  	<unknown>
    15b6: 00 03                        	<unknown>
    15b8: bf 09 47 00                  	<unknown>
    15bc: 00 00                        	<unknown>
    15be: 0e 0e                        	<unknown>
    15c0: 5f 62 66 00                  	<unknown>
    15c4: 03 c0 11 cb                  	lbu	zero, -847(gp)
    15c8: 02 00                        	<unknown>
    15ca: 00 10                        	<unknown>
    15cc: 0b a8 00 00                  	<unknown>
    15d0: 00 03                        	<unknown>
    15d2: c1 07                        	<unknown>
    15d4: 1d 00                        	<unknown>
    15d6: 00 00                        	<unknown>
    15d8: 18 0b                        	<unknown>
    15da: 3f 01 00 00                  	<unknown>
    15de: 03 c8 0a fd                  	lbu	a6, -48(s5)
    15e2: 00 00                        	<unknown>
    15e4: 00 1c                        	<unknown>
    15e6: 0b 67 04 00                  	<unknown>
    15ea: 00 03                        	<unknown>
    15ec: ca 1d                        	<unknown>
    15ee: c0 05                        	<unknown>
    15f0: 00 00                        	<unknown>
    15f2: 20 0b                        	<unknown>
    15f4: 86 03                        	<unknown>
    15f6: 00 00                        	<unknown>
    15f8: 03 cc 1d ef                  	lbu	s8, -271(s11)
    15fc: 05 00                        	<unknown>
    15fe: 00 24                        	<unknown>
    1600: 0b 21 06 00                  	<unknown>
    1604: 00 03                        	<unknown>
    1606: cf 0d 13 06                  	<unknown>
    160a: 00 00                        	<unknown>
    160c: 28 0b                        	<unknown>
    160e: 01 01                        	<unknown>
    1610: 00 00                        	<unknown>
    1612: 03 d0 09 2d                  	lhu	zero, 720(s3)
    1616: 06 00                        	<unknown>
    1618: 00 2c                        	<unknown>
    161a: 0e 5f                        	<unknown>
    161c: 75 62                        	<unknown>
    161e: 00 03                        	<unknown>
    1620: d3 11 cb 02                  	<unknown>
    1624: 00 00                        	<unknown>
    1626: 30 0e                        	<unknown>
    1628: 5f 75 70 00                  	<unknown>
    162c: 03 d4 12 f3                  	lhu	s0, -207(t0)
    1630: 02 00                        	<unknown>
    1632: 00 38                        	<unknown>
    1634: 0e 5f                        	<unknown>
    1636: 75 72                        	<unknown>
    1638: 00 03                        	<unknown>
    163a: d5 07                        	<unknown>
    163c: 1d 00                        	<unknown>
    163e: 00 00                        	<unknown>
    1640: 3c 0b                        	<unknown>
    1642: 08 01                        	<unknown>
    1644: 00 00                        	<unknown>
    1646: 03 d8 11 33                  	lhu	a6, 817(gp)
    164a: 06 00                        	<unknown>
    164c: 00 40                        	<unknown>
    164e: 0b 3e 07 00                  	<unknown>
    1652: 00 03                        	<unknown>
    1654: d9 11                        	<unknown>
    1656: 43 06 00 00                  	<unknown>
    165a: 43 0e 5f 6c                  	<unknown>
    165e: 62 00                        	<unknown>
    1660: 03 dc 11 cb                  	lhu	s8, -847(gp)
    1664: 02 00                        	<unknown>
    1666: 00 44                        	<unknown>
    1668: 0b 38 06 00                  	<unknown>
    166c: 00 03                        	<unknown>
    166e: df 07 1d 00                  	<unknown>
    1672: 00 00                        	<unknown>
    1674: 4c 0b                        	<unknown>
    1676: c8 03                        	<unknown>
    1678: 00 00                        	<unknown>
    167a: 03 e0 0a 77                  	<unknown>
    167e: 00 00                        	<unknown>
    1680: 00 50                        	<unknown>
    1682: 0b 5b 00 00                  	<unknown>
    1686: 00 03                        	<unknown>
    1688: e3 12 5a 04                  	bne	s4, t0, 2116
    168c: 00 00                        	<unknown>
    168e: 54 0b                        	<unknown>
    1690: 4d 03                        	<unknown>
    1692: 00 00                        	<unknown>
    1694: 03 e7 0c 17                  	<unknown>
    1698: 01 00                        	<unknown>
    169a: 00 58                        	<unknown>
    169c: 0b 93 02 00                  	<unknown>
    16a0: 00 03                        	<unknown>
    16a2: e9 0e                        	<unknown>
    16a4: f1 00                        	<unknown>
    16a6: 00 00                        	<unknown>
    16a8: 5c 0b                        	<unknown>
    16aa: d4 04                        	<unknown>
    16ac: 00 00                        	<unknown>
    16ae: 03 ea 09 1d                  	<unknown>
    16b2: 00 00                        	<unknown>
    16b4: 00 64                        	<unknown>
    16b6: 00 13                        	<unknown>
    16b8: 8f 00 00 00                  	<unknown>
    16bc: 5a 04                        	<unknown>
    16be: 00 00                        	<unknown>
    16c0: 14 5a                        	<unknown>
    16c2: 04 00                        	<unknown>
    16c4: 00 14                        	<unknown>
    16c6: fd 00                        	<unknown>
    16c8: 00 00                        	<unknown>
    16ca: 14 ae                        	<unknown>
    16cc: 05 00                        	<unknown>
    16ce: 00 14                        	<unknown>
    16d0: 1d 00                        	<unknown>
    16d2: 00 00                        	<unknown>
    16d4: 00 0f                        	<unknown>
    16d6: 04 65                        	<unknown>
    16d8: 04 00                        	<unknown>
    16da: 00 15                        	<unknown>
    16dc: 5a 04                        	<unknown>
    16de: 00 00                        	<unknown>
    16e0: 16 fe                        	<unknown>
    16e2: 05 00                        	<unknown>
    16e4: 00 28                        	<unknown>
    16e6: 04 03                        	<unknown>
    16e8: 65 02                        	<unknown>
    16ea: 08 ae                        	<unknown>
    16ec: 05 00                        	<unknown>
    16ee: 00 17                        	<unknown>
    16f0: c4 04                        	<unknown>
    16f2: 00 00                        	<unknown>
    16f4: 03 67 02 07                  	<unknown>
    16f8: 1d 00                        	<unknown>
    16fa: 00 00                        	<unknown>
    16fc: 00 17                        	<unknown>
    16fe: 0b 07 00 00                  	<unknown>
    1702: 03 6c 02 0b                  	<unknown>
    1706: 9f 06 00 00                  	<unknown>
    170a: 04 17                        	<unknown>
    170c: f3 06 00 00                  	<unknown>
    1710: 03 6c 02 14                  	<unknown>
    1714: 9f 06 00 00                  	<unknown>
    1718: 08 17                        	<unknown>
    171a: 46 02                        	<unknown>
    171c: 00 00                        	<unknown>
    171e: 03 6c 02 1e                  	<unknown>
    1722: 9f 06 00 00                  	<unknown>
    1726: 0c 17                        	<unknown>
    1728: da 05                        	<unknown>
    172a: 00 00                        	<unknown>
    172c: 03 6e 02 08                  	<unknown>
    1730: 1d 00                        	<unknown>
    1732: 00 00                        	<unknown>
    1734: 10 17                        	<unknown>
    1736: 2a 00                        	<unknown>
    1738: 00 00                        	<unknown>
    173a: 03 6f 02 08                  	<unknown>
    173e: 9f 08 00 00                  	<unknown>
    1742: 14 17                        	<unknown>
    1744: 66 02                        	<unknown>
    1746: 00 00                        	<unknown>
    1748: 03 72 02 07                  	<unknown>
    174c: 1d 00                        	<unknown>
    174e: 00 00                        	<unknown>
    1750: 30 17                        	<unknown>
    1752: e4 05                        	<unknown>
    1754: 00 00                        	<unknown>
    1756: 03 73 02 16                  	<unknown>
    175a: b4 08                        	<unknown>
    175c: 00 00                        	<unknown>
    175e: 34 17                        	<unknown>
    1760: 1a 04                        	<unknown>
    1762: 00 00                        	<unknown>
    1764: 03 75 02 07                  	<unknown>
    1768: 1d 00                        	<unknown>
    176a: 00 00                        	<unknown>
    176c: 38 17                        	<unknown>
    176e: ec 05                        	<unknown>
    1770: 00 00                        	<unknown>
    1772: 03 77 02 0a                  	<unknown>
    1776: c5 08                        	<unknown>
    1778: 00 00                        	<unknown>
    177a: 3c 17                        	<unknown>
    177c: 29 03                        	<unknown>
    177e: 00 00                        	<unknown>
    1780: 03 7a 02 13                  	<unknown>
    1784: 7d 01                        	<unknown>
    1786: 00 00                        	<unknown>
    1788: 40 17                        	<unknown>
    178a: 77 01 00 00                  	<unknown>
    178e: 03 7b 02 07                  	<unknown>
    1792: 1d 00                        	<unknown>
    1794: 00 00                        	<unknown>
    1796: 44 17                        	<unknown>
    1798: a7 07 00 00                  	<unknown>
    179c: 03 7c 02 13                  	<unknown>
    17a0: 7d 01                        	<unknown>
    17a2: 00 00                        	<unknown>
    17a4: 48 17                        	<unknown>
    17a6: 36 04                        	<unknown>
    17a8: 00 00                        	<unknown>
    17aa: 03 7d 02 14                  	<unknown>
    17ae: cb 08 00 00                  	<unknown>
    17b2: 4c 17                        	<unknown>
    17b4: a3 02 00 00                  	sb	zero, 5(zero)
    17b8: 03 80 02 07                  	lb	zero, 112(t0)
    17bc: 1d 00                        	<unknown>
    17be: 00 00                        	<unknown>
    17c0: 50 17                        	<unknown>
    17c2: ae 01                        	<unknown>
    17c4: 00 00                        	<unknown>
    17c6: 03 81 02 09                  	lb	sp, 144(t0)
    17ca: ae 05                        	<unknown>
    17cc: 00 00                        	<unknown>
    17ce: 54 17                        	<unknown>
    17d0: bd 04                        	<unknown>
    17d2: 00 00                        	<unknown>
    17d4: 03 a4 02 07                  	lw	s0, 112(t0)
    17d8: 7a 08                        	<unknown>
    17da: 00 00                        	<unknown>
    17dc: 58 18                        	<unknown>
    17de: 08 04                        	<unknown>
    17e0: 00 00                        	<unknown>
    17e2: 03 a8 02 13                  	lw	a6, 304(t0)
    17e6: ae 02                        	<unknown>
    17e8: 00 00                        	<unknown>
    17ea: 48 01                        	<unknown>
    17ec: 18 07                        	<unknown>
    17ee: 03 00 00 03                  	lb	zero, 48(zero)
    17f2: a9 02                        	<unknown>
    17f4: 12 6b                        	<unknown>
    17f6: 02 00                        	<unknown>
    17f8: 00 4c                        	<unknown>
    17fa: 01 18                        	<unknown>
    17fc: 25 07                        	<unknown>
    17fe: 00 00                        	<unknown>
    1800: 03 ad 02 0c                  	lw	s10, 192(t0)
    1804: dc 08                        	<unknown>
    1806: 00 00                        	<unknown>
    1808: dc 02                        	<unknown>
    180a: 18 47                        	<unknown>
    180c: 01 00                        	<unknown>
    180e: 00 03                        	<unknown>
    1810: b2 02                        	<unknown>
    1812: 10 60                        	<unknown>
    1814: 06 00                        	<unknown>
    1816: 00 e0                        	<unknown>
    1818: 02 18                        	<unknown>
    181a: 2c 01                        	<unknown>
    181c: 00 00                        	<unknown>
    181e: 03 b4 02 0a                  	<unknown>
    1822: e8 08                        	<unknown>
    1824: 00 00                        	<unknown>
    1826: ec 02                        	<unknown>
    1828: 00 0f                        	<unknown>
    182a: 04 b4                        	<unknown>
    182c: 05 00                        	<unknown>
    182e: 00 03                        	<unknown>
    1830: 01 08                        	<unknown>
    1832: b1 06                        	<unknown>
    1834: 00 00                        	<unknown>
    1836: 15 b4                        	<unknown>
    1838: 05 00                        	<unknown>
    183a: 00 0f                        	<unknown>
    183c: 04 3c                        	<unknown>
    183e: 04 00                        	<unknown>
    1840: 00 13                        	<unknown>
    1842: 8f 00 00 00                  	<unknown>
    1846: e4 05                        	<unknown>
    1848: 00 00                        	<unknown>
    184a: 14 5a                        	<unknown>
    184c: 04 00                        	<unknown>
    184e: 00 14                        	<unknown>
    1850: fd 00                        	<unknown>
    1852: 00 00                        	<unknown>
    1854: 14 e4                        	<unknown>
    1856: 05 00                        	<unknown>
    1858: 00 14                        	<unknown>
    185a: 1d 00                        	<unknown>
    185c: 00 00                        	<unknown>
    185e: 00 0f                        	<unknown>
    1860: 04 bb                        	<unknown>
    1862: 05 00                        	<unknown>
    1864: 00 15                        	<unknown>
    1866: e4 05                        	<unknown>
    1868: 00 00                        	<unknown>
    186a: 0f 04 c6 05                  	<unknown>
    186e: 00 00                        	<unknown>
    1870: 13 83 00 00                  	mv	t1, ra
    1874: 00 13                        	<unknown>
    1876: 06 00                        	<unknown>
    1878: 00 14                        	<unknown>
    187a: 5a 04                        	<unknown>
    187c: 00 00                        	<unknown>
    187e: 14 fd                        	<unknown>
    1880: 00 00                        	<unknown>
    1882: 00 14                        	<unknown>
    1884: 83 00 00 00                  	lb	ra, 0(zero)
    1888: 14 1d                        	<unknown>
    188a: 00 00                        	<unknown>
    188c: 00 00                        	<unknown>
    188e: 0f 04 f5 05                  	<unknown>
    1892: 00 00                        	<unknown>
    1894: 13 1d 00 00                  	slli	s10, zero, 0
    1898: 00 2d                        	<unknown>
    189a: 06 00                        	<unknown>
    189c: 00 14                        	<unknown>
    189e: 5a 04                        	<unknown>
    18a0: 00 00                        	<unknown>
    18a2: 14 fd                        	<unknown>
    18a4: 00 00                        	<unknown>
    18a6: 00 00                        	<unknown>
    18a8: 0f 04 19 06                  	<unknown>
    18ac: 00 00                        	<unknown>
    18ae: 08 40                        	<unknown>
    18b0: 00 00                        	<unknown>
    18b2: 00 43                        	<unknown>
    18b4: 06 00                        	<unknown>
    18b6: 00 09                        	<unknown>
    18b8: 24 00                        	<unknown>
    18ba: 00 00                        	<unknown>
    18bc: 02 00                        	<unknown>
    18be: 08 40                        	<unknown>
    18c0: 00 00                        	<unknown>
    18c2: 00 53                        	<unknown>
    18c4: 06 00                        	<unknown>
    18c6: 00 09                        	<unknown>
    18c8: 24 00                        	<unknown>
    18ca: 00 00                        	<unknown>
    18cc: 00 00                        	<unknown>
    18ce: 04 70                        	<unknown>
    18d0: 01 00                        	<unknown>
    18d2: 00 03                        	<unknown>
    18d4: 24 01                        	<unknown>
    18d6: 1a f9                        	<unknown>
    18d8: 02 00                        	<unknown>
    18da: 00 19                        	<unknown>
    18dc: 05 07                        	<unknown>
    18de: 00 00                        	<unknown>
    18e0: 0c 03                        	<unknown>
    18e2: 28 01                        	<unknown>
    18e4: 08 99                        	<unknown>
    18e6: 06 00                        	<unknown>
    18e8: 00 17                        	<unknown>
    18ea: d4 07                        	<unknown>
    18ec: 00 00                        	<unknown>
    18ee: 03 2a 01 11                  	lw	s4, 272(sp)
    18f2: 99 06                        	<unknown>
    18f4: 00 00                        	<unknown>
    18f6: 00 17                        	<unknown>
    18f8: c3 02 00 00                  	<unknown>
    18fc: 03 2b 01 07                  	lw	s6, 112(sp)
    1900: 1d 00                        	<unknown>
    1902: 00 00                        	<unknown>
    1904: 04 17                        	<unknown>
    1906: dc 04                        	<unknown>
    1908: 00 00                        	<unknown>
    190a: 03 2c 01 0b                  	lw	s8, 176(sp)
    190e: 9f 06 00 00                  	<unknown>
    1912: 08 00                        	<unknown>
    1914: 0f 04 60 06                  	<unknown>
    1918: 00 00                        	<unknown>
    191a: 0f 04 53 06                  	<unknown>
    191e: 00 00                        	<unknown>
    1920: 19 22                        	<unknown>
    1922: 00 00                        	<unknown>
    1924: 00 0e                        	<unknown>
    1926: 03 44 01 08                  	lbu	s0, 128(sp)
    192a: de 06                        	<unknown>
    192c: 00 00                        	<unknown>
    192e: 17 6f 06 00                  	auipc	t5, 102
    1932: 00 03                        	<unknown>
    1934: 45 01                        	<unknown>
    1936: 12 de                        	<unknown>
    1938: 06 00                        	<unknown>
    193a: 00 00                        	<unknown>
    193c: 17 63 03 00                  	auipc	t1, 54
    1940: 00 03                        	<unknown>
    1942: 46 01                        	<unknown>
    1944: 12 de                        	<unknown>
    1946: 06 00                        	<unknown>
    1948: 00 06                        	<unknown>
    194a: 17 b6 06 00                  	auipc	a2, 107
    194e: 00 03                        	<unknown>
    1950: 47 01 12 4e                  	<unknown>
    1954: 00 00                        	<unknown>
    1956: 00 0c                        	<unknown>
    1958: 00 08                        	<unknown>
    195a: 4e 00                        	<unknown>
    195c: 00 00                        	<unknown>
    195e: ee 06                        	<unknown>
    1960: 00 00                        	<unknown>
    1962: 09 24                        	<unknown>
    1964: 00 00                        	<unknown>
    1966: 00 02                        	<unknown>
    1968: 00 1a                        	<unknown>
    196a: d0 03                        	<unknown>
    196c: 85 02                        	<unknown>
    196e: 07 03 08 00                  	<unknown>
    1972: 00 17                        	<unknown>
    1974: 9f 03 00 00                  	<unknown>
    1978: 03 87 02 18                  	lb	a4, 384(t0)
    197c: 24 00                        	<unknown>
    197e: 00 00                        	<unknown>
    1980: 00 17                        	<unknown>
    1982: 8b 06 00 00                  	<unknown>
    1986: 03 88 02 12                  	lb	a6, 288(t0)
    198a: ae 05                        	<unknown>
    198c: 00 00                        	<unknown>
    198e: 04 17                        	<unknown>
    1990: 1c 03                        	<unknown>
    1992: 00 00                        	<unknown>
    1994: 03 89 02 10                  	lb	s2, 256(t0)
    1998: 03 08 00 00                  	lb	a6, 0(zero)
    199c: 08 17                        	<unknown>
    199e: 61 07                        	<unknown>
    19a0: 00 00                        	<unknown>
    19a2: 03 8a 02 17                  	lb	s4, 368(t0)
    19a6: 93 01 00 00                  	mv	gp, zero
    19aa: 24 17                        	<unknown>
    19ac: 4e 02                        	<unknown>
    19ae: 00 00                        	<unknown>
    19b0: 03 8b 02 0f                  	lb	s6, 240(t0)
    19b4: 1d 00                        	<unknown>
    19b6: 00 00                        	<unknown>
    19b8: 48 17                        	<unknown>
    19ba: cf 07 00 00                  	<unknown>
    19be: 03 8c 02 2c                  	lb	s8, 704(t0)
    19c2: 63 00 00 00                  	beqz	zero, 0
    19c6: 50 17                        	<unknown>
    19c8: 79 07                        	<unknown>
    19ca: 00 00                        	<unknown>
    19cc: 03 8d 02 1a                  	lb	s10, 416(t0)
    19d0: a5 06                        	<unknown>
    19d2: 00 00                        	<unknown>
    19d4: 58 17                        	<unknown>
    19d6: cd 05                        	<unknown>
    19d8: 00 00                        	<unknown>
    19da: 03 8e 02 16                  	lb	t3, 352(t0)
    19de: f1 00                        	<unknown>
    19e0: 00 00                        	<unknown>
    19e2: 68 17                        	<unknown>
    19e4: 99 07                        	<unknown>
    19e6: 00 00                        	<unknown>
    19e8: 03 8f 02 16                  	lb	t5, 352(t0)
    19ec: f1 00                        	<unknown>
    19ee: 00 00                        	<unknown>
    19f0: 70 17                        	<unknown>
    19f2: 1e 01                        	<unknown>
    19f4: 00 00                        	<unknown>
    19f6: 03 90 02 16                  	lh	zero, 352(t0)
    19fa: f1 00                        	<unknown>
    19fc: 00 00                        	<unknown>
    19fe: 78 17                        	<unknown>
    1a00: 1b 07 00 00                  	<unknown>
    1a04: 03 91 02 10                  	lh	sp, 256(t0)
    1a08: 13 08 00 00                  	mv	a6, zero
    1a0c: 80 17                        	<unknown>
    1a0e: 10 03                        	<unknown>
    1a10: 00 00                        	<unknown>
    1a12: 03 92 02 10                  	lh	tp, 256(t0)
    1a16: 23 08 00 00                  	sb	zero, 16(zero)
    1a1a: 88 17                        	<unknown>
    1a1c: 4e 00                        	<unknown>
    1a1e: 00 00                        	<unknown>
    1a20: 03 93 02 0f                  	lh	t1, 240(t0)
    1a24: 1d 00                        	<unknown>
    1a26: 00 00                        	<unknown>
    1a28: a0 17                        	<unknown>
    1a2a: c7 01 00 00                  	<unknown>
    1a2e: 03 94 02 16                  	lh	s0, 352(t0)
    1a32: f1 00                        	<unknown>
    1a34: 00 00                        	<unknown>
    1a36: a4 17                        	<unknown>
    1a38: e1 00                        	<unknown>
    1a3a: 00 00                        	<unknown>
    1a3c: 03 95 02 16                  	lh	a0, 352(t0)
    1a40: f1 00                        	<unknown>
    1a42: 00 00                        	<unknown>
    1a44: ac 17                        	<unknown>
    1a46: b6 01                        	<unknown>
    1a48: 00 00                        	<unknown>
    1a4a: 03 96 02 16                  	lh	a2, 352(t0)
    1a4e: f1 00                        	<unknown>
    1a50: 00 00                        	<unknown>
    1a52: b4 17                        	<unknown>
    1a54: 61 00                        	<unknown>
    1a56: 00 00                        	<unknown>
    1a58: 03 97 02 16                  	lh	a4, 352(t0)
    1a5c: f1 00                        	<unknown>
    1a5e: 00 00                        	<unknown>
    1a60: bc 17                        	<unknown>
    1a62: 8d 00                        	<unknown>
    1a64: 00 00                        	<unknown>
    1a66: 03 98 02 16                  	lh	a6, 352(t0)
    1a6a: f1 00                        	<unknown>
    1a6c: 00 00                        	<unknown>
    1a6e: c4 17                        	<unknown>
    1a70: c2 04                        	<unknown>
    1a72: 00 00                        	<unknown>
    1a74: 03 99 02 08                  	lh	s2, 128(t0)
    1a78: 1d 00                        	<unknown>
    1a7a: 00 00                        	<unknown>
    1a7c: cc 00                        	<unknown>
    1a7e: 08 b4                        	<unknown>
    1a80: 05 00                        	<unknown>
    1a82: 00 13                        	<unknown>
    1a84: 08 00                        	<unknown>
    1a86: 00 09                        	<unknown>
    1a88: 24 00                        	<unknown>
    1a8a: 00 00                        	<unknown>
    1a8c: 19 00                        	<unknown>
    1a8e: 08 b4                        	<unknown>
    1a90: 05 00                        	<unknown>
    1a92: 00 23                        	<unknown>
    1a94: 08 00                        	<unknown>
    1a96: 00 09                        	<unknown>
    1a98: 24 00                        	<unknown>
    1a9a: 00 00                        	<unknown>
    1a9c: 07 00 08 b4                  	<unknown>
    1aa0: 05 00                        	<unknown>
    1aa2: 00 33                        	<unknown>
    1aa4: 08 00                        	<unknown>
    1aa6: 00 09                        	<unknown>
    1aa8: 24 00                        	<unknown>
    1aaa: 00 00                        	<unknown>
    1aac: 17 00 1a f0                  	auipc	zero, 983456
    1ab0: 03 9e 02 07                  	lh	t3, 112(t0)
    1ab4: 5a 08                        	<unknown>
    1ab6: 00 00                        	<unknown>
    1ab8: 17 37 03 00                  	auipc	a4, 51
    1abc: 00 03                        	<unknown>
    1abe: a1 02                        	<unknown>
    1ac0: 1b 5a 08 00                  	<unknown>
    1ac4: 00 00                        	<unknown>
    1ac6: 17 5d 02 00                  	auipc	s10, 37
    1aca: 00 03                        	<unknown>
    1acc: a2 02                        	<unknown>
    1ace: 18 6a                        	<unknown>
    1ad0: 08 00                        	<unknown>
    1ad2: 00 78                        	<unknown>
    1ad4: 00 08                        	<unknown>
    1ad6: f3 02 00 00                  	<unknown>
    1ada: 6a 08                        	<unknown>
    1adc: 00 00                        	<unknown>
    1ade: 09 24                        	<unknown>
    1ae0: 00 00                        	<unknown>
    1ae2: 00 1d                        	<unknown>
    1ae4: 00 08                        	<unknown>
    1ae6: 24 00                        	<unknown>
    1ae8: 00 00                        	<unknown>
    1aea: 7a 08                        	<unknown>
    1aec: 00 00                        	<unknown>
    1aee: 09 24                        	<unknown>
    1af0: 00 00                        	<unknown>
    1af2: 00 1d                        	<unknown>
    1af4: 00 1b                        	<unknown>
    1af6: f0 03                        	<unknown>
    1af8: 83 02 03 9f                  	lb	t0, -1552(t1)
    1afc: 08 00                        	<unknown>
    1afe: 00 1c                        	<unknown>
    1b00: fe 05                        	<unknown>
    1b02: 00 00                        	<unknown>
    1b04: 03 9a 02 0b                  	lh	s4, 176(t0)
    1b08: ee 06                        	<unknown>
    1b0a: 00 00                        	<unknown>
    1b0c: 1c 44                        	<unknown>
    1b0e: 07 00 00 03                  	<unknown>
    1b12: a3 02 0b 33                  	sb	a6, 805(s6)
    1b16: 08 00                        	<unknown>
    1b18: 00 00                        	<unknown>
    1b1a: 08 b4                        	<unknown>
    1b1c: 05 00                        	<unknown>
    1b1e: 00 af                        	<unknown>
    1b20: 08 00                        	<unknown>
    1b22: 00 09                        	<unknown>
    1b24: 24 00                        	<unknown>
    1b26: 00 00                        	<unknown>
    1b28: 18 00                        	<unknown>
    1b2a: 1d d6                        	<unknown>
    1b2c: 00 00                        	<unknown>
    1b2e: 00 0f                        	<unknown>
    1b30: 04 af                        	<unknown>
    1b32: 08 00                        	<unknown>
    1b34: 00 1e                        	<unknown>
    1b36: c5 08                        	<unknown>
    1b38: 00 00                        	<unknown>
    1b3a: 14 5a                        	<unknown>
    1b3c: 04 00                        	<unknown>
    1b3e: 00 00                        	<unknown>
    1b40: 0f 04 ba 08                  	<unknown>
    1b44: 00 00                        	<unknown>
    1b46: 0f 04 7d 01                  	<unknown>
    1b4a: 00 00                        	<unknown>
    1b4c: 1e dc                        	<unknown>
    1b4e: 08 00                        	<unknown>
    1b50: 00 14                        	<unknown>
    1b52: 1d 00                        	<unknown>
    1b54: 00 00                        	<unknown>
    1b56: 00 0f                        	<unknown>
    1b58: 04 e2                        	<unknown>
    1b5a: 08 00                        	<unknown>
    1b5c: 00 0f                        	<unknown>
    1b5e: 04 d1                        	<unknown>
    1b60: 08 00                        	<unknown>
    1b62: 00 08                        	<unknown>
    1b64: 53 06 00 00                  	<unknown>
    1b68: f8 08                        	<unknown>
    1b6a: 00 00                        	<unknown>
    1b6c: 09 24                        	<unknown>
    1b6e: 00 00                        	<unknown>
    1b70: 00 02                        	<unknown>
    1b72: 00 1f                        	<unknown>
    1b74: df 06 00 00                  	<unknown>
    1b78: 03 33 03 17                  	<unknown>
    1b7c: 5a 04                        	<unknown>
    1b7e: 00 00                        	<unknown>
    1b80: 1f d8 06 00                  	<unknown>
    1b84: 00 03                        	<unknown>
    1b86: 34 03                        	<unknown>
    1b88: 1d 60                        	<unknown>
    1b8a: 04 00                        	<unknown>
    1b8c: 00 08                        	<unknown>
    1b8e: ea 05                        	<unknown>
    1b90: 00 00                        	<unknown>
    1b92: 1d 09                        	<unknown>
    1b94: 00 00                        	<unknown>
    1b96: 20 00                        	<unknown>
    1b98: 15 12                        	<unknown>
    1b9a: 09 00                        	<unknown>
    1b9c: 00 21                        	<unknown>
    1b9e: a1 01                        	<unknown>
    1ba0: 00 00                        	<unknown>
    1ba2: 05 14                        	<unknown>
    1ba4: 24 1d                        	<unknown>
    1ba6: 09 00                        	<unknown>
    1ba8: 00 21                        	<unknown>
    1baa: c3 05 00 00                  	<unknown>
    1bae: 05 15                        	<unknown>
    1bb0: 15 1d                        	<unknown>
    1bb2: 00 00                        	<unknown>
    1bb4: 00 0f                        	<unknown>
    1bb6: 04 40                        	<unknown>
    1bb8: 09 00                        	<unknown>
    1bba: 00 13                        	<unknown>
    1bbc: 1d 00                        	<unknown>
    1bbe: 00 00                        	<unknown>
    1bc0: 54 09                        	<unknown>
    1bc2: 00 00                        	<unknown>
    1bc4: 14 54                        	<unknown>
    1bc6: 09 00                        	<unknown>
    1bc8: 00 14                        	<unknown>
    1bca: 54 09                        	<unknown>
    1bcc: 00 00                        	<unknown>
    1bce: 00 0f                        	<unknown>
    1bd0: 04 5a                        	<unknown>
    1bd2: 09 00                        	<unknown>
    1bd4: 00 22                        	<unknown>
    1bd6: 21 10                        	<unknown>
    1bd8: 04 00                        	<unknown>
    1bda: 00 06                        	<unknown>
    1bdc: 67 0e ae 05                  	jalr	t3, 90(t3)
    1be0: 00 00                        	<unknown>
    1be2: 21 3e                        	<unknown>
    1be4: 03 00 00 07                  	lb	zero, 112(zero)
    1be8: 10 0f                        	<unknown>
    1bea: 73 09 00 00                  	<unknown>
    1bee: 0f 04 ae 05                  	<unknown>
    1bf2: 00 00                        	<unknown>
    1bf4: 21 13                        	<unknown>
    1bf6: 04 00                        	<unknown>
    1bf8: 00 07                        	<unknown>
    1bfa: fc 0e                        	<unknown>
    1bfc: ae 05                        	<unknown>
    1bfe: 00 00                        	<unknown>
    1c00: 21 b1                        	<unknown>
    1c02: 00 00                        	<unknown>
    1c04: 00 07                        	<unknown>
    1c06: fd 0c                        	<unknown>
    1c08: 1d 00                        	<unknown>
    1c0a: 00 00                        	<unknown>
    1c0c: 21 75                        	<unknown>
    1c0e: 06 00                        	<unknown>
    1c10: 00 07                        	<unknown>
    1c12: fd 14                        	<unknown>
    1c14: 1d 00                        	<unknown>
    1c16: 00 00                        	<unknown>
    1c18: 21 88                        	<unknown>
    1c1a: 07 00 00 07                  	<unknown>
    1c1e: fd 1c                        	<unknown>
    1c20: 1d 00                        	<unknown>
    1c22: 00 00                        	<unknown>
    1c24: 21 7d                        	<unknown>
    1c26: 03 00 00 07                  	lb	zero, 112(zero)
    1c2a: ff 0c 1d 00                  	<unknown>
    1c2e: 00 00                        	<unknown>
    1c30: 21 40                        	<unknown>
    1c32: 04 00                        	<unknown>
    1c34: 00 08                        	<unknown>
    1c36: 9a 16                        	<unknown>
    1c38: 55 00                        	<unknown>
    1c3a: 00 00                        	<unknown>
    1c3c: 21 35                        	<unknown>
    1c3e: 00 00                        	<unknown>
    1c40: 00 08                        	<unknown>
    1c42: 9b 15 1d 00                  	<unknown>
    1c46: 00 00                        	<unknown>
    1c48: 08 ae                        	<unknown>
    1c4a: 05 00                        	<unknown>
    1c4c: 00 dd                        	<unknown>
    1c4e: 09 00                        	<unknown>
    1c50: 00 09                        	<unknown>
    1c52: 24 00                        	<unknown>
    1c54: 00 00                        	<unknown>
    1c56: 01 00                        	<unknown>
    1c58: 21 f0                        	<unknown>
    1c5a: 00 00                        	<unknown>
    1c5c: 00 08                        	<unknown>
    1c5e: 9e 17                        	<unknown>
    1c60: cd 09                        	<unknown>
    1c62: 00 00                        	<unknown>
    1c64: 05 b1                        	<unknown>
    1c66: 02 00                        	<unknown>
    1c68: 00 09                        	<unknown>
    1c6a: 2a 16                        	<unknown>
    1c6c: 24 00                        	<unknown>
    1c6e: 00 00                        	<unknown>
    1c70: 05 b1                        	<unknown>
    1c72: 05 00                        	<unknown>
    1c74: 00 09                        	<unknown>
    1c76: 2f 15 01 0a                  	<unknown>
    1c7a: 00 00                        	<unknown>
    1c7c: 0f 04 07 0a                  	<unknown>
    1c80: 00 00                        	<unknown>
    1c82: 13 e9 09 00                  	ori	s2, s3, 0
    1c86: 00 16                        	<unknown>
    1c88: 0a 00                        	<unknown>
    1c8a: 00 14                        	<unknown>
    1c8c: 54 09                        	<unknown>
    1c8e: 00 00                        	<unknown>
    1c90: 00 05                        	<unknown>
    1c92: da 07                        	<unknown>
    1c94: 00 00                        	<unknown>
    1c96: 09 36                        	<unknown>
    1c98: 0f 3a 09 00                  	<unknown>
    1c9c: 00 21                        	<unknown>
    1c9e: 0a 00                        	<unknown>
    1ca0: 00 00                        	<unknown>
    1ca2: 09 bb                        	<unknown>
    1ca4: 12 f5                        	<unknown>
    1ca6: 09 00                        	<unknown>
    1ca8: 00 21                        	<unknown>
    1caa: c3 06 00 00                  	<unknown>
    1cae: 09 be                        	<unknown>
    1cb0: 10 16                        	<unknown>
    1cb2: 0a 00                        	<unknown>
    1cb4: 00 23                        	<unknown>
    1cb6: 84 02                        	<unknown>
    1cb8: 00 00                        	<unknown>
    1cba: 07 04 24 00                  	<unknown>
    1cbe: 00 00                        	<unknown>
    1cc0: 0a 18                        	<unknown>
    1cc2: 06 77                        	<unknown>
    1cc4: 0a 00                        	<unknown>
    1cc6: 00 24                        	<unknown>
    1cc8: 9d 04                        	<unknown>
    1cca: 00 00                        	<unknown>
    1ccc: 00 24                        	<unknown>
    1cce: 58 03                        	<unknown>
    1cd0: 00 00                        	<unknown>
    1cd2: 01 24                        	<unknown>
    1cd4: d8 03                        	<unknown>
    1cd6: 00 00                        	<unknown>
    1cd8: 02 24                        	<unknown>
    1cda: ac 03                        	<unknown>
    1cdc: 00 00                        	<unknown>
    1cde: 03 24 94 04                  	lw	s0, 73(s0)
    1ce2: 00 00                        	<unknown>
    1ce4: 04 24                        	<unknown>
    1ce6: 8f 07 00 00                  	<unknown>
    1cea: 05 24                        	<unknown>
    1cec: 7e 07                        	<unknown>
    1cee: 00 00                        	<unknown>
    1cf0: 06 00                        	<unknown>
    1cf2: 21 cc                        	<unknown>
    1cf4: 00 00                        	<unknown>
    1cf6: 00 0a                        	<unknown>
    1cf8: 21 1c                        	<unknown>
    1cfa: 3a 0a                        	<unknown>
    1cfc: 00 00                        	<unknown>
    1cfe: 23 b7 03 00                  	<unknown>
    1d02: 00 07                        	<unknown>
    1d04: 04 24                        	<unknown>
    1d06: 00 00                        	<unknown>
    1d08: 00 0a                        	<unknown>
    1d0a: 23 06 a8 0a                  	sb	a0, 172(a6)
    1d0e: 00 00                        	<unknown>
    1d10: 24 a7                        	<unknown>
    1d12: 05 00                        	<unknown>
    1d14: 00 00                        	<unknown>
    1d16: 24 b3                        	<unknown>
    1d18: 04 00                        	<unknown>
    1d1a: 00 01                        	<unknown>
    1d1c: 24 98                        	<unknown>
    1d1e: 06 00                        	<unknown>
    1d20: 00 02                        	<unknown>
    1d22: 00 21                        	<unknown>
    1d24: 4f 01 00 00                  	<unknown>
    1d28: 0a 28                        	<unknown>
    1d2a: 1e 83                        	<unknown>
    1d2c: 0a 00                        	<unknown>
    1d2e: 00 23                        	<unknown>
    1d30: 70 00                        	<unknown>
    1d32: 00 00                        	<unknown>
    1d34: 07 04 24 00                  	<unknown>
    1d38: 00 00                        	<unknown>
    1d3a: 0a 2b                        	<unknown>
    1d3c: 06 d3                        	<unknown>
    1d3e: 0a 00                        	<unknown>
    1d40: 00 24                        	<unknown>
    1d42: 41 06                        	<unknown>
    1d44: 00 00                        	<unknown>
    1d46: 00 24                        	<unknown>
    1d48: 2f 06 00 00                  	<unknown>
    1d4c: 01 00                        	<unknown>
    1d4e: 21 89                        	<unknown>
    1d50: 01 00                        	<unknown>
    1d52: 00 0a                        	<unknown>
    1d54: 2f 2a b4 0a                  	<unknown>
    1d58: 00 00                        	<unknown>
    1d5a: 21 6e                        	<unknown>
    1d5c: 03 00 00 0b                  	lb	zero, 176(zero)
    1d60: 29 1a                        	<unknown>
    1d62: 1d 09                        	<unknown>
    1d64: 00 00                        	<unknown>
    1d66: 21 5f                        	<unknown>
    1d68: 06 00                        	<unknown>
    1d6a: 00 0b                        	<unknown>
    1d6c: 38 1a                        	<unknown>
    1d6e: 1d 09                        	<unknown>
    1d70: 00 00                        	<unknown>
    1d72: 05 b6                        	<unknown>
    1d74: 07 00 00 0c                  	<unknown>
    1d78: 7b 16 40 00                  	<unknown>
    1d7c: 00 00                        	<unknown>
    1d7e: 15 f7                        	<unknown>
    1d80: 0a 00                        	<unknown>
    1d82: 00 03                        	<unknown>
    1d84: 04 04                        	<unknown>
    1d86: eb 03 00 00                  	<unknown>
    1d8a: 03 08 03 e3                  	lb	a6, -464(t1)
    1d8e: 03 00 00 03                  	lb	zero, 48(zero)
    1d92: 08 04                        	<unknown>
    1d94: c5 00                        	<unknown>
    1d96: 00 00                        	<unknown>
    1d98: 03 10 03 3f                  	lh	zero, 1008(t1)
    1d9c: 00 00                        	<unknown>
    1d9e: 00 03                        	<unknown>
    1da0: 20 03                        	<unknown>
    1da2: b8 00                        	<unknown>
    1da4: 00 00                        	<unknown>
    1da6: 08 03                        	<unknown>
    1da8: 0b 00 00 3b                  	<unknown>
    1dac: 0b 00 00 09                  	<unknown>
    1db0: 24 00                        	<unknown>
    1db2: 00 00                        	<unknown>
    1db4: ff 00 15 2b                  	<unknown>
    1db8: 0b 00 00 1f                  	<unknown>
    1dbc: 2f 07 00 00                  	<unknown>
    1dc0: 0c fc                        	<unknown>
    1dc2: 01 16                        	<unknown>
    1dc4: 3b 0b 00 00                  	<unknown>
    1dc8: 1f fd 02 00                  	<unknown>
    1dcc: 00 0c                        	<unknown>
    1dce: 02 02                        	<unknown>
    1dd0: 16 3b                        	<unknown>
    1dd2: 0b 00 00 25                  	<unknown>
    1dd6: 4d 0b                        	<unknown>
    1dd8: 00 00                        	<unknown>
    1dda: 0d b2                        	<unknown>
    1ddc: 02 0f                        	<unknown>
    1dde: 05 03                        	<unknown>
    1de0: 04 18                        	<unknown>
    1de2: 00 80                        	<unknown>
    1de4: 00                           	<unknown>

Disassembly of section .debug_abbrev:

00000000 .debug_abbrev:
       0: 01 11                        	<unknown>
       2: 01 25                        	<unknown>
       4: 0e 13                        	<unknown>
       6: 0b 03 0e 1b                  	<unknown>
       a: 0e 11                        	<unknown>
       c: 01 12                        	<unknown>
       e: 06 10                        	<unknown>
      10: 17 00 00 02                  	auipc	zero, 8192
      14: 24 00                        	<unknown>
      16: 0b 0b 3e 0b                  	<unknown>
      1a: 03 0e 00 00                  	lb	t3, 0(zero)
      1e: 03 24 00 0b                  	lw	s0, 176(zero)
      22: 0b 3e 0b 03                  	<unknown>
      26: 08 00                        	<unknown>
      28: 00 04                        	<unknown>
      2a: 16 00                        	<unknown>
      2c: 03 0e 3a 0b                  	lb	t3, 179(s4)
      30: 3b 05 39 0b                  	<unknown>
      34: 49 13                        	<unknown>
      36: 00 00                        	<unknown>
      38: 05 16                        	<unknown>
      3a: 00 03                        	<unknown>
      3c: 0e 3a                        	<unknown>
      3e: 0b 3b 0b 39                  	<unknown>
      42: 0b 49 13 00                  	<unknown>
      46: 00 06                        	<unknown>
      48: 17 01 0b 0b                  	auipc	sp, 45232
      4c: 3a 0b                        	<unknown>
      4e: 3b 0b 39 0b                  	<unknown>
      52: 01 13                        	<unknown>
      54: 00 00                        	<unknown>
      56: 07 0d 00 03                  	<unknown>
      5a: 0e 3a                        	<unknown>
      5c: 0b 3b 0b 39                  	<unknown>
      60: 0b 49 13 00                  	<unknown>
      64: 00 08                        	<unknown>
      66: 01 01                        	<unknown>
      68: 49 13                        	<unknown>
      6a: 01 13                        	<unknown>
      6c: 00 00                        	<unknown>
      6e: 09 21                        	<unknown>
      70: 00 49                        	<unknown>
      72: 13 2f 0b 00                  	slti	t5, s6, 0
      76: 00 0a                        	<unknown>
      78: 13 01 0b 0b                  	addi	sp, s6, 176
      7c: 3a 0b                        	<unknown>
      7e: 3b 0b 39 0b                  	<unknown>
      82: 01 13                        	<unknown>
      84: 00 00                        	<unknown>
      86: 0b 0d 00 03                  	<unknown>
      8a: 0e 3a                        	<unknown>
      8c: 0b 3b 0b 39                  	<unknown>
      90: 0b 49 13 38                  	<unknown>
      94: 0b 00 00 0c                  	<unknown>
      98: 0f 00 0b 0b                  	<unknown>
      9c: 00 00                        	<unknown>
      9e: 0d 13                        	<unknown>
      a0: 01 03                        	<unknown>
      a2: 0e 0b                        	<unknown>
      a4: 0b 3a 0b 3b                  	<unknown>
      a8: 0b 39 0b 01                  	<unknown>
      ac: 13 00 00 0e                  	addi	zero, zero, 224
      b0: 0d 00                        	<unknown>
      b2: 03 08 3a 0b                  	lb	a6, 179(s4)
      b6: 3b 0b 39 0b                  	<unknown>
      ba: 49 13                        	<unknown>
      bc: 38 0b                        	<unknown>
      be: 00 00                        	<unknown>
      c0: 0f 0f 00 0b                  	<unknown>
      c4: 0b 49 13 00                  	<unknown>
      c8: 00 10                        	<unknown>
      ca: 13 01 03 0e                  	addi	sp, t1, 224
      ce: 0b 05 3a 0b                  	<unknown>
      d2: 3b 0b 39 0b                  	<unknown>
      d6: 01 13                        	<unknown>
      d8: 00 00                        	<unknown>
      da: 11 0d                        	<unknown>
      dc: 00 03                        	<unknown>
      de: 0e 3a                        	<unknown>
      e0: 0b 3b 0b 39                  	<unknown>
      e4: 0b 49 13 38                  	<unknown>
      e8: 05 00                        	<unknown>
      ea: 00 12                        	<unknown>
      ec: 15 00                        	<unknown>
      ee: 27 19 00 00                  	<unknown>
      f2: 13 15 01 27                  	<unknown>
      f6: 19 49                        	<unknown>
      f8: 13 01 13 00                  	addi	sp, t1, 1
      fc: 00 14                        	<unknown>
      fe: 05 00                        	<unknown>
     100: 49 13                        	<unknown>
     102: 00 00                        	<unknown>
     104: 15 26                        	<unknown>
     106: 00 49                        	<unknown>
     108: 13 00 00 16                  	addi	zero, zero, 352
     10c: 13 01 03 0e                  	addi	sp, t1, 224
     110: 0b 05 3a 0b                  	<unknown>
     114: 3b 05 39 0b                  	<unknown>
     118: 01 13                        	<unknown>
     11a: 00 00                        	<unknown>
     11c: 17 0d 00 03                  	auipc	s10, 12288
     120: 0e 3a                        	<unknown>
     122: 0b 3b 05 39                  	<unknown>
     126: 0b 49 13 38                  	<unknown>
     12a: 0b 00 00 18                  	<unknown>
     12e: 0d 00                        	<unknown>
     130: 03 0e 3a 0b                  	lb	t3, 179(s4)
     134: 3b 05 39 0b                  	<unknown>
     138: 49 13                        	<unknown>
     13a: 38 05                        	<unknown>
     13c: 00 00                        	<unknown>
     13e: 19 13                        	<unknown>
     140: 01 03                        	<unknown>
     142: 0e 0b                        	<unknown>
     144: 0b 3a 0b 3b                  	<unknown>
     148: 05 39                        	<unknown>
     14a: 0b 01 13 00                  	<unknown>
     14e: 00 1a                        	<unknown>
     150: 13 01 0b 0b                  	addi	sp, s6, 176
     154: 3a 0b                        	<unknown>
     156: 3b 05 39 0b                  	<unknown>
     15a: 01 13                        	<unknown>
     15c: 00 00                        	<unknown>
     15e: 1b 17 01 0b                  	<unknown>
     162: 0b 3a 0b 3b                  	<unknown>
     166: 05 39                        	<unknown>
     168: 0b 01 13 00                  	<unknown>
     16c: 00 1c                        	<unknown>
     16e: 0d 00                        	<unknown>
     170: 03 0e 3a 0b                  	lb	t3, 179(s4)
     174: 3b 05 39 0b                  	<unknown>
     178: 49 13                        	<unknown>
     17a: 00 00                        	<unknown>
     17c: 1d 13                        	<unknown>
     17e: 00 03                        	<unknown>
     180: 0e 3c                        	<unknown>
     182: 19 00                        	<unknown>
     184: 00 1e                        	<unknown>
     186: 15 01                        	<unknown>
     188: 27 19 01 13                  	<unknown>
     18c: 00 00                        	<unknown>
     18e: 1f 34 00 03                  	<unknown>
     192: 0e 3a                        	<unknown>
     194: 0b 3b 05 39                  	<unknown>
     198: 0b 49 13 3f                  	<unknown>
     19c: 19 3c                        	<unknown>
     19e: 19 00                        	<unknown>
     1a0: 00 20                        	<unknown>
     1a2: 21 00                        	<unknown>
     1a4: 00 00                        	<unknown>
     1a6: 21 34                        	<unknown>
     1a8: 00 03                        	<unknown>
     1aa: 0e 3a                        	<unknown>
     1ac: 0b 3b 0b 39                  	<unknown>
     1b0: 0b 49 13 3f                  	<unknown>
     1b4: 19 3c                        	<unknown>
     1b6: 19 00                        	<unknown>
     1b8: 00 22                        	<unknown>
     1ba: 26 00                        	<unknown>
     1bc: 00 00                        	<unknown>
     1be: 23 04 01 03                  	sb	a6, 40(sp)
     1c2: 0e 3e                        	<unknown>
     1c4: 0b 0b 0b 49                  	<unknown>
     1c8: 13 3a 0b 3b                  	sltiu	s4, s6, 944
     1cc: 0b 39 0b 01                  	<unknown>
     1d0: 13 00 00 24                  	addi	zero, zero, 576
     1d4: 28 00                        	<unknown>
     1d6: 03 0e 1c 0b                  	lb	t3, 177(s8)
     1da: 00 00                        	<unknown>
     1dc: 25 0d                        	<unknown>
     1de: 00 03                        	<unknown>
     1e0: 08 3a                        	<unknown>
     1e2: 0b 3b 05 39                  	<unknown>
     1e6: 0b 49 13 38                  	<unknown>
     1ea: 0b 00 00 26                  	<unknown>
     1ee: 0d 00                        	<unknown>
     1f0: 03 08 3a 0b                  	lb	a6, 179(s4)
     1f4: 3b 05 39 0b                  	<unknown>
     1f8: 49 13                        	<unknown>
     1fa: 00 00                        	<unknown>
     1fc: 27 2e 01 3f                  	<unknown>
     200: 19 03                        	<unknown>
     202: 0e 3a                        	<unknown>
     204: 0b 3b 05 39                  	<unknown>
     208: 0b 27 19 49                  	<unknown>
     20c: 13 11 01 12                  	<unknown>
     210: 06 40                        	<unknown>
     212: 18 97                        	<unknown>
     214: 42 19                        	<unknown>
     216: 01 13                        	<unknown>
     218: 00 00                        	<unknown>
     21a: 28 05                        	<unknown>
     21c: 00 03                        	<unknown>
     21e: 08 3a                        	<unknown>
     220: 0b 3b 05 39                  	<unknown>
     224: 0b 49 13 02                  	<unknown>
     228: 17 00 00 29                  	auipc	zero, 167936
     22c: 34 00                        	<unknown>
     22e: 03 08 3a 0b                  	lb	a6, 179(s4)
     232: 3b 05 39 0b                  	<unknown>
     236: 49 13                        	<unknown>
     238: 02 17                        	<unknown>
     23a: 00 00                        	<unknown>
     23c: 2a 1d                        	<unknown>
     23e: 01 31                        	<unknown>
     240: 13 52 01 55                  	<unknown>
     244: 17 58 0b 59                  	auipc	a6, 364725
     248: 05 57                        	<unknown>
     24a: 0b 00 00 2b                  	<unknown>
     24e: 05 00                        	<unknown>
     250: 31 13                        	<unknown>
     252: 02 17                        	<unknown>
     254: 00 00                        	<unknown>
     256: 2c 05                        	<unknown>
     258: 00 31                        	<unknown>
     25a: 13 00 00 2d                  	addi	zero, zero, 720
     25e: 0b 01 55 17                  	<unknown>
     262: 00 00                        	<unknown>
     264: 2e 34                        	<unknown>
     266: 00 31                        	<unknown>
     268: 13 00 00 2f                  	addi	zero, zero, 752
     26c: 34 00                        	<unknown>
     26e: 31 13                        	<unknown>
     270: 02 17                        	<unknown>
     272: 00 00                        	<unknown>
     274: 30 0b                        	<unknown>
     276: 01 31                        	<unknown>
     278: 13 55 17 01                  	srli	a0, a4, 17
     27c: 13 00 00 31                  	addi	zero, zero, 784
     280: 0b 01 31 13                  	<unknown>
     284: 11 01                        	<unknown>
     286: 12 06                        	<unknown>
     288: 01 13                        	<unknown>
     28a: 00 00                        	<unknown>
     28c: 32 0b                        	<unknown>
     28e: 01 31                        	<unknown>
     290: 13 55 17 00                  	srli	a0, a4, 1
     294: 00 33                        	<unknown>
     296: 2e 01                        	<unknown>
     298: 03 0e 3a 0b                  	lb	t3, 179(s4)
     29c: 3b 05 39 0b                  	<unknown>
     2a0: 27 19 49 13                  	<unknown>
     2a4: 20 0b                        	<unknown>
     2a6: 01 13                        	<unknown>
     2a8: 00 00                        	<unknown>
     2aa: 34 05                        	<unknown>
     2ac: 00 03                        	<unknown>
     2ae: 08 3a                        	<unknown>
     2b0: 0b 3b 05 39                  	<unknown>
     2b4: 0b 49 13 00                  	<unknown>
     2b8: 00 35                        	<unknown>
     2ba: 34 00                        	<unknown>
     2bc: 03 08 3a 0b                  	lb	a6, 179(s4)
     2c0: 3b 05 39 0b                  	<unknown>
     2c4: 49 13                        	<unknown>
     2c6: 00 00                        	<unknown>
     2c8: 36 0b                        	<unknown>
     2ca: 01 01                        	<unknown>
     2cc: 13 00 00 37                  	addi	zero, zero, 880
     2d0: 34 00                        	<unknown>
     2d2: 03 0e 3a 0b                  	lb	t3, 179(s4)
     2d6: 3b 05 39 0b                  	<unknown>
     2da: 49 13                        	<unknown>
     2dc: 00 00                        	<unknown>
     2de: 38 0b                        	<unknown>
     2e0: 01 00                        	<unknown>
     2e2: 00 00                        	<unknown>
     2e4: 01 11                        	<unknown>
     2e6: 01 25                        	<unknown>
     2e8: 0e 13                        	<unknown>
     2ea: 0b 03 0e 1b                  	<unknown>
     2ee: 0e 10                        	<unknown>
     2f0: 17 00 00 02                  	auipc	zero, 8192
     2f4: 24 00                        	<unknown>
     2f6: 0b 0b 3e 0b                  	<unknown>
     2fa: 03 08 00 00                  	lb	a6, 0(zero)
     2fe: 03 24 00 0b                  	lw	s0, 176(zero)
     302: 0b 3e 0b 03                  	<unknown>
     306: 0e 00                        	<unknown>
     308: 00 04                        	<unknown>
     30a: 16 00                        	<unknown>
     30c: 03 0e 3a 0b                  	lb	t3, 179(s4)
     310: 3b 05 39 0b                  	<unknown>
     314: 49 13                        	<unknown>
     316: 00 00                        	<unknown>
     318: 05 16                        	<unknown>
     31a: 00 03                        	<unknown>
     31c: 0e 3a                        	<unknown>
     31e: 0b 3b 0b 39                  	<unknown>
     322: 0b 49 13 00                  	<unknown>
     326: 00 06                        	<unknown>
     328: 17 01 0b 0b                  	auipc	sp, 45232
     32c: 3a 0b                        	<unknown>
     32e: 3b 0b 39 0b                  	<unknown>
     332: 01 13                        	<unknown>
     334: 00 00                        	<unknown>
     336: 07 0d 00 03                  	<unknown>
     33a: 0e 3a                        	<unknown>
     33c: 0b 3b 0b 39                  	<unknown>
     340: 0b 49 13 00                  	<unknown>
     344: 00 08                        	<unknown>
     346: 01 01                        	<unknown>
     348: 49 13                        	<unknown>
     34a: 01 13                        	<unknown>
     34c: 00 00                        	<unknown>
     34e: 09 21                        	<unknown>
     350: 00 49                        	<unknown>
     352: 13 2f 0b 00                  	slti	t5, s6, 0
     356: 00 0a                        	<unknown>
     358: 13 01 0b 0b                  	addi	sp, s6, 176
     35c: 3a 0b                        	<unknown>
     35e: 3b 0b 39 0b                  	<unknown>
     362: 01 13                        	<unknown>
     364: 00 00                        	<unknown>
     366: 0b 0d 00 03                  	<unknown>
     36a: 0e 3a                        	<unknown>
     36c: 0b 3b 0b 39                  	<unknown>
     370: 0b 49 13 38                  	<unknown>
     374: 0b 00 00 0c                  	<unknown>
     378: 0f 00 0b 0b                  	<unknown>
     37c: 00 00                        	<unknown>
     37e: 0d 13                        	<unknown>
     380: 01 03                        	<unknown>
     382: 0e 0b                        	<unknown>
     384: 0b 3a 0b 3b                  	<unknown>
     388: 0b 39 0b 01                  	<unknown>
     38c: 13 00 00 0e                  	addi	zero, zero, 224
     390: 0d 00                        	<unknown>
     392: 03 08 3a 0b                  	lb	a6, 179(s4)
     396: 3b 0b 39 0b                  	<unknown>
     39a: 49 13                        	<unknown>
     39c: 38 0b                        	<unknown>
     39e: 00 00                        	<unknown>
     3a0: 0f 0f 00 0b                  	<unknown>
     3a4: 0b 49 13 00                  	<unknown>
     3a8: 00 10                        	<unknown>
     3aa: 13 01 03 0e                  	addi	sp, t1, 224
     3ae: 0b 05 3a 0b                  	<unknown>
     3b2: 3b 0b 39 0b                  	<unknown>
     3b6: 01 13                        	<unknown>
     3b8: 00 00                        	<unknown>
     3ba: 11 0d                        	<unknown>
     3bc: 00 03                        	<unknown>
     3be: 0e 3a                        	<unknown>
     3c0: 0b 3b 0b 39                  	<unknown>
     3c4: 0b 49 13 38                  	<unknown>
     3c8: 05 00                        	<unknown>
     3ca: 00 12                        	<unknown>
     3cc: 15 00                        	<unknown>
     3ce: 27 19 00 00                  	<unknown>
     3d2: 13 15 01 27                  	<unknown>
     3d6: 19 49                        	<unknown>
     3d8: 13 01 13 00                  	addi	sp, t1, 1
     3dc: 00 14                        	<unknown>
     3de: 05 00                        	<unknown>
     3e0: 49 13                        	<unknown>
     3e2: 00 00                        	<unknown>
     3e4: 15 26                        	<unknown>
     3e6: 00 49                        	<unknown>
     3e8: 13 00 00 16                  	addi	zero, zero, 352
     3ec: 13 01 03 0e                  	addi	sp, t1, 224
     3f0: 0b 05 3a 0b                  	<unknown>
     3f4: 3b 05 39 0b                  	<unknown>
     3f8: 01 13                        	<unknown>
     3fa: 00 00                        	<unknown>
     3fc: 17 0d 00 03                  	auipc	s10, 12288
     400: 0e 3a                        	<unknown>
     402: 0b 3b 05 39                  	<unknown>
     406: 0b 49 13 38                  	<unknown>
     40a: 0b 00 00 18                  	<unknown>
     40e: 0d 00                        	<unknown>
     410: 03 0e 3a 0b                  	lb	t3, 179(s4)
     414: 3b 05 39 0b                  	<unknown>
     418: 49 13                        	<unknown>
     41a: 38 05                        	<unknown>
     41c: 00 00                        	<unknown>
     41e: 19 13                        	<unknown>
     420: 01 03                        	<unknown>
     422: 0e 0b                        	<unknown>
     424: 0b 3a 0b 3b                  	<unknown>
     428: 05 39                        	<unknown>
     42a: 0b 01 13 00                  	<unknown>
     42e: 00 1a                        	<unknown>
     430: 13 01 0b 0b                  	addi	sp, s6, 176
     434: 3a 0b                        	<unknown>
     436: 3b 05 39 0b                  	<unknown>
     43a: 01 13                        	<unknown>
     43c: 00 00                        	<unknown>
     43e: 1b 17 01 0b                  	<unknown>
     442: 0b 3a 0b 3b                  	<unknown>
     446: 05 39                        	<unknown>
     448: 0b 01 13 00                  	<unknown>
     44c: 00 1c                        	<unknown>
     44e: 0d 00                        	<unknown>
     450: 03 0e 3a 0b                  	lb	t3, 179(s4)
     454: 3b 05 39 0b                  	<unknown>
     458: 49 13                        	<unknown>
     45a: 00 00                        	<unknown>
     45c: 1d 13                        	<unknown>
     45e: 00 03                        	<unknown>
     460: 0e 3c                        	<unknown>
     462: 19 00                        	<unknown>
     464: 00 1e                        	<unknown>
     466: 15 01                        	<unknown>
     468: 27 19 01 13                  	<unknown>
     46c: 00 00                        	<unknown>
     46e: 1f 34 00 03                  	<unknown>
     472: 0e 3a                        	<unknown>
     474: 0b 3b 05 39                  	<unknown>
     478: 0b 49 13 3f                  	<unknown>
     47c: 19 3c                        	<unknown>
     47e: 19 00                        	<unknown>
     480: 00 20                        	<unknown>
     482: 21 00                        	<unknown>
     484: 00 00                        	<unknown>
     486: 21 34                        	<unknown>
     488: 00 03                        	<unknown>
     48a: 0e 3a                        	<unknown>
     48c: 0b 3b 0b 39                  	<unknown>
     490: 0b 49 13 3f                  	<unknown>
     494: 19 3c                        	<unknown>
     496: 19 00                        	<unknown>
     498: 00 22                        	<unknown>
     49a: 26 00                        	<unknown>
     49c: 00 00                        	<unknown>
     49e: 23 04 01 03                  	sb	a6, 40(sp)
     4a2: 0e 3e                        	<unknown>
     4a4: 0b 0b 0b 49                  	<unknown>
     4a8: 13 3a 0b 3b                  	sltiu	s4, s6, 944
     4ac: 0b 39 0b 01                  	<unknown>
     4b0: 13 00 00 24                  	addi	zero, zero, 576
     4b4: 28 00                        	<unknown>
     4b6: 03 0e 1c 0b                  	lb	t3, 177(s8)
     4ba: 00 00                        	<unknown>
     4bc: 25 34                        	<unknown>
     4be: 00 47                        	<unknown>
     4c0: 13 3a 0b 3b                  	sltiu	s4, s6, 944
     4c4: 05 39                        	<unknown>
     4c6: 0b 02 18 00                  	<unknown>
     4ca: 00 00                        	<unknown>

Disassembly of section .debug_line:

00000000 .debug_line:
       0: ce 09                        	<unknown>
       2: 00 00                        	<unknown>
       4: 03 00 1b 02                  	lb	zero, 33(s6)
       8: 00 00                        	<unknown>
       a: 01 01                        	<unknown>
       c: fb 0e 0d 00                  	<unknown>
      10: 01 01                        	<unknown>
      12: 01 01                        	<unknown>
      14: 00 00                        	<unknown>
      16: 00 01                        	<unknown>
      18: 00 00                        	<unknown>
      1a: 01 2e                        	<unknown>
      1c: 2e 2f                        	<unknown>
      1e: 2e 2e                        	<unknown>
      20: 2f 2e 2e 2f                  	<unknown>
      24: 2e 2e                        	<unknown>
      26: 2f 72 69 73                  	<unknown>
      2a: 63 76 2d 67                  	bgeu	s10, s2, 1644
      2e: 63 63 2f 6c                  	bltu	t5, sp, 1734
      32: 69 62                        	<unknown>
      34: 67 63 63 00                  	<unknown>
      38: 2f 68 6f 6d                  	<unknown>
      3c: 65 2f                        	<unknown>
      3e: 62 6c                        	<unknown>
      40: 61 69                        	<unknown>
      42: 73 65 2f 64                  	csrrsi	a0, 1602, 30
      46: 65 76                        	<unknown>
      48: 2f 72 69 73                  	<unknown>
      4c: 63 76 2d 67                  	bgeu	s10, s2, 1644
      50: 6e 75                        	<unknown>
      52: 2d 74                        	<unknown>
      54: 6f 6f 6c 63                  	jal	t5, 812598
      58: 68 61                        	<unknown>
      5a: 69 6e                        	<unknown>
      5c: 2f 62 75 69                  	<unknown>
      60: 6c 64                        	<unknown>
      62: 2f 62 75 69                  	<unknown>
      66: 6c 64                        	<unknown>
      68: 2d 67                        	<unknown>
      6a: 63 63 2d 6e                  	bltu	s10, sp, 1766
      6e: 65 77                        	<unknown>
      70: 6c 69                        	<unknown>
      72: 62 2d                        	<unknown>
      74: 73 74 61 67                  	csrrci	s0, 1654, 2
      78: 65 32                        	<unknown>
      7a: 2f 67 63 63                  	<unknown>
      7e: 2f 69 6e 63                  	<unknown>
      82: 6c 75                        	<unknown>
      84: 64 65                        	<unknown>
      86: 00 2f                        	<unknown>
      88: 68 6f                        	<unknown>
      8a: 6d 65                        	<unknown>
      8c: 2f 62 6c 61                  	<unknown>
      90: 69 73                        	<unknown>
      92: 65 2f                        	<unknown>
      94: 64 65                        	<unknown>
      96: 76 2f                        	<unknown>
      98: 72 69                        	<unknown>
      9a: 73 63 76 2d                  	csrrsi	t1, 727, 12
      9e: 67 6e 75 2d                  	<unknown>
      a2: 74 6f                        	<unknown>
      a4: 6f 6c 63 68                  	jal	s8, 222854
      a8: 61 69                        	<unknown>
      aa: 6e 2f                        	<unknown>
      ac: 64 72                        	<unknown>
      ae: 6f 70 73 2f                  	j	228086
      b2: 72 69                        	<unknown>
      b4: 73 63 76 33                  	csrrsi	t1, mhpmevent23, 12
      b8: 32 2d                        	<unknown>
      ba: 75 6e                        	<unknown>
      bc: 6b 6e 6f 77                  	<unknown>
      c0: 6e 2d                        	<unknown>
      c2: 65 6c                        	<unknown>
      c4: 66 2f                        	<unknown>
      c6: 69 6e                        	<unknown>
      c8: 63 6c 75 64                  	bltu	a0, t2, 1624
      cc: 65 2f                        	<unknown>
      ce: 73 79 73 00                  	csrrci	s2, 7, 6
      d2: 2f 68 6f 6d                  	<unknown>
      d6: 65 2f                        	<unknown>
      d8: 62 6c                        	<unknown>
      da: 61 69                        	<unknown>
      dc: 73 65 2f 64                  	csrrsi	a0, 1602, 30
      e0: 65 76                        	<unknown>
      e2: 2f 72 69 73                  	<unknown>
      e6: 63 76 2d 67                  	bgeu	s10, s2, 1644
      ea: 6e 75                        	<unknown>
      ec: 2d 74                        	<unknown>
      ee: 6f 6f 6c 63                  	jal	t5, 812598
      f2: 68 61                        	<unknown>
      f4: 69 6e                        	<unknown>
      f6: 2f 64 72 6f                  	<unknown>
      fa: 70 73                        	<unknown>
      fc: 2f 72 69 73                  	<unknown>
     100: 63 76 33 32                  	bgeu	t1, gp, 812
     104: 2d 75                        	<unknown>
     106: 6e 6b                        	<unknown>
     108: 6e 6f                        	<unknown>
     10a: 77 6e 2d 65                  	<unknown>
     10e: 6c 66                        	<unknown>
     110: 2f 69 6e 63                  	<unknown>
     114: 6c 75                        	<unknown>
     116: 64 65                        	<unknown>
     118: 00 2e                        	<unknown>
     11a: 2e 2f                        	<unknown>
     11c: 2e 2e                        	<unknown>
     11e: 2f 2e 2e 2f                  	<unknown>
     122: 2e 2e                        	<unknown>
     124: 2f 72 69 73                  	<unknown>
     128: 63 76 2d 67                  	bgeu	s10, s2, 1644
     12c: 63 63 2f 6c                  	bltu	t5, sp, 1734
     130: 69 62                        	<unknown>
     132: 67 63 63 2f                  	<unknown>
     136: 2e 2e                        	<unknown>
     138: 2f 69 6e 63                  	<unknown>
     13c: 6c 75                        	<unknown>
     13e: 64 65                        	<unknown>
     140: 00 2e                        	<unknown>
     142: 2e 2f                        	<unknown>
     144: 2e 2e                        	<unknown>
     146: 2f 2e 2e 2f                  	<unknown>
     14a: 2e 2e                        	<unknown>
     14c: 2f 72 69 73                  	<unknown>
     150: 63 76 2d 67                  	bgeu	s10, s2, 1644
     154: 63 63 2f 6c                  	bltu	t5, sp, 1734
     158: 69 62                        	<unknown>
     15a: 67 63 63 2f                  	<unknown>
     15e: 2e 2e                        	<unknown>
     160: 2f 67 63 63                  	<unknown>
     164: 2f 63 6f 6e                  	<unknown>
     168: 66 69                        	<unknown>
     16a: 67 2f 72 69                  	<unknown>
     16e: 73 63 76 00                  	csrrsi	t1, 7, 12
     172: 2e 2e                        	<unknown>
     174: 2f 2e 2e 2f                  	<unknown>
     178: 2e 2f                        	<unknown>
     17a: 67 63 63 00                  	<unknown>
     17e: 00 6c                        	<unknown>
     180: 69 62                        	<unknown>
     182: 67 63 63 32                  	<unknown>
     186: 2e 63                        	<unknown>
     188: 00 01                        	<unknown>
     18a: 00 00                        	<unknown>
     18c: 73 74 64 64                  	csrrci	s0, 1606, 8
     190: 65 66                        	<unknown>
     192: 2e 68                        	<unknown>
     194: 00 02                        	<unknown>
     196: 00 00                        	<unknown>
     198: 5f 74 79 70                  	<unknown>
     19c: 65 73                        	<unknown>
     19e: 2e 68                        	<unknown>
     1a0: 00 03                        	<unknown>
     1a2: 00 00                        	<unknown>
     1a4: 72 65                        	<unknown>
     1a6: 65 6e                        	<unknown>
     1a8: 74 2e                        	<unknown>
     1aa: 68 00                        	<unknown>
     1ac: 03 00 00 6c                  	lb	zero, 1728(zero)
     1b0: 6f 63 6b 2e                  	jal	t1, 746214
     1b4: 68 00                        	<unknown>
     1b6: 03 00 00 65                  	lb	zero, 1616(zero)
     1ba: 72 72                        	<unknown>
     1bc: 6e 6f                        	<unknown>
     1be: 2e 68                        	<unknown>
     1c0: 00 03                        	<unknown>
     1c2: 00 00                        	<unknown>
     1c4: 73 74 64 6c                  	csrrci	s0, 1734, 8
     1c8: 69 62                        	<unknown>
     1ca: 2e 68                        	<unknown>
     1cc: 00 04                        	<unknown>
     1ce: 00 00                        	<unknown>
     1d0: 75 6e                        	<unknown>
     1d2: 69 73                        	<unknown>
     1d4: 74 64                        	<unknown>
     1d6: 2e 68                        	<unknown>
     1d8: 00 03                        	<unknown>
     1da: 00 00                        	<unknown>
     1dc: 74 69                        	<unknown>
     1de: 6d 65                        	<unknown>
     1e0: 2e 68                        	<unknown>
     1e2: 00 04                        	<unknown>
     1e4: 00 00                        	<unknown>
     1e6: 68 61                        	<unknown>
     1e8: 73 68 74 61                  	csrrsi	a6, 1559, 8
     1ec: 62 2e                        	<unknown>
     1ee: 68 00                        	<unknown>
     1f0: 05 00                        	<unknown>
     1f2: 00 72                        	<unknown>
     1f4: 69 73                        	<unknown>
     1f6: 63 76 2d 6f                  	bgeu	s10, s2, 1772
     1fa: 70 74                        	<unknown>
     1fc: 73 2e 68 00                  	csrrs	t3, 6, a6
     200: 06 00                        	<unknown>
     202: 00 69                        	<unknown>
     204: 6e 73                        	<unknown>
     206: 6e 2d                        	<unknown>
     208: 63 6f 6e 73                  	bltu	t3, s6, 1854
     20c: 74 61                        	<unknown>
     20e: 6e 74                        	<unknown>
     210: 73 2e 68 00                  	csrrs	t3, 6, a6
     214: 07 00 00 6c                  	<unknown>
     218: 69 62                        	<unknown>
     21a: 67 63 63 32                  	<unknown>
     21e: 2e 68                        	<unknown>
     220: 00 01                        	<unknown>
     222: 00 00                        	<unknown>
     224: 00 05                        	<unknown>
     226: 01 00                        	<unknown>
     228: 05 02                        	<unknown>
     22a: 84 13                        	<unknown>
     22c: 00 80                        	<unknown>
     22e: 03 cf 09 01                  	lbu	t5, 16(s3)
     232: 06 03                        	<unknown>
     234: 00 09                        	<unknown>
     236: 00 00                        	<unknown>
     238: 01 05                        	<unknown>
     23a: 03 06 03 01                  	lb	a2, 16(t1)
     23e: 09 04                        	<unknown>
     240: 00 01                        	<unknown>
     242: 03 01 09 00                  	lb	sp, 0(s2)
     246: 00 01                        	<unknown>
     248: 03 01 09 00                  	lb	sp, 0(s2)
     24c: 00 01                        	<unknown>
     24e: 03 01 09 00                  	lb	sp, 0(s2)
     252: 00 01                        	<unknown>
     254: 03 02 09 00                  	lb	tp, 0(s2)
     258: 00 01                        	<unknown>
     25a: 05 09                        	<unknown>
     25c: 06 03                        	<unknown>
     25e: 7b 09 00 00                  	<unknown>
     262: 01 05                        	<unknown>
     264: 06 03                        	<unknown>
     266: 05 09                        	<unknown>
     268: 04 00                        	<unknown>
     26a: 01 05                        	<unknown>
     26c: 05 06                        	<unknown>
     26e: 03 01 09 04                  	lb	sp, 64(s2)
     272: 00 01                        	<unknown>
     274: 05 0d                        	<unknown>
     276: 06 03                        	<unknown>
     278: 01 09                        	<unknown>
     27a: 00 00                        	<unknown>
     27c: 01 05                        	<unknown>
     27e: 07 03 7f 09                  	<unknown>
     282: 10 00                        	<unknown>
     284: 01 05                        	<unknown>
     286: 03 06 03 02                  	lb	a2, 32(t1)
     28a: 09 04                        	<unknown>
     28c: 00 01                        	<unknown>
     28e: 05 06                        	<unknown>
     290: 06 03                        	<unknown>
     292: 00 09                        	<unknown>
     294: 00 00                        	<unknown>
     296: 01 05                        	<unknown>
     298: 05 06                        	<unknown>
     29a: 03 01 09 04                  	lb	sp, 64(s2)
     29e: 00 01                        	<unknown>
     2a0: 05 0d                        	<unknown>
     2a2: 06 03                        	<unknown>
     2a4: 01 09                        	<unknown>
     2a6: 00 00                        	<unknown>
     2a8: 01 05                        	<unknown>
     2aa: 07 03 7f 09                  	<unknown>
     2ae: 08 00                        	<unknown>
     2b0: 01 05                        	<unknown>
     2b2: 0d 03                        	<unknown>
     2b4: 01 09                        	<unknown>
     2b6: 04 00                        	<unknown>
     2b8: 01 05                        	<unknown>
     2ba: 03 06 03 02                  	lb	a2, 32(t1)
     2be: 09 08                        	<unknown>
     2c0: 00 01                        	<unknown>
     2c2: 03 9c 7e 09                  	lh	s8, 151(t4)
     2c6: 00 00                        	<unknown>
     2c8: 01 03                        	<unknown>
     2ca: 01 09                        	<unknown>
     2cc: 00 00                        	<unknown>
     2ce: 01 03                        	<unknown>
     2d0: 01 09                        	<unknown>
     2d2: 00 00                        	<unknown>
     2d4: 01 03                        	<unknown>
     2d6: 01 09                        	<unknown>
     2d8: 00 00                        	<unknown>
     2da: 01 03                        	<unknown>
     2dc: 01 09                        	<unknown>
     2de: 00 00                        	<unknown>
     2e0: 01 03                        	<unknown>
     2e2: 01 09                        	<unknown>
     2e4: 00 00                        	<unknown>
     2e6: 01 03                        	<unknown>
     2e8: 02 09                        	<unknown>
     2ea: 00 00                        	<unknown>
     2ec: 01 05                        	<unknown>
     2ee: 06 06                        	<unknown>
     2f0: 03 00 09 00                  	lb	zero, 0(s2)
     2f4: 00 01                        	<unknown>
     2f6: 05 03                        	<unknown>
     2f8: 06 03                        	<unknown>
     2fa: 01 09                        	<unknown>
     2fc: 04 00                        	<unknown>
     2fe: 01 05                        	<unknown>
     300: 06 06                        	<unknown>
     302: 03 00 09 00                  	lb	zero, 0(s2)
     306: 00 01                        	<unknown>
     308: 05 03                        	<unknown>
     30a: 06 03                        	<unknown>
     30c: 01 09                        	<unknown>
     30e: 04 00                        	<unknown>
     310: 01 05                        	<unknown>
     312: 06 06                        	<unknown>
     314: 03 00 09 00                  	lb	zero, 0(s2)
     318: 00 01                        	<unknown>
     31a: 05 03                        	<unknown>
     31c: 06 03                        	<unknown>
     31e: 01 09                        	<unknown>
     320: 04 00                        	<unknown>
     322: 01 05                        	<unknown>
     324: 06 06                        	<unknown>
     326: 03 00 09 00                  	lb	zero, 0(s2)
     32a: 00 01                        	<unknown>
     32c: 05 03                        	<unknown>
     32e: 06 03                        	<unknown>
     330: 25 09                        	<unknown>
     332: 04 00                        	<unknown>
     334: 01 05                        	<unknown>
     336: 06 06                        	<unknown>
     338: 03 00 09 00                  	lb	zero, 0(s2)
     33c: 00 01                        	<unknown>
     33e: 05 07                        	<unknown>
     340: 06 03                        	<unknown>
     342: 02 09                        	<unknown>
     344: 04 00                        	<unknown>
     346: 01 05                        	<unknown>
     348: 0a 06                        	<unknown>
     34a: 03 00 09 08                  	lb	zero, 128(s2)
     34e: 00 01                        	<unknown>
     350: 05 04                        	<unknown>
     352: 06 03                        	<unknown>
     354: 04 09                        	<unknown>
     356: 04 00                        	<unknown>
     358: 01 03                        	<unknown>
     35a: 00 09                        	<unknown>
     35c: 00 00                        	<unknown>
     35e: 01 03                        	<unknown>
     360: 00 09                        	<unknown>
     362: 00 00                        	<unknown>
     364: 01 03                        	<unknown>
     366: 00 09                        	<unknown>
     368: 00 00                        	<unknown>
     36a: 01 03                        	<unknown>
     36c: 00 09                        	<unknown>
     36e: 00 00                        	<unknown>
     370: 01 03                        	<unknown>
     372: 00 09                        	<unknown>
     374: 14 00                        	<unknown>
     376: 01 03                        	<unknown>
     378: 00 09                        	<unknown>
     37a: 18 00                        	<unknown>
     37c: 01 03                        	<unknown>
     37e: 02 09                        	<unknown>
     380: 00 00                        	<unknown>
     382: 01 05                        	<unknown>
     384: 07 06 03 00                  	<unknown>
     388: 09 00                        	<unknown>
     38a: 00 01                        	<unknown>
     38c: 05 08                        	<unknown>
     38e: 06 03                        	<unknown>
     390: 05 09                        	<unknown>
     392: 04 00                        	<unknown>
     394: 01 05                        	<unknown>
     396: 11 06                        	<unknown>
     398: 03 01 09 00                  	lb	sp, 0(s2)
     39c: 00 01                        	<unknown>
     39e: 05 1e                        	<unknown>
     3a0: 03 00 09 04                  	lb	zero, 64(s2)
     3a4: 00 01                        	<unknown>
     3a6: 05 0b                        	<unknown>
     3a8: 03 7f 09 04                  	<unknown>
     3ac: 00 01                        	<unknown>
     3ae: 05 08                        	<unknown>
     3b0: 06 03                        	<unknown>
     3b2: 01 09                        	<unknown>
     3b4: 04 00                        	<unknown>
     3b6: 01 05                        	<unknown>
     3b8: 0b 06 03 00                  	<unknown>
     3bc: 09 00                        	<unknown>
     3be: 00 01                        	<unknown>
     3c0: 05 08                        	<unknown>
     3c2: 06 03                        	<unknown>
     3c4: 01 09                        	<unknown>
     3c6: 04 00                        	<unknown>
     3c8: 01 05                        	<unknown>
     3ca: 0b 06 03 00                  	<unknown>
     3ce: 09 00                        	<unknown>
     3d0: 00 01                        	<unknown>
     3d2: 05 04                        	<unknown>
     3d4: 06 03                        	<unknown>
     3d6: 03 09 04 00                  	lb	s2, 0(s0)
     3da: 01 03                        	<unknown>
     3dc: 00 09                        	<unknown>
     3de: 00 00                        	<unknown>
     3e0: 01 03                        	<unknown>
     3e2: 00 09                        	<unknown>
     3e4: 00 00                        	<unknown>
     3e6: 01 03                        	<unknown>
     3e8: 00 09                        	<unknown>
     3ea: 00 00                        	<unknown>
     3ec: 01 03                        	<unknown>
     3ee: 00 09                        	<unknown>
     3f0: 04 00                        	<unknown>
     3f2: 01 03                        	<unknown>
     3f4: 00 09                        	<unknown>
     3f6: 0c 00                        	<unknown>
     3f8: 01 03                        	<unknown>
     3fa: 00 09                        	<unknown>
     3fc: 08 00                        	<unknown>
     3fe: 01 03                        	<unknown>
     400: 00 09                        	<unknown>
     402: 00 00                        	<unknown>
     404: 01 03                        	<unknown>
     406: 00 09                        	<unknown>
     408: 08 00                        	<unknown>
     40a: 01 03                        	<unknown>
     40c: 00 09                        	<unknown>
     40e: 08 00                        	<unknown>
     410: 01 03                        	<unknown>
     412: 00 09                        	<unknown>
     414: 04 00                        	<unknown>
     416: 01 03                        	<unknown>
     418: 00 09                        	<unknown>
     41a: 08 00                        	<unknown>
     41c: 01 03                        	<unknown>
     41e: 00 09                        	<unknown>
     420: 04 00                        	<unknown>
     422: 01 03                        	<unknown>
     424: 00 09                        	<unknown>
     426: 04 00                        	<unknown>
     428: 01 03                        	<unknown>
     42a: 00 09                        	<unknown>
     42c: 08 00                        	<unknown>
     42e: 01 03                        	<unknown>
     430: 00 09                        	<unknown>
     432: 04 00                        	<unknown>
     434: 01 03                        	<unknown>
     436: 00 09                        	<unknown>
     438: 04 00                        	<unknown>
     43a: 01 03                        	<unknown>
     43c: 00 09                        	<unknown>
     43e: 0c 00                        	<unknown>
     440: 01 03                        	<unknown>
     442: 00 09                        	<unknown>
     444: 0c 00                        	<unknown>
     446: 01 03                        	<unknown>
     448: 00 09                        	<unknown>
     44a: 00 00                        	<unknown>
     44c: 01 03                        	<unknown>
     44e: 00 09                        	<unknown>
     450: 08 00                        	<unknown>
     452: 01 03                        	<unknown>
     454: 00 09                        	<unknown>
     456: 08 00                        	<unknown>
     458: 01 03                        	<unknown>
     45a: 00 09                        	<unknown>
     45c: 04 00                        	<unknown>
     45e: 01 03                        	<unknown>
     460: 00 09                        	<unknown>
     462: 04 00                        	<unknown>
     464: 01 03                        	<unknown>
     466: 00 09                        	<unknown>
     468: 04 00                        	<unknown>
     46a: 01 03                        	<unknown>
     46c: 00 09                        	<unknown>
     46e: 00 00                        	<unknown>
     470: 01 03                        	<unknown>
     472: 00 09                        	<unknown>
     474: 08 00                        	<unknown>
     476: 01 03                        	<unknown>
     478: 00 09                        	<unknown>
     47a: 00 00                        	<unknown>
     47c: 01 03                        	<unknown>
     47e: 01 09                        	<unknown>
     480: 00 00                        	<unknown>
     482: 01 05                        	<unknown>
     484: 0b 06 03 fe                  	<unknown>
     488: 00 09                        	<unknown>
     48a: 00 00                        	<unknown>
     48c: 01 05                        	<unknown>
     48e: 04 03                        	<unknown>
     490: f5 7e                        	<unknown>
     492: 09 08                        	<unknown>
     494: 00 01                        	<unknown>
     496: 06 03                        	<unknown>
     498: 15 09                        	<unknown>
     49a: 14 00                        	<unknown>
     49c: 01 05                        	<unknown>
     49e: 07 06 03 00                  	<unknown>
     4a2: 09 00                        	<unknown>
     4a4: 00 01                        	<unknown>
     4a6: 05 06                        	<unknown>
     4a8: 06 03                        	<unknown>
     4aa: 01 09                        	<unknown>
     4ac: 04 00                        	<unknown>
     4ae: 01 05                        	<unknown>
     4b0: 09 06                        	<unknown>
     4b2: 03 00 09 00                  	lb	zero, 0(s2)
     4b6: 00 01                        	<unknown>
     4b8: 05 04                        	<unknown>
     4ba: 06 03                        	<unknown>
     4bc: 02 09                        	<unknown>
     4be: 08 00                        	<unknown>
     4c0: 01 03                        	<unknown>
     4c2: 00 09                        	<unknown>
     4c4: 00 00                        	<unknown>
     4c6: 01 03                        	<unknown>
     4c8: 00 09                        	<unknown>
     4ca: 00 00                        	<unknown>
     4cc: 01 03                        	<unknown>
     4ce: 00 09                        	<unknown>
     4d0: 00 00                        	<unknown>
     4d2: 01 03                        	<unknown>
     4d4: 00 09                        	<unknown>
     4d6: 00 00                        	<unknown>
     4d8: 01 03                        	<unknown>
     4da: 00 09                        	<unknown>
     4dc: 14 00                        	<unknown>
     4de: 01 03                        	<unknown>
     4e0: 00 09                        	<unknown>
     4e2: 18 00                        	<unknown>
     4e4: 01 03                        	<unknown>
     4e6: 02 09                        	<unknown>
     4e8: 00 00                        	<unknown>
     4ea: 01 05                        	<unknown>
     4ec: 07 06 03 00                  	<unknown>
     4f0: 09 00                        	<unknown>
     4f2: 00 01                        	<unknown>
     4f4: 05 08                        	<unknown>
     4f6: 06 03                        	<unknown>
     4f8: 09 09                        	<unknown>
     4fa: 04 00                        	<unknown>
     4fc: 01 05                        	<unknown>
     4fe: 0b 06 03 00                  	<unknown>
     502: 09 00                        	<unknown>
     504: 00 01                        	<unknown>
     506: 05 08                        	<unknown>
     508: 06 03                        	<unknown>
     50a: 01 09                        	<unknown>
     50c: 04 00                        	<unknown>
     50e: 01 05                        	<unknown>
     510: 0b 06 03 00                  	<unknown>
     514: 09 00                        	<unknown>
     516: 00 01                        	<unknown>
     518: 05 08                        	<unknown>
     51a: 06 03                        	<unknown>
     51c: 0d 09                        	<unknown>
     51e: 04 00                        	<unknown>
     520: 01 05                        	<unknown>
     522: 04 03                        	<unknown>
     524: 05 09                        	<unknown>
     526: 00 00                        	<unknown>
     528: 01 03                        	<unknown>
     52a: 00 09                        	<unknown>
     52c: 00 00                        	<unknown>
     52e: 01 03                        	<unknown>
     530: 00 09                        	<unknown>
     532: 00 00                        	<unknown>
     534: 01 03                        	<unknown>
     536: 00 09                        	<unknown>
     538: 00 00                        	<unknown>
     53a: 01 03                        	<unknown>
     53c: 00 09                        	<unknown>
     53e: 04 00                        	<unknown>
     540: 01 03                        	<unknown>
     542: 00 09                        	<unknown>
     544: 08 00                        	<unknown>
     546: 01 03                        	<unknown>
     548: 00 09                        	<unknown>
     54a: 0c 00                        	<unknown>
     54c: 01 03                        	<unknown>
     54e: 00 09                        	<unknown>
     550: 00 00                        	<unknown>
     552: 01 03                        	<unknown>
     554: 00 09                        	<unknown>
     556: 04 00                        	<unknown>
     558: 01 03                        	<unknown>
     55a: 00 09                        	<unknown>
     55c: 08 00                        	<unknown>
     55e: 01 03                        	<unknown>
     560: 00 09                        	<unknown>
     562: 08 00                        	<unknown>
     564: 01 03                        	<unknown>
     566: 00 09                        	<unknown>
     568: 08 00                        	<unknown>
     56a: 01 03                        	<unknown>
     56c: 00 09                        	<unknown>
     56e: 04 00                        	<unknown>
     570: 01 03                        	<unknown>
     572: 00 09                        	<unknown>
     574: 04 00                        	<unknown>
     576: 01 03                        	<unknown>
     578: 00 09                        	<unknown>
     57a: 08 00                        	<unknown>
     57c: 01 03                        	<unknown>
     57e: 00 09                        	<unknown>
     580: 04 00                        	<unknown>
     582: 01 03                        	<unknown>
     584: 00 09                        	<unknown>
     586: 04 00                        	<unknown>
     588: 01 03                        	<unknown>
     58a: 00 09                        	<unknown>
     58c: 0c 00                        	<unknown>
     58e: 01 03                        	<unknown>
     590: 00 09                        	<unknown>
     592: 0c 00                        	<unknown>
     594: 01 03                        	<unknown>
     596: 00 09                        	<unknown>
     598: 00 00                        	<unknown>
     59a: 01 03                        	<unknown>
     59c: 00 09                        	<unknown>
     59e: 08 00                        	<unknown>
     5a0: 01 03                        	<unknown>
     5a2: 00 09                        	<unknown>
     5a4: 08 00                        	<unknown>
     5a6: 01 03                        	<unknown>
     5a8: 00 09                        	<unknown>
     5aa: 04 00                        	<unknown>
     5ac: 01 03                        	<unknown>
     5ae: 00 09                        	<unknown>
     5b0: 04 00                        	<unknown>
     5b2: 01 03                        	<unknown>
     5b4: 00 09                        	<unknown>
     5b6: 04 00                        	<unknown>
     5b8: 01 03                        	<unknown>
     5ba: 00 09                        	<unknown>
     5bc: 00 00                        	<unknown>
     5be: 01 03                        	<unknown>
     5c0: 00 09                        	<unknown>
     5c2: 08 00                        	<unknown>
     5c4: 01 05                        	<unknown>
     5c6: 03 03 e3 00                  	lb	t1, 14(t1)
     5ca: 09 00                        	<unknown>
     5cc: 00 01                        	<unknown>
     5ce: 03 01 09 00                  	lb	sp, 0(s2)
     5d2: 00 01                        	<unknown>
     5d4: 05 0c                        	<unknown>
     5d6: 06 03                        	<unknown>
     5d8: 00 09                        	<unknown>
     5da: 00 00                        	<unknown>
     5dc: 01 05                        	<unknown>
     5de: 03 06 03 16                  	lb	a2, 352(t1)
     5e2: 09 04                        	<unknown>
     5e4: 00 01                        	<unknown>
     5e6: 05 06                        	<unknown>
     5e8: 06 03                        	<unknown>
     5ea: 00 09                        	<unknown>
     5ec: 00 00                        	<unknown>
     5ee: 01 05                        	<unknown>
     5f0: 05 06                        	<unknown>
     5f2: 03 01 09 04                  	lb	sp, 64(s2)
     5f6: 00 01                        	<unknown>
     5f8: 05 07                        	<unknown>
     5fa: 06 03                        	<unknown>
     5fc: 00 09                        	<unknown>
     5fe: 00 00                        	<unknown>
     600: 01 05                        	<unknown>
     602: 03 06 03 02                  	lb	a2, 32(t1)
     606: 09 10                        	<unknown>
     608: 00 01                        	<unknown>
     60a: 05 01                        	<unknown>
     60c: 06 03                        	<unknown>
     60e: 01 09                        	<unknown>
     610: 00 00                        	<unknown>
     612: 01 05                        	<unknown>
     614: 04 03                        	<unknown>
     616: e4 7e                        	<unknown>
     618: 09 04                        	<unknown>
     61a: 00 01                        	<unknown>
     61c: 05 08                        	<unknown>
     61e: 06 03                        	<unknown>
     620: 12 09                        	<unknown>
     622: 14 00                        	<unknown>
     624: 01 03                        	<unknown>
     626: 02 09                        	<unknown>
     628: 00 00                        	<unknown>
     62a: 01 05                        	<unknown>
     62c: 0b 06 03 00                  	<unknown>
     630: 09 00                        	<unknown>
     632: 00 01                        	<unknown>
     634: 05 08                        	<unknown>
     636: 06 03                        	<unknown>
     638: 01 09                        	<unknown>
     63a: 04 00                        	<unknown>
     63c: 01 05                        	<unknown>
     63e: 0b 06 03 00                  	<unknown>
     642: 09 00                        	<unknown>
     644: 00 01                        	<unknown>
     646: 05 08                        	<unknown>
     648: 06 03                        	<unknown>
     64a: 01 09                        	<unknown>
     64c: 04 00                        	<unknown>
     64e: 01 05                        	<unknown>
     650: 0b 06 03 01                  	<unknown>
     654: 09 00                        	<unknown>
     656: 00 01                        	<unknown>
     658: 05 11                        	<unknown>
     65a: 03 7f 09 04                  	<unknown>
     65e: 00 01                        	<unknown>
     660: 05 1e                        	<unknown>
     662: 03 00 09 04                  	lb	zero, 64(s2)
     666: 00 01                        	<unknown>
     668: 05 08                        	<unknown>
     66a: 03 03 09 04                  	lb	t1, 64(s2)
     66e: 00 01                        	<unknown>
     670: 05 0b                        	<unknown>
     672: 03 7d 09 04                  	<unknown>
     676: 00 01                        	<unknown>
     678: 05 08                        	<unknown>
     67a: 06 03                        	<unknown>
     67c: 01 09                        	<unknown>
     67e: 04 00                        	<unknown>
     680: 01 03                        	<unknown>
     682: 02 09                        	<unknown>
     684: 00 00                        	<unknown>
     686: 01 03                        	<unknown>
     688: 00 09                        	<unknown>
     68a: 00 00                        	<unknown>
     68c: 01 03                        	<unknown>
     68e: 00 09                        	<unknown>
     690: 00 00                        	<unknown>
     692: 01 03                        	<unknown>
     694: 00 09                        	<unknown>
     696: 00 00                        	<unknown>
     698: 01 03                        	<unknown>
     69a: 00 09                        	<unknown>
     69c: 00 00                        	<unknown>
     69e: 01 03                        	<unknown>
     6a0: 00 09                        	<unknown>
     6a2: 0c 00                        	<unknown>
     6a4: 01 03                        	<unknown>
     6a6: 00 09                        	<unknown>
     6a8: 04 00                        	<unknown>
     6aa: 01 03                        	<unknown>
     6ac: 00 09                        	<unknown>
     6ae: 00 00                        	<unknown>
     6b0: 01 03                        	<unknown>
     6b2: 00 09                        	<unknown>
     6b4: 0c 00                        	<unknown>
     6b6: 01 03                        	<unknown>
     6b8: 00 09                        	<unknown>
     6ba: 08 00                        	<unknown>
     6bc: 01 03                        	<unknown>
     6be: 00 09                        	<unknown>
     6c0: 04 00                        	<unknown>
     6c2: 01 03                        	<unknown>
     6c4: 00 09                        	<unknown>
     6c6: 08 00                        	<unknown>
     6c8: 01 03                        	<unknown>
     6ca: 00 09                        	<unknown>
     6cc: 04 00                        	<unknown>
     6ce: 01 03                        	<unknown>
     6d0: 00 09                        	<unknown>
     6d2: 04 00                        	<unknown>
     6d4: 01 03                        	<unknown>
     6d6: 00 09                        	<unknown>
     6d8: 08 00                        	<unknown>
     6da: 01 03                        	<unknown>
     6dc: 00 09                        	<unknown>
     6de: 04 00                        	<unknown>
     6e0: 01 03                        	<unknown>
     6e2: 00 09                        	<unknown>
     6e4: 04 00                        	<unknown>
     6e6: 01 03                        	<unknown>
     6e8: 00 09                        	<unknown>
     6ea: 0c 00                        	<unknown>
     6ec: 01 03                        	<unknown>
     6ee: 00 09                        	<unknown>
     6f0: 08 00                        	<unknown>
     6f2: 01 03                        	<unknown>
     6f4: 00 09                        	<unknown>
     6f6: 04 00                        	<unknown>
     6f8: 01 03                        	<unknown>
     6fa: 00 09                        	<unknown>
     6fc: 08 00                        	<unknown>
     6fe: 01 03                        	<unknown>
     700: 00 09                        	<unknown>
     702: 08 00                        	<unknown>
     704: 01 03                        	<unknown>
     706: 00 09                        	<unknown>
     708: 04 00                        	<unknown>
     70a: 01 03                        	<unknown>
     70c: 00 09                        	<unknown>
     70e: 04 00                        	<unknown>
     710: 01 03                        	<unknown>
     712: 00 09                        	<unknown>
     714: 08 00                        	<unknown>
     716: 01 03                        	<unknown>
     718: 00 09                        	<unknown>
     71a: 08 00                        	<unknown>
     71c: 01 03                        	<unknown>
     71e: 00 09                        	<unknown>
     720: 04 00                        	<unknown>
     722: 01 05                        	<unknown>
     724: 07 03 15 09                  	<unknown>
     728: 04 00                        	<unknown>
     72a: 01 05                        	<unknown>
     72c: 0a 06                        	<unknown>
     72e: 03 00 09 00                  	lb	zero, 0(s2)
     732: 00 01                        	<unknown>
     734: 05 04                        	<unknown>
     736: 06 03                        	<unknown>
     738: 13 09 04 00                  	mv	s2, s0
     73c: 01 03                        	<unknown>
     73e: 00 09                        	<unknown>
     740: 00 00                        	<unknown>
     742: 01 03                        	<unknown>
     744: 00 09                        	<unknown>
     746: 00 00                        	<unknown>
     748: 01 03                        	<unknown>
     74a: 00 09                        	<unknown>
     74c: 00 00                        	<unknown>
     74e: 01 03                        	<unknown>
     750: 00 09                        	<unknown>
     752: 00 00                        	<unknown>
     754: 01 03                        	<unknown>
     756: 00 09                        	<unknown>
     758: 14 00                        	<unknown>
     75a: 01 03                        	<unknown>
     75c: 00 09                        	<unknown>
     75e: 20 00                        	<unknown>
     760: 01 03                        	<unknown>
     762: 01 09                        	<unknown>
     764: 00 00                        	<unknown>
     766: 01 05                        	<unknown>
     768: 07 06 03 00                  	<unknown>
     76c: 09 00                        	<unknown>
     76e: 00 01                        	<unknown>
     770: 05 08                        	<unknown>
     772: 06 03                        	<unknown>
     774: 0a 09                        	<unknown>
     776: 04 00                        	<unknown>
     778: 01 06                        	<unknown>
     77a: 03 02 09 00                  	lb	tp, 0(s2)
     77e: 00 01                        	<unknown>
     780: 05 0b                        	<unknown>
     782: 03 7e 09 04                  	<unknown>
     786: 00 01                        	<unknown>
     788: 05 14                        	<unknown>
     78a: 03 00 09 04                  	lb	zero, 64(s2)
     78e: 00 01                        	<unknown>
     790: 05 04                        	<unknown>
     792: 03 75 09 0c                  	<unknown>
     796: 00 01                        	<unknown>
     798: 05 08                        	<unknown>
     79a: 06 03                        	<unknown>
     79c: 1e 09                        	<unknown>
     79e: 14 00                        	<unknown>
     7a0: 01 03                        	<unknown>
     7a2: 03 09 00 00                  	lb	s2, 0(zero)
     7a6: 01 03                        	<unknown>
     7a8: 02 09                        	<unknown>
     7aa: 00 00                        	<unknown>
     7ac: 01 05                        	<unknown>
     7ae: 1e 06                        	<unknown>
     7b0: 03 00 09 00                  	lb	zero, 0(s2)
     7b4: 00 01                        	<unknown>
     7b6: 05 11                        	<unknown>
     7b8: 03 00 09 04                  	lb	zero, 64(s2)
     7bc: 00 01                        	<unknown>
     7be: 05 0b                        	<unknown>
     7c0: 03 00 09 04                  	lb	zero, 64(s2)
     7c4: 00 01                        	<unknown>
     7c6: 05 08                        	<unknown>
     7c8: 06 03                        	<unknown>
     7ca: 01 09                        	<unknown>
     7cc: 04 00                        	<unknown>
     7ce: 01 05                        	<unknown>
     7d0: 0b 06 03 01                  	<unknown>
     7d4: 09 00                        	<unknown>
     7d6: 00 01                        	<unknown>
     7d8: 05 11                        	<unknown>
     7da: 03 01 09 04                  	lb	sp, 64(s2)
     7de: 00 01                        	<unknown>
     7e0: 05 1e                        	<unknown>
     7e2: 03 00 09 04                  	lb	zero, 64(s2)
     7e6: 00 01                        	<unknown>
     7e8: 05 08                        	<unknown>
     7ea: 03 03 09 04                  	lb	t1, 64(s2)
     7ee: 00 01                        	<unknown>
     7f0: 05 0b                        	<unknown>
     7f2: 03 7d 09 04                  	<unknown>
     7f6: 00 01                        	<unknown>
     7f8: 05 08                        	<unknown>
     7fa: 03 03 09 04                  	lb	t1, 64(s2)
     7fe: 00 01                        	<unknown>
     800: 05 0b                        	<unknown>
     802: 03 7b 09 04                  	<unknown>
     806: 00 01                        	<unknown>
     808: 05 08                        	<unknown>
     80a: 06 03                        	<unknown>
     80c: 01 09                        	<unknown>
     80e: 04 00                        	<unknown>
     810: 01 03                        	<unknown>
     812: 01 09                        	<unknown>
     814: 00 00                        	<unknown>
     816: 01 03                        	<unknown>
     818: 01 09                        	<unknown>
     81a: 00 00                        	<unknown>
     81c: 01 03                        	<unknown>
     81e: 02 09                        	<unknown>
     820: 00 00                        	<unknown>
     822: 01 03                        	<unknown>
     824: 00 09                        	<unknown>
     826: 00 00                        	<unknown>
     828: 01 03                        	<unknown>
     82a: 00 09                        	<unknown>
     82c: 00 00                        	<unknown>
     82e: 01 03                        	<unknown>
     830: 00 09                        	<unknown>
     832: 00 00                        	<unknown>
     834: 01 03                        	<unknown>
     836: 00 09                        	<unknown>
     838: 00 00                        	<unknown>
     83a: 01 03                        	<unknown>
     83c: 00 09                        	<unknown>
     83e: 08 00                        	<unknown>
     840: 01 03                        	<unknown>
     842: 00 09                        	<unknown>
     844: 00 00                        	<unknown>
     846: 01 03                        	<unknown>
     848: 00 09                        	<unknown>
     84a: 08 00                        	<unknown>
     84c: 01 03                        	<unknown>
     84e: 00 09                        	<unknown>
     850: 0c 00                        	<unknown>
     852: 01 03                        	<unknown>
     854: 00 09                        	<unknown>
     856: 00 00                        	<unknown>
     858: 01 03                        	<unknown>
     85a: 00 09                        	<unknown>
     85c: 08 00                        	<unknown>
     85e: 01 03                        	<unknown>
     860: 00 09                        	<unknown>
     862: 08 00                        	<unknown>
     864: 01 03                        	<unknown>
     866: 00 09                        	<unknown>
     868: 04 00                        	<unknown>
     86a: 01 03                        	<unknown>
     86c: 00 09                        	<unknown>
     86e: 04 00                        	<unknown>
     870: 01 03                        	<unknown>
     872: 00 09                        	<unknown>
     874: 08 00                        	<unknown>
     876: 01 03                        	<unknown>
     878: 00 09                        	<unknown>
     87a: 04 00                        	<unknown>
     87c: 01 03                        	<unknown>
     87e: 00 09                        	<unknown>
     880: 04 00                        	<unknown>
     882: 01 03                        	<unknown>
     884: 00 09                        	<unknown>
     886: 0c 00                        	<unknown>
     888: 01 03                        	<unknown>
     88a: 00 09                        	<unknown>
     88c: 0c 00                        	<unknown>
     88e: 01 03                        	<unknown>
     890: 00 09                        	<unknown>
     892: 00 00                        	<unknown>
     894: 01 03                        	<unknown>
     896: 00 09                        	<unknown>
     898: 08 00                        	<unknown>
     89a: 01 03                        	<unknown>
     89c: 00 09                        	<unknown>
     89e: 08 00                        	<unknown>
     8a0: 01 03                        	<unknown>
     8a2: 00 09                        	<unknown>
     8a4: 04 00                        	<unknown>
     8a6: 01 03                        	<unknown>
     8a8: 00 09                        	<unknown>
     8aa: 04 00                        	<unknown>
     8ac: 01 03                        	<unknown>
     8ae: 00 09                        	<unknown>
     8b0: 08 00                        	<unknown>
     8b2: 01 06                        	<unknown>
     8b4: 03 01 09 04                  	lb	sp, 64(s2)
     8b8: 00 01                        	<unknown>
     8ba: 03 7f 09 04                  	<unknown>
     8be: 00 01                        	<unknown>
     8c0: 03 01 09 04                  	lb	sp, 64(s2)
     8c4: 00 01                        	<unknown>
     8c6: 03 7f 09 08                  	<unknown>
     8ca: 00 01                        	<unknown>
     8cc: 06 03                        	<unknown>
     8ce: 00 09                        	<unknown>
     8d0: 04 00                        	<unknown>
     8d2: 01 03                        	<unknown>
     8d4: 00 09                        	<unknown>
     8d6: 00 00                        	<unknown>
     8d8: 01 03                        	<unknown>
     8da: 00 09                        	<unknown>
     8dc: 00 00                        	<unknown>
     8de: 01 03                        	<unknown>
     8e0: 01 09                        	<unknown>
     8e2: 00 00                        	<unknown>
     8e4: 01 03                        	<unknown>
     8e6: 00 09                        	<unknown>
     8e8: 00 00                        	<unknown>
     8ea: 01 03                        	<unknown>
     8ec: 00 09                        	<unknown>
     8ee: 00 00                        	<unknown>
     8f0: 01 03                        	<unknown>
     8f2: 00 09                        	<unknown>
     8f4: 00 00                        	<unknown>
     8f6: 01 03                        	<unknown>
     8f8: 00 09                        	<unknown>
     8fa: 00 00                        	<unknown>
     8fc: 01 03                        	<unknown>
     8fe: 00 09                        	<unknown>
     900: 08 00                        	<unknown>
     902: 01 03                        	<unknown>
     904: 00 09                        	<unknown>
     906: 00 00                        	<unknown>
     908: 01 03                        	<unknown>
     90a: 00 09                        	<unknown>
     90c: 04 00                        	<unknown>
     90e: 01 03                        	<unknown>
     910: 00 09                        	<unknown>
     912: 04 00                        	<unknown>
     914: 01 03                        	<unknown>
     916: 00 09                        	<unknown>
     918: 00 00                        	<unknown>
     91a: 01 03                        	<unknown>
     91c: 00 09                        	<unknown>
     91e: 04 00                        	<unknown>
     920: 01 03                        	<unknown>
     922: 00 09                        	<unknown>
     924: 14 00                        	<unknown>
     926: 01 03                        	<unknown>
     928: 00 09                        	<unknown>
     92a: 00 00                        	<unknown>
     92c: 01 03                        	<unknown>
     92e: 00 09                        	<unknown>
     930: 00 00                        	<unknown>
     932: 01 03                        	<unknown>
     934: 00 09                        	<unknown>
     936: 04 00                        	<unknown>
     938: 01 03                        	<unknown>
     93a: 00 09                        	<unknown>
     93c: 04 00                        	<unknown>
     93e: 01 03                        	<unknown>
     940: 00 09                        	<unknown>
     942: 08 00                        	<unknown>
     944: 01 03                        	<unknown>
     946: 00 09                        	<unknown>
     948: 00 00                        	<unknown>
     94a: 01 03                        	<unknown>
     94c: 02 09                        	<unknown>
     94e: 00 00                        	<unknown>
     950: 01 05                        	<unknown>
     952: 0b 06 03 00                  	<unknown>
     956: 09 00                        	<unknown>
     958: 00 01                        	<unknown>
     95a: 05 14                        	<unknown>
     95c: 03 00 09 04                  	lb	zero, 64(s2)
     960: 00 01                        	<unknown>
     962: 05 08                        	<unknown>
     964: 03 7e 09 04                  	<unknown>
     968: 00 01                        	<unknown>
     96a: 05 0b                        	<unknown>
     96c: 03 7d 09 14                  	<unknown>
     970: 00 01                        	<unknown>
     972: 05 08                        	<unknown>
     974: 03 03 09 04                  	lb	t1, 64(s2)
     978: 00 01                        	<unknown>
     97a: 05 0b                        	<unknown>
     97c: 03 08 09 04                  	lb	a6, 64(s2)
     980: 00 01                        	<unknown>
     982: 05 21                        	<unknown>
     984: 03 7a 09 04                  	<unknown>
     988: 00 01                        	<unknown>
     98a: 05 05                        	<unknown>
     98c: 06 03                        	<unknown>
     98e: 02 09                        	<unknown>
     990: 04 00                        	<unknown>
     992: 01 05                        	<unknown>
     994: 07 06 03 00                  	<unknown>
     998: 09 00                        	<unknown>
     99a: 00 01                        	<unknown>
     99c: 05 05                        	<unknown>
     99e: 06 03                        	<unknown>
     9a0: 01 09                        	<unknown>
     9a2: 04 00                        	<unknown>
     9a4: 01 03                        	<unknown>
     9a6: 00 09                        	<unknown>
     9a8: 00 00                        	<unknown>
     9aa: 01 03                        	<unknown>
     9ac: 00 09                        	<unknown>
     9ae: 00 00                        	<unknown>
     9b0: 01 03                        	<unknown>
     9b2: 00 09                        	<unknown>
     9b4: 00 00                        	<unknown>
     9b6: 01 03                        	<unknown>
     9b8: 00 09                        	<unknown>
     9ba: 00 00                        	<unknown>
     9bc: 01 05                        	<unknown>
     9be: 07 06 03 43                  	<unknown>
     9c2: 09 04                        	<unknown>
     9c4: 00 01                        	<unknown>
     9c6: 03 7f 09 04                  	<unknown>
     9ca: 00 01                        	<unknown>
     9cc: 09 08                        	<unknown>
     9ce: 00 00                        	<unknown>
     9d0: 01 01                        	<unknown>
     9d2: 21 02                        	<unknown>
     9d4: 00 00                        	<unknown>
     9d6: 03 00 1b 02                  	lb	zero, 33(s6)
     9da: 00 00                        	<unknown>
     9dc: 01 01                        	<unknown>
     9de: fb 0e 0d 00                  	<unknown>
     9e2: 01 01                        	<unknown>
     9e4: 01 01                        	<unknown>
     9e6: 00 00                        	<unknown>
     9e8: 00 01                        	<unknown>
     9ea: 00 00                        	<unknown>
     9ec: 01 2f                        	<unknown>
     9ee: 68 6f                        	<unknown>
     9f0: 6d 65                        	<unknown>
     9f2: 2f 62 6c 61                  	<unknown>
     9f6: 69 73                        	<unknown>
     9f8: 65 2f                        	<unknown>
     9fa: 64 65                        	<unknown>
     9fc: 76 2f                        	<unknown>
     9fe: 72 69                        	<unknown>
     a00: 73 63 76 2d                  	csrrsi	t1, 727, 12
     a04: 67 6e 75 2d                  	<unknown>
     a08: 74 6f                        	<unknown>
     a0a: 6f 6c 63 68                  	jal	s8, 222854
     a0e: 61 69                        	<unknown>
     a10: 6e 2f                        	<unknown>
     a12: 62 75                        	<unknown>
     a14: 69 6c                        	<unknown>
     a16: 64 2f                        	<unknown>
     a18: 62 75                        	<unknown>
     a1a: 69 6c                        	<unknown>
     a1c: 64 2d                        	<unknown>
     a1e: 67 63 63 2d                  	<unknown>
     a22: 6e 65                        	<unknown>
     a24: 77 6c 69 62                  	<unknown>
     a28: 2d 73                        	<unknown>
     a2a: 74 61                        	<unknown>
     a2c: 67 65 32 2f                  	<unknown>
     a30: 67 63 63 2f                  	<unknown>
     a34: 69 6e                        	<unknown>
     a36: 63 6c 75 64                  	bltu	a0, t2, 1624
     a3a: 65 00                        	<unknown>
     a3c: 2f 68 6f 6d                  	<unknown>
     a40: 65 2f                        	<unknown>
     a42: 62 6c                        	<unknown>
     a44: 61 69                        	<unknown>
     a46: 73 65 2f 64                  	csrrsi	a0, 1602, 30
     a4a: 65 76                        	<unknown>
     a4c: 2f 72 69 73                  	<unknown>
     a50: 63 76 2d 67                  	bgeu	s10, s2, 1644
     a54: 6e 75                        	<unknown>
     a56: 2d 74                        	<unknown>
     a58: 6f 6f 6c 63                  	jal	t5, 812598
     a5c: 68 61                        	<unknown>
     a5e: 69 6e                        	<unknown>
     a60: 2f 64 72 6f                  	<unknown>
     a64: 70 73                        	<unknown>
     a66: 2f 72 69 73                  	<unknown>
     a6a: 63 76 33 32                  	bgeu	t1, gp, 812
     a6e: 2d 75                        	<unknown>
     a70: 6e 6b                        	<unknown>
     a72: 6e 6f                        	<unknown>
     a74: 77 6e 2d 65                  	<unknown>
     a78: 6c 66                        	<unknown>
     a7a: 2f 69 6e 63                  	<unknown>
     a7e: 6c 75                        	<unknown>
     a80: 64 65                        	<unknown>
     a82: 2f 73 79 73                  	<unknown>
     a86: 00 2f                        	<unknown>
     a88: 68 6f                        	<unknown>
     a8a: 6d 65                        	<unknown>
     a8c: 2f 62 6c 61                  	<unknown>
     a90: 69 73                        	<unknown>
     a92: 65 2f                        	<unknown>
     a94: 64 65                        	<unknown>
     a96: 76 2f                        	<unknown>
     a98: 72 69                        	<unknown>
     a9a: 73 63 76 2d                  	csrrsi	t1, 727, 12
     a9e: 67 6e 75 2d                  	<unknown>
     aa2: 74 6f                        	<unknown>
     aa4: 6f 6c 63 68                  	jal	s8, 222854
     aa8: 61 69                        	<unknown>
     aaa: 6e 2f                        	<unknown>
     aac: 64 72                        	<unknown>
     aae: 6f 70 73 2f                  	j	228086
     ab2: 72 69                        	<unknown>
     ab4: 73 63 76 33                  	csrrsi	t1, mhpmevent23, 12
     ab8: 32 2d                        	<unknown>
     aba: 75 6e                        	<unknown>
     abc: 6b 6e 6f 77                  	<unknown>
     ac0: 6e 2d                        	<unknown>
     ac2: 65 6c                        	<unknown>
     ac4: 66 2f                        	<unknown>
     ac6: 69 6e                        	<unknown>
     ac8: 63 6c 75 64                  	bltu	a0, t2, 1624
     acc: 65 00                        	<unknown>
     ace: 2e 2e                        	<unknown>
     ad0: 2f 2e 2e 2f                  	<unknown>
     ad4: 2e 2e                        	<unknown>
     ad6: 2f 2e 2e 2f                  	<unknown>
     ada: 72 69                        	<unknown>
     adc: 73 63 76 2d                  	csrrsi	t1, 727, 12
     ae0: 67 63 63 2f                  	<unknown>
     ae4: 6c 69                        	<unknown>
     ae6: 62 67                        	<unknown>
     ae8: 63 63 2f 2e                  	bltu	t5, sp, 742
     aec: 2e 2f                        	<unknown>
     aee: 69 6e                        	<unknown>
     af0: 63 6c 75 64                  	bltu	a0, t2, 1624
     af4: 65 00                        	<unknown>
     af6: 2e 2e                        	<unknown>
     af8: 2f 2e 2e 2f                  	<unknown>
     afc: 2e 2e                        	<unknown>
     afe: 2f 2e 2e 2f                  	<unknown>
     b02: 72 69                        	<unknown>
     b04: 73 63 76 2d                  	csrrsi	t1, 727, 12
     b08: 67 63 63 2f                  	<unknown>
     b0c: 6c 69                        	<unknown>
     b0e: 62 67                        	<unknown>
     b10: 63 63 2f 2e                  	bltu	t5, sp, 742
     b14: 2e 2f                        	<unknown>
     b16: 67 63 63 2f                  	<unknown>
     b1a: 63 6f 6e 66                  	bltu	t3, t1, 1662
     b1e: 69 67                        	<unknown>
     b20: 2f 72 69 73                  	<unknown>
     b24: 63 76 00 2e                  	bgeu	zero, zero, 748
     b28: 2e 2f                        	<unknown>
     b2a: 2e 2e                        	<unknown>
     b2c: 2f 2e 2f 67                  	<unknown>
     b30: 63 63 00 2e                  	bltu	zero, zero, 742
     b34: 2e 2f                        	<unknown>
     b36: 2e 2e                        	<unknown>
     b38: 2f 2e 2e 2f                  	<unknown>
     b3c: 2e 2e                        	<unknown>
     b3e: 2f 72 69 73                  	<unknown>
     b42: 63 76 2d 67                  	bgeu	s10, s2, 1644
     b46: 63 63 2f 6c                  	bltu	t5, sp, 1734
     b4a: 69 62                        	<unknown>
     b4c: 67 63 63 00                  	<unknown>
     b50: 00 73                        	<unknown>
     b52: 74 64                        	<unknown>
     b54: 64 65                        	<unknown>
     b56: 66 2e                        	<unknown>
     b58: 68 00                        	<unknown>
     b5a: 01 00                        	<unknown>
     b5c: 00 5f                        	<unknown>
     b5e: 74 79                        	<unknown>
     b60: 70 65                        	<unknown>
     b62: 73 2e 68 00                  	csrrs	t3, 6, a6
     b66: 02 00                        	<unknown>
     b68: 00 72                        	<unknown>
     b6a: 65 65                        	<unknown>
     b6c: 6e 74                        	<unknown>
     b6e: 2e 68                        	<unknown>
     b70: 00 02                        	<unknown>
     b72: 00 00                        	<unknown>
     b74: 6c 6f                        	<unknown>
     b76: 63 6b 2e 68                  	bltu	t3, sp, 1686
     b7a: 00 02                        	<unknown>
     b7c: 00 00                        	<unknown>
     b7e: 65 72                        	<unknown>
     b80: 72 6e                        	<unknown>
     b82: 6f 2e 68 00                  	jal	t3, 532486
     b86: 02 00                        	<unknown>
     b88: 00 73                        	<unknown>
     b8a: 74 64                        	<unknown>
     b8c: 6c 69                        	<unknown>
     b8e: 62 2e                        	<unknown>
     b90: 68 00                        	<unknown>
     b92: 03 00 00 75                  	lb	zero, 1872(zero)
     b96: 6e 69                        	<unknown>
     b98: 73 74 64 2e                  	csrrci	s0, 742, 8
     b9c: 68 00                        	<unknown>
     b9e: 02 00                        	<unknown>
     ba0: 00 74                        	<unknown>
     ba2: 69 6d                        	<unknown>
     ba4: 65 2e                        	<unknown>
     ba6: 68 00                        	<unknown>
     ba8: 03 00 00 68                  	lb	zero, 1664(zero)
     bac: 61 73                        	<unknown>
     bae: 68 74                        	<unknown>
     bb0: 61 62                        	<unknown>
     bb2: 2e 68                        	<unknown>
     bb4: 00 04                        	<unknown>
     bb6: 00 00                        	<unknown>
     bb8: 72 69                        	<unknown>
     bba: 73 63 76 2d                  	csrrsi	t1, 727, 12
     bbe: 6f 70 74 73                  	j	294710
     bc2: 2e 68                        	<unknown>
     bc4: 00 05                        	<unknown>
     bc6: 00 00                        	<unknown>
     bc8: 69 6e                        	<unknown>
     bca: 73 6e 2d 63                  	csrrsi	t3, 1586, 26
     bce: 6f 6e 73 74                  	jal	t3, 225094
     bd2: 61 6e                        	<unknown>
     bd4: 74 73                        	<unknown>
     bd6: 2e 68                        	<unknown>
     bd8: 00 06                        	<unknown>
     bda: 00 00                        	<unknown>
     bdc: 6c 69                        	<unknown>
     bde: 62 67                        	<unknown>
     be0: 63 63 32 2e                  	bltu	tp, gp, 742
     be4: 68 00                        	<unknown>
     be6: 07 00 00 6c                  	<unknown>
     bea: 69 62                        	<unknown>
     bec: 67 63 63 32                  	<unknown>
     bf0: 2e 63                        	<unknown>
     bf2: 00 07                        	<unknown>
     bf4: 00 00                        	<unknown>
     bf6: 00                           	<unknown>

Disassembly of section .debug_str:

00000000 .debug_str:
       0: 73 68 6f 72                  	csrrsi	a6, 1830, 30
       4: 74 20                        	<unknown>
       6: 69 6e                        	<unknown>
       8: 74 00                        	<unknown>
       a: 68 74                        	<unknown>
       c: 61 62                        	<unknown>
       e: 5f 68 61 73                  	<unknown>
      12: 68 5f                        	<unknown>
      14: 70 6f                        	<unknown>
      16: 69 6e                        	<unknown>
      18: 74 65                        	<unknown>
      1a: 72 00                        	<unknown>
      1c: 5f 73 69 7a                  	<unknown>
      20: 65 00                        	<unknown>
      22: 5f 72 61 6e                  	<unknown>
      26: 64 34                        	<unknown>
      28: 38 00                        	<unknown>
      2a: 5f 65 6d 65                  	<unknown>
      2e: 72 67                        	<unknown>
      30: 65 6e                        	<unknown>
      32: 63 79 00 5f                  	bgeu	zero, a6, 1522
      36: 64 61                        	<unknown>
      38: 79 6c                        	<unknown>
      3a: 69 67                        	<unknown>
      3c: 68 74                        	<unknown>
      3e: 00 63                        	<unknown>
      40: 6f 6d 70 6c                  	jal	s10, 28358
      44: 65 78                        	<unknown>
      46: 20 64                        	<unknown>
      48: 6f 75 62 6c                  	jal	a0, 161478
      4c: 65 00                        	<unknown>
      4e: 5f 67 65 74                  	<unknown>
      52: 64 61                        	<unknown>
      54: 74 65                        	<unknown>
      56: 5f 65 72 72                  	<unknown>
      5a: 00 5f                        	<unknown>
      5c: 64 61                        	<unknown>
      5e: 74 61                        	<unknown>
      60: 00 5f                        	<unknown>
      62: 77 63 72 74                  	<unknown>
      66: 6f 6d 62 5f                  	jal	s10, 157174
      6a: 73 74 61 74                  	csrrci	s0, 1862, 2
      6e: 65 00                        	<unknown>
      70: 72 69                        	<unknown>
      72: 73 63 76 5f                  	csrrsi	t1, 1527, 12
      76: 6d 69                        	<unknown>
      78: 63 72 6f 61                  	bgeu	t5, s6, 1540
      7c: 72 63                        	<unknown>
      7e: 68 69                        	<unknown>
      80: 74 65                        	<unknown>
      82: 63 74 75 72                  	bgeu	a0, t2, 1832
      86: 65 5f                        	<unknown>
      88: 74 79                        	<unknown>
      8a: 70 65                        	<unknown>
      8c: 00 5f                        	<unknown>
      8e: 77 63 73 72                  	<unknown>
      92: 74 6f                        	<unknown>
      94: 6d 62                        	<unknown>
      96: 73 5f 73 74                  	csrrwi	t5, 1863, 6
      9a: 61 74                        	<unknown>
      9c: 65 00                        	<unknown>
      9e: 5f 5f 64 30                  	<unknown>
      a2: 00 5f                        	<unknown>
      a4: 5f 64 31 00                  	<unknown>
      a8: 5f 6c 62 66                  	<unknown>
      ac: 73 69 7a 65                  	csrrsi	s2, 1623, 20
      b0: 00 6f                        	<unknown>
      b2: 70 74                        	<unknown>
      b4: 69 6e                        	<unknown>
      b6: 64 00                        	<unknown>
      b8: 63 6f 6d 70                  	bltu	s10, t1, 1822
      bc: 6c 65                        	<unknown>
      be: 78 20                        	<unknown>
      c0: 6c 6f                        	<unknown>
      c2: 6e 67                        	<unknown>
      c4: 20 64                        	<unknown>
      c6: 6f 75 62 6c                  	jal	a0, 161478
      ca: 65 00                        	<unknown>
      cc: 72 69                        	<unknown>
      ce: 73 63 76 5f                  	csrrsi	t1, 1527, 12
      d2: 61 62                        	<unknown>
      d4: 69 00                        	<unknown>
      d6: 5f 5f 6c 6f                  	<unknown>
      da: 63 61 6c 65                  	bltu	s8, s6, 1602
      de: 5f 74 00 5f                  	<unknown>
      e2: 6d 62                        	<unknown>
      e4: 72 74                        	<unknown>
      e6: 6f 77 63 5f                  	jal	a4, 226806
      ea: 73 74 61 74                  	csrrci	s0, 1862, 2
      ee: 65 00                        	<unknown>
      f0: 5f 74 7a 6e                  	<unknown>
      f4: 61 6d                        	<unknown>
      f6: 65 00                        	<unknown>
      f8: 5f 5f 74 6d                  	<unknown>
      fc: 5f 73 65 63                  	<unknown>
     100: 00 5f                        	<unknown>
     102: 63 6c 6f 73                  	bltu	t5, s6, 1848
     106: 65 00                        	<unknown>
     108: 5f 75 62 75                  	<unknown>
     10c: 66 00                        	<unknown>
     10e: 5f 62 61 73                  	<unknown>
     112: 65 00                        	<unknown>
     114: 5f 5f 74 6d                  	<unknown>
     118: 5f 68 6f 75                  	<unknown>
     11c: 72 00                        	<unknown>
     11e: 5f 77 63 74                  	<unknown>
     122: 6f 6d 62 5f                  	jal	s10, 157174
     126: 73 74 61 74                  	csrrci	s0, 1862, 2
     12a: 65 00                        	<unknown>
     12c: 5f 5f 73 66                  	<unknown>
     130: 00 5f                        	<unknown>
     132: 6f 6e 5f 65                  	jal	t3, 1011284
     136: 78 69                        	<unknown>
     138: 74 5f                        	<unknown>
     13a: 61 72                        	<unknown>
     13c: 67 73 00 5f                  	<unknown>
     140: 63 6f 6f 6b                  	bltu	t5, s6, 1726
     144: 69 65                        	<unknown>
     146: 00 5f                        	<unknown>
     148: 5f 73 67 6c                  	<unknown>
     14c: 75 65                        	<unknown>
     14e: 00 72                        	<unknown>
     150: 69 73                        	<unknown>
     152: 63 76 5f 63                  	bgeu	t5, s5, 1580
     156: 6d 6f                        	<unknown>
     158: 64 65                        	<unknown>
     15a: 6c 00                        	<unknown>
     15c: 5f 66 6c 61                  	<unknown>
     160: 67 73 00 5f                  	<unknown>
     164: 69 73                        	<unknown>
     166: 5f 63 78 61                  	<unknown>
     16a: 00 5f                        	<unknown>
     16c: 77 64 73 00                  	<unknown>
     170: 5f 5f 46 49                  	<unknown>
     174: 4c 45                        	<unknown>
     176: 00 5f                        	<unknown>
     178: 72 65                        	<unknown>
     17a: 73 75 6c 74                  	csrrci	a0, 1862, 24
     17e: 5f 6b 00 55                  	<unknown>
     182: 53 49 74 79                  	<unknown>
     186: 70 65                        	<unknown>
     188: 00 72                        	<unknown>
     18a: 69 73                        	<unknown>
     18c: 63 76 5f 6d                  	bgeu	t5, s5, 1740
     190: 69 63                        	<unknown>
     192: 72 6f                        	<unknown>
     194: 61 72                        	<unknown>
     196: 63 68 69 74                  	bltu	s2, t1, 1872
     19a: 65 63                        	<unknown>
     19c: 74 75                        	<unknown>
     19e: 72 65                        	<unknown>
     1a0: 00 5f                        	<unknown>
     1a2: 73 79 73 5f                  	csrrci	s2, 1527, 6
     1a6: 65 72                        	<unknown>
     1a8: 72 6c                        	<unknown>
     1aa: 69 73                        	<unknown>
     1ac: 74 00                        	<unknown>
     1ae: 5f 63 76 74                  	<unknown>
     1b2: 62 75                        	<unknown>
     1b4: 66 00                        	<unknown>
     1b6: 5f 6d 62 73                  	<unknown>
     1ba: 72 74                        	<unknown>
     1bc: 6f 77 63 73                  	jal	a4, 227126
     1c0: 5f 73 74 61                  	<unknown>
     1c4: 74 65                        	<unknown>
     1c6: 00 5f                        	<unknown>
     1c8: 6d 62                        	<unknown>
     1ca: 72 6c                        	<unknown>
     1cc: 65 6e                        	<unknown>
     1ce: 5f 73 74 61                  	<unknown>
     1d2: 74 65                        	<unknown>
     1d4: 00 2f                        	<unknown>
     1d6: 68 6f                        	<unknown>
     1d8: 6d 65                        	<unknown>
     1da: 2f 62 6c 61                  	<unknown>
     1de: 69 73                        	<unknown>
     1e0: 65 2f                        	<unknown>
     1e2: 64 65                        	<unknown>
     1e4: 76 2f                        	<unknown>
     1e6: 72 69                        	<unknown>
     1e8: 73 63 76 2d                  	csrrsi	t1, 727, 12
     1ec: 67 6e 75 2d                  	<unknown>
     1f0: 74 6f                        	<unknown>
     1f2: 6f 6c 63 68                  	jal	s8, 222854
     1f6: 61 69                        	<unknown>
     1f8: 6e 2f                        	<unknown>
     1fa: 62 75                        	<unknown>
     1fc: 69 6c                        	<unknown>
     1fe: 64 2f                        	<unknown>
     200: 62 75                        	<unknown>
     202: 69 6c                        	<unknown>
     204: 64 2d                        	<unknown>
     206: 67 63 63 2d                  	<unknown>
     20a: 6e 65                        	<unknown>
     20c: 77 6c 69 62                  	<unknown>
     210: 2d 73                        	<unknown>
     212: 74 61                        	<unknown>
     214: 67 65 32 2f                  	<unknown>
     218: 72 69                        	<unknown>
     21a: 73 63 76 33                  	csrrsi	t1, mhpmevent23, 12
     21e: 32 2d                        	<unknown>
     220: 75 6e                        	<unknown>
     222: 6b 6e 6f 77                  	<unknown>
     226: 6e 2d                        	<unknown>
     228: 65 6c                        	<unknown>
     22a: 66 2f                        	<unknown>
     22c: 6c 69                        	<unknown>
     22e: 62 67                        	<unknown>
     230: 63 63 00 5f                  	bltu	zero, a6, 1510
     234: 66 6e                        	<unknown>
     236: 61 72                        	<unknown>
     238: 67 73 00 5f                  	<unknown>
     23c: 66 6e                        	<unknown>
     23e: 73 00 5f 73                  	<unknown>
     242: 69 67                        	<unknown>
     244: 6e 00                        	<unknown>
     246: 5f 73 74 64                  	<unknown>
     24a: 65 72                        	<unknown>
     24c: 72 00                        	<unknown>
     24e: 5f 67 61 6d                  	<unknown>
     252: 6d 61                        	<unknown>
     254: 5f 73 69 67                  	<unknown>
     258: 6e 67                        	<unknown>
     25a: 61 6d                        	<unknown>
     25c: 00 5f                        	<unknown>
     25e: 6e 6d                        	<unknown>
     260: 61 6c                        	<unknown>
     262: 6c 6f                        	<unknown>
     264: 63 00 5f 75                  	beq	t5, s5, 1856
     268: 6e 73                        	<unknown>
     26a: 70 65                        	<unknown>
     26c: 63 69 66 69                  	bltu	a2, s6, 1682
     270: 65 64                        	<unknown>
     272: 5f 6c 6f 63                  	<unknown>
     276: 61 6c                        	<unknown>
     278: 65 5f                        	<unknown>
     27a: 69 6e                        	<unknown>
     27c: 66 6f                        	<unknown>
     27e: 00 5f                        	<unknown>
     280: 5f 74 6d 00                  	<unknown>
     284: 72 69                        	<unknown>
     286: 73 63 76 5f                  	csrrsi	t1, 1527, 12
     28a: 61 62                        	<unknown>
     28c: 69 5f                        	<unknown>
     28e: 74 79                        	<unknown>
     290: 70 65                        	<unknown>
     292: 00 5f                        	<unknown>
     294: 6d 62                        	<unknown>
     296: 73 74 61 74                  	csrrci	s0, 1862, 2
     29a: 65 00                        	<unknown>
     29c: 5f 5f 77 63                  	<unknown>
     2a0: 68 62                        	<unknown>
     2a2: 00 5f                        	<unknown>
     2a4: 63 76 74 6c                  	bgeu	s0, t2, 1740
     2a8: 65 6e                        	<unknown>
     2aa: 00 5f                        	<unknown>
     2ac: 66 69                        	<unknown>
     2ae: 6c 65                        	<unknown>
     2b0: 00 68                        	<unknown>
     2b2: 61 73                        	<unknown>
     2b4: 68 76                        	<unknown>
     2b6: 61 6c                        	<unknown>
     2b8: 5f 74 00 44                  	<unknown>
     2bc: 57 75 6e 69                  	<unknown>
     2c0: 6f 6e 00 5f                  	jal	t3, 26096
     2c4: 6e 69                        	<unknown>
     2c6: 6f 62 73 00                  	jal	tp, 223238
     2ca: 6c 6f                        	<unknown>
     2cc: 6e 67                        	<unknown>
     2ce: 20 6c                        	<unknown>
     2d0: 6f 6e 67 20                  	jal	t3, 483846
     2d4: 75 6e                        	<unknown>
     2d6: 73 69 67 6e                  	csrrsi	s2, 1766, 14
     2da: 65 64                        	<unknown>
     2dc: 20 69                        	<unknown>
     2de: 6e 74                        	<unknown>
     2e0: 00 44                        	<unknown>
     2e2: 57 73 74 72                  	<unknown>
     2e6: 75 63                        	<unknown>
     2e8: 74 00                        	<unknown>
     2ea: 73 68 6f 72                  	csrrsi	a6, 1830, 30
     2ee: 74 20                        	<unknown>
     2f0: 75 6e                        	<unknown>
     2f2: 73 69 67 6e                  	csrrsi	s2, 1766, 14
     2f6: 65 64                        	<unknown>
     2f8: 20 69                        	<unknown>
     2fa: 6e 74                        	<unknown>
     2fc: 00 5f                        	<unknown>
     2fe: 5f 63 6c 7a                  	<unknown>
     302: 5f 74 61 62                  	<unknown>
     306: 00 5f                        	<unknown>
     308: 61 74                        	<unknown>
     30a: 65 78                        	<unknown>
     30c: 69 74                        	<unknown>
     30e: 30 00                        	<unknown>
     310: 5f 73 69 67                  	<unknown>
     314: 6e 61                        	<unknown>
     316: 6c 5f                        	<unknown>
     318: 62 75                        	<unknown>
     31a: 66 00                        	<unknown>
     31c: 5f 61 73 63                  	<unknown>
     320: 74 69                        	<unknown>
     322: 6d 65                        	<unknown>
     324: 5f 62 75 66                  	<unknown>
     328: 00 5f                        	<unknown>
     32a: 72 65                        	<unknown>
     32c: 73 75 6c 74                  	csrrci	a0, 1862, 24
     330: 00 5f                        	<unknown>
     332: 5f 77 63 68                  	<unknown>
     336: 00 5f                        	<unknown>
     338: 6e 65                        	<unknown>
     33a: 78 74                        	<unknown>
     33c: 66 00                        	<unknown>
     33e: 65 6e                        	<unknown>
     340: 76 69                        	<unknown>
     342: 72 6f                        	<unknown>
     344: 6e 00                        	<unknown>
     346: 77 69 6e 74                  	<unknown>
     34a: 5f 74 00 5f                  	<unknown>
     34e: 6c 6f                        	<unknown>
     350: 63 6b 00 5f                  	bltu	zero, a6, 1526
     354: 5f 75 68 00                  	<unknown>
     358: 41 42                        	<unknown>
     35a: 49 5f                        	<unknown>
     35c: 49 4c                        	<unknown>
     35e: 50 33                        	<unknown>
     360: 32 45                        	<unknown>
     362: 00 5f                        	<unknown>
     364: 6d 75                        	<unknown>
     366: 6c 74                        	<unknown>
     368: 00 5f                        	<unknown>
     36a: 5f 75 6c 00                  	<unknown>
     36e: 75 6e                        	<unknown>
     370: 73 70 65 63                  	csrci	1590, 10
     374: 5f 73 74 72                  	<unknown>
     378: 69 6e                        	<unknown>
     37a: 67 73 00 6f                  	<unknown>
     37e: 70 74                        	<unknown>
     380: 72 65                        	<unknown>
     382: 73 65 74 00                  	csrrsi	a0, 7, 8
     386: 5f 77 72 69                  	<unknown>
     38a: 74 65                        	<unknown>
     38c: 00 5f                        	<unknown>
     38e: 5f 74 6d 5f                  	<unknown>
     392: 79 65                        	<unknown>
     394: 61 72                        	<unknown>
     396: 00 5f                        	<unknown>
     398: 5f 63 6f 75                  	<unknown>
     39c: 6e 74                        	<unknown>
     39e: 00 5f                        	<unknown>
     3a0: 75 6e                        	<unknown>
     3a2: 75 73                        	<unknown>
     3a4: 65 64                        	<unknown>
     3a6: 5f 72 61 6e                  	<unknown>
     3aa: 64 00                        	<unknown>
     3ac: 41 42                        	<unknown>
     3ae: 49 5f                        	<unknown>
     3b0: 49 4c                        	<unknown>
     3b2: 50 33                        	<unknown>
     3b4: 32 44                        	<unknown>
     3b6: 00 72                        	<unknown>
     3b8: 69 73                        	<unknown>
     3ba: 63 76 5f 63                  	bgeu	t5, s5, 1580
     3be: 6f 64 65 5f                  	jal	s0, 353782
     3c2: 6d 6f                        	<unknown>
     3c4: 64 65                        	<unknown>
     3c6: 6c 00                        	<unknown>
     3c8: 5f 6f 66 66                  	<unknown>
     3cc: 73 65 74 00                  	csrrsi	a0, 7, 8
     3d0: 5f 42 69 67                  	<unknown>
     3d4: 69 6e                        	<unknown>
     3d6: 74 00                        	<unknown>
     3d8: 41 42                        	<unknown>
     3da: 49 5f                        	<unknown>
     3dc: 49 4c                        	<unknown>
     3de: 50 33                        	<unknown>
     3e0: 32 46                        	<unknown>
     3e2: 00 63                        	<unknown>
     3e4: 6f 6d 70 6c                  	jal	s10, 28358
     3e8: 65 78                        	<unknown>
     3ea: 20 66                        	<unknown>
     3ec: 6c 6f                        	<unknown>
     3ee: 61 74                        	<unknown>
     3f0: 00 6c                        	<unknown>
     3f2: 6f 6e 67 20                  	jal	t3, 483846
     3f6: 6c 6f                        	<unknown>
     3f8: 6e 67                        	<unknown>
     3fa: 20 69                        	<unknown>
     3fc: 6e 74                        	<unknown>
     3fe: 00 5f                        	<unknown>
     400: 5f 74 6d 5f                  	<unknown>
     404: 6d 6f                        	<unknown>
     406: 6e 00                        	<unknown>
     408: 5f 61 74 65                  	<unknown>
     40c: 78 69                        	<unknown>
     40e: 74 00                        	<unknown>
     410: 73 75 62 6f                  	csrrci	a0, 1782, 4
     414: 70 74                        	<unknown>
     416: 61 72                        	<unknown>
     418: 67 00 5f 5f                  	jr	1525(t5)
     41c: 73 64 69 64                  	csrrsi	s0, 1606, 18
     420: 69 6e                        	<unknown>
     422: 69 74                        	<unknown>
     424: 00 5f                        	<unknown>
     426: 6f 66 66 5f                  	jal	a2, 419318
     42a: 74 00                        	<unknown>
     42c: 5f 5f 76 68                  	<unknown>
     430: 00 5f                        	<unknown>
     432: 5f 76 6c 00                  	<unknown>
     436: 5f 66 72 65                  	<unknown>
     43a: 65 6c                        	<unknown>
     43c: 69 73                        	<unknown>
     43e: 74 00                        	<unknown>
     440: 5f 74 69 6d                  	<unknown>
     444: 65 7a                        	<unknown>
     446: 6f 6e 65 00                  	jal	t3, 352262
     44a: 5f 6d 62 73                  	<unknown>
     44e: 74 61                        	<unknown>
     450: 74 65                        	<unknown>
     452: 5f 74 00 5f                  	<unknown>
     456: 4c 4f                        	<unknown>
     458: 43 4b 5f 52                  	<unknown>
     45c: 45 43                        	<unknown>
     45e: 55 52                        	<unknown>
     460: 53 49 56 45                  	<unknown>
     464: 5f 54 00 5f                  	<unknown>
     468: 72 65                        	<unknown>
     46a: 61 64                        	<unknown>
     46c: 00 2e                        	<unknown>
     46e: 2e 2f                        	<unknown>
     470: 2e 2e                        	<unknown>
     472: 2f 2e 2e 2f                  	<unknown>
     476: 2e 2e                        	<unknown>
     478: 2f 72 69 73                  	<unknown>
     47c: 63 76 2d 67                  	bgeu	s10, s2, 1644
     480: 63 63 2f 6c                  	bltu	t5, sp, 1734
     484: 69 62                        	<unknown>
     486: 67 63 63 2f                  	<unknown>
     48a: 6c 69                        	<unknown>
     48c: 62 67                        	<unknown>
     48e: 63 63 32 2e                  	bltu	tp, gp, 742
     492: 63 00 41 42                  	beq	sp, tp, 1056
     496: 49 5f                        	<unknown>
     498: 4c 50                        	<unknown>
     49a: 36 34                        	<unknown>
     49c: 00 41                        	<unknown>
     49e: 42 49                        	<unknown>
     4a0: 5f 49 4c 50                  	<unknown>
     4a4: 33 32 00 5f                  	<unknown>
     4a8: 64 73                        	<unknown>
     4aa: 6f 5f 68 61                  	jal	t5, 546326
     4ae: 6e 64                        	<unknown>
     4b0: 6c 65                        	<unknown>
     4b2: 00 43                        	<unknown>
     4b4: 4d 5f                        	<unknown>
     4b6: 4d 45                        	<unknown>
     4b8: 44 41                        	<unknown>
     4ba: 4e 59                        	<unknown>
     4bc: 00 5f                        	<unknown>
     4be: 6e 65                        	<unknown>
     4c0: 77 00 5f 68                  	<unknown>
     4c4: 5f 65 72 72                  	<unknown>
     4c8: 6e 6f                        	<unknown>
     4ca: 00 5f                        	<unknown>
     4cc: 66 6c                        	<unknown>
     4ce: 6f 63 6b 5f                  	jal	t1, 746998
     4d2: 74 00                        	<unknown>
     4d4: 5f 66 6c 61                  	<unknown>
     4d8: 67 73 32 00                  	<unknown>
     4dc: 5f 69 6f 62                  	<unknown>
     4e0: 73 00 47 4e                  	<unknown>
     4e4: 55 20                        	<unknown>
     4e6: 43 31 37 20                  	<unknown>
     4ea: 39 2e                        	<unknown>
     4ec: 32 2e                        	<unknown>
     4ee: 30 20                        	<unknown>
     4f0: 2d 6d                        	<unknown>
     4f2: 63 6d 6f 64                  	bltu	t5, t1, 1626
     4f6: 65 6c                        	<unknown>
     4f8: 3d 6d                        	<unknown>
     4fa: 65 64                        	<unknown>
     4fc: 6c 6f                        	<unknown>
     4fe: 77 20 2d 6d                  	<unknown>
     502: 63 6d 6f 64                  	bltu	t5, t1, 1626
     506: 65 6c                        	<unknown>
     508: 3d 6d                        	<unknown>
     50a: 65 64                        	<unknown>
     50c: 6c 6f                        	<unknown>
     50e: 77 20 2d 6d                  	<unknown>
     512: 74 75                        	<unknown>
     514: 6e 65                        	<unknown>
     516: 3d 72                        	<unknown>
     518: 6f 63 6b 65                  	jal	t1, 747094
     51c: 74 20                        	<unknown>
     51e: 2d 6d                        	<unknown>
     520: 61 72                        	<unknown>
     522: 63 68 3d 72                  	bltu	s10, gp, 1840
     526: 76 33                        	<unknown>
     528: 32 69                        	<unknown>
     52a: 6d 66                        	<unknown>
     52c: 20 2d                        	<unknown>
     52e: 6d 61                        	<unknown>
     530: 62 69                        	<unknown>
     532: 3d 69                        	<unknown>
     534: 6c 70                        	<unknown>
     536: 33 32 66 20                  	<unknown>
     53a: 2d 67                        	<unknown>
     53c: 20 2d                        	<unknown>
     53e: 4f 73 20 2d                  	<unknown>
     542: 4f 32 20 2d                  	<unknown>
     546: 4f 73 20 2d                  	<unknown>
     54a: 66 62                        	<unknown>
     54c: 75 69                        	<unknown>
     54e: 6c 64                        	<unknown>
     550: 69 6e                        	<unknown>
     552: 67 2d 6c 69                  	<unknown>
     556: 62 67                        	<unknown>
     558: 63 63 20 2d                  	bltu	zero, s2, 710
     55c: 66 6e                        	<unknown>
     55e: 6f 2d 73 74                  	jal	s10, 208710
     562: 61 63                        	<unknown>
     564: 6b 2d 70 72                  	<unknown>
     568: 6f 74 65 63                  	jal	s0, 357942
     56c: 74 6f                        	<unknown>
     56e: 72 20                        	<unknown>
     570: 2d 66                        	<unknown>
     572: 65 78                        	<unknown>
     574: 63 65 70 74                  	bltu	zero, t2, 1866
     578: 69 6f                        	<unknown>
     57a: 6e 73                        	<unknown>
     57c: 20 2d                        	<unknown>
     57e: 66 6e                        	<unknown>
     580: 6f 6e 2d 63                  	jal	t3, 878130
     584: 61 6c                        	<unknown>
     586: 6c 2d                        	<unknown>
     588: 65 78                        	<unknown>
     58a: 63 65 70 74                  	bltu	zero, t2, 1866
     58e: 69 6f                        	<unknown>
     590: 6e 73                        	<unknown>
     592: 20 2d                        	<unknown>
     594: 66 76                        	<unknown>
     596: 69 73                        	<unknown>
     598: 69 62                        	<unknown>
     59a: 69 6c                        	<unknown>
     59c: 69 74                        	<unknown>
     59e: 79 3d                        	<unknown>
     5a0: 68 69                        	<unknown>
     5a2: 64 64                        	<unknown>
     5a4: 65 6e                        	<unknown>
     5a6: 00 43                        	<unknown>
     5a8: 4d 5f                        	<unknown>
     5aa: 4d 45                        	<unknown>
     5ac: 44 4c                        	<unknown>
     5ae: 4f 57 00 68                  	<unknown>
     5b2: 74 61                        	<unknown>
     5b4: 62 5f                        	<unknown>
     5b6: 68 61                        	<unknown>
     5b8: 73 68 00 5f                  	csrrsi	a6, 1520, 0
     5bc: 5f 73 46 49                  	<unknown>
     5c0: 4c 45                        	<unknown>
     5c2: 00 5f                        	<unknown>
     5c4: 73 79 73 5f                  	csrrci	s2, 1527, 6
     5c8: 6e 65                        	<unknown>
     5ca: 72 72                        	<unknown>
     5cc: 00 5f                        	<unknown>
     5ce: 6d 62                        	<unknown>
     5d0: 6c 65                        	<unknown>
     5d2: 6e 5f                        	<unknown>
     5d4: 73 74 61 74                  	csrrci	s0, 1862, 2
     5d8: 65 00                        	<unknown>
     5da: 5f 69 6e 63                  	<unknown>
     5de: 00 5f                        	<unknown>
     5e0: 69 6e                        	<unknown>
     5e2: 64 00                        	<unknown>
     5e4: 5f 6c 6f 63                  	<unknown>
     5e8: 61 6c                        	<unknown>
     5ea: 65 00                        	<unknown>
     5ec: 5f 5f 63 6c                  	<unknown>
     5f0: 65 61                        	<unknown>
     5f2: 6e 75                        	<unknown>
     5f4: 70 00                        	<unknown>
     5f6: 5f 6d 61 78                  	<unknown>
     5fa: 77 64 73 00                  	<unknown>
     5fe: 5f 72 65 65                  	<unknown>
     602: 6e 74                        	<unknown>
     604: 00 5f                        	<unknown>
     606: 5f 78 30 00                  	<unknown>
     60a: 5f 5f 78 31                  	<unknown>
     60e: 00 5f                        	<unknown>
     610: 5f 78 32 00                  	<unknown>
     614: 5f 5f 78 33                  	<unknown>
     618: 00 5f                        	<unknown>
     61a: 5f 76 61 6c                  	<unknown>
     61e: 75 65                        	<unknown>
     620: 00 5f                        	<unknown>
     622: 73 65 65 6b                  	csrrsi	a0, 1718, 10
     626: 00 5f                        	<unknown>
     628: 66 70                        	<unknown>
     62a: 6f 73 5f 74                  	jal	t1, 1015620
     62e: 00 73                        	<unknown>
     630: 69 66                        	<unknown>
     632: 69 76                        	<unknown>
     634: 65 5f                        	<unknown>
     636: 37 00 5f 62                  	lui	zero, 402928
     63a: 6c 6b                        	<unknown>
     63c: 73 69 7a 65                  	csrrsi	s2, 1623, 20
     640: 00 67                        	<unknown>
     642: 65 6e                        	<unknown>
     644: 65 72                        	<unknown>
     646: 69 63                        	<unknown>
     648: 00 5f                        	<unknown>
     64a: 5f 64 69 76                  	<unknown>
     64e: 64 69                        	<unknown>
     650: 33 00 5f 5f                  	<unknown>
     654: 75 64                        	<unknown>
     656: 69 76                        	<unknown>
     658: 6d 6f                        	<unknown>
     65a: 64 64                        	<unknown>
     65c: 69 34                        	<unknown>
     65e: 00 75                        	<unknown>
     660: 6e 73                        	<unknown>
     662: 70 65                        	<unknown>
     664: 63 76 5f 73                  	bgeu	t5, s5, 1836
     668: 74 72                        	<unknown>
     66a: 69 6e                        	<unknown>
     66c: 67 73 00 5f                  	<unknown>
     670: 73 65 65 64                  	csrrsi	a0, 1606, 10
     674: 00 6f                        	<unknown>
     676: 70 74                        	<unknown>
     678: 65 72                        	<unknown>
     67a: 72 00                        	<unknown>
     67c: 68 69                        	<unknown>
     67e: 67 68 00 5f                  	<unknown>
     682: 5f 71 30 00                  	<unknown>
     686: 5f 5f 71 31                  	<unknown>
     68a: 00 5f                        	<unknown>
     68c: 73 74 72 74                  	csrrci	s0, 1863, 4
     690: 6f 6b 5f 6c                  	jal	s6, 1011396
     694: 61 73                        	<unknown>
     696: 74 00                        	<unknown>
     698: 43 4d 5f 50                  	<unknown>
     69c: 49 43                        	<unknown>
     69e: 00 5f                        	<unknown>
     6a0: 66 6e                        	<unknown>
     6a2: 74 79                        	<unknown>
     6a4: 70 65                        	<unknown>
     6a6: 73 00 75 6e                  	<unknown>
     6aa: 73 69 67 6e                  	csrrsi	s2, 1766, 14
     6ae: 65 64                        	<unknown>
     6b0: 20 63                        	<unknown>
     6b2: 68 61                        	<unknown>
     6b4: 72 00                        	<unknown>
     6b6: 5f 61 64 64                  	<unknown>
     6ba: 00 5f                        	<unknown>
     6bc: 5f 55 4c 6f                  	<unknown>
     6c0: 6e 67                        	<unknown>
     6c2: 00 68                        	<unknown>
     6c4: 74 61                        	<unknown>
     6c6: 62 5f                        	<unknown>
     6c8: 65 71                        	<unknown>
     6ca: 5f 70 6f 69                  	<unknown>
     6ce: 6e 74                        	<unknown>
     6d0: 65 72                        	<unknown>
     6d2: 00 5f                        	<unknown>
     6d4: 5f 78 72 00                  	<unknown>
     6d8: 5f 67 6c 6f                  	<unknown>
     6dc: 62 61                        	<unknown>
     6de: 6c 5f                        	<unknown>
     6e0: 69 6d                        	<unknown>
     6e2: 70 75                        	<unknown>
     6e4: 72 65                        	<unknown>
     6e6: 5f 70 74 72                  	<unknown>
     6ea: 00 55                        	<unknown>
     6ec: 44 49                        	<unknown>
     6ee: 74 79                        	<unknown>
     6f0: 70 65                        	<unknown>
     6f2: 00 5f                        	<unknown>
     6f4: 73 74 64 6f                  	csrrci	s0, 1782, 8
     6f8: 75 74                        	<unknown>
     6fa: 00 5f                        	<unknown>
     6fc: 5f 74 6d 5f                  	<unknown>
     700: 77 64 61 79                  	<unknown>
     704: 00 5f                        	<unknown>
     706: 67 6c 75 65                  	<unknown>
     70a: 00 5f                        	<unknown>
     70c: 73 74 64 69                  	csrrci	s0, 1686, 8
     710: 6e 00                        	<unknown>
     712: 5f 73 73 69                  	<unknown>
     716: 7a 65                        	<unknown>
     718: 5f 74 00 5f                  	<unknown>
     71c: 6c 36                        	<unknown>
     71e: 34 61                        	<unknown>
     720: 5f 62 75 66                  	<unknown>
     724: 00 5f                        	<unknown>
     726: 73 69 67 5f                  	csrrsi	s2, 1526, 14
     72a: 66 75                        	<unknown>
     72c: 6e 63                        	<unknown>
     72e: 00 5f                        	<unknown>
     730: 5f 70 6f 70                  	<unknown>
     734: 63 6f 75 6e                  	bltu	a0, t2, 1790
     738: 74 5f                        	<unknown>
     73a: 74 61                        	<unknown>
     73c: 62 00                        	<unknown>
     73e: 5f 6e 62 75                  	<unknown>
     742: 66 00                        	<unknown>
     744: 5f 75 6e 75                  	<unknown>
     748: 73 65 64 00                  	csrrsi	a0, 6, 8
     74c: 5f 5f 72 30                  	<unknown>
     750: 00 5f                        	<unknown>
     752: 5f 72 31 00                  	<unknown>
     756: 5f 5f 74 6d                  	<unknown>
     75a: 5f 69 73 64                  	<unknown>
     75e: 73 74 00 5f                  	csrrci	s0, 1520, 0
     762: 6c 6f                        	<unknown>
     764: 63 61 6c 74                  	bltu	s8, t1, 1858
     768: 69 6d                        	<unknown>
     76a: 65 5f                        	<unknown>
     76c: 62 75                        	<unknown>
     76e: 66 00                        	<unknown>
     770: 5f 5f 74 6d                  	<unknown>
     774: 5f 6d 69 6e                  	<unknown>
     778: 00 5f                        	<unknown>
     77a: 72 34                        	<unknown>
     77c: 38 00                        	<unknown>
     77e: 41 42                        	<unknown>
     780: 49 5f                        	<unknown>
     782: 4c 50                        	<unknown>
     784: 36 34                        	<unknown>
     786: 44 00                        	<unknown>
     788: 6f 70 74 6f                  	j	294646
     78c: 70 74                        	<unknown>
     78e: 00 41                        	<unknown>
     790: 42 49                        	<unknown>
     792: 5f 4c 50 36                  	<unknown>
     796: 34 46                        	<unknown>
     798: 00 5f                        	<unknown>
     79a: 6d 62                        	<unknown>
     79c: 74 6f                        	<unknown>
     79e: 77 63 5f 73                  	<unknown>
     7a2: 74 61                        	<unknown>
     7a4: 74 65                        	<unknown>
     7a6: 00 5f                        	<unknown>
     7a8: 70 35                        	<unknown>
     7aa: 73 00 5f 5f                  	<unknown>
     7ae: 74 6d                        	<unknown>
     7b0: 5f 79 64 61                  	<unknown>
     7b4: 79 00                        	<unknown>
     7b6: 55 51                        	<unknown>
     7b8: 49 74                        	<unknown>
     7ba: 79 70                        	<unknown>
     7bc: 65 00                        	<unknown>
     7be: 5f 5f 73 62                  	<unknown>
     7c2: 75 66                        	<unknown>
     7c4: 00 5f                        	<unknown>
     7c6: 5f 74 6d 5f                  	<unknown>
     7ca: 6d 64                        	<unknown>
     7cc: 61 79                        	<unknown>
     7ce: 00 5f                        	<unknown>
     7d0: 72 61                        	<unknown>
     7d2: 6e 64                        	<unknown>
     7d4: 5f 6e 65 78                  	<unknown>
     7d8: 74 00                        	<unknown>
     7da: 68 74                        	<unknown>
     7dc: 61 62                        	<unknown>
     7de: 5f 65 71 00                  	<unknown>
     7e2: 47 4e 55 20                  	<unknown>
     7e6: 43 31 37 20                  	<unknown>
     7ea: 39 2e                        	<unknown>
     7ec: 32 2e                        	<unknown>
     7ee: 30 20                        	<unknown>
     7f0: 2d 6d                        	<unknown>
     7f2: 63 6d 6f 64                  	bltu	t5, t1, 1626
     7f6: 65 6c                        	<unknown>
     7f8: 3d 6d                        	<unknown>
     7fa: 65 64                        	<unknown>
     7fc: 6c 6f                        	<unknown>
     7fe: 77 20 2d 6d                  	<unknown>
     802: 63 6d 6f 64                  	bltu	t5, t1, 1626
     806: 65 6c                        	<unknown>
     808: 3d 6d                        	<unknown>
     80a: 65 64                        	<unknown>
     80c: 6c 6f                        	<unknown>
     80e: 77 20 2d 6d                  	<unknown>
     812: 74 75                        	<unknown>
     814: 6e 65                        	<unknown>
     816: 3d 72                        	<unknown>
     818: 6f 63 6b 65                  	jal	t1, 747094
     81c: 74 20                        	<unknown>
     81e: 2d 6d                        	<unknown>
     820: 61 72                        	<unknown>
     822: 63 68 3d 72                  	bltu	s10, gp, 1840
     826: 76 33                        	<unknown>
     828: 32 69                        	<unknown>
     82a: 6d 66                        	<unknown>
     82c: 20 2d                        	<unknown>
     82e: 6d 61                        	<unknown>
     830: 62 69                        	<unknown>
     832: 3d 69                        	<unknown>
     834: 6c 70                        	<unknown>
     836: 33 32 66 20                  	<unknown>
     83a: 2d 67                        	<unknown>
     83c: 20 2d                        	<unknown>
     83e: 4f 73 20 2d                  	<unknown>
     842: 4f 32 20 2d                  	<unknown>
     846: 4f 73 20 2d                  	<unknown>
     84a: 66 62                        	<unknown>
     84c: 75 69                        	<unknown>
     84e: 6c 64                        	<unknown>
     850: 69 6e                        	<unknown>
     852: 67 2d 6c 69                  	<unknown>
     856: 62 67                        	<unknown>
     858: 63 63 20 2d                  	bltu	zero, s2, 710
     85c: 66 6e                        	<unknown>
     85e: 6f 2d 73 74                  	jal	s10, 208710
     862: 61 63                        	<unknown>
     864: 6b 2d 70 72                  	<unknown>
     868: 6f 74 65 63                  	jal	s0, 357942
     86c: 74 6f                        	<unknown>
     86e: 72 20                        	<unknown>
     870: 2d 66                        	<unknown>
     872: 76 69                        	<unknown>
     874: 73 69 62 69                  	csrrsi	s2, 1686, 4
     878: 6c 69                        	<unknown>
     87a: 74 79                        	<unknown>
     87c: 3d 68                        	<unknown>
     87e: 69 64                        	<unknown>
     880: 64 65                        	<unknown>
     882: 6e 00                        	<unknown>

Disassembly of section .debug_loc:

00000000 .debug_loc:
       0: 00 00                        	<unknown>
       2: 00 00                        	<unknown>
       4: a0 00                        	<unknown>
       6: 00 00                        	<unknown>
       8: 06 00                        	<unknown>
       a: 5a 93                        	<unknown>
       c: 04 5b                        	<unknown>
       e: 93 04 a0 00                  	addi	s1, zero, 10
      12: 00 00                        	<unknown>
      14: 2c 01                        	<unknown>
      16: 00 00                        	<unknown>
      18: 06 00                        	<unknown>
      1a: f3 03 f5 0a                  	<unknown>
      1e: 25 9f                        	<unknown>
      20: 2c 01                        	<unknown>
      22: 00 00                        	<unknown>
      24: 84 01                        	<unknown>
      26: 00 00                        	<unknown>
      28: 06 00                        	<unknown>
      2a: 5a 93                        	<unknown>
      2c: 04 5b                        	<unknown>
      2e: 93 04 84 01                  	addi	s1, s0, 24
      32: 00 00                        	<unknown>
      34: 28 02                        	<unknown>
      36: 00 00                        	<unknown>
      38: 06 00                        	<unknown>
      3a: f3 03 f5 0a                  	<unknown>
      3e: 25 9f                        	<unknown>
      40: 28 02                        	<unknown>
      42: 00 00                        	<unknown>
      44: 44 02                        	<unknown>
      46: 00 00                        	<unknown>
      48: 06 00                        	<unknown>
      4a: 5a 93                        	<unknown>
      4c: 04 5b                        	<unknown>
      4e: 93 04 44 02                  	addi	s1, s0, 36
      52: 00 00                        	<unknown>
      54: e8 02                        	<unknown>
      56: 00 00                        	<unknown>
      58: 06 00                        	<unknown>
      5a: f3 03 f5 0a                  	<unknown>
      5e: 25 9f                        	<unknown>
      60: e8 02                        	<unknown>
      62: 00 00                        	<unknown>
      64: 08 03                        	<unknown>
      66: 00 00                        	<unknown>
      68: 06 00                        	<unknown>
      6a: 5a 93                        	<unknown>
      6c: 04 5b                        	<unknown>
      6e: 93 04 08 03                  	addi	s1, a6, 48
      72: 00 00                        	<unknown>
      74: 38 03                        	<unknown>
      76: 00 00                        	<unknown>
      78: 06 00                        	<unknown>
      7a: f3 03 f5 0a                  	<unknown>
      7e: 25 9f                        	<unknown>
      80: 38 03                        	<unknown>
      82: 00 00                        	<unknown>
      84: 4c 03                        	<unknown>
      86: 00 00                        	<unknown>
      88: 06 00                        	<unknown>
      8a: 5a 93                        	<unknown>
      8c: 04 5b                        	<unknown>
      8e: 93 04 4c 03                  	addi	s1, s8, 52
      92: 00 00                        	<unknown>
      94: 74 04                        	<unknown>
      96: 00 00                        	<unknown>
      98: 06 00                        	<unknown>
      9a: f3 03 f5 0a                  	<unknown>
      9e: 25 9f                        	<unknown>
      a0: 74 04                        	<unknown>
      a2: 00 00                        	<unknown>
      a4: 7c 04                        	<unknown>
      a6: 00 00                        	<unknown>
      a8: 06 00                        	<unknown>
      aa: 5a 93                        	<unknown>
      ac: 04 5b                        	<unknown>
      ae: 93 04 7c 04                  	addi	s1, s8, 71
      b2: 00 00                        	<unknown>
      b4: 80 04                        	<unknown>
      b6: 00 00                        	<unknown>
      b8: 06 00                        	<unknown>
      ba: f3 03 f5 0a                  	<unknown>
      be: 25 9f                        	<unknown>
		...
      cc: 38 00                        	<unknown>
      ce: 00 00                        	<unknown>
      d0: 06 00                        	<unknown>
      d2: 5c 93                        	<unknown>
      d4: 04 5d                        	<unknown>
      d6: 93 04 38 00                  	addi	s1, a6, 3
      da: 00 00                        	<unknown>
      dc: 80 04                        	<unknown>
      de: 00 00                        	<unknown>
      e0: 06 00                        	<unknown>
      e2: f3 03 f5 0c                  	<unknown>
      e6: 25 9f                        	<unknown>
		...
      f0: 04 00                        	<unknown>
      f2: 00 00                        	<unknown>
      f4: 0c 00                        	<unknown>
      f6: 00 00                        	<unknown>
      f8: 02 00                        	<unknown>
      fa: 30 9f                        	<unknown>
      fc: 0c 00                        	<unknown>
      fe: 00 00                        	<unknown>
     100: 20 00                        	<unknown>
     102: 00 00                        	<unknown>
     104: 03 00 09 ff                  	lb	zero, -16(s2)
     108: 9f 20 00 00                  	<unknown>
     10c: 00 80                        	<unknown>
     10e: 04 00                        	<unknown>
     110: 00 01                        	<unknown>
     112: 00 60                        	<unknown>
		...
     11c: 04 00                        	<unknown>
     11e: 00 00                        	<unknown>
     120: 0c 00                        	<unknown>
     122: 00 00                        	<unknown>
     124: 06 00                        	<unknown>
     126: 5a 93                        	<unknown>
     128: 04 5b                        	<unknown>
     12a: 93 04 00 00                  	mv	s1, zero
     12e: 00 00                        	<unknown>
     130: 00 00                        	<unknown>
     132: 00 00                        	<unknown>
     134: 04 00                        	<unknown>
     136: 00 00                        	<unknown>
     138: 30 00                        	<unknown>
     13a: 00 00                        	<unknown>
     13c: 06 00                        	<unknown>
     13e: 5c 93                        	<unknown>
     140: 04 5d                        	<unknown>
     142: 93 04 00 00                  	mv	s1, zero
     146: 00 00                        	<unknown>
     148: 00 00                        	<unknown>
     14a: 00 00                        	<unknown>
     14c: 10 02                        	<unknown>
     14e: 00 00                        	<unknown>
     150: 24 02                        	<unknown>
     152: 00 00                        	<unknown>
     154: 06 00                        	<unknown>
     156: 5a 93                        	<unknown>
     158: 04 56                        	<unknown>
     15a: 93 04 00 00                  	mv	s1, zero
     15e: 00 00                        	<unknown>
     160: 00 00                        	<unknown>
     162: 00 00                        	<unknown>
     164: 38 00                        	<unknown>
     166: 00 00                        	<unknown>
     168: 10 02                        	<unknown>
     16a: 00 00                        	<unknown>
     16c: 02 00                        	<unknown>
     16e: 30 9f                        	<unknown>
     170: 28 02                        	<unknown>
     172: 00 00                        	<unknown>
     174: 80 04                        	<unknown>
     176: 00 00                        	<unknown>
     178: 02 00                        	<unknown>
     17a: 30 9f                        	<unknown>
		...
     184: 3c 00                        	<unknown>
     186: 00 00                        	<unknown>
     188: 88 00                        	<unknown>
     18a: 00 00                        	<unknown>
     18c: 01 00                        	<unknown>
     18e: 5c 88                        	<unknown>
     190: 00 00                        	<unknown>
     192: 00 94                        	<unknown>
     194: 00 00                        	<unknown>
     196: 00 09                        	<unknown>
     198: 00 7c                        	<unknown>
     19a: 00 7e                        	<unknown>
     19c: 00 08                        	<unknown>
     19e: ff 1a 24 9f                  	<unknown>
     1a2: 94 00                        	<unknown>
     1a4: 00 00                        	<unknown>
     1a6: 24 01                        	<unknown>
     1a8: 00 00                        	<unknown>
     1aa: 01 00                        	<unknown>
     1ac: 61 2c                        	<unknown>
     1ae: 01 00                        	<unknown>
     1b0: 00 48                        	<unknown>
     1b2: 01 00                        	<unknown>
     1b4: 00 01                        	<unknown>
     1b6: 00 5c                        	<unknown>
     1b8: 48 01                        	<unknown>
     1ba: 00 00                        	<unknown>
     1bc: 4c 01                        	<unknown>
     1be: 00 00                        	<unknown>
     1c0: 0b 00 31 f7                  	<unknown>
     1c4: 2c 7d                        	<unknown>
     1c6: 00 f7                        	<unknown>
     1c8: 2c 1b                        	<unknown>
     1ca: f7 00 9f 4c                  	<unknown>
     1ce: 01 00                        	<unknown>
     1d0: 00 0c                        	<unknown>
     1d2: 02 00                        	<unknown>
     1d4: 00 01                        	<unknown>
     1d6: 00 61                        	<unknown>
     1d8: 28 02                        	<unknown>
     1da: 00 00                        	<unknown>
     1dc: 3c 02                        	<unknown>
     1de: 00 00                        	<unknown>
     1e0: 01 00                        	<unknown>
     1e2: 61 3c                        	<unknown>
     1e4: 02 00                        	<unknown>
     1e6: 00 40                        	<unknown>
     1e8: 02 00                        	<unknown>
     1ea: 00 09                        	<unknown>
     1ec: 00 81                        	<unknown>
     1ee: 00 7e                        	<unknown>
     1f0: 00 08                        	<unknown>
     1f2: ff 1a 24 9f                  	<unknown>
     1f6: 40 02                        	<unknown>
     1f8: 00 00                        	<unknown>
     1fa: e8 02                        	<unknown>
     1fc: 00 00                        	<unknown>
     1fe: 01 00                        	<unknown>
     200: 61 e8                        	<unknown>
     202: 02 00                        	<unknown>
     204: 00 74                        	<unknown>
     206: 03 00 00 01                  	lb	zero, 16(zero)
     20a: 00 5c                        	<unknown>
     20c: 74 03                        	<unknown>
     20e: 00 00                        	<unknown>
     210: 14 04                        	<unknown>
     212: 00 00                        	<unknown>
     214: 01 00                        	<unknown>
     216: 6e 74                        	<unknown>
     218: 04 00                        	<unknown>
     21a: 00 80                        	<unknown>
     21c: 04 00                        	<unknown>
     21e: 00 01                        	<unknown>
     220: 00 5c                        	<unknown>
		...
     22a: 58 03                        	<unknown>
     22c: 00 00                        	<unknown>
     22e: 00 04                        	<unknown>
     230: 00 00                        	<unknown>
     232: 01 00                        	<unknown>
     234: 5d 00                        	<unknown>
     236: 00 00                        	<unknown>
     238: 00 00                        	<unknown>
     23a: 00 00                        	<unknown>
     23c: 00 44                        	<unknown>
     23e: 00 00                        	<unknown>
     240: 00 9c                        	<unknown>
     242: 00 00                        	<unknown>
     244: 00 01                        	<unknown>
     246: 00 6c                        	<unknown>
     248: 9c 00                        	<unknown>
     24a: 00 00                        	<unknown>
     24c: ec 00                        	<unknown>
     24e: 00 00                        	<unknown>
     250: 01 00                        	<unknown>
     252: 6d 2c                        	<unknown>
     254: 01 00                        	<unknown>
     256: 00 84                        	<unknown>
     258: 01 00                        	<unknown>
     25a: 00 01                        	<unknown>
     25c: 00 6c                        	<unknown>
     25e: 84 01                        	<unknown>
     260: 00 00                        	<unknown>
     262: d4 01                        	<unknown>
     264: 00 00                        	<unknown>
     266: 01 00                        	<unknown>
     268: 6d 28                        	<unknown>
     26a: 02 00                        	<unknown>
     26c: 00 54                        	<unknown>
     26e: 02 00                        	<unknown>
     270: 00 01                        	<unknown>
     272: 00 6c                        	<unknown>
     274: 58 02                        	<unknown>
     276: 00 00                        	<unknown>
     278: e8 02                        	<unknown>
     27a: 00 00                        	<unknown>
     27c: 01 00                        	<unknown>
     27e: 6d e8                        	<unknown>
     280: 02 00                        	<unknown>
     282: 00 74                        	<unknown>
     284: 03 00 00 01                  	lb	zero, 16(zero)
     288: 00 6c                        	<unknown>
     28a: 74 03                        	<unknown>
     28c: 00 00                        	<unknown>
     28e: 60 04                        	<unknown>
     290: 00 00                        	<unknown>
     292: 06 00                        	<unknown>
     294: 8c 00                        	<unknown>
     296: 76 00                        	<unknown>
     298: 24 9f                        	<unknown>
     29a: 74 04                        	<unknown>
     29c: 00 00                        	<unknown>
     29e: 80 04                        	<unknown>
     2a0: 00 00                        	<unknown>
     2a2: 01 00                        	<unknown>
     2a4: 6c 00                        	<unknown>
     2a6: 00 00                        	<unknown>
     2a8: 00 00                        	<unknown>
     2aa: 00 00                        	<unknown>
     2ac: 00 98                        	<unknown>
     2ae: 00 00                        	<unknown>
     2b0: 00 bc                        	<unknown>
     2b2: 00 00                        	<unknown>
     2b4: 00 01                        	<unknown>
     2b6: 00 56                        	<unknown>
     2b8: 80 01                        	<unknown>
     2ba: 00 00                        	<unknown>
     2bc: a0 01                        	<unknown>
     2be: 00 00                        	<unknown>
     2c0: 01 00                        	<unknown>
     2c2: 5b 58 02 00                  	<unknown>
     2c6: 00 a4                        	<unknown>
     2c8: 02 00                        	<unknown>
     2ca: 00 01                        	<unknown>
     2cc: 00 5c                        	<unknown>
     2ce: e4 02                        	<unknown>
     2d0: 00 00                        	<unknown>
     2d2: e8 02                        	<unknown>
     2d4: 00 00                        	<unknown>
     2d6: 01 00                        	<unknown>
     2d8: 5b 74 03 00                  	<unknown>
     2dc: 00 bc                        	<unknown>
     2de: 03 00 00 01                  	lb	zero, 16(zero)
     2e2: 00 5b                        	<unknown>
     2e4: 08 04                        	<unknown>
     2e6: 00 00                        	<unknown>
     2e8: 4c 04                        	<unknown>
     2ea: 00 00                        	<unknown>
     2ec: 01 00                        	<unknown>
     2ee: 5e 00                        	<unknown>
     2f0: 00 00                        	<unknown>
     2f2: 00 00                        	<unknown>
     2f4: 00 00                        	<unknown>
     2f6: 00 44                        	<unknown>
     2f8: 02 00                        	<unknown>
     2fa: 00 6c                        	<unknown>
     2fc: 02 00                        	<unknown>
     2fe: 00 01                        	<unknown>
     300: 00 5a                        	<unknown>
     302: 74 03                        	<unknown>
     304: 00 00                        	<unknown>
     306: 84 03                        	<unknown>
     308: 00 00                        	<unknown>
     30a: 01 00                        	<unknown>
     30c: 5a 00                        	<unknown>
     30e: 00 00                        	<unknown>
     310: 00 00                        	<unknown>
     312: 00 00                        	<unknown>
     314: 00 24                        	<unknown>
     316: 01 00                        	<unknown>
     318: 00 2c                        	<unknown>
     31a: 01 00                        	<unknown>
     31c: 00 01                        	<unknown>
     31e: 00 5a                        	<unknown>
     320: 0c 02                        	<unknown>
     322: 00 00                        	<unknown>
     324: 10 02                        	<unknown>
     326: 00 00                        	<unknown>
     328: 01 00                        	<unknown>
     32a: 5a 08                        	<unknown>
     32c: 04 00                        	<unknown>
     32e: 00 74                        	<unknown>
     330: 04 00                        	<unknown>
     332: 00 01                        	<unknown>
     334: 00 5a                        	<unknown>
		...
     33e: 80 01                        	<unknown>
     340: 00 00                        	<unknown>
     342: 84 01                        	<unknown>
     344: 00 00                        	<unknown>
     346: 02 00                        	<unknown>
     348: 31 9f                        	<unknown>
     34a: 84 01                        	<unknown>
     34c: 00 00                        	<unknown>
     34e: 10 02                        	<unknown>
     350: 00 00                        	<unknown>
     352: 01 00                        	<unknown>
     354: 56 e4                        	<unknown>
     356: 02 00                        	<unknown>
     358: 00 e8                        	<unknown>
     35a: 02 00                        	<unknown>
     35c: 00 01                        	<unknown>
     35e: 00 56                        	<unknown>
		...
     368: 3c 02                        	<unknown>
     36a: 00 00                        	<unknown>
     36c: 50 02                        	<unknown>
     36e: 00 00                        	<unknown>
     370: 01 00                        	<unknown>
     372: 5f 4c 03 00                  	<unknown>
     376: 00 64                        	<unknown>
     378: 03 00 00 01                  	lb	zero, 16(zero)
     37c: 00 5e                        	<unknown>
		...
     386: 84 00                        	<unknown>
     388: 00 00                        	<unknown>
     38a: b4 00                        	<unknown>
     38c: 00 00                        	<unknown>
     38e: 01 00                        	<unknown>
     390: 5e 78                        	<unknown>
     392: 01 00                        	<unknown>
     394: 00 84                        	<unknown>
     396: 01 00                        	<unknown>
     398: 00 01                        	<unknown>
     39a: 00 5e                        	<unknown>
     39c: 3c 02                        	<unknown>
     39e: 00 00                        	<unknown>
     3a0: 68 02                        	<unknown>
     3a2: 00 00                        	<unknown>
     3a4: 01 00                        	<unknown>
     3a6: 5e 20                        	<unknown>
     3a8: 03 00 00 38                  	lb	zero, 896(zero)
     3ac: 03 00 00 01                  	lb	zero, 16(zero)
     3b0: 00 56                        	<unknown>
     3b2: 4c 03                        	<unknown>
     3b4: 00 00                        	<unknown>
     3b6: 68 04                        	<unknown>
     3b8: 00 00                        	<unknown>
     3ba: 01 00                        	<unknown>
     3bc: 56 00                        	<unknown>
     3be: 00 00                        	<unknown>
     3c0: 00 00                        	<unknown>
     3c2: 00 00                        	<unknown>
     3c4: 00 58                        	<unknown>
     3c6: 00 00                        	<unknown>
     3c8: 00 88                        	<unknown>
     3ca: 00 00                        	<unknown>
     3cc: 00 01                        	<unknown>
     3ce: 00 5c                        	<unknown>
     3d0: 88 00                        	<unknown>
     3d2: 00 00                        	<unknown>
     3d4: 94 00                        	<unknown>
     3d6: 00 00                        	<unknown>
     3d8: 09 00                        	<unknown>
     3da: 7c 00                        	<unknown>
     3dc: 7e 00                        	<unknown>
     3de: 08 ff                        	<unknown>
     3e0: 1a 24                        	<unknown>
     3e2: 9f 94 00 00                  	<unknown>
     3e6: 00 24                        	<unknown>
     3e8: 01 00                        	<unknown>
     3ea: 00 01                        	<unknown>
     3ec: 00 61                        	<unknown>
     3ee: 2c 01                        	<unknown>
     3f0: 00 00                        	<unknown>
     3f2: 40 01                        	<unknown>
     3f4: 00 00                        	<unknown>
     3f6: 01 00                        	<unknown>
     3f8: 5c 00                        	<unknown>
     3fa: 00 00                        	<unknown>
     3fc: 00 00                        	<unknown>
     3fe: 00 00                        	<unknown>
     400: 00 6c                        	<unknown>
     402: 00 00                        	<unknown>
     404: 00 80                        	<unknown>
     406: 00 00                        	<unknown>
     408: 00 01                        	<unknown>
     40a: 00 5f                        	<unknown>
		...
     414: a0 00                        	<unknown>
     416: 00 00                        	<unknown>
     418: 20 01                        	<unknown>
     41a: 00 00                        	<unknown>
     41c: 01 00                        	<unknown>
     41e: 5a 20                        	<unknown>
     420: 01 00                        	<unknown>
     422: 00 24                        	<unknown>
     424: 01 00                        	<unknown>
     426: 00 05                        	<unknown>
     428: 00 81                        	<unknown>
     42a: 00 40                        	<unknown>
     42c: 25 9f                        	<unknown>
		...
     436: ac 00                        	<unknown>
     438: 00 00                        	<unknown>
     43a: 00 01                        	<unknown>
     43c: 00 00                        	<unknown>
     43e: 01 00                        	<unknown>
     440: 5c 00                        	<unknown>
     442: 01 00                        	<unknown>
     444: 00 24                        	<unknown>
     446: 01 00                        	<unknown>
     448: 00 07                        	<unknown>
     44a: 00 81                        	<unknown>
     44c: 00 40                        	<unknown>
     44e: 24 40                        	<unknown>
     450: 25 9f                        	<unknown>
		...
     45a: b4 00                        	<unknown>
     45c: 00 00                        	<unknown>
     45e: d0 00                        	<unknown>
     460: 00 00                        	<unknown>
     462: 01 00                        	<unknown>
     464: 5b d0 00 00                  	<unknown>
     468: 00 24                        	<unknown>
     46a: 01 00                        	<unknown>
     46c: 00 01                        	<unknown>
     46e: 00 5d                        	<unknown>
		...
     478: f4 00                        	<unknown>
     47a: 00 00                        	<unknown>
     47c: 10 01                        	<unknown>
     47e: 00 00                        	<unknown>
     480: 01 00                        	<unknown>
     482: 5f 10 01 00                  	<unknown>
     486: 00 24                        	<unknown>
     488: 01 00                        	<unknown>
     48a: 00 01                        	<unknown>
     48c: 00 5e                        	<unknown>
		...
     496: b4 00                        	<unknown>
     498: 00 00                        	<unknown>
     49a: c0 00                        	<unknown>
     49c: 00 00                        	<unknown>
     49e: 01 00                        	<unknown>
     4a0: 5e c4                        	<unknown>
     4a2: 00 00                        	<unknown>
     4a4: 00 cc                        	<unknown>
     4a6: 00 00                        	<unknown>
     4a8: 00 01                        	<unknown>
     4aa: 00 5f                        	<unknown>
     4ac: cc 00                        	<unknown>
     4ae: 00 00                        	<unknown>
     4b0: d0 00                        	<unknown>
     4b2: 00 00                        	<unknown>
     4b4: 08 00                        	<unknown>
     4b6: 8d 00                        	<unknown>
     4b8: 40 25                        	<unknown>
     4ba: 7e 00                        	<unknown>
     4bc: 21 9f                        	<unknown>
     4be: d0 00                        	<unknown>
     4c0: 00 00                        	<unknown>
     4c2: f4 00                        	<unknown>
     4c4: 00 00                        	<unknown>
     4c6: 01 00                        	<unknown>
     4c8: 5f 00 00 00                  	<unknown>
     4cc: 00 00                        	<unknown>
     4ce: 00 00                        	<unknown>
     4d0: 00 e8                        	<unknown>
     4d2: 00 00                        	<unknown>
     4d4: 00 f8                        	<unknown>
     4d6: 00 00                        	<unknown>
     4d8: 00 01                        	<unknown>
     4da: 00 5e                        	<unknown>
     4dc: 00 01                        	<unknown>
     4de: 00 00                        	<unknown>
     4e0: 0c 01                        	<unknown>
     4e2: 00 00                        	<unknown>
     4e4: 01 00                        	<unknown>
     4e6: 6d 00                        	<unknown>
     4e8: 00 00                        	<unknown>
     4ea: 00 00                        	<unknown>
     4ec: 00 00                        	<unknown>
     4ee: 00 bc                        	<unknown>
     4f0: 00 00                        	<unknown>
     4f2: 00 00                        	<unknown>
     4f4: 01 00                        	<unknown>
     4f6: 00 01                        	<unknown>
     4f8: 00 56                        	<unknown>
     4fa: 00 01                        	<unknown>
     4fc: 00 00                        	<unknown>
     4fe: 24 01                        	<unknown>
     500: 00 00                        	<unknown>
     502: 01 00                        	<unknown>
     504: 5c 00                        	<unknown>
     506: 00 00                        	<unknown>
     508: 00 00                        	<unknown>
     50a: 00 00                        	<unknown>
     50c: 00 40                        	<unknown>
     50e: 04 00                        	<unknown>
     510: 00 70                        	<unknown>
     512: 04 00                        	<unknown>
     514: 00 01                        	<unknown>
     516: 00 5c                        	<unknown>
		...
     520: 40 04                        	<unknown>
     522: 00 00                        	<unknown>
     524: 54 04                        	<unknown>
     526: 00 00                        	<unknown>
     528: 10 00                        	<unknown>
     52a: 81 00                        	<unknown>
     52c: 0a ff                        	<unknown>
     52e: ff 1a 7f 00                  	<unknown>
     532: 0a ff                        	<unknown>
     534: ff 1a 40 24                  	<unknown>
     538: 22 9f                        	<unknown>
     53a: 54 04                        	<unknown>
     53c: 00 00                        	<unknown>
     53e: 5c 04                        	<unknown>
     540: 00 00                        	<unknown>
     542: 15 00                        	<unknown>
     544: 81 00                        	<unknown>
     546: 0a ff                        	<unknown>
     548: ff 1a 81 00                  	<unknown>
     54c: 40 25                        	<unknown>
     54e: 7b 00 22 0a                  	<unknown>
     552: ff ff 1a 40                  	<unknown>
     556: 24 22                        	<unknown>
     558: 9f 00 00 00                  	<unknown>
     55c: 00 00                        	<unknown>
     55e: 00 00                        	<unknown>
     560: 00 74                        	<unknown>
     562: 03 00 00 74                  	lb	zero, 1856(zero)
     566: 04 00                        	<unknown>
     568: 00 01                        	<unknown>
     56a: 00 6f                        	<unknown>
		...
     574: 7c 03                        	<unknown>
     576: 00 00                        	<unknown>
     578: d0 03                        	<unknown>
     57a: 00 00                        	<unknown>
     57c: 01 00                        	<unknown>
     57e: 5c d0                        	<unknown>
     580: 03 00 00 00                  	lb	zero, 0(zero)
     584: 04 00                        	<unknown>
     586: 00 07                        	<unknown>
     588: 00 7d                        	<unknown>
     58a: 00 40                        	<unknown>
     58c: 24 40                        	<unknown>
     58e: 25 9f                        	<unknown>
		...
     598: 84 03                        	<unknown>
     59a: 00 00                        	<unknown>
     59c: a0 03                        	<unknown>
     59e: 00 00                        	<unknown>
     5a0: 01 00                        	<unknown>
     5a2: 5a a0                        	<unknown>
     5a4: 03 00 00 f8                  	lb	zero, -128(zero)
     5a8: 03 00 00 01                  	lb	zero, 16(zero)
     5ac: 00 6d                        	<unknown>
		...
     5b6: c4 03                        	<unknown>
     5b8: 00 00                        	<unknown>
     5ba: e0 03                        	<unknown>
     5bc: 00 00                        	<unknown>
     5be: 01 00                        	<unknown>
     5c0: 5f e0 03 00                  	<unknown>
     5c4: 00 04                        	<unknown>
     5c6: 04 00                        	<unknown>
     5c8: 00 01                        	<unknown>
     5ca: 00 5b                        	<unknown>
		...
     5d4: 7c 03                        	<unknown>
     5d6: 00 00                        	<unknown>
     5d8: 88 03                        	<unknown>
     5da: 00 00                        	<unknown>
     5dc: 01 00                        	<unknown>
     5de: 5e 90                        	<unknown>
     5e0: 03 00 00 9c                  	lb	zero, -1600(zero)
     5e4: 03 00 00 01                  	lb	zero, 16(zero)
     5e8: 00 5f                        	<unknown>
     5ea: 9c 03                        	<unknown>
     5ec: 00 00                        	<unknown>
     5ee: a0 03                        	<unknown>
     5f0: 00 00                        	<unknown>
     5f2: 08 00                        	<unknown>
     5f4: 7b 00 40 25                  	<unknown>
     5f8: 7e 00                        	<unknown>
     5fa: 21 9f                        	<unknown>
     5fc: a0 03                        	<unknown>
     5fe: 00 00                        	<unknown>
     600: c4 03                        	<unknown>
     602: 00 00                        	<unknown>
     604: 01 00                        	<unknown>
     606: 5f 00 00 00                  	<unknown>
     60a: 00 00                        	<unknown>
     60c: 00 00                        	<unknown>
     60e: 00 b8                        	<unknown>
     610: 03 00 00 c8                  	lb	zero, -896(zero)
     614: 03 00 00 01                  	lb	zero, 16(zero)
     618: 00 61                        	<unknown>
     61a: d0 03                        	<unknown>
     61c: 00 00                        	<unknown>
     61e: dc 03                        	<unknown>
     620: 00 00                        	<unknown>
     622: 01 00                        	<unknown>
     624: 5e e0                        	<unknown>
     626: 03 00 00 4c                  	lb	zero, 1216(zero)
     62a: 04 00                        	<unknown>
     62c: 00 01                        	<unknown>
     62e: 00 5e                        	<unknown>
		...
     638: 90 03                        	<unknown>
     63a: 00 00                        	<unknown>
     63c: b8 03                        	<unknown>
     63e: 00 00                        	<unknown>
     640: 01 00                        	<unknown>
     642: 61 b8                        	<unknown>
     644: 03 00 00 d0                  	lb	zero, -768(zero)
     648: 03 00 00 06                  	lb	zero, 96(zero)
     64c: 00 7c                        	<unknown>
     64e: 00 7a                        	<unknown>
     650: 00 1e                        	<unknown>
     652: 9f d0 03 00                  	<unknown>
     656: 00 10                        	<unknown>
     658: 04 00                        	<unknown>
     65a: 00 01                        	<unknown>
     65c: 00 5c                        	<unknown>
		...
     666: 18 04                        	<unknown>
     668: 00 00                        	<unknown>
     66a: 5c 04                        	<unknown>
     66c: 00 00                        	<unknown>
     66e: 01 00                        	<unknown>
     670: 61 00                        	<unknown>
     672: 00 00                        	<unknown>
     674: 00 00                        	<unknown>
     676: 00 00                        	<unknown>
     678: 00 18                        	<unknown>
     67a: 04 00                        	<unknown>
     67c: 00 24                        	<unknown>
     67e: 04 00                        	<unknown>
     680: 00 06                        	<unknown>
     682: 00 7b                        	<unknown>
     684: 00 8e                        	<unknown>
     686: 00 1e                        	<unknown>
     688: 9f 24 04 00                  	<unknown>
     68c: 00 28                        	<unknown>
     68e: 04 00                        	<unknown>
     690: 00 01                        	<unknown>
     692: 00 5b                        	<unknown>
     694: 28 04                        	<unknown>
     696: 00 00                        	<unknown>
     698: 30 04                        	<unknown>
     69a: 00 00                        	<unknown>
     69c: 09 00                        	<unknown>
     69e: 8d 7f                        	<unknown>
     6a0: 7a 00                        	<unknown>
     6a2: 1a 8e                        	<unknown>
     6a4: 00 1e                        	<unknown>
     6a6: 9f 30 04 00                  	<unknown>
     6aa: 00 54                        	<unknown>
     6ac: 04 00                        	<unknown>
     6ae: 00 01                        	<unknown>
     6b0: 00 5f                        	<unknown>
     6b2: 54 04                        	<unknown>
     6b4: 00 00                        	<unknown>
     6b6: 5c 04                        	<unknown>
     6b8: 00 00                        	<unknown>
     6ba: 08 00                        	<unknown>
     6bc: 81 00                        	<unknown>
     6be: 40 25                        	<unknown>
     6c0: 7b 00 22 9f                  	<unknown>
		...
     6cc: 1c 04                        	<unknown>
     6ce: 00 00                        	<unknown>
     6d0: 3c 04                        	<unknown>
     6d2: 00 00                        	<unknown>
     6d4: 01 00                        	<unknown>
     6d6: 5d 00                        	<unknown>
     6d8: 00 00                        	<unknown>
     6da: 00 00                        	<unknown>
     6dc: 00 00                        	<unknown>
     6de: 00 30                        	<unknown>
     6e0: 04 00                        	<unknown>
     6e2: 00 40                        	<unknown>
     6e4: 04 00                        	<unknown>
     6e6: 00 01                        	<unknown>
     6e8: 00 5c                        	<unknown>
		...
     6f2: 08 04                        	<unknown>
     6f4: 00 00                        	<unknown>
     6f6: 24 04                        	<unknown>
     6f8: 00 00                        	<unknown>
     6fa: 01 00                        	<unknown>
     6fc: 5b 24 04 00                  	<unknown>
     700: 00 50                        	<unknown>
     702: 04 00                        	<unknown>
     704: 00 06                        	<unknown>
     706: 00 8d                        	<unknown>
     708: 7f 7a 00 1a                  	<unknown>
     70c: 9f 50 04 00                  	<unknown>
     710: 00 6c                        	<unknown>
     712: 04 00                        	<unknown>
     714: 00 06                        	<unknown>
     716: 00 7a                        	<unknown>
     718: 00 7e                        	<unknown>
     71a: 00 1a                        	<unknown>
     71c: 9f 6c 04 00                  	<unknown>
     720: 00 70                        	<unknown>
     722: 04 00                        	<unknown>
     724: 00 06                        	<unknown>
     726: 00 8d                        	<unknown>
     728: 7f 7a 00 1a                  	<unknown>
     72c: 9f 70 04 00                  	<unknown>
     730: 00 74                        	<unknown>
     732: 04 00                        	<unknown>
     734: 00 06                        	<unknown>
     736: 00 7a                        	<unknown>
     738: 01 8d                        	<unknown>
     73a: 7f 1a 9f 00                  	<unknown>
     73e: 00 00                        	<unknown>
     740: 00 00                        	<unknown>
     742: 00 00                        	<unknown>
     744: 00 10                        	<unknown>
     746: 04 00                        	<unknown>
     748: 00 1c                        	<unknown>
     74a: 04 00                        	<unknown>
     74c: 00 01                        	<unknown>
     74e: 00 5d                        	<unknown>
		...
     758: 10 04                        	<unknown>
     75a: 00 00                        	<unknown>
     75c: 30 04                        	<unknown>
     75e: 00 00                        	<unknown>
     760: 01 00                        	<unknown>
     762: 5c 30                        	<unknown>
     764: 04 00                        	<unknown>
     766: 00 70                        	<unknown>
     768: 04 00                        	<unknown>
     76a: 00 05                        	<unknown>
     76c: 00 7a                        	<unknown>
     76e: 00 40                        	<unknown>
     770: 25 9f                        	<unknown>
     772: 70 04                        	<unknown>
     774: 00 00                        	<unknown>
     776: 74 04                        	<unknown>
     778: 00 00                        	<unknown>
     77a: 05 00                        	<unknown>
     77c: 7a 01                        	<unknown>
     77e: 40 25                        	<unknown>
     780: 9f 00 00 00                  	<unknown>
     784: 00 00                        	<unknown>
     786: 00 00                        	<unknown>
     788: 00 14                        	<unknown>
     78a: 04 00                        	<unknown>
     78c: 00 74                        	<unknown>
     78e: 04 00                        	<unknown>
     790: 00 01                        	<unknown>
     792: 00 6e                        	<unknown>
		...
     79c: 4c 01                        	<unknown>
     79e: 00 00                        	<unknown>
     7a0: 0c 02                        	<unknown>
     7a2: 00 00                        	<unknown>
     7a4: 01 00                        	<unknown>
     7a6: 61 28                        	<unknown>
     7a8: 02 00                        	<unknown>
     7aa: 00 3c                        	<unknown>
     7ac: 02 00                        	<unknown>
     7ae: 00 01                        	<unknown>
     7b0: 00 61                        	<unknown>
     7b2: 3c 02                        	<unknown>
     7b4: 00 00                        	<unknown>
     7b6: 40 02                        	<unknown>
     7b8: 00 00                        	<unknown>
     7ba: 09 00                        	<unknown>
     7bc: 81 00                        	<unknown>
     7be: 7e 00                        	<unknown>
     7c0: 08 ff                        	<unknown>
     7c2: 1a 24                        	<unknown>
     7c4: 9f 40 02 00                  	<unknown>
     7c8: 00 e8                        	<unknown>
     7ca: 02 00                        	<unknown>
     7cc: 00 01                        	<unknown>
     7ce: 00 61                        	<unknown>
		...
     7d8: 60 01                        	<unknown>
     7da: 00 00                        	<unknown>
     7dc: 0c 02                        	<unknown>
     7de: 00 00                        	<unknown>
     7e0: 01 00                        	<unknown>
     7e2: 6f 3c 02 00                  	jal	s8, 143360
     7e6: 00 e8                        	<unknown>
     7e8: 02 00                        	<unknown>
     7ea: 00 01                        	<unknown>
     7ec: 00 6f                        	<unknown>
		...
     7f6: 88 01                        	<unknown>
     7f8: 00 00                        	<unknown>
     7fa: 08 02                        	<unknown>
     7fc: 00 00                        	<unknown>
     7fe: 01 00                        	<unknown>
     800: 5a 08                        	<unknown>
     802: 02 00                        	<unknown>
     804: 00 0c                        	<unknown>
     806: 02 00                        	<unknown>
     808: 00 05                        	<unknown>
     80a: 00 81                        	<unknown>
     80c: 00 40                        	<unknown>
     80e: 25 9f                        	<unknown>
		...
     818: 90 01                        	<unknown>
     81a: 00 00                        	<unknown>
     81c: e8 01                        	<unknown>
     81e: 00 00                        	<unknown>
     820: 01 00                        	<unknown>
     822: 5c e8                        	<unknown>
     824: 01 00                        	<unknown>
     826: 00 0c                        	<unknown>
     828: 02 00                        	<unknown>
     82a: 00 07                        	<unknown>
     82c: 00 81                        	<unknown>
     82e: 00 40                        	<unknown>
     830: 24 40                        	<unknown>
     832: 25 9f                        	<unknown>
		...
     83c: 9c 01                        	<unknown>
     83e: 00 00                        	<unknown>
     840: b8 01                        	<unknown>
     842: 00 00                        	<unknown>
     844: 01 00                        	<unknown>
     846: 5f b8 01 00                  	<unknown>
     84a: 00 0c                        	<unknown>
     84c: 02 00                        	<unknown>
     84e: 00 01                        	<unknown>
     850: 00 5d                        	<unknown>
		...
     85a: dc 01                        	<unknown>
     85c: 00 00                        	<unknown>
     85e: f8 01                        	<unknown>
     860: 00 00                        	<unknown>
     862: 01 00                        	<unknown>
     864: 5e f8                        	<unknown>
     866: 01 00                        	<unknown>
     868: 00 0c                        	<unknown>
     86a: 02 00                        	<unknown>
     86c: 00 01                        	<unknown>
     86e: 00 5f                        	<unknown>
		...
     878: 9c 01                        	<unknown>
     87a: 00 00                        	<unknown>
     87c: a4 01                        	<unknown>
     87e: 00 00                        	<unknown>
     880: 01 00                        	<unknown>
     882: 5d a8                        	<unknown>
     884: 01 00                        	<unknown>
     886: 00 b4                        	<unknown>
     888: 01 00                        	<unknown>
     88a: 00 01                        	<unknown>
     88c: 00 5e                        	<unknown>
     88e: b8 01                        	<unknown>
     890: 00 00                        	<unknown>
     892: dc 01                        	<unknown>
     894: 00 00                        	<unknown>
     896: 01 00                        	<unknown>
     898: 5e 00                        	<unknown>
     89a: 00 00                        	<unknown>
     89c: 00 00                        	<unknown>
     89e: 00 00                        	<unknown>
     8a0: 00 d0                        	<unknown>
     8a2: 01 00                        	<unknown>
     8a4: 00 e0                        	<unknown>
     8a6: 01 00                        	<unknown>
     8a8: 00 01                        	<unknown>
     8aa: 00 5f                        	<unknown>
     8ac: e8 01                        	<unknown>
     8ae: 00 00                        	<unknown>
     8b0: f4 01                        	<unknown>
     8b2: 00 00                        	<unknown>
     8b4: 01 00                        	<unknown>
     8b6: 6d 00                        	<unknown>
     8b8: 00 00                        	<unknown>
     8ba: 00 00                        	<unknown>
     8bc: 00 00                        	<unknown>
     8be: 00 a0                        	<unknown>
     8c0: 01 00                        	<unknown>
     8c2: 00 e8                        	<unknown>
     8c4: 01 00                        	<unknown>
     8c6: 00 01                        	<unknown>
     8c8: 00 5b                        	<unknown>
     8ca: e8 01                        	<unknown>
     8cc: 00 00                        	<unknown>
     8ce: 0c 02                        	<unknown>
     8d0: 00 00                        	<unknown>
     8d2: 01 00                        	<unknown>
     8d4: 5c 00                        	<unknown>
     8d6: 00 00                        	<unknown>
     8d8: 00 00                        	<unknown>
     8da: 00 00                        	<unknown>
     8dc: 00 58                        	<unknown>
     8de: 02 00                        	<unknown>
     8e0: 00 e8                        	<unknown>
     8e2: 02 00                        	<unknown>
     8e4: 00 01                        	<unknown>
     8e6: 00 6c                        	<unknown>
		...
     8f0: 64 02                        	<unknown>
     8f2: 00 00                        	<unknown>
     8f4: b8 02                        	<unknown>
     8f6: 00 00                        	<unknown>
     8f8: 01 00                        	<unknown>
     8fa: 5b b8 02 00                  	<unknown>
     8fe: 00 e8                        	<unknown>
     900: 02 00                        	<unknown>
     902: 00 07                        	<unknown>
     904: 00 81                        	<unknown>
     906: 00 40                        	<unknown>
     908: 24 40                        	<unknown>
     90a: 25 9f                        	<unknown>
		...
     914: 68 02                        	<unknown>
     916: 00 00                        	<unknown>
     918: 88 02                        	<unknown>
     91a: 00 00                        	<unknown>
     91c: 01 00                        	<unknown>
     91e: 5f 88 02 00                  	<unknown>
     922: 00 dc                        	<unknown>
     924: 02 00                        	<unknown>
     926: 00 01                        	<unknown>
     928: 00 56                        	<unknown>
		...
     932: ac 02                        	<unknown>
     934: 00 00                        	<unknown>
     936: c8 02                        	<unknown>
     938: 00 00                        	<unknown>
     93a: 01 00                        	<unknown>
     93c: 5d c8                        	<unknown>
     93e: 02 00                        	<unknown>
     940: 00 e8                        	<unknown>
     942: 02 00                        	<unknown>
     944: 00 01                        	<unknown>
     946: 00 5e                        	<unknown>
		...
     950: 68 02                        	<unknown>
     952: 00 00                        	<unknown>
     954: 78 02                        	<unknown>
     956: 00 00                        	<unknown>
     958: 01 00                        	<unknown>
     95a: 5e 7c                        	<unknown>
     95c: 02 00                        	<unknown>
     95e: 00 84                        	<unknown>
     960: 02 00                        	<unknown>
     962: 00 01                        	<unknown>
     964: 00 5e                        	<unknown>
     966: 88 02                        	<unknown>
     968: 00 00                        	<unknown>
     96a: 9c 02                        	<unknown>
     96c: 00 00                        	<unknown>
     96e: 01 00                        	<unknown>
     970: 5e 9c                        	<unknown>
     972: 02 00                        	<unknown>
     974: 00 ac                        	<unknown>
     976: 02 00                        	<unknown>
     978: 00 01                        	<unknown>
     97a: 00 5d                        	<unknown>
		...
     984: a0 02                        	<unknown>
     986: 00 00                        	<unknown>
     988: b0 02                        	<unknown>
     98a: 00 00                        	<unknown>
     98c: 01 00                        	<unknown>
     98e: 5e b8                        	<unknown>
     990: 02 00                        	<unknown>
     992: 00 c4                        	<unknown>
     994: 02 00                        	<unknown>
     996: 00 01                        	<unknown>
     998: 00 5b                        	<unknown>
     99a: c8 02                        	<unknown>
     99c: 00 00                        	<unknown>
     99e: e8 02                        	<unknown>
     9a0: 00 00                        	<unknown>
     9a2: 01 00                        	<unknown>
     9a4: 5b 00 00 00                  	<unknown>
     9a8: 00 00                        	<unknown>
     9aa: 00 00                        	<unknown>
     9ac: 00 74                        	<unknown>
     9ae: 02 00                        	<unknown>
     9b0: 00 9c                        	<unknown>
     9b2: 02 00                        	<unknown>
     9b4: 00 01                        	<unknown>
     9b6: 00 5d                        	<unknown>
     9b8: 9c 02                        	<unknown>
     9ba: 00 00                        	<unknown>
     9bc: b4 02                        	<unknown>
     9be: 00 00                        	<unknown>
     9c0: 06 00                        	<unknown>
     9c2: 7b 00 7f 00                  	<unknown>
     9c6: 1e 9f                        	<unknown>
     9c8: b4 02                        	<unknown>
     9ca: 00 00                        	<unknown>
     9cc: e8 02                        	<unknown>
     9ce: 00 00                        	<unknown>
     9d0: 01 00                        	<unknown>
     9d2: 5f 00 00 00                  	<unknown>
     9d6: 00 00                        	<unknown>
     9d8: 00 00                        	<unknown>
     9da: 00 ec                        	<unknown>
     9dc: 02 00                        	<unknown>
     9de: 00 54                        	<unknown>
     9e0: 03 00 00 01                  	lb	zero, 16(zero)
     9e4: 00 5d                        	<unknown>
     9e6: 54 03                        	<unknown>
     9e8: 00 00                        	<unknown>
     9ea: 68 03                        	<unknown>
     9ec: 00 00                        	<unknown>
     9ee: 01 00                        	<unknown>
     9f0: 6f 00 00 00                  	j	0
     9f4: 00 00                        	<unknown>
     9f6: 00 00                        	<unknown>
     9f8: 00 00                        	<unknown>
     9fa: 03 00 00 1c                  	lb	zero, 448(zero)
     9fe: 03 00 00 01                  	lb	zero, 16(zero)
     a02: 00 5f                        	<unknown>
		...

Disassembly of section .debug_ranges:

00000000 .debug_ranges:
       0: 38 00                        	<unknown>
       2: 00 00                        	<unknown>
       4: 10 02                        	<unknown>
       6: 00 00                        	<unknown>
       8: 28 02                        	<unknown>
       a: 00 00                        	<unknown>
       c: 70 04                        	<unknown>
       e: 00 00                        	<unknown>
      10: 74 04                        	<unknown>
      12: 00 00                        	<unknown>
      14: 80 04                        	<unknown>
		...
      1e: 00 00                        	<unknown>
      20: 58 00                        	<unknown>
      22: 00 00                        	<unknown>
      24: 84 00                        	<unknown>
      26: 00 00                        	<unknown>
      28: 2c 01                        	<unknown>
      2a: 00 00                        	<unknown>
      2c: 40 01                        	<unknown>
		...
      36: 00 00                        	<unknown>
      38: 24 01                        	<unknown>
      3a: 00 00                        	<unknown>
      3c: 2c 01                        	<unknown>
      3e: 00 00                        	<unknown>
      40: 4c 03                        	<unknown>
      42: 00 00                        	<unknown>
      44: 70 04                        	<unknown>
		...
      4e: 00 00                        	<unknown>
      50: 64 03                        	<unknown>
      52: 00 00                        	<unknown>
      54: 68 03                        	<unknown>
      56: 00 00                        	<unknown>
      58: 6c 03                        	<unknown>
      5a: 00 00                        	<unknown>
      5c: 70 03                        	<unknown>
      5e: 00 00                        	<unknown>
      60: 74 03                        	<unknown>
      62: 00 00                        	<unknown>
      64: f4 03                        	<unknown>
      66: 00 00                        	<unknown>
      68: f8 03                        	<unknown>
      6a: 00 00                        	<unknown>
      6c: fc 03                        	<unknown>
      6e: 00 00                        	<unknown>
      70: 04 04                        	<unknown>
      72: 00 00                        	<unknown>
      74: 08 04                        	<unknown>
		...
      7e: 00 00                        	<unknown>
      80: f4 03                        	<unknown>
      82: 00 00                        	<unknown>
      84: f8 03                        	<unknown>
      86: 00 00                        	<unknown>
      88: fc 03                        	<unknown>
      8a: 00 00                        	<unknown>
      8c: 04 04                        	<unknown>
      8e: 00 00                        	<unknown>
      90: 08 04                        	<unknown>
      92: 00 00                        	<unknown>
      94: 40 04                        	<unknown>
      96: 00 00                        	<unknown>
      98: 48 04                        	<unknown>
      9a: 00 00                        	<unknown>
      9c: 5c 04                        	<unknown>
      9e: 00 00                        	<unknown>
      a0: 60 04                        	<unknown>
      a2: 00 00                        	<unknown>
      a4: 64 04                        	<unknown>
		...
      ae: 00 00                        	<unknown>
      b0: 4c 01                        	<unknown>
      b2: 00 00                        	<unknown>
      b4: 78 01                        	<unknown>
      b6: 00 00                        	<unknown>
      b8: 28 02                        	<unknown>
      ba: 00 00                        	<unknown>
      bc: 3c 02                        	<unknown>
		...
      c6: 00 00                        	<unknown>
      c8: 50 02                        	<unknown>
      ca: 00 00                        	<unknown>
      cc: 54 02                        	<unknown>
      ce: 00 00                        	<unknown>
      d0: 58 02                        	<unknown>
      d2: 00 00                        	<unknown>
      d4: e8 02                        	<unknown>
		...
      de: 00 00                        	<unknown>
      e0: ec 02                        	<unknown>
      e2: 00 00                        	<unknown>
      e4: 20 03                        	<unknown>
      e6: 00 00                        	<unknown>
      e8: 38 03                        	<unknown>
      ea: 00 00                        	<unknown>
      ec: 4c 03                        	<unknown>
		...
      f6: 00 00                        	<unknown>

Disassembly of section .symtab:

00000000 .symtab:
		...
      14: 00 00                        	<unknown>
      16: 00 80                        	<unknown>
      18: 00 00                        	<unknown>
      1a: 00 00                        	<unknown>
      1c: 03 00 01 00                  	lb	zero, 0(sp)
      20: 00 00                        	<unknown>
      22: 00 00                        	<unknown>
      24: 50 00                        	<unknown>
      26: 00 80                        	<unknown>
      28: 00 00                        	<unknown>
      2a: 00 00                        	<unknown>
      2c: 03 00 02 00                  	lb	zero, 0(tp)
      30: 00 00                        	<unknown>
      32: 00 00                        	<unknown>
      34: 04 18                        	<unknown>
      36: 00 80                        	<unknown>
      38: 00 00                        	<unknown>
      3a: 00 00                        	<unknown>
      3c: 03 00 03 00                  	lb	zero, 0(t1)
      40: 00 00                        	<unknown>
      42: 00 00                        	<unknown>
      44: 04 19                        	<unknown>
      46: 00 80                        	<unknown>
      48: 00 00                        	<unknown>
      4a: 00 00                        	<unknown>
      4c: 03 00 04 00                  	lb	zero, 0(s0)
      50: 00 00                        	<unknown>
      52: 00 00                        	<unknown>
      54: 88 29                        	<unknown>
      56: 00 80                        	<unknown>
      58: 00 00                        	<unknown>
      5a: 00 00                        	<unknown>
      5c: 03 00 05 00                  	lb	zero, 0(a0)
      60: 00 00                        	<unknown>
      62: 00 00                        	<unknown>
      64: 90 29                        	<unknown>
      66: 00 80                        	<unknown>
      68: 00 00                        	<unknown>
      6a: 00 00                        	<unknown>
      6c: 03 00 06 00                  	lb	zero, 0(a2)
      70: 00 00                        	<unknown>
      72: 00 00                        	<unknown>
      74: b8 2d                        	<unknown>
      76: 00 80                        	<unknown>
      78: 00 00                        	<unknown>
      7a: 00 00                        	<unknown>
      7c: 03 00 07 00                  	lb	zero, 0(a4)
      80: 00 00                        	<unknown>
      82: 00 00                        	<unknown>
      84: bc 2d                        	<unknown>
      86: 00 80                        	<unknown>
      88: 00 00                        	<unknown>
      8a: 00 00                        	<unknown>
      8c: 03 00 08 00                  	lb	zero, 0(a6)
		...
      9c: 03 00 09 00                  	lb	zero, 0(s2)
		...
      ac: 03 00 0a 00                  	lb	zero, 0(s4)
		...
      bc: 03 00 0b 00                  	lb	zero, 0(s6)
		...
      cc: 03 00 0c 00                  	lb	zero, 0(s8)
		...
      dc: 03 00 0d 00                  	lb	zero, 0(s10)
		...
      ec: 03 00 0e 00                  	lb	zero, 0(t3)
		...
      fc: 03 00 0f 00                  	lb	zero, 0(t5)
		...
     10c: 03 00 10 00                  	lb	zero, 1(zero)
		...
     11c: 03 00 11 00                  	lb	zero, 1(sp)
     120: 01 00                        	<unknown>
		...
     12a: 00 00                        	<unknown>
     12c: 04 00                        	<unknown>
     12e: f1 ff                        	<unknown>
     130: 0e 00                        	<unknown>
     132: 00 00                        	<unknown>
     134: a8 0a                        	<unknown>
     136: 00 80                        	<unknown>
     138: 00 00                        	<unknown>
     13a: 00 00                        	<unknown>
     13c: 00 00                        	<unknown>
     13e: 02 00                        	<unknown>
     140: 15 00                        	<unknown>
		...
     14a: 00 00                        	<unknown>
     14c: 04 00                        	<unknown>
     14e: f1 ff                        	<unknown>
     150: 25 00                        	<unknown>
     152: 00 00                        	<unknown>
     154: 50 00                        	<unknown>
     156: 00 80                        	<unknown>
     158: 18 00                        	<unknown>
     15a: 00 00                        	<unknown>
     15c: 02 00                        	<unknown>
     15e: 02 00                        	<unknown>
     160: 33 00 00 00                  	add	zero, zero, zero
		...
     16c: 04 00                        	<unknown>
     16e: f1 ff                        	<unknown>
     170: 00 00                        	<unknown>
     172: 00 00                        	<unknown>
     174: 68 00                        	<unknown>
     176: 00 80                        	<unknown>
     178: 00 00                        	<unknown>
     17a: 00 00                        	<unknown>
     17c: 00 00                        	<unknown>
     17e: 02 00                        	<unknown>
     180: 00 00                        	<unknown>
     182: 00 00                        	<unknown>
     184: 6c 00                        	<unknown>
     186: 00 80                        	<unknown>
     188: 00 00                        	<unknown>
     18a: 00 00                        	<unknown>
     18c: 00 00                        	<unknown>
     18e: 02 00                        	<unknown>
     190: 00 00                        	<unknown>
     192: 00 00                        	<unknown>
     194: a0 00                        	<unknown>
     196: 00 80                        	<unknown>
     198: 00 00                        	<unknown>
     19a: 00 00                        	<unknown>
     19c: 00 00                        	<unknown>
     19e: 02 00                        	<unknown>
     1a0: 00 00                        	<unknown>
     1a2: 00 00                        	<unknown>
     1a4: fc 09                        	<unknown>
     1a6: 00 80                        	<unknown>
     1a8: 00 00                        	<unknown>
     1aa: 00 00                        	<unknown>
     1ac: 00 00                        	<unknown>
     1ae: 02 00                        	<unknown>
     1b0: 00 00                        	<unknown>
     1b2: 00 00                        	<unknown>
     1b4: 34 0a                        	<unknown>
     1b6: 00 80                        	<unknown>
     1b8: 00 00                        	<unknown>
     1ba: 00 00                        	<unknown>
     1bc: 00 00                        	<unknown>
     1be: 02 00                        	<unknown>
     1c0: 00 00                        	<unknown>
     1c2: 00 00                        	<unknown>
     1c4: 38 0a                        	<unknown>
     1c6: 00 80                        	<unknown>
     1c8: 00 00                        	<unknown>
     1ca: 00 00                        	<unknown>
     1cc: 00 00                        	<unknown>
     1ce: 02 00                        	<unknown>
     1d0: 00 00                        	<unknown>
     1d2: 00 00                        	<unknown>
     1d4: 3c 0a                        	<unknown>
     1d6: 00 80                        	<unknown>
     1d8: 00 00                        	<unknown>
     1da: 00 00                        	<unknown>
     1dc: 00 00                        	<unknown>
     1de: 02 00                        	<unknown>
     1e0: 00 00                        	<unknown>
     1e2: 00 00                        	<unknown>
     1e4: 68 0a                        	<unknown>
     1e6: 00 80                        	<unknown>
     1e8: 00 00                        	<unknown>
     1ea: 00 00                        	<unknown>
     1ec: 00 00                        	<unknown>
     1ee: 02 00                        	<unknown>
     1f0: 3e 00                        	<unknown>
     1f2: 00 00                        	<unknown>
     1f4: fc 09                        	<unknown>
     1f6: 00 80                        	<unknown>
     1f8: 38 00                        	<unknown>
     1fa: 00 00                        	<unknown>
     1fc: 02 00                        	<unknown>
     1fe: 02 00                        	<unknown>
     200: 4c 00                        	<unknown>
     202: 00 00                        	<unknown>
     204: 0a 00                        	<unknown>
		...
     20e: f1 ff                        	<unknown>
     210: 53 00 00 00                  	<unknown>
     214: 0b 00 00 00                  	vx_tmc	zero
     218: 00 00                        	<unknown>
     21a: 00 00                        	<unknown>
     21c: 00 00                        	<unknown>
     21e: f1 ff                        	<unknown>
     220: 5a 00                        	<unknown>
     222: 00 00                        	<unknown>
     224: 0c 00                        	<unknown>
		...
     22e: f1 ff                        	<unknown>
     230: 61 00                        	<unknown>
     232: 00 00                        	<unknown>
     234: 0d 00                        	<unknown>
		...
     23e: f1 ff                        	<unknown>
     240: 68 00                        	<unknown>
     242: 00 00                        	<unknown>
     244: 0e 00                        	<unknown>
		...
     24e: f1 ff                        	<unknown>
     250: 6f 00 00 00                  	j	0
     254: 0f 00 00 00                  	fence	unknown, unknown
     258: 00 00                        	<unknown>
     25a: 00 00                        	<unknown>
     25c: 00 00                        	<unknown>
     25e: f1 ff                        	<unknown>
     260: 76 00                        	<unknown>
     262: 00 00                        	<unknown>
     264: 10 00                        	<unknown>
		...
     26e: f1 ff                        	<unknown>
     270: 7d 00                        	<unknown>
     272: 00 00                        	<unknown>
     274: 11 00                        	<unknown>
		...
     27e: f1 ff                        	<unknown>
     280: 84 00                        	<unknown>
     282: 00 00                        	<unknown>
     284: 03 00 00 00                  	lb	zero, 0(zero)
     288: 00 00                        	<unknown>
     28a: 00 00                        	<unknown>
     28c: 00 00                        	<unknown>
     28e: f1 ff                        	<unknown>
     290: 8b 00 00 00                  	<unknown>
     294: 01 00                        	<unknown>
		...
     29e: f1 ff                        	<unknown>
     2a0: 92 00                        	<unknown>
     2a2: 00 00                        	<unknown>
     2a4: 08 00                        	<unknown>
		...
     2ae: f1 ff                        	<unknown>
     2b0: 99 00                        	<unknown>
     2b2: 00 00                        	<unknown>
     2b4: 09 00                        	<unknown>
		...
     2be: f1 ff                        	<unknown>
     2c0: a0 00                        	<unknown>
     2c2: 00 00                        	<unknown>
     2c4: 1a 00                        	<unknown>
		...
     2ce: f1 ff                        	<unknown>
     2d0: a8 00                        	<unknown>
     2d2: 00 00                        	<unknown>
     2d4: 1b 00 00 00                  	<unknown>
     2d8: 00 00                        	<unknown>
     2da: 00 00                        	<unknown>
     2dc: 00 00                        	<unknown>
     2de: f1 ff                        	<unknown>
     2e0: b0 00                        	<unknown>
     2e2: 00 00                        	<unknown>
     2e4: 12 00                        	<unknown>
		...
     2ee: f1 ff                        	<unknown>
     2f0: b7 00 00 00                  	lui	ra, 0
     2f4: 13 00 00 00                  	nop
     2f8: 00 00                        	<unknown>
     2fa: 00 00                        	<unknown>
     2fc: 00 00                        	<unknown>
     2fe: f1 ff                        	<unknown>
     300: be 00                        	<unknown>
     302: 00 00                        	<unknown>
     304: 14 00                        	<unknown>
		...
     30e: f1 ff                        	<unknown>
     310: c5 00                        	<unknown>
     312: 00 00                        	<unknown>
     314: 15 00                        	<unknown>
		...
     31e: f1 ff                        	<unknown>
     320: cc 00                        	<unknown>
     322: 00 00                        	<unknown>
     324: 16 00                        	<unknown>
		...
     32e: f1 ff                        	<unknown>
     330: d3 00 00 00                  	<unknown>
     334: 17 00 00 00                  	auipc	zero, 0
     338: 00 00                        	<unknown>
     33a: 00 00                        	<unknown>
     33c: 00 00                        	<unknown>
     33e: f1 ff                        	<unknown>
     340: da 00                        	<unknown>
     342: 00 00                        	<unknown>
     344: 18 00                        	<unknown>
		...
     34e: f1 ff                        	<unknown>
     350: e1 00                        	<unknown>
     352: 00 00                        	<unknown>
     354: 19 00                        	<unknown>
		...
     35e: f1 ff                        	<unknown>
     360: e8 00                        	<unknown>
     362: 00 00                        	<unknown>
     364: 02 00                        	<unknown>
		...
     36e: f1 ff                        	<unknown>
     370: ef 00 00 00                  	jal	0
     374: 05 00                        	<unknown>
		...
     37e: f1 ff                        	<unknown>
     380: f6 00                        	<unknown>
     382: 00 00                        	<unknown>
     384: 06 00                        	<unknown>
		...
     38e: f1 ff                        	<unknown>
     390: fd 00                        	<unknown>
     392: 00 00                        	<unknown>
     394: 07 00 00 00                  	<unknown>
     398: 00 00                        	<unknown>
     39a: 00 00                        	<unknown>
     39c: 00 00                        	<unknown>
     39e: f1 ff                        	<unknown>
     3a0: 04 01                        	<unknown>
     3a2: 00 00                        	<unknown>
     3a4: 1c 00                        	<unknown>
		...
     3ae: f1 ff                        	<unknown>
     3b0: 0b 01 00 00                  	<unknown>
     3b4: 1d 00                        	<unknown>
		...
     3be: f1 ff                        	<unknown>
     3c0: 12 01                        	<unknown>
     3c2: 00 00                        	<unknown>
     3c4: 1e 00                        	<unknown>
		...
     3ce: f1 ff                        	<unknown>
     3d0: 19 01                        	<unknown>
     3d2: 00 00                        	<unknown>
     3d4: 1f 00 00 00                  	<unknown>
     3d8: 00 00                        	<unknown>
     3da: 00 00                        	<unknown>
     3dc: 00 00                        	<unknown>
     3de: f1 ff                        	<unknown>
     3e0: 20 01                        	<unknown>
     3e2: 00 00                        	<unknown>
     3e4: 04 00                        	<unknown>
		...
     3ee: f1 ff                        	<unknown>
     3f0: 27 01 00 00                  	<unknown>
		...
     3fc: 00 00                        	<unknown>
     3fe: f1 ff                        	<unknown>
     400: 2e 01                        	<unknown>
     402: 00 00                        	<unknown>
     404: 01 00                        	<unknown>
		...
     40e: f1 ff                        	<unknown>
     410: 35 01                        	<unknown>
     412: 00 00                        	<unknown>
     414: 0a 00                        	<unknown>
		...
     41e: f1 ff                        	<unknown>
     420: 3d 01                        	<unknown>
     422: 00 00                        	<unknown>
     424: 0b 00 00 00                  	vx_tmc	zero
     428: 00 00                        	<unknown>
     42a: 00 00                        	<unknown>
     42c: 00 00                        	<unknown>
     42e: f1 ff                        	<unknown>
     430: 45 01                        	<unknown>
     432: 00 00                        	<unknown>
     434: 0c 00                        	<unknown>
		...
     43e: f1 ff                        	<unknown>
     440: 4d 01                        	<unknown>
     442: 00 00                        	<unknown>
     444: 0d 00                        	<unknown>
		...
     44e: f1 ff                        	<unknown>
     450: 55 01                        	<unknown>
     452: 00 00                        	<unknown>
     454: 0e 00                        	<unknown>
		...
     45e: f1 ff                        	<unknown>
     460: 5d 01                        	<unknown>
     462: 00 00                        	<unknown>
     464: 0f 00 00 00                  	fence	unknown, unknown
     468: 00 00                        	<unknown>
     46a: 00 00                        	<unknown>
     46c: 00 00                        	<unknown>
     46e: f1 ff                        	<unknown>
     470: 65 01                        	<unknown>
     472: 00 00                        	<unknown>
     474: 10 00                        	<unknown>
		...
     47e: f1 ff                        	<unknown>
     480: 6d 01                        	<unknown>
     482: 00 00                        	<unknown>
     484: 11 00                        	<unknown>
		...
     48e: f1 ff                        	<unknown>
     490: 75 01                        	<unknown>
     492: 00 00                        	<unknown>
     494: 12 00                        	<unknown>
		...
     49e: f1 ff                        	<unknown>
     4a0: 7d 01                        	<unknown>
     4a2: 00 00                        	<unknown>
     4a4: 13 00 00 00                  	nop
     4a8: 00 00                        	<unknown>
     4aa: 00 00                        	<unknown>
     4ac: 00 00                        	<unknown>
     4ae: f1 ff                        	<unknown>
     4b0: 85 01                        	<unknown>
     4b2: 00 00                        	<unknown>
     4b4: 02 00                        	<unknown>
		...
     4be: f1 ff                        	<unknown>
     4c0: 8c 01                        	<unknown>
     4c2: 00 00                        	<unknown>
     4c4: 14 00                        	<unknown>
		...
     4ce: f1 ff                        	<unknown>
     4d0: 94 01                        	<unknown>
     4d2: 00 00                        	<unknown>
     4d4: 15 00                        	<unknown>
		...
     4de: f1 ff                        	<unknown>
     4e0: 9c 01                        	<unknown>
     4e2: 00 00                        	<unknown>
     4e4: 16 00                        	<unknown>
		...
     4ee: f1 ff                        	<unknown>
     4f0: a4 01                        	<unknown>
     4f2: 00 00                        	<unknown>
     4f4: 17 00 00 00                  	auipc	zero, 0
     4f8: 00 00                        	<unknown>
     4fa: 00 00                        	<unknown>
     4fc: 00 00                        	<unknown>
     4fe: f1 ff                        	<unknown>
     500: ac 01                        	<unknown>
     502: 00 00                        	<unknown>
     504: 18 00                        	<unknown>
		...
     50e: f1 ff                        	<unknown>
     510: b4 01                        	<unknown>
     512: 00 00                        	<unknown>
     514: 19 00                        	<unknown>
		...
     51e: f1 ff                        	<unknown>
     520: bc 01                        	<unknown>
     522: 00 00                        	<unknown>
     524: 1a 00                        	<unknown>
		...
     52e: f1 ff                        	<unknown>
     530: c4 01                        	<unknown>
     532: 00 00                        	<unknown>
     534: 1b 00 00 00                  	<unknown>
     538: 00 00                        	<unknown>
     53a: 00 00                        	<unknown>
     53c: 00 00                        	<unknown>
     53e: f1 ff                        	<unknown>
     540: cc 01                        	<unknown>
     542: 00 00                        	<unknown>
     544: 1c 00                        	<unknown>
		...
     54e: f1 ff                        	<unknown>
     550: d4 01                        	<unknown>
     552: 00 00                        	<unknown>
     554: 1d 00                        	<unknown>
		...
     55e: f1 ff                        	<unknown>
     560: dc 01                        	<unknown>
     562: 00 00                        	<unknown>
     564: 03 00 00 00                  	lb	zero, 0(zero)
     568: 00 00                        	<unknown>
     56a: 00 00                        	<unknown>
     56c: 00 00                        	<unknown>
     56e: f1 ff                        	<unknown>
     570: e3 01 00 00                  	beqz	zero, 2050
     574: 1e 00                        	<unknown>
		...
     57e: f1 ff                        	<unknown>
     580: eb 01 00 00                  	<unknown>
     584: 1f 00 00 00                  	<unknown>
     588: 00 00                        	<unknown>
     58a: 00 00                        	<unknown>
     58c: 00 00                        	<unknown>
     58e: f1 ff                        	<unknown>
     590: f3 01 00 00                  	<unknown>
     594: 04 00                        	<unknown>
		...
     59e: f1 ff                        	<unknown>
     5a0: fa 01                        	<unknown>
     5a2: 00 00                        	<unknown>
     5a4: 05 00                        	<unknown>
		...
     5ae: f1 ff                        	<unknown>
     5b0: 01 02                        	<unknown>
     5b2: 00 00                        	<unknown>
     5b4: 06 00                        	<unknown>
		...
     5be: f1 ff                        	<unknown>
     5c0: 08 02                        	<unknown>
     5c2: 00 00                        	<unknown>
     5c4: 07 00 00 00                  	<unknown>
     5c8: 00 00                        	<unknown>
     5ca: 00 00                        	<unknown>
     5cc: 00 00                        	<unknown>
     5ce: f1 ff                        	<unknown>
     5d0: 0f 02 00 00                  	<unknown>
     5d4: 08 00                        	<unknown>
		...
     5de: f1 ff                        	<unknown>
     5e0: 16 02                        	<unknown>
     5e2: 00 00                        	<unknown>
     5e4: 09 00                        	<unknown>
		...
     5ee: f1 ff                        	<unknown>
     5f0: 1d 02                        	<unknown>
		...
     5fe: f1 ff                        	<unknown>
     600: 26 02                        	<unknown>
		...
     60a: 00 00                        	<unknown>
     60c: 04 00                        	<unknown>
     60e: f1 ff                        	<unknown>
     610: 27 01 00 00                  	<unknown>
		...
     61c: 00 00                        	<unknown>
     61e: f1 ff                        	<unknown>
     620: 2e 01                        	<unknown>
     622: 00 00                        	<unknown>
     624: 01 00                        	<unknown>
		...
     62e: f1 ff                        	<unknown>
     630: 85 01                        	<unknown>
     632: 00 00                        	<unknown>
     634: 02 00                        	<unknown>
		...
     63e: f1 ff                        	<unknown>
     640: dc 01                        	<unknown>
     642: 00 00                        	<unknown>
     644: 03 00 00 00                  	lb	zero, 0(zero)
     648: 00 00                        	<unknown>
     64a: 00 00                        	<unknown>
     64c: 00 00                        	<unknown>
     64e: f1 ff                        	<unknown>
     650: f3 01 00 00                  	<unknown>
     654: 04 00                        	<unknown>
		...
     65e: f1 ff                        	<unknown>
     660: fa 01                        	<unknown>
     662: 00 00                        	<unknown>
     664: 05 00                        	<unknown>
		...
     66e: f1 ff                        	<unknown>
     670: 01 02                        	<unknown>
     672: 00 00                        	<unknown>
     674: 06 00                        	<unknown>
		...
     67e: f1 ff                        	<unknown>
     680: 08 02                        	<unknown>
     682: 00 00                        	<unknown>
     684: 07 00 00 00                  	<unknown>
     688: 00 00                        	<unknown>
     68a: 00 00                        	<unknown>
     68c: 00 00                        	<unknown>
     68e: f1 ff                        	<unknown>
     690: 0f 02 00 00                  	<unknown>
     694: 08 00                        	<unknown>
		...
     69e: f1 ff                        	<unknown>
     6a0: 16 02                        	<unknown>
     6a2: 00 00                        	<unknown>
     6a4: 09 00                        	<unknown>
		...
     6ae: f1 ff                        	<unknown>
     6b0: 35 01                        	<unknown>
     6b2: 00 00                        	<unknown>
     6b4: 0a 00                        	<unknown>
		...
     6be: f1 ff                        	<unknown>
     6c0: 3d 01                        	<unknown>
     6c2: 00 00                        	<unknown>
     6c4: 0b 00 00 00                  	vx_tmc	zero
     6c8: 00 00                        	<unknown>
     6ca: 00 00                        	<unknown>
     6cc: 00 00                        	<unknown>
     6ce: f1 ff                        	<unknown>
     6d0: 45 01                        	<unknown>
     6d2: 00 00                        	<unknown>
     6d4: 0c 00                        	<unknown>
		...
     6de: f1 ff                        	<unknown>
     6e0: 4d 01                        	<unknown>
     6e2: 00 00                        	<unknown>
     6e4: 0d 00                        	<unknown>
		...
     6ee: f1 ff                        	<unknown>
     6f0: 55 01                        	<unknown>
     6f2: 00 00                        	<unknown>
     6f4: 0e 00                        	<unknown>
		...
     6fe: f1 ff                        	<unknown>
     700: 5d 01                        	<unknown>
     702: 00 00                        	<unknown>
     704: 0f 00 00 00                  	fence	unknown, unknown
     708: 00 00                        	<unknown>
     70a: 00 00                        	<unknown>
     70c: 00 00                        	<unknown>
     70e: f1 ff                        	<unknown>
     710: 65 01                        	<unknown>
     712: 00 00                        	<unknown>
     714: 10 00                        	<unknown>
		...
     71e: f1 ff                        	<unknown>
     720: 6d 01                        	<unknown>
     722: 00 00                        	<unknown>
     724: 11 00                        	<unknown>
		...
     72e: f1 ff                        	<unknown>
     730: 75 01                        	<unknown>
     732: 00 00                        	<unknown>
     734: 12 00                        	<unknown>
		...
     73e: f1 ff                        	<unknown>
     740: 7d 01                        	<unknown>
     742: 00 00                        	<unknown>
     744: 13 00 00 00                  	nop
     748: 00 00                        	<unknown>
     74a: 00 00                        	<unknown>
     74c: 00 00                        	<unknown>
     74e: f1 ff                        	<unknown>
     750: 8c 01                        	<unknown>
     752: 00 00                        	<unknown>
     754: 14 00                        	<unknown>
		...
     75e: f1 ff                        	<unknown>
     760: 94 01                        	<unknown>
     762: 00 00                        	<unknown>
     764: 15 00                        	<unknown>
		...
     76e: f1 ff                        	<unknown>
     770: 9c 01                        	<unknown>
     772: 00 00                        	<unknown>
     774: 16 00                        	<unknown>
		...
     77e: f1 ff                        	<unknown>
     780: a4 01                        	<unknown>
     782: 00 00                        	<unknown>
     784: 17 00 00 00                  	auipc	zero, 0
     788: 00 00                        	<unknown>
     78a: 00 00                        	<unknown>
     78c: 00 00                        	<unknown>
     78e: f1 ff                        	<unknown>
     790: ac 01                        	<unknown>
     792: 00 00                        	<unknown>
     794: 18 00                        	<unknown>
		...
     79e: f1 ff                        	<unknown>
     7a0: b4 01                        	<unknown>
     7a2: 00 00                        	<unknown>
     7a4: 19 00                        	<unknown>
		...
     7ae: f1 ff                        	<unknown>
     7b0: bc 01                        	<unknown>
     7b2: 00 00                        	<unknown>
     7b4: 1a 00                        	<unknown>
		...
     7be: f1 ff                        	<unknown>
     7c0: c4 01                        	<unknown>
     7c2: 00 00                        	<unknown>
     7c4: 1b 00 00 00                  	<unknown>
     7c8: 00 00                        	<unknown>
     7ca: 00 00                        	<unknown>
     7cc: 00 00                        	<unknown>
     7ce: f1 ff                        	<unknown>
     7d0: cc 01                        	<unknown>
     7d2: 00 00                        	<unknown>
     7d4: 1c 00                        	<unknown>
		...
     7de: f1 ff                        	<unknown>
     7e0: d4 01                        	<unknown>
     7e2: 00 00                        	<unknown>
     7e4: 1d 00                        	<unknown>
		...
     7ee: f1 ff                        	<unknown>
     7f0: e3 01 00 00                  	beqz	zero, 2050
     7f4: 1e 00                        	<unknown>
		...
     7fe: f1 ff                        	<unknown>
     800: eb 01 00 00                  	<unknown>
     804: 1f 00 00 00                  	<unknown>
     808: 00 00                        	<unknown>
     80a: 00 00                        	<unknown>
     80c: 00 00                        	<unknown>
     80e: f1 ff                        	<unknown>
     810: 1d 02                        	<unknown>
		...
     81e: f1 ff                        	<unknown>
     820: 8b 00 00 00                  	<unknown>
     824: 01 00                        	<unknown>
		...
     82e: f1 ff                        	<unknown>
     830: e8 00                        	<unknown>
     832: 00 00                        	<unknown>
     834: 02 00                        	<unknown>
		...
     83e: f1 ff                        	<unknown>
     840: 84 00                        	<unknown>
     842: 00 00                        	<unknown>
     844: 03 00 00 00                  	lb	zero, 0(zero)
     848: 00 00                        	<unknown>
     84a: 00 00                        	<unknown>
     84c: 00 00                        	<unknown>
     84e: f1 ff                        	<unknown>
     850: 20 01                        	<unknown>
     852: 00 00                        	<unknown>
     854: 04 00                        	<unknown>
		...
     85e: f1 ff                        	<unknown>
     860: ef 00 00 00                  	jal	0
     864: 05 00                        	<unknown>
		...
     86e: f1 ff                        	<unknown>
     870: f6 00                        	<unknown>
     872: 00 00                        	<unknown>
     874: 06 00                        	<unknown>
		...
     87e: f1 ff                        	<unknown>
     880: fd 00                        	<unknown>
     882: 00 00                        	<unknown>
     884: 07 00 00 00                  	<unknown>
     888: 00 00                        	<unknown>
     88a: 00 00                        	<unknown>
     88c: 00 00                        	<unknown>
     88e: f1 ff                        	<unknown>
     890: 92 00                        	<unknown>
     892: 00 00                        	<unknown>
     894: 08 00                        	<unknown>
		...
     89e: f1 ff                        	<unknown>
     8a0: 99 00                        	<unknown>
     8a2: 00 00                        	<unknown>
     8a4: 09 00                        	<unknown>
		...
     8ae: f1 ff                        	<unknown>
     8b0: 4c 00                        	<unknown>
     8b2: 00 00                        	<unknown>
     8b4: 0a 00                        	<unknown>
		...
     8be: f1 ff                        	<unknown>
     8c0: 53 00 00 00                  	<unknown>
     8c4: 0b 00 00 00                  	vx_tmc	zero
     8c8: 00 00                        	<unknown>
     8ca: 00 00                        	<unknown>
     8cc: 00 00                        	<unknown>
     8ce: f1 ff                        	<unknown>
     8d0: 5a 00                        	<unknown>
     8d2: 00 00                        	<unknown>
     8d4: 0c 00                        	<unknown>
		...
     8de: f1 ff                        	<unknown>
     8e0: 61 00                        	<unknown>
     8e2: 00 00                        	<unknown>
     8e4: 0d 00                        	<unknown>
		...
     8ee: f1 ff                        	<unknown>
     8f0: 68 00                        	<unknown>
     8f2: 00 00                        	<unknown>
     8f4: 0e 00                        	<unknown>
		...
     8fe: f1 ff                        	<unknown>
     900: 6f 00 00 00                  	j	0
     904: 0f 00 00 00                  	fence	unknown, unknown
     908: 00 00                        	<unknown>
     90a: 00 00                        	<unknown>
     90c: 00 00                        	<unknown>
     90e: f1 ff                        	<unknown>
     910: 76 00                        	<unknown>
     912: 00 00                        	<unknown>
     914: 10 00                        	<unknown>
		...
     91e: f1 ff                        	<unknown>
     920: 7d 00                        	<unknown>
     922: 00 00                        	<unknown>
     924: 11 00                        	<unknown>
		...
     92e: f1 ff                        	<unknown>
     930: b0 00                        	<unknown>
     932: 00 00                        	<unknown>
     934: 12 00                        	<unknown>
		...
     93e: f1 ff                        	<unknown>
     940: b7 00 00 00                  	lui	ra, 0
     944: 13 00 00 00                  	nop
     948: 00 00                        	<unknown>
     94a: 00 00                        	<unknown>
     94c: 00 00                        	<unknown>
     94e: f1 ff                        	<unknown>
     950: be 00                        	<unknown>
     952: 00 00                        	<unknown>
     954: 14 00                        	<unknown>
		...
     95e: f1 ff                        	<unknown>
     960: c5 00                        	<unknown>
     962: 00 00                        	<unknown>
     964: 15 00                        	<unknown>
		...
     96e: f1 ff                        	<unknown>
     970: cc 00                        	<unknown>
     972: 00 00                        	<unknown>
     974: 16 00                        	<unknown>
		...
     97e: f1 ff                        	<unknown>
     980: d3 00 00 00                  	<unknown>
     984: 17 00 00 00                  	auipc	zero, 0
     988: 00 00                        	<unknown>
     98a: 00 00                        	<unknown>
     98c: 00 00                        	<unknown>
     98e: f1 ff                        	<unknown>
     990: da 00                        	<unknown>
     992: 00 00                        	<unknown>
     994: 18 00                        	<unknown>
		...
     99e: f1 ff                        	<unknown>
     9a0: e1 00                        	<unknown>
     9a2: 00 00                        	<unknown>
     9a4: 19 00                        	<unknown>
		...
     9ae: f1 ff                        	<unknown>
     9b0: a0 00                        	<unknown>
     9b2: 00 00                        	<unknown>
     9b4: 1a 00                        	<unknown>
		...
     9be: f1 ff                        	<unknown>
     9c0: a8 00                        	<unknown>
     9c2: 00 00                        	<unknown>
     9c4: 1b 00 00 00                  	<unknown>
     9c8: 00 00                        	<unknown>
     9ca: 00 00                        	<unknown>
     9cc: 00 00                        	<unknown>
     9ce: f1 ff                        	<unknown>
     9d0: 04 01                        	<unknown>
     9d2: 00 00                        	<unknown>
     9d4: 1c 00                        	<unknown>
		...
     9de: f1 ff                        	<unknown>
     9e0: 0b 01 00 00                  	<unknown>
     9e4: 1d 00                        	<unknown>
		...
     9ee: f1 ff                        	<unknown>
     9f0: 12 01                        	<unknown>
     9f2: 00 00                        	<unknown>
     9f4: 1e 00                        	<unknown>
		...
     9fe: f1 ff                        	<unknown>
     a00: 19 01                        	<unknown>
     a02: 00 00                        	<unknown>
     a04: 1f 00 00 00                  	<unknown>
     a08: 00 00                        	<unknown>
     a0a: 00 00                        	<unknown>
     a0c: 00 00                        	<unknown>
     a0e: f1 ff                        	<unknown>
     a10: 34 02                        	<unknown>
		...
     a1a: 00 00                        	<unknown>
     a1c: 04 00                        	<unknown>
     a1e: f1 ff                        	<unknown>
     a20: 27 01 00 00                  	<unknown>
		...
     a2c: 00 00                        	<unknown>
     a2e: f1 ff                        	<unknown>
     a30: 2e 01                        	<unknown>
     a32: 00 00                        	<unknown>
     a34: 01 00                        	<unknown>
		...
     a3e: f1 ff                        	<unknown>
     a40: 85 01                        	<unknown>
     a42: 00 00                        	<unknown>
     a44: 02 00                        	<unknown>
		...
     a4e: f1 ff                        	<unknown>
     a50: dc 01                        	<unknown>
     a52: 00 00                        	<unknown>
     a54: 03 00 00 00                  	lb	zero, 0(zero)
     a58: 00 00                        	<unknown>
     a5a: 00 00                        	<unknown>
     a5c: 00 00                        	<unknown>
     a5e: f1 ff                        	<unknown>
     a60: f3 01 00 00                  	<unknown>
     a64: 04 00                        	<unknown>
		...
     a6e: f1 ff                        	<unknown>
     a70: fa 01                        	<unknown>
     a72: 00 00                        	<unknown>
     a74: 05 00                        	<unknown>
		...
     a7e: f1 ff                        	<unknown>
     a80: 01 02                        	<unknown>
     a82: 00 00                        	<unknown>
     a84: 06 00                        	<unknown>
		...
     a8e: f1 ff                        	<unknown>
     a90: 08 02                        	<unknown>
     a92: 00 00                        	<unknown>
     a94: 07 00 00 00                  	<unknown>
     a98: 00 00                        	<unknown>
     a9a: 00 00                        	<unknown>
     a9c: 00 00                        	<unknown>
     a9e: f1 ff                        	<unknown>
     aa0: 0f 02 00 00                  	<unknown>
     aa4: 08 00                        	<unknown>
		...
     aae: f1 ff                        	<unknown>
     ab0: 16 02                        	<unknown>
     ab2: 00 00                        	<unknown>
     ab4: 09 00                        	<unknown>
		...
     abe: f1 ff                        	<unknown>
     ac0: 35 01                        	<unknown>
     ac2: 00 00                        	<unknown>
     ac4: 0a 00                        	<unknown>
		...
     ace: f1 ff                        	<unknown>
     ad0: 3d 01                        	<unknown>
     ad2: 00 00                        	<unknown>
     ad4: 0b 00 00 00                  	vx_tmc	zero
     ad8: 00 00                        	<unknown>
     ada: 00 00                        	<unknown>
     adc: 00 00                        	<unknown>
     ade: f1 ff                        	<unknown>
     ae0: 45 01                        	<unknown>
     ae2: 00 00                        	<unknown>
     ae4: 0c 00                        	<unknown>
		...
     aee: f1 ff                        	<unknown>
     af0: 4d 01                        	<unknown>
     af2: 00 00                        	<unknown>
     af4: 0d 00                        	<unknown>
		...
     afe: f1 ff                        	<unknown>
     b00: 55 01                        	<unknown>
     b02: 00 00                        	<unknown>
     b04: 0e 00                        	<unknown>
		...
     b0e: f1 ff                        	<unknown>
     b10: 5d 01                        	<unknown>
     b12: 00 00                        	<unknown>
     b14: 0f 00 00 00                  	fence	unknown, unknown
     b18: 00 00                        	<unknown>
     b1a: 00 00                        	<unknown>
     b1c: 00 00                        	<unknown>
     b1e: f1 ff                        	<unknown>
     b20: 65 01                        	<unknown>
     b22: 00 00                        	<unknown>
     b24: 10 00                        	<unknown>
		...
     b2e: f1 ff                        	<unknown>
     b30: 6d 01                        	<unknown>
     b32: 00 00                        	<unknown>
     b34: 11 00                        	<unknown>
		...
     b3e: f1 ff                        	<unknown>
     b40: 75 01                        	<unknown>
     b42: 00 00                        	<unknown>
     b44: 12 00                        	<unknown>
		...
     b4e: f1 ff                        	<unknown>
     b50: 7d 01                        	<unknown>
     b52: 00 00                        	<unknown>
     b54: 13 00 00 00                  	nop
     b58: 00 00                        	<unknown>
     b5a: 00 00                        	<unknown>
     b5c: 00 00                        	<unknown>
     b5e: f1 ff                        	<unknown>
     b60: 8c 01                        	<unknown>
     b62: 00 00                        	<unknown>
     b64: 14 00                        	<unknown>
		...
     b6e: f1 ff                        	<unknown>
     b70: 94 01                        	<unknown>
     b72: 00 00                        	<unknown>
     b74: 15 00                        	<unknown>
		...
     b7e: f1 ff                        	<unknown>
     b80: 9c 01                        	<unknown>
     b82: 00 00                        	<unknown>
     b84: 16 00                        	<unknown>
		...
     b8e: f1 ff                        	<unknown>
     b90: a4 01                        	<unknown>
     b92: 00 00                        	<unknown>
     b94: 17 00 00 00                  	auipc	zero, 0
     b98: 00 00                        	<unknown>
     b9a: 00 00                        	<unknown>
     b9c: 00 00                        	<unknown>
     b9e: f1 ff                        	<unknown>
     ba0: ac 01                        	<unknown>
     ba2: 00 00                        	<unknown>
     ba4: 18 00                        	<unknown>
		...
     bae: f1 ff                        	<unknown>
     bb0: b4 01                        	<unknown>
     bb2: 00 00                        	<unknown>
     bb4: 19 00                        	<unknown>
		...
     bbe: f1 ff                        	<unknown>
     bc0: bc 01                        	<unknown>
     bc2: 00 00                        	<unknown>
     bc4: 1a 00                        	<unknown>
		...
     bce: f1 ff                        	<unknown>
     bd0: c4 01                        	<unknown>
     bd2: 00 00                        	<unknown>
     bd4: 1b 00 00 00                  	<unknown>
     bd8: 00 00                        	<unknown>
     bda: 00 00                        	<unknown>
     bdc: 00 00                        	<unknown>
     bde: f1 ff                        	<unknown>
     be0: cc 01                        	<unknown>
     be2: 00 00                        	<unknown>
     be4: 1c 00                        	<unknown>
		...
     bee: f1 ff                        	<unknown>
     bf0: d4 01                        	<unknown>
     bf2: 00 00                        	<unknown>
     bf4: 1d 00                        	<unknown>
		...
     bfe: f1 ff                        	<unknown>
     c00: e3 01 00 00                  	beqz	zero, 2050
     c04: 1e 00                        	<unknown>
		...
     c0e: f1 ff                        	<unknown>
     c10: eb 01 00 00                  	<unknown>
     c14: 1f 00 00 00                  	<unknown>
     c18: 00 00                        	<unknown>
     c1a: 00 00                        	<unknown>
     c1c: 00 00                        	<unknown>
     c1e: f1 ff                        	<unknown>
     c20: 1d 02                        	<unknown>
		...
     c2e: f1 ff                        	<unknown>
     c30: 8b 00 00 00                  	<unknown>
     c34: 01 00                        	<unknown>
		...
     c3e: f1 ff                        	<unknown>
     c40: e8 00                        	<unknown>
     c42: 00 00                        	<unknown>
     c44: 02 00                        	<unknown>
		...
     c4e: f1 ff                        	<unknown>
     c50: 84 00                        	<unknown>
     c52: 00 00                        	<unknown>
     c54: 03 00 00 00                  	lb	zero, 0(zero)
     c58: 00 00                        	<unknown>
     c5a: 00 00                        	<unknown>
     c5c: 00 00                        	<unknown>
     c5e: f1 ff                        	<unknown>
     c60: 20 01                        	<unknown>
     c62: 00 00                        	<unknown>
     c64: 04 00                        	<unknown>
		...
     c6e: f1 ff                        	<unknown>
     c70: ef 00 00 00                  	jal	0
     c74: 05 00                        	<unknown>
		...
     c7e: f1 ff                        	<unknown>
     c80: f6 00                        	<unknown>
     c82: 00 00                        	<unknown>
     c84: 06 00                        	<unknown>
		...
     c8e: f1 ff                        	<unknown>
     c90: fd 00                        	<unknown>
     c92: 00 00                        	<unknown>
     c94: 07 00 00 00                  	<unknown>
     c98: 00 00                        	<unknown>
     c9a: 00 00                        	<unknown>
     c9c: 00 00                        	<unknown>
     c9e: f1 ff                        	<unknown>
     ca0: 92 00                        	<unknown>
     ca2: 00 00                        	<unknown>
     ca4: 08 00                        	<unknown>
		...
     cae: f1 ff                        	<unknown>
     cb0: 99 00                        	<unknown>
     cb2: 00 00                        	<unknown>
     cb4: 09 00                        	<unknown>
		...
     cbe: f1 ff                        	<unknown>
     cc0: 4c 00                        	<unknown>
     cc2: 00 00                        	<unknown>
     cc4: 0a 00                        	<unknown>
		...
     cce: f1 ff                        	<unknown>
     cd0: 53 00 00 00                  	<unknown>
     cd4: 0b 00 00 00                  	vx_tmc	zero
     cd8: 00 00                        	<unknown>
     cda: 00 00                        	<unknown>
     cdc: 00 00                        	<unknown>
     cde: f1 ff                        	<unknown>
     ce0: 5a 00                        	<unknown>
     ce2: 00 00                        	<unknown>
     ce4: 0c 00                        	<unknown>
		...
     cee: f1 ff                        	<unknown>
     cf0: 61 00                        	<unknown>
     cf2: 00 00                        	<unknown>
     cf4: 0d 00                        	<unknown>
		...
     cfe: f1 ff                        	<unknown>
     d00: 68 00                        	<unknown>
     d02: 00 00                        	<unknown>
     d04: 0e 00                        	<unknown>
		...
     d0e: f1 ff                        	<unknown>
     d10: 6f 00 00 00                  	j	0
     d14: 0f 00 00 00                  	fence	unknown, unknown
     d18: 00 00                        	<unknown>
     d1a: 00 00                        	<unknown>
     d1c: 00 00                        	<unknown>
     d1e: f1 ff                        	<unknown>
     d20: 76 00                        	<unknown>
     d22: 00 00                        	<unknown>
     d24: 10 00                        	<unknown>
		...
     d2e: f1 ff                        	<unknown>
     d30: 7d 00                        	<unknown>
     d32: 00 00                        	<unknown>
     d34: 11 00                        	<unknown>
		...
     d3e: f1 ff                        	<unknown>
     d40: b0 00                        	<unknown>
     d42: 00 00                        	<unknown>
     d44: 12 00                        	<unknown>
		...
     d4e: f1 ff                        	<unknown>
     d50: b7 00 00 00                  	lui	ra, 0
     d54: 13 00 00 00                  	nop
     d58: 00 00                        	<unknown>
     d5a: 00 00                        	<unknown>
     d5c: 00 00                        	<unknown>
     d5e: f1 ff                        	<unknown>
     d60: be 00                        	<unknown>
     d62: 00 00                        	<unknown>
     d64: 14 00                        	<unknown>
		...
     d6e: f1 ff                        	<unknown>
     d70: c5 00                        	<unknown>
     d72: 00 00                        	<unknown>
     d74: 15 00                        	<unknown>
		...
     d7e: f1 ff                        	<unknown>
     d80: cc 00                        	<unknown>
     d82: 00 00                        	<unknown>
     d84: 16 00                        	<unknown>
		...
     d8e: f1 ff                        	<unknown>
     d90: d3 00 00 00                  	<unknown>
     d94: 17 00 00 00                  	auipc	zero, 0
     d98: 00 00                        	<unknown>
     d9a: 00 00                        	<unknown>
     d9c: 00 00                        	<unknown>
     d9e: f1 ff                        	<unknown>
     da0: da 00                        	<unknown>
     da2: 00 00                        	<unknown>
     da4: 18 00                        	<unknown>
		...
     dae: f1 ff                        	<unknown>
     db0: e1 00                        	<unknown>
     db2: 00 00                        	<unknown>
     db4: 19 00                        	<unknown>
		...
     dbe: f1 ff                        	<unknown>
     dc0: a0 00                        	<unknown>
     dc2: 00 00                        	<unknown>
     dc4: 1a 00                        	<unknown>
		...
     dce: f1 ff                        	<unknown>
     dd0: a8 00                        	<unknown>
     dd2: 00 00                        	<unknown>
     dd4: 1b 00 00 00                  	<unknown>
     dd8: 00 00                        	<unknown>
     dda: 00 00                        	<unknown>
     ddc: 00 00                        	<unknown>
     dde: f1 ff                        	<unknown>
     de0: 04 01                        	<unknown>
     de2: 00 00                        	<unknown>
     de4: 1c 00                        	<unknown>
		...
     dee: f1 ff                        	<unknown>
     df0: 0b 01 00 00                  	<unknown>
     df4: 1d 00                        	<unknown>
		...
     dfe: f1 ff                        	<unknown>
     e00: 12 01                        	<unknown>
     e02: 00 00                        	<unknown>
     e04: 1e 00                        	<unknown>
		...
     e0e: f1 ff                        	<unknown>
     e10: 19 01                        	<unknown>
     e12: 00 00                        	<unknown>
     e14: 1f 00 00 00                  	<unknown>
     e18: 00 00                        	<unknown>
     e1a: 00 00                        	<unknown>
     e1c: 00 00                        	<unknown>
     e1e: f1 ff                        	<unknown>
     e20: 3f 02 00 00                  	<unknown>
     e24: 9c 0b                        	<unknown>
     e26: 00 80                        	<unknown>
     e28: c8 00                        	<unknown>
     e2a: 00 00                        	<unknown>
     e2c: 02 00                        	<unknown>
     e2e: 02 00                        	<unknown>
     e30: 54 02                        	<unknown>
     e32: 00 00                        	<unknown>
     e34: 64 0c                        	<unknown>
     e36: 00 80                        	<unknown>
     e38: 30 00                        	<unknown>
     e3a: 00 00                        	<unknown>
     e3c: 02 00                        	<unknown>
     e3e: 02 00                        	<unknown>
     e40: 69 02                        	<unknown>
     e42: 00 00                        	<unknown>
     e44: 94 0c                        	<unknown>
     e46: 00 80                        	<unknown>
     e48: 2c 00                        	<unknown>
     e4a: 00 00                        	<unknown>
     e4c: 02 00                        	<unknown>
     e4e: 02 00                        	<unknown>
     e50: 7c 02                        	<unknown>
		...
     e5a: 00 00                        	<unknown>
     e5c: 04 00                        	<unknown>
     e5e: f1 ff                        	<unknown>
     e60: 89 02                        	<unknown>
     e62: 00 00                        	<unknown>
     e64: 48 0e                        	<unknown>
     e66: 00 80                        	<unknown>
     e68: 00 00                        	<unknown>
     e6a: 00 00                        	<unknown>
     e6c: 00 00                        	<unknown>
     e6e: 02 00                        	<unknown>
     e70: 94 02                        	<unknown>
     e72: 00 00                        	<unknown>
     e74: 60 0e                        	<unknown>
     e76: 00 80                        	<unknown>
     e78: 00 00                        	<unknown>
     e7a: 00 00                        	<unknown>
     e7c: 00 00                        	<unknown>
     e7e: 02 00                        	<unknown>
     e80: 9f 02 00 00                  	<unknown>
		...
     e8c: 04 00                        	<unknown>
     e8e: f1 ff                        	<unknown>
     e90: 27 01 00 00                  	<unknown>
		...
     e9c: 00 00                        	<unknown>
     e9e: f1 ff                        	<unknown>
     ea0: 2e 01                        	<unknown>
     ea2: 00 00                        	<unknown>
     ea4: 01 00                        	<unknown>
		...
     eae: f1 ff                        	<unknown>
     eb0: 85 01                        	<unknown>
     eb2: 00 00                        	<unknown>
     eb4: 02 00                        	<unknown>
		...
     ebe: f1 ff                        	<unknown>
     ec0: dc 01                        	<unknown>
     ec2: 00 00                        	<unknown>
     ec4: 03 00 00 00                  	lb	zero, 0(zero)
     ec8: 00 00                        	<unknown>
     eca: 00 00                        	<unknown>
     ecc: 00 00                        	<unknown>
     ece: f1 ff                        	<unknown>
     ed0: f3 01 00 00                  	<unknown>
     ed4: 04 00                        	<unknown>
		...
     ede: f1 ff                        	<unknown>
     ee0: fa 01                        	<unknown>
     ee2: 00 00                        	<unknown>
     ee4: 05 00                        	<unknown>
		...
     eee: f1 ff                        	<unknown>
     ef0: 01 02                        	<unknown>
     ef2: 00 00                        	<unknown>
     ef4: 06 00                        	<unknown>
		...
     efe: f1 ff                        	<unknown>
     f00: 08 02                        	<unknown>
     f02: 00 00                        	<unknown>
     f04: 07 00 00 00                  	<unknown>
     f08: 00 00                        	<unknown>
     f0a: 00 00                        	<unknown>
     f0c: 00 00                        	<unknown>
     f0e: f1 ff                        	<unknown>
     f10: 0f 02 00 00                  	<unknown>
     f14: 08 00                        	<unknown>
		...
     f1e: f1 ff                        	<unknown>
     f20: 16 02                        	<unknown>
     f22: 00 00                        	<unknown>
     f24: 09 00                        	<unknown>
		...
     f2e: f1 ff                        	<unknown>
     f30: 35 01                        	<unknown>
     f32: 00 00                        	<unknown>
     f34: 0a 00                        	<unknown>
		...
     f3e: f1 ff                        	<unknown>
     f40: 3d 01                        	<unknown>
     f42: 00 00                        	<unknown>
     f44: 0b 00 00 00                  	vx_tmc	zero
     f48: 00 00                        	<unknown>
     f4a: 00 00                        	<unknown>
     f4c: 00 00                        	<unknown>
     f4e: f1 ff                        	<unknown>
     f50: 45 01                        	<unknown>
     f52: 00 00                        	<unknown>
     f54: 0c 00                        	<unknown>
		...
     f5e: f1 ff                        	<unknown>
     f60: 4d 01                        	<unknown>
     f62: 00 00                        	<unknown>
     f64: 0d 00                        	<unknown>
		...
     f6e: f1 ff                        	<unknown>
     f70: 55 01                        	<unknown>
     f72: 00 00                        	<unknown>
     f74: 0e 00                        	<unknown>
		...
     f7e: f1 ff                        	<unknown>
     f80: 5d 01                        	<unknown>
     f82: 00 00                        	<unknown>
     f84: 0f 00 00 00                  	fence	unknown, unknown
     f88: 00 00                        	<unknown>
     f8a: 00 00                        	<unknown>
     f8c: 00 00                        	<unknown>
     f8e: f1 ff                        	<unknown>
     f90: 65 01                        	<unknown>
     f92: 00 00                        	<unknown>
     f94: 10 00                        	<unknown>
		...
     f9e: f1 ff                        	<unknown>
     fa0: 6d 01                        	<unknown>
     fa2: 00 00                        	<unknown>
     fa4: 11 00                        	<unknown>
		...
     fae: f1 ff                        	<unknown>
     fb0: 75 01                        	<unknown>
     fb2: 00 00                        	<unknown>
     fb4: 12 00                        	<unknown>
		...
     fbe: f1 ff                        	<unknown>
     fc0: 7d 01                        	<unknown>
     fc2: 00 00                        	<unknown>
     fc4: 13 00 00 00                  	nop
     fc8: 00 00                        	<unknown>
     fca: 00 00                        	<unknown>
     fcc: 00 00                        	<unknown>
     fce: f1 ff                        	<unknown>
     fd0: 8c 01                        	<unknown>
     fd2: 00 00                        	<unknown>
     fd4: 14 00                        	<unknown>
		...
     fde: f1 ff                        	<unknown>
     fe0: 94 01                        	<unknown>
     fe2: 00 00                        	<unknown>
     fe4: 15 00                        	<unknown>
		...
     fee: f1 ff                        	<unknown>
     ff0: 9c 01                        	<unknown>
     ff2: 00 00                        	<unknown>
     ff4: 16 00                        	<unknown>
		...
     ffe: f1 ff                        	<unknown>
    1000: a4 01                        	<unknown>
    1002: 00 00                        	<unknown>
    1004: 17 00 00 00                  	auipc	zero, 0
    1008: 00 00                        	<unknown>
    100a: 00 00                        	<unknown>
    100c: 00 00                        	<unknown>
    100e: f1 ff                        	<unknown>
    1010: ac 01                        	<unknown>
    1012: 00 00                        	<unknown>
    1014: 18 00                        	<unknown>
		...
    101e: f1 ff                        	<unknown>
    1020: b4 01                        	<unknown>
    1022: 00 00                        	<unknown>
    1024: 19 00                        	<unknown>
		...
    102e: f1 ff                        	<unknown>
    1030: bc 01                        	<unknown>
    1032: 00 00                        	<unknown>
    1034: 1a 00                        	<unknown>
		...
    103e: f1 ff                        	<unknown>
    1040: c4 01                        	<unknown>
    1042: 00 00                        	<unknown>
    1044: 1b 00 00 00                  	<unknown>
    1048: 00 00                        	<unknown>
    104a: 00 00                        	<unknown>
    104c: 00 00                        	<unknown>
    104e: f1 ff                        	<unknown>
    1050: cc 01                        	<unknown>
    1052: 00 00                        	<unknown>
    1054: 1c 00                        	<unknown>
		...
    105e: f1 ff                        	<unknown>
    1060: d4 01                        	<unknown>
    1062: 00 00                        	<unknown>
    1064: 1d 00                        	<unknown>
		...
    106e: f1 ff                        	<unknown>
    1070: e3 01 00 00                  	beqz	zero, 2050
    1074: 1e 00                        	<unknown>
		...
    107e: f1 ff                        	<unknown>
    1080: eb 01 00 00                  	<unknown>
    1084: 1f 00 00 00                  	<unknown>
    1088: 00 00                        	<unknown>
    108a: 00 00                        	<unknown>
    108c: 00 00                        	<unknown>
    108e: f1 ff                        	<unknown>
    1090: 1d 02                        	<unknown>
		...
    109e: f1 ff                        	<unknown>
    10a0: 8b 00 00 00                  	<unknown>
    10a4: 01 00                        	<unknown>
		...
    10ae: f1 ff                        	<unknown>
    10b0: e8 00                        	<unknown>
    10b2: 00 00                        	<unknown>
    10b4: 02 00                        	<unknown>
		...
    10be: f1 ff                        	<unknown>
    10c0: 84 00                        	<unknown>
    10c2: 00 00                        	<unknown>
    10c4: 03 00 00 00                  	lb	zero, 0(zero)
    10c8: 00 00                        	<unknown>
    10ca: 00 00                        	<unknown>
    10cc: 00 00                        	<unknown>
    10ce: f1 ff                        	<unknown>
    10d0: 20 01                        	<unknown>
    10d2: 00 00                        	<unknown>
    10d4: 04 00                        	<unknown>
		...
    10de: f1 ff                        	<unknown>
    10e0: ef 00 00 00                  	jal	0
    10e4: 05 00                        	<unknown>
		...
    10ee: f1 ff                        	<unknown>
    10f0: f6 00                        	<unknown>
    10f2: 00 00                        	<unknown>
    10f4: 06 00                        	<unknown>
		...
    10fe: f1 ff                        	<unknown>
    1100: fd 00                        	<unknown>
    1102: 00 00                        	<unknown>
    1104: 07 00 00 00                  	<unknown>
    1108: 00 00                        	<unknown>
    110a: 00 00                        	<unknown>
    110c: 00 00                        	<unknown>
    110e: f1 ff                        	<unknown>
    1110: 92 00                        	<unknown>
    1112: 00 00                        	<unknown>
    1114: 08 00                        	<unknown>
		...
    111e: f1 ff                        	<unknown>
    1120: 99 00                        	<unknown>
    1122: 00 00                        	<unknown>
    1124: 09 00                        	<unknown>
		...
    112e: f1 ff                        	<unknown>
    1130: 4c 00                        	<unknown>
    1132: 00 00                        	<unknown>
    1134: 0a 00                        	<unknown>
		...
    113e: f1 ff                        	<unknown>
    1140: 53 00 00 00                  	<unknown>
    1144: 0b 00 00 00                  	vx_tmc	zero
    1148: 00 00                        	<unknown>
    114a: 00 00                        	<unknown>
    114c: 00 00                        	<unknown>
    114e: f1 ff                        	<unknown>
    1150: 5a 00                        	<unknown>
    1152: 00 00                        	<unknown>
    1154: 0c 00                        	<unknown>
		...
    115e: f1 ff                        	<unknown>
    1160: 61 00                        	<unknown>
    1162: 00 00                        	<unknown>
    1164: 0d 00                        	<unknown>
		...
    116e: f1 ff                        	<unknown>
    1170: 68 00                        	<unknown>
    1172: 00 00                        	<unknown>
    1174: 0e 00                        	<unknown>
		...
    117e: f1 ff                        	<unknown>
    1180: 6f 00 00 00                  	j	0
    1184: 0f 00 00 00                  	fence	unknown, unknown
    1188: 00 00                        	<unknown>
    118a: 00 00                        	<unknown>
    118c: 00 00                        	<unknown>
    118e: f1 ff                        	<unknown>
    1190: 76 00                        	<unknown>
    1192: 00 00                        	<unknown>
    1194: 10 00                        	<unknown>
		...
    119e: f1 ff                        	<unknown>
    11a0: 7d 00                        	<unknown>
    11a2: 00 00                        	<unknown>
    11a4: 11 00                        	<unknown>
		...
    11ae: f1 ff                        	<unknown>
    11b0: b0 00                        	<unknown>
    11b2: 00 00                        	<unknown>
    11b4: 12 00                        	<unknown>
		...
    11be: f1 ff                        	<unknown>
    11c0: b7 00 00 00                  	lui	ra, 0
    11c4: 13 00 00 00                  	nop
    11c8: 00 00                        	<unknown>
    11ca: 00 00                        	<unknown>
    11cc: 00 00                        	<unknown>
    11ce: f1 ff                        	<unknown>
    11d0: be 00                        	<unknown>
    11d2: 00 00                        	<unknown>
    11d4: 14 00                        	<unknown>
		...
    11de: f1 ff                        	<unknown>
    11e0: c5 00                        	<unknown>
    11e2: 00 00                        	<unknown>
    11e4: 15 00                        	<unknown>
		...
    11ee: f1 ff                        	<unknown>
    11f0: cc 00                        	<unknown>
    11f2: 00 00                        	<unknown>
    11f4: 16 00                        	<unknown>
		...
    11fe: f1 ff                        	<unknown>
    1200: d3 00 00 00                  	<unknown>
    1204: 17 00 00 00                  	auipc	zero, 0
    1208: 00 00                        	<unknown>
    120a: 00 00                        	<unknown>
    120c: 00 00                        	<unknown>
    120e: f1 ff                        	<unknown>
    1210: da 00                        	<unknown>
    1212: 00 00                        	<unknown>
    1214: 18 00                        	<unknown>
		...
    121e: f1 ff                        	<unknown>
    1220: e1 00                        	<unknown>
    1222: 00 00                        	<unknown>
    1224: 19 00                        	<unknown>
		...
    122e: f1 ff                        	<unknown>
    1230: a0 00                        	<unknown>
    1232: 00 00                        	<unknown>
    1234: 1a 00                        	<unknown>
		...
    123e: f1 ff                        	<unknown>
    1240: a8 00                        	<unknown>
    1242: 00 00                        	<unknown>
    1244: 1b 00 00 00                  	<unknown>
    1248: 00 00                        	<unknown>
    124a: 00 00                        	<unknown>
    124c: 00 00                        	<unknown>
    124e: f1 ff                        	<unknown>
    1250: 04 01                        	<unknown>
    1252: 00 00                        	<unknown>
    1254: 1c 00                        	<unknown>
		...
    125e: f1 ff                        	<unknown>
    1260: 0b 01 00 00                  	<unknown>
    1264: 1d 00                        	<unknown>
		...
    126e: f1 ff                        	<unknown>
    1270: 12 01                        	<unknown>
    1272: 00 00                        	<unknown>
    1274: 1e 00                        	<unknown>
		...
    127e: f1 ff                        	<unknown>
    1280: 19 01                        	<unknown>
    1282: 00 00                        	<unknown>
    1284: 1f 00 00 00                  	<unknown>
    1288: 00 00                        	<unknown>
    128a: 00 00                        	<unknown>
    128c: 00 00                        	<unknown>
    128e: f1 ff                        	<unknown>
    1290: ab 02 00 00                  	vx_tex	t0, zero, zero, zero
		...
    129c: 04 00                        	<unknown>
    129e: f1 ff                        	<unknown>
    12a0: ad 02                        	<unknown>
		...
    12aa: 00 00                        	<unknown>
    12ac: 04 00                        	<unknown>
    12ae: f1 ff                        	<unknown>
    12b0: a9 02                        	<unknown>
		...
    12ba: 00 00                        	<unknown>
    12bc: 04 00                        	<unknown>
    12be: f1 ff                        	<unknown>
    12c0: b4 02                        	<unknown>
		...
    12ca: 00 00                        	<unknown>
    12cc: 04 00                        	<unknown>
    12ce: f1 ff                        	<unknown>
    12d0: b4 02                        	<unknown>
		...
    12da: 00 00                        	<unknown>
    12dc: 04 00                        	<unknown>
    12de: f1 ff                        	<unknown>
    12e0: be 02                        	<unknown>
		...
    12ea: 00 00                        	<unknown>
    12ec: 04 00                        	<unknown>
    12ee: f1 ff                        	<unknown>
    12f0: c7 02 00 00                  	<unknown>
    12f4: 90 29                        	<unknown>
    12f6: 00 80                        	<unknown>
    12f8: 28 04                        	<unknown>
    12fa: 00 00                        	<unknown>
    12fc: 01 00                        	<unknown>
    12fe: 06 00                        	<unknown>
		...
    130c: 04 00                        	<unknown>
    130e: f1 ff                        	<unknown>
    1310: d3 02 00 00                  	<unknown>
    1314: 8c 29                        	<unknown>
    1316: 00 80                        	<unknown>
    1318: 00 00                        	<unknown>
    131a: 00 00                        	<unknown>
    131c: 00 00                        	<unknown>
    131e: 05 00                        	<unknown>
    1320: e4 02                        	<unknown>
    1322: 00 00                        	<unknown>
    1324: 8c 29                        	<unknown>
    1326: 00 80                        	<unknown>
    1328: 00 00                        	<unknown>
    132a: 00 00                        	<unknown>
    132c: 00 00                        	<unknown>
    132e: 05 00                        	<unknown>
    1330: f7 02 00 00                  	<unknown>
    1334: 8c 29                        	<unknown>
    1336: 00 80                        	<unknown>
    1338: 00 00                        	<unknown>
    133a: 00 00                        	<unknown>
    133c: 00 00                        	<unknown>
    133e: 05 00                        	<unknown>
    1340: 08 03                        	<unknown>
    1342: 00 00                        	<unknown>
    1344: 88 29                        	<unknown>
    1346: 00 80                        	<unknown>
    1348: 00 00                        	<unknown>
    134a: 00 00                        	<unknown>
    134c: 00 00                        	<unknown>
    134e: 05 00                        	<unknown>
    1350: 1c 03                        	<unknown>
    1352: 00 00                        	<unknown>
    1354: 88 29                        	<unknown>
    1356: 00 80                        	<unknown>
    1358: 00 00                        	<unknown>
    135a: 00 00                        	<unknown>
    135c: 00 00                        	<unknown>
    135e: 05 00                        	<unknown>
    1360: 2f 03 00 00                  	<unknown>
    1364: 88 29                        	<unknown>
    1366: 00 80                        	<unknown>
    1368: 00 00                        	<unknown>
    136a: 00 00                        	<unknown>
    136c: 00 00                        	<unknown>
    136e: 05 00                        	<unknown>
    1370: 45 03                        	<unknown>
    1372: 00 00                        	<unknown>
    1374: 84 13                        	<unknown>
    1376: 00 80                        	<unknown>
    1378: 80 04                        	<unknown>
    137a: 00 00                        	<unknown>
    137c: 12 02                        	<unknown>
    137e: 02 00                        	<unknown>
    1380: 4e 03                        	<unknown>
    1382: 00 00                        	<unknown>
    1384: c0 0c                        	<unknown>
    1386: 00 80                        	<unknown>
    1388: 58 01                        	<unknown>
    138a: 00 00                        	<unknown>
    138c: 12 00                        	<unknown>
    138e: 02 00                        	<unknown>
    1390: 5d 03                        	<unknown>
    1392: 00 00                        	<unknown>
    1394: bc 2d                        	<unknown>
    1396: 00 80                        	<unknown>
    1398: 80 00                        	<unknown>
    139a: 00 00                        	<unknown>
    139c: 11 00                        	<unknown>
    139e: 08 00                        	<unknown>
    13a0: 6b 03 00 00                  	<unknown>
    13a4: b8 2d                        	<unknown>
    13a6: 00 80                        	<unknown>
    13a8: 00 00                        	<unknown>
    13aa: 00 00                        	<unknown>
    13ac: 10 00                        	<unknown>
    13ae: 07 00 7b 03                  	<unknown>
    13b2: 00 00                        	<unknown>
    13b4: 90 31                        	<unknown>
    13b6: 00 80                        	<unknown>
    13b8: 00 00                        	<unknown>
    13ba: 00 00                        	<unknown>
    13bc: 10 00                        	<unknown>
    13be: f1 ff                        	<unknown>
    13c0: 8c 03                        	<unknown>
    13c2: 00 00                        	<unknown>
    13c4: b8 2d                        	<unknown>
    13c6: 00 80                        	<unknown>
    13c8: 04 00                        	<unknown>
    13ca: 00 00                        	<unknown>
    13cc: 11 00                        	<unknown>
    13ce: 07 00 9f 03                  	<unknown>
    13d2: 00 00                        	<unknown>
    13d4: ac 0a                        	<unknown>
    13d6: 00 80                        	<unknown>
    13d8: 94 00                        	<unknown>
    13da: 00 00                        	<unknown>
    13dc: 12 00                        	<unknown>
    13de: 02 00                        	<unknown>
    13e0: b1 03                        	<unknown>
    13e2: 00 00                        	<unknown>
    13e4: 18 0e                        	<unknown>
    13e6: 00 80                        	<unknown>
    13e8: 00 00                        	<unknown>
    13ea: 00 00                        	<unknown>
    13ec: 12 00                        	<unknown>
    13ee: 02 00                        	<unknown>
    13f0: bb 03 00 00                  	<unknown>
    13f4: 40 0b                        	<unknown>
    13f6: 00 80                        	<unknown>
    13f8: 5c 00                        	<unknown>
    13fa: 00 00                        	<unknown>
    13fc: 12 00                        	<unknown>
    13fe: 02 00                        	<unknown>
    1400: cd 03                        	<unknown>
    1402: 00 00                        	<unknown>
    1404: 7c 0a                        	<unknown>
    1406: 00 80                        	<unknown>
    1408: 00 00                        	<unknown>
    140a: 00 00                        	<unknown>
    140c: 12 00                        	<unknown>
    140e: 02 00                        	<unknown>
    1410: d7 03 00 00                  	<unknown>
    1414: 60 12                        	<unknown>
    1416: 00 80                        	<unknown>
    1418: 24 01                        	<unknown>
    141a: 00 00                        	<unknown>
    141c: 12 00                        	<unknown>
    141e: 02 00                        	<unknown>
    1420: 0d 04                        	<unknown>
    1422: 00 00                        	<unknown>
    1424: 00 00                        	<unknown>
    1426: 00 80                        	<unknown>
    1428: 50 00                        	<unknown>
    142a: 00 00                        	<unknown>
    142c: 12 00                        	<unknown>
    142e: 01 00                        	<unknown>
    1430: e8 03                        	<unknown>
    1432: 00 00                        	<unknown>
    1434: c4 11                        	<unknown>
    1436: 00 80                        	<unknown>
    1438: 9c 00                        	<unknown>
    143a: 00 00                        	<unknown>
    143c: 12 00                        	<unknown>
    143e: 02 00                        	<unknown>
    1440: fc 03                        	<unknown>
    1442: 00 00                        	<unknown>
    1444: 3c 2e                        	<unknown>
    1446: 00 80                        	<unknown>
    1448: 00 00                        	<unknown>
    144a: 00 00                        	<unknown>
    144c: 10 00                        	<unknown>
    144e: 08 00                        	<unknown>
    1450: 08 04                        	<unknown>
    1452: 00 00                        	<unknown>
    1454: bc 2d                        	<unknown>
    1456: 00 80                        	<unknown>
    1458: 00 00                        	<unknown>
    145a: 00 00                        	<unknown>
    145c: 10 00                        	<unknown>
    145e: 08 00                        	<unknown>
    1460: 14 04                        	<unknown>
    1462: 00 00                        	<unknown>
    1464: e8 10                        	<unknown>
    1466: 00 80                        	<unknown>
    1468: dc 00                        	<unknown>
    146a: 00 00                        	<unknown>
    146c: 12 00                        	<unknown>
    146e: 02 00                        	<unknown>
    1470: 1b 04 00 00                  	<unknown>
    1474: 34 0a                        	<unknown>
    1476: 00 80                        	<unknown>
    1478: 34 00                        	<unknown>
    147a: 00 00                        	<unknown>
    147c: 12 00                        	<unknown>
    147e: 02 00                        	<unknown>
    1480: 20 04                        	<unknown>
    1482: 00 00                        	<unknown>
    1484: 04 18                        	<unknown>
    1486: 00 80                        	<unknown>
    1488: 00 01                        	<unknown>
    148a: 00 00                        	<unknown>
    148c: 11 02                        	<unknown>
    148e: 03 00 2a 04                  	lb	zero, 66(s4)
    1492: 00 00                        	<unknown>
    1494: a0 10                        	<unknown>
    1496: 00 80                        	<unknown>
    1498: 14 00                        	<unknown>
    149a: 00 00                        	<unknown>
    149c: 12 00                        	<unknown>
    149e: 02 00                        	<unknown>
    14a0: 31 04                        	<unknown>
    14a2: 00 00                        	<unknown>
    14a4: 90 29                        	<unknown>
    14a6: 00 80                        	<unknown>
    14a8: 00 00                        	<unknown>
    14aa: 00 00                        	<unknown>
    14ac: 10 00                        	<unknown>
    14ae: 06 00                        	<unknown>
    14b0: 40 04                        	<unknown>
    14b2: 00 00                        	<unknown>
    14b4: bc 2d                        	<unknown>
    14b6: 00 80                        	<unknown>
    14b8: 00 00                        	<unknown>
    14ba: 00 00                        	<unknown>
    14bc: 10 00                        	<unknown>
    14be: 07 00 df 02                  	<unknown>
    14c2: 00 00                        	<unknown>
    14c4: 3c 2e                        	<unknown>
    14c6: 00 80                        	<unknown>
    14c8: 00 00                        	<unknown>
    14ca: 00 00                        	<unknown>
    14cc: 10 00                        	<unknown>
    14ce: 08 00                        	<unknown>
    14d0: 55 04                        	<unknown>
    14d2: 00 00                        	<unknown>
    14d4: b4 10                        	<unknown>
    14d6: 00 80                        	<unknown>
    14d8: 34 00                        	<unknown>
    14da: 00 00                        	<unknown>
    14dc: 12 00                        	<unknown>
    14de: 02 00                        	<unknown>
    14e0: 47 04 00 00                  	<unknown>
    14e4: 8c 0e                        	<unknown>
    14e6: 00 80                        	<unknown>
    14e8: 14 02                        	<unknown>
    14ea: 00 00                        	<unknown>
    14ec: 12 00                        	<unknown>
    14ee: 02 00                        	<unknown>
    14f0: 54 04                        	<unknown>
    14f2: 00 00                        	<unknown>
    14f4: 68 0a                        	<unknown>
    14f6: 00 80                        	<unknown>
    14f8: 00 00                        	<unknown>
    14fa: 00 00                        	<unknown>
    14fc: 12 00                        	<unknown>
    14fe: 02 00                        	<unknown>
    1500: 5a 04                        	<unknown>
    1502: 00 00                        	<unknown>
    1504: 68 00                        	<unknown>
    1506: 00 80                        	<unknown>
    1508: 94 09                        	<unknown>
    150a: 00 00                        	<unknown>
    150c: 12 00                        	<unknown>
    150e: 02 00                        	<unknown>

Disassembly of section .strtab:

00000000 .strtab:
       0: 00 76                        	<unknown>
       2: 78 5f                        	<unknown>
       4: 73 74 61 72                  	csrrci	s0, 1830, 2
       8: 74 2e                        	<unknown>
       a: 53 2e 6f 00                  	<unknown>
       e: 52 45                        	<unknown>
      10: 54 55                        	<unknown>
      12: 52 4e                        	<unknown>
      14: 00 5f                        	<unknown>
      16: 5f 63 61 6c                  	<unknown>
      1a: 6c 5f                        	<unknown>
      1c: 61 74                        	<unknown>
      1e: 65 78                        	<unknown>
      20: 69 74                        	<unknown>
      22: 2e 63                        	<unknown>
      24: 00 72                        	<unknown>
      26: 65 67                        	<unknown>
      28: 69 73                        	<unknown>
      2a: 74 65                        	<unknown>
      2c: 72 5f                        	<unknown>
      2e: 66 69                        	<unknown>
      30: 6e 69                        	<unknown>
      32: 00 6b                        	<unknown>
      34: 65 72                        	<unknown>
      36: 6e 65                        	<unknown>
      38: 6c 2e                        	<unknown>
      3a: 63 70 70 00                  	bgeu	zero, t2, 0
      3e: 5f 5a 4c 37                  	<unknown>
      42: 49 6e                        	<unknown>
      44: 76 65                        	<unknown>
      46: 72 73                        	<unknown>
      48: 65 50                        	<unknown>
      4a: 76 00                        	<unknown>
      4c: 72 65                        	<unknown>
      4e: 67 5f 61 30                  	<unknown>
      52: 00 72                        	<unknown>
      54: 65 67                        	<unknown>
      56: 5f 61 31 00                  	<unknown>
      5a: 72 65                        	<unknown>
      5c: 67 5f 61 32                  	<unknown>
      60: 00 72                        	<unknown>
      62: 65 67                        	<unknown>
      64: 5f 61 33 00                  	<unknown>
      68: 72 65                        	<unknown>
      6a: 67 5f 61 34                  	<unknown>
      6e: 00 72                        	<unknown>
      70: 65 67                        	<unknown>
      72: 5f 61 35 00                  	<unknown>
      76: 72 65                        	<unknown>
      78: 67 5f 61 36                  	<unknown>
      7c: 00 72                        	<unknown>
      7e: 65 67                        	<unknown>
      80: 5f 61 37 00                  	<unknown>
      84: 72 65                        	<unknown>
      86: 67 5f 67 70                  	<unknown>
      8a: 00 72                        	<unknown>
      8c: 65 67                        	<unknown>
      8e: 5f 72 61 00                  	<unknown>
      92: 72 65                        	<unknown>
      94: 67 5f 73 30                  	<unknown>
      98: 00 72                        	<unknown>
      9a: 65 67                        	<unknown>
      9c: 5f 73 31 00                  	<unknown>
      a0: 72 65                        	<unknown>
      a2: 67 5f 73 31                  	<unknown>
      a6: 30 00                        	<unknown>
      a8: 72 65                        	<unknown>
      aa: 67 5f 73 31                  	<unknown>
      ae: 31 00                        	<unknown>
      b0: 72 65                        	<unknown>
      b2: 67 5f 73 32                  	<unknown>
      b6: 00 72                        	<unknown>
      b8: 65 67                        	<unknown>
      ba: 5f 73 33 00                  	<unknown>
      be: 72 65                        	<unknown>
      c0: 67 5f 73 34                  	<unknown>
      c4: 00 72                        	<unknown>
      c6: 65 67                        	<unknown>
      c8: 5f 73 35 00                  	<unknown>
      cc: 72 65                        	<unknown>
      ce: 67 5f 73 36                  	<unknown>
      d2: 00 72                        	<unknown>
      d4: 65 67                        	<unknown>
      d6: 5f 73 37 00                  	<unknown>
      da: 72 65                        	<unknown>
      dc: 67 5f 73 38                  	<unknown>
      e0: 00 72                        	<unknown>
      e2: 65 67                        	<unknown>
      e4: 5f 73 39 00                  	<unknown>
      e8: 72 65                        	<unknown>
      ea: 67 5f 73 70                  	<unknown>
      ee: 00 72                        	<unknown>
      f0: 65 67                        	<unknown>
      f2: 5f 74 30 00                  	<unknown>
      f6: 72 65                        	<unknown>
      f8: 67 5f 74 31                  	<unknown>
      fc: 00 72                        	<unknown>
      fe: 65 67                        	<unknown>
     100: 5f 74 32 00                  	<unknown>
     104: 72 65                        	<unknown>
     106: 67 5f 74 33                  	<unknown>
     10a: 00 72                        	<unknown>
     10c: 65 67                        	<unknown>
     10e: 5f 74 34 00                  	<unknown>
     112: 72 65                        	<unknown>
     114: 67 5f 74 35                  	<unknown>
     118: 00 72                        	<unknown>
     11a: 65 67                        	<unknown>
     11c: 5f 74 36 00                  	<unknown>
     120: 72 65                        	<unknown>
     122: 67 5f 74 70                  	<unknown>
     126: 00 72                        	<unknown>
     128: 65 67                        	<unknown>
     12a: 5f 78 30 00                  	<unknown>
     12e: 72 65                        	<unknown>
     130: 67 5f 78 31                  	<unknown>
     134: 00 72                        	<unknown>
     136: 65 67                        	<unknown>
     138: 5f 78 31 30                  	<unknown>
     13c: 00 72                        	<unknown>
     13e: 65 67                        	<unknown>
     140: 5f 78 31 31                  	<unknown>
     144: 00 72                        	<unknown>
     146: 65 67                        	<unknown>
     148: 5f 78 31 32                  	<unknown>
     14c: 00 72                        	<unknown>
     14e: 65 67                        	<unknown>
     150: 5f 78 31 33                  	<unknown>
     154: 00 72                        	<unknown>
     156: 65 67                        	<unknown>
     158: 5f 78 31 34                  	<unknown>
     15c: 00 72                        	<unknown>
     15e: 65 67                        	<unknown>
     160: 5f 78 31 35                  	<unknown>
     164: 00 72                        	<unknown>
     166: 65 67                        	<unknown>
     168: 5f 78 31 36                  	<unknown>
     16c: 00 72                        	<unknown>
     16e: 65 67                        	<unknown>
     170: 5f 78 31 37                  	<unknown>
     174: 00 72                        	<unknown>
     176: 65 67                        	<unknown>
     178: 5f 78 31 38                  	<unknown>
     17c: 00 72                        	<unknown>
     17e: 65 67                        	<unknown>
     180: 5f 78 31 39                  	<unknown>
     184: 00 72                        	<unknown>
     186: 65 67                        	<unknown>
     188: 5f 78 32 00                  	<unknown>
     18c: 72 65                        	<unknown>
     18e: 67 5f 78 32                  	<unknown>
     192: 30 00                        	<unknown>
     194: 72 65                        	<unknown>
     196: 67 5f 78 32                  	<unknown>
     19a: 31 00                        	<unknown>
     19c: 72 65                        	<unknown>
     19e: 67 5f 78 32                  	<unknown>
     1a2: 32 00                        	<unknown>
     1a4: 72 65                        	<unknown>
     1a6: 67 5f 78 32                  	<unknown>
     1aa: 33 00 72 65                  	<unknown>
     1ae: 67 5f 78 32                  	<unknown>
     1b2: 34 00                        	<unknown>
     1b4: 72 65                        	<unknown>
     1b6: 67 5f 78 32                  	<unknown>
     1ba: 35 00                        	<unknown>
     1bc: 72 65                        	<unknown>
     1be: 67 5f 78 32                  	<unknown>
     1c2: 36 00                        	<unknown>
     1c4: 72 65                        	<unknown>
     1c6: 67 5f 78 32                  	<unknown>
     1ca: 37 00 72 65                  	lui	zero, 415520
     1ce: 67 5f 78 32                  	<unknown>
     1d2: 38 00                        	<unknown>
     1d4: 72 65                        	<unknown>
     1d6: 67 5f 78 32                  	<unknown>
     1da: 39 00                        	<unknown>
     1dc: 72 65                        	<unknown>
     1de: 67 5f 78 33                  	<unknown>
     1e2: 00 72                        	<unknown>
     1e4: 65 67                        	<unknown>
     1e6: 5f 78 33 30                  	<unknown>
     1ea: 00 72                        	<unknown>
     1ec: 65 67                        	<unknown>
     1ee: 5f 78 33 31                  	<unknown>
     1f2: 00 72                        	<unknown>
     1f4: 65 67                        	<unknown>
     1f6: 5f 78 34 00                  	<unknown>
     1fa: 72 65                        	<unknown>
     1fc: 67 5f 78 35                  	<unknown>
     200: 00 72                        	<unknown>
     202: 65 67                        	<unknown>
     204: 5f 78 36 00                  	<unknown>
     208: 72 65                        	<unknown>
     20a: 67 5f 78 37                  	<unknown>
     20e: 00 72                        	<unknown>
     210: 65 67                        	<unknown>
     212: 5f 78 38 00                  	<unknown>
     216: 72 65                        	<unknown>
     218: 67 5f 78 39                  	<unknown>
     21c: 00 72                        	<unknown>
     21e: 65 67                        	<unknown>
     220: 5f 7a 65 72                  	<unknown>
     224: 6f 00 76 78                  	j	397190
     228: 5f 73 79 73                  	<unknown>
     22c: 63 61 6c 6c                  	bltu	s8, t1, 1730
     230: 73 2e 63 00                  	csrrs	t3, 6, t1
     234: 76 78                        	<unknown>
     236: 5f 73 70 61                  	<unknown>
     23a: 77 6e 2e 63                  	<unknown>
     23e: 00 73                        	<unknown>
     240: 70 61                        	<unknown>
     242: 77 6e 5f 74                  	<unknown>
     246: 61 73                        	<unknown>
     248: 6b 73 5f 61                  	<unknown>
     24c: 6c 6c                        	<unknown>
     24e: 5f 73 74 75                  	<unknown>
     252: 62 00                        	<unknown>
     254: 73 70 61 77                  	csrci	1910, 2
     258: 6e 5f                        	<unknown>
     25a: 74 61                        	<unknown>
     25c: 73 6b 73 5f                  	csrrsi	s6, 1527, 6
     260: 72 65                        	<unknown>
     262: 6d 5f                        	<unknown>
     264: 73 74 75 62                  	csrrci	s0, 1575, 10
     268: 00 73                        	<unknown>
     26a: 70 61                        	<unknown>
     26c: 77 6e 5f 74                  	<unknown>
     270: 61 73                        	<unknown>
     272: 6b 73 5f 61                  	<unknown>
     276: 6c 6c                        	<unknown>
     278: 5f 63 62 00                  	<unknown>
     27c: 76 78                        	<unknown>
     27e: 5f 73 70 61                  	<unknown>
     282: 77 6e 2e 53                  	<unknown>
     286: 2e 6f                        	<unknown>
     288: 00 6c                        	<unknown>
     28a: 61 62                        	<unknown>
     28c: 65 6c                        	<unknown>
     28e: 5f 6c 6f 6f                  	<unknown>
     292: 70 00                        	<unknown>
     294: 6c 61                        	<unknown>
     296: 62 65                        	<unknown>
     298: 6c 5f                        	<unknown>
     29a: 6a 6f                        	<unknown>
     29c: 69 6e                        	<unknown>
     29e: 00 76                        	<unknown>
     2a0: 78 5f                        	<unknown>
     2a2: 70 65                        	<unknown>
     2a4: 72 66                        	<unknown>
     2a6: 2e 63                        	<unknown>
     2a8: 00 5f                        	<unknown>
     2aa: 5f 61 74 65                  	<unknown>
     2ae: 78 69                        	<unknown>
     2b0: 74 2e                        	<unknown>
     2b2: 63 00 6c 69                  	beq	s8, s6, 1664
     2b6: 62 67                        	<unknown>
     2b8: 63 63 32 2e                  	bltu	tp, gp, 742
     2bc: 63 00 69 6d                  	beq	s2, s6, 1728
     2c0: 70 75                        	<unknown>
     2c2: 72 65                        	<unknown>
     2c4: 2e 63                        	<unknown>
     2c6: 00 69                        	<unknown>
     2c8: 6d 70                        	<unknown>
     2ca: 75 72                        	<unknown>
     2cc: 65 5f                        	<unknown>
     2ce: 64 61                        	<unknown>
     2d0: 74 61                        	<unknown>
     2d2: 00 5f                        	<unknown>
     2d4: 5f 66 69 6e                  	<unknown>
     2d8: 69 5f                        	<unknown>
     2da: 61 72                        	<unknown>
     2dc: 72 61                        	<unknown>
     2de: 79 5f                        	<unknown>
     2e0: 65 6e                        	<unknown>
     2e2: 64 00                        	<unknown>
     2e4: 5f 5f 66 69                  	<unknown>
     2e8: 6e 69                        	<unknown>
     2ea: 5f 61 72 72                  	<unknown>
     2ee: 61 79                        	<unknown>
     2f0: 5f 73 74 61                  	<unknown>
     2f4: 72 74                        	<unknown>
     2f6: 00 5f                        	<unknown>
     2f8: 5f 69 6e 69                  	<unknown>
     2fc: 74 5f                        	<unknown>
     2fe: 61 72                        	<unknown>
     300: 72 61                        	<unknown>
     302: 79 5f                        	<unknown>
     304: 65 6e                        	<unknown>
     306: 64 00                        	<unknown>
     308: 5f 5f 70 72                  	<unknown>
     30c: 65 69                        	<unknown>
     30e: 6e 69                        	<unknown>
     310: 74 5f                        	<unknown>
     312: 61 72                        	<unknown>
     314: 72 61                        	<unknown>
     316: 79 5f                        	<unknown>
     318: 65 6e                        	<unknown>
     31a: 64 00                        	<unknown>
     31c: 5f 5f 69 6e                  	<unknown>
     320: 69 74                        	<unknown>
     322: 5f 61 72 72                  	<unknown>
     326: 61 79                        	<unknown>
     328: 5f 73 74 61                  	<unknown>
     32c: 72 74                        	<unknown>
     32e: 00 5f                        	<unknown>
     330: 5f 70 72 65                  	<unknown>
     334: 69 6e                        	<unknown>
     336: 69 74                        	<unknown>
     338: 5f 61 72 72                  	<unknown>
     33c: 61 79                        	<unknown>
     33e: 5f 73 74 61                  	<unknown>
     342: 72 74                        	<unknown>
     344: 00 5f                        	<unknown>
     346: 5f 64 69 76                  	<unknown>
     34a: 64 69                        	<unknown>
     34c: 33 00 76 78                  	<unknown>
     350: 5f 73 70 61                  	<unknown>
     354: 77 6e 5f 74                  	<unknown>
     358: 61 73                        	<unknown>
     35a: 6b 73 00 67                  	<unknown>
     35e: 5f 77 73 70                  	<unknown>
     362: 61 77                        	<unknown>
     364: 6e 5f                        	<unknown>
     366: 61 72                        	<unknown>
     368: 67 73 00 5f                  	<unknown>
     36c: 5f 53 44 41                  	<unknown>
     370: 54 41                        	<unknown>
     372: 5f 42 45 47                  	<unknown>
     376: 49 4e                        	<unknown>
     378: 5f 5f 00 5f                  	<unknown>
     37c: 5f 67 6c 6f                  	<unknown>
     380: 62 61                        	<unknown>
     382: 6c 5f                        	<unknown>
     384: 70 6f                        	<unknown>
     386: 69 6e                        	<unknown>
     388: 74 65                        	<unknown>
     38a: 72 00                        	<unknown>
     38c: 5f 67 6c 6f                  	<unknown>
     390: 62 61                        	<unknown>
     392: 6c 5f                        	<unknown>
     394: 69 6d                        	<unknown>
     396: 70 75                        	<unknown>
     398: 72 65                        	<unknown>
     39a: 5f 70 74 72                  	<unknown>
     39e: 00 5f                        	<unknown>
     3a0: 5f 6c 69 62                  	<unknown>
     3a4: 63 5f 69 6e                  	bge	s2, t1, 1790
     3a8: 69 74                        	<unknown>
     3aa: 5f 61 72 72                  	<unknown>
     3ae: 61 79                        	<unknown>
     3b0: 00 76                        	<unknown>
     3b2: 78 5f                        	<unknown>
     3b4: 73 65 72 69                  	csrrsi	a0, 1687, 4
     3b8: 61 6c                        	<unknown>
     3ba: 00 5f                        	<unknown>
     3bc: 5f 6c 69 62                  	<unknown>
     3c0: 63 5f 66 69                  	bge	a2, s6, 1694
     3c4: 6e 69                        	<unknown>
     3c6: 5f 61 72 72                  	<unknown>
     3ca: 61 79                        	<unknown>
     3cc: 00 76                        	<unknown>
     3ce: 78 5f                        	<unknown>
     3d0: 73 65 74 5f                  	csrrsi	a0, 1527, 8
     3d4: 73 70 00 5f                  	csrci	1520, 0
     3d8: 5f 63 61 6c                  	<unknown>
     3dc: 6c 5f                        	<unknown>
     3de: 65 78                        	<unknown>
     3e0: 69 74                        	<unknown>
     3e2: 70 72                        	<unknown>
     3e4: 6f 63 73 00                  	jal	t1, 223238
     3e8: 5f 5f 72 65                  	<unknown>
     3ec: 67 69 73 74                  	<unknown>
     3f0: 65 72                        	<unknown>
     3f2: 5f 65 78 69                  	<unknown>
     3f6: 74 70                        	<unknown>
     3f8: 72 6f                        	<unknown>
     3fa: 63 00 5f 5f                  	beq	t5, s5, 1504
     3fe: 42 53                        	<unknown>
     400: 53 5f 45 4e                  	<unknown>
     404: 44 5f                        	<unknown>
     406: 5f 00 5f 5f                  	<unknown>
     40a: 62 73                        	<unknown>
     40c: 73 5f 73 74                  	csrrwi	t5, 1863, 6
     410: 61 72                        	<unknown>
     412: 74 00                        	<unknown>
     414: 6d 65                        	<unknown>
     416: 6d 73                        	<unknown>
     418: 65 74                        	<unknown>
     41a: 00 6d                        	<unknown>
     41c: 61 69                        	<unknown>
     41e: 6e 00                        	<unknown>
     420: 5f 5f 63 6c                  	<unknown>
     424: 7a 5f                        	<unknown>
     426: 74 61                        	<unknown>
     428: 62 00                        	<unknown>
     42a: 61 74                        	<unknown>
     42c: 65 78                        	<unknown>
     42e: 69 74                        	<unknown>
     430: 00 5f                        	<unknown>
     432: 5f 44 41 54                  	<unknown>
     436: 41 5f                        	<unknown>
     438: 42 45                        	<unknown>
     43a: 47 49 4e 5f                  	<unknown>
     43e: 5f 00 5f 65                  	<unknown>
     442: 64 61                        	<unknown>
     444: 74 61                        	<unknown>
     446: 00 76                        	<unknown>
     448: 78 5f                        	<unknown>
     44a: 70 65                        	<unknown>
     44c: 72 66                        	<unknown>
     44e: 5f 64 75 6d                  	<unknown>
     452: 70 00                        	<unknown>
     454: 5f 65 78 69                  	<unknown>
     458: 74 00                        	<unknown>
     45a: 5f 5a 31 35                  	<unknown>
     45e: 73 68 61 64                  	csrrsi	a6, 1606, 2
     462: 65 72                        	<unknown>
     464: 5f 66 75 6e                  	<unknown>
     468: 63 74 69 6f                  	bgeu	s2, s6, 1768
     46c: 6e 69                        	<unknown>
     46e: 50 31                        	<unknown>
     470: 32 6b                        	<unknown>
     472: 65 72                        	<unknown>
     474: 6e 65                        	<unknown>
     476: 6c 5f                        	<unknown>
     478: 61 72                        	<unknown>
     47a: 67 5f 74 00                  	<unknown>

Disassembly of section .shstrtab:

00000000 .shstrtab:
       0: 00 2e                        	<unknown>
       2: 73 79 6d 74                  	csrrci	s2, 1862, 26
       6: 61 62                        	<unknown>
       8: 00 2e                        	<unknown>
       a: 73 74 72 74                  	csrrci	s0, 1863, 4
       e: 61 62                        	<unknown>
      10: 00 2e                        	<unknown>
      12: 73 68 73 74                  	csrrsi	a6, 1863, 6
      16: 72 74                        	<unknown>
      18: 61 62                        	<unknown>
      1a: 00 2e                        	<unknown>
      1c: 69 6e                        	<unknown>
      1e: 69 74                        	<unknown>
      20: 00 2e                        	<unknown>
      22: 74 65                        	<unknown>
      24: 78 74                        	<unknown>
      26: 00 2e                        	<unknown>
      28: 72 6f                        	<unknown>
      2a: 64 61                        	<unknown>
      2c: 74 61                        	<unknown>
      2e: 00 2e                        	<unknown>
      30: 65 68                        	<unknown>
      32: 5f 66 72 61                  	<unknown>
      36: 6d 65                        	<unknown>
      38: 00 2e                        	<unknown>
      3a: 69 6e                        	<unknown>
      3c: 69 74                        	<unknown>
      3e: 5f 61 72 72                  	<unknown>
      42: 61 79                        	<unknown>
      44: 00 2e                        	<unknown>
      46: 64 61                        	<unknown>
      48: 74 61                        	<unknown>
      4a: 00 2e                        	<unknown>
      4c: 73 64 61 74                  	csrrsi	s0, 1862, 2
      50: 61 00                        	<unknown>
      52: 2e 62                        	<unknown>
      54: 73 73 00 2e                  	csrrci	t1, 736, 0
      58: 63 6f 6d 6d                  	bltu	s10, s6, 1758
      5c: 65 6e                        	<unknown>
      5e: 74 00                        	<unknown>
      60: 2e 72                        	<unknown>
      62: 69 73                        	<unknown>
      64: 63 76 2e 61                  	bgeu	t3, s2, 1548
      68: 74 74                        	<unknown>
      6a: 72 69                        	<unknown>
      6c: 62 75                        	<unknown>
      6e: 74 65                        	<unknown>
      70: 73 00 2e 64                  	<unknown>
      74: 65 62                        	<unknown>
      76: 75 67                        	<unknown>
      78: 5f 61 72 61                  	<unknown>
      7c: 6e 67                        	<unknown>
      7e: 65 73                        	<unknown>
      80: 00 2e                        	<unknown>
      82: 64 65                        	<unknown>
      84: 62 75                        	<unknown>
      86: 67 5f 69 6e                  	<unknown>
      8a: 66 6f                        	<unknown>
      8c: 00 2e                        	<unknown>
      8e: 64 65                        	<unknown>
      90: 62 75                        	<unknown>
      92: 67 5f 61 62                  	<unknown>
      96: 62 72                        	<unknown>
      98: 65 76                        	<unknown>
      9a: 00 2e                        	<unknown>
      9c: 64 65                        	<unknown>
      9e: 62 75                        	<unknown>
      a0: 67 5f 6c 69                  	<unknown>
      a4: 6e 65                        	<unknown>
      a6: 00 2e                        	<unknown>
      a8: 64 65                        	<unknown>
      aa: 62 75                        	<unknown>
      ac: 67 5f 73 74                  	<unknown>
      b0: 72 00                        	<unknown>
      b2: 2e 64                        	<unknown>
      b4: 65 62                        	<unknown>
      b6: 75 67                        	<unknown>
      b8: 5f 6c 6f 63                  	<unknown>
      bc: 00 2e                        	<unknown>
      be: 64 65                        	<unknown>
      c0: 62 75                        	<unknown>
      c2: 67 5f 72 61                  	<unknown>
      c6: 6e 67                        	<unknown>
      c8: 65 73                        	<unknown>
      ca: 00                           	<unknown>
