
kernel.elf:	file format ELF32-riscv


Disassembly of section .init:

80000000 _start:
80000000: 97 15 00 00                  	auipc	a1, 1
80000004: 93 85 85 9d                  	addi	a1, a1, -1576
80000008: 73 25 10 fc                  	csrr	a0, 4033
8000000c: 0b 10 b5 00                  	vx_wspawn	a0, a1
80000010: ef 00 90 1c                  	jal	2504
80000014: 13 05 10 00                  	addi	a0, zero, 1
80000018: 0b 00 05 00                  	vx_tmc	a0
8000001c: 17 25 00 00                  	auipc	a0, 2
80000020: 13 05 c5 6b                  	addi	a0, a0, 1724
80000024: 17 26 00 00                  	auipc	a2, 2
80000028: 13 06 46 73                  	addi	a2, a2, 1844
8000002c: 33 06 a6 40                  	sub	a2, a2, a0
80000030: 93 05 00 00                  	mv	a1, zero
80000034: ef 00 d0 79                  	jal	3996
80000038: 17 15 00 00                  	auipc	a0, 1
8000003c: 13 05 45 a6                  	addi	a0, a0, -1436
80000040: ef 00 90 74                  	jal	3912
80000044: ef 00 50 1c                  	jal	2500
80000048: ef 00 90 14                  	jal	2376
8000004c: 6f 00 10 75                  	j	3920

Disassembly of section .text:

80000050 register_fini:
80000050: 93 07 00 00                  	mv	a5, zero
80000054: 63 88 07 00                  	beqz	a5, 16
80000058: 37 15 00 80                  	lui	a0, 524289
8000005c: 13 05 c5 a9                  	addi	a0, a0, -1380
80000060: 6f 00 90 72                  	j	3880
80000064: 67 80 00 00                  	ret

80000068 _Z15shader_functioniP12kernel_arg_t:
80000068: 13 01 01 f2                  	addi	sp, sp, -224
8000006c: 23 2e 11 0c                  	sw	ra, 220(sp)
80000070: 23 2c 81 0c                  	sw	s0, 216(sp)
80000074: 23 2a 91 0c                  	sw	s1, 212(sp)
80000078: 23 28 21 0d                  	sw	s2, 208(sp)
8000007c: 23 26 31 0d                  	sw	s3, 204(sp)
80000080: 23 24 41 0d                  	sw	s4, 200(sp)
80000084: 23 22 51 0d                  	sw	s5, 196(sp)
80000088: 23 20 61 0d                  	sw	s6, 192(sp)
8000008c: 23 2e 71 0b                  	sw	s7, 188(sp)
80000090: 23 2c 81 0b                  	sw	s8, 184(sp)
80000094: 23 2a 91 0b                  	sw	s9, 180(sp)
80000098: 23 28 a1 0b                  	sw	s10, 176(sp)
8000009c: 23 26 b1 0b                  	sw	s11, 172(sp)
800000a0: 83 ae 05 02                  	lw	t4, 32(a1)
800000a4: 23 2c 01 08                  	sw	zero, 152(sp)
800000a8: b7 0c 00 01                  	lui	s9, 4096
800000ac: 23 24 91 09                  	sw	s9, 136(sp)
800000b0: 23 2c 91 07                  	sw	s9, 120(sp)
800000b4: 23 24 91 07                  	sw	s9, 104(sp)
800000b8: 23 2c 91 05                  	sw	s9, 88(sp)
800000bc: 23 2e 01 08                  	sw	zero, 156(sp)
800000c0: 23 26 91 09                  	sw	s9, 140(sp)
800000c4: 23 2e 91 07                  	sw	s9, 124(sp)
800000c8: 23 26 91 07                  	sw	s9, 108(sp)
800000cc: 23 2e 91 05                  	sw	s9, 92(sp)
800000d0: 23 20 01 0a                  	sw	zero, 160(sp)
800000d4: 23 28 91 09                  	sw	s9, 144(sp)
800000d8: 23 20 91 09                  	sw	s9, 128(sp)
800000dc: 23 28 91 07                  	sw	s9, 112(sp)
800000e0: 23 20 91 07                  	sw	s9, 96(sp)
800000e4: 23 22 01 0a                  	sw	zero, 164(sp)
800000e8: 23 2a 91 09                  	sw	s9, 148(sp)
800000ec: 23 22 91 09                  	sw	s9, 132(sp)
800000f0: 23 2a 91 07                  	sw	s9, 116(sp)
800000f4: 23 22 91 07                  	sw	s9, 100(sp)
800000f8: 8b 07 00 02                  	vx_rast	
800000fc: 23 22 f1 02                  	sw	a5, 36(sp)
80000100: 13 f5 17 00                  	andi	a0, a5, 1
80000104: 13 36 15 00                  	seqz	a2, a0
80000108: 0b 20 06 00                  	vx_split	a2
8000010c: e3 02 05 04                  	beqz	a0, 2116
80000110: 73 25 40 cc                  	csrr	a0, tmask
80000114: 23 24 a1 00                  	sw	a0, 8(sp)
80000118: 37 25 00 80                  	lui	a0, 524290
8000011c: 13 05 c5 6c                  	addi	a0, a0, 1740
80000120: 07 20 05 00                  	<unknown>
80000124: 37 25 00 80                  	lui	a0, 524290
80000128: 13 05 05 6d                  	addi	a0, a0, 1744
8000012c: 87 20 05 00                  	<unknown>
80000130: 37 25 00 80                  	lui	a0, 524290
80000134: 13 05 45 6d                  	addi	a0, a0, 1748
80000138: 07 21 05 00                  	<unknown>
8000013c: 37 45 00 00                  	lui	a0, 4
80000140: 13 0f f5 ff                  	addi	t5, a0, -1
80000144: 37 05 01 00                  	lui	a0, 16
80000148: 13 05 25 00                  	addi	a0, a0, 2
8000014c: 23 28 a1 00                  	sw	a0, 16(sp)
80000150: 93 0f 80 07                  	addi	t6, zero, 120
80000154: 37 0e 00 01                  	lui	t3, 4096
80000158: 37 0c 00 01                  	lui	s8, 4096
8000015c: b7 0a 00 01                  	lui	s5, 4096
80000160: b7 09 00 01                  	lui	s3, 4096
80000164: 37 05 00 01                  	lui	a0, 4096
80000168: 23 2e a1 00                  	sw	a0, 28(sp)
8000016c: b7 0b 00 01                  	lui	s7, 4096
80000170: 37 0a 00 01                  	lui	s4, 4096
80000174: 37 09 00 01                  	lui	s2, 4096
80000178: 37 0d 00 01                  	lui	s10, 4096
8000017c: 37 0b 00 01                  	lui	s6, 4096
80000180: 23 26 b1 00                  	sw	a1, 12(sp)
80000184: 6f 00 c0 01                  	j	28
80000188: 0b 30 00 00                  	vx_join	
8000018c: 8b 07 00 02                  	vx_rast	
80000190: 23 22 f1 02                  	sw	a5, 36(sp)
80000194: 13 f5 17 00                  	andi	a0, a5, 1
80000198: 0b 00 15 00                  	vx_pred	a0
8000019c: 63 06 05 7a                  	beqz	a0, 1964
800001a0: 73 25 20 7c                  	csrr	a0, 1986
800001a4: 73 26 60 7c                  	csrr	a2, 1990
800001a8: d3 71 05 d0                  	<unknown>
800001ac: 73 25 a0 7c                  	csrr	a0, 1994
800001b0: d3 f1 01 10                  	<unknown>
800001b4: 53 72 06 d0                  	<unknown>
800001b8: 53 72 02 10                  	<unknown>
800001bc: d3 72 05 d0                  	<unknown>
800001c0: d3 f2 02 10                  	<unknown>
800001c4: 53 f3 41 00                  	<unknown>
800001c8: d3 72 53 00                  	<unknown>
800001cc: d3 f2 50 18                  	<unknown>
800001d0: d3 f1 51 10                  	<unknown>
800001d4: d3 f1 21 10                  	<unknown>
800001d8: 53 98 01 c0                  	<unknown>
800001dc: 23 24 01 05                  	sw	a6, 72(sp)
800001e0: d3 71 52 10                  	<unknown>
800001e4: d3 f1 21 10                  	<unknown>
800001e8: d3 92 01 c0                  	<unknown>
800001ec: 23 2c 51 02                  	sw	t0, 56(sp)
800001f0: 73 25 30 7c                  	csrr	a0, 1987
800001f4: 73 26 70 7c                  	csrr	a2, 1991
800001f8: d3 71 05 d0                  	<unknown>
800001fc: 73 25 b0 7c                  	csrr	a0, 1995
80000200: d3 f1 01 10                  	<unknown>
80000204: 53 72 06 d0                  	<unknown>
80000208: 53 72 02 10                  	<unknown>
8000020c: d3 72 05 d0                  	<unknown>
80000210: d3 f2 02 10                  	<unknown>
80000214: 53 f3 41 00                  	<unknown>
80000218: d3 72 53 00                  	<unknown>
8000021c: d3 f2 50 18                  	<unknown>
80000220: d3 f1 51 10                  	<unknown>
80000224: d3 f1 21 10                  	<unknown>
80000228: d3 96 01 c0                  	<unknown>
8000022c: 23 26 d1 04                  	sw	a3, 76(sp)
80000230: d3 71 52 10                  	<unknown>
80000234: d3 f1 21 10                  	<unknown>
80000238: 53 96 01 c0                  	<unknown>
8000023c: 23 2e c1 02                  	sw	a2, 60(sp)
80000240: 73 25 40 7c                  	csrr	a0, 1988
80000244: 73 24 80 7c                  	csrr	s0, 1992
80000248: d3 71 05 d0                  	<unknown>
8000024c: 73 25 c0 7c                  	csrr	a0, 1996
80000250: d3 f1 01 10                  	<unknown>
80000254: 53 72 04 d0                  	<unknown>
80000258: 53 72 02 10                  	<unknown>
8000025c: d3 72 05 d0                  	<unknown>
80000260: d3 f2 02 10                  	<unknown>
80000264: 53 f3 41 00                  	<unknown>
80000268: d3 72 53 00                  	<unknown>
8000026c: d3 f2 50 18                  	<unknown>
80000270: d3 f1 51 10                  	<unknown>
80000274: d3 f1 21 10                  	<unknown>
80000278: 53 95 01 c0                  	<unknown>
8000027c: 23 28 a1 04                  	sw	a0, 80(sp)
80000280: d3 71 52 10                  	<unknown>
80000284: d3 f1 21 10                  	<unknown>
80000288: d3 90 01 c0                  	<unknown>
8000028c: 23 20 11 04                  	sw	ra, 64(sp)
80000290: 73 24 50 7c                  	csrr	s0, 1989
80000294: f3 24 90 7c                  	csrr	s1, 1993
80000298: d3 71 04 d0                  	<unknown>
8000029c: 73 24 d0 7c                  	csrr	s0, 1997
800002a0: d3 f1 01 10                  	<unknown>
800002a4: 53 f2 04 d0                  	<unknown>
800002a8: 53 72 02 10                  	<unknown>
800002ac: d3 72 04 d0                  	<unknown>
800002b0: d3 f2 02 10                  	<unknown>
800002b4: 53 f3 41 00                  	<unknown>
800002b8: d3 72 53 00                  	<unknown>
800002bc: d3 f2 50 18                  	<unknown>
800002c0: d3 f1 51 10                  	<unknown>
800002c4: d3 f1 21 10                  	<unknown>
800002c8: 53 93 01 c0                  	<unknown>
800002cc: 23 2a 61 04                  	sw	t1, 84(sp)
800002d0: d3 71 52 10                  	<unknown>
800002d4: d3 f1 21 10                  	<unknown>
800002d8: d3 93 01 c0                  	<unknown>
800002dc: 23 22 71 04                  	sw	t2, 68(sp)
800002e0: 83 c8 45 02                  	lbu	a7, 36(a1)
800002e4: 93 d7 17 00                  	srli	a5, a5, 1
800002e8: b3 8d f7 03                  	<unknown>
800002ec: 63 84 08 06                  	beqz	a7, 104
800002f0: b3 87 be 01                  	add	a5, t4, s11
800002f4: 03 a7 47 02                  	lw	a4, 36(a5)
800002f8: 03 a4 c7 02                  	lw	s0, 44(a5)
800002fc: 2b 17 07 47                  	vx_imadd	a4, a4, a6, s0, 3
80000300: 03 a4 87 02                  	lw	s0, 40(a5)
80000304: 2b 17 54 76                  	vx_imadd	a4, s0, t0, a4, 3
80000308: 23 2c e1 08                  	sw	a4, 152(sp)
8000030c: 03 a7 47 02                  	lw	a4, 36(a5)
80000310: 03 a4 c7 02                  	lw	s0, 44(a5)
80000314: 2b 17 d7 46                  	vx_imadd	a4, a4, a3, s0, 3
80000318: 03 a4 87 02                  	lw	s0, 40(a5)
8000031c: 2b 17 c4 76                  	vx_imadd	a4, s0, a2, a4, 3
80000320: 23 2e e1 08                  	sw	a4, 156(sp)
80000324: 03 a7 47 02                  	lw	a4, 36(a5)
80000328: 03 a4 c7 02                  	lw	s0, 44(a5)
8000032c: 2b 17 a7 46                  	vx_imadd	a4, a4, a0, s0, 3
80000330: 03 a4 87 02                  	lw	s0, 40(a5)
80000334: 2b 17 14 76                  	vx_imadd	a4, s0, ra, a4, 3
80000338: 23 20 e1 0a                  	sw	a4, 160(sp)
8000033c: 03 a7 47 02                  	lw	a4, 36(a5)
80000340: 03 a4 c7 02                  	lw	s0, 44(a5)
80000344: 2b 17 67 46                  	vx_imadd	a4, a4, t1, s0, 3
80000348: 83 a7 87 02                  	lw	a5, 40(a5)
8000034c: 2b 97 77 76                  	vx_imadd	a4, a5, t2, a4, 3
80000350: 23 22 e1 0a                  	sw	a4, 164(sp)
80000354: 03 c7 55 02                  	lbu	a4, 37(a1)
80000358: 63 0c 07 18                  	beqz	a4, 408
8000035c: b3 87 be 01                  	add	a5, t4, s11
80000360: 03 a7 07 03                  	lw	a4, 48(a5)
80000364: 03 a4 87 03                  	lw	s0, 56(a5)
80000368: 2b 17 07 47                  	vx_imadd	a4, a4, a6, s0, 3
8000036c: 03 a4 47 03                  	lw	s0, 52(a5)
80000370: 2b 17 54 76                  	vx_imadd	a4, s0, t0, a4, 3
80000374: 23 24 e1 08                  	sw	a4, 136(sp)
80000378: 03 a7 07 03                  	lw	a4, 48(a5)
8000037c: 03 a4 87 03                  	lw	s0, 56(a5)
80000380: 2b 17 d7 46                  	vx_imadd	a4, a4, a3, s0, 3
80000384: 03 a4 47 03                  	lw	s0, 52(a5)
80000388: 2b 19 c4 76                  	vx_imadd	s2, s0, a2, a4, 3
8000038c: 23 26 21 09                  	sw	s2, 140(sp)
80000390: 03 a7 07 03                  	lw	a4, 48(a5)
80000394: 03 a4 87 03                  	lw	s0, 56(a5)
80000398: 2b 17 a7 46                  	vx_imadd	a4, a4, a0, s0, 3
8000039c: 03 a4 47 03                  	lw	s0, 52(a5)
800003a0: ab 19 14 76                  	vx_imadd	s3, s0, ra, a4, 3
800003a4: 23 28 31 09                  	sw	s3, 144(sp)
800003a8: 03 a7 07 03                  	lw	a4, 48(a5)
800003ac: 03 a4 87 03                  	lw	s0, 56(a5)
800003b0: 2b 17 67 46                  	vx_imadd	a4, a4, t1, s0, 3
800003b4: 03 a4 47 03                  	lw	s0, 52(a5)
800003b8: ab 1c 74 76                  	vx_imadd	s9, s0, t2, a4, 3
800003bc: 23 2a 91 09                  	sw	s9, 148(sp)
800003c0: 03 a7 c7 03                  	lw	a4, 60(a5)
800003c4: 03 a4 47 04                  	lw	s0, 68(a5)
800003c8: 2b 17 07 47                  	vx_imadd	a4, a4, a6, s0, 3
800003cc: 03 a4 07 04                  	lw	s0, 64(a5)
800003d0: 2b 17 54 76                  	vx_imadd	a4, s0, t0, a4, 3
800003d4: 23 2c e1 06                  	sw	a4, 120(sp)
800003d8: 03 a7 c7 03                  	lw	a4, 60(a5)
800003dc: 03 a4 47 04                  	lw	s0, 68(a5)
800003e0: 2b 17 d7 46                  	vx_imadd	a4, a4, a3, s0, 3
800003e4: 03 a4 07 04                  	lw	s0, 64(a5)
800003e8: 2b 1a c4 76                  	vx_imadd	s4, s0, a2, a4, 3
800003ec: 23 2e 41 07                  	sw	s4, 124(sp)
800003f0: 03 a7 c7 03                  	lw	a4, 60(a5)
800003f4: 03 a4 47 04                  	lw	s0, 68(a5)
800003f8: 2b 17 a7 46                  	vx_imadd	a4, a4, a0, s0, 3
800003fc: 03 a4 07 04                  	lw	s0, 64(a5)
80000400: ab 1a 14 76                  	vx_imadd	s5, s0, ra, a4, 3
80000404: 23 20 51 09                  	sw	s5, 128(sp)
80000408: 03 a7 c7 03                  	lw	a4, 60(a5)
8000040c: 03 a4 47 04                  	lw	s0, 68(a5)
80000410: 2b 17 67 46                  	vx_imadd	a4, a4, t1, s0, 3
80000414: 03 a4 07 04                  	lw	s0, 64(a5)
80000418: 2b 17 74 76                  	vx_imadd	a4, s0, t2, a4, 3
8000041c: 23 22 e1 08                  	sw	a4, 132(sp)
80000420: 03 a7 87 04                  	lw	a4, 72(a5)
80000424: 03 a4 07 05                  	lw	s0, 80(a5)
80000428: 2b 17 07 47                  	vx_imadd	a4, a4, a6, s0, 3
8000042c: 03 a4 c7 04                  	lw	s0, 76(a5)
80000430: 2b 1b 54 76                  	vx_imadd	s6, s0, t0, a4, 3
80000434: 23 24 61 07                  	sw	s6, 104(sp)
80000438: 03 a7 87 04                  	lw	a4, 72(a5)
8000043c: 03 a4 07 05                  	lw	s0, 80(a5)
80000440: 2b 17 d7 46                  	vx_imadd	a4, a4, a3, s0, 3
80000444: 03 a4 c7 04                  	lw	s0, 76(a5)
80000448: ab 1b c4 76                  	vx_imadd	s7, s0, a2, a4, 3
8000044c: 23 26 71 07                  	sw	s7, 108(sp)
80000450: 03 a7 87 04                  	lw	a4, 72(a5)
80000454: 03 a4 07 05                  	lw	s0, 80(a5)
80000458: 2b 17 a7 46                  	vx_imadd	a4, a4, a0, s0, 3
8000045c: 03 a4 c7 04                  	lw	s0, 76(a5)
80000460: 2b 1c 14 76                  	vx_imadd	s8, s0, ra, a4, 3
80000464: 23 28 81 07                  	sw	s8, 112(sp)
80000468: 03 a7 87 04                  	lw	a4, 72(a5)
8000046c: 03 a4 07 05                  	lw	s0, 80(a5)
80000470: 2b 17 67 46                  	vx_imadd	a4, a4, t1, s0, 3
80000474: 03 a4 c7 04                  	lw	s0, 76(a5)
80000478: 2b 17 74 76                  	vx_imadd	a4, s0, t2, a4, 3
8000047c: 23 2a e1 06                  	sw	a4, 116(sp)
80000480: 03 a7 47 05                  	lw	a4, 84(a5)
80000484: 83 a4 c7 05                  	lw	s1, 92(a5)
80000488: 2b 17 07 4f                  	vx_imadd	a4, a4, a6, s1, 3
8000048c: 83 a4 87 05                  	lw	s1, 88(a5)
80000490: 2b 9d 54 76                  	vx_imadd	s10, s1, t0, a4, 3
80000494: 23 2c a1 05                  	sw	s10, 88(sp)
80000498: 03 a7 47 05                  	lw	a4, 84(a5)
8000049c: 83 a4 c7 05                  	lw	s1, 92(a5)
800004a0: ab 16 d7 4e                  	vx_imadd	a3, a4, a3, s1, 3
800004a4: 03 a7 87 05                  	lw	a4, 88(a5)
800004a8: 2b 16 c7 6e                  	vx_imadd	a2, a4, a2, a3, 3
800004ac: 23 2e c1 00                  	sw	a2, 28(sp)
800004b0: 23 2e c1 04                  	sw	a2, 92(sp)
800004b4: 03 a6 47 05                  	lw	a2, 84(a5)
800004b8: 83 a6 c7 05                  	lw	a3, 92(a5)
800004bc: 2b 15 a6 6e                  	vx_imadd	a0, a2, a0, a3, 3
800004c0: 03 a6 87 05                  	lw	a2, 88(a5)
800004c4: 83 20 01 04                  	lw	ra, 64(sp)
800004c8: 2b 1e 16 56                  	vx_imadd	t3, a2, ra, a0, 3
800004cc: 23 20 c1 07                  	sw	t3, 96(sp)
800004d0: 03 a5 47 05                  	lw	a0, 84(a5)
800004d4: 03 23 41 05                  	lw	t1, 84(sp)
800004d8: 03 a6 c7 05                  	lw	a2, 92(a5)
800004dc: 2b 15 65 66                  	vx_imadd	a0, a0, t1, a2, 3
800004e0: 03 a6 87 05                  	lw	a2, 88(a5)
800004e4: 83 23 41 04                  	lw	t2, 68(sp)
800004e8: 2b 15 76 56                  	vx_imadd	a0, a2, t2, a0, 3
800004ec: 23 22 a1 06                  	sw	a0, 100(sp)
800004f0: 03 c5 65 02                  	lbu	a0, 38(a1)
800004f4: 63 04 05 28                  	beqz	a0, 648
800004f8: 23 2c c1 01                  	sw	t3, 24(sp)
800004fc: 33 85 be 01                  	add	a0, t4, s11
80000500: 03 26 05 06                  	lw	a2, 96(a0)
80000504: 83 22 81 04                  	lw	t0, 72(sp)
80000508: 03 27 85 06                  	lw	a4, 104(a0)
8000050c: 2b 16 56 76                  	vx_imadd	a2, a2, t0, a4, 3
80000510: 03 27 45 06                  	lw	a4, 100(a0)
80000514: 83 27 81 03                  	lw	a5, 56(sp)
80000518: 2b 18 f7 66                  	vx_imadd	a6, a4, a5, a2, 3
8000051c: 03 27 05 06                  	lw	a4, 96(a0)
80000520: 03 24 c1 04                  	lw	s0, 76(sp)
80000524: 03 26 85 06                  	lw	a2, 104(a0)
80000528: 2b 16 87 66                  	vx_imadd	a2, a4, s0, a2, 3
8000052c: 03 27 45 06                  	lw	a4, 100(a0)
80000530: 83 24 c1 03                  	lw	s1, 60(sp)
80000534: ab 18 97 66                  	vx_imadd	a7, a4, s1, a2, 3
80000538: 03 27 05 06                  	lw	a4, 96(a0)
8000053c: 03 26 01 05                  	lw	a2, 80(sp)
80000540: 83 26 85 06                  	lw	a3, 104(a0)
80000544: ab 16 c7 6e                  	vx_imadd	a3, a4, a2, a3, 3
80000548: 03 27 45 06                  	lw	a4, 100(a0)
8000054c: ab 1d 17 6e                  	vx_imadd	s11, a4, ra, a3, 3
80000550: 03 27 05 06                  	lw	a4, 96(a0)
80000554: 83 26 85 06                  	lw	a3, 104(a0)
80000558: ab 16 67 6e                  	vx_imadd	a3, a4, t1, a3, 3
8000055c: 03 27 45 06                  	lw	a4, 100(a0)
80000560: 2b 1e 77 6e                  	vx_imadd	t3, a4, t2, a3, 3
80000564: 83 26 c5 06                  	lw	a3, 108(a0)
80000568: 03 27 45 07                  	lw	a4, 116(a0)
8000056c: ab 96 56 76                  	vx_imadd	a3, a3, t0, a4, 3
80000570: 03 27 05 07                  	lw	a4, 112(a0)
80000574: ab 16 f7 6e                  	vx_imadd	a3, a4, a5, a3, 3
80000578: 03 27 c5 06                  	lw	a4, 108(a0)
8000057c: 83 27 45 07                  	lw	a5, 116(a0)
80000580: 2b 17 87 7e                  	vx_imadd	a4, a4, s0, a5, 3
80000584: 83 27 05 07                  	lw	a5, 112(a0)
80000588: 2b 97 97 76                  	vx_imadd	a4, a5, s1, a4, 3
8000058c: 83 27 c5 06                  	lw	a5, 108(a0)
80000590: 83 24 45 07                  	lw	s1, 116(a0)
80000594: 2b 96 c7 4e                  	vx_imadd	a2, a5, a2, s1, 3
80000598: 83 27 05 07                  	lw	a5, 112(a0)
8000059c: 2b 96 17 66                  	vx_imadd	a2, a5, ra, a2, 3
800005a0: 83 27 c5 06                  	lw	a5, 108(a0)
800005a4: 83 24 45 07                  	lw	s1, 116(a0)
800005a8: ab 97 67 4e                  	vx_imadd	a5, a5, t1, s1, 3
800005ac: 03 25 05 07                  	lw	a0, 112(a0)
800005b0: 2b 15 75 7e                  	vx_imadd	a0, a0, t2, a5, 3
800005b4: 93 57 18 40                  	srai	a5, a6, 1
800005b8: 93 d6 16 40                  	srai	a3, a3, 1
800005bc: ab 87 d7 00                  	vx_tex	a5, a5, a3, zero
800005c0: 93 d6 18 40                  	srai	a3, a7, 1
800005c4: 13 57 17 40                  	srai	a4, a4, 1
800005c8: 2b 87 e6 00                  	vx_tex	a4, a3, a4, zero
800005cc: 93 d6 1d 40                  	srai	a3, s11, 1
800005d0: 13 56 16 40                  	srai	a2, a2, 1
800005d4: ab 86 c6 00                  	vx_tex	a3, a3, a2, zero
800005d8: 13 56 1e 40                  	srai	a2, t3, 1
800005dc: 13 55 15 40                  	srai	a0, a0, 1
800005e0: 2b 08 a6 00                  	vx_tex	a6, a2, a0, zero
800005e4: 03 c6 75 02                  	lbu	a2, 39(a1)
800005e8: 63 0a 06 26                  	beqz	a2, 628
800005ec: 13 55 88 01                  	srli	a0, a6, 24
800005f0: 23 2a a1 00                  	sw	a0, 20(sp)
800005f4: 93 58 88 00                  	srli	a7, a6, 8
800005f8: 93 52 08 01                  	srli	t0, a6, 16
800005fc: 13 d3 86 01                  	srli	t1, a3, 24
80000600: 93 d3 86 00                  	srli	t2, a3, 8
80000604: 13 de 06 01                  	srli	t3, a3, 16
80000608: 93 5d 87 01                  	srli	s11, a4, 24
8000060c: 93 50 87 00                  	srli	ra, a4, 8
80000610: 93 5f 07 01                  	srli	t6, a4, 16
80000614: 13 d6 87 01                  	srli	a2, a5, 24
80000618: 83 24 81 08                  	lw	s1, 136(sp)
8000061c: 93 05 0d 00                  	mv	a1, s10
80000620: 13 0d 0c 00                  	mv	s10, s8
80000624: 13 0c 0b 00                  	mv	s8, s6
80000628: 13 0b 0a 00                  	mv	s6, s4
8000062c: 13 da 87 00                  	srli	s4, a5, 8
80000630: 13 85 0c 00                  	mv	a0, s9
80000634: 93 8c 0b 00                  	mv	s9, s7
80000638: 93 8b 0a 00                  	mv	s7, s5
8000063c: 93 8a 09 00                  	mv	s5, s3
80000640: 93 09 0f 00                  	mv	s3, t5
80000644: 13 df 07 01                  	srli	t5, a5, 16
80000648: 13 74 ff 0f                  	andi	s0, t5, 255
8000064c: 13 8f 09 00                  	mv	t5, s3
80000650: 93 89 0a 00                  	mv	s3, s5
80000654: 93 8a 0b 00                  	mv	s5, s7
80000658: 93 8b 0c 00                  	mv	s7, s9
8000065c: 93 0c 05 00                  	mv	s9, a0
80000660: b3 84 84 02                  	<unknown>
80000664: 03 24 81 07                  	lw	s0, 120(sp)
80000668: 93 d4 84 01                  	srli	s1, s1, 24
8000066c: 23 05 91 02                  	sb	s1, 42(sp)
80000670: 93 74 fa 0f                  	andi	s1, s4, 255
80000674: 13 0a 0b 00                  	mv	s4, s6
80000678: 13 0b 0c 00                  	mv	s6, s8
8000067c: 13 0c 0d 00                  	mv	s8, s10
80000680: 13 8d 05 00                  	mv	s10, a1
80000684: b3 04 94 02                  	<unknown>
80000688: 93 d4 84 01                  	srli	s1, s1, 24
8000068c: a3 04 91 02                  	sb	s1, 41(sp)
80000690: 93 f7 f7 0f                  	andi	a5, a5, 255
80000694: b3 07 fb 02                  	<unknown>
80000698: 93 d7 87 01                  	srli	a5, a5, 24
8000069c: 23 04 f1 02                  	sb	a5, 40(sp)
800006a0: 33 86 c5 02                  	<unknown>
800006a4: 13 56 86 01                  	srli	a2, a2, 24
800006a8: a3 05 c1 02                  	sb	a2, 43(sp)
800006ac: 13 f6 ff 0f                  	andi	a2, t6, 255
800006b0: 93 0f 80 07                  	addi	t6, zero, 120
800006b4: 33 06 c9 02                  	<unknown>
800006b8: 13 56 86 01                  	srli	a2, a2, 24
800006bc: 23 07 c1 02                  	sb	a2, 46(sp)
800006c0: 13 f6 f0 0f                  	andi	a2, ra, 255
800006c4: 33 06 ca 02                  	<unknown>
800006c8: 13 56 86 01                  	srli	a2, a2, 24
800006cc: a3 06 c1 02                  	sb	a2, 45(sp)
800006d0: 13 76 f7 0f                  	andi	a2, a4, 255
800006d4: 33 86 cb 02                  	<unknown>
800006d8: 13 56 86 01                  	srli	a2, a2, 24
800006dc: 23 06 c1 02                  	sb	a2, 44(sp)
800006e0: 03 25 c1 01                  	lw	a0, 28(sp)
800006e4: 33 06 b5 03                  	<unknown>
800006e8: 13 56 86 01                  	srli	a2, a2, 24
800006ec: a3 07 c1 02                  	sb	a2, 47(sp)
800006f0: 13 76 fe 0f                  	andi	a2, t3, 255
800006f4: 33 86 c9 02                  	<unknown>
800006f8: 13 56 86 01                  	srli	a2, a2, 24
800006fc: 23 09 c1 02                  	sb	a2, 50(sp)
80000700: 13 f6 f3 0f                  	andi	a2, t2, 255
80000704: 33 86 ca 02                  	<unknown>
80000708: 13 56 86 01                  	srli	a2, a2, 24
8000070c: a3 08 c1 02                  	sb	a2, 49(sp)
80000710: 13 f6 f6 0f                  	andi	a2, a3, 255
80000714: 33 06 cc 02                  	<unknown>
80000718: 13 56 86 01                  	srli	a2, a2, 24
8000071c: 23 08 c1 02                  	sb	a2, 48(sp)
80000720: 03 2e 81 01                  	lw	t3, 24(sp)
80000724: 33 06 6e 02                  	<unknown>
80000728: 13 56 86 01                  	srli	a2, a2, 24
8000072c: a3 09 c1 02                  	sb	a2, 51(sp)
80000730: 13 f6 f2 0f                  	andi	a2, t0, 255
80000734: 33 86 cc 02                  	<unknown>
80000738: 83 26 41 08                  	lw	a3, 132(sp)
8000073c: 13 56 86 01                  	srli	a2, a2, 24
80000740: 23 0b c1 02                  	sb	a2, 54(sp)
80000744: 13 f6 f8 0f                  	andi	a2, a7, 255
80000748: 33 86 c6 02                  	<unknown>
8000074c: 13 56 86 01                  	srli	a2, a2, 24
80000750: 83 26 41 07                  	lw	a3, 116(sp)
80000754: a3 0a c1 02                  	sb	a2, 53(sp)
80000758: 13 75 f8 0f                  	andi	a0, a6, 255
8000075c: 03 26 41 06                  	lw	a2, 100(sp)
80000760: 33 85 a6 02                  	<unknown>
80000764: 13 55 85 01                  	srli	a0, a0, 24
80000768: 23 0a a1 02                  	sb	a0, 52(sp)
8000076c: 03 25 41 01                  	lw	a0, 20(sp)
80000770: 33 05 a6 02                  	<unknown>
80000774: 83 25 c1 00                  	lw	a1, 12(sp)
80000778: 6f 00 80 0d                  	j	216
8000077c: 03 25 81 08                  	lw	a0, 136(sp)
80000780: 03 26 81 07                  	lw	a2, 120(sp)
80000784: 93 06 f0 0f                  	addi	a3, zero, 255
80000788: 33 05 d5 02                  	<unknown>
8000078c: 13 55 85 01                  	srli	a0, a0, 24
80000790: 23 05 a1 02                  	sb	a0, 42(sp)
80000794: 33 05 d6 02                  	<unknown>
80000798: 13 55 85 01                  	srli	a0, a0, 24
8000079c: a3 04 a1 02                  	sb	a0, 41(sp)
800007a0: 33 05 db 02                  	<unknown>
800007a4: 13 55 85 01                  	srli	a0, a0, 24
800007a8: 23 04 a1 02                  	sb	a0, 40(sp)
800007ac: 33 05 dd 02                  	<unknown>
800007b0: 13 55 85 01                  	srli	a0, a0, 24
800007b4: a3 05 a1 02                  	sb	a0, 43(sp)
800007b8: 33 05 d9 02                  	<unknown>
800007bc: 13 55 85 01                  	srli	a0, a0, 24
800007c0: 23 07 a1 02                  	sb	a0, 46(sp)
800007c4: 33 05 da 02                  	<unknown>
800007c8: 13 55 85 01                  	srli	a0, a0, 24
800007cc: a3 06 a1 02                  	sb	a0, 45(sp)
800007d0: 33 85 db 02                  	<unknown>
800007d4: 13 55 85 01                  	srli	a0, a0, 24
800007d8: 23 06 a1 02                  	sb	a0, 44(sp)
800007dc: 03 25 c1 01                  	lw	a0, 28(sp)
800007e0: 33 05 d5 02                  	<unknown>
800007e4: 13 55 85 01                  	srli	a0, a0, 24
800007e8: a3 07 a1 02                  	sb	a0, 47(sp)
800007ec: 33 85 d9 02                  	<unknown>
800007f0: 13 55 85 01                  	srli	a0, a0, 24
800007f4: 23 09 a1 02                  	sb	a0, 50(sp)
800007f8: 33 85 da 02                  	<unknown>
800007fc: 13 55 85 01                  	srli	a0, a0, 24
80000800: a3 08 a1 02                  	sb	a0, 49(sp)
80000804: 33 05 dc 02                  	<unknown>
80000808: 13 55 85 01                  	srli	a0, a0, 24
8000080c: 23 08 a1 02                  	sb	a0, 48(sp)
80000810: 33 05 de 02                  	<unknown>
80000814: 13 55 85 01                  	srli	a0, a0, 24
80000818: a3 09 a1 02                  	sb	a0, 51(sp)
8000081c: 03 25 41 08                  	lw	a0, 132(sp)
80000820: 33 86 dc 02                  	<unknown>
80000824: 13 56 86 01                  	srli	a2, a2, 24
80000828: 23 0b c1 02                  	sb	a2, 54(sp)
8000082c: 33 05 d5 02                  	<unknown>
80000830: 03 26 41 07                  	lw	a2, 116(sp)
80000834: 13 55 85 01                  	srli	a0, a0, 24
80000838: a3 0a a1 02                  	sb	a0, 53(sp)
8000083c: 03 25 41 06                  	lw	a0, 100(sp)
80000840: 33 06 d6 02                  	<unknown>
80000844: 13 56 86 01                  	srli	a2, a2, 24
80000848: 23 0a c1 02                  	sb	a2, 52(sp)
8000084c: 33 05 d5 02                  	<unknown>
80000850: 13 55 85 01                  	srli	a0, a0, 24
80000854: a3 0b a1 02                  	sb	a0, 55(sp)
80000858: 6f 00 80 01                  	j	24
8000085c: 23 24 f1 02                  	sw	a5, 40(sp)
80000860: 23 26 e1 02                  	sw	a4, 44(sp)
80000864: 23 28 d1 02                  	sw	a3, 48(sp)
80000868: 23 2a 01 03                  	sw	a6, 52(sp)
8000086c: 03 2e 81 01                  	lw	t3, 24(sp)
80000870: 73 26 10 7c                  	csrr	a2, 1985
80000874: 23 20 c1 02                  	sw	a2, 32(sp)
80000878: 13 77 16 00                  	andi	a4, a2, 1
8000087c: 13 35 17 00                  	seqz	a0, a4
80000880: 0b 20 05 00                  	vx_split	a0
80000884: 13 55 46 00                  	srli	a0, a2, 4
80000888: 33 75 e5 01                  	and	a0, a0, t5
8000088c: 93 56 26 01                  	srli	a3, a2, 18
80000890: 63 0e 07 00                  	beqz	a4, 28
80000894: 03 27 81 02                  	lw	a4, 40(sp)
80000898: 83 27 81 09                  	lw	a5, 152(sp)
8000089c: 93 94 16 01                  	slli	s1, a3, 17
800008a0: 13 14 25 00                  	slli	s0, a0, 2
800008a4: b3 64 94 00                  	or	s1, s0, s1
800008a8: 2b 80 e4 7c                  	vx_rop	s1, a4, a5
800008ac: 0b 30 00 00                  	vx_join	
800008b0: 13 77 26 00                  	andi	a4, a2, 2
800008b4: 93 37 17 00                  	seqz	a5, a4
800008b8: 0b a0 07 00                  	vx_split	a5
800008bc: 63 00 07 02                  	beqz	a4, 32
800008c0: 13 97 16 01                  	slli	a4, a3, 17
800008c4: 83 27 c1 02                  	lw	a5, 44(sp)
800008c8: 83 24 c1 09                  	lw	s1, 156(sp)
800008cc: 13 14 25 00                  	slli	s0, a0, 2
800008d0: 33 67 87 00                  	or	a4, a4, s0
800008d4: 13 67 27 00                  	ori	a4, a4, 2
800008d8: 2b 00 f7 4c                  	vx_rop	a4, a5, s1
800008dc: 0b 30 00 00                  	vx_join	
800008e0: 13 77 46 00                  	andi	a4, a2, 4
800008e4: 93 37 17 00                  	seqz	a5, a4
800008e8: 0b a0 07 00                  	vx_split	a5
800008ec: 63 02 07 02                  	beqz	a4, 36
800008f0: 13 97 16 01                  	slli	a4, a3, 17
800008f4: 83 27 01 03                  	lw	a5, 48(sp)
800008f8: 83 24 01 0a                  	lw	s1, 160(sp)
800008fc: 13 14 25 00                  	slli	s0, a0, 2
80000900: 33 67 87 00                  	or	a4, a4, s0
80000904: 37 04 01 00                  	lui	s0, 16
80000908: 33 67 87 00                  	or	a4, a4, s0
8000090c: 2b 00 f7 4c                  	vx_rop	a4, a5, s1
80000910: 0b 30 00 00                  	vx_join	
80000914: 13 76 86 00                  	andi	a2, a2, 8
80000918: 13 37 16 00                  	seqz	a4, a2
8000091c: 0b 20 07 00                  	vx_split	a4
80000920: e3 04 06 86                  	beqz	a2, -1944
80000924: 13 96 16 01                  	slli	a2, a3, 17
80000928: 83 26 41 03                  	lw	a3, 52(sp)
8000092c: 03 27 41 0a                  	lw	a4, 164(sp)
80000930: 13 15 25 00                  	slli	a0, a0, 2
80000934: 33 65 a6 00                  	or	a0, a2, a0
80000938: 03 26 01 01                  	lw	a2, 16(sp)
8000093c: 33 65 c5 00                  	or	a0, a0, a2
80000940: 2b 00 d5 74                  	vx_rop	a0, a3, a4
80000944: 6f f0 5f 84                  	j	-1980
80000948: 03 25 81 00                  	lw	a0, 8(sp)
8000094c: 0b 00 05 00                  	vx_tmc	a0
80000950: 0b 30 00 00                  	vx_join	
80000954: 83 2d c1 0a                  	lw	s11, 172(sp)
80000958: 03 2d 01 0b                  	lw	s10, 176(sp)
8000095c: 83 2c 41 0b                  	lw	s9, 180(sp)
80000960: 03 2c 81 0b                  	lw	s8, 184(sp)
80000964: 83 2b c1 0b                  	lw	s7, 188(sp)
80000968: 03 2b 01 0c                  	lw	s6, 192(sp)
8000096c: 83 2a 41 0c                  	lw	s5, 196(sp)
80000970: 03 2a 81 0c                  	lw	s4, 200(sp)
80000974: 83 29 c1 0c                  	lw	s3, 204(sp)
80000978: 03 29 01 0d                  	lw	s2, 208(sp)
8000097c: 83 24 41 0d                  	lw	s1, 212(sp)
80000980: 03 24 81 0d                  	lw	s0, 216(sp)
80000984: 83 20 c1 0d                  	lw	ra, 220(sp)
80000988: 13 01 01 0e                  	addi	sp, sp, 224
8000098c: 67 80 00 00                  	ret

80000990 main:
80000990: 13 01 01 ff                  	addi	sp, sp, -16
80000994: 23 26 11 00                  	sw	ra, 12(sp)
80000998: 73 25 10 fc                  	csrr	a0, 4033
8000099c: f3 25 00 fc                  	csrr	a1, 4032
800009a0: 33 85 a5 02                  	<unknown>
800009a4: b7 05 00 80                  	lui	a1, 524288
800009a8: 93 85 85 06                  	addi	a1, a1, 104
800009ac: 37 f6 ff 7f                  	lui	a2, 524287
800009b0: ef 00 c0 26                  	jal	620
800009b4: 13 05 00 00                  	mv	a0, zero
800009b8: 83 20 c1 00                  	lw	ra, 12(sp)
800009bc: 13 01 01 01                  	addi	sp, sp, 16
800009c0: 67 80 00 00                  	ret

800009c4 _exit:
800009c4: 13 04 05 00                  	mv	s0, a0
800009c8: ef 00 c0 3a                  	jal	940
800009cc: 93 01 04 00                  	mv	gp, s0
800009d0: 13 05 00 00                  	mv	a0, zero
800009d4: 0b 00 05 00                  	vx_tmc	a0

800009d8 vx_set_sp:
800009d8: 13 05 f0 ff                  	addi	a0, zero, -1
800009dc: 0b 00 05 00                  	vx_tmc	a0
800009e0: 37 01 00 ff                  	lui	sp, 1044480
800009e4: b7 25 00 00                  	lui	a1, 2
800009e8: 73 26 20 cc                  	csrr	a2, 3266
800009ec: b3 85 c5 02                  	<unknown>
800009f0: 33 01 b1 40                  	sub	sp, sp, a1
800009f4: f3 26 30 cc                  	csrr	a3, 3267
800009f8: 63 86 06 00                  	beqz	a3, 12
800009fc: 13 05 00 00                  	mv	a0, zero
80000a00: 0b 00 05 00                  	vx_tmc	a0

80000a04 RETURN:
80000a04: 67 80 00 00                  	ret

80000a08 __libc_init_array:
80000a08: 13 01 01 ff                  	addi	sp, sp, -16
80000a0c: 23 24 81 00                  	sw	s0, 8(sp)
80000a10: 23 20 21 01                  	sw	s2, 0(sp)
80000a14: 17 24 00 00                  	auipc	s0, 2
80000a18: 13 04 44 88                  	addi	s0, s0, -1916
80000a1c: 17 29 00 00                  	auipc	s2, 2
80000a20: 13 09 c9 87                  	addi	s2, s2, -1924
80000a24: 33 09 89 40                  	sub	s2, s2, s0
80000a28: 23 26 11 00                  	sw	ra, 12(sp)
80000a2c: 23 22 91 00                  	sw	s1, 4(sp)
80000a30: 13 59 29 40                  	srai	s2, s2, 2
80000a34: 63 0e 09 00                  	beqz	s2, 28
80000a38: 93 04 00 00                  	mv	s1, zero
80000a3c: 83 27 04 00                  	lw	a5, 0(s0)
80000a40: 93 84 14 00                  	addi	s1, s1, 1
80000a44: 13 04 44 00                  	addi	s0, s0, 4
80000a48: e7 80 07 00                  	jalr	a5
80000a4c: e3 18 99 fe                  	bne	s2, s1, -16
80000a50: 17 24 00 00                  	auipc	s0, 2
80000a54: 13 04 84 84                  	addi	s0, s0, -1976
80000a58: 17 29 00 00                  	auipc	s2, 2
80000a5c: 13 09 49 84                  	addi	s2, s2, -1980
80000a60: 33 09 89 40                  	sub	s2, s2, s0
80000a64: 13 59 29 40                  	srai	s2, s2, 2
80000a68: 63 0e 09 00                  	beqz	s2, 28
80000a6c: 93 04 00 00                  	mv	s1, zero
80000a70: 83 27 04 00                  	lw	a5, 0(s0)
80000a74: 93 84 14 00                  	addi	s1, s1, 1
80000a78: 13 04 44 00                  	addi	s0, s0, 4
80000a7c: e7 80 07 00                  	jalr	a5
80000a80: e3 18 99 fe                  	bne	s2, s1, -16
80000a84: 83 20 c1 00                  	lw	ra, 12(sp)
80000a88: 03 24 81 00                  	lw	s0, 8(sp)
80000a8c: 83 24 41 00                  	lw	s1, 4(sp)
80000a90: 03 29 01 00                  	lw	s2, 0(sp)
80000a94: 13 01 01 01                  	addi	sp, sp, 16
80000a98: 67 80 00 00                  	ret

80000a9c __libc_fini_array:
80000a9c: 13 01 01 ff                  	addi	sp, sp, -16
80000aa0: 23 24 81 00                  	sw	s0, 8(sp)
80000aa4: 97 17 00 00                  	auipc	a5, 1
80000aa8: 93 87 87 7f                  	addi	a5, a5, 2040
80000aac: 17 14 00 00                  	auipc	s0, 1
80000ab0: 13 04 04 7f                  	addi	s0, s0, 2032
80000ab4: b3 87 87 40                  	sub	a5, a5, s0
80000ab8: 23 22 91 00                  	sw	s1, 4(sp)
80000abc: 23 26 11 00                  	sw	ra, 12(sp)
80000ac0: 93 d4 27 40                  	srai	s1, a5, 2
80000ac4: 63 80 04 02                  	beqz	s1, 32
80000ac8: 93 87 c7 ff                  	addi	a5, a5, -4
80000acc: 33 84 87 00                  	add	s0, a5, s0
80000ad0: 83 27 04 00                  	lw	a5, 0(s0)
80000ad4: 93 84 f4 ff                  	addi	s1, s1, -1
80000ad8: 13 04 c4 ff                  	addi	s0, s0, -4
80000adc: e7 80 07 00                  	jalr	a5
80000ae0: e3 98 04 fe                  	bnez	s1, -16
80000ae4: 83 20 c1 00                  	lw	ra, 12(sp)
80000ae8: 03 24 81 00                  	lw	s0, 8(sp)
80000aec: 83 24 41 00                  	lw	s1, 4(sp)
80000af0: 13 01 01 01                  	addi	sp, sp, 16
80000af4: 67 80 00 00                  	ret

80000af8 spawn_tasks_all_stub:
80000af8: 13 01 01 fe                  	addi	sp, sp, -32
80000afc: 23 2e 11 00                  	sw	ra, 28(sp)
80000b00: 23 2c 81 00                  	sw	s0, 24(sp)
80000b04: 23 2a 91 00                  	sw	s1, 20(sp)
80000b08: 23 28 21 01                  	sw	s2, 16(sp)
80000b0c: 23 26 31 01                  	sw	s3, 12(sp)
80000b10: 23 24 41 01                  	sw	s4, 8(sp)
80000b14: f3 27 50 cc                  	csrr	a5, 3269
80000b18: 73 27 30 cc                  	csrr	a4, 3267
80000b1c: f3 26 00 cc                  	csrr	a3, 3264
80000b20: f3 25 00 fc                  	csrr	a1, 4032
80000b24: 13 96 27 00                  	slli	a2, a5, 2
80000b28: 97 27 00 00                  	auipc	a5, 2
80000b2c: 93 87 07 bb                  	addi	a5, a5, -1104
80000b30: b3 87 c7 00                  	add	a5, a5, a2
80000b34: 03 aa 07 00                  	lw	s4, 0(a5)
80000b38: 03 24 0a 01                  	lw	s0, 16(s4)
80000b3c: 03 26 ca 00                  	lw	a2, 12(s4)
80000b40: b3 24 87 00                  	slt	s1, a4, s0
80000b44: 93 07 04 00                  	mv	a5, s0
80000b48: b3 84 c4 00                  	add	s1, s1, a2
80000b4c: 33 04 e6 02                  	<unknown>
80000b50: 63 54 f7 00                  	bge	a4, a5, 8
80000b54: 93 07 07 00                  	mv	a5, a4
80000b58: 33 04 f4 00                  	add	s0, s0, a5
80000b5c: 03 27 8a 00                  	lw	a4, 8(s4)
80000b60: 83 29 0a 00                  	lw	s3, 0(s4)
80000b64: 03 29 4a 00                  	lw	s2, 4(s4)
80000b68: 33 04 b4 02                  	<unknown>
80000b6c: b3 87 d4 02                  	<unknown>
80000b70: 33 04 e4 00                  	add	s0, s0, a4
80000b74: 33 04 f4 00                  	add	s0, s0, a5
80000b78: b3 84 84 00                  	add	s1, s1, s0
80000b7c: 63 5c 94 00                  	bge	s0, s1, 24
80000b80: 13 05 04 00                  	mv	a0, s0
80000b84: 93 05 09 00                  	mv	a1, s2
80000b88: 13 04 14 00                  	addi	s0, s0, 1
80000b8c: e7 80 09 00                  	jalr	s3
80000b90: e3 98 84 fe                  	bne	s1, s0, -16
80000b94: 03 27 4a 01                  	lw	a4, 20(s4)
80000b98: 93 07 00 00                  	mv	a5, zero
80000b9c: 0b c0 e7 00                  	vx_bar	a5, a4
80000ba0: 83 20 c1 01                  	lw	ra, 28(sp)
80000ba4: 03 24 81 01                  	lw	s0, 24(sp)
80000ba8: 83 24 41 01                  	lw	s1, 20(sp)
80000bac: 03 29 01 01                  	lw	s2, 16(sp)
80000bb0: 83 29 c1 00                  	lw	s3, 12(sp)
80000bb4: 03 2a 81 00                  	lw	s4, 8(sp)
80000bb8: 13 01 01 02                  	addi	sp, sp, 32
80000bbc: 67 80 00 00                  	ret

80000bc0 spawn_tasks_rem_stub:
80000bc0: f3 27 50 cc                  	csrr	a5, 3269
80000bc4: 73 25 20 cc                  	csrr	a0, 3266
80000bc8: 13 97 27 00                  	slli	a4, a5, 2
80000bcc: 97 27 00 00                  	auipc	a5, 2
80000bd0: 93 87 c7 b0                  	addi	a5, a5, -1268
80000bd4: b3 87 e7 00                  	add	a5, a5, a4
80000bd8: 83 a7 07 00                  	lw	a5, 0(a5)
80000bdc: 03 a7 87 00                  	lw	a4, 8(a5)
80000be0: 03 a3 07 00                  	lw	t1, 0(a5)
80000be4: 83 a5 47 00                  	lw	a1, 4(a5)
80000be8: 33 05 e5 00                  	add	a0, a0, a4
80000bec: 67 00 03 00                  	jr	t1

80000bf0 spawn_tasks_all_cb:
80000bf0: 13 01 01 ff                  	addi	sp, sp, -16
80000bf4: 23 26 11 00                  	sw	ra, 12(sp)
80000bf8: 93 07 f0 ff                  	addi	a5, zero, -1
80000bfc: 0b 80 07 00                  	vx_tmc	a5
80000c00: ef f0 9f ef                  	jal	-264
80000c04: f3 27 30 cc                  	csrr	a5, 3267
80000c08: 93 b7 17 00                  	seqz	a5, a5
80000c0c: 0b 80 07 00                  	vx_tmc	a5
80000c10: 83 20 c1 00                  	lw	ra, 12(sp)
80000c14: 13 01 01 01                  	addi	sp, sp, 16
80000c18: 67 80 00 00                  	ret

80000c1c vx_spawn_tasks:
80000c1c: 13 01 01 fd                  	addi	sp, sp, -48
80000c20: 23 26 11 02                  	sw	ra, 44(sp)
80000c24: 23 24 81 02                  	sw	s0, 40(sp)
80000c28: 23 22 91 02                  	sw	s1, 36(sp)
80000c2c: 23 20 21 03                  	sw	s2, 32(sp)
80000c30: f3 26 20 fc                  	csrr	a3, 4034
80000c34: f3 28 10 fc                  	csrr	a7, 4033
80000c38: f3 24 00 fc                  	csrr	s1, 4032
80000c3c: f3 27 50 cc                  	csrr	a5, 3269
80000c40: 13 07 f0 01                  	addi	a4, zero, 31
80000c44: 63 48 f7 08                  	blt	a4, a5, 144
80000c48: 33 88 14 03                  	<unknown>
80000c4c: 13 07 10 00                  	addi	a4, zero, 1
80000c50: 63 54 a8 00                  	bge	a6, a0, 8
80000c54: 33 47 05 03                  	<unknown>
80000c58: 63 ca e6 08                  	blt	a3, a4, 148
80000c5c: 63 dc e7 06                  	bge	a5, a4, 120
80000c60: 93 86 f6 ff                  	addi	a3, a3, -1
80000c64: 33 43 e5 02                  	<unknown>
80000c68: 13 08 03 00                  	mv	a6, t1
80000c6c: 63 96 f6 00                  	bne	a3, a5, 12
80000c70: 33 65 e5 02                  	<unknown>
80000c74: 33 08 65 00                  	add	a6, a0, t1
80000c78: 33 49 98 02                  	<unknown>
80000c7c: 33 64 98 02                  	<unknown>
80000c80: 63 4c 19 07                  	blt	s2, a7, 120
80000c84: 13 05 10 00                  	addi	a0, zero, 1
80000c88: b3 46 19 03                  	<unknown>
80000c8c: 63 86 06 00                  	beqz	a3, 12
80000c90: 13 85 06 00                  	mv	a0, a3
80000c94: b3 66 19 03                  	<unknown>
80000c98: 17 27 00 00                  	auipc	a4, 2
80000c9c: 13 07 07 a4                  	addi	a4, a4, -1472
80000ca0: 23 24 b1 00                  	sw	a1, 8(sp)
80000ca4: 23 26 c1 00                  	sw	a2, 12(sp)
80000ca8: 23 2a a1 00                  	sw	a0, 20(sp)
80000cac: 23 2c d1 00                  	sw	a3, 24(sp)
80000cb0: 23 2e 01 00                  	sw	zero, 28(sp)
80000cb4: 33 03 f3 02                  	<unknown>
80000cb8: 93 97 27 00                  	slli	a5, a5, 2
80000cbc: b3 07 f7 00                  	add	a5, a4, a5
80000cc0: 13 07 81 00                  	addi	a4, sp, 8
80000cc4: 23 a0 e7 00                  	sw	a4, 0(a5)
80000cc8: 23 28 61 00                  	sw	t1, 16(sp)
80000ccc: 63 4c 20 03                  	bgtz	s2, 56
80000cd0: 63 16 04 06                  	bnez	s0, 108
80000cd4: 83 20 c1 02                  	lw	ra, 44(sp)
80000cd8: 03 24 81 02                  	lw	s0, 40(sp)
80000cdc: 83 24 41 02                  	lw	s1, 36(sp)
80000ce0: 03 29 01 02                  	lw	s2, 32(sp)
80000ce4: 13 01 01 03                  	addi	sp, sp, 48
80000ce8: 67 80 00 00                  	ret
80000cec: 13 87 06 00                  	mv	a4, a3
80000cf0: e3 c8 e7 f6                  	blt	a5, a4, -144
80000cf4: 6f f0 1f fe                  	j	-32
80000cf8: 93 06 00 00                  	mv	a3, zero
80000cfc: 13 05 10 00                  	addi	a0, zero, 1
80000d00: 6f f0 9f f9                  	j	-104
80000d04: 93 07 09 00                  	mv	a5, s2
80000d08: 63 d4 28 01                  	bge	a7, s2, 8
80000d0c: 93 87 08 00                  	mv	a5, a7
80000d10: 23 2e f1 00                  	sw	a5, 28(sp)
80000d14: 17 07 00 00                  	auipc	a4, 0
80000d18: 13 07 c7 ed                  	addi	a4, a4, -292
80000d1c: 0b 90 e7 00                  	vx_wspawn	a5, a4
80000d20: 93 07 f0 ff                  	addi	a5, zero, -1
80000d24: 0b 80 07 00                  	vx_tmc	a5
80000d28: ef f0 1f dd                  	jal	-560
80000d2c: f3 27 30 cc                  	csrr	a5, 3267
80000d30: 93 b7 17 00                  	seqz	a5, a5
80000d34: 0b 80 07 00                  	vx_tmc	a5
80000d38: e3 0e 04 f8                  	beqz	s0, -100
80000d3c: b3 04 99 02                  	<unknown>
80000d40: 13 09 10 00                  	addi	s2, zero, 1
80000d44: 33 18 89 00                  	sll	a6, s2, s0
80000d48: 13 08 f8 ff                  	addi	a6, a6, -1
80000d4c: 23 28 91 00                  	sw	s1, 16(sp)
80000d50: 0b 00 08 00                  	vx_tmc	a6
80000d54: ef f0 df e6                  	jal	-404
80000d58: 0b 00 09 00                  	vx_tmc	s2
80000d5c: 83 20 c1 02                  	lw	ra, 44(sp)
80000d60: 03 24 81 02                  	lw	s0, 40(sp)
80000d64: 83 24 41 02                  	lw	s1, 36(sp)
80000d68: 03 29 01 02                  	lw	s2, 32(sp)
80000d6c: 13 01 01 03                  	addi	sp, sp, 48
80000d70: 67 80 00 00                  	ret

80000d74 vx_perf_dump:
80000d74: f3 27 50 cc                  	csrr	a5, 3269
80000d78: 37 07 ff 00                  	lui	a4, 4080
80000d7c: b3 87 e7 00                  	add	a5, a5, a4
80000d80: 93 97 87 00                  	slli	a5, a5, 8
80000d84: 73 27 00 b0                  	csrr	a4, mcycle
80000d88: 23 a0 e7 00                  	sw	a4, 0(a5)
80000d8c: 73 27 10 b0                  	csrr	a4, 2817
80000d90: 23 a2 e7 00                  	sw	a4, 4(a5)
80000d94: 73 27 20 b0                  	csrr	a4, minstret
80000d98: 23 a4 e7 00                  	sw	a4, 8(a5)
80000d9c: 73 27 30 b0                  	csrr	a4, mhpmcounter3
80000da0: 23 a6 e7 00                  	sw	a4, 12(a5)
80000da4: 73 27 40 b0                  	csrr	a4, mhpmcounter4
80000da8: 23 a8 e7 00                  	sw	a4, 16(a5)
80000dac: 73 27 50 b0                  	csrr	a4, mhpmcounter5
80000db0: 23 aa e7 00                  	sw	a4, 20(a5)
80000db4: 73 27 60 b0                  	csrr	a4, mhpmcounter6
80000db8: 23 ac e7 00                  	sw	a4, 24(a5)
80000dbc: 73 27 70 b0                  	csrr	a4, mhpmcounter7
80000dc0: 23 ae e7 00                  	sw	a4, 28(a5)
80000dc4: 73 27 80 b0                  	csrr	a4, mhpmcounter8
80000dc8: 23 a0 e7 02                  	sw	a4, 32(a5)
80000dcc: 73 27 90 b0                  	csrr	a4, mhpmcounter9
80000dd0: 23 a2 e7 02                  	sw	a4, 36(a5)
80000dd4: 73 27 a0 b0                  	csrr	a4, mhpmcounter10
80000dd8: 23 a4 e7 02                  	sw	a4, 40(a5)
80000ddc: 73 27 b0 b0                  	csrr	a4, mhpmcounter11
80000de0: 23 a6 e7 02                  	sw	a4, 44(a5)
80000de4: 73 27 c0 b0                  	csrr	a4, mhpmcounter12
80000de8: 23 a8 e7 02                  	sw	a4, 48(a5)
80000dec: 73 27 d0 b0                  	csrr	a4, mhpmcounter13
80000df0: 23 aa e7 02                  	sw	a4, 52(a5)
80000df4: 73 27 e0 b0                  	csrr	a4, mhpmcounter14
80000df8: 23 ac e7 02                  	sw	a4, 56(a5)
80000dfc: 73 27 f0 b0                  	csrr	a4, mhpmcounter15
80000e00: 23 ae e7 02                  	sw	a4, 60(a5)
80000e04: 73 27 00 b1                  	csrr	a4, mhpmcounter16
80000e08: 23 a0 e7 04                  	sw	a4, 64(a5)
80000e0c: 73 27 10 b1                  	csrr	a4, mhpmcounter17
80000e10: 23 a2 e7 04                  	sw	a4, 68(a5)
80000e14: 73 27 20 b1                  	csrr	a4, mhpmcounter18
80000e18: 23 a4 e7 04                  	sw	a4, 72(a5)
80000e1c: 73 27 30 b1                  	csrr	a4, mhpmcounter19
80000e20: 23 a6 e7 04                  	sw	a4, 76(a5)
80000e24: 73 27 40 b1                  	csrr	a4, mhpmcounter20
80000e28: 23 a8 e7 04                  	sw	a4, 80(a5)
80000e2c: 73 27 50 b1                  	csrr	a4, mhpmcounter21
80000e30: 23 aa e7 04                  	sw	a4, 84(a5)
80000e34: 73 27 60 b1                  	csrr	a4, mhpmcounter22
80000e38: 23 ac e7 04                  	sw	a4, 88(a5)
80000e3c: 73 27 70 b1                  	csrr	a4, mhpmcounter23
80000e40: 23 ae e7 04                  	sw	a4, 92(a5)
80000e44: 73 27 80 b1                  	csrr	a4, mhpmcounter24
80000e48: 23 a0 e7 06                  	sw	a4, 96(a5)
80000e4c: 73 27 90 b1                  	csrr	a4, mhpmcounter25
80000e50: 23 a2 e7 06                  	sw	a4, 100(a5)
80000e54: 73 27 a0 b1                  	csrr	a4, mhpmcounter26
80000e58: 23 a4 e7 06                  	sw	a4, 104(a5)
80000e5c: 73 27 b0 b1                  	csrr	a4, mhpmcounter27
80000e60: 23 a6 e7 06                  	sw	a4, 108(a5)
80000e64: 73 27 c0 b1                  	csrr	a4, mhpmcounter28
80000e68: 23 a8 e7 06                  	sw	a4, 112(a5)
80000e6c: 73 27 d0 b1                  	csrr	a4, mhpmcounter29
80000e70: 23 aa e7 06                  	sw	a4, 116(a5)
80000e74: 73 27 e0 b1                  	csrr	a4, mhpmcounter30
80000e78: 23 ac e7 06                  	sw	a4, 120(a5)
80000e7c: 73 27 f0 b1                  	csrr	a4, mhpmcounter31
80000e80: 23 ae e7 06                  	sw	a4, 124(a5)
80000e84: 73 27 00 b8                  	csrr	a4, mcycleh
80000e88: 23 a0 e7 08                  	sw	a4, 128(a5)
80000e8c: 73 27 10 b8                  	csrr	a4, 2945
80000e90: 23 a2 e7 08                  	sw	a4, 132(a5)
80000e94: 73 27 20 b8                  	csrr	a4, minstreth
80000e98: 23 a4 e7 08                  	sw	a4, 136(a5)
80000e9c: 73 27 30 b8                  	csrr	a4, mhpmcounter3h
80000ea0: 23 a6 e7 08                  	sw	a4, 140(a5)
80000ea4: 73 27 40 b8                  	csrr	a4, mhpmcounter4h
80000ea8: 23 a8 e7 08                  	sw	a4, 144(a5)
80000eac: 73 27 50 b8                  	csrr	a4, mhpmcounter5h
80000eb0: 23 aa e7 08                  	sw	a4, 148(a5)
80000eb4: 73 27 60 b8                  	csrr	a4, mhpmcounter6h
80000eb8: 23 ac e7 08                  	sw	a4, 152(a5)
80000ebc: 73 27 70 b8                  	csrr	a4, mhpmcounter7h
80000ec0: 23 ae e7 08                  	sw	a4, 156(a5)
80000ec4: 73 27 80 b8                  	csrr	a4, mhpmcounter8h
80000ec8: 23 a0 e7 0a                  	sw	a4, 160(a5)
80000ecc: 73 27 90 b8                  	csrr	a4, mhpmcounter9h
80000ed0: 23 a2 e7 0a                  	sw	a4, 164(a5)
80000ed4: 73 27 a0 b8                  	csrr	a4, mhpmcounter10h
80000ed8: 23 a4 e7 0a                  	sw	a4, 168(a5)
80000edc: 73 27 b0 b8                  	csrr	a4, mhpmcounter11h
80000ee0: 23 a6 e7 0a                  	sw	a4, 172(a5)
80000ee4: 73 27 c0 b8                  	csrr	a4, mhpmcounter12h
80000ee8: 23 a8 e7 0a                  	sw	a4, 176(a5)
80000eec: 73 27 d0 b8                  	csrr	a4, mhpmcounter13h
80000ef0: 23 aa e7 0a                  	sw	a4, 180(a5)
80000ef4: 73 27 e0 b8                  	csrr	a4, mhpmcounter14h
80000ef8: 23 ac e7 0a                  	sw	a4, 184(a5)
80000efc: 73 27 f0 b8                  	csrr	a4, mhpmcounter15h
80000f00: 23 ae e7 0a                  	sw	a4, 188(a5)
80000f04: 73 27 00 b9                  	csrr	a4, mhpmcounter16h
80000f08: 23 a0 e7 0c                  	sw	a4, 192(a5)
80000f0c: 73 27 10 b9                  	csrr	a4, mhpmcounter17h
80000f10: 23 a2 e7 0c                  	sw	a4, 196(a5)
80000f14: 73 27 20 b9                  	csrr	a4, mhpmcounter18h
80000f18: 23 a4 e7 0c                  	sw	a4, 200(a5)
80000f1c: 73 27 30 b9                  	csrr	a4, mhpmcounter19h
80000f20: 23 a6 e7 0c                  	sw	a4, 204(a5)
80000f24: 73 27 40 b9                  	csrr	a4, mhpmcounter20h
80000f28: 23 a8 e7 0c                  	sw	a4, 208(a5)
80000f2c: 73 27 50 b9                  	csrr	a4, mhpmcounter21h
80000f30: 23 aa e7 0c                  	sw	a4, 212(a5)
80000f34: 73 27 60 b9                  	csrr	a4, mhpmcounter22h
80000f38: 23 ac e7 0c                  	sw	a4, 216(a5)
80000f3c: 73 27 70 b9                  	csrr	a4, mhpmcounter23h
80000f40: 23 ae e7 0c                  	sw	a4, 220(a5)
80000f44: 73 27 80 b9                  	csrr	a4, mhpmcounter24h
80000f48: 23 a0 e7 0e                  	sw	a4, 224(a5)
80000f4c: 73 27 90 b9                  	csrr	a4, mhpmcounter25h
80000f50: 23 a2 e7 0e                  	sw	a4, 228(a5)
80000f54: 73 27 a0 b9                  	csrr	a4, mhpmcounter26h
80000f58: 23 a4 e7 0e                  	sw	a4, 232(a5)
80000f5c: 73 27 b0 b9                  	csrr	a4, mhpmcounter27h
80000f60: 23 a6 e7 0e                  	sw	a4, 236(a5)
80000f64: 73 27 c0 b9                  	csrr	a4, mhpmcounter28h
80000f68: 23 a8 e7 0e                  	sw	a4, 240(a5)
80000f6c: 73 27 d0 b9                  	csrr	a4, mhpmcounter29h
80000f70: 23 aa e7 0e                  	sw	a4, 244(a5)
80000f74: 73 27 e0 b9                  	csrr	a4, mhpmcounter30h
80000f78: 23 ac e7 0e                  	sw	a4, 248(a5)
80000f7c: 73 27 f0 b9                  	csrr	a4, mhpmcounter31h
80000f80: 23 ae e7 0e                  	sw	a4, 252(a5)
80000f84: 67 80 00 00                  	ret

80000f88 atexit:
80000f88: 93 05 05 00                  	mv	a1, a0
80000f8c: 93 06 00 00                  	mv	a3, zero
80000f90: 13 06 00 00                  	mv	a2, zero
80000f94: 13 05 00 00                  	mv	a0, zero
80000f98: 6f 00 40 11                  	j	276

80000f9c exit:
80000f9c: 13 01 01 ff                  	addi	sp, sp, -16
80000fa0: 93 05 00 00                  	mv	a1, zero
80000fa4: 23 24 81 00                  	sw	s0, 8(sp)
80000fa8: 23 26 11 00                  	sw	ra, 12(sp)
80000fac: 13 04 05 00                  	mv	s0, a0
80000fb0: ef 00 80 19                  	jal	408
80000fb4: b7 27 00 80                  	lui	a5, 524290
80000fb8: 03 a5 87 6c                  	lw	a0, 1736(a5)
80000fbc: 83 27 c5 03                  	lw	a5, 60(a0)
80000fc0: 63 84 07 00                  	beqz	a5, 8
80000fc4: e7 80 07 00                  	jalr	a5
80000fc8: 13 05 04 00                  	mv	a0, s0
80000fcc: ef f0 9f 9f                  	jal	-1544

80000fd0 memset:
80000fd0: 13 03 f0 00                  	addi	t1, zero, 15
80000fd4: 13 07 05 00                  	mv	a4, a0
80000fd8: 63 7e c3 02                  	bgeu	t1, a2, 60
80000fdc: 93 77 f7 00                  	andi	a5, a4, 15
80000fe0: 63 90 07 0a                  	bnez	a5, 160
80000fe4: 63 92 05 08                  	bnez	a1, 132
80000fe8: 93 76 06 ff                  	andi	a3, a2, -16
80000fec: 13 76 f6 00                  	andi	a2, a2, 15
80000ff0: b3 86 e6 00                  	add	a3, a3, a4
80000ff4: 23 20 b7 00                  	sw	a1, 0(a4)
80000ff8: 23 22 b7 00                  	sw	a1, 4(a4)
80000ffc: 23 24 b7 00                  	sw	a1, 8(a4)
80001000: 23 26 b7 00                  	sw	a1, 12(a4)
80001004: 13 07 07 01                  	addi	a4, a4, 16
80001008: e3 66 d7 fe                  	bltu	a4, a3, -20
8000100c: 63 14 06 00                  	bnez	a2, 8
80001010: 67 80 00 00                  	ret
80001014: b3 06 c3 40                  	sub	a3, t1, a2
80001018: 93 96 26 00                  	slli	a3, a3, 2
8000101c: 97 02 00 00                  	auipc	t0, 0
80001020: b3 86 56 00                  	add	a3, a3, t0
80001024: 67 80 c6 00                  	jr	12(a3)
80001028: 23 07 b7 00                  	sb	a1, 14(a4)
8000102c: a3 06 b7 00                  	sb	a1, 13(a4)
80001030: 23 06 b7 00                  	sb	a1, 12(a4)
80001034: a3 05 b7 00                  	sb	a1, 11(a4)
80001038: 23 05 b7 00                  	sb	a1, 10(a4)
8000103c: a3 04 b7 00                  	sb	a1, 9(a4)
80001040: 23 04 b7 00                  	sb	a1, 8(a4)
80001044: a3 03 b7 00                  	sb	a1, 7(a4)
80001048: 23 03 b7 00                  	sb	a1, 6(a4)
8000104c: a3 02 b7 00                  	sb	a1, 5(a4)
80001050: 23 02 b7 00                  	sb	a1, 4(a4)
80001054: a3 01 b7 00                  	sb	a1, 3(a4)
80001058: 23 01 b7 00                  	sb	a1, 2(a4)
8000105c: a3 00 b7 00                  	sb	a1, 1(a4)
80001060: 23 00 b7 00                  	sb	a1, 0(a4)
80001064: 67 80 00 00                  	ret
80001068: 93 f5 f5 0f                  	andi	a1, a1, 255
8000106c: 93 96 85 00                  	slli	a3, a1, 8
80001070: b3 e5 d5 00                  	or	a1, a1, a3
80001074: 93 96 05 01                  	slli	a3, a1, 16
80001078: b3 e5 d5 00                  	or	a1, a1, a3
8000107c: 6f f0 df f6                  	j	-148
80001080: 93 96 27 00                  	slli	a3, a5, 2
80001084: 97 02 00 00                  	auipc	t0, 0
80001088: b3 86 56 00                  	add	a3, a3, t0
8000108c: 93 82 00 00                  	mv	t0, ra
80001090: e7 80 06 fa                  	jalr	-96(a3)
80001094: 93 80 02 00                  	mv	ra, t0
80001098: 93 87 07 ff                  	addi	a5, a5, -16
8000109c: 33 07 f7 40                  	sub	a4, a4, a5
800010a0: 33 06 f6 00                  	add	a2, a2, a5
800010a4: e3 78 c3 f6                  	bgeu	t1, a2, -144
800010a8: 6f f0 df f3                  	j	-196

800010ac __register_exitproc:
800010ac: b7 27 00 80                  	lui	a5, 524290
800010b0: 03 a7 87 6c                  	lw	a4, 1736(a5)
800010b4: 83 27 87 14                  	lw	a5, 328(a4)
800010b8: 63 8c 07 04                  	beqz	a5, 88
800010bc: 03 a7 47 00                  	lw	a4, 4(a5)
800010c0: 13 08 f0 01                  	addi	a6, zero, 31
800010c4: 63 4e e8 06                  	blt	a6, a4, 124
800010c8: 13 18 27 00                  	slli	a6, a4, 2
800010cc: 63 06 05 02                  	beqz	a0, 44
800010d0: 33 83 07 01                  	add	t1, a5, a6
800010d4: 23 24 c3 08                  	sw	a2, 136(t1)
800010d8: 83 a8 87 18                  	lw	a7, 392(a5)
800010dc: 13 06 10 00                  	addi	a2, zero, 1
800010e0: 33 16 e6 00                  	sll	a2, a2, a4
800010e4: b3 e8 c8 00                  	or	a7, a7, a2
800010e8: 23 a4 17 19                  	sw	a7, 392(a5)
800010ec: 23 24 d3 10                  	sw	a3, 264(t1)
800010f0: 93 06 20 00                  	addi	a3, zero, 2
800010f4: 63 04 d5 02                  	beq	a0, a3, 40
800010f8: 13 07 17 00                  	addi	a4, a4, 1
800010fc: 23 a2 e7 00                  	sw	a4, 4(a5)
80001100: b3 87 07 01                  	add	a5, a5, a6
80001104: 23 a4 b7 00                  	sw	a1, 8(a5)
80001108: 13 05 00 00                  	mv	a0, zero
8000110c: 67 80 00 00                  	ret
80001110: 93 07 c7 14                  	addi	a5, a4, 332
80001114: 23 24 f7 14                  	sw	a5, 328(a4)
80001118: 6f f0 5f fa                  	j	-92
8000111c: 83 a6 c7 18                  	lw	a3, 396(a5)
80001120: 13 07 17 00                  	addi	a4, a4, 1
80001124: 23 a2 e7 00                  	sw	a4, 4(a5)
80001128: 33 e6 c6 00                  	or	a2, a3, a2
8000112c: 23 a6 c7 18                  	sw	a2, 396(a5)
80001130: b3 87 07 01                  	add	a5, a5, a6
80001134: 23 a4 b7 00                  	sw	a1, 8(a5)
80001138: 13 05 00 00                  	mv	a0, zero
8000113c: 67 80 00 00                  	ret
80001140: 13 05 f0 ff                  	addi	a0, zero, -1
80001144: 67 80 00 00                  	ret

80001148 __call_exitprocs:
80001148: 13 01 01 fd                  	addi	sp, sp, -48
8000114c: b7 27 00 80                  	lui	a5, 524290
80001150: 23 2c 41 01                  	sw	s4, 24(sp)
80001154: 03 aa 87 6c                  	lw	s4, 1736(a5)
80001158: 23 20 21 03                  	sw	s2, 32(sp)
8000115c: 23 26 11 02                  	sw	ra, 44(sp)
80001160: 03 29 8a 14                  	lw	s2, 328(s4)
80001164: 23 24 81 02                  	sw	s0, 40(sp)
80001168: 23 22 91 02                  	sw	s1, 36(sp)
8000116c: 23 2e 31 01                  	sw	s3, 28(sp)
80001170: 23 2a 51 01                  	sw	s5, 20(sp)
80001174: 23 28 61 01                  	sw	s6, 16(sp)
80001178: 23 26 71 01                  	sw	s7, 12(sp)
8000117c: 23 24 81 01                  	sw	s8, 8(sp)
80001180: 63 00 09 04                  	beqz	s2, 64
80001184: 13 0b 05 00                  	mv	s6, a0
80001188: 93 8b 05 00                  	mv	s7, a1
8000118c: 93 0a 10 00                  	addi	s5, zero, 1
80001190: 93 09 f0 ff                  	addi	s3, zero, -1
80001194: 83 24 49 00                  	lw	s1, 4(s2)
80001198: 13 84 f4 ff                  	addi	s0, s1, -1
8000119c: 63 42 04 02                  	bltz	s0, 36
800011a0: 93 94 24 00                  	slli	s1, s1, 2
800011a4: b3 04 99 00                  	add	s1, s2, s1
800011a8: 63 84 0b 04                  	beqz	s7, 72
800011ac: 83 a7 44 10                  	lw	a5, 260(s1)
800011b0: 63 80 77 05                  	beq	a5, s7, 64
800011b4: 13 04 f4 ff                  	addi	s0, s0, -1
800011b8: 93 84 c4 ff                  	addi	s1, s1, -4
800011bc: e3 16 34 ff                  	bne	s0, s3, -20
800011c0: 83 20 c1 02                  	lw	ra, 44(sp)
800011c4: 03 24 81 02                  	lw	s0, 40(sp)
800011c8: 83 24 41 02                  	lw	s1, 36(sp)
800011cc: 03 29 01 02                  	lw	s2, 32(sp)
800011d0: 83 29 c1 01                  	lw	s3, 28(sp)
800011d4: 03 2a 81 01                  	lw	s4, 24(sp)
800011d8: 83 2a 41 01                  	lw	s5, 20(sp)
800011dc: 03 2b 01 01                  	lw	s6, 16(sp)
800011e0: 83 2b c1 00                  	lw	s7, 12(sp)
800011e4: 03 2c 81 00                  	lw	s8, 8(sp)
800011e8: 13 01 01 03                  	addi	sp, sp, 48
800011ec: 67 80 00 00                  	ret
800011f0: 83 27 49 00                  	lw	a5, 4(s2)
800011f4: 83 a6 44 00                  	lw	a3, 4(s1)
800011f8: 93 87 f7 ff                  	addi	a5, a5, -1
800011fc: 63 8e 87 04                  	beq	a5, s0, 92
80001200: 23 a2 04 00                  	sw	zero, 4(s1)
80001204: e3 88 06 fa                  	beqz	a3, -80
80001208: 83 27 89 18                  	lw	a5, 392(s2)
8000120c: 33 97 8a 00                  	sll	a4, s5, s0
80001210: 03 2c 49 00                  	lw	s8, 4(s2)
80001214: b3 77 f7 00                  	and	a5, a4, a5
80001218: 63 92 07 02                  	bnez	a5, 36
8000121c: e7 80 06 00                  	jalr	a3
80001220: 03 27 49 00                  	lw	a4, 4(s2)
80001224: 83 27 8a 14                  	lw	a5, 328(s4)
80001228: 63 14 87 01                  	bne	a4, s8, 8
8000122c: e3 04 f9 f8                  	beq	s2, a5, -120
80001230: e3 88 07 f8                  	beqz	a5, -112
80001234: 13 89 07 00                  	mv	s2, a5
80001238: 6f f0 df f5                  	j	-164
8000123c: 83 27 c9 18                  	lw	a5, 396(s2)
80001240: 83 a5 44 08                  	lw	a1, 132(s1)
80001244: 33 77 f7 00                  	and	a4, a4, a5
80001248: 63 1c 07 00                  	bnez	a4, 24
8000124c: 13 05 0b 00                  	mv	a0, s6
80001250: e7 80 06 00                  	jalr	a3
80001254: 6f f0 df fc                  	j	-52
80001258: 23 22 89 00                  	sw	s0, 4(s2)
8000125c: 6f f0 9f fa                  	j	-88
80001260: 13 85 05 00                  	mv	a0, a1
80001264: e7 80 06 00                  	jalr	a3
80001268: 6f f0 9f fb                  	j	-72

Disassembly of section .eh_frame:

8000126c .eh_frame:
8000126c: 10 00                        	<unknown>
8000126e: 00 00                        	<unknown>
80001270: 00 00                        	<unknown>
80001272: 00 00                        	<unknown>
80001274: 01 7a                        	<unknown>
80001276: 52 00                        	<unknown>
80001278: 01 7c                        	<unknown>
8000127a: 01 01                        	<unknown>
8000127c: 1b 0c 02 00                  	<unknown>
80001280: 14 00                        	<unknown>
80001282: 00 00                        	<unknown>
80001284: 18 00                        	<unknown>
80001286: 00 00                        	<unknown>
80001288: 08 f7                        	<unknown>
8000128a: ff ff 34 00                  	<unknown>
8000128e: 00 00                        	<unknown>
80001290: 00 44                        	<unknown>
80001292: 0e 10                        	<unknown>
80001294: 44 81                        	<unknown>
80001296: 01 00                        	<unknown>

Disassembly of section .init_array:

80002298 __preinit_array_start:
80002298: 50 00                        	<unknown>
8000229a: 00 80                        	<unknown>

Disassembly of section .data:

800022a0 impure_data:
800022a0: 00 00                        	<unknown>
800022a2: 00 00                        	<unknown>
800022a4: 8c 25                        	<unknown>
800022a6: 00 80                        	<unknown>
800022a8: f4 25                        	<unknown>
800022aa: 00 80                        	<unknown>
800022ac: 5c 26                        	<unknown>
800022ae: 00 80                        	<unknown>
		...
80002348: 01 00                        	<unknown>
8000234a: 00 00                        	<unknown>
8000234c: 00 00                        	<unknown>
8000234e: 00 00                        	<unknown>
80002350: 0e 33                        	<unknown>
80002352: cd ab                        	<unknown>
80002354: 34 12                        	<unknown>
80002356: 6d e6                        	<unknown>
80002358: ec de                        	<unknown>
8000235a: 05 00                        	<unknown>
8000235c: 0b 00 00 00                  	vx_tmc	zero
		...

Disassembly of section .sdata:

800026c8 _global_impure_ptr:
800026c8: a0 22                        	<unknown>
800026ca: 00 80                        	<unknown>
800026cc: 00 00                        	<unknown>
800026ce: 80 37                        	<unknown>
800026d0: 00 00                        	<unknown>
800026d2: 80 3f                        	<unknown>
800026d4: 00 00                        	<unknown>
800026d6: 80 4b                        	<unknown>

Disassembly of section .bss:

800026d8 g_wspawn_args:
...

Disassembly of section .comment:

00000000 .comment:
       0: 63 6c 61 6e                  	bltu	sp, t1, 1784
       4: 67 20 76 65                  	<unknown>
       8: 72 73                        	<unknown>
       a: 69 6f                        	<unknown>
       c: 6e 20                        	<unknown>
       e: 31 30                        	<unknown>
      10: 2e 30                        	<unknown>
      12: 2e 31                        	<unknown>
      14: 20 28                        	<unknown>
      16: 68 74                        	<unknown>
      18: 74 70                        	<unknown>
      1a: 73 3a 2f 2f                  	csrrc	s4, 754, t5
      1e: 67 69 74 68                  	<unknown>
      22: 75 62                        	<unknown>
      24: 2e 63                        	<unknown>
      26: 6f 6d 2f 6c                  	jal	s10, 1009346
      2a: 6c 76                        	<unknown>
      2c: 6d 2f                        	<unknown>
      2e: 6c 6c                        	<unknown>
      30: 76 6d                        	<unknown>
      32: 2d 70                        	<unknown>
      34: 72 6f                        	<unknown>
      36: 6a 65                        	<unknown>
      38: 63 74 2e 67                  	bgeu	t3, s2, 1640
      3c: 69 74                        	<unknown>
      3e: 20 31                        	<unknown>
      40: 30 65                        	<unknown>
      42: 63 63 34 64                  	bltu	s0, gp, 1606
      46: 30 32                        	<unknown>
      48: 66 61                        	<unknown>
      4a: 34 37                        	<unknown>
      4c: 39 38                        	<unknown>
      4e: 36 33                        	<unknown>
      50: 33 38 61 31                  	<unknown>
      54: 62 61                        	<unknown>
      56: 65 33                        	<unknown>
      58: 64 39                        	<unknown>
      5a: 34 30                        	<unknown>
      5c: 33 66 39 65                  	<unknown>
      60: 32 62                        	<unknown>
      62: 30 61                        	<unknown>
      64: 39 65                        	<unknown>
      66: 62 29                        	<unknown>
      68: 00 47                        	<unknown>
      6a: 43 43 3a 20                  	<unknown>
      6e: 28 47                        	<unknown>
      70: 4e 55                        	<unknown>
      72: 29 20                        	<unknown>
      74: 39 2e                        	<unknown>
      76: 32 2e                        	<unknown>
      78: 30 00                        	<unknown>

Disassembly of section .riscv.attributes:

00000000 .riscv.attributes:
       0: 41 25                        	<unknown>
       2: 00 00                        	<unknown>
       4: 00 72                        	<unknown>
       6: 69 73                        	<unknown>
       8: 63 76 00 01                  	bgeu	zero, a6, 12
       c: 1b 00 00 00                  	<unknown>
      10: 04 10                        	<unknown>
      12: 05 72                        	<unknown>
      14: 76 33                        	<unknown>
      16: 32 69                        	<unknown>
      18: 32 70                        	<unknown>
      1a: 30 5f                        	<unknown>
      1c: 6d 32                        	<unknown>
      1e: 70 30                        	<unknown>
      20: 5f 66 32 70                  	<unknown>
      24: 30 00                        	<unknown>

Disassembly of section .symtab:

00000000 .symtab:
		...
      14: 00 00                        	<unknown>
      16: 00 80                        	<unknown>
      18: 00 00                        	<unknown>
      1a: 00 00                        	<unknown>
      1c: 03 00 01 00                  	lb	zero, 0(sp)
      20: 00 00                        	<unknown>
      22: 00 00                        	<unknown>
      24: 50 00                        	<unknown>
      26: 00 80                        	<unknown>
      28: 00 00                        	<unknown>
      2a: 00 00                        	<unknown>
      2c: 03 00 02 00                  	lb	zero, 0(tp)
      30: 00 00                        	<unknown>
      32: 00 00                        	<unknown>
      34: 6c 12                        	<unknown>
      36: 00 80                        	<unknown>
      38: 00 00                        	<unknown>
      3a: 00 00                        	<unknown>
      3c: 03 00 03 00                  	lb	zero, 0(t1)
      40: 00 00                        	<unknown>
      42: 00 00                        	<unknown>
      44: 98 22                        	<unknown>
      46: 00 80                        	<unknown>
      48: 00 00                        	<unknown>
      4a: 00 00                        	<unknown>
      4c: 03 00 04 00                  	lb	zero, 0(s0)
      50: 00 00                        	<unknown>
      52: 00 00                        	<unknown>
      54: a0 22                        	<unknown>
      56: 00 80                        	<unknown>
      58: 00 00                        	<unknown>
      5a: 00 00                        	<unknown>
      5c: 03 00 05 00                  	lb	zero, 0(a0)
      60: 00 00                        	<unknown>
      62: 00 00                        	<unknown>
      64: c8 26                        	<unknown>
      66: 00 80                        	<unknown>
      68: 00 00                        	<unknown>
      6a: 00 00                        	<unknown>
      6c: 03 00 06 00                  	lb	zero, 0(a2)
      70: 00 00                        	<unknown>
      72: 00 00                        	<unknown>
      74: d8 26                        	<unknown>
      76: 00 80                        	<unknown>
      78: 00 00                        	<unknown>
      7a: 00 00                        	<unknown>
      7c: 03 00 07 00                  	lb	zero, 0(a4)
		...
      8c: 03 00 08 00                  	lb	zero, 0(a6)
		...
      9c: 03 00 09 00                  	lb	zero, 0(s2)
      a0: 01 00                        	<unknown>
		...
      aa: 00 00                        	<unknown>
      ac: 04 00                        	<unknown>
      ae: f1 ff                        	<unknown>
      b0: 0e 00                        	<unknown>
      b2: 00 00                        	<unknown>
      b4: 04 0a                        	<unknown>
      b6: 00 80                        	<unknown>
      b8: 00 00                        	<unknown>
      ba: 00 00                        	<unknown>
      bc: 00 00                        	<unknown>
      be: 02 00                        	<unknown>
      c0: 15 00                        	<unknown>
		...
      ca: 00 00                        	<unknown>
      cc: 04 00                        	<unknown>
      ce: f1 ff                        	<unknown>
      d0: 25 00                        	<unknown>
      d2: 00 00                        	<unknown>
      d4: 50 00                        	<unknown>
      d6: 00 80                        	<unknown>
      d8: 18 00                        	<unknown>
      da: 00 00                        	<unknown>
      dc: 02 00                        	<unknown>
      de: 02 00                        	<unknown>
      e0: 33 00 00 00                  	add	zero, zero, zero
		...
      ec: 04 00                        	<unknown>
      ee: f1 ff                        	<unknown>
      f0: 00 00                        	<unknown>
      f2: 00 00                        	<unknown>
      f4: 90 09                        	<unknown>
      f6: 00 80                        	<unknown>
      f8: 00 00                        	<unknown>
      fa: 00 00                        	<unknown>
      fc: 00 00                        	<unknown>
      fe: 02 00                        	<unknown>
     100: 00 00                        	<unknown>
     102: 00 00                        	<unknown>
     104: 94 09                        	<unknown>
     106: 00 80                        	<unknown>
     108: 00 00                        	<unknown>
     10a: 00 00                        	<unknown>
     10c: 00 00                        	<unknown>
     10e: 02 00                        	<unknown>
     110: 00 00                        	<unknown>
     112: 00 00                        	<unknown>
     114: 98 09                        	<unknown>
     116: 00 80                        	<unknown>
     118: 00 00                        	<unknown>
     11a: 00 00                        	<unknown>
     11c: 00 00                        	<unknown>
     11e: 02 00                        	<unknown>
     120: 00 00                        	<unknown>
     122: 00 00                        	<unknown>
     124: c4 09                        	<unknown>
     126: 00 80                        	<unknown>
     128: 00 00                        	<unknown>
     12a: 00 00                        	<unknown>
     12c: 00 00                        	<unknown>
     12e: 02 00                        	<unknown>
     130: 3e 00                        	<unknown>
     132: 00 00                        	<unknown>
     134: 0a 00                        	<unknown>
		...
     13e: f1 ff                        	<unknown>
     140: 45 00                        	<unknown>
     142: 00 00                        	<unknown>
     144: 0b 00 00 00                  	vx_tmc	zero
     148: 00 00                        	<unknown>
     14a: 00 00                        	<unknown>
     14c: 00 00                        	<unknown>
     14e: f1 ff                        	<unknown>
     150: 4c 00                        	<unknown>
     152: 00 00                        	<unknown>
     154: 0c 00                        	<unknown>
		...
     15e: f1 ff                        	<unknown>
     160: 53 00 00 00                  	<unknown>
     164: 0d 00                        	<unknown>
		...
     16e: f1 ff                        	<unknown>
     170: 5a 00                        	<unknown>
     172: 00 00                        	<unknown>
     174: 0e 00                        	<unknown>
		...
     17e: f1 ff                        	<unknown>
     180: 61 00                        	<unknown>
     182: 00 00                        	<unknown>
     184: 0f 00 00 00                  	fence	unknown, unknown
     188: 00 00                        	<unknown>
     18a: 00 00                        	<unknown>
     18c: 00 00                        	<unknown>
     18e: f1 ff                        	<unknown>
     190: 68 00                        	<unknown>
     192: 00 00                        	<unknown>
     194: 10 00                        	<unknown>
		...
     19e: f1 ff                        	<unknown>
     1a0: 6f 00 00 00                  	j	0
     1a4: 11 00                        	<unknown>
		...
     1ae: f1 ff                        	<unknown>
     1b0: 76 00                        	<unknown>
     1b2: 00 00                        	<unknown>
     1b4: 03 00 00 00                  	lb	zero, 0(zero)
     1b8: 00 00                        	<unknown>
     1ba: 00 00                        	<unknown>
     1bc: 00 00                        	<unknown>
     1be: f1 ff                        	<unknown>
     1c0: 7d 00                        	<unknown>
     1c2: 00 00                        	<unknown>
     1c4: 01 00                        	<unknown>
		...
     1ce: f1 ff                        	<unknown>
     1d0: 84 00                        	<unknown>
     1d2: 00 00                        	<unknown>
     1d4: 08 00                        	<unknown>
		...
     1de: f1 ff                        	<unknown>
     1e0: 8b 00 00 00                  	<unknown>
     1e4: 09 00                        	<unknown>
		...
     1ee: f1 ff                        	<unknown>
     1f0: 92 00                        	<unknown>
     1f2: 00 00                        	<unknown>
     1f4: 1a 00                        	<unknown>
		...
     1fe: f1 ff                        	<unknown>
     200: 9a 00                        	<unknown>
     202: 00 00                        	<unknown>
     204: 1b 00 00 00                  	<unknown>
     208: 00 00                        	<unknown>
     20a: 00 00                        	<unknown>
     20c: 00 00                        	<unknown>
     20e: f1 ff                        	<unknown>
     210: a2 00                        	<unknown>
     212: 00 00                        	<unknown>
     214: 12 00                        	<unknown>
		...
     21e: f1 ff                        	<unknown>
     220: a9 00                        	<unknown>
     222: 00 00                        	<unknown>
     224: 13 00 00 00                  	nop
     228: 00 00                        	<unknown>
     22a: 00 00                        	<unknown>
     22c: 00 00                        	<unknown>
     22e: f1 ff                        	<unknown>
     230: b0 00                        	<unknown>
     232: 00 00                        	<unknown>
     234: 14 00                        	<unknown>
		...
     23e: f1 ff                        	<unknown>
     240: b7 00 00 00                  	lui	ra, 0
     244: 15 00                        	<unknown>
		...
     24e: f1 ff                        	<unknown>
     250: be 00                        	<unknown>
     252: 00 00                        	<unknown>
     254: 16 00                        	<unknown>
		...
     25e: f1 ff                        	<unknown>
     260: c5 00                        	<unknown>
     262: 00 00                        	<unknown>
     264: 17 00 00 00                  	auipc	zero, 0
     268: 00 00                        	<unknown>
     26a: 00 00                        	<unknown>
     26c: 00 00                        	<unknown>
     26e: f1 ff                        	<unknown>
     270: cc 00                        	<unknown>
     272: 00 00                        	<unknown>
     274: 18 00                        	<unknown>
		...
     27e: f1 ff                        	<unknown>
     280: d3 00 00 00                  	<unknown>
     284: 19 00                        	<unknown>
		...
     28e: f1 ff                        	<unknown>
     290: da 00                        	<unknown>
     292: 00 00                        	<unknown>
     294: 02 00                        	<unknown>
		...
     29e: f1 ff                        	<unknown>
     2a0: e1 00                        	<unknown>
     2a2: 00 00                        	<unknown>
     2a4: 05 00                        	<unknown>
		...
     2ae: f1 ff                        	<unknown>
     2b0: e8 00                        	<unknown>
     2b2: 00 00                        	<unknown>
     2b4: 06 00                        	<unknown>
		...
     2be: f1 ff                        	<unknown>
     2c0: ef 00 00 00                  	jal	0
     2c4: 07 00 00 00                  	<unknown>
     2c8: 00 00                        	<unknown>
     2ca: 00 00                        	<unknown>
     2cc: 00 00                        	<unknown>
     2ce: f1 ff                        	<unknown>
     2d0: f6 00                        	<unknown>
     2d2: 00 00                        	<unknown>
     2d4: 1c 00                        	<unknown>
		...
     2de: f1 ff                        	<unknown>
     2e0: fd 00                        	<unknown>
     2e2: 00 00                        	<unknown>
     2e4: 1d 00                        	<unknown>
		...
     2ee: f1 ff                        	<unknown>
     2f0: 04 01                        	<unknown>
     2f2: 00 00                        	<unknown>
     2f4: 1e 00                        	<unknown>
		...
     2fe: f1 ff                        	<unknown>
     300: 0b 01 00 00                  	<unknown>
     304: 1f 00 00 00                  	<unknown>
     308: 00 00                        	<unknown>
     30a: 00 00                        	<unknown>
     30c: 00 00                        	<unknown>
     30e: f1 ff                        	<unknown>
     310: 12 01                        	<unknown>
     312: 00 00                        	<unknown>
     314: 04 00                        	<unknown>
		...
     31e: f1 ff                        	<unknown>
     320: 19 01                        	<unknown>
		...
     32e: f1 ff                        	<unknown>
     330: 20 01                        	<unknown>
     332: 00 00                        	<unknown>
     334: 01 00                        	<unknown>
		...
     33e: f1 ff                        	<unknown>
     340: 27 01 00 00                  	<unknown>
     344: 0a 00                        	<unknown>
		...
     34e: f1 ff                        	<unknown>
     350: 2f 01 00 00                  	<unknown>
     354: 0b 00 00 00                  	vx_tmc	zero
     358: 00 00                        	<unknown>
     35a: 00 00                        	<unknown>
     35c: 00 00                        	<unknown>
     35e: f1 ff                        	<unknown>
     360: 37 01 00 00                  	lui	sp, 0
     364: 0c 00                        	<unknown>
		...
     36e: f1 ff                        	<unknown>
     370: 3f 01 00 00                  	<unknown>
     374: 0d 00                        	<unknown>
		...
     37e: f1 ff                        	<unknown>
     380: 47 01 00 00                  	<unknown>
     384: 0e 00                        	<unknown>
		...
     38e: f1 ff                        	<unknown>
     390: 4f 01 00 00                  	<unknown>
     394: 0f 00 00 00                  	fence	unknown, unknown
     398: 00 00                        	<unknown>
     39a: 00 00                        	<unknown>
     39c: 00 00                        	<unknown>
     39e: f1 ff                        	<unknown>
     3a0: 57 01 00 00                  	<unknown>
     3a4: 10 00                        	<unknown>
		...
     3ae: f1 ff                        	<unknown>
     3b0: 5f 01 00 00                  	<unknown>
     3b4: 11 00                        	<unknown>
		...
     3be: f1 ff                        	<unknown>
     3c0: 67 01 00 00                  	jalr	sp, zero
     3c4: 12 00                        	<unknown>
		...
     3ce: f1 ff                        	<unknown>
     3d0: 6f 01 00 00                  	jal	sp, 0
     3d4: 13 00 00 00                  	nop
     3d8: 00 00                        	<unknown>
     3da: 00 00                        	<unknown>
     3dc: 00 00                        	<unknown>
     3de: f1 ff                        	<unknown>
     3e0: 77 01 00 00                  	<unknown>
     3e4: 02 00                        	<unknown>
		...
     3ee: f1 ff                        	<unknown>
     3f0: 7e 01                        	<unknown>
     3f2: 00 00                        	<unknown>
     3f4: 14 00                        	<unknown>
		...
     3fe: f1 ff                        	<unknown>
     400: 86 01                        	<unknown>
     402: 00 00                        	<unknown>
     404: 15 00                        	<unknown>
		...
     40e: f1 ff                        	<unknown>
     410: 8e 01                        	<unknown>
     412: 00 00                        	<unknown>
     414: 16 00                        	<unknown>
		...
     41e: f1 ff                        	<unknown>
     420: 96 01                        	<unknown>
     422: 00 00                        	<unknown>
     424: 17 00 00 00                  	auipc	zero, 0
     428: 00 00                        	<unknown>
     42a: 00 00                        	<unknown>
     42c: 00 00                        	<unknown>
     42e: f1 ff                        	<unknown>
     430: 9e 01                        	<unknown>
     432: 00 00                        	<unknown>
     434: 18 00                        	<unknown>
		...
     43e: f1 ff                        	<unknown>
     440: a6 01                        	<unknown>
     442: 00 00                        	<unknown>
     444: 19 00                        	<unknown>
		...
     44e: f1 ff                        	<unknown>
     450: ae 01                        	<unknown>
     452: 00 00                        	<unknown>
     454: 1a 00                        	<unknown>
		...
     45e: f1 ff                        	<unknown>
     460: b6 01                        	<unknown>
     462: 00 00                        	<unknown>
     464: 1b 00 00 00                  	<unknown>
     468: 00 00                        	<unknown>
     46a: 00 00                        	<unknown>
     46c: 00 00                        	<unknown>
     46e: f1 ff                        	<unknown>
     470: be 01                        	<unknown>
     472: 00 00                        	<unknown>
     474: 1c 00                        	<unknown>
		...
     47e: f1 ff                        	<unknown>
     480: c6 01                        	<unknown>
     482: 00 00                        	<unknown>
     484: 1d 00                        	<unknown>
		...
     48e: f1 ff                        	<unknown>
     490: ce 01                        	<unknown>
     492: 00 00                        	<unknown>
     494: 03 00 00 00                  	lb	zero, 0(zero)
     498: 00 00                        	<unknown>
     49a: 00 00                        	<unknown>
     49c: 00 00                        	<unknown>
     49e: f1 ff                        	<unknown>
     4a0: d5 01                        	<unknown>
     4a2: 00 00                        	<unknown>
     4a4: 1e 00                        	<unknown>
		...
     4ae: f1 ff                        	<unknown>
     4b0: dd 01                        	<unknown>
     4b2: 00 00                        	<unknown>
     4b4: 1f 00 00 00                  	<unknown>
     4b8: 00 00                        	<unknown>
     4ba: 00 00                        	<unknown>
     4bc: 00 00                        	<unknown>
     4be: f1 ff                        	<unknown>
     4c0: e5 01                        	<unknown>
     4c2: 00 00                        	<unknown>
     4c4: 04 00                        	<unknown>
		...
     4ce: f1 ff                        	<unknown>
     4d0: ec 01                        	<unknown>
     4d2: 00 00                        	<unknown>
     4d4: 05 00                        	<unknown>
		...
     4de: f1 ff                        	<unknown>
     4e0: f3 01 00 00                  	<unknown>
     4e4: 06 00                        	<unknown>
		...
     4ee: f1 ff                        	<unknown>
     4f0: fa 01                        	<unknown>
     4f2: 00 00                        	<unknown>
     4f4: 07 00 00 00                  	<unknown>
     4f8: 00 00                        	<unknown>
     4fa: 00 00                        	<unknown>
     4fc: 00 00                        	<unknown>
     4fe: f1 ff                        	<unknown>
     500: 01 02                        	<unknown>
     502: 00 00                        	<unknown>
     504: 08 00                        	<unknown>
		...
     50e: f1 ff                        	<unknown>
     510: 08 02                        	<unknown>
     512: 00 00                        	<unknown>
     514: 09 00                        	<unknown>
		...
     51e: f1 ff                        	<unknown>
     520: 0f 02 00 00                  	<unknown>
		...
     52c: 00 00                        	<unknown>
     52e: f1 ff                        	<unknown>
     530: 18 02                        	<unknown>
		...
     53a: 00 00                        	<unknown>
     53c: 04 00                        	<unknown>
     53e: f1 ff                        	<unknown>
     540: 19 01                        	<unknown>
		...
     54e: f1 ff                        	<unknown>
     550: 20 01                        	<unknown>
     552: 00 00                        	<unknown>
     554: 01 00                        	<unknown>
		...
     55e: f1 ff                        	<unknown>
     560: 77 01 00 00                  	<unknown>
     564: 02 00                        	<unknown>
		...
     56e: f1 ff                        	<unknown>
     570: ce 01                        	<unknown>
     572: 00 00                        	<unknown>
     574: 03 00 00 00                  	lb	zero, 0(zero)
     578: 00 00                        	<unknown>
     57a: 00 00                        	<unknown>
     57c: 00 00                        	<unknown>
     57e: f1 ff                        	<unknown>
     580: e5 01                        	<unknown>
     582: 00 00                        	<unknown>
     584: 04 00                        	<unknown>
		...
     58e: f1 ff                        	<unknown>
     590: ec 01                        	<unknown>
     592: 00 00                        	<unknown>
     594: 05 00                        	<unknown>
		...
     59e: f1 ff                        	<unknown>
     5a0: f3 01 00 00                  	<unknown>
     5a4: 06 00                        	<unknown>
		...
     5ae: f1 ff                        	<unknown>
     5b0: fa 01                        	<unknown>
     5b2: 00 00                        	<unknown>
     5b4: 07 00 00 00                  	<unknown>
     5b8: 00 00                        	<unknown>
     5ba: 00 00                        	<unknown>
     5bc: 00 00                        	<unknown>
     5be: f1 ff                        	<unknown>
     5c0: 01 02                        	<unknown>
     5c2: 00 00                        	<unknown>
     5c4: 08 00                        	<unknown>
		...
     5ce: f1 ff                        	<unknown>
     5d0: 08 02                        	<unknown>
     5d2: 00 00                        	<unknown>
     5d4: 09 00                        	<unknown>
		...
     5de: f1 ff                        	<unknown>
     5e0: 27 01 00 00                  	<unknown>
     5e4: 0a 00                        	<unknown>
		...
     5ee: f1 ff                        	<unknown>
     5f0: 2f 01 00 00                  	<unknown>
     5f4: 0b 00 00 00                  	vx_tmc	zero
     5f8: 00 00                        	<unknown>
     5fa: 00 00                        	<unknown>
     5fc: 00 00                        	<unknown>
     5fe: f1 ff                        	<unknown>
     600: 37 01 00 00                  	lui	sp, 0
     604: 0c 00                        	<unknown>
		...
     60e: f1 ff                        	<unknown>
     610: 3f 01 00 00                  	<unknown>
     614: 0d 00                        	<unknown>
		...
     61e: f1 ff                        	<unknown>
     620: 47 01 00 00                  	<unknown>
     624: 0e 00                        	<unknown>
		...
     62e: f1 ff                        	<unknown>
     630: 4f 01 00 00                  	<unknown>
     634: 0f 00 00 00                  	fence	unknown, unknown
     638: 00 00                        	<unknown>
     63a: 00 00                        	<unknown>
     63c: 00 00                        	<unknown>
     63e: f1 ff                        	<unknown>
     640: 57 01 00 00                  	<unknown>
     644: 10 00                        	<unknown>
		...
     64e: f1 ff                        	<unknown>
     650: 5f 01 00 00                  	<unknown>
     654: 11 00                        	<unknown>
		...
     65e: f1 ff                        	<unknown>
     660: 67 01 00 00                  	jalr	sp, zero
     664: 12 00                        	<unknown>
		...
     66e: f1 ff                        	<unknown>
     670: 6f 01 00 00                  	jal	sp, 0
     674: 13 00 00 00                  	nop
     678: 00 00                        	<unknown>
     67a: 00 00                        	<unknown>
     67c: 00 00                        	<unknown>
     67e: f1 ff                        	<unknown>
     680: 7e 01                        	<unknown>
     682: 00 00                        	<unknown>
     684: 14 00                        	<unknown>
		...
     68e: f1 ff                        	<unknown>
     690: 86 01                        	<unknown>
     692: 00 00                        	<unknown>
     694: 15 00                        	<unknown>
		...
     69e: f1 ff                        	<unknown>
     6a0: 8e 01                        	<unknown>
     6a2: 00 00                        	<unknown>
     6a4: 16 00                        	<unknown>
		...
     6ae: f1 ff                        	<unknown>
     6b0: 96 01                        	<unknown>
     6b2: 00 00                        	<unknown>
     6b4: 17 00 00 00                  	auipc	zero, 0
     6b8: 00 00                        	<unknown>
     6ba: 00 00                        	<unknown>
     6bc: 00 00                        	<unknown>
     6be: f1 ff                        	<unknown>
     6c0: 9e 01                        	<unknown>
     6c2: 00 00                        	<unknown>
     6c4: 18 00                        	<unknown>
		...
     6ce: f1 ff                        	<unknown>
     6d0: a6 01                        	<unknown>
     6d2: 00 00                        	<unknown>
     6d4: 19 00                        	<unknown>
		...
     6de: f1 ff                        	<unknown>
     6e0: ae 01                        	<unknown>
     6e2: 00 00                        	<unknown>
     6e4: 1a 00                        	<unknown>
		...
     6ee: f1 ff                        	<unknown>
     6f0: b6 01                        	<unknown>
     6f2: 00 00                        	<unknown>
     6f4: 1b 00 00 00                  	<unknown>
     6f8: 00 00                        	<unknown>
     6fa: 00 00                        	<unknown>
     6fc: 00 00                        	<unknown>
     6fe: f1 ff                        	<unknown>
     700: be 01                        	<unknown>
     702: 00 00                        	<unknown>
     704: 1c 00                        	<unknown>
		...
     70e: f1 ff                        	<unknown>
     710: c6 01                        	<unknown>
     712: 00 00                        	<unknown>
     714: 1d 00                        	<unknown>
		...
     71e: f1 ff                        	<unknown>
     720: d5 01                        	<unknown>
     722: 00 00                        	<unknown>
     724: 1e 00                        	<unknown>
		...
     72e: f1 ff                        	<unknown>
     730: dd 01                        	<unknown>
     732: 00 00                        	<unknown>
     734: 1f 00 00 00                  	<unknown>
     738: 00 00                        	<unknown>
     73a: 00 00                        	<unknown>
     73c: 00 00                        	<unknown>
     73e: f1 ff                        	<unknown>
     740: 0f 02 00 00                  	<unknown>
		...
     74c: 00 00                        	<unknown>
     74e: f1 ff                        	<unknown>
     750: 7d 00                        	<unknown>
     752: 00 00                        	<unknown>
     754: 01 00                        	<unknown>
		...
     75e: f1 ff                        	<unknown>
     760: da 00                        	<unknown>
     762: 00 00                        	<unknown>
     764: 02 00                        	<unknown>
		...
     76e: f1 ff                        	<unknown>
     770: 76 00                        	<unknown>
     772: 00 00                        	<unknown>
     774: 03 00 00 00                  	lb	zero, 0(zero)
     778: 00 00                        	<unknown>
     77a: 00 00                        	<unknown>
     77c: 00 00                        	<unknown>
     77e: f1 ff                        	<unknown>
     780: 12 01                        	<unknown>
     782: 00 00                        	<unknown>
     784: 04 00                        	<unknown>
		...
     78e: f1 ff                        	<unknown>
     790: e1 00                        	<unknown>
     792: 00 00                        	<unknown>
     794: 05 00                        	<unknown>
		...
     79e: f1 ff                        	<unknown>
     7a0: e8 00                        	<unknown>
     7a2: 00 00                        	<unknown>
     7a4: 06 00                        	<unknown>
		...
     7ae: f1 ff                        	<unknown>
     7b0: ef 00 00 00                  	jal	0
     7b4: 07 00 00 00                  	<unknown>
     7b8: 00 00                        	<unknown>
     7ba: 00 00                        	<unknown>
     7bc: 00 00                        	<unknown>
     7be: f1 ff                        	<unknown>
     7c0: 84 00                        	<unknown>
     7c2: 00 00                        	<unknown>
     7c4: 08 00                        	<unknown>
		...
     7ce: f1 ff                        	<unknown>
     7d0: 8b 00 00 00                  	<unknown>
     7d4: 09 00                        	<unknown>
		...
     7de: f1 ff                        	<unknown>
     7e0: 3e 00                        	<unknown>
     7e2: 00 00                        	<unknown>
     7e4: 0a 00                        	<unknown>
		...
     7ee: f1 ff                        	<unknown>
     7f0: 45 00                        	<unknown>
     7f2: 00 00                        	<unknown>
     7f4: 0b 00 00 00                  	vx_tmc	zero
     7f8: 00 00                        	<unknown>
     7fa: 00 00                        	<unknown>
     7fc: 00 00                        	<unknown>
     7fe: f1 ff                        	<unknown>
     800: 4c 00                        	<unknown>
     802: 00 00                        	<unknown>
     804: 0c 00                        	<unknown>
		...
     80e: f1 ff                        	<unknown>
     810: 53 00 00 00                  	<unknown>
     814: 0d 00                        	<unknown>
		...
     81e: f1 ff                        	<unknown>
     820: 5a 00                        	<unknown>
     822: 00 00                        	<unknown>
     824: 0e 00                        	<unknown>
		...
     82e: f1 ff                        	<unknown>
     830: 61 00                        	<unknown>
     832: 00 00                        	<unknown>
     834: 0f 00 00 00                  	fence	unknown, unknown
     838: 00 00                        	<unknown>
     83a: 00 00                        	<unknown>
     83c: 00 00                        	<unknown>
     83e: f1 ff                        	<unknown>
     840: 68 00                        	<unknown>
     842: 00 00                        	<unknown>
     844: 10 00                        	<unknown>
		...
     84e: f1 ff                        	<unknown>
     850: 6f 00 00 00                  	j	0
     854: 11 00                        	<unknown>
		...
     85e: f1 ff                        	<unknown>
     860: a2 00                        	<unknown>
     862: 00 00                        	<unknown>
     864: 12 00                        	<unknown>
		...
     86e: f1 ff                        	<unknown>
     870: a9 00                        	<unknown>
     872: 00 00                        	<unknown>
     874: 13 00 00 00                  	nop
     878: 00 00                        	<unknown>
     87a: 00 00                        	<unknown>
     87c: 00 00                        	<unknown>
     87e: f1 ff                        	<unknown>
     880: b0 00                        	<unknown>
     882: 00 00                        	<unknown>
     884: 14 00                        	<unknown>
		...
     88e: f1 ff                        	<unknown>
     890: b7 00 00 00                  	lui	ra, 0
     894: 15 00                        	<unknown>
		...
     89e: f1 ff                        	<unknown>
     8a0: be 00                        	<unknown>
     8a2: 00 00                        	<unknown>
     8a4: 16 00                        	<unknown>
		...
     8ae: f1 ff                        	<unknown>
     8b0: c5 00                        	<unknown>
     8b2: 00 00                        	<unknown>
     8b4: 17 00 00 00                  	auipc	zero, 0
     8b8: 00 00                        	<unknown>
     8ba: 00 00                        	<unknown>
     8bc: 00 00                        	<unknown>
     8be: f1 ff                        	<unknown>
     8c0: cc 00                        	<unknown>
     8c2: 00 00                        	<unknown>
     8c4: 18 00                        	<unknown>
		...
     8ce: f1 ff                        	<unknown>
     8d0: d3 00 00 00                  	<unknown>
     8d4: 19 00                        	<unknown>
		...
     8de: f1 ff                        	<unknown>
     8e0: 92 00                        	<unknown>
     8e2: 00 00                        	<unknown>
     8e4: 1a 00                        	<unknown>
		...
     8ee: f1 ff                        	<unknown>
     8f0: 9a 00                        	<unknown>
     8f2: 00 00                        	<unknown>
     8f4: 1b 00 00 00                  	<unknown>
     8f8: 00 00                        	<unknown>
     8fa: 00 00                        	<unknown>
     8fc: 00 00                        	<unknown>
     8fe: f1 ff                        	<unknown>
     900: f6 00                        	<unknown>
     902: 00 00                        	<unknown>
     904: 1c 00                        	<unknown>
		...
     90e: f1 ff                        	<unknown>
     910: fd 00                        	<unknown>
     912: 00 00                        	<unknown>
     914: 1d 00                        	<unknown>
		...
     91e: f1 ff                        	<unknown>
     920: 04 01                        	<unknown>
     922: 00 00                        	<unknown>
     924: 1e 00                        	<unknown>
		...
     92e: f1 ff                        	<unknown>
     930: 0b 01 00 00                  	<unknown>
     934: 1f 00 00 00                  	<unknown>
     938: 00 00                        	<unknown>
     93a: 00 00                        	<unknown>
     93c: 00 00                        	<unknown>
     93e: f1 ff                        	<unknown>
     940: 26 02                        	<unknown>
		...
     94a: 00 00                        	<unknown>
     94c: 04 00                        	<unknown>
     94e: f1 ff                        	<unknown>
     950: 19 01                        	<unknown>
		...
     95e: f1 ff                        	<unknown>
     960: 20 01                        	<unknown>
     962: 00 00                        	<unknown>
     964: 01 00                        	<unknown>
		...
     96e: f1 ff                        	<unknown>
     970: 77 01 00 00                  	<unknown>
     974: 02 00                        	<unknown>
		...
     97e: f1 ff                        	<unknown>
     980: ce 01                        	<unknown>
     982: 00 00                        	<unknown>
     984: 03 00 00 00                  	lb	zero, 0(zero)
     988: 00 00                        	<unknown>
     98a: 00 00                        	<unknown>
     98c: 00 00                        	<unknown>
     98e: f1 ff                        	<unknown>
     990: e5 01                        	<unknown>
     992: 00 00                        	<unknown>
     994: 04 00                        	<unknown>
		...
     99e: f1 ff                        	<unknown>
     9a0: ec 01                        	<unknown>
     9a2: 00 00                        	<unknown>
     9a4: 05 00                        	<unknown>
		...
     9ae: f1 ff                        	<unknown>
     9b0: f3 01 00 00                  	<unknown>
     9b4: 06 00                        	<unknown>
		...
     9be: f1 ff                        	<unknown>
     9c0: fa 01                        	<unknown>
     9c2: 00 00                        	<unknown>
     9c4: 07 00 00 00                  	<unknown>
     9c8: 00 00                        	<unknown>
     9ca: 00 00                        	<unknown>
     9cc: 00 00                        	<unknown>
     9ce: f1 ff                        	<unknown>
     9d0: 01 02                        	<unknown>
     9d2: 00 00                        	<unknown>
     9d4: 08 00                        	<unknown>
		...
     9de: f1 ff                        	<unknown>
     9e0: 08 02                        	<unknown>
     9e2: 00 00                        	<unknown>
     9e4: 09 00                        	<unknown>
		...
     9ee: f1 ff                        	<unknown>
     9f0: 27 01 00 00                  	<unknown>
     9f4: 0a 00                        	<unknown>
		...
     9fe: f1 ff                        	<unknown>
     a00: 2f 01 00 00                  	<unknown>
     a04: 0b 00 00 00                  	vx_tmc	zero
     a08: 00 00                        	<unknown>
     a0a: 00 00                        	<unknown>
     a0c: 00 00                        	<unknown>
     a0e: f1 ff                        	<unknown>
     a10: 37 01 00 00                  	lui	sp, 0
     a14: 0c 00                        	<unknown>
		...
     a1e: f1 ff                        	<unknown>
     a20: 3f 01 00 00                  	<unknown>
     a24: 0d 00                        	<unknown>
		...
     a2e: f1 ff                        	<unknown>
     a30: 47 01 00 00                  	<unknown>
     a34: 0e 00                        	<unknown>
		...
     a3e: f1 ff                        	<unknown>
     a40: 4f 01 00 00                  	<unknown>
     a44: 0f 00 00 00                  	fence	unknown, unknown
     a48: 00 00                        	<unknown>
     a4a: 00 00                        	<unknown>
     a4c: 00 00                        	<unknown>
     a4e: f1 ff                        	<unknown>
     a50: 57 01 00 00                  	<unknown>
     a54: 10 00                        	<unknown>
		...
     a5e: f1 ff                        	<unknown>
     a60: 5f 01 00 00                  	<unknown>
     a64: 11 00                        	<unknown>
		...
     a6e: f1 ff                        	<unknown>
     a70: 67 01 00 00                  	jalr	sp, zero
     a74: 12 00                        	<unknown>
		...
     a7e: f1 ff                        	<unknown>
     a80: 6f 01 00 00                  	jal	sp, 0
     a84: 13 00 00 00                  	nop
     a88: 00 00                        	<unknown>
     a8a: 00 00                        	<unknown>
     a8c: 00 00                        	<unknown>
     a8e: f1 ff                        	<unknown>
     a90: 7e 01                        	<unknown>
     a92: 00 00                        	<unknown>
     a94: 14 00                        	<unknown>
		...
     a9e: f1 ff                        	<unknown>
     aa0: 86 01                        	<unknown>
     aa2: 00 00                        	<unknown>
     aa4: 15 00                        	<unknown>
		...
     aae: f1 ff                        	<unknown>
     ab0: 8e 01                        	<unknown>
     ab2: 00 00                        	<unknown>
     ab4: 16 00                        	<unknown>
		...
     abe: f1 ff                        	<unknown>
     ac0: 96 01                        	<unknown>
     ac2: 00 00                        	<unknown>
     ac4: 17 00 00 00                  	auipc	zero, 0
     ac8: 00 00                        	<unknown>
     aca: 00 00                        	<unknown>
     acc: 00 00                        	<unknown>
     ace: f1 ff                        	<unknown>
     ad0: 9e 01                        	<unknown>
     ad2: 00 00                        	<unknown>
     ad4: 18 00                        	<unknown>
		...
     ade: f1 ff                        	<unknown>
     ae0: a6 01                        	<unknown>
     ae2: 00 00                        	<unknown>
     ae4: 19 00                        	<unknown>
		...
     aee: f1 ff                        	<unknown>
     af0: ae 01                        	<unknown>
     af2: 00 00                        	<unknown>
     af4: 1a 00                        	<unknown>
		...
     afe: f1 ff                        	<unknown>
     b00: b6 01                        	<unknown>
     b02: 00 00                        	<unknown>
     b04: 1b 00 00 00                  	<unknown>
     b08: 00 00                        	<unknown>
     b0a: 00 00                        	<unknown>
     b0c: 00 00                        	<unknown>
     b0e: f1 ff                        	<unknown>
     b10: be 01                        	<unknown>
     b12: 00 00                        	<unknown>
     b14: 1c 00                        	<unknown>
		...
     b1e: f1 ff                        	<unknown>
     b20: c6 01                        	<unknown>
     b22: 00 00                        	<unknown>
     b24: 1d 00                        	<unknown>
		...
     b2e: f1 ff                        	<unknown>
     b30: d5 01                        	<unknown>
     b32: 00 00                        	<unknown>
     b34: 1e 00                        	<unknown>
		...
     b3e: f1 ff                        	<unknown>
     b40: dd 01                        	<unknown>
     b42: 00 00                        	<unknown>
     b44: 1f 00 00 00                  	<unknown>
     b48: 00 00                        	<unknown>
     b4a: 00 00                        	<unknown>
     b4c: 00 00                        	<unknown>
     b4e: f1 ff                        	<unknown>
     b50: 0f 02 00 00                  	<unknown>
		...
     b5c: 00 00                        	<unknown>
     b5e: f1 ff                        	<unknown>
     b60: 7d 00                        	<unknown>
     b62: 00 00                        	<unknown>
     b64: 01 00                        	<unknown>
		...
     b6e: f1 ff                        	<unknown>
     b70: da 00                        	<unknown>
     b72: 00 00                        	<unknown>
     b74: 02 00                        	<unknown>
		...
     b7e: f1 ff                        	<unknown>
     b80: 76 00                        	<unknown>
     b82: 00 00                        	<unknown>
     b84: 03 00 00 00                  	lb	zero, 0(zero)
     b88: 00 00                        	<unknown>
     b8a: 00 00                        	<unknown>
     b8c: 00 00                        	<unknown>
     b8e: f1 ff                        	<unknown>
     b90: 12 01                        	<unknown>
     b92: 00 00                        	<unknown>
     b94: 04 00                        	<unknown>
		...
     b9e: f1 ff                        	<unknown>
     ba0: e1 00                        	<unknown>
     ba2: 00 00                        	<unknown>
     ba4: 05 00                        	<unknown>
		...
     bae: f1 ff                        	<unknown>
     bb0: e8 00                        	<unknown>
     bb2: 00 00                        	<unknown>
     bb4: 06 00                        	<unknown>
		...
     bbe: f1 ff                        	<unknown>
     bc0: ef 00 00 00                  	jal	0
     bc4: 07 00 00 00                  	<unknown>
     bc8: 00 00                        	<unknown>
     bca: 00 00                        	<unknown>
     bcc: 00 00                        	<unknown>
     bce: f1 ff                        	<unknown>
     bd0: 84 00                        	<unknown>
     bd2: 00 00                        	<unknown>
     bd4: 08 00                        	<unknown>
		...
     bde: f1 ff                        	<unknown>
     be0: 8b 00 00 00                  	<unknown>
     be4: 09 00                        	<unknown>
		...
     bee: f1 ff                        	<unknown>
     bf0: 3e 00                        	<unknown>
     bf2: 00 00                        	<unknown>
     bf4: 0a 00                        	<unknown>
		...
     bfe: f1 ff                        	<unknown>
     c00: 45 00                        	<unknown>
     c02: 00 00                        	<unknown>
     c04: 0b 00 00 00                  	vx_tmc	zero
     c08: 00 00                        	<unknown>
     c0a: 00 00                        	<unknown>
     c0c: 00 00                        	<unknown>
     c0e: f1 ff                        	<unknown>
     c10: 4c 00                        	<unknown>
     c12: 00 00                        	<unknown>
     c14: 0c 00                        	<unknown>
		...
     c1e: f1 ff                        	<unknown>
     c20: 53 00 00 00                  	<unknown>
     c24: 0d 00                        	<unknown>
		...
     c2e: f1 ff                        	<unknown>
     c30: 5a 00                        	<unknown>
     c32: 00 00                        	<unknown>
     c34: 0e 00                        	<unknown>
		...
     c3e: f1 ff                        	<unknown>
     c40: 61 00                        	<unknown>
     c42: 00 00                        	<unknown>
     c44: 0f 00 00 00                  	fence	unknown, unknown
     c48: 00 00                        	<unknown>
     c4a: 00 00                        	<unknown>
     c4c: 00 00                        	<unknown>
     c4e: f1 ff                        	<unknown>
     c50: 68 00                        	<unknown>
     c52: 00 00                        	<unknown>
     c54: 10 00                        	<unknown>
		...
     c5e: f1 ff                        	<unknown>
     c60: 6f 00 00 00                  	j	0
     c64: 11 00                        	<unknown>
		...
     c6e: f1 ff                        	<unknown>
     c70: a2 00                        	<unknown>
     c72: 00 00                        	<unknown>
     c74: 12 00                        	<unknown>
		...
     c7e: f1 ff                        	<unknown>
     c80: a9 00                        	<unknown>
     c82: 00 00                        	<unknown>
     c84: 13 00 00 00                  	nop
     c88: 00 00                        	<unknown>
     c8a: 00 00                        	<unknown>
     c8c: 00 00                        	<unknown>
     c8e: f1 ff                        	<unknown>
     c90: b0 00                        	<unknown>
     c92: 00 00                        	<unknown>
     c94: 14 00                        	<unknown>
		...
     c9e: f1 ff                        	<unknown>
     ca0: b7 00 00 00                  	lui	ra, 0
     ca4: 15 00                        	<unknown>
		...
     cae: f1 ff                        	<unknown>
     cb0: be 00                        	<unknown>
     cb2: 00 00                        	<unknown>
     cb4: 16 00                        	<unknown>
		...
     cbe: f1 ff                        	<unknown>
     cc0: c5 00                        	<unknown>
     cc2: 00 00                        	<unknown>
     cc4: 17 00 00 00                  	auipc	zero, 0
     cc8: 00 00                        	<unknown>
     cca: 00 00                        	<unknown>
     ccc: 00 00                        	<unknown>
     cce: f1 ff                        	<unknown>
     cd0: cc 00                        	<unknown>
     cd2: 00 00                        	<unknown>
     cd4: 18 00                        	<unknown>
		...
     cde: f1 ff                        	<unknown>
     ce0: d3 00 00 00                  	<unknown>
     ce4: 19 00                        	<unknown>
		...
     cee: f1 ff                        	<unknown>
     cf0: 92 00                        	<unknown>
     cf2: 00 00                        	<unknown>
     cf4: 1a 00                        	<unknown>
		...
     cfe: f1 ff                        	<unknown>
     d00: 9a 00                        	<unknown>
     d02: 00 00                        	<unknown>
     d04: 1b 00 00 00                  	<unknown>
     d08: 00 00                        	<unknown>
     d0a: 00 00                        	<unknown>
     d0c: 00 00                        	<unknown>
     d0e: f1 ff                        	<unknown>
     d10: f6 00                        	<unknown>
     d12: 00 00                        	<unknown>
     d14: 1c 00                        	<unknown>
		...
     d1e: f1 ff                        	<unknown>
     d20: fd 00                        	<unknown>
     d22: 00 00                        	<unknown>
     d24: 1d 00                        	<unknown>
		...
     d2e: f1 ff                        	<unknown>
     d30: 04 01                        	<unknown>
     d32: 00 00                        	<unknown>
     d34: 1e 00                        	<unknown>
		...
     d3e: f1 ff                        	<unknown>
     d40: 0b 01 00 00                  	<unknown>
     d44: 1f 00 00 00                  	<unknown>
     d48: 00 00                        	<unknown>
     d4a: 00 00                        	<unknown>
     d4c: 00 00                        	<unknown>
     d4e: f1 ff                        	<unknown>
     d50: 31 02                        	<unknown>
     d52: 00 00                        	<unknown>
     d54: f8 0a                        	<unknown>
     d56: 00 80                        	<unknown>
     d58: c8 00                        	<unknown>
     d5a: 00 00                        	<unknown>
     d5c: 02 00                        	<unknown>
     d5e: 02 00                        	<unknown>
     d60: 46 02                        	<unknown>
     d62: 00 00                        	<unknown>
     d64: c0 0b                        	<unknown>
     d66: 00 80                        	<unknown>
     d68: 30 00                        	<unknown>
     d6a: 00 00                        	<unknown>
     d6c: 02 00                        	<unknown>
     d6e: 02 00                        	<unknown>
     d70: 5b 02 00 00                  	<unknown>
     d74: f0 0b                        	<unknown>
     d76: 00 80                        	<unknown>
     d78: 2c 00                        	<unknown>
     d7a: 00 00                        	<unknown>
     d7c: 02 00                        	<unknown>
     d7e: 02 00                        	<unknown>
     d80: 6e 02                        	<unknown>
		...
     d8a: 00 00                        	<unknown>
     d8c: 04 00                        	<unknown>
     d8e: f1 ff                        	<unknown>
     d90: 19 01                        	<unknown>
		...
     d9e: f1 ff                        	<unknown>
     da0: 20 01                        	<unknown>
     da2: 00 00                        	<unknown>
     da4: 01 00                        	<unknown>
		...
     dae: f1 ff                        	<unknown>
     db0: 77 01 00 00                  	<unknown>
     db4: 02 00                        	<unknown>
		...
     dbe: f1 ff                        	<unknown>
     dc0: ce 01                        	<unknown>
     dc2: 00 00                        	<unknown>
     dc4: 03 00 00 00                  	lb	zero, 0(zero)
     dc8: 00 00                        	<unknown>
     dca: 00 00                        	<unknown>
     dcc: 00 00                        	<unknown>
     dce: f1 ff                        	<unknown>
     dd0: e5 01                        	<unknown>
     dd2: 00 00                        	<unknown>
     dd4: 04 00                        	<unknown>
		...
     dde: f1 ff                        	<unknown>
     de0: ec 01                        	<unknown>
     de2: 00 00                        	<unknown>
     de4: 05 00                        	<unknown>
		...
     dee: f1 ff                        	<unknown>
     df0: f3 01 00 00                  	<unknown>
     df4: 06 00                        	<unknown>
		...
     dfe: f1 ff                        	<unknown>
     e00: fa 01                        	<unknown>
     e02: 00 00                        	<unknown>
     e04: 07 00 00 00                  	<unknown>
     e08: 00 00                        	<unknown>
     e0a: 00 00                        	<unknown>
     e0c: 00 00                        	<unknown>
     e0e: f1 ff                        	<unknown>
     e10: 01 02                        	<unknown>
     e12: 00 00                        	<unknown>
     e14: 08 00                        	<unknown>
		...
     e1e: f1 ff                        	<unknown>
     e20: 08 02                        	<unknown>
     e22: 00 00                        	<unknown>
     e24: 09 00                        	<unknown>
		...
     e2e: f1 ff                        	<unknown>
     e30: 27 01 00 00                  	<unknown>
     e34: 0a 00                        	<unknown>
		...
     e3e: f1 ff                        	<unknown>
     e40: 2f 01 00 00                  	<unknown>
     e44: 0b 00 00 00                  	vx_tmc	zero
     e48: 00 00                        	<unknown>
     e4a: 00 00                        	<unknown>
     e4c: 00 00                        	<unknown>
     e4e: f1 ff                        	<unknown>
     e50: 37 01 00 00                  	lui	sp, 0
     e54: 0c 00                        	<unknown>
		...
     e5e: f1 ff                        	<unknown>
     e60: 3f 01 00 00                  	<unknown>
     e64: 0d 00                        	<unknown>
		...
     e6e: f1 ff                        	<unknown>
     e70: 47 01 00 00                  	<unknown>
     e74: 0e 00                        	<unknown>
		...
     e7e: f1 ff                        	<unknown>
     e80: 4f 01 00 00                  	<unknown>
     e84: 0f 00 00 00                  	fence	unknown, unknown
     e88: 00 00                        	<unknown>
     e8a: 00 00                        	<unknown>
     e8c: 00 00                        	<unknown>
     e8e: f1 ff                        	<unknown>
     e90: 57 01 00 00                  	<unknown>
     e94: 10 00                        	<unknown>
		...
     e9e: f1 ff                        	<unknown>
     ea0: 5f 01 00 00                  	<unknown>
     ea4: 11 00                        	<unknown>
		...
     eae: f1 ff                        	<unknown>
     eb0: 67 01 00 00                  	jalr	sp, zero
     eb4: 12 00                        	<unknown>
		...
     ebe: f1 ff                        	<unknown>
     ec0: 6f 01 00 00                  	jal	sp, 0
     ec4: 13 00 00 00                  	nop
     ec8: 00 00                        	<unknown>
     eca: 00 00                        	<unknown>
     ecc: 00 00                        	<unknown>
     ece: f1 ff                        	<unknown>
     ed0: 7e 01                        	<unknown>
     ed2: 00 00                        	<unknown>
     ed4: 14 00                        	<unknown>
		...
     ede: f1 ff                        	<unknown>
     ee0: 86 01                        	<unknown>
     ee2: 00 00                        	<unknown>
     ee4: 15 00                        	<unknown>
		...
     eee: f1 ff                        	<unknown>
     ef0: 8e 01                        	<unknown>
     ef2: 00 00                        	<unknown>
     ef4: 16 00                        	<unknown>
		...
     efe: f1 ff                        	<unknown>
     f00: 96 01                        	<unknown>
     f02: 00 00                        	<unknown>
     f04: 17 00 00 00                  	auipc	zero, 0
     f08: 00 00                        	<unknown>
     f0a: 00 00                        	<unknown>
     f0c: 00 00                        	<unknown>
     f0e: f1 ff                        	<unknown>
     f10: 9e 01                        	<unknown>
     f12: 00 00                        	<unknown>
     f14: 18 00                        	<unknown>
		...
     f1e: f1 ff                        	<unknown>
     f20: a6 01                        	<unknown>
     f22: 00 00                        	<unknown>
     f24: 19 00                        	<unknown>
		...
     f2e: f1 ff                        	<unknown>
     f30: ae 01                        	<unknown>
     f32: 00 00                        	<unknown>
     f34: 1a 00                        	<unknown>
		...
     f3e: f1 ff                        	<unknown>
     f40: b6 01                        	<unknown>
     f42: 00 00                        	<unknown>
     f44: 1b 00 00 00                  	<unknown>
     f48: 00 00                        	<unknown>
     f4a: 00 00                        	<unknown>
     f4c: 00 00                        	<unknown>
     f4e: f1 ff                        	<unknown>
     f50: be 01                        	<unknown>
     f52: 00 00                        	<unknown>
     f54: 1c 00                        	<unknown>
		...
     f5e: f1 ff                        	<unknown>
     f60: c6 01                        	<unknown>
     f62: 00 00                        	<unknown>
     f64: 1d 00                        	<unknown>
		...
     f6e: f1 ff                        	<unknown>
     f70: d5 01                        	<unknown>
     f72: 00 00                        	<unknown>
     f74: 1e 00                        	<unknown>
		...
     f7e: f1 ff                        	<unknown>
     f80: dd 01                        	<unknown>
     f82: 00 00                        	<unknown>
     f84: 1f 00 00 00                  	<unknown>
     f88: 00 00                        	<unknown>
     f8a: 00 00                        	<unknown>
     f8c: 00 00                        	<unknown>
     f8e: f1 ff                        	<unknown>
     f90: 0f 02 00 00                  	<unknown>
		...
     f9c: 00 00                        	<unknown>
     f9e: f1 ff                        	<unknown>
     fa0: 7d 00                        	<unknown>
     fa2: 00 00                        	<unknown>
     fa4: 01 00                        	<unknown>
		...
     fae: f1 ff                        	<unknown>
     fb0: da 00                        	<unknown>
     fb2: 00 00                        	<unknown>
     fb4: 02 00                        	<unknown>
		...
     fbe: f1 ff                        	<unknown>
     fc0: 76 00                        	<unknown>
     fc2: 00 00                        	<unknown>
     fc4: 03 00 00 00                  	lb	zero, 0(zero)
     fc8: 00 00                        	<unknown>
     fca: 00 00                        	<unknown>
     fcc: 00 00                        	<unknown>
     fce: f1 ff                        	<unknown>
     fd0: 12 01                        	<unknown>
     fd2: 00 00                        	<unknown>
     fd4: 04 00                        	<unknown>
		...
     fde: f1 ff                        	<unknown>
     fe0: e1 00                        	<unknown>
     fe2: 00 00                        	<unknown>
     fe4: 05 00                        	<unknown>
		...
     fee: f1 ff                        	<unknown>
     ff0: e8 00                        	<unknown>
     ff2: 00 00                        	<unknown>
     ff4: 06 00                        	<unknown>
		...
     ffe: f1 ff                        	<unknown>
    1000: ef 00 00 00                  	jal	0
    1004: 07 00 00 00                  	<unknown>
    1008: 00 00                        	<unknown>
    100a: 00 00                        	<unknown>
    100c: 00 00                        	<unknown>
    100e: f1 ff                        	<unknown>
    1010: 84 00                        	<unknown>
    1012: 00 00                        	<unknown>
    1014: 08 00                        	<unknown>
		...
    101e: f1 ff                        	<unknown>
    1020: 8b 00 00 00                  	<unknown>
    1024: 09 00                        	<unknown>
		...
    102e: f1 ff                        	<unknown>
    1030: 3e 00                        	<unknown>
    1032: 00 00                        	<unknown>
    1034: 0a 00                        	<unknown>
		...
    103e: f1 ff                        	<unknown>
    1040: 45 00                        	<unknown>
    1042: 00 00                        	<unknown>
    1044: 0b 00 00 00                  	vx_tmc	zero
    1048: 00 00                        	<unknown>
    104a: 00 00                        	<unknown>
    104c: 00 00                        	<unknown>
    104e: f1 ff                        	<unknown>
    1050: 4c 00                        	<unknown>
    1052: 00 00                        	<unknown>
    1054: 0c 00                        	<unknown>
		...
    105e: f1 ff                        	<unknown>
    1060: 53 00 00 00                  	<unknown>
    1064: 0d 00                        	<unknown>
		...
    106e: f1 ff                        	<unknown>
    1070: 5a 00                        	<unknown>
    1072: 00 00                        	<unknown>
    1074: 0e 00                        	<unknown>
		...
    107e: f1 ff                        	<unknown>
    1080: 61 00                        	<unknown>
    1082: 00 00                        	<unknown>
    1084: 0f 00 00 00                  	fence	unknown, unknown
    1088: 00 00                        	<unknown>
    108a: 00 00                        	<unknown>
    108c: 00 00                        	<unknown>
    108e: f1 ff                        	<unknown>
    1090: 68 00                        	<unknown>
    1092: 00 00                        	<unknown>
    1094: 10 00                        	<unknown>
		...
    109e: f1 ff                        	<unknown>
    10a0: 6f 00 00 00                  	j	0
    10a4: 11 00                        	<unknown>
		...
    10ae: f1 ff                        	<unknown>
    10b0: a2 00                        	<unknown>
    10b2: 00 00                        	<unknown>
    10b4: 12 00                        	<unknown>
		...
    10be: f1 ff                        	<unknown>
    10c0: a9 00                        	<unknown>
    10c2: 00 00                        	<unknown>
    10c4: 13 00 00 00                  	nop
    10c8: 00 00                        	<unknown>
    10ca: 00 00                        	<unknown>
    10cc: 00 00                        	<unknown>
    10ce: f1 ff                        	<unknown>
    10d0: b0 00                        	<unknown>
    10d2: 00 00                        	<unknown>
    10d4: 14 00                        	<unknown>
		...
    10de: f1 ff                        	<unknown>
    10e0: b7 00 00 00                  	lui	ra, 0
    10e4: 15 00                        	<unknown>
		...
    10ee: f1 ff                        	<unknown>
    10f0: be 00                        	<unknown>
    10f2: 00 00                        	<unknown>
    10f4: 16 00                        	<unknown>
		...
    10fe: f1 ff                        	<unknown>
    1100: c5 00                        	<unknown>
    1102: 00 00                        	<unknown>
    1104: 17 00 00 00                  	auipc	zero, 0
    1108: 00 00                        	<unknown>
    110a: 00 00                        	<unknown>
    110c: 00 00                        	<unknown>
    110e: f1 ff                        	<unknown>
    1110: cc 00                        	<unknown>
    1112: 00 00                        	<unknown>
    1114: 18 00                        	<unknown>
		...
    111e: f1 ff                        	<unknown>
    1120: d3 00 00 00                  	<unknown>
    1124: 19 00                        	<unknown>
		...
    112e: f1 ff                        	<unknown>
    1130: 92 00                        	<unknown>
    1132: 00 00                        	<unknown>
    1134: 1a 00                        	<unknown>
		...
    113e: f1 ff                        	<unknown>
    1140: 9a 00                        	<unknown>
    1142: 00 00                        	<unknown>
    1144: 1b 00 00 00                  	<unknown>
    1148: 00 00                        	<unknown>
    114a: 00 00                        	<unknown>
    114c: 00 00                        	<unknown>
    114e: f1 ff                        	<unknown>
    1150: f6 00                        	<unknown>
    1152: 00 00                        	<unknown>
    1154: 1c 00                        	<unknown>
		...
    115e: f1 ff                        	<unknown>
    1160: fd 00                        	<unknown>
    1162: 00 00                        	<unknown>
    1164: 1d 00                        	<unknown>
		...
    116e: f1 ff                        	<unknown>
    1170: 04 01                        	<unknown>
    1172: 00 00                        	<unknown>
    1174: 1e 00                        	<unknown>
		...
    117e: f1 ff                        	<unknown>
    1180: 0b 01 00 00                  	<unknown>
    1184: 1f 00 00 00                  	<unknown>
    1188: 00 00                        	<unknown>
    118a: 00 00                        	<unknown>
    118c: 00 00                        	<unknown>
    118e: f1 ff                        	<unknown>
    1190: 7a 02                        	<unknown>
		...
    119a: 00 00                        	<unknown>
    119c: 04 00                        	<unknown>
    119e: f1 ff                        	<unknown>
    11a0: 7c 02                        	<unknown>
		...
    11aa: 00 00                        	<unknown>
    11ac: 04 00                        	<unknown>
    11ae: f1 ff                        	<unknown>
    11b0: 78 02                        	<unknown>
		...
    11ba: 00 00                        	<unknown>
    11bc: 04 00                        	<unknown>
    11be: f1 ff                        	<unknown>
    11c0: 83 02 00 00                  	lb	t0, 0(zero)
		...
    11cc: 04 00                        	<unknown>
    11ce: f1 ff                        	<unknown>
    11d0: 8c 02                        	<unknown>
    11d2: 00 00                        	<unknown>
    11d4: a0 22                        	<unknown>
    11d6: 00 80                        	<unknown>
    11d8: 28 04                        	<unknown>
    11da: 00 00                        	<unknown>
    11dc: 01 00                        	<unknown>
    11de: 05 00                        	<unknown>
		...
    11ec: 04 00                        	<unknown>
    11ee: f1 ff                        	<unknown>
    11f0: 98 02                        	<unknown>
    11f2: 00 00                        	<unknown>
    11f4: 9c 22                        	<unknown>
    11f6: 00 80                        	<unknown>
    11f8: 00 00                        	<unknown>
    11fa: 00 00                        	<unknown>
    11fc: 00 00                        	<unknown>
    11fe: 04 00                        	<unknown>
    1200: a9 02                        	<unknown>
    1202: 00 00                        	<unknown>
    1204: 9c 22                        	<unknown>
    1206: 00 80                        	<unknown>
    1208: 00 00                        	<unknown>
    120a: 00 00                        	<unknown>
    120c: 00 00                        	<unknown>
    120e: 04 00                        	<unknown>
    1210: bc 02                        	<unknown>
    1212: 00 00                        	<unknown>
    1214: 9c 22                        	<unknown>
    1216: 00 80                        	<unknown>
    1218: 00 00                        	<unknown>
    121a: 00 00                        	<unknown>
    121c: 00 00                        	<unknown>
    121e: 04 00                        	<unknown>
    1220: cd 02                        	<unknown>
    1222: 00 00                        	<unknown>
    1224: 98 22                        	<unknown>
    1226: 00 80                        	<unknown>
    1228: 00 00                        	<unknown>
    122a: 00 00                        	<unknown>
    122c: 00 00                        	<unknown>
    122e: 04 00                        	<unknown>
    1230: e1 02                        	<unknown>
    1232: 00 00                        	<unknown>
    1234: 98 22                        	<unknown>
    1236: 00 80                        	<unknown>
    1238: 00 00                        	<unknown>
    123a: 00 00                        	<unknown>
    123c: 00 00                        	<unknown>
    123e: 04 00                        	<unknown>
    1240: f4 02                        	<unknown>
    1242: 00 00                        	<unknown>
    1244: 98 22                        	<unknown>
    1246: 00 80                        	<unknown>
    1248: 00 00                        	<unknown>
    124a: 00 00                        	<unknown>
    124c: 00 00                        	<unknown>
    124e: 04 00                        	<unknown>
    1250: 0a 03                        	<unknown>
    1252: 00 00                        	<unknown>
    1254: 1c 0c                        	<unknown>
    1256: 00 80                        	<unknown>
    1258: 58 01                        	<unknown>
    125a: 00 00                        	<unknown>
    125c: 12 00                        	<unknown>
    125e: 02 00                        	<unknown>
    1260: 19 03                        	<unknown>
    1262: 00 00                        	<unknown>
    1264: d8 26                        	<unknown>
    1266: 00 80                        	<unknown>
    1268: 80 00                        	<unknown>
    126a: 00 00                        	<unknown>
    126c: 11 00                        	<unknown>
    126e: 07 00 27 03                  	<unknown>
    1272: 00 00                        	<unknown>
    1274: c8 26                        	<unknown>
    1276: 00 80                        	<unknown>
    1278: 00 00                        	<unknown>
    127a: 00 00                        	<unknown>
    127c: 10 00                        	<unknown>
    127e: 06 00                        	<unknown>
    1280: 37 03 00 00                  	lui	t1, 0
    1284: a0 2a                        	<unknown>
    1286: 00 80                        	<unknown>
    1288: 00 00                        	<unknown>
    128a: 00 00                        	<unknown>
    128c: 10 00                        	<unknown>
    128e: f1 ff                        	<unknown>
    1290: 48 03                        	<unknown>
    1292: 00 00                        	<unknown>
    1294: c8 26                        	<unknown>
    1296: 00 80                        	<unknown>
    1298: 04 00                        	<unknown>
    129a: 00 00                        	<unknown>
    129c: 11 00                        	<unknown>
    129e: 06 00                        	<unknown>
    12a0: 5b 03 00 00                  	<unknown>
    12a4: 08 0a                        	<unknown>
    12a6: 00 80                        	<unknown>
    12a8: 94 00                        	<unknown>
    12aa: 00 00                        	<unknown>
    12ac: 12 00                        	<unknown>
    12ae: 02 00                        	<unknown>
    12b0: 6d 03                        	<unknown>
    12b2: 00 00                        	<unknown>
    12b4: 9c 0a                        	<unknown>
    12b6: 00 80                        	<unknown>
    12b8: 5c 00                        	<unknown>
    12ba: 00 00                        	<unknown>
    12bc: 12 00                        	<unknown>
    12be: 02 00                        	<unknown>
    12c0: 7f 03 00 00                  	<unknown>
    12c4: d8 09                        	<unknown>
    12c6: 00 80                        	<unknown>
    12c8: 00 00                        	<unknown>
    12ca: 00 00                        	<unknown>
    12cc: 12 00                        	<unknown>
    12ce: 02 00                        	<unknown>
    12d0: 89 03                        	<unknown>
    12d2: 00 00                        	<unknown>
    12d4: 48 11                        	<unknown>
    12d6: 00 80                        	<unknown>
    12d8: 24 01                        	<unknown>
    12da: 00 00                        	<unknown>
    12dc: 12 00                        	<unknown>
    12de: 02 00                        	<unknown>
    12e0: bf 03 00 00                  	<unknown>
    12e4: 00 00                        	<unknown>
    12e6: 00 80                        	<unknown>
    12e8: 50 00                        	<unknown>
    12ea: 00 00                        	<unknown>
    12ec: 12 00                        	<unknown>
    12ee: 01 00                        	<unknown>
    12f0: 9a 03                        	<unknown>
    12f2: 00 00                        	<unknown>
    12f4: ac 10                        	<unknown>
    12f6: 00 80                        	<unknown>
    12f8: 9c 00                        	<unknown>
    12fa: 00 00                        	<unknown>
    12fc: 12 00                        	<unknown>
    12fe: 02 00                        	<unknown>
    1300: ae 03                        	<unknown>
    1302: 00 00                        	<unknown>
    1304: 58 27                        	<unknown>
    1306: 00 80                        	<unknown>
    1308: 00 00                        	<unknown>
    130a: 00 00                        	<unknown>
    130c: 10 00                        	<unknown>
    130e: 07 00 ba 03                  	<unknown>
    1312: 00 00                        	<unknown>
    1314: d8 26                        	<unknown>
    1316: 00 80                        	<unknown>
    1318: 00 00                        	<unknown>
    131a: 00 00                        	<unknown>
    131c: 10 00                        	<unknown>
    131e: 07 00 c6 03                  	<unknown>
    1322: 00 00                        	<unknown>
    1324: d0 0f                        	<unknown>
    1326: 00 80                        	<unknown>
    1328: dc 00                        	<unknown>
    132a: 00 00                        	<unknown>
    132c: 12 00                        	<unknown>
    132e: 02 00                        	<unknown>
    1330: cd 03                        	<unknown>
    1332: 00 00                        	<unknown>
    1334: 90 09                        	<unknown>
    1336: 00 80                        	<unknown>
    1338: 34 00                        	<unknown>
    133a: 00 00                        	<unknown>
    133c: 12 00                        	<unknown>
    133e: 02 00                        	<unknown>
    1340: d2 03                        	<unknown>
    1342: 00 00                        	<unknown>
    1344: 88 0f                        	<unknown>
    1346: 00 80                        	<unknown>
    1348: 14 00                        	<unknown>
    134a: 00 00                        	<unknown>
    134c: 12 00                        	<unknown>
    134e: 02 00                        	<unknown>
    1350: d9 03                        	<unknown>
    1352: 00 00                        	<unknown>
    1354: a0 22                        	<unknown>
    1356: 00 80                        	<unknown>
    1358: 00 00                        	<unknown>
    135a: 00 00                        	<unknown>
    135c: 10 00                        	<unknown>
    135e: 05 00                        	<unknown>
    1360: e8 03                        	<unknown>
    1362: 00 00                        	<unknown>
    1364: d8 26                        	<unknown>
    1366: 00 80                        	<unknown>
    1368: 00 00                        	<unknown>
    136a: 00 00                        	<unknown>
    136c: 10 00                        	<unknown>
    136e: 06 00                        	<unknown>
    1370: a4 02                        	<unknown>
    1372: 00 00                        	<unknown>
    1374: 58 27                        	<unknown>
    1376: 00 80                        	<unknown>
    1378: 00 00                        	<unknown>
    137a: 00 00                        	<unknown>
    137c: 10 00                        	<unknown>
    137e: 07 00 fd 03                  	<unknown>
    1382: 00 00                        	<unknown>
    1384: 9c 0f                        	<unknown>
    1386: 00 80                        	<unknown>
    1388: 34 00                        	<unknown>
    138a: 00 00                        	<unknown>
    138c: 12 00                        	<unknown>
    138e: 02 00                        	<unknown>
    1390: ef 03 00 00                  	jal	t2, 0
    1394: 74 0d                        	<unknown>
    1396: 00 80                        	<unknown>
    1398: 14 02                        	<unknown>
    139a: 00 00                        	<unknown>
    139c: 12 00                        	<unknown>
    139e: 02 00                        	<unknown>
    13a0: fc 03                        	<unknown>
    13a2: 00 00                        	<unknown>
    13a4: c4 09                        	<unknown>
    13a6: 00 80                        	<unknown>
    13a8: 00 00                        	<unknown>
    13aa: 00 00                        	<unknown>
    13ac: 12 00                        	<unknown>
    13ae: 02 00                        	<unknown>
    13b0: 02 04                        	<unknown>
    13b2: 00 00                        	<unknown>
    13b4: 68 00                        	<unknown>
    13b6: 00 80                        	<unknown>
    13b8: 28 09                        	<unknown>
    13ba: 00 00                        	<unknown>
    13bc: 12 00                        	<unknown>
    13be: 02 00                        	<unknown>

Disassembly of section .strtab:

00000000 .strtab:
       0: 00 76                        	<unknown>
       2: 78 5f                        	<unknown>
       4: 73 74 61 72                  	csrrci	s0, 1830, 2
       8: 74 2e                        	<unknown>
       a: 53 2e 6f 00                  	<unknown>
       e: 52 45                        	<unknown>
      10: 54 55                        	<unknown>
      12: 52 4e                        	<unknown>
      14: 00 5f                        	<unknown>
      16: 5f 63 61 6c                  	<unknown>
      1a: 6c 5f                        	<unknown>
      1c: 61 74                        	<unknown>
      1e: 65 78                        	<unknown>
      20: 69 74                        	<unknown>
      22: 2e 63                        	<unknown>
      24: 00 72                        	<unknown>
      26: 65 67                        	<unknown>
      28: 69 73                        	<unknown>
      2a: 74 65                        	<unknown>
      2c: 72 5f                        	<unknown>
      2e: 66 69                        	<unknown>
      30: 6e 69                        	<unknown>
      32: 00 6b                        	<unknown>
      34: 65 72                        	<unknown>
      36: 6e 65                        	<unknown>
      38: 6c 2e                        	<unknown>
      3a: 63 70 70 00                  	bgeu	zero, t2, 0
      3e: 72 65                        	<unknown>
      40: 67 5f 61 30                  	<unknown>
      44: 00 72                        	<unknown>
      46: 65 67                        	<unknown>
      48: 5f 61 31 00                  	<unknown>
      4c: 72 65                        	<unknown>
      4e: 67 5f 61 32                  	<unknown>
      52: 00 72                        	<unknown>
      54: 65 67                        	<unknown>
      56: 5f 61 33 00                  	<unknown>
      5a: 72 65                        	<unknown>
      5c: 67 5f 61 34                  	<unknown>
      60: 00 72                        	<unknown>
      62: 65 67                        	<unknown>
      64: 5f 61 35 00                  	<unknown>
      68: 72 65                        	<unknown>
      6a: 67 5f 61 36                  	<unknown>
      6e: 00 72                        	<unknown>
      70: 65 67                        	<unknown>
      72: 5f 61 37 00                  	<unknown>
      76: 72 65                        	<unknown>
      78: 67 5f 67 70                  	<unknown>
      7c: 00 72                        	<unknown>
      7e: 65 67                        	<unknown>
      80: 5f 72 61 00                  	<unknown>
      84: 72 65                        	<unknown>
      86: 67 5f 73 30                  	<unknown>
      8a: 00 72                        	<unknown>
      8c: 65 67                        	<unknown>
      8e: 5f 73 31 00                  	<unknown>
      92: 72 65                        	<unknown>
      94: 67 5f 73 31                  	<unknown>
      98: 30 00                        	<unknown>
      9a: 72 65                        	<unknown>
      9c: 67 5f 73 31                  	<unknown>
      a0: 31 00                        	<unknown>
      a2: 72 65                        	<unknown>
      a4: 67 5f 73 32                  	<unknown>
      a8: 00 72                        	<unknown>
      aa: 65 67                        	<unknown>
      ac: 5f 73 33 00                  	<unknown>
      b0: 72 65                        	<unknown>
      b2: 67 5f 73 34                  	<unknown>
      b6: 00 72                        	<unknown>
      b8: 65 67                        	<unknown>
      ba: 5f 73 35 00                  	<unknown>
      be: 72 65                        	<unknown>
      c0: 67 5f 73 36                  	<unknown>
      c4: 00 72                        	<unknown>
      c6: 65 67                        	<unknown>
      c8: 5f 73 37 00                  	<unknown>
      cc: 72 65                        	<unknown>
      ce: 67 5f 73 38                  	<unknown>
      d2: 00 72                        	<unknown>
      d4: 65 67                        	<unknown>
      d6: 5f 73 39 00                  	<unknown>
      da: 72 65                        	<unknown>
      dc: 67 5f 73 70                  	<unknown>
      e0: 00 72                        	<unknown>
      e2: 65 67                        	<unknown>
      e4: 5f 74 30 00                  	<unknown>
      e8: 72 65                        	<unknown>
      ea: 67 5f 74 31                  	<unknown>
      ee: 00 72                        	<unknown>
      f0: 65 67                        	<unknown>
      f2: 5f 74 32 00                  	<unknown>
      f6: 72 65                        	<unknown>
      f8: 67 5f 74 33                  	<unknown>
      fc: 00 72                        	<unknown>
      fe: 65 67                        	<unknown>
     100: 5f 74 34 00                  	<unknown>
     104: 72 65                        	<unknown>
     106: 67 5f 74 35                  	<unknown>
     10a: 00 72                        	<unknown>
     10c: 65 67                        	<unknown>
     10e: 5f 74 36 00                  	<unknown>
     112: 72 65                        	<unknown>
     114: 67 5f 74 70                  	<unknown>
     118: 00 72                        	<unknown>
     11a: 65 67                        	<unknown>
     11c: 5f 78 30 00                  	<unknown>
     120: 72 65                        	<unknown>
     122: 67 5f 78 31                  	<unknown>
     126: 00 72                        	<unknown>
     128: 65 67                        	<unknown>
     12a: 5f 78 31 30                  	<unknown>
     12e: 00 72                        	<unknown>
     130: 65 67                        	<unknown>
     132: 5f 78 31 31                  	<unknown>
     136: 00 72                        	<unknown>
     138: 65 67                        	<unknown>
     13a: 5f 78 31 32                  	<unknown>
     13e: 00 72                        	<unknown>
     140: 65 67                        	<unknown>
     142: 5f 78 31 33                  	<unknown>
     146: 00 72                        	<unknown>
     148: 65 67                        	<unknown>
     14a: 5f 78 31 34                  	<unknown>
     14e: 00 72                        	<unknown>
     150: 65 67                        	<unknown>
     152: 5f 78 31 35                  	<unknown>
     156: 00 72                        	<unknown>
     158: 65 67                        	<unknown>
     15a: 5f 78 31 36                  	<unknown>
     15e: 00 72                        	<unknown>
     160: 65 67                        	<unknown>
     162: 5f 78 31 37                  	<unknown>
     166: 00 72                        	<unknown>
     168: 65 67                        	<unknown>
     16a: 5f 78 31 38                  	<unknown>
     16e: 00 72                        	<unknown>
     170: 65 67                        	<unknown>
     172: 5f 78 31 39                  	<unknown>
     176: 00 72                        	<unknown>
     178: 65 67                        	<unknown>
     17a: 5f 78 32 00                  	<unknown>
     17e: 72 65                        	<unknown>
     180: 67 5f 78 32                  	<unknown>
     184: 30 00                        	<unknown>
     186: 72 65                        	<unknown>
     188: 67 5f 78 32                  	<unknown>
     18c: 31 00                        	<unknown>
     18e: 72 65                        	<unknown>
     190: 67 5f 78 32                  	<unknown>
     194: 32 00                        	<unknown>
     196: 72 65                        	<unknown>
     198: 67 5f 78 32                  	<unknown>
     19c: 33 00 72 65                  	<unknown>
     1a0: 67 5f 78 32                  	<unknown>
     1a4: 34 00                        	<unknown>
     1a6: 72 65                        	<unknown>
     1a8: 67 5f 78 32                  	<unknown>
     1ac: 35 00                        	<unknown>
     1ae: 72 65                        	<unknown>
     1b0: 67 5f 78 32                  	<unknown>
     1b4: 36 00                        	<unknown>
     1b6: 72 65                        	<unknown>
     1b8: 67 5f 78 32                  	<unknown>
     1bc: 37 00 72 65                  	lui	zero, 415520
     1c0: 67 5f 78 32                  	<unknown>
     1c4: 38 00                        	<unknown>
     1c6: 72 65                        	<unknown>
     1c8: 67 5f 78 32                  	<unknown>
     1cc: 39 00                        	<unknown>
     1ce: 72 65                        	<unknown>
     1d0: 67 5f 78 33                  	<unknown>
     1d4: 00 72                        	<unknown>
     1d6: 65 67                        	<unknown>
     1d8: 5f 78 33 30                  	<unknown>
     1dc: 00 72                        	<unknown>
     1de: 65 67                        	<unknown>
     1e0: 5f 78 33 31                  	<unknown>
     1e4: 00 72                        	<unknown>
     1e6: 65 67                        	<unknown>
     1e8: 5f 78 34 00                  	<unknown>
     1ec: 72 65                        	<unknown>
     1ee: 67 5f 78 35                  	<unknown>
     1f2: 00 72                        	<unknown>
     1f4: 65 67                        	<unknown>
     1f6: 5f 78 36 00                  	<unknown>
     1fa: 72 65                        	<unknown>
     1fc: 67 5f 78 37                  	<unknown>
     200: 00 72                        	<unknown>
     202: 65 67                        	<unknown>
     204: 5f 78 38 00                  	<unknown>
     208: 72 65                        	<unknown>
     20a: 67 5f 78 39                  	<unknown>
     20e: 00 72                        	<unknown>
     210: 65 67                        	<unknown>
     212: 5f 7a 65 72                  	<unknown>
     216: 6f 00 76 78                  	j	397190
     21a: 5f 73 79 73                  	<unknown>
     21e: 63 61 6c 6c                  	bltu	s8, t1, 1730
     222: 73 2e 63 00                  	csrrs	t3, 6, t1
     226: 76 78                        	<unknown>
     228: 5f 73 70 61                  	<unknown>
     22c: 77 6e 2e 63                  	<unknown>
     230: 00 73                        	<unknown>
     232: 70 61                        	<unknown>
     234: 77 6e 5f 74                  	<unknown>
     238: 61 73                        	<unknown>
     23a: 6b 73 5f 61                  	<unknown>
     23e: 6c 6c                        	<unknown>
     240: 5f 73 74 75                  	<unknown>
     244: 62 00                        	<unknown>
     246: 73 70 61 77                  	csrci	1910, 2
     24a: 6e 5f                        	<unknown>
     24c: 74 61                        	<unknown>
     24e: 73 6b 73 5f                  	csrrsi	s6, 1527, 6
     252: 72 65                        	<unknown>
     254: 6d 5f                        	<unknown>
     256: 73 74 75 62                  	csrrci	s0, 1575, 10
     25a: 00 73                        	<unknown>
     25c: 70 61                        	<unknown>
     25e: 77 6e 5f 74                  	<unknown>
     262: 61 73                        	<unknown>
     264: 6b 73 5f 61                  	<unknown>
     268: 6c 6c                        	<unknown>
     26a: 5f 63 62 00                  	<unknown>
     26e: 76 78                        	<unknown>
     270: 5f 70 65 72                  	<unknown>
     274: 66 2e                        	<unknown>
     276: 63 00 5f 5f                  	beq	t5, s5, 1504
     27a: 61 74                        	<unknown>
     27c: 65 78                        	<unknown>
     27e: 69 74                        	<unknown>
     280: 2e 63                        	<unknown>
     282: 00 69                        	<unknown>
     284: 6d 70                        	<unknown>
     286: 75 72                        	<unknown>
     288: 65 2e                        	<unknown>
     28a: 63 00 69 6d                  	beq	s2, s6, 1728
     28e: 70 75                        	<unknown>
     290: 72 65                        	<unknown>
     292: 5f 64 61 74                  	<unknown>
     296: 61 00                        	<unknown>
     298: 5f 5f 66 69                  	<unknown>
     29c: 6e 69                        	<unknown>
     29e: 5f 61 72 72                  	<unknown>
     2a2: 61 79                        	<unknown>
     2a4: 5f 65 6e 64                  	<unknown>
     2a8: 00 5f                        	<unknown>
     2aa: 5f 66 69 6e                  	<unknown>
     2ae: 69 5f                        	<unknown>
     2b0: 61 72                        	<unknown>
     2b2: 72 61                        	<unknown>
     2b4: 79 5f                        	<unknown>
     2b6: 73 74 61 72                  	csrrci	s0, 1830, 2
     2ba: 74 00                        	<unknown>
     2bc: 5f 5f 69 6e                  	<unknown>
     2c0: 69 74                        	<unknown>
     2c2: 5f 61 72 72                  	<unknown>
     2c6: 61 79                        	<unknown>
     2c8: 5f 65 6e 64                  	<unknown>
     2cc: 00 5f                        	<unknown>
     2ce: 5f 70 72 65                  	<unknown>
     2d2: 69 6e                        	<unknown>
     2d4: 69 74                        	<unknown>
     2d6: 5f 61 72 72                  	<unknown>
     2da: 61 79                        	<unknown>
     2dc: 5f 65 6e 64                  	<unknown>
     2e0: 00 5f                        	<unknown>
     2e2: 5f 69 6e 69                  	<unknown>
     2e6: 74 5f                        	<unknown>
     2e8: 61 72                        	<unknown>
     2ea: 72 61                        	<unknown>
     2ec: 79 5f                        	<unknown>
     2ee: 73 74 61 72                  	csrrci	s0, 1830, 2
     2f2: 74 00                        	<unknown>
     2f4: 5f 5f 70 72                  	<unknown>
     2f8: 65 69                        	<unknown>
     2fa: 6e 69                        	<unknown>
     2fc: 74 5f                        	<unknown>
     2fe: 61 72                        	<unknown>
     300: 72 61                        	<unknown>
     302: 79 5f                        	<unknown>
     304: 73 74 61 72                  	csrrci	s0, 1830, 2
     308: 74 00                        	<unknown>
     30a: 76 78                        	<unknown>
     30c: 5f 73 70 61                  	<unknown>
     310: 77 6e 5f 74                  	<unknown>
     314: 61 73                        	<unknown>
     316: 6b 73 00 67                  	<unknown>
     31a: 5f 77 73 70                  	<unknown>
     31e: 61 77                        	<unknown>
     320: 6e 5f                        	<unknown>
     322: 61 72                        	<unknown>
     324: 67 73 00 5f                  	<unknown>
     328: 5f 53 44 41                  	<unknown>
     32c: 54 41                        	<unknown>
     32e: 5f 42 45 47                  	<unknown>
     332: 49 4e                        	<unknown>
     334: 5f 5f 00 5f                  	<unknown>
     338: 5f 67 6c 6f                  	<unknown>
     33c: 62 61                        	<unknown>
     33e: 6c 5f                        	<unknown>
     340: 70 6f                        	<unknown>
     342: 69 6e                        	<unknown>
     344: 74 65                        	<unknown>
     346: 72 00                        	<unknown>
     348: 5f 67 6c 6f                  	<unknown>
     34c: 62 61                        	<unknown>
     34e: 6c 5f                        	<unknown>
     350: 69 6d                        	<unknown>
     352: 70 75                        	<unknown>
     354: 72 65                        	<unknown>
     356: 5f 70 74 72                  	<unknown>
     35a: 00 5f                        	<unknown>
     35c: 5f 6c 69 62                  	<unknown>
     360: 63 5f 69 6e                  	bge	s2, t1, 1790
     364: 69 74                        	<unknown>
     366: 5f 61 72 72                  	<unknown>
     36a: 61 79                        	<unknown>
     36c: 00 5f                        	<unknown>
     36e: 5f 6c 69 62                  	<unknown>
     372: 63 5f 66 69                  	bge	a2, s6, 1694
     376: 6e 69                        	<unknown>
     378: 5f 61 72 72                  	<unknown>
     37c: 61 79                        	<unknown>
     37e: 00 76                        	<unknown>
     380: 78 5f                        	<unknown>
     382: 73 65 74 5f                  	csrrsi	a0, 1527, 8
     386: 73 70 00 5f                  	csrci	1520, 0
     38a: 5f 63 61 6c                  	<unknown>
     38e: 6c 5f                        	<unknown>
     390: 65 78                        	<unknown>
     392: 69 74                        	<unknown>
     394: 70 72                        	<unknown>
     396: 6f 63 73 00                  	jal	t1, 223238
     39a: 5f 5f 72 65                  	<unknown>
     39e: 67 69 73 74                  	<unknown>
     3a2: 65 72                        	<unknown>
     3a4: 5f 65 78 69                  	<unknown>
     3a8: 74 70                        	<unknown>
     3aa: 72 6f                        	<unknown>
     3ac: 63 00 5f 5f                  	beq	t5, s5, 1504
     3b0: 42 53                        	<unknown>
     3b2: 53 5f 45 4e                  	<unknown>
     3b6: 44 5f                        	<unknown>
     3b8: 5f 00 5f 5f                  	<unknown>
     3bc: 62 73                        	<unknown>
     3be: 73 5f 73 74                  	csrrwi	t5, 1863, 6
     3c2: 61 72                        	<unknown>
     3c4: 74 00                        	<unknown>
     3c6: 6d 65                        	<unknown>
     3c8: 6d 73                        	<unknown>
     3ca: 65 74                        	<unknown>
     3cc: 00 6d                        	<unknown>
     3ce: 61 69                        	<unknown>
     3d0: 6e 00                        	<unknown>
     3d2: 61 74                        	<unknown>
     3d4: 65 78                        	<unknown>
     3d6: 69 74                        	<unknown>
     3d8: 00 5f                        	<unknown>
     3da: 5f 44 41 54                  	<unknown>
     3de: 41 5f                        	<unknown>
     3e0: 42 45                        	<unknown>
     3e2: 47 49 4e 5f                  	<unknown>
     3e6: 5f 00 5f 65                  	<unknown>
     3ea: 64 61                        	<unknown>
     3ec: 74 61                        	<unknown>
     3ee: 00 76                        	<unknown>
     3f0: 78 5f                        	<unknown>
     3f2: 70 65                        	<unknown>
     3f4: 72 66                        	<unknown>
     3f6: 5f 64 75 6d                  	<unknown>
     3fa: 70 00                        	<unknown>
     3fc: 5f 65 78 69                  	<unknown>
     400: 74 00                        	<unknown>
     402: 5f 5a 31 35                  	<unknown>
     406: 73 68 61 64                  	csrrsi	a6, 1606, 2
     40a: 65 72                        	<unknown>
     40c: 5f 66 75 6e                  	<unknown>
     410: 63 74 69 6f                  	bgeu	s2, s6, 1768
     414: 6e 69                        	<unknown>
     416: 50 31                        	<unknown>
     418: 32 6b                        	<unknown>
     41a: 65 72                        	<unknown>
     41c: 6e 65                        	<unknown>
     41e: 6c 5f                        	<unknown>
     420: 61 72                        	<unknown>
     422: 67 5f 74 00                  	<unknown>

Disassembly of section .shstrtab:

00000000 .shstrtab:
       0: 00 2e                        	<unknown>
       2: 73 79 6d 74                  	csrrci	s2, 1862, 26
       6: 61 62                        	<unknown>
       8: 00 2e                        	<unknown>
       a: 73 74 72 74                  	csrrci	s0, 1863, 4
       e: 61 62                        	<unknown>
      10: 00 2e                        	<unknown>
      12: 73 68 73 74                  	csrrsi	a6, 1863, 6
      16: 72 74                        	<unknown>
      18: 61 62                        	<unknown>
      1a: 00 2e                        	<unknown>
      1c: 69 6e                        	<unknown>
      1e: 69 74                        	<unknown>
      20: 00 2e                        	<unknown>
      22: 74 65                        	<unknown>
      24: 78 74                        	<unknown>
      26: 00 2e                        	<unknown>
      28: 65 68                        	<unknown>
      2a: 5f 66 72 61                  	<unknown>
      2e: 6d 65                        	<unknown>
      30: 00 2e                        	<unknown>
      32: 69 6e                        	<unknown>
      34: 69 74                        	<unknown>
      36: 5f 61 72 72                  	<unknown>
      3a: 61 79                        	<unknown>
      3c: 00 2e                        	<unknown>
      3e: 64 61                        	<unknown>
      40: 74 61                        	<unknown>
      42: 00 2e                        	<unknown>
      44: 73 64 61 74                  	csrrsi	s0, 1862, 2
      48: 61 00                        	<unknown>
      4a: 2e 62                        	<unknown>
      4c: 73 73 00 2e                  	csrrci	t1, 736, 0
      50: 63 6f 6d 6d                  	bltu	s10, s6, 1758
      54: 65 6e                        	<unknown>
      56: 74 00                        	<unknown>
      58: 2e 72                        	<unknown>
      5a: 69 73                        	<unknown>
      5c: 63 76 2e 61                  	bgeu	t3, s2, 1548
      60: 74 74                        	<unknown>
      62: 72 69                        	<unknown>
      64: 62 75                        	<unknown>
      66: 74 65                        	<unknown>
      68: 73                           	<unknown>
      69: 00                           	<unknown>
