
kernel.elf:	file format ELF32-riscv


Disassembly of section .init:

80000000 _start:
80000000: 97 35 00 00                  	auipc	a1, 3
80000004: 93 85 85 74                  	addi	a1, a1, 1864
80000008: 73 25 10 fc                  	csrr	a0, 4033
8000000c: 0b 10 b5 00                  	vx_wspawn	a0, a1
80000010: ef 30 80 73                  	jal	14136
80000014: 13 05 10 00                  	addi	a0, zero, 1
80000018: 0b 00 05 00                  	vx_tmc	a0
8000001c: 17 75 00 00                  	auipc	a0, 7
80000020: 13 05 45 9b                  	addi	a0, a0, -1612
80000024: 17 76 00 00                  	auipc	a2, 7
80000028: 13 06 46 a6                  	addi	a2, a2, -1436
8000002c: 33 06 a6 40                  	sub	a2, a2, a0
80000030: 93 05 00 00                  	mv	a1, zero
80000034: ef 30 10 54                  	jal	15680
80000038: 17 35 00 00                  	auipc	a0, 3
8000003c: 13 05 05 7f                  	addi	a0, a0, 2032
80000040: ef 30 d0 4e                  	jal	15596
80000044: ef 30 00 75                  	jal	14160
80000048: ef 20 80 03                  	jal	8248
8000004c: 6f 30 50 4f                  	j	15604

Disassembly of section .text:

80000050 register_fini:
80000050: 93 07 00 00                  	mv	a5, zero
80000054: 63 88 07 00                  	beqz	a5, 16
80000058: 37 45 00 80                  	lui	a0, 524292
8000005c: 13 05 85 82                  	addi	a0, a0, -2008
80000060: 6f 30 d0 4c                  	j	15564
80000064: 67 80 00 00                  	ret

80000068 _Z18shader_function_hwiP12kernel_arg_t:
80000068: 13 01 01 f3                  	addi	sp, sp, -208
8000006c: 23 26 11 0c                  	sw	ra, 204(sp)
80000070: 23 24 81 0c                  	sw	s0, 200(sp)
80000074: 23 22 91 0c                  	sw	s1, 196(sp)
80000078: 23 20 21 0d                  	sw	s2, 192(sp)
8000007c: 23 2e 31 0b                  	sw	s3, 188(sp)
80000080: 23 2c 41 0b                  	sw	s4, 184(sp)
80000084: 23 2a 51 0b                  	sw	s5, 180(sp)
80000088: 23 28 61 0b                  	sw	s6, 176(sp)
8000008c: 23 26 71 0b                  	sw	s7, 172(sp)
80000090: 23 24 81 0b                  	sw	s8, 168(sp)
80000094: 23 22 91 0b                  	sw	s9, 164(sp)
80000098: 23 20 a1 0b                  	sw	s10, 160(sp)
8000009c: 23 2e b1 09                  	sw	s11, 156(sp)
800000a0: 27 2c 81 08                  	<unknown>
800000a4: 27 2a 91 08                  	<unknown>
800000a8: 27 28 21 09                  	<unknown>
800000ac: 13 89 05 00                  	mv	s2, a1
800000b0: 03 aa 45 02                  	lw	s4, 36(a1)
800000b4: 23 20 01 08                  	sw	zero, 128(sp)
800000b8: 37 05 00 01                  	lui	a0, 4096
800000bc: 23 28 a1 06                  	sw	a0, 112(sp)
800000c0: 23 20 a1 06                  	sw	a0, 96(sp)
800000c4: 23 28 a1 04                  	sw	a0, 80(sp)
800000c8: 23 20 a1 04                  	sw	a0, 64(sp)
800000cc: 23 22 01 08                  	sw	zero, 132(sp)
800000d0: 23 2a a1 06                  	sw	a0, 116(sp)
800000d4: 23 22 a1 06                  	sw	a0, 100(sp)
800000d8: 23 2a a1 04                  	sw	a0, 84(sp)
800000dc: 23 22 a1 04                  	sw	a0, 68(sp)
800000e0: 23 24 01 08                  	sw	zero, 136(sp)
800000e4: 23 2c a1 06                  	sw	a0, 120(sp)
800000e8: 23 24 a1 06                  	sw	a0, 104(sp)
800000ec: 23 2c a1 04                  	sw	a0, 88(sp)
800000f0: 23 24 a1 04                  	sw	a0, 72(sp)
800000f4: 23 26 01 08                  	sw	zero, 140(sp)
800000f8: 23 2e a1 06                  	sw	a0, 124(sp)
800000fc: 23 26 a1 06                  	sw	a0, 108(sp)
80000100: 23 2e a1 04                  	sw	a0, 92(sp)
80000104: 23 26 a1 04                  	sw	a0, 76(sp)
80000108: 8b 05 00 02                  	vx_rast	
8000010c: 23 26 b1 00                  	sw	a1, 12(sp)
80000110: 13 f5 15 00                  	andi	a0, a1, 1
80000114: 13 36 15 00                  	seqz	a2, a0
80000118: 0b 20 06 00                  	vx_split	a2
8000011c: 63 14 05 00                  	bnez	a0, 8
80000120: 6f 10 80 03                  	j	4152
80000124: 37 45 00 00                  	lui	a0, 4
80000128: 13 0b f5 ff                  	addi	s6, a0, -1
8000012c: 73 25 40 cc                  	csrr	a0, tmask
80000130: 23 20 a1 00                  	sw	a0, 0(sp)
80000134: 93 0b 80 07                  	addi	s7, zero, 120
80000138: 37 75 00 80                  	lui	a0, 524295
8000013c: 13 05 c5 9a                  	addi	a0, a0, -1620
80000140: 07 24 05 00                  	<unknown>
80000144: 37 75 00 80                  	lui	a0, 524295
80000148: 13 05 05 9b                  	addi	a0, a0, -1616
8000014c: 87 24 05 00                  	<unknown>
80000150: 37 75 00 80                  	lui	a0, 524295
80000154: 13 05 45 9b                  	addi	a0, a0, -1612
80000158: 07 29 05 00                  	<unknown>
8000015c: 13 0c f0 0f                  	addi	s8, zero, 255
80000160: 37 05 01 00                  	lui	a0, 16
80000164: 13 05 25 00                  	addi	a0, a0, 2
80000168: 23 22 a1 00                  	sw	a0, 4(sp)
8000016c: 6f 00 80 03                  	j	56
80000170: 13 05 04 08                  	addi	a0, s0, 128
80000174: 93 85 0a 00                  	mv	a1, s5
80000178: 13 86 04 00                  	mv	a2, s1
8000017c: 93 86 09 00                  	mv	a3, s3
80000180: ef 20 00 13                  	jal	8496
80000184: 0b 30 00 00                  	vx_join	
80000188: 0b 30 00 00                  	vx_join	
8000018c: 8b 05 00 02                  	vx_rast	
80000190: 23 26 b1 00                  	sw	a1, 12(sp)
80000194: 13 f5 15 00                  	andi	a0, a1, 1
80000198: 0b 00 15 00                  	vx_pred	a0
8000019c: 63 14 05 00                  	bnez	a0, 8
800001a0: 6f 00 10 7b                  	j	4016
800001a4: 73 25 10 7c                  	csrr	a0, 1985
800001a8: 73 26 50 7c                  	csrr	a2, 1989
800001ac: 53 70 05 d0                  	<unknown>
800001b0: 73 25 90 7c                  	csrr	a0, 1993
800001b4: 53 70 80 10                  	<unknown>
800001b8: d3 70 06 d0                  	<unknown>
800001bc: d3 f0 80 10                  	<unknown>
800001c0: 53 71 05 d0                  	<unknown>
800001c4: 53 71 81 10                  	<unknown>
800001c8: d3 71 10 00                  	<unknown>
800001cc: 53 f1 21 00                  	<unknown>
800001d0: 53 f1 24 18                  	<unknown>
800001d4: 53 70 20 10                  	<unknown>
800001d8: 53 70 20 11                  	<unknown>
800001dc: 53 15 00 c0                  	<unknown>
800001e0: 23 28 a1 02                  	sw	a0, 48(sp)
800001e4: 53 f0 20 10                  	<unknown>
800001e8: 53 70 20 11                  	<unknown>
800001ec: 53 13 00 c0                  	<unknown>
800001f0: 23 20 61 02                  	sw	t1, 32(sp)
800001f4: 73 26 20 7c                  	csrr	a2, 1986
800001f8: f3 26 60 7c                  	csrr	a3, 1990
800001fc: 53 70 06 d0                  	<unknown>
80000200: 73 26 a0 7c                  	csrr	a2, 1994
80000204: 53 70 80 10                  	<unknown>
80000208: d3 f0 06 d0                  	<unknown>
8000020c: d3 f0 80 10                  	<unknown>
80000210: 53 71 06 d0                  	<unknown>
80000214: 53 71 81 10                  	<unknown>
80000218: d3 71 10 00                  	<unknown>
8000021c: 53 f1 21 00                  	<unknown>
80000220: 53 f1 24 18                  	<unknown>
80000224: 53 70 20 10                  	<unknown>
80000228: 53 70 20 11                  	<unknown>
8000022c: d3 1e 00 c0                  	<unknown>
80000230: 23 2a d1 03                  	sw	t4, 52(sp)
80000234: 53 f0 20 10                  	<unknown>
80000238: 53 70 20 11                  	<unknown>
8000023c: d3 13 00 c0                  	<unknown>
80000240: 23 22 71 02                  	sw	t2, 36(sp)
80000244: 73 26 30 7c                  	csrr	a2, 1987
80000248: f3 26 70 7c                  	csrr	a3, 1991
8000024c: 53 70 06 d0                  	<unknown>
80000250: 73 26 b0 7c                  	csrr	a2, 1995
80000254: 53 70 80 10                  	<unknown>
80000258: d3 f0 06 d0                  	<unknown>
8000025c: d3 f0 80 10                  	<unknown>
80000260: 53 71 06 d0                  	<unknown>
80000264: 53 71 81 10                  	<unknown>
80000268: d3 71 10 00                  	<unknown>
8000026c: 53 f1 21 00                  	<unknown>
80000270: 53 f1 24 18                  	<unknown>
80000274: 53 70 20 10                  	<unknown>
80000278: 53 70 20 11                  	<unknown>
8000027c: 53 1e 00 c0                  	<unknown>
80000280: 23 2c c1 03                  	sw	t3, 56(sp)
80000284: 53 f0 20 10                  	<unknown>
80000288: 53 70 20 11                  	<unknown>
8000028c: d3 12 00 c0                  	<unknown>
80000290: 23 24 51 02                  	sw	t0, 40(sp)
80000294: 73 26 40 7c                  	csrr	a2, 1988
80000298: 93 d5 15 00                  	srli	a1, a1, 1
8000029c: f3 26 80 7c                  	csrr	a3, 1992
800002a0: 53 70 06 d0                  	<unknown>
800002a4: 73 26 c0 7c                  	csrr	a2, 1996
800002a8: 53 70 80 10                  	<unknown>
800002ac: d3 f0 06 d0                  	<unknown>
800002b0: d3 f0 80 10                  	<unknown>
800002b4: 53 71 06 d0                  	<unknown>
800002b8: 53 71 81 10                  	<unknown>
800002bc: d3 71 10 00                  	<unknown>
800002c0: 53 f1 21 00                  	<unknown>
800002c4: 53 f1 24 18                  	<unknown>
800002c8: 53 70 20 10                  	<unknown>
800002cc: 53 70 20 11                  	<unknown>
800002d0: d3 18 00 c0                  	<unknown>
800002d4: 23 2e 11 03                  	sw	a7, 60(sp)
800002d8: 53 f0 20 10                  	<unknown>
800002dc: 53 70 20 11                  	<unknown>
800002e0: 53 18 00 c0                  	<unknown>
800002e4: 23 26 01 03                  	sw	a6, 44(sp)
800002e8: 03 47 e9 02                  	lbu	a4, 46(s2)
800002ec: 83 46 89 02                  	lbu	a3, 40(s2)
800002f0: b3 85 75 03                  	<unknown>
800002f4: 33 06 ba 00                  	add	a2, s4, a1
800002f8: 93 05 46 02                  	addi	a1, a2, 36
800002fc: 63 04 07 7a                  	beqz	a4, 1960
80000300: 63 80 06 0e                  	beqz	a3, 224
80000304: 83 a5 05 00                  	lw	a1, 0(a1)
80000308: b3 06 b5 02                  	<unknown>
8000030c: 33 17 b5 02                  	<unknown>
80000310: 13 17 87 00                  	slli	a4, a4, 8
80000314: 83 27 c6 02                  	lw	a5, 44(a2)
80000318: 03 24 86 02                  	lw	s0, 40(a2)
8000031c: 93 d6 86 01                  	srli	a3, a3, 24
80000320: b3 e6 e6 00                  	or	a3, a3, a4
80000324: b3 86 d7 00                  	add	a3, a5, a3
80000328: 33 07 83 02                  	<unknown>
8000032c: b3 14 83 02                  	<unknown>
80000330: 93 94 84 00                  	slli	s1, s1, 8
80000334: 13 57 87 01                  	srli	a4, a4, 24
80000338: 33 67 97 00                  	or	a4, a4, s1
8000033c: b3 86 e6 00                  	add	a3, a3, a4
80000340: 23 20 d1 08                  	sw	a3, 128(sp)
80000344: b3 86 be 02                  	<unknown>
80000348: 33 97 be 02                  	<unknown>
8000034c: 13 17 87 00                  	slli	a4, a4, 8
80000350: 93 d6 86 01                  	srli	a3, a3, 24
80000354: b3 e6 e6 00                  	or	a3, a3, a4
80000358: b3 86 d7 00                  	add	a3, a5, a3
8000035c: 33 87 83 02                  	<unknown>
80000360: b3 94 83 02                  	<unknown>
80000364: 93 94 84 00                  	slli	s1, s1, 8
80000368: 13 57 87 01                  	srli	a4, a4, 24
8000036c: 33 67 97 00                  	or	a4, a4, s1
80000370: b3 86 e6 00                  	add	a3, a3, a4
80000374: 23 22 d1 08                  	sw	a3, 132(sp)
80000378: b3 06 be 02                  	<unknown>
8000037c: 33 17 be 02                  	<unknown>
80000380: 13 17 87 00                  	slli	a4, a4, 8
80000384: 93 d6 86 01                  	srli	a3, a3, 24
80000388: b3 e6 e6 00                  	or	a3, a3, a4
8000038c: b3 86 d7 00                  	add	a3, a5, a3
80000390: 33 87 82 02                  	<unknown>
80000394: b3 94 82 02                  	<unknown>
80000398: 93 94 84 00                  	slli	s1, s1, 8
8000039c: 13 57 87 01                  	srli	a4, a4, 24
800003a0: 33 67 97 00                  	or	a4, a4, s1
800003a4: b3 86 e6 00                  	add	a3, a3, a4
800003a8: 23 24 d1 08                  	sw	a3, 136(sp)
800003ac: b3 86 15 03                  	<unknown>
800003b0: b3 95 15 03                  	<unknown>
800003b4: 93 95 85 00                  	slli	a1, a1, 8
800003b8: 93 d6 86 01                  	srli	a3, a3, 24
800003bc: b3 e5 b6 00                  	or	a1, a3, a1
800003c0: b3 85 b7 00                  	add	a1, a5, a1
800003c4: b3 06 04 03                  	<unknown>
800003c8: 33 17 04 03                  	<unknown>
800003cc: 13 17 87 00                  	slli	a4, a4, 8
800003d0: 93 d6 86 01                  	srli	a3, a3, 24
800003d4: b3 e6 e6 00                  	or	a3, a3, a4
800003d8: b3 85 d5 00                  	add	a1, a1, a3
800003dc: 23 26 b1 08                  	sw	a1, 140(sp)
800003e0: 83 45 99 02                  	lbu	a1, 41(s2)
800003e4: 63 8a 05 36                  	beqz	a1, 884
800003e8: 83 25 06 03                  	lw	a1, 48(a2)
800003ec: b3 06 b5 02                  	<unknown>
800003f0: 33 17 b5 02                  	<unknown>
800003f4: 13 17 87 00                  	slli	a4, a4, 8
800003f8: 83 27 86 03                  	lw	a5, 56(a2)
800003fc: 83 24 46 03                  	lw	s1, 52(a2)
80000400: 93 d6 86 01                  	srli	a3, a3, 24
80000404: b3 e6 e6 00                  	or	a3, a3, a4
80000408: b3 86 d7 00                  	add	a3, a5, a3
8000040c: 33 07 93 02                  	<unknown>
80000410: 33 14 93 02                  	<unknown>
80000414: 13 14 84 00                  	slli	s0, s0, 8
80000418: 13 57 87 01                  	srli	a4, a4, 24
8000041c: 33 67 87 00                  	or	a4, a4, s0
80000420: b3 86 e6 00                  	add	a3, a3, a4
80000424: 23 28 d1 06                  	sw	a3, 112(sp)
80000428: b3 86 be 02                  	<unknown>
8000042c: 33 97 be 02                  	<unknown>
80000430: 13 17 87 00                  	slli	a4, a4, 8
80000434: 93 d6 86 01                  	srli	a3, a3, 24
80000438: b3 e6 e6 00                  	or	a3, a3, a4
8000043c: b3 86 d7 00                  	add	a3, a5, a3
80000440: 33 87 93 02                  	<unknown>
80000444: 33 94 93 02                  	<unknown>
80000448: 13 14 84 00                  	slli	s0, s0, 8
8000044c: 13 57 87 01                  	srli	a4, a4, 24
80000450: 33 67 87 00                  	or	a4, a4, s0
80000454: b3 86 e6 00                  	add	a3, a3, a4
80000458: 23 2a d1 06                  	sw	a3, 116(sp)
8000045c: b3 06 be 02                  	<unknown>
80000460: 33 17 be 02                  	<unknown>
80000464: 13 17 87 00                  	slli	a4, a4, 8
80000468: 93 d6 86 01                  	srli	a3, a3, 24
8000046c: b3 e6 e6 00                  	or	a3, a3, a4
80000470: b3 86 d7 00                  	add	a3, a5, a3
80000474: 33 87 92 02                  	<unknown>
80000478: 33 94 92 02                  	<unknown>
8000047c: 13 14 84 00                  	slli	s0, s0, 8
80000480: 13 57 87 01                  	srli	a4, a4, 24
80000484: 33 67 87 00                  	or	a4, a4, s0
80000488: b3 86 e6 00                  	add	a3, a3, a4
8000048c: 23 2c d1 06                  	sw	a3, 120(sp)
80000490: b3 86 15 03                  	<unknown>
80000494: b3 95 15 03                  	<unknown>
80000498: 93 95 85 00                  	slli	a1, a1, 8
8000049c: 93 d6 86 01                  	srli	a3, a3, 24
800004a0: b3 e5 b6 00                  	or	a1, a3, a1
800004a4: b3 85 b7 00                  	add	a1, a5, a1
800004a8: b3 86 04 03                  	<unknown>
800004ac: 33 97 04 03                  	<unknown>
800004b0: 13 17 87 00                  	slli	a4, a4, 8
800004b4: 93 d6 86 01                  	srli	a3, a3, 24
800004b8: b3 e6 e6 00                  	or	a3, a3, a4
800004bc: b3 85 d5 00                  	add	a1, a1, a3
800004c0: 23 2e b1 06                  	sw	a1, 124(sp)
800004c4: 83 25 c6 03                  	lw	a1, 60(a2)
800004c8: b3 86 a5 02                  	<unknown>
800004cc: 33 97 a5 02                  	<unknown>
800004d0: 13 17 87 00                  	slli	a4, a4, 8
800004d4: 83 27 46 04                  	lw	a5, 68(a2)
800004d8: 83 24 06 04                  	lw	s1, 64(a2)
800004dc: 93 d6 86 01                  	srli	a3, a3, 24
800004e0: b3 e6 e6 00                  	or	a3, a3, a4
800004e4: b3 86 d7 00                  	add	a3, a5, a3
800004e8: 33 87 64 02                  	<unknown>
800004ec: 33 94 64 02                  	<unknown>
800004f0: 13 14 84 00                  	slli	s0, s0, 8
800004f4: 13 57 87 01                  	srli	a4, a4, 24
800004f8: 33 67 87 00                  	or	a4, a4, s0
800004fc: b3 86 e6 00                  	add	a3, a3, a4
80000500: 23 20 d1 06                  	sw	a3, 96(sp)
80000504: b3 86 d5 03                  	<unknown>
80000508: 33 97 d5 03                  	<unknown>
8000050c: 13 17 87 00                  	slli	a4, a4, 8
80000510: 93 d6 86 01                  	srli	a3, a3, 24
80000514: b3 e6 e6 00                  	or	a3, a3, a4
80000518: b3 86 d7 00                  	add	a3, a5, a3
8000051c: 33 87 74 02                  	<unknown>
80000520: 33 94 74 02                  	<unknown>
80000524: 13 14 84 00                  	slli	s0, s0, 8
80000528: 13 57 87 01                  	srli	a4, a4, 24
8000052c: 33 67 87 00                  	or	a4, a4, s0
80000530: b3 86 e6 00                  	add	a3, a3, a4
80000534: 23 22 d1 06                  	sw	a3, 100(sp)
80000538: b3 86 c5 03                  	<unknown>
8000053c: 33 97 c5 03                  	<unknown>
80000540: 13 17 87 00                  	slli	a4, a4, 8
80000544: 93 d6 86 01                  	srli	a3, a3, 24
80000548: b3 e6 e6 00                  	or	a3, a3, a4
8000054c: b3 86 d7 00                  	add	a3, a5, a3
80000550: 33 87 54 02                  	<unknown>
80000554: 33 94 54 02                  	<unknown>
80000558: 13 14 84 00                  	slli	s0, s0, 8
8000055c: 13 57 87 01                  	srli	a4, a4, 24
80000560: 33 67 87 00                  	or	a4, a4, s0
80000564: b3 86 e6 00                  	add	a3, a3, a4
80000568: 23 24 d1 06                  	sw	a3, 104(sp)
8000056c: b3 86 15 03                  	<unknown>
80000570: b3 95 15 03                  	<unknown>
80000574: 93 95 85 00                  	slli	a1, a1, 8
80000578: 93 d6 86 01                  	srli	a3, a3, 24
8000057c: b3 e5 b6 00                  	or	a1, a3, a1
80000580: b3 85 b7 00                  	add	a1, a5, a1
80000584: b3 86 04 03                  	<unknown>
80000588: 33 97 04 03                  	<unknown>
8000058c: 13 17 87 00                  	slli	a4, a4, 8
80000590: 93 d6 86 01                  	srli	a3, a3, 24
80000594: b3 e6 e6 00                  	or	a3, a3, a4
80000598: b3 85 d5 00                  	add	a1, a1, a3
8000059c: 23 26 b1 06                  	sw	a1, 108(sp)
800005a0: 83 25 86 04                  	lw	a1, 72(a2)
800005a4: b3 86 a5 02                  	<unknown>
800005a8: 33 97 a5 02                  	<unknown>
800005ac: 13 17 87 00                  	slli	a4, a4, 8
800005b0: 83 27 06 05                  	lw	a5, 80(a2)
800005b4: 83 24 c6 04                  	lw	s1, 76(a2)
800005b8: 93 d6 86 01                  	srli	a3, a3, 24
800005bc: b3 e6 e6 00                  	or	a3, a3, a4
800005c0: b3 86 d7 00                  	add	a3, a5, a3
800005c4: 33 87 64 02                  	<unknown>
800005c8: 33 94 64 02                  	<unknown>
800005cc: 13 14 84 00                  	slli	s0, s0, 8
800005d0: 13 57 87 01                  	srli	a4, a4, 24
800005d4: 33 67 87 00                  	or	a4, a4, s0
800005d8: b3 86 e6 00                  	add	a3, a3, a4
800005dc: 23 28 d1 04                  	sw	a3, 80(sp)
800005e0: b3 86 d5 03                  	<unknown>
800005e4: 33 97 d5 03                  	<unknown>
800005e8: 13 17 87 00                  	slli	a4, a4, 8
800005ec: 93 d6 86 01                  	srli	a3, a3, 24
800005f0: b3 e6 e6 00                  	or	a3, a3, a4
800005f4: b3 86 d7 00                  	add	a3, a5, a3
800005f8: 33 87 74 02                  	<unknown>
800005fc: 33 94 74 02                  	<unknown>
80000600: 13 14 84 00                  	slli	s0, s0, 8
80000604: 13 57 87 01                  	srli	a4, a4, 24
80000608: 33 67 87 00                  	or	a4, a4, s0
8000060c: b3 86 e6 00                  	add	a3, a3, a4
80000610: 23 2a d1 04                  	sw	a3, 84(sp)
80000614: b3 86 c5 03                  	<unknown>
80000618: 33 97 c5 03                  	<unknown>
8000061c: 13 17 87 00                  	slli	a4, a4, 8
80000620: 93 d6 86 01                  	srli	a3, a3, 24
80000624: b3 e6 e6 00                  	or	a3, a3, a4
80000628: b3 86 d7 00                  	add	a3, a5, a3
8000062c: 33 87 54 02                  	<unknown>
80000630: 33 94 54 02                  	<unknown>
80000634: 13 14 84 00                  	slli	s0, s0, 8
80000638: 13 57 87 01                  	srli	a4, a4, 24
8000063c: 33 67 87 00                  	or	a4, a4, s0
80000640: b3 86 e6 00                  	add	a3, a3, a4
80000644: 23 2c d1 04                  	sw	a3, 88(sp)
80000648: b3 86 15 03                  	<unknown>
8000064c: b3 95 15 03                  	<unknown>
80000650: 93 95 85 00                  	slli	a1, a1, 8
80000654: 93 d6 86 01                  	srli	a3, a3, 24
80000658: b3 e5 b6 00                  	or	a1, a3, a1
8000065c: b3 85 b7 00                  	add	a1, a5, a1
80000660: b3 86 04 03                  	<unknown>
80000664: 33 97 04 03                  	<unknown>
80000668: 13 17 87 00                  	slli	a4, a4, 8
8000066c: 93 d6 86 01                  	srli	a3, a3, 24
80000670: b3 e6 e6 00                  	or	a3, a3, a4
80000674: b3 85 d5 00                  	add	a1, a1, a3
80000678: 23 2e b1 04                  	sw	a1, 92(sp)
8000067c: 83 25 46 05                  	lw	a1, 84(a2)
80000680: b3 86 a5 02                  	<unknown>
80000684: 33 95 a5 02                  	<unknown>
80000688: 13 15 85 00                  	slli	a0, a0, 8
8000068c: 03 27 c6 05                  	lw	a4, 92(a2)
80000690: 83 27 86 05                  	lw	a5, 88(a2)
80000694: 93 d6 86 01                  	srli	a3, a3, 24
80000698: 33 e5 a6 00                  	or	a0, a3, a0
8000069c: 33 05 a7 00                  	add	a0, a4, a0
800006a0: b3 86 67 02                  	<unknown>
800006a4: b3 94 67 02                  	<unknown>
800006a8: 93 94 84 00                  	slli	s1, s1, 8
800006ac: 93 d6 86 01                  	srli	a3, a3, 24
800006b0: b3 e6 96 00                  	or	a3, a3, s1
800006b4: 33 05 d5 00                  	add	a0, a0, a3
800006b8: 23 20 a1 04                  	sw	a0, 64(sp)
800006bc: 33 85 d5 03                  	<unknown>
800006c0: b3 96 d5 03                  	<unknown>
800006c4: 93 96 86 00                  	slli	a3, a3, 8
800006c8: 13 55 85 01                  	srli	a0, a0, 24
800006cc: 33 65 d5 00                  	or	a0, a0, a3
800006d0: 33 05 a7 00                  	add	a0, a4, a0
800006d4: b3 86 77 02                  	<unknown>
800006d8: b3 94 77 02                  	<unknown>
800006dc: 93 94 84 00                  	slli	s1, s1, 8
800006e0: 93 d6 86 01                  	srli	a3, a3, 24
800006e4: b3 e6 96 00                  	or	a3, a3, s1
800006e8: 33 05 d5 00                  	add	a0, a0, a3
800006ec: 23 22 a1 04                  	sw	a0, 68(sp)
800006f0: 33 85 c5 03                  	<unknown>
800006f4: b3 96 c5 03                  	<unknown>
800006f8: 93 96 86 00                  	slli	a3, a3, 8
800006fc: 13 55 85 01                  	srli	a0, a0, 24
80000700: 33 65 d5 00                  	or	a0, a0, a3
80000704: 33 05 a7 00                  	add	a0, a4, a0
80000708: b3 86 57 02                  	<unknown>
8000070c: b3 94 57 02                  	<unknown>
80000710: 93 94 84 00                  	slli	s1, s1, 8
80000714: 93 d6 86 01                  	srli	a3, a3, 24
80000718: b3 e6 96 00                  	or	a3, a3, s1
8000071c: 33 05 d5 00                  	add	a0, a0, a3
80000720: 23 24 a1 04                  	sw	a0, 72(sp)
80000724: 33 85 15 03                  	<unknown>
80000728: b3 95 15 03                  	<unknown>
8000072c: 93 95 85 00                  	slli	a1, a1, 8
80000730: 13 55 85 01                  	srli	a0, a0, 24
80000734: 33 65 b5 00                  	or	a0, a0, a1
80000738: 33 05 a7 00                  	add	a0, a4, a0
8000073c: b3 85 07 03                  	<unknown>
80000740: b3 96 07 03                  	<unknown>
80000744: 93 96 86 00                  	slli	a3, a3, 8
80000748: 93 d5 85 01                  	srli	a1, a1, 24
8000074c: b3 e5 d5 00                  	or	a1, a1, a3
80000750: 33 05 b5 00                  	add	a0, a0, a1
80000754: 23 26 a1 04                  	sw	a0, 76(sp)
80000758: 03 45 a9 02                  	lbu	a0, 42(s2)
8000075c: 63 02 05 72                  	beqz	a0, 1828
80000760: 83 25 06 06                  	lw	a1, 96(a2)
80000764: 03 23 01 03                  	lw	t1, 48(sp)
80000768: 33 05 b3 02                  	<unknown>
8000076c: b3 16 b3 02                  	<unknown>
80000770: 93 96 86 00                  	slli	a3, a3, 8
80000774: 83 24 86 06                  	lw	s1, 104(a2)
80000778: 03 24 46 06                  	lw	s0, 100(a2)
8000077c: 83 23 01 02                  	lw	t2, 32(sp)
80000780: 13 55 85 01                  	srli	a0, a0, 24
80000784: 33 65 d5 00                  	or	a0, a0, a3
80000788: 33 85 a4 00                  	add	a0, s1, a0
8000078c: b3 86 83 02                  	<unknown>
80000790: b3 97 83 02                  	<unknown>
80000794: 93 97 87 00                  	slli	a5, a5, 8
80000798: 03 2e 41 03                  	lw	t3, 52(sp)
8000079c: 93 d6 86 01                  	srli	a3, a3, 24
800007a0: b3 e6 f6 00                  	or	a3, a3, a5
800007a4: b3 02 d5 00                  	add	t0, a0, a3
800007a8: 33 05 be 02                  	<unknown>
800007ac: b3 16 be 02                  	<unknown>
800007b0: 93 96 86 00                  	slli	a3, a3, 8
800007b4: 03 2f 41 02                  	lw	t5, 36(sp)
800007b8: 13 55 85 01                  	srli	a0, a0, 24
800007bc: 33 65 d5 00                  	or	a0, a0, a3
800007c0: b3 8e a4 00                  	add	t4, s1, a0
800007c4: b3 06 8f 02                  	<unknown>
800007c8: 33 17 8f 02                  	<unknown>
800007cc: 13 17 87 00                  	slli	a4, a4, 8
800007d0: 83 2f 81 03                  	lw	t6, 56(sp)
800007d4: 93 d6 86 01                  	srli	a3, a3, 24
800007d8: b3 e6 e6 00                  	or	a3, a3, a4
800007dc: b3 8e de 00                  	add	t4, t4, a3
800007e0: 33 87 bf 02                  	<unknown>
800007e4: b3 96 bf 02                  	<unknown>
800007e8: 93 96 86 00                  	slli	a3, a3, 8
800007ec: 83 27 81 02                  	lw	a5, 40(sp)
800007f0: 13 57 87 01                  	srli	a4, a4, 24
800007f4: b3 66 d7 00                  	or	a3, a4, a3
800007f8: b3 86 d4 00                  	add	a3, s1, a3
800007fc: 33 87 87 02                  	<unknown>
80000800: 33 95 87 02                  	<unknown>
80000804: 13 15 85 00                  	slli	a0, a0, 8
80000808: 13 57 87 01                  	srli	a4, a4, 24
8000080c: 33 65 a7 00                  	or	a0, a4, a0
80000810: b3 89 a6 00                  	add	s3, a3, a0
80000814: 33 85 15 03                  	<unknown>
80000818: b3 95 15 03                  	<unknown>
8000081c: 93 95 85 00                  	slli	a1, a1, 8
80000820: 13 55 85 01                  	srli	a0, a0, 24
80000824: 33 65 b5 00                  	or	a0, a0, a1
80000828: 33 85 a4 00                  	add	a0, s1, a0
8000082c: b3 05 04 03                  	<unknown>
80000830: b3 16 04 03                  	<unknown>
80000834: 93 96 86 00                  	slli	a3, a3, 8
80000838: 03 24 c6 06                  	lw	s0, 108(a2)
8000083c: 93 d5 85 01                  	srli	a1, a1, 24
80000840: b3 e5 d5 00                  	or	a1, a1, a3
80000844: b3 0a b5 00                  	add	s5, a0, a1
80000848: b3 05 64 02                  	<unknown>
8000084c: b3 16 64 02                  	<unknown>
80000850: 93 96 86 00                  	slli	a3, a3, 8
80000854: 83 24 46 07                  	lw	s1, 116(a2)
80000858: 03 26 06 07                  	lw	a2, 112(a2)
8000085c: 93 d5 85 01                  	srli	a1, a1, 24
80000860: b3 e5 d5 00                  	or	a1, a1, a3
80000864: b3 85 b4 00                  	add	a1, s1, a1
80000868: b3 06 76 02                  	<unknown>
8000086c: 33 17 76 02                  	<unknown>
80000870: 13 17 87 00                  	slli	a4, a4, 8
80000874: 93 d6 86 01                  	srli	a3, a3, 24
80000878: b3 e6 e6 00                  	or	a3, a3, a4
8000087c: b3 85 d5 00                  	add	a1, a1, a3
80000880: b3 06 c4 03                  	<unknown>
80000884: 33 17 c4 03                  	<unknown>
80000888: 13 17 87 00                  	slli	a4, a4, 8
8000088c: 93 d6 86 01                  	srli	a3, a3, 24
80000890: b3 e6 e6 00                  	or	a3, a3, a4
80000894: b3 86 d4 00                  	add	a3, s1, a3
80000898: 33 07 e6 03                  	<unknown>
8000089c: 33 15 e6 03                  	<unknown>
800008a0: 13 15 85 00                  	slli	a0, a0, 8
800008a4: 13 57 87 01                  	srli	a4, a4, 24
800008a8: 33 65 a7 00                  	or	a0, a4, a0
800008ac: 33 85 a6 00                  	add	a0, a3, a0
800008b0: b3 06 f4 03                  	<unknown>
800008b4: 33 17 f4 03                  	<unknown>
800008b8: 13 17 87 00                  	slli	a4, a4, 8
800008bc: 93 d6 86 01                  	srli	a3, a3, 24
800008c0: b3 e6 e6 00                  	or	a3, a3, a4
800008c4: b3 86 d4 00                  	add	a3, s1, a3
800008c8: 33 07 f6 02                  	<unknown>
800008cc: b3 17 f6 02                  	<unknown>
800008d0: 93 97 87 00                  	slli	a5, a5, 8
800008d4: 13 57 87 01                  	srli	a4, a4, 24
800008d8: 33 67 f7 00                  	or	a4, a4, a5
800008dc: b3 86 e6 00                  	add	a3, a3, a4
800008e0: 33 07 14 03                  	<unknown>
800008e4: b3 17 14 03                  	<unknown>
800008e8: 93 97 87 00                  	slli	a5, a5, 8
800008ec: 13 57 87 01                  	srli	a4, a4, 24
800008f0: 33 67 f7 00                  	or	a4, a4, a5
800008f4: 33 87 e4 00                  	add	a4, s1, a4
800008f8: b3 07 06 03                  	<unknown>
800008fc: 33 16 06 03                  	<unknown>
80000900: 13 16 86 00                  	slli	a2, a2, 8
80000904: 93 d7 87 01                  	srli	a5, a5, 24
80000908: 33 e6 c7 00                  	or	a2, a5, a2
8000090c: 33 07 c7 00                  	add	a4, a4, a2
80000910: 13 d6 12 40                  	srai	a2, t0, 1
80000914: 93 d5 15 40                  	srai	a1, a1, 1
80000918: ab 04 b6 00                  	vx_tex	s1, a2, a1, zero
8000091c: 93 d5 1e 40                  	srai	a1, t4, 1
80000920: 13 55 15 40                  	srai	a0, a0, 1
80000924: ab 87 a5 00                  	vx_tex	a5, a1, a0, zero
80000928: 13 d5 19 40                  	srai	a0, s3, 1
8000092c: 93 d5 16 40                  	srai	a1, a3, 1
80000930: 2b 06 b5 00                  	vx_tex	a2, a0, a1, zero
80000934: 13 d5 1a 40                  	srai	a0, s5, 1
80000938: 93 55 17 40                  	srai	a1, a4, 1
8000093c: 2b 05 b5 00                  	vx_tex	a0, a0, a1, zero
80000940: 83 45 b9 02                  	lbu	a1, 43(s2)
80000944: 63 86 05 44                  	beqz	a1, 1100
80000948: 13 58 85 01                  	srli	a6, a0, 24
8000094c: 93 58 85 00                  	srli	a7, a0, 8
80000950: 93 52 05 01                  	srli	t0, a0, 16
80000954: 13 53 86 01                  	srli	t1, a2, 24
80000958: 93 53 86 00                  	srli	t2, a2, 8
8000095c: 13 5e 06 01                  	srli	t3, a2, 16
80000960: 93 de 87 01                  	srli	t4, a5, 24
80000964: 13 df 87 00                  	srli	t5, a5, 8
80000968: 93 df 07 01                  	srli	t6, a5, 16
8000096c: 93 d6 84 01                  	srli	a3, s1, 24
80000970: 03 27 01 07                  	lw	a4, 112(sp)
80000974: 13 d4 84 00                  	srli	s0, s1, 8
80000978: 93 d5 04 01                  	srli	a1, s1, 16
8000097c: 93 f5 f5 0f                  	andi	a1, a1, 255
80000980: b3 05 b7 02                  	<unknown>
80000984: 03 27 01 06                  	lw	a4, 96(sp)
80000988: 93 d5 85 01                  	srli	a1, a1, 24
8000098c: 23 09 b1 00                  	sb	a1, 18(sp)
80000990: 93 75 f4 0f                  	andi	a1, s0, 255
80000994: b3 05 b7 02                  	<unknown>
80000998: 93 d5 85 01                  	srli	a1, a1, 24
8000099c: 03 27 01 05                  	lw	a4, 80(sp)
800009a0: a3 08 b1 00                  	sb	a1, 17(sp)
800009a4: 93 f5 f4 0f                  	andi	a1, s1, 255
800009a8: 03 24 01 04                  	lw	s0, 64(sp)
800009ac: b3 05 b7 02                  	<unknown>
800009b0: 93 d5 85 01                  	srli	a1, a1, 24
800009b4: 23 08 b1 00                  	sb	a1, 16(sp)
800009b8: b3 05 d4 02                  	<unknown>
800009bc: 83 26 41 07                  	lw	a3, 116(sp)
800009c0: 93 d5 85 01                  	srli	a1, a1, 24
800009c4: a3 09 b1 00                  	sb	a1, 19(sp)
800009c8: 93 f5 ff 0f                  	andi	a1, t6, 255
800009cc: b3 85 b6 02                  	<unknown>
800009d0: 83 26 41 06                  	lw	a3, 100(sp)
800009d4: 93 d5 85 01                  	srli	a1, a1, 24
800009d8: 23 0b b1 00                  	sb	a1, 22(sp)
800009dc: 93 75 ff 0f                  	andi	a1, t5, 255
800009e0: b3 85 b6 02                  	<unknown>
800009e4: 93 d5 85 01                  	srli	a1, a1, 24
800009e8: 83 26 41 05                  	lw	a3, 84(sp)
800009ec: a3 0a b1 00                  	sb	a1, 21(sp)
800009f0: 93 f5 f7 0f                  	andi	a1, a5, 255
800009f4: 03 27 41 04                  	lw	a4, 68(sp)
800009f8: b3 85 b6 02                  	<unknown>
800009fc: 93 d5 85 01                  	srli	a1, a1, 24
80000a00: 23 0a b1 00                  	sb	a1, 20(sp)
80000a04: b3 05 d7 03                  	<unknown>
80000a08: 83 26 81 07                  	lw	a3, 120(sp)
80000a0c: 93 d5 85 01                  	srli	a1, a1, 24
80000a10: a3 0b b1 00                  	sb	a1, 23(sp)
80000a14: 93 75 fe 0f                  	andi	a1, t3, 255
80000a18: b3 85 b6 02                  	<unknown>
80000a1c: 83 26 81 06                  	lw	a3, 104(sp)
80000a20: 93 d5 85 01                  	srli	a1, a1, 24
80000a24: 23 0d b1 00                  	sb	a1, 26(sp)
80000a28: 93 f5 f3 0f                  	andi	a1, t2, 255
80000a2c: b3 85 b6 02                  	<unknown>
80000a30: 93 d5 85 01                  	srli	a1, a1, 24
80000a34: 83 26 81 05                  	lw	a3, 88(sp)
80000a38: a3 0c b1 00                  	sb	a1, 25(sp)
80000a3c: 93 75 f6 0f                  	andi	a1, a2, 255
80000a40: 03 26 81 04                  	lw	a2, 72(sp)
80000a44: b3 85 b6 02                  	<unknown>
80000a48: 93 d5 85 01                  	srli	a1, a1, 24
80000a4c: 23 0c b1 00                  	sb	a1, 24(sp)
80000a50: b3 05 66 02                  	<unknown>
80000a54: 03 26 c1 07                  	lw	a2, 124(sp)
80000a58: 93 d5 85 01                  	srli	a1, a1, 24
80000a5c: a3 0d b1 00                  	sb	a1, 27(sp)
80000a60: 93 f5 f2 0f                  	andi	a1, t0, 255
80000a64: b3 05 b6 02                  	<unknown>
80000a68: 03 26 c1 06                  	lw	a2, 108(sp)
80000a6c: 93 d5 85 01                  	srli	a1, a1, 24
80000a70: 23 0f b1 00                  	sb	a1, 30(sp)
80000a74: 93 f5 f8 0f                  	andi	a1, a7, 255
80000a78: b3 05 b6 02                  	<unknown>
80000a7c: 93 d5 85 01                  	srli	a1, a1, 24
80000a80: 03 26 c1 05                  	lw	a2, 92(sp)
80000a84: a3 0e b1 00                  	sb	a1, 29(sp)
80000a88: 13 75 f5 0f                  	andi	a0, a0, 255
80000a8c: 83 25 c1 04                  	lw	a1, 76(sp)
80000a90: 33 05 a6 02                  	<unknown>
80000a94: 13 55 85 01                  	srli	a0, a0, 24
80000a98: 23 0e a1 00                  	sb	a0, 28(sp)
80000a9c: 33 85 05 03                  	<unknown>
80000aa0: 6f 00 80 4d                  	j	1240
80000aa4: 63 82 06 06                  	beqz	a3, 100
80000aa8: 83 a6 05 00                  	lw	a3, 0(a1)
80000aac: 03 27 c6 02                  	lw	a4, 44(a2)
80000ab0: ab a6 a6 76                  	<unknown>
80000ab4: 03 27 86 02                  	lw	a4, 40(a2)
80000ab8: ab 26 67 6e                  	<unknown>
80000abc: 23 20 d1 08                  	sw	a3, 128(sp)
80000ac0: 83 a6 05 00                  	lw	a3, 0(a1)
80000ac4: 03 27 c6 02                  	lw	a4, 44(a2)
80000ac8: ab a6 d6 77                  	<unknown>
80000acc: 03 27 86 02                  	lw	a4, 40(a2)
80000ad0: ab 26 77 6e                  	<unknown>
80000ad4: 23 22 d1 08                  	sw	a3, 132(sp)
80000ad8: 83 a6 05 00                  	lw	a3, 0(a1)
80000adc: 03 27 c6 02                  	lw	a4, 44(a2)
80000ae0: ab a6 c6 77                  	<unknown>
80000ae4: 03 27 86 02                  	lw	a4, 40(a2)
80000ae8: ab 26 57 6e                  	<unknown>
80000aec: 23 24 d1 08                  	sw	a3, 136(sp)
80000af0: 83 a5 05 00                  	lw	a1, 0(a1)
80000af4: 83 26 c6 02                  	lw	a3, 44(a2)
80000af8: ab a5 15 6f                  	<unknown>
80000afc: 83 26 86 02                  	lw	a3, 40(a2)
80000b00: ab a5 06 5f                  	<unknown>
80000b04: 23 26 b1 08                  	sw	a1, 140(sp)
80000b08: 83 45 99 02                  	lbu	a1, 41(s2)
80000b0c: 63 88 05 18                  	beqz	a1, 400
80000b10: 83 25 06 03                  	lw	a1, 48(a2)
80000b14: 83 26 86 03                  	lw	a3, 56(a2)
80000b18: ab a5 a5 6e                  	<unknown>
80000b1c: 83 26 46 03                  	lw	a3, 52(a2)
80000b20: ab a5 66 5e                  	<unknown>
80000b24: 23 28 b1 06                  	sw	a1, 112(sp)
80000b28: 83 25 06 03                  	lw	a1, 48(a2)
80000b2c: 83 26 86 03                  	lw	a3, 56(a2)
80000b30: ab a5 d5 6f                  	<unknown>
80000b34: 83 26 46 03                  	lw	a3, 52(a2)
80000b38: ab a5 76 5e                  	<unknown>
80000b3c: 23 2a b1 06                  	sw	a1, 116(sp)
80000b40: 83 25 06 03                  	lw	a1, 48(a2)
80000b44: 83 26 86 03                  	lw	a3, 56(a2)
80000b48: ab a5 c5 6f                  	<unknown>
80000b4c: 83 26 46 03                  	lw	a3, 52(a2)
80000b50: ab a5 56 5e                  	<unknown>
80000b54: 23 2c b1 06                  	sw	a1, 120(sp)
80000b58: 83 25 06 03                  	lw	a1, 48(a2)
80000b5c: 83 26 86 03                  	lw	a3, 56(a2)
80000b60: ab a5 15 6f                  	<unknown>
80000b64: 83 26 46 03                  	lw	a3, 52(a2)
80000b68: ab a5 06 5f                  	<unknown>
80000b6c: 23 2e b1 06                  	sw	a1, 124(sp)
80000b70: 83 25 c6 03                  	lw	a1, 60(a2)
80000b74: 83 26 46 04                  	lw	a3, 68(a2)
80000b78: ab a5 a5 6e                  	<unknown>
80000b7c: 83 26 06 04                  	lw	a3, 64(a2)
80000b80: ab a5 66 5e                  	<unknown>
80000b84: 23 20 b1 06                  	sw	a1, 96(sp)
80000b88: 83 25 c6 03                  	lw	a1, 60(a2)
80000b8c: 83 26 46 04                  	lw	a3, 68(a2)
80000b90: ab a5 d5 6f                  	<unknown>
80000b94: 83 26 06 04                  	lw	a3, 64(a2)
80000b98: ab a5 76 5e                  	<unknown>
80000b9c: 23 22 b1 06                  	sw	a1, 100(sp)
80000ba0: 83 25 c6 03                  	lw	a1, 60(a2)
80000ba4: 83 26 46 04                  	lw	a3, 68(a2)
80000ba8: ab a5 c5 6f                  	<unknown>
80000bac: 83 26 06 04                  	lw	a3, 64(a2)
80000bb0: ab a5 56 5e                  	<unknown>
80000bb4: 23 24 b1 06                  	sw	a1, 104(sp)
80000bb8: 83 25 c6 03                  	lw	a1, 60(a2)
80000bbc: 83 26 46 04                  	lw	a3, 68(a2)
80000bc0: ab a5 15 6f                  	<unknown>
80000bc4: 83 26 06 04                  	lw	a3, 64(a2)
80000bc8: ab a5 06 5f                  	<unknown>
80000bcc: 23 26 b1 06                  	sw	a1, 108(sp)
80000bd0: 83 25 86 04                  	lw	a1, 72(a2)
80000bd4: 83 26 06 05                  	lw	a3, 80(a2)
80000bd8: ab a5 a5 6e                  	<unknown>
80000bdc: 83 26 c6 04                  	lw	a3, 76(a2)
80000be0: ab a5 66 5e                  	<unknown>
80000be4: 23 28 b1 04                  	sw	a1, 80(sp)
80000be8: 83 25 86 04                  	lw	a1, 72(a2)
80000bec: 83 26 06 05                  	lw	a3, 80(a2)
80000bf0: ab a5 d5 6f                  	<unknown>
80000bf4: 83 26 c6 04                  	lw	a3, 76(a2)
80000bf8: ab a5 76 5e                  	<unknown>
80000bfc: 23 2a b1 04                  	sw	a1, 84(sp)
80000c00: 83 25 86 04                  	lw	a1, 72(a2)
80000c04: 83 26 06 05                  	lw	a3, 80(a2)
80000c08: ab a5 c5 6f                  	<unknown>
80000c0c: 83 26 c6 04                  	lw	a3, 76(a2)
80000c10: ab a5 56 5e                  	<unknown>
80000c14: 23 2c b1 04                  	sw	a1, 88(sp)
80000c18: 83 25 86 04                  	lw	a1, 72(a2)
80000c1c: 83 26 06 05                  	lw	a3, 80(a2)
80000c20: ab a5 15 6f                  	<unknown>
80000c24: 83 26 c6 04                  	lw	a3, 76(a2)
80000c28: ab a5 06 5f                  	<unknown>
80000c2c: 23 2e b1 04                  	sw	a1, 92(sp)
80000c30: 83 25 46 05                  	lw	a1, 84(a2)
80000c34: 83 26 c6 05                  	lw	a3, 92(a2)
80000c38: 2b a5 a5 6e                  	<unknown>
80000c3c: 83 25 86 05                  	lw	a1, 88(a2)
80000c40: 2b a5 65 56                  	<unknown>
80000c44: 23 20 a1 04                  	sw	a0, 64(sp)
80000c48: 03 25 46 05                  	lw	a0, 84(a2)
80000c4c: 83 25 c6 05                  	lw	a1, 92(a2)
80000c50: 2b 25 d5 5f                  	<unknown>
80000c54: 83 25 86 05                  	lw	a1, 88(a2)
80000c58: 2b a5 75 56                  	<unknown>
80000c5c: 23 22 a1 04                  	sw	a0, 68(sp)
80000c60: 03 25 46 05                  	lw	a0, 84(a2)
80000c64: 83 25 c6 05                  	lw	a1, 92(a2)
80000c68: 2b 25 c5 5f                  	<unknown>
80000c6c: 83 25 86 05                  	lw	a1, 88(a2)
80000c70: 83 22 81 02                  	lw	t0, 40(sp)
80000c74: 2b a5 55 56                  	<unknown>
80000c78: 23 24 a1 04                  	sw	a0, 72(sp)
80000c7c: 03 25 46 05                  	lw	a0, 84(a2)
80000c80: 83 28 c1 03                  	lw	a7, 60(sp)
80000c84: 83 25 c6 05                  	lw	a1, 92(a2)
80000c88: 2b 25 15 5f                  	<unknown>
80000c8c: 83 25 86 05                  	lw	a1, 88(a2)
80000c90: 03 28 c1 02                  	lw	a6, 44(sp)
80000c94: 2b a5 05 57                  	<unknown>
80000c98: 23 26 a1 04                  	sw	a0, 76(sp)
80000c9c: 03 45 a9 02                  	lbu	a0, 42(s2)
80000ca0: 63 00 05 1e                  	beqz	a0, 480
80000ca4: 03 25 06 06                  	lw	a0, 96(a2)
80000ca8: 83 25 01 03                  	lw	a1, 48(sp)
80000cac: 83 26 86 06                  	lw	a3, 104(a2)
80000cb0: 2b 25 b5 6e                  	<unknown>
80000cb4: 83 26 46 06                  	lw	a3, 100(a2)
80000cb8: 03 27 01 02                  	lw	a4, 32(sp)
80000cbc: 2b a3 e6 56                  	<unknown>
80000cc0: 83 26 06 06                  	lw	a3, 96(a2)
80000cc4: 83 27 41 03                  	lw	a5, 52(sp)
80000cc8: 83 24 86 06                  	lw	s1, 104(a2)
80000ccc: ab a6 f6 4e                  	<unknown>
80000cd0: 83 24 46 06                  	lw	s1, 100(a2)
80000cd4: 03 24 41 02                  	lw	s0, 36(sp)
80000cd8: ab a3 84 6e                  	<unknown>
80000cdc: 83 24 06 06                  	lw	s1, 96(a2)
80000ce0: 03 25 81 03                  	lw	a0, 56(sp)
80000ce4: 83 26 86 06                  	lw	a3, 104(a2)
80000ce8: ab a6 a4 6e                  	<unknown>
80000cec: 83 24 46 06                  	lw	s1, 100(a2)
80000cf0: 2b ae 54 6e                  	<unknown>
80000cf4: 83 24 06 06                  	lw	s1, 96(a2)
80000cf8: 83 26 86 06                  	lw	a3, 104(a2)
80000cfc: ab a6 14 6f                  	<unknown>
80000d00: 83 24 46 06                  	lw	s1, 100(a2)
80000d04: ab ae 04 6f                  	<unknown>
80000d08: 83 24 c6 06                  	lw	s1, 108(a2)
80000d0c: 83 26 46 07                  	lw	a3, 116(a2)
80000d10: ab a5 b4 6e                  	<unknown>
80000d14: 83 26 06 07                  	lw	a3, 112(a2)
80000d18: ab a5 e6 5e                  	<unknown>
80000d1c: 83 26 c6 06                  	lw	a3, 108(a2)
80000d20: 03 27 46 07                  	lw	a4, 116(a2)
80000d24: ab a6 f6 76                  	<unknown>
80000d28: 03 27 06 07                  	lw	a4, 112(a2)
80000d2c: ab 26 87 6e                  	<unknown>
80000d30: 03 27 c6 06                  	lw	a4, 108(a2)
80000d34: 83 27 46 07                  	lw	a5, 116(a2)
80000d38: 2b 25 a7 7e                  	<unknown>
80000d3c: 03 27 06 07                  	lw	a4, 112(a2)
80000d40: 2b 25 57 56                  	<unknown>
80000d44: 03 27 c6 06                  	lw	a4, 108(a2)
80000d48: 83 27 46 07                  	lw	a5, 116(a2)
80000d4c: 2b 27 17 7f                  	<unknown>
80000d50: 03 26 06 07                  	lw	a2, 112(a2)
80000d54: 2b 27 06 77                  	<unknown>
80000d58: 13 56 13 40                  	srai	a2, t1, 1
80000d5c: 93 d5 15 40                  	srai	a1, a1, 1
80000d60: ab 04 b6 00                  	vx_tex	s1, a2, a1, zero
80000d64: 93 d5 13 40                  	srai	a1, t2, 1
80000d68: 13 d6 16 40                  	srai	a2, a3, 1
80000d6c: ab 87 c5 00                  	vx_tex	a5, a1, a2, zero
80000d70: 93 55 1e 40                  	srai	a1, t3, 1
80000d74: 13 55 15 40                  	srai	a0, a0, 1
80000d78: 2b 86 a5 00                  	vx_tex	a2, a1, a0, zero
80000d7c: 13 d5 1e 40                  	srai	a0, t4, 1
80000d80: 93 55 17 40                  	srai	a1, a4, 1
80000d84: 2b 05 b5 00                  	vx_tex	a0, a0, a1, zero
80000d88: 83 45 b9 02                  	lbu	a1, 43(s2)
80000d8c: e3 9e 05 ba                  	bnez	a1, -1092
80000d90: 23 28 91 00                  	sw	s1, 16(sp)
80000d94: 23 2a f1 00                  	sw	a5, 20(sp)
80000d98: 23 2c c1 00                  	sw	a2, 24(sp)
80000d9c: 23 2e a1 00                  	sw	a0, 28(sp)
80000da0: 03 45 d9 02                  	lbu	a0, 45(s2)
80000da4: 63 12 05 1e                  	bnez	a0, 484
80000da8: f3 25 00 7c                  	csrr	a1, 1984
80000dac: 23 24 b1 00                  	sw	a1, 8(sp)
80000db0: 93 f6 15 00                  	andi	a3, a1, 1
80000db4: 13 b5 16 00                  	seqz	a0, a3
80000db8: 0b 20 05 00                  	vx_split	a0
80000dbc: 13 d5 45 00                  	srli	a0, a1, 4
80000dc0: 33 75 65 01                  	and	a0, a0, s6
80000dc4: 13 d6 25 01                  	srli	a2, a1, 18
80000dc8: 63 8e 06 00                  	beqz	a3, 28
80000dcc: 83 26 01 01                  	lw	a3, 16(sp)
80000dd0: 03 27 01 08                  	lw	a4, 128(sp)
80000dd4: 93 17 16 01                  	slli	a5, a2, 17
80000dd8: 93 14 25 00                  	slli	s1, a0, 2
80000ddc: b3 e7 f4 00                  	or	a5, s1, a5
80000de0: 2b 90 d7 72                  	vx_imadd	zero, a5, a3, a4, 1
80000de4: 0b 30 00 00                  	vx_join	
80000de8: 93 f6 25 00                  	andi	a3, a1, 2
80000dec: 13 b7 16 00                  	seqz	a4, a3
80000df0: 0b 20 07 00                  	vx_split	a4
80000df4: 63 80 06 02                  	beqz	a3, 32
80000df8: 93 16 16 01                  	slli	a3, a2, 17
80000dfc: 03 27 41 01                  	lw	a4, 20(sp)
80000e00: 83 27 41 08                  	lw	a5, 132(sp)
80000e04: 93 14 25 00                  	slli	s1, a0, 2
80000e08: b3 e6 96 00                  	or	a3, a3, s1
80000e0c: 93 e6 26 00                  	ori	a3, a3, 2
80000e10: 2b 90 e6 7a                  	vx_imadd	zero, a3, a4, a5, 1
80000e14: 0b 30 00 00                  	vx_join	
80000e18: 93 f6 45 00                  	andi	a3, a1, 4
80000e1c: 13 b7 16 00                  	seqz	a4, a3
80000e20: 0b 20 07 00                  	vx_split	a4
80000e24: 63 82 06 02                  	beqz	a3, 36
80000e28: 93 16 16 01                  	slli	a3, a2, 17
80000e2c: 03 27 81 01                  	lw	a4, 24(sp)
80000e30: 83 27 81 08                  	lw	a5, 136(sp)
80000e34: 93 14 25 00                  	slli	s1, a0, 2
80000e38: b3 e6 96 00                  	or	a3, a3, s1
80000e3c: b7 04 01 00                  	lui	s1, 16
80000e40: b3 e6 96 00                  	or	a3, a3, s1
80000e44: 2b 90 e6 7a                  	vx_imadd	zero, a3, a4, a5, 1
80000e48: 0b 30 00 00                  	vx_join	
80000e4c: 93 f5 85 00                  	andi	a1, a1, 8
80000e50: 93 b6 15 00                  	seqz	a3, a1
80000e54: 0b a0 06 00                  	vx_split	a3
80000e58: 63 88 05 b2                  	beqz	a1, -3280
80000e5c: 93 15 16 01                  	slli	a1, a2, 17
80000e60: 03 26 c1 01                  	lw	a2, 28(sp)
80000e64: 83 26 c1 08                  	lw	a3, 140(sp)
80000e68: 13 15 25 00                  	slli	a0, a0, 2
80000e6c: 33 e5 a5 00                  	or	a0, a1, a0
80000e70: 83 25 41 00                  	lw	a1, 4(sp)
80000e74: 33 65 b5 00                  	or	a0, a0, a1
80000e78: 2b 10 c5 6a                  	vx_imadd	zero, a0, a2, a3, 1
80000e7c: 6f f0 cf b0                  	j	-3316
80000e80: 03 25 01 07                  	lw	a0, 112(sp)
80000e84: 83 25 01 06                  	lw	a1, 96(sp)
80000e88: 33 05 85 03                  	<unknown>
80000e8c: 13 55 85 01                  	srli	a0, a0, 24
80000e90: 23 09 a1 00                  	sb	a0, 18(sp)
80000e94: 33 85 85 03                  	<unknown>
80000e98: 83 25 01 05                  	lw	a1, 80(sp)
80000e9c: 13 55 85 01                  	srli	a0, a0, 24
80000ea0: a3 08 a1 00                  	sb	a0, 17(sp)
80000ea4: 03 25 01 04                  	lw	a0, 64(sp)
80000ea8: b3 85 85 03                  	<unknown>
80000eac: 93 d5 85 01                  	srli	a1, a1, 24
80000eb0: 23 08 b1 00                  	sb	a1, 16(sp)
80000eb4: 33 05 85 03                  	<unknown>
80000eb8: 83 25 41 07                  	lw	a1, 116(sp)
80000ebc: 13 55 85 01                  	srli	a0, a0, 24
80000ec0: a3 09 a1 00                  	sb	a0, 19(sp)
80000ec4: 03 25 41 06                  	lw	a0, 100(sp)
80000ec8: b3 85 85 03                  	<unknown>
80000ecc: 93 d5 85 01                  	srli	a1, a1, 24
80000ed0: 23 0b b1 00                  	sb	a1, 22(sp)
80000ed4: 33 05 85 03                  	<unknown>
80000ed8: 83 25 41 05                  	lw	a1, 84(sp)
80000edc: 13 55 85 01                  	srli	a0, a0, 24
80000ee0: a3 0a a1 00                  	sb	a0, 21(sp)
80000ee4: 03 25 41 04                  	lw	a0, 68(sp)
80000ee8: b3 85 85 03                  	<unknown>
80000eec: 93 d5 85 01                  	srli	a1, a1, 24
80000ef0: 23 0a b1 00                  	sb	a1, 20(sp)
80000ef4: 33 05 85 03                  	<unknown>
80000ef8: 83 25 81 07                  	lw	a1, 120(sp)
80000efc: 13 55 85 01                  	srli	a0, a0, 24
80000f00: a3 0b a1 00                  	sb	a0, 23(sp)
80000f04: 03 25 81 06                  	lw	a0, 104(sp)
80000f08: b3 85 85 03                  	<unknown>
80000f0c: 93 d5 85 01                  	srli	a1, a1, 24
80000f10: 23 0d b1 00                  	sb	a1, 26(sp)
80000f14: 33 05 85 03                  	<unknown>
80000f18: 83 25 81 05                  	lw	a1, 88(sp)
80000f1c: 13 55 85 01                  	srli	a0, a0, 24
80000f20: a3 0c a1 00                  	sb	a0, 25(sp)
80000f24: 03 25 81 04                  	lw	a0, 72(sp)
80000f28: b3 85 85 03                  	<unknown>
80000f2c: 93 d5 85 01                  	srli	a1, a1, 24
80000f30: 23 0c b1 00                  	sb	a1, 24(sp)
80000f34: 33 05 85 03                  	<unknown>
80000f38: 83 25 c1 07                  	lw	a1, 124(sp)
80000f3c: 13 55 85 01                  	srli	a0, a0, 24
80000f40: a3 0d a1 00                  	sb	a0, 27(sp)
80000f44: 03 25 c1 06                  	lw	a0, 108(sp)
80000f48: b3 85 85 03                  	<unknown>
80000f4c: 93 d5 85 01                  	srli	a1, a1, 24
80000f50: 23 0f b1 00                  	sb	a1, 30(sp)
80000f54: 33 05 85 03                  	<unknown>
80000f58: 83 25 c1 05                  	lw	a1, 92(sp)
80000f5c: 13 55 85 01                  	srli	a0, a0, 24
80000f60: a3 0e a1 00                  	sb	a0, 29(sp)
80000f64: 03 25 c1 04                  	lw	a0, 76(sp)
80000f68: b3 85 85 03                  	<unknown>
80000f6c: 93 d5 85 01                  	srli	a1, a1, 24
80000f70: 23 0e b1 00                  	sb	a1, 28(sp)
80000f74: 33 05 85 03                  	<unknown>
80000f78: 13 55 85 01                  	srli	a0, a0, 24
80000f7c: a3 0f a1 00                  	sb	a0, 31(sp)
80000f80: 03 45 d9 02                  	lbu	a0, 45(s2)
80000f84: e3 02 05 e2                  	beqz	a0, -476
80000f88: f3 2c 00 7c                  	csrr	s9, 1984
80000f8c: 23 24 91 01                  	sw	s9, 8(sp)
80000f90: 13 f5 1c 00                  	andi	a0, s9, 1
80000f94: 93 35 15 00                  	seqz	a1, a0
80000f98: 0b a0 05 00                  	vx_split	a1
80000f9c: 93 d5 4c 00                  	srli	a1, s9, 4
80000fa0: b3 fa 65 01                  	and	s5, a1, s6
80000fa4: 93 dd 2c 01                  	srli	s11, s9, 18
80000fa8: 63 0e 05 04                  	beqz	a0, 92
80000fac: 03 2d c9 08                  	lw	s10, 140(s2)
80000fb0: 83 29 01 01                  	lw	s3, 16(sp)
80000fb4: 03 45 dd 07                  	lbu	a0, 125(s10)
80000fb8: 03 27 01 08                  	lw	a4, 128(sp)
80000fbc: 93 94 1a 00                  	slli	s1, s5, 1
80000fc0: 13 94 1d 00                  	slli	s0, s11, 1
80000fc4: 63 16 05 00                  	bnez	a0, 12
80000fc8: 03 45 cd 07                  	lbu	a0, 124(s10)
80000fcc: 63 00 05 02                  	beqz	a0, 32
80000fd0: 13 05 4d 03                  	addi	a0, s10, 52
80000fd4: 93 85 04 00                  	mv	a1, s1
80000fd8: 13 06 04 00                  	mv	a2, s0
80000fdc: 93 06 00 00                  	mv	a3, zero
80000fe0: ef 10 40 49                  	jal	5268
80000fe4: 0b 20 05 00                  	vx_split	a0
80000fe8: 63 0c 05 00                  	beqz	a0, 24
80000fec: 13 05 0d 08                  	addi	a0, s10, 128
80000ff0: 93 85 04 00                  	mv	a1, s1
80000ff4: 13 06 04 00                  	mv	a2, s0
80000ff8: 93 86 09 00                  	mv	a3, s3
80000ffc: ef 10 40 2b                  	jal	4788
80001000: 0b 30 00 00                  	vx_join	
80001004: 0b 30 00 00                  	vx_join	
80001008: 13 f5 2c 00                  	andi	a0, s9, 2
8000100c: 93 35 15 00                  	seqz	a1, a0
80001010: 0b a0 05 00                  	vx_split	a1
80001014: 63 00 05 06                  	beqz	a0, 96
80001018: 03 24 c9 08                  	lw	s0, 140(s2)
8000101c: 83 29 41 01                  	lw	s3, 20(sp)
80001020: 03 45 d4 07                  	lbu	a0, 125(s0)
80001024: 03 27 41 08                  	lw	a4, 132(sp)
80001028: 93 95 1a 00                  	slli	a1, s5, 1
8000102c: 93 e4 15 00                  	ori	s1, a1, 1
80001030: 13 9d 1d 00                  	slli	s10, s11, 1
80001034: 63 16 05 00                  	bnez	a0, 12
80001038: 03 45 c4 07                  	lbu	a0, 124(s0)
8000103c: 63 00 05 02                  	beqz	a0, 32
80001040: 13 05 44 03                  	addi	a0, s0, 52
80001044: 93 85 04 00                  	mv	a1, s1
80001048: 13 06 0d 00                  	mv	a2, s10
8000104c: 93 06 00 00                  	mv	a3, zero
80001050: ef 10 40 42                  	jal	5156
80001054: 0b 20 05 00                  	vx_split	a0
80001058: 63 0c 05 00                  	beqz	a0, 24
8000105c: 13 05 04 08                  	addi	a0, s0, 128
80001060: 93 85 04 00                  	mv	a1, s1
80001064: 13 06 0d 00                  	mv	a2, s10
80001068: 93 86 09 00                  	mv	a3, s3
8000106c: ef 10 40 24                  	jal	4676
80001070: 0b 30 00 00                  	vx_join	
80001074: 0b 30 00 00                  	vx_join	
80001078: 13 f5 4c 00                  	andi	a0, s9, 4
8000107c: 93 35 15 00                  	seqz	a1, a0
80001080: 0b a0 05 00                  	vx_split	a1
80001084: 63 00 05 06                  	beqz	a0, 96
80001088: 03 24 c9 08                  	lw	s0, 140(s2)
8000108c: 83 29 81 01                  	lw	s3, 24(sp)
80001090: 03 45 d4 07                  	lbu	a0, 125(s0)
80001094: 03 27 81 08                  	lw	a4, 136(sp)
80001098: 13 9d 1a 00                  	slli	s10, s5, 1
8000109c: 93 95 1d 00                  	slli	a1, s11, 1
800010a0: 93 e4 15 00                  	ori	s1, a1, 1
800010a4: 63 16 05 00                  	bnez	a0, 12
800010a8: 03 45 c4 07                  	lbu	a0, 124(s0)
800010ac: 63 00 05 02                  	beqz	a0, 32
800010b0: 13 05 44 03                  	addi	a0, s0, 52
800010b4: 93 05 0d 00                  	mv	a1, s10
800010b8: 13 86 04 00                  	mv	a2, s1
800010bc: 93 06 00 00                  	mv	a3, zero
800010c0: ef 10 40 3b                  	jal	5044
800010c4: 0b 20 05 00                  	vx_split	a0
800010c8: 63 0c 05 00                  	beqz	a0, 24
800010cc: 13 05 04 08                  	addi	a0, s0, 128
800010d0: 93 05 0d 00                  	mv	a1, s10
800010d4: 13 86 04 00                  	mv	a2, s1
800010d8: 93 86 09 00                  	mv	a3, s3
800010dc: ef 10 40 1d                  	jal	4564
800010e0: 0b 30 00 00                  	vx_join	
800010e4: 0b 30 00 00                  	vx_join	
800010e8: 13 f5 8c 00                  	andi	a0, s9, 8
800010ec: 93 35 15 00                  	seqz	a1, a0
800010f0: 0b a0 05 00                  	vx_split	a1
800010f4: 63 14 05 00                  	bnez	a0, 8
800010f8: 6f f0 0f 89                  	j	-3952
800010fc: 03 24 c9 08                  	lw	s0, 140(s2)
80001100: 13 95 1a 00                  	slli	a0, s5, 1
80001104: 83 29 c1 01                  	lw	s3, 28(sp)
80001108: 83 45 d4 07                  	lbu	a1, 125(s0)
8000110c: 03 27 c1 08                  	lw	a4, 140(sp)
80001110: 93 6a 15 00                  	ori	s5, a0, 1
80001114: 13 95 1d 00                  	slli	a0, s11, 1
80001118: 93 64 15 00                  	ori	s1, a0, 1
8000111c: 63 98 05 00                  	bnez	a1, 16
80001120: 03 45 c4 07                  	lbu	a0, 124(s0)
80001124: 63 14 05 00                  	bnez	a0, 8
80001128: 6f f0 8f 84                  	j	-4024
8000112c: 13 05 44 03                  	addi	a0, s0, 52
80001130: 93 85 0a 00                  	mv	a1, s5
80001134: 13 86 04 00                  	mv	a2, s1
80001138: 93 06 00 00                  	mv	a3, zero
8000113c: ef 10 80 33                  	jal	4920
80001140: 0b 20 05 00                  	vx_split	a0
80001144: 63 04 05 00                  	beqz	a0, 8
80001148: 6f f0 8f 82                  	j	-4056
8000114c: 6f f0 8f 83                  	j	-4040
80001150: 03 25 01 00                  	lw	a0, 0(sp)
80001154: 0b 00 05 00                  	vx_tmc	a0
80001158: 0b 30 00 00                  	vx_join	
8000115c: 07 29 01 09                  	<unknown>
80001160: 87 24 41 09                  	<unknown>
80001164: 07 24 81 09                  	<unknown>
80001168: 83 2d c1 09                  	lw	s11, 156(sp)
8000116c: 03 2d 01 0a                  	lw	s10, 160(sp)
80001170: 83 2c 41 0a                  	lw	s9, 164(sp)
80001174: 03 2c 81 0a                  	lw	s8, 168(sp)
80001178: 83 2b c1 0a                  	lw	s7, 172(sp)
8000117c: 03 2b 01 0b                  	lw	s6, 176(sp)
80001180: 83 2a 41 0b                  	lw	s5, 180(sp)
80001184: 03 2a 81 0b                  	lw	s4, 184(sp)
80001188: 83 29 c1 0b                  	lw	s3, 188(sp)
8000118c: 03 29 01 0c                  	lw	s2, 192(sp)
80001190: 83 24 41 0c                  	lw	s1, 196(sp)
80001194: 03 24 81 0c                  	lw	s0, 200(sp)
80001198: 83 20 c1 0c                  	lw	ra, 204(sp)
8000119c: 13 01 01 0d                  	addi	sp, sp, 208
800011a0: 67 80 00 00                  	ret

800011a4 _Z26shader_function_sw_rast_cbP12kernel_arg_tjjjPKN7cocogfx8TVector3INS1_6TFixedILj16EiEEEEj:
800011a4: 13 01 01 f5                  	addi	sp, sp, -176
800011a8: 23 26 81 0a                  	sw	s0, 172(sp)
800011ac: 23 24 91 0a                  	sw	s1, 168(sp)
800011b0: 23 22 21 0b                  	sw	s2, 164(sp)
800011b4: 23 20 31 0b                  	sw	s3, 160(sp)
800011b8: 23 2e 41 09                  	sw	s4, 156(sp)
800011bc: 23 2c 51 09                  	sw	s5, 152(sp)
800011c0: 23 2a 61 09                  	sw	s6, 148(sp)
800011c4: 83 22 45 02                  	lw	t0, 36(a0)
800011c8: 23 20 01 08                  	sw	zero, 128(sp)
800011cc: 37 04 00 01                  	lui	s0, 4096
800011d0: 23 28 81 06                  	sw	s0, 112(sp)
800011d4: 23 20 81 06                  	sw	s0, 96(sp)
800011d8: 23 28 81 04                  	sw	s0, 80(sp)
800011dc: 23 20 81 04                  	sw	s0, 64(sp)
800011e0: 23 22 01 08                  	sw	zero, 132(sp)
800011e4: 23 2a 81 06                  	sw	s0, 116(sp)
800011e8: 23 22 81 06                  	sw	s0, 100(sp)
800011ec: 23 2a 81 04                  	sw	s0, 84(sp)
800011f0: 23 22 81 04                  	sw	s0, 68(sp)
800011f4: 23 24 01 08                  	sw	zero, 136(sp)
800011f8: 23 2c 81 06                  	sw	s0, 120(sp)
800011fc: 23 24 81 06                  	sw	s0, 104(sp)
80001200: 23 2c 81 04                  	sw	s0, 88(sp)
80001204: 23 24 81 04                  	sw	s0, 72(sp)
80001208: 23 26 01 08                  	sw	zero, 140(sp)
8000120c: 23 2e 81 06                  	sw	s0, 124(sp)
80001210: 23 26 81 06                  	sw	s0, 108(sp)
80001214: 23 2e 81 04                  	sw	s0, 92(sp)
80001218: 23 26 81 04                  	sw	s0, 76(sp)
8000121c: 03 28 07 00                  	lw	a6, 0(a4)
80001220: 37 74 00 80                  	lui	s0, 524295
80001224: 13 04 84 9b                  	addi	s0, s0, -1608
80001228: 07 20 04 00                  	<unknown>
8000122c: 83 28 47 00                  	lw	a7, 4(a4)
80001230: d3 70 08 d0                  	<unknown>
80001234: 03 24 87 00                  	lw	s0, 8(a4)
80001238: 53 f1 00 10                  	<unknown>
8000123c: d3 f0 08 d0                  	<unknown>
80001240: d3 f1 00 10                  	<unknown>
80001244: d3 70 04 d0                  	<unknown>
80001248: 53 f2 00 10                  	<unknown>
8000124c: d3 72 31 00                  	<unknown>
80001250: 37 74 00 80                  	lui	s0, 524295
80001254: 13 04 c4 9b                  	addi	s0, s0, -1604
80001258: 07 23 04 00                  	<unknown>
8000125c: 37 74 00 80                  	lui	s0, 524295
80001260: 13 04 04 9c                  	addi	s0, s0, -1600
80001264: 87 20 04 00                  	<unknown>
80001268: 53 f2 42 00                  	<unknown>
8000126c: 53 72 43 18                  	<unknown>
80001270: 53 71 41 10                  	<unknown>
80001274: 53 71 11 10                  	<unknown>
80001278: 53 1f 01 c0                  	<unknown>
8000127c: 23 28 e1 03                  	sw	t5, 48(sp)
80001280: 53 f1 41 10                  	<unknown>
80001284: 53 71 11 10                  	<unknown>
80001288: d3 1e 01 c0                  	<unknown>
8000128c: 23 20 d1 03                  	sw	t4, 32(sp)
80001290: 03 24 c7 00                  	lw	s0, 12(a4)
80001294: 03 28 07 01                  	lw	a6, 16(a4)
80001298: 53 71 04 d0                  	<unknown>
8000129c: 03 24 47 01                  	lw	s0, 20(a4)
800012a0: 53 71 01 10                  	<unknown>
800012a4: d3 71 08 d0                  	<unknown>
800012a8: d3 f1 01 10                  	<unknown>
800012ac: 53 72 04 d0                  	<unknown>
800012b0: 53 72 02 10                  	<unknown>
800012b4: d3 72 31 00                  	<unknown>
800012b8: 53 f2 42 00                  	<unknown>
800012bc: 53 72 43 18                  	<unknown>
800012c0: 53 71 41 10                  	<unknown>
800012c4: 53 71 11 10                  	<unknown>
800012c8: d3 13 01 c0                  	<unknown>
800012cc: 23 2a 71 02                  	sw	t2, 52(sp)
800012d0: 53 f1 41 10                  	<unknown>
800012d4: 53 71 11 10                  	<unknown>
800012d8: 53 13 01 c0                  	<unknown>
800012dc: 23 22 61 02                  	sw	t1, 36(sp)
800012e0: 03 24 87 01                  	lw	s0, 24(a4)
800012e4: 03 28 c7 01                  	lw	a6, 28(a4)
800012e8: 53 71 04 d0                  	<unknown>
800012ec: 03 24 07 02                  	lw	s0, 32(a4)
800012f0: 53 71 01 10                  	<unknown>
800012f4: d3 71 08 d0                  	<unknown>
800012f8: d3 f1 01 10                  	<unknown>
800012fc: 53 72 04 d0                  	<unknown>
80001300: 53 72 02 10                  	<unknown>
80001304: d3 72 31 00                  	<unknown>
80001308: 53 f2 42 00                  	<unknown>
8000130c: 53 72 43 18                  	<unknown>
80001310: 53 71 41 10                  	<unknown>
80001314: 53 71 11 10                  	<unknown>
80001318: 53 1e 01 c0                  	<unknown>
8000131c: 23 2c c1 03                  	sw	t3, 56(sp)
80001320: 53 f1 41 10                  	<unknown>
80001324: 53 71 11 10                  	<unknown>
80001328: 53 18 01 c0                  	<unknown>
8000132c: 23 24 01 03                  	sw	a6, 40(sp)
80001330: 03 24 47 02                  	lw	s0, 36(a4)
80001334: 13 09 80 07                  	addi	s2, zero, 120
80001338: 83 24 87 02                  	lw	s1, 40(a4)
8000133c: 53 71 04 d0                  	<unknown>
80001340: 03 27 c7 02                  	lw	a4, 44(a4)
80001344: 53 71 01 10                  	<unknown>
80001348: d3 f1 04 d0                  	<unknown>
8000134c: d3 f1 01 10                  	<unknown>
80001350: 53 72 07 d0                  	<unknown>
80001354: 53 70 02 10                  	<unknown>
80001358: 53 72 31 00                  	<unknown>
8000135c: 53 70 02 00                  	<unknown>
80001360: 53 70 03 18                  	<unknown>
80001364: 53 71 01 10                  	<unknown>
80001368: 53 71 11 10                  	<unknown>
8000136c: d3 1f 01 c0                  	<unknown>
80001370: 23 2e f1 03                  	sw	t6, 60(sp)
80001374: 53 f0 01 10                  	<unknown>
80001378: 53 70 10 10                  	<unknown>
8000137c: d3 18 00 c0                  	<unknown>
80001380: 23 26 11 03                  	sw	a7, 44(sp)
80001384: 83 44 e5 02                  	lbu	s1, 46(a0)
80001388: 03 44 85 02                  	lbu	s0, 40(a0)
8000138c: 33 87 27 03                  	<unknown>
80001390: 33 87 e2 00                  	add	a4, t0, a4
80001394: 13 07 47 02                  	addi	a4, a4, 36
80001398: 63 82 04 7c                  	beqz	s1, 1988
8000139c: 63 06 04 0e                  	beqz	s0, 236
800013a0: 03 27 07 00                  	lw	a4, 0(a4)
800013a4: 33 09 ef 02                  	<unknown>
800013a8: b3 14 ef 02                  	<unknown>
800013ac: 93 99 84 00                  	slli	s3, s1, 8
800013b0: 13 04 80 07                  	addi	s0, zero, 120
800013b4: 33 84 87 02                  	<unknown>
800013b8: 33 84 82 00                  	add	s0, t0, s0
800013bc: 03 2a c4 02                  	lw	s4, 44(s0)
800013c0: 03 24 84 02                  	lw	s0, 40(s0)
800013c4: 93 54 89 01                  	srli	s1, s2, 24
800013c8: b3 e4 34 01                  	or	s1, s1, s3
800013cc: 33 09 9a 00                  	add	s2, s4, s1
800013d0: b3 89 8e 02                  	<unknown>
800013d4: b3 94 8e 02                  	<unknown>
800013d8: 93 9a 84 00                  	slli	s5, s1, 8
800013dc: 93 d4 89 01                  	srli	s1, s3, 24
800013e0: b3 e4 54 01                  	or	s1, s1, s5
800013e4: b3 04 99 00                  	add	s1, s2, s1
800013e8: 23 20 91 08                  	sw	s1, 128(sp)
800013ec: 33 09 77 02                  	<unknown>
800013f0: b3 14 77 02                  	<unknown>
800013f4: 93 99 84 00                  	slli	s3, s1, 8
800013f8: 93 54 89 01                  	srli	s1, s2, 24
800013fc: b3 e4 34 01                  	or	s1, s1, s3
80001400: 33 09 9a 00                  	add	s2, s4, s1
80001404: b3 09 64 02                  	<unknown>
80001408: b3 14 64 02                  	<unknown>
8000140c: 93 9a 84 00                  	slli	s5, s1, 8
80001410: 93 d4 89 01                  	srli	s1, s3, 24
80001414: b3 e4 54 01                  	or	s1, s1, s5
80001418: b3 04 99 00                  	add	s1, s2, s1
8000141c: 23 22 91 08                  	sw	s1, 132(sp)
80001420: 33 09 c7 03                  	<unknown>
80001424: b3 14 c7 03                  	<unknown>
80001428: 93 99 84 00                  	slli	s3, s1, 8
8000142c: 93 54 89 01                  	srli	s1, s2, 24
80001430: b3 e4 34 01                  	or	s1, s1, s3
80001434: 33 09 9a 00                  	add	s2, s4, s1
80001438: b3 09 04 03                  	<unknown>
8000143c: b3 14 04 03                  	<unknown>
80001440: 93 9a 84 00                  	slli	s5, s1, 8
80001444: 93 d4 89 01                  	srli	s1, s3, 24
80001448: b3 e4 54 01                  	or	s1, s1, s5
8000144c: b3 04 99 00                  	add	s1, s2, s1
80001450: 23 24 91 08                  	sw	s1, 136(sp)
80001454: b3 04 f7 03                  	<unknown>
80001458: 33 17 f7 03                  	<unknown>
8000145c: 13 17 87 00                  	slli	a4, a4, 8
80001460: 93 d4 84 01                  	srli	s1, s1, 24
80001464: 33 e7 e4 00                  	or	a4, s1, a4
80001468: 33 07 ea 00                  	add	a4, s4, a4
8000146c: b3 04 14 03                  	<unknown>
80001470: 33 14 14 03                  	<unknown>
80001474: 13 14 84 00                  	slli	s0, s0, 8
80001478: 93 d4 84 01                  	srli	s1, s1, 24
8000147c: 33 e4 84 00                  	or	s0, s1, s0
80001480: 33 07 87 00                  	add	a4, a4, s0
80001484: 23 26 e1 08                  	sw	a4, 140(sp)
80001488: 03 47 95 02                  	lbu	a4, 41(a0)
8000148c: 63 00 07 38                  	beqz	a4, 896
80001490: 13 07 80 07                  	addi	a4, zero, 120
80001494: 33 87 e7 02                  	<unknown>
80001498: 33 8a e2 00                  	add	s4, t0, a4
8000149c: 03 24 0a 03                  	lw	s0, 48(s4)
800014a0: 33 09 8f 02                  	<unknown>
800014a4: b3 14 8f 02                  	<unknown>
800014a8: 93 99 84 00                  	slli	s3, s1, 8
800014ac: 83 2a 8a 03                  	lw	s5, 56(s4)
800014b0: 03 27 4a 03                  	lw	a4, 52(s4)
800014b4: 93 54 89 01                  	srli	s1, s2, 24
800014b8: b3 e4 34 01                  	or	s1, s1, s3
800014bc: 33 89 9a 00                  	add	s2, s5, s1
800014c0: b3 89 ee 02                  	<unknown>
800014c4: b3 94 ee 02                  	<unknown>
800014c8: 13 9b 84 00                  	slli	s6, s1, 8
800014cc: 93 d4 89 01                  	srli	s1, s3, 24
800014d0: b3 e4 64 01                  	or	s1, s1, s6
800014d4: b3 04 99 00                  	add	s1, s2, s1
800014d8: 23 28 91 06                  	sw	s1, 112(sp)
800014dc: 33 09 74 02                  	<unknown>
800014e0: b3 14 74 02                  	<unknown>
800014e4: 93 99 84 00                  	slli	s3, s1, 8
800014e8: 93 54 89 01                  	srli	s1, s2, 24
800014ec: b3 e4 34 01                  	or	s1, s1, s3
800014f0: 33 89 9a 00                  	add	s2, s5, s1
800014f4: b3 09 67 02                  	<unknown>
800014f8: b3 14 67 02                  	<unknown>
800014fc: 13 9b 84 00                  	slli	s6, s1, 8
80001500: 93 d4 89 01                  	srli	s1, s3, 24
80001504: b3 e4 64 01                  	or	s1, s1, s6
80001508: b3 04 99 00                  	add	s1, s2, s1
8000150c: 23 2a 91 06                  	sw	s1, 116(sp)
80001510: 33 09 c4 03                  	<unknown>
80001514: b3 14 c4 03                  	<unknown>
80001518: 93 99 84 00                  	slli	s3, s1, 8
8000151c: 93 54 89 01                  	srli	s1, s2, 24
80001520: b3 e4 34 01                  	or	s1, s1, s3
80001524: 33 89 9a 00                  	add	s2, s5, s1
80001528: b3 09 07 03                  	<unknown>
8000152c: b3 14 07 03                  	<unknown>
80001530: 13 9b 84 00                  	slli	s6, s1, 8
80001534: 93 d4 89 01                  	srli	s1, s3, 24
80001538: b3 e4 64 01                  	or	s1, s1, s6
8000153c: b3 04 99 00                  	add	s1, s2, s1
80001540: 23 2c 91 06                  	sw	s1, 120(sp)
80001544: b3 04 f4 03                  	<unknown>
80001548: 33 14 f4 03                  	<unknown>
8000154c: 13 14 84 00                  	slli	s0, s0, 8
80001550: 93 d4 84 01                  	srli	s1, s1, 24
80001554: 33 e4 84 00                  	or	s0, s1, s0
80001558: 33 84 8a 00                  	add	s0, s5, s0
8000155c: b3 04 17 03                  	<unknown>
80001560: 33 17 17 03                  	<unknown>
80001564: 13 17 87 00                  	slli	a4, a4, 8
80001568: 93 d4 84 01                  	srli	s1, s1, 24
8000156c: 33 e7 e4 00                  	or	a4, s1, a4
80001570: 33 07 e4 00                  	add	a4, s0, a4
80001574: 23 2e e1 06                  	sw	a4, 124(sp)
80001578: 03 27 ca 03                  	lw	a4, 60(s4)
8000157c: 33 09 e7 03                  	<unknown>
80001580: b3 14 e7 03                  	<unknown>
80001584: 93 99 84 00                  	slli	s3, s1, 8
80001588: 83 2a 4a 04                  	lw	s5, 68(s4)
8000158c: 83 24 0a 04                  	lw	s1, 64(s4)
80001590: 13 54 89 01                  	srli	s0, s2, 24
80001594: 33 64 34 01                  	or	s0, s0, s3
80001598: 33 89 8a 00                  	add	s2, s5, s0
8000159c: b3 89 d4 03                  	<unknown>
800015a0: 33 94 d4 03                  	<unknown>
800015a4: 13 1b 84 00                  	slli	s6, s0, 8
800015a8: 13 d4 89 01                  	srli	s0, s3, 24
800015ac: 33 64 64 01                  	or	s0, s0, s6
800015b0: 33 04 89 00                  	add	s0, s2, s0
800015b4: 23 20 81 06                  	sw	s0, 96(sp)
800015b8: 33 09 77 02                  	<unknown>
800015bc: 33 14 77 02                  	<unknown>
800015c0: 93 19 84 00                  	slli	s3, s0, 8
800015c4: 13 54 89 01                  	srli	s0, s2, 24
800015c8: 33 64 34 01                  	or	s0, s0, s3
800015cc: 33 89 8a 00                  	add	s2, s5, s0
800015d0: b3 89 64 02                  	<unknown>
800015d4: 33 94 64 02                  	<unknown>
800015d8: 13 1b 84 00                  	slli	s6, s0, 8
800015dc: 13 d4 89 01                  	srli	s0, s3, 24
800015e0: 33 64 64 01                  	or	s0, s0, s6
800015e4: 33 04 89 00                  	add	s0, s2, s0
800015e8: 23 22 81 06                  	sw	s0, 100(sp)
800015ec: 33 09 c7 03                  	<unknown>
800015f0: 33 14 c7 03                  	<unknown>
800015f4: 93 19 84 00                  	slli	s3, s0, 8
800015f8: 13 54 89 01                  	srli	s0, s2, 24
800015fc: 33 64 34 01                  	or	s0, s0, s3
80001600: 33 89 8a 00                  	add	s2, s5, s0
80001604: b3 89 04 03                  	<unknown>
80001608: 33 94 04 03                  	<unknown>
8000160c: 13 1b 84 00                  	slli	s6, s0, 8
80001610: 13 d4 89 01                  	srli	s0, s3, 24
80001614: 33 64 64 01                  	or	s0, s0, s6
80001618: 33 04 89 00                  	add	s0, s2, s0
8000161c: 23 24 81 06                  	sw	s0, 104(sp)
80001620: 33 04 f7 03                  	<unknown>
80001624: 33 17 f7 03                  	<unknown>
80001628: 13 17 87 00                  	slli	a4, a4, 8
8000162c: 13 54 84 01                  	srli	s0, s0, 24
80001630: 33 67 e4 00                  	or	a4, s0, a4
80001634: 33 87 ea 00                  	add	a4, s5, a4
80001638: 33 84 14 03                  	<unknown>
8000163c: b3 94 14 03                  	<unknown>
80001640: 93 94 84 00                  	slli	s1, s1, 8
80001644: 13 54 84 01                  	srli	s0, s0, 24
80001648: 33 64 94 00                  	or	s0, s0, s1
8000164c: 33 07 87 00                  	add	a4, a4, s0
80001650: 23 26 e1 06                  	sw	a4, 108(sp)
80001654: 03 27 8a 04                  	lw	a4, 72(s4)
80001658: 33 09 e7 03                  	<unknown>
8000165c: b3 14 e7 03                  	<unknown>
80001660: 93 99 84 00                  	slli	s3, s1, 8
80001664: 83 2a 0a 05                  	lw	s5, 80(s4)
80001668: 83 24 ca 04                  	lw	s1, 76(s4)
8000166c: 13 54 89 01                  	srli	s0, s2, 24
80001670: 33 64 34 01                  	or	s0, s0, s3
80001674: 33 89 8a 00                  	add	s2, s5, s0
80001678: b3 89 d4 03                  	<unknown>
8000167c: 33 94 d4 03                  	<unknown>
80001680: 13 1b 84 00                  	slli	s6, s0, 8
80001684: 13 d4 89 01                  	srli	s0, s3, 24
80001688: 33 64 64 01                  	or	s0, s0, s6
8000168c: 33 04 89 00                  	add	s0, s2, s0
80001690: 23 28 81 04                  	sw	s0, 80(sp)
80001694: 33 09 77 02                  	<unknown>
80001698: 33 14 77 02                  	<unknown>
8000169c: 93 19 84 00                  	slli	s3, s0, 8
800016a0: 13 54 89 01                  	srli	s0, s2, 24
800016a4: 33 64 34 01                  	or	s0, s0, s3
800016a8: 33 89 8a 00                  	add	s2, s5, s0
800016ac: b3 89 64 02                  	<unknown>
800016b0: 33 94 64 02                  	<unknown>
800016b4: 13 1b 84 00                  	slli	s6, s0, 8
800016b8: 13 d4 89 01                  	srli	s0, s3, 24
800016bc: 33 64 64 01                  	or	s0, s0, s6
800016c0: 33 04 89 00                  	add	s0, s2, s0
800016c4: 23 2a 81 04                  	sw	s0, 84(sp)
800016c8: 33 09 c7 03                  	<unknown>
800016cc: 33 14 c7 03                  	<unknown>
800016d0: 93 19 84 00                  	slli	s3, s0, 8
800016d4: 13 54 89 01                  	srli	s0, s2, 24
800016d8: 33 64 34 01                  	or	s0, s0, s3
800016dc: 33 89 8a 00                  	add	s2, s5, s0
800016e0: b3 89 04 03                  	<unknown>
800016e4: 33 94 04 03                  	<unknown>
800016e8: 13 1b 84 00                  	slli	s6, s0, 8
800016ec: 13 d4 89 01                  	srli	s0, s3, 24
800016f0: 33 64 64 01                  	or	s0, s0, s6
800016f4: 33 04 89 00                  	add	s0, s2, s0
800016f8: 23 2c 81 04                  	sw	s0, 88(sp)
800016fc: 33 04 f7 03                  	<unknown>
80001700: 33 17 f7 03                  	<unknown>
80001704: 13 17 87 00                  	slli	a4, a4, 8
80001708: 13 54 84 01                  	srli	s0, s0, 24
8000170c: 33 67 e4 00                  	or	a4, s0, a4
80001710: 33 87 ea 00                  	add	a4, s5, a4
80001714: 33 84 14 03                  	<unknown>
80001718: b3 94 14 03                  	<unknown>
8000171c: 93 94 84 00                  	slli	s1, s1, 8
80001720: 13 54 84 01                  	srli	s0, s0, 24
80001724: 33 64 94 00                  	or	s0, s0, s1
80001728: 33 07 87 00                  	add	a4, a4, s0
8000172c: 23 2e e1 04                  	sw	a4, 92(sp)
80001730: 03 27 4a 05                  	lw	a4, 84(s4)
80001734: 33 09 e7 03                  	<unknown>
80001738: b3 14 e7 03                  	<unknown>
8000173c: 13 9f 84 00                  	slli	t5, s1, 8
80001740: 83 29 ca 05                  	lw	s3, 92(s4)
80001744: 83 24 8a 05                  	lw	s1, 88(s4)
80001748: 13 54 89 01                  	srli	s0, s2, 24
8000174c: 33 64 e4 01                  	or	s0, s0, t5
80001750: 33 8f 89 00                  	add	t5, s3, s0
80001754: 33 89 d4 03                  	<unknown>
80001758: 33 94 d4 03                  	<unknown>
8000175c: 93 1e 84 00                  	slli	t4, s0, 8
80001760: 13 54 89 01                  	srli	s0, s2, 24
80001764: 33 64 d4 01                  	or	s0, s0, t4
80001768: 33 04 8f 00                  	add	s0, t5, s0
8000176c: 23 20 81 04                  	sw	s0, 64(sp)
80001770: b3 0e 77 02                  	<unknown>
80001774: 33 14 77 02                  	<unknown>
80001778: 13 1f 84 00                  	slli	t5, s0, 8
8000177c: 13 d4 8e 01                  	srli	s0, t4, 24
80001780: 33 64 e4 01                  	or	s0, s0, t5
80001784: b3 8e 89 00                  	add	t4, s3, s0
80001788: 33 8f 64 02                  	<unknown>
8000178c: 33 94 64 02                  	<unknown>
80001790: 13 19 84 00                  	slli	s2, s0, 8
80001794: 13 54 8f 01                  	srli	s0, t5, 24
80001798: 33 64 24 01                  	or	s0, s0, s2
8000179c: 33 84 8e 00                  	add	s0, t4, s0
800017a0: 23 22 81 04                  	sw	s0, 68(sp)
800017a4: b3 0e c7 03                  	<unknown>
800017a8: 33 14 c7 03                  	<unknown>
800017ac: 13 1f 84 00                  	slli	t5, s0, 8
800017b0: 13 d4 8e 01                  	srli	s0, t4, 24
800017b4: 33 64 e4 01                  	or	s0, s0, t5
800017b8: b3 8e 89 00                  	add	t4, s3, s0
800017bc: 33 8f 04 03                  	<unknown>
800017c0: 33 94 04 03                  	<unknown>
800017c4: 13 19 84 00                  	slli	s2, s0, 8
800017c8: 13 54 8f 01                  	srli	s0, t5, 24
800017cc: 33 64 24 01                  	or	s0, s0, s2
800017d0: 33 84 8e 00                  	add	s0, t4, s0
800017d4: 23 24 81 04                  	sw	s0, 72(sp)
800017d8: 33 04 f7 03                  	<unknown>
800017dc: 33 17 f7 03                  	<unknown>
800017e0: 13 17 87 00                  	slli	a4, a4, 8
800017e4: 13 54 84 01                  	srli	s0, s0, 24
800017e8: 33 67 e4 00                  	or	a4, s0, a4
800017ec: 33 87 e9 00                  	add	a4, s3, a4
800017f0: 33 84 14 03                  	<unknown>
800017f4: b3 94 14 03                  	<unknown>
800017f8: 93 94 84 00                  	slli	s1, s1, 8
800017fc: 13 54 84 01                  	srli	s0, s0, 24
80001800: b3 64 94 00                  	or	s1, s0, s1
80001804: 33 07 97 00                  	add	a4, a4, s1
80001808: 23 26 e1 04                  	sw	a4, 76(sp)
8000180c: 03 47 a5 02                  	lbu	a4, 42(a0)
80001810: 63 04 07 68                  	beqz	a4, 1672
80001814: 13 07 80 07                  	addi	a4, zero, 120
80001818: 33 87 e7 02                  	<unknown>
8000181c: 33 87 e2 00                  	add	a4, t0, a4
80001820: 83 24 07 06                  	lw	s1, 96(a4)
80001824: 03 29 01 03                  	lw	s2, 48(sp)
80001828: b3 02 99 02                  	<unknown>
8000182c: b3 17 99 02                  	<unknown>
80001830: 93 9e 87 00                  	slli	t4, a5, 8
80001834: 03 2a 87 06                  	lw	s4, 104(a4)
80001838: 03 24 47 06                  	lw	s0, 100(a4)
8000183c: 83 29 01 02                  	lw	s3, 32(sp)
80001840: 93 d7 82 01                  	srli	a5, t0, 24
80001844: b3 e7 d7 01                  	or	a5, a5, t4
80001848: b3 02 fa 00                  	add	t0, s4, a5
8000184c: b3 8e 89 02                  	<unknown>
80001850: b3 97 89 02                  	<unknown>
80001854: 13 9f 87 00                  	slli	t5, a5, 8
80001858: 93 d7 8e 01                  	srli	a5, t4, 24
8000185c: b3 e7 e7 01                  	or	a5, a5, t5
80001860: b3 82 f2 00                  	add	t0, t0, a5
80001864: b3 8e 74 02                  	<unknown>
80001868: b3 97 74 02                  	<unknown>
8000186c: 13 9f 87 00                  	slli	t5, a5, 8
80001870: 93 d7 8e 01                  	srli	a5, t4, 24
80001874: b3 e7 e7 01                  	or	a5, a5, t5
80001878: b3 0e fa 00                  	add	t4, s4, a5
8000187c: 33 0f 64 02                  	<unknown>
80001880: b3 17 64 02                  	<unknown>
80001884: 93 9a 87 00                  	slli	s5, a5, 8
80001888: 93 57 8f 01                  	srli	a5, t5, 24
8000188c: b3 e7 57 01                  	or	a5, a5, s5
80001890: 33 8f fe 00                  	add	t5, t4, a5
80001894: b3 8e c4 03                  	<unknown>
80001898: b3 97 c4 03                  	<unknown>
8000189c: 93 9a 87 00                  	slli	s5, a5, 8
800018a0: 93 d7 8e 01                  	srli	a5, t4, 24
800018a4: b3 e7 57 01                  	or	a5, a5, s5
800018a8: b3 0e fa 00                  	add	t4, s4, a5
800018ac: b3 0a 04 03                  	<unknown>
800018b0: b3 17 04 03                  	<unknown>
800018b4: 13 9b 87 00                  	slli	s6, a5, 8
800018b8: 93 d7 8a 01                  	srli	a5, s5, 24
800018bc: b3 e7 67 01                  	or	a5, a5, s6
800018c0: b3 8e fe 00                  	add	t4, t4, a5
800018c4: b3 87 f4 03                  	<unknown>
800018c8: b3 94 f4 03                  	<unknown>
800018cc: 93 94 84 00                  	slli	s1, s1, 8
800018d0: 93 d7 87 01                  	srli	a5, a5, 24
800018d4: b3 e7 97 00                  	or	a5, a5, s1
800018d8: 33 0a fa 00                  	add	s4, s4, a5
800018dc: b3 04 14 03                  	<unknown>
800018e0: 33 14 14 03                  	<unknown>
800018e4: 13 14 84 00                  	slli	s0, s0, 8
800018e8: 83 27 c7 06                  	lw	a5, 108(a4)
800018ec: 93 d4 84 01                  	srli	s1, s1, 24
800018f0: 33 e4 84 00                  	or	s0, s1, s0
800018f4: 33 0a 8a 00                  	add	s4, s4, s0
800018f8: b3 8a 27 03                  	<unknown>
800018fc: 33 94 27 03                  	<unknown>
80001900: 13 19 84 00                  	slli	s2, s0, 8
80001904: 83 24 47 07                  	lw	s1, 116(a4)
80001908: 03 27 07 07                  	lw	a4, 112(a4)
8000190c: 13 d4 8a 01                  	srli	s0, s5, 24
80001910: 33 64 24 01                  	or	s0, s0, s2
80001914: 33 89 84 00                  	add	s2, s1, s0
80001918: b3 0a 37 03                  	<unknown>
8000191c: 33 14 37 03                  	<unknown>
80001920: 93 19 84 00                  	slli	s3, s0, 8
80001924: 13 d4 8a 01                  	srli	s0, s5, 24
80001928: 33 64 34 01                  	or	s0, s0, s3
8000192c: 33 09 89 00                  	add	s2, s2, s0
80001930: b3 89 77 02                  	<unknown>
80001934: 33 94 77 02                  	<unknown>
80001938: 93 13 84 00                  	slli	t2, s0, 8
8000193c: 13 d4 89 01                  	srli	s0, s3, 24
80001940: 33 64 74 00                  	or	s0, s0, t2
80001944: b3 83 84 00                  	add	t2, s1, s0
80001948: b3 09 67 02                  	<unknown>
8000194c: 33 14 67 02                  	<unknown>
80001950: 13 13 84 00                  	slli	t1, s0, 8
80001954: 13 d4 89 01                  	srli	s0, s3, 24
80001958: 33 64 64 00                  	or	s0, s0, t1
8000195c: 33 83 83 00                  	add	t1, t2, s0
80001960: b3 83 c7 03                  	<unknown>
80001964: 33 94 c7 03                  	<unknown>
80001968: 13 1e 84 00                  	slli	t3, s0, 8
8000196c: 13 d4 83 01                  	srli	s0, t2, 24
80001970: 33 64 c4 01                  	or	s0, s0, t3
80001974: b3 83 84 00                  	add	t2, s1, s0
80001978: 33 0e 07 03                  	<unknown>
8000197c: 33 14 07 03                  	<unknown>
80001980: 13 18 84 00                  	slli	a6, s0, 8
80001984: 13 54 8e 01                  	srli	s0, t3, 24
80001988: 33 64 04 01                  	or	s0, s0, a6
8000198c: 33 88 83 00                  	add	a6, t2, s0
80001990: 33 84 f7 03                  	<unknown>
80001994: b3 97 f7 03                  	<unknown>
80001998: 93 97 87 00                  	slli	a5, a5, 8
8000199c: 13 54 84 01                  	srli	s0, s0, 24
800019a0: b3 67 f4 00                  	or	a5, s0, a5
800019a4: b3 87 f4 00                  	add	a5, s1, a5
800019a8: b3 04 17 03                  	<unknown>
800019ac: 33 17 17 03                  	<unknown>
800019b0: 13 17 87 00                  	slli	a4, a4, 8
800019b4: 93 d4 84 01                  	srli	s1, s1, 24
800019b8: 33 e7 e4 00                  	or	a4, s1, a4
800019bc: b3 87 e7 00                  	add	a5, a5, a4
800019c0: 13 d7 12 40                  	srai	a4, t0, 1
800019c4: 93 54 19 40                  	srai	s1, s2, 1
800019c8: 2b 07 97 00                  	vx_tex	a4, a4, s1, zero
800019cc: 23 28 e1 00                  	sw	a4, 16(sp)
800019d0: 93 54 1f 40                  	srai	s1, t5, 1
800019d4: 13 54 13 40                  	srai	s0, t1, 1
800019d8: ab 88 84 00                  	vx_tex	a7, s1, s0, zero
800019dc: 23 2a 11 01                  	sw	a7, 20(sp)
800019e0: 93 d4 1e 40                  	srai	s1, t4, 1
800019e4: 13 54 18 40                  	srai	s0, a6, 1
800019e8: 2b 88 84 00                  	vx_tex	a6, s1, s0, zero
800019ec: 23 2c 01 01                  	sw	a6, 24(sp)
800019f0: 93 54 1a 40                  	srai	s1, s4, 1
800019f4: 93 d7 17 40                  	srai	a5, a5, 1
800019f8: ab 87 f4 00                  	vx_tex	a5, s1, a5, zero
800019fc: 23 2e f1 00                  	sw	a5, 28(sp)
80001a00: 03 45 b5 02                  	lbu	a0, 43(a0)
80001a04: 63 0c 05 46                  	beqz	a0, 1144
80001a08: 93 52 88 01                  	srli	t0, a6, 24
80001a0c: 13 53 88 00                  	srli	t1, a6, 8
80001a10: 93 53 08 01                  	srli	t2, a6, 16
80001a14: 13 de 88 01                  	srli	t3, a7, 24
80001a18: 93 de 88 00                  	srli	t4, a7, 8
80001a1c: 13 df 08 01                  	srli	t5, a7, 16
80001a20: 93 54 87 01                  	srli	s1, a4, 24
80001a24: 03 24 01 07                  	lw	s0, 112(sp)
80001a28: 13 55 87 00                  	srli	a0, a4, 8
80001a2c: 93 57 07 01                  	srli	a5, a4, 16
80001a30: 93 f7 f7 0f                  	andi	a5, a5, 255
80001a34: b3 07 f4 02                  	<unknown>
80001a38: 03 24 01 06                  	lw	s0, 96(sp)
80001a3c: 93 d7 87 01                  	srli	a5, a5, 24
80001a40: 23 01 f1 00                  	sb	a5, 2(sp)
80001a44: 13 75 f5 0f                  	andi	a0, a0, 255
80001a48: 33 05 a4 02                  	<unknown>
80001a4c: 13 55 85 01                  	srli	a0, a0, 24
80001a50: 83 27 01 05                  	lw	a5, 80(sp)
80001a54: a3 00 a1 00                  	sb	a0, 1(sp)
80001a58: 13 75 f7 0f                  	andi	a0, a4, 255
80001a5c: 03 27 01 04                  	lw	a4, 64(sp)
80001a60: 33 85 a7 02                  	<unknown>
80001a64: 13 55 85 01                  	srli	a0, a0, 24
80001a68: 23 00 a1 00                  	sb	a0, 0(sp)
80001a6c: 33 05 97 02                  	<unknown>
80001a70: 03 27 41 07                  	lw	a4, 116(sp)
80001a74: 13 55 85 01                  	srli	a0, a0, 24
80001a78: a3 01 a1 00                  	sb	a0, 3(sp)
80001a7c: 13 75 ff 0f                  	andi	a0, t5, 255
80001a80: 33 05 a7 02                  	<unknown>
80001a84: 03 27 41 06                  	lw	a4, 100(sp)
80001a88: 13 55 85 01                  	srli	a0, a0, 24
80001a8c: 23 03 a1 00                  	sb	a0, 6(sp)
80001a90: 13 f5 fe 0f                  	andi	a0, t4, 255
80001a94: 33 05 a7 02                  	<unknown>
80001a98: 13 55 85 01                  	srli	a0, a0, 24
80001a9c: 03 27 41 05                  	lw	a4, 84(sp)
80001aa0: a3 02 a1 00                  	sb	a0, 5(sp)
80001aa4: 13 f5 f8 0f                  	andi	a0, a7, 255
80001aa8: 83 27 41 04                  	lw	a5, 68(sp)
80001aac: 33 05 a7 02                  	<unknown>
80001ab0: 13 55 85 01                  	srli	a0, a0, 24
80001ab4: 23 02 a1 00                  	sb	a0, 4(sp)
80001ab8: 33 85 c7 03                  	<unknown>
80001abc: 03 27 81 07                  	lw	a4, 120(sp)
80001ac0: 13 55 85 01                  	srli	a0, a0, 24
80001ac4: a3 03 a1 00                  	sb	a0, 7(sp)
80001ac8: 13 f5 f3 0f                  	andi	a0, t2, 255
80001acc: 33 05 a7 02                  	<unknown>
80001ad0: 03 27 81 06                  	lw	a4, 104(sp)
80001ad4: 13 55 85 01                  	srli	a0, a0, 24
80001ad8: 23 05 a1 00                  	sb	a0, 10(sp)
80001adc: 13 75 f3 0f                  	andi	a0, t1, 255
80001ae0: 33 05 a7 02                  	<unknown>
80001ae4: 13 55 85 01                  	srli	a0, a0, 24
80001ae8: 03 27 81 05                  	lw	a4, 88(sp)
80001aec: a3 04 a1 00                  	sb	a0, 9(sp)
80001af0: 13 75 f8 0f                  	andi	a0, a6, 255
80001af4: 83 27 81 04                  	lw	a5, 72(sp)
80001af8: 33 05 a7 02                  	<unknown>
80001afc: 13 55 85 01                  	srli	a0, a0, 24
80001b00: 23 04 a1 00                  	sb	a0, 8(sp)
80001b04: 33 85 57 02                  	<unknown>
80001b08: 13 55 85 01                  	srli	a0, a0, 24
80001b0c: 03 27 c1 07                  	lw	a4, 124(sp)
80001b10: 83 47 e1 01                  	lbu	a5, 30(sp)
80001b14: a3 05 a1 00                  	sb	a0, 11(sp)
80001b18: 03 25 c1 06                  	lw	a0, 108(sp)
80001b1c: 83 44 d1 01                  	lbu	s1, 29(sp)
80001b20: 33 07 f7 02                  	<unknown>
80001b24: 13 57 87 01                  	srli	a4, a4, 24
80001b28: 23 07 e1 00                  	sb	a4, 14(sp)
80001b2c: 33 05 95 02                  	<unknown>
80001b30: 13 55 85 01                  	srli	a0, a0, 24
80001b34: 03 27 c1 05                  	lw	a4, 92(sp)
80001b38: 83 47 c1 01                  	lbu	a5, 28(sp)
80001b3c: a3 06 a1 00                  	sb	a0, 13(sp)
80001b40: 03 25 c1 04                  	lw	a0, 76(sp)
80001b44: 83 44 f1 01                  	lbu	s1, 31(sp)
80001b48: 33 07 f7 02                  	<unknown>
80001b4c: 13 57 87 01                  	srli	a4, a4, 24
80001b50: 23 06 e1 00                  	sb	a4, 12(sp)
80001b54: 33 05 95 02                  	<unknown>
80001b58: 6f 00 c0 43                  	j	1084
80001b5c: 63 08 04 06                  	beqz	s0, 112
80001b60: 03 29 07 00                  	lw	s2, 0(a4)
80001b64: 93 04 80 07                  	addi	s1, zero, 120
80001b68: b3 84 97 02                  	<unknown>
80001b6c: b3 84 92 00                  	add	s1, t0, s1
80001b70: 03 a4 c4 02                  	lw	s0, 44(s1)
80001b74: 2b 29 e9 47                  	<unknown>
80001b78: 03 a4 84 02                  	lw	s0, 40(s1)
80001b7c: 2b 24 d4 97                  	<unknown>
80001b80: 23 20 81 08                  	sw	s0, 128(sp)
80001b84: 03 29 07 00                  	lw	s2, 0(a4)
80001b88: 03 a4 c4 02                  	lw	s0, 44(s1)
80001b8c: 2b 29 79 46                  	<unknown>
80001b90: 03 a4 84 02                  	lw	s0, 40(s1)
80001b94: 2b 24 64 96                  	<unknown>
80001b98: 23 22 81 08                  	sw	s0, 132(sp)
80001b9c: 03 29 07 00                  	lw	s2, 0(a4)
80001ba0: 03 a4 c4 02                  	lw	s0, 44(s1)
80001ba4: 2b 29 c9 47                  	<unknown>
80001ba8: 03 a4 84 02                  	lw	s0, 40(s1)
80001bac: 2b 24 04 97                  	<unknown>
80001bb0: 23 24 81 08                  	sw	s0, 136(sp)
80001bb4: 03 27 07 00                  	lw	a4, 0(a4)
80001bb8: 03 a4 c4 02                  	lw	s0, 44(s1)
80001bbc: 2b 27 f7 47                  	<unknown>
80001bc0: 03 a4 84 02                  	lw	s0, 40(s1)
80001bc4: 2b 27 14 77                  	<unknown>
80001bc8: 23 26 e1 08                  	sw	a4, 140(sp)
80001bcc: 03 47 95 02                  	lbu	a4, 41(a0)
80001bd0: 63 0e 07 18                  	beqz	a4, 412
80001bd4: 13 07 80 07                  	addi	a4, zero, 120
80001bd8: 33 87 e7 02                  	<unknown>
80001bdc: 33 87 e2 00                  	add	a4, t0, a4
80001be0: 03 24 07 03                  	lw	s0, 48(a4)
80001be4: 83 24 87 03                  	lw	s1, 56(a4)
80001be8: 2b 24 e4 4f                  	<unknown>
80001bec: 83 24 47 03                  	lw	s1, 52(a4)
80001bf0: 2b a4 d4 47                  	<unknown>
80001bf4: 23 28 81 06                  	sw	s0, 112(sp)
80001bf8: 03 24 07 03                  	lw	s0, 48(a4)
80001bfc: 83 24 87 03                  	lw	s1, 56(a4)
80001c00: 2b 24 74 4e                  	<unknown>
80001c04: 83 24 47 03                  	lw	s1, 52(a4)
80001c08: 2b a4 64 46                  	<unknown>
80001c0c: 23 2a 81 06                  	sw	s0, 116(sp)
80001c10: 03 24 07 03                  	lw	s0, 48(a4)
80001c14: 83 24 87 03                  	lw	s1, 56(a4)
80001c18: 2b 24 c4 4f                  	<unknown>
80001c1c: 83 24 47 03                  	lw	s1, 52(a4)
80001c20: 2b a4 04 47                  	<unknown>
80001c24: 23 2c 81 06                  	sw	s0, 120(sp)
80001c28: 03 24 07 03                  	lw	s0, 48(a4)
80001c2c: 83 24 87 03                  	lw	s1, 56(a4)
80001c30: 2b 24 f4 4f                  	<unknown>
80001c34: 83 24 47 03                  	lw	s1, 52(a4)
80001c38: 2b a4 14 47                  	<unknown>
80001c3c: 23 2e 81 06                  	sw	s0, 124(sp)
80001c40: 03 24 c7 03                  	lw	s0, 60(a4)
80001c44: 83 24 47 04                  	lw	s1, 68(a4)
80001c48: 2b 24 e4 4f                  	<unknown>
80001c4c: 83 24 07 04                  	lw	s1, 64(a4)
80001c50: 2b a4 d4 47                  	<unknown>
80001c54: 23 20 81 06                  	sw	s0, 96(sp)
80001c58: 03 24 c7 03                  	lw	s0, 60(a4)
80001c5c: 83 24 47 04                  	lw	s1, 68(a4)
80001c60: 2b 24 74 4e                  	<unknown>
80001c64: 83 24 07 04                  	lw	s1, 64(a4)
80001c68: 2b a4 64 46                  	<unknown>
80001c6c: 23 22 81 06                  	sw	s0, 100(sp)
80001c70: 03 24 c7 03                  	lw	s0, 60(a4)
80001c74: 83 24 47 04                  	lw	s1, 68(a4)
80001c78: 2b 24 c4 4f                  	<unknown>
80001c7c: 83 24 07 04                  	lw	s1, 64(a4)
80001c80: 2b a4 04 47                  	<unknown>
80001c84: 23 24 81 06                  	sw	s0, 104(sp)
80001c88: 03 24 c7 03                  	lw	s0, 60(a4)
80001c8c: 83 24 47 04                  	lw	s1, 68(a4)
80001c90: 2b 24 f4 4f                  	<unknown>
80001c94: 83 24 07 04                  	lw	s1, 64(a4)
80001c98: 2b a4 14 47                  	<unknown>
80001c9c: 23 26 81 06                  	sw	s0, 108(sp)
80001ca0: 03 24 87 04                  	lw	s0, 72(a4)
80001ca4: 83 24 07 05                  	lw	s1, 80(a4)
80001ca8: 2b 24 e4 4f                  	<unknown>
80001cac: 83 24 c7 04                  	lw	s1, 76(a4)
80001cb0: 2b a4 d4 47                  	<unknown>
80001cb4: 23 28 81 04                  	sw	s0, 80(sp)
80001cb8: 03 24 87 04                  	lw	s0, 72(a4)
80001cbc: 83 24 07 05                  	lw	s1, 80(a4)
80001cc0: 2b 24 74 4e                  	<unknown>
80001cc4: 83 24 c7 04                  	lw	s1, 76(a4)
80001cc8: 2b a4 64 46                  	<unknown>
80001ccc: 23 2a 81 04                  	sw	s0, 84(sp)
80001cd0: 03 24 87 04                  	lw	s0, 72(a4)
80001cd4: 83 24 07 05                  	lw	s1, 80(a4)
80001cd8: 2b 24 c4 4f                  	<unknown>
80001cdc: 83 24 c7 04                  	lw	s1, 76(a4)
80001ce0: ab a4 04 47                  	<unknown>
80001ce4: 23 2c 91 04                  	sw	s1, 88(sp)
80001ce8: 83 24 87 04                  	lw	s1, 72(a4)
80001cec: 03 24 07 05                  	lw	s0, 80(a4)
80001cf0: ab a4 f4 47                  	<unknown>
80001cf4: 03 24 c7 04                  	lw	s0, 76(a4)
80001cf8: ab 24 14 4f                  	<unknown>
80001cfc: 23 2e 91 04                  	sw	s1, 92(sp)
80001d00: 83 24 47 05                  	lw	s1, 84(a4)
80001d04: 03 24 c7 05                  	lw	s0, 92(a4)
80001d08: ab a4 e4 47                  	<unknown>
80001d0c: 03 24 87 05                  	lw	s0, 88(a4)
80001d10: ab 24 d4 4f                  	<unknown>
80001d14: 23 20 91 04                  	sw	s1, 64(sp)
80001d18: 83 24 47 05                  	lw	s1, 84(a4)
80001d1c: 03 24 c7 05                  	lw	s0, 92(a4)
80001d20: ab a4 74 46                  	<unknown>
80001d24: 03 24 87 05                  	lw	s0, 88(a4)
80001d28: ab 24 64 4e                  	<unknown>
80001d2c: 23 22 91 04                  	sw	s1, 68(sp)
80001d30: 83 24 47 05                  	lw	s1, 84(a4)
80001d34: 03 24 c7 05                  	lw	s0, 92(a4)
80001d38: ab a4 c4 47                  	<unknown>
80001d3c: 03 24 87 05                  	lw	s0, 88(a4)
80001d40: 03 28 81 02                  	lw	a6, 40(sp)
80001d44: ab 24 04 4f                  	<unknown>
80001d48: 23 24 91 04                  	sw	s1, 72(sp)
80001d4c: 83 24 47 05                  	lw	s1, 84(a4)
80001d50: 83 2f c1 03                  	lw	t6, 60(sp)
80001d54: 03 24 c7 05                  	lw	s0, 92(a4)
80001d58: ab a4 f4 47                  	<unknown>
80001d5c: 03 27 87 05                  	lw	a4, 88(a4)
80001d60: 83 28 c1 02                  	lw	a7, 44(sp)
80001d64: 2b 27 17 4f                  	<unknown>
80001d68: 23 26 e1 04                  	sw	a4, 76(sp)
80001d6c: 03 47 a5 02                  	lbu	a4, 42(a0)
80001d70: 63 04 07 12                  	beqz	a4, 296
80001d74: 13 07 80 07                  	addi	a4, zero, 120
80001d78: 33 87 e7 02                  	<unknown>
80001d7c: 33 87 e2 00                  	add	a4, t0, a4
80001d80: 83 27 07 06                  	lw	a5, 96(a4)
80001d84: 83 22 01 03                  	lw	t0, 48(sp)
80001d88: 03 24 87 06                  	lw	s0, 104(a4)
80001d8c: ab a7 57 46                  	<unknown>
80001d90: 03 24 47 06                  	lw	s0, 100(a4)
80001d94: 83 24 01 02                  	lw	s1, 32(sp)
80001d98: 2b 23 94 7e                  	<unknown>
80001d9c: 03 24 07 06                  	lw	s0, 96(a4)
80001da0: 83 23 41 03                  	lw	t2, 52(sp)
80001da4: 83 27 87 06                  	lw	a5, 104(a4)
80001da8: ab 27 74 7e                  	<unknown>
80001dac: 03 24 47 06                  	lw	s0, 100(a4)
80001db0: 03 2e 41 02                  	lw	t3, 36(sp)
80001db4: ab 2e c4 7f                  	<unknown>
80001db8: 03 24 07 06                  	lw	s0, 96(a4)
80001dbc: 03 2f 81 03                  	lw	t5, 56(sp)
80001dc0: 83 27 87 06                  	lw	a5, 104(a4)
80001dc4: ab 27 e4 7f                  	<unknown>
80001dc8: 03 24 47 06                  	lw	s0, 100(a4)
80001dcc: 2b 29 04 7f                  	<unknown>
80001dd0: 03 24 07 06                  	lw	s0, 96(a4)
80001dd4: 83 27 87 06                  	lw	a5, 104(a4)
80001dd8: ab 27 f4 7f                  	<unknown>
80001ddc: 03 24 47 06                  	lw	s0, 100(a4)
80001de0: ab 29 14 7f                  	<unknown>
80001de4: 03 24 c7 06                  	lw	s0, 108(a4)
80001de8: 83 27 47 07                  	lw	a5, 116(a4)
80001dec: ab 27 54 7e                  	<unknown>
80001df0: 03 24 07 07                  	lw	s0, 112(a4)
80001df4: ab 22 94 7e                  	<unknown>
80001df8: 83 24 c7 06                  	lw	s1, 108(a4)
80001dfc: 03 24 47 07                  	lw	s0, 116(a4)
80001e00: ab a4 74 46                  	<unknown>
80001e04: 03 24 07 07                  	lw	s0, 112(a4)
80001e08: ab 23 c4 4f                  	<unknown>
80001e0c: 03 24 c7 06                  	lw	s0, 108(a4)
80001e10: 83 27 47 07                  	lw	a5, 116(a4)
80001e14: ab 27 e4 7f                  	<unknown>
80001e18: 03 24 07 07                  	lw	s0, 112(a4)
80001e1c: 2b 28 04 7f                  	<unknown>
80001e20: 03 24 c7 06                  	lw	s0, 108(a4)
80001e24: 83 24 47 07                  	lw	s1, 116(a4)
80001e28: ab 24 f4 4f                  	<unknown>
80001e2c: 03 27 07 07                  	lw	a4, 112(a4)
80001e30: ab 24 17 4f                  	<unknown>
80001e34: 13 57 13 40                  	srai	a4, t1, 1
80001e38: 13 d4 12 40                  	srai	s0, t0, 1
80001e3c: 2b 07 87 00                  	vx_tex	a4, a4, s0, zero
80001e40: 23 28 e1 00                  	sw	a4, 16(sp)
80001e44: 13 d4 1e 40                  	srai	s0, t4, 1
80001e48: 93 d7 13 40                  	srai	a5, t2, 1
80001e4c: ab 08 f4 00                  	vx_tex	a7, s0, a5, zero
80001e50: 23 2a 11 01                  	sw	a7, 20(sp)
80001e54: 93 57 19 40                  	srai	a5, s2, 1
80001e58: 13 54 18 40                  	srai	s0, a6, 1
80001e5c: 2b 88 87 00                  	vx_tex	a6, a5, s0, zero
80001e60: 23 2c 01 01                  	sw	a6, 24(sp)
80001e64: 93 d7 19 40                  	srai	a5, s3, 1
80001e68: 93 d4 14 40                  	srai	s1, s1, 1
80001e6c: ab 87 97 00                  	vx_tex	a5, a5, s1, zero
80001e70: 23 2e f1 00                  	sw	a5, 28(sp)
80001e74: 03 45 b5 02                  	lbu	a0, 43(a0)
80001e78: e3 18 05 b8                  	bnez	a0, -1136
80001e7c: 23 20 e1 00                  	sw	a4, 0(sp)
80001e80: 23 22 11 01                  	sw	a7, 4(sp)
80001e84: 23 24 01 01                  	sw	a6, 8(sp)
80001e88: 23 26 f1 00                  	sw	a5, 12(sp)
80001e8c: 13 f5 16 00                  	andi	a0, a3, 1
80001e90: 63 1a 05 10                  	bnez	a0, 276
80001e94: 6f 00 80 12                  	j	296
80001e98: 03 25 01 07                  	lw	a0, 112(sp)
80001e9c: 13 07 f0 0f                  	addi	a4, zero, 255
80001ea0: 83 27 01 06                  	lw	a5, 96(sp)
80001ea4: 33 05 e5 02                  	<unknown>
80001ea8: 13 55 85 01                  	srli	a0, a0, 24
80001eac: 23 01 a1 00                  	sb	a0, 2(sp)
80001eb0: 33 85 e7 02                  	<unknown>
80001eb4: 83 27 01 05                  	lw	a5, 80(sp)
80001eb8: 13 55 85 01                  	srli	a0, a0, 24
80001ebc: a3 00 a1 00                  	sb	a0, 1(sp)
80001ec0: 03 25 01 04                  	lw	a0, 64(sp)
80001ec4: b3 87 e7 02                  	<unknown>
80001ec8: 93 d7 87 01                  	srli	a5, a5, 24
80001ecc: 23 00 f1 00                  	sb	a5, 0(sp)
80001ed0: 33 05 e5 02                  	<unknown>
80001ed4: 83 27 41 07                  	lw	a5, 116(sp)
80001ed8: 13 55 85 01                  	srli	a0, a0, 24
80001edc: a3 01 a1 00                  	sb	a0, 3(sp)
80001ee0: 03 25 41 06                  	lw	a0, 100(sp)
80001ee4: b3 87 e7 02                  	<unknown>
80001ee8: 93 d7 87 01                  	srli	a5, a5, 24
80001eec: 23 03 f1 00                  	sb	a5, 6(sp)
80001ef0: 33 05 e5 02                  	<unknown>
80001ef4: 83 27 41 05                  	lw	a5, 84(sp)
80001ef8: 13 55 85 01                  	srli	a0, a0, 24
80001efc: a3 02 a1 00                  	sb	a0, 5(sp)
80001f00: 03 25 41 04                  	lw	a0, 68(sp)
80001f04: b3 87 e7 02                  	<unknown>
80001f08: 93 d7 87 01                  	srli	a5, a5, 24
80001f0c: 23 02 f1 00                  	sb	a5, 4(sp)
80001f10: 33 05 e5 02                  	<unknown>
80001f14: 83 27 81 07                  	lw	a5, 120(sp)
80001f18: 13 55 85 01                  	srli	a0, a0, 24
80001f1c: a3 03 a1 00                  	sb	a0, 7(sp)
80001f20: 03 25 81 06                  	lw	a0, 104(sp)
80001f24: b3 87 e7 02                  	<unknown>
80001f28: 93 d7 87 01                  	srli	a5, a5, 24
80001f2c: 23 05 f1 00                  	sb	a5, 10(sp)
80001f30: 33 05 e5 02                  	<unknown>
80001f34: 83 27 81 05                  	lw	a5, 88(sp)
80001f38: 13 55 85 01                  	srli	a0, a0, 24
80001f3c: a3 04 a1 00                  	sb	a0, 9(sp)
80001f40: 03 25 81 04                  	lw	a0, 72(sp)
80001f44: b3 87 e7 02                  	<unknown>
80001f48: 93 d7 87 01                  	srli	a5, a5, 24
80001f4c: 23 04 f1 00                  	sb	a5, 8(sp)
80001f50: 33 05 e5 02                  	<unknown>
80001f54: 83 27 c1 07                  	lw	a5, 124(sp)
80001f58: 13 55 85 01                  	srli	a0, a0, 24
80001f5c: a3 05 a1 00                  	sb	a0, 11(sp)
80001f60: 03 25 c1 06                  	lw	a0, 108(sp)
80001f64: b3 87 e7 02                  	<unknown>
80001f68: 93 d7 87 01                  	srli	a5, a5, 24
80001f6c: 23 07 f1 00                  	sb	a5, 14(sp)
80001f70: 33 05 e5 02                  	<unknown>
80001f74: 83 27 c1 05                  	lw	a5, 92(sp)
80001f78: 13 55 85 01                  	srli	a0, a0, 24
80001f7c: a3 06 a1 00                  	sb	a0, 13(sp)
80001f80: 03 25 c1 04                  	lw	a0, 76(sp)
80001f84: b3 87 e7 02                  	<unknown>
80001f88: 93 d7 87 01                  	srli	a5, a5, 24
80001f8c: 23 06 f1 00                  	sb	a5, 12(sp)
80001f90: 33 05 e5 02                  	<unknown>
80001f94: 13 55 85 01                  	srli	a0, a0, 24
80001f98: a3 07 a1 00                  	sb	a0, 15(sp)
80001f9c: 13 f5 16 00                  	andi	a0, a3, 1
80001fa0: 63 0e 05 00                  	beqz	a0, 28
80001fa4: 03 25 01 00                  	lw	a0, 0(sp)
80001fa8: 03 27 01 08                  	lw	a4, 128(sp)
80001fac: 93 17 16 01                  	slli	a5, a2, 17
80001fb0: 93 94 25 00                  	slli	s1, a1, 2
80001fb4: b3 e7 97 00                  	or	a5, a5, s1
80001fb8: 2b 90 a7 72                  	vx_imadd	zero, a5, a0, a4, 1
80001fbc: 13 f5 26 00                  	andi	a0, a3, 2
80001fc0: 63 1e 05 04                  	bnez	a0, 92
80001fc4: 13 f5 46 00                  	andi	a0, a3, 4
80001fc8: 63 1c 05 06                  	bnez	a0, 120
80001fcc: 13 f5 86 00                  	andi	a0, a3, 8
80001fd0: 63 04 05 02                  	beqz	a0, 40
80001fd4: 13 15 16 01                  	slli	a0, a2, 17
80001fd8: 93 95 25 00                  	slli	a1, a1, 2
80001fdc: 33 e5 a5 00                  	or	a0, a1, a0
80001fe0: 83 25 c1 00                  	lw	a1, 12(sp)
80001fe4: 03 26 c1 08                  	lw	a2, 140(sp)
80001fe8: b7 06 01 00                  	lui	a3, 16
80001fec: 93 86 26 00                  	addi	a3, a3, 2
80001ff0: 33 65 d5 00                  	or	a0, a0, a3
80001ff4: 2b 10 b5 62                  	vx_imadd	zero, a0, a1, a2, 1
80001ff8: 03 2b 41 09                  	lw	s6, 148(sp)
80001ffc: 83 2a 81 09                  	lw	s5, 152(sp)
80002000: 03 2a c1 09                  	lw	s4, 156(sp)
80002004: 83 29 01 0a                  	lw	s3, 160(sp)
80002008: 03 29 41 0a                  	lw	s2, 164(sp)
8000200c: 83 24 81 0a                  	lw	s1, 168(sp)
80002010: 03 24 c1 0a                  	lw	s0, 172(sp)
80002014: 13 01 01 0b                  	addi	sp, sp, 176
80002018: 67 80 00 00                  	ret
8000201c: 13 15 16 01                  	slli	a0, a2, 17
80002020: 03 27 41 00                  	lw	a4, 4(sp)
80002024: 83 27 41 08                  	lw	a5, 132(sp)
80002028: 93 94 25 00                  	slli	s1, a1, 2
8000202c: 33 e5 a4 00                  	or	a0, s1, a0
80002030: 13 65 25 00                  	ori	a0, a0, 2
80002034: 2b 10 e5 7a                  	vx_imadd	zero, a0, a4, a5, 1
80002038: 13 f5 46 00                  	andi	a0, a3, 4
8000203c: e3 08 05 f8                  	beqz	a0, -112
80002040: 13 15 16 01                  	slli	a0, a2, 17
80002044: 13 97 25 00                  	slli	a4, a1, 2
80002048: 83 27 81 00                  	lw	a5, 8(sp)
8000204c: 83 24 81 08                  	lw	s1, 136(sp)
80002050: 33 65 a7 00                  	or	a0, a4, a0
80002054: 37 07 01 00                  	lui	a4, 16
80002058: 33 65 e5 00                  	or	a0, a0, a4
8000205c: 2b 10 f5 4a                  	vx_imadd	zero, a0, a5, s1, 1
80002060: 13 f5 86 00                  	andi	a0, a3, 8
80002064: e3 18 05 f6                  	bnez	a0, -144
80002068: 6f f0 1f f9                  	j	-112

8000206c _Z18shader_function_swiP12kernel_arg_t:
8000206c: 83 a5 c5 08                  	lw	a1, 140(a1)
80002070: 13 06 05 00                  	mv	a2, a0
80002074: 13 85 05 00                  	mv	a0, a1
80002078: 93 05 06 00                  	mv	a1, a2
8000207c: 6f 00 50 5b                  	j	3508

80002080 main:
80002080: 13 01 01 f4                  	addi	sp, sp, -192
80002084: 23 2e 11 0a                  	sw	ra, 188(sp)
80002088: 23 2c 81 0a                  	sw	s0, 184(sp)
8000208c: 23 2a 91 0a                  	sw	s1, 180(sp)
80002090: b7 f5 ff 7f                  	lui	a1, 524287
80002094: 83 a8 05 00                  	lw	a7, 0(a1)
80002098: 13 05 50 00                  	addi	a0, zero, 5
8000209c: 23 22 a1 00                  	sw	a0, 4(sp)
800020a0: 13 05 20 00                  	addi	a0, zero, 2
800020a4: 23 24 a1 00                  	sw	a0, 8(sp)
800020a8: 03 a5 45 03                  	lw	a0, 52(a1)
800020ac: 23 26 a1 00                  	sw	a0, 12(sp)
800020b0: 03 a5 05 03                  	lw	a0, 48(a1)
800020b4: 23 28 a1 00                  	sw	a0, 16(sp)
800020b8: 03 a5 85 03                  	lw	a0, 56(a1)
800020bc: 23 2a a1 00                  	sw	a0, 20(sp)
800020c0: 03 a5 c5 03                  	lw	a0, 60(a1)
800020c4: 23 2c a1 00                  	sw	a0, 24(sp)
800020c8: 03 a5 05 04                  	lw	a0, 64(a1)
800020cc: 37 06 01 00                  	lui	a2, 16
800020d0: 13 06 f6 ff                  	addi	a2, a2, -1
800020d4: b3 76 c5 00                  	and	a3, a0, a2
800020d8: 23 2e d1 00                  	sw	a3, 28(sp)
800020dc: 13 55 05 01                  	srli	a0, a0, 16
800020e0: 23 20 a1 02                  	sw	a0, 32(sp)
800020e4: 13 85 36 00                  	addi	a0, a3, 3
800020e8: 13 55 25 00                  	srli	a0, a0, 2
800020ec: 23 26 a1 02                  	sw	a0, 44(sp)
800020f0: 23 28 11 03                  	sw	a7, 48(sp)
800020f4: 03 a5 05 05                  	lw	a0, 80(a1)
800020f8: 23 2a a1 02                  	sw	a0, 52(sp)
800020fc: 03 a5 45 05                  	lw	a0, 84(a1)
80002100: 23 2c a1 02                  	sw	a0, 56(sp)
80002104: 03 ae 85 05                  	lw	t3, 88(a1)
80002108: 23 2e c1 03                  	sw	t3, 60(sp)
8000210c: 03 c5 c5 05                  	lbu	a0, 92(a1)
80002110: 93 72 15 00                  	andi	t0, a0, 1
80002114: 23 00 51 04                  	sb	t0, 64(sp)
80002118: 83 a3 05 06                  	lw	t2, 96(a1)
8000211c: 33 f5 c3 00                  	and	a0, t2, a2
80002120: 23 22 a1 04                  	sw	a0, 68(sp)
80002124: 83 af 45 06                  	lw	t6, 100(a1)
80002128: 33 f5 cf 00                  	and	a0, t6, a2
8000212c: 23 24 a1 04                  	sw	a0, 72(sp)
80002130: 83 a4 85 06                  	lw	s1, 104(a1)
80002134: 33 f7 c4 00                  	and	a4, s1, a2
80002138: 23 26 e1 04                  	sw	a4, 76(sp)
8000213c: 83 a7 c5 06                  	lw	a5, 108(a1)
80002140: 33 f7 c7 00                  	and	a4, a5, a2
80002144: 23 28 e1 04                  	sw	a4, 80(sp)
80002148: 03 a7 05 07                  	lw	a4, 112(a1)
8000214c: b3 76 c7 00                  	and	a3, a4, a2
80002150: 23 2e d1 04                  	sw	a3, 92(sp)
80002154: 83 a6 45 07                  	lw	a3, 116(a1)
80002158: 33 f5 c6 00                  	and	a0, a3, a2
8000215c: 23 2a a1 04                  	sw	a0, 84(sp)
80002160: 03 a5 85 07                  	lw	a0, 120(a1)
80002164: 33 74 c5 00                  	and	s0, a0, a2
80002168: 23 2c 81 04                  	sw	s0, 88(sp)
8000216c: 13 d3 03 01                  	srli	t1, t2, 16
80002170: 23 20 61 06                  	sw	t1, 96(sp)
80002174: 93 de 0f 01                  	srli	t4, t6, 16
80002178: 23 22 d1 07                  	sw	t4, 100(sp)
8000217c: 13 df 04 01                  	srli	t5, s1, 16
80002180: 23 24 e1 07                  	sw	t5, 104(sp)
80002184: 93 d7 07 01                  	srli	a5, a5, 16
80002188: 23 26 f1 06                  	sw	a5, 108(sp)
8000218c: 13 57 07 01                  	srli	a4, a4, 16
80002190: 23 2a e1 06                  	sw	a4, 116(sp)
80002194: 93 d6 06 01                  	srli	a3, a3, 16
80002198: 23 28 d1 06                  	sw	a3, 112(sp)
8000219c: 13 55 05 01                  	srli	a0, a0, 16
800021a0: 23 2c a1 06                  	sw	a0, 120(sp)
800021a4: 13 08 10 00                  	addi	a6, zero, 1
800021a8: 63 04 0e 00                  	beqz	t3, 8
800021ac: 93 02 10 00                  	addi	t0, zero, 1
800021b0: 23 0e 51 06                  	sb	t0, 124(sp)
800021b4: 33 e5 7f 00                  	or	a0, t6, t2
800021b8: 33 65 95 00                  	or	a0, a0, s1
800021bc: 33 75 c5 00                  	and	a0, a0, a2
800021c0: 33 35 a0 00                  	snez	a0, a0
800021c4: a3 0e a1 06                  	sb	a0, 125(sp)
800021c8: 33 e5 6e 00                  	or	a0, t4, t1
800021cc: 33 65 e5 01                  	or	a0, a0, t5
800021d0: 33 35 a0 00                  	snez	a0, a0
800021d4: 23 0f a1 06                  	sb	a0, 126(sp)
800021d8: 03 a5 45 04                  	lw	a0, 68(a1)
800021dc: 23 20 a1 08                  	sw	a0, 128(sp)
800021e0: 03 a5 85 04                  	lw	a0, 72(a1)
800021e4: 23 22 a1 08                  	sw	a0, 132(sp)
800021e8: 03 a5 c5 04                  	lw	a0, 76(a1)
800021ec: 13 75 f5 00                  	andi	a0, a0, 15
800021f0: 23 24 a1 08                  	sw	a0, 136(sp)
800021f4: 03 a5 c5 07                  	lw	a0, 124(a1)
800021f8: 33 76 c5 00                  	and	a2, a0, a2
800021fc: 23 26 c1 08                  	sw	a2, 140(sp)
80002200: 13 55 05 01                  	srli	a0, a0, 16
80002204: 23 28 a1 08                  	sw	a0, 144(sp)
80002208: 83 a6 05 08                  	lw	a3, 128(a1)
8000220c: 13 f7 f6 0f                  	andi	a4, a3, 255
80002210: 23 2a e1 08                  	sw	a4, 148(sp)
80002214: 93 d7 86 00                  	srli	a5, a3, 8
80002218: 93 f7 f7 0f                  	andi	a5, a5, 255
8000221c: 23 2c f1 08                  	sw	a5, 152(sp)
80002220: 93 d4 06 01                  	srli	s1, a3, 16
80002224: 93 f4 f4 0f                  	andi	s1, s1, 255
80002228: 23 2e 91 08                  	sw	s1, 156(sp)
8000222c: 93 d6 86 01                  	srli	a3, a3, 24
80002230: 23 20 d1 0a                  	sw	a3, 160(sp)
80002234: 03 a4 45 08                  	lw	s0, 132(a1)
80002238: 23 22 81 0a                  	sw	s0, 164(sp)
8000223c: 03 a4 85 08                  	lw	s0, 136(a1)
80002240: 23 24 81 0a                  	sw	s0, 168(sp)
80002244: 33 65 c5 00                  	or	a0, a0, a2
80002248: 13 46 17 00                  	xori	a2, a4, 1
8000224c: 33 65 c5 00                  	or	a0, a0, a2
80002250: 13 c6 17 00                  	xori	a2, a5, 1
80002254: b3 e6 d4 00                  	or	a3, s1, a3
80002258: 33 65 c5 00                  	or	a0, a0, a2
8000225c: 33 e5 a6 00                  	or	a0, a3, a0
80002260: 33 35 a0 00                  	snez	a0, a0
80002264: 23 06 a1 0a                  	sb	a0, 172(sp)
80002268: 03 c5 c5 02                  	lbu	a0, 44(a1)
8000226c: 13 06 01 00                  	mv	a2, sp
80002270: 23 a6 c5 08                  	sw	a2, 140(a1)
80002274: 63 08 05 00                  	beqz	a0, 16
80002278: 37 25 00 80                  	lui	a0, 524290
8000227c: 93 05 c5 06                  	addi	a1, a0, 108
80002280: 6f 00 c0 00                  	j	12
80002284: 37 05 00 80                  	lui	a0, 524288
80002288: 93 05 85 06                  	addi	a1, a0, 104
8000228c: 33 15 18 01                  	sll	a0, a6, a7
80002290: 37 f6 ff 7f                  	lui	a2, 524287
80002294: ef 10 40 71                  	jal	5908
80002298: 13 05 00 00                  	mv	a0, zero
8000229c: 83 24 41 0b                  	lw	s1, 180(sp)
800022a0: 03 24 81 0b                  	lw	s0, 184(sp)
800022a4: 83 20 c1 0b                  	lw	ra, 188(sp)
800022a8: 13 01 01 0c                  	addi	sp, sp, 192
800022ac: 67 80 00 00                  	ret

800022b0 _ZN7Blender5writeEjjj:
800022b0: 13 01 01 fd                  	addi	sp, sp, -48
800022b4: 23 26 11 02                  	sw	ra, 44(sp)
800022b8: 23 24 81 02                  	sw	s0, 40(sp)
800022bc: 23 22 91 02                  	sw	s1, 36(sp)
800022c0: 23 20 21 03                  	sw	s2, 32(sp)
800022c4: 23 2e 31 01                  	sw	s3, 28(sp)
800022c8: 23 2c 41 01                  	sw	s4, 24(sp)
800022cc: 23 2a 51 01                  	sw	s5, 20(sp)
800022d0: 23 28 61 01                  	sw	s6, 16(sp)
800022d4: 23 26 71 01                  	sw	s7, 12(sp)
800022d8: 23 24 81 01                  	sw	s8, 8(sp)
800022dc: 13 04 05 00                  	mv	s0, a0
800022e0: 03 25 85 00                  	lw	a0, 8(a0)
800022e4: 63 00 05 16                  	beqz	a0, 352
800022e8: 93 89 06 00                  	mv	s3, a3
800022ec: 83 26 44 00                  	lw	a3, 4(s0)
800022f0: 03 27 04 00                  	lw	a4, 0(s0)
800022f4: 33 86 c6 02                  	<unknown>
800022f8: 93 95 25 00                  	slli	a1, a1, 2
800022fc: b3 05 b7 00                  	add	a1, a4, a1
80002300: 33 8c c5 00                  	add	s8, a1, a2
80002304: 83 45 c4 02                  	lbu	a1, 44(s0)
80002308: 03 29 0c 00                  	lw	s2, 0(s8)
8000230c: 63 8a 05 0c                  	beqz	a1, 212
80002310: 83 24 44 02                  	lw	s1, 36(s0)
80002314: 03 25 44 01                  	lw	a0, 20(s0)
80002318: 93 85 09 00                  	mv	a1, s3
8000231c: 13 06 09 00                  	mv	a2, s2
80002320: 93 86 04 00                  	mv	a3, s1
80002324: ef 00 80 45                  	jal	1112
80002328: 83 25 84 01                  	lw	a1, 24(s0)
8000232c: 13 0a 05 00                  	mv	s4, a0
80002330: 13 85 05 00                  	mv	a0, a1
80002334: 93 85 09 00                  	mv	a1, s3
80002338: 13 06 09 00                  	mv	a2, s2
8000233c: 93 86 04 00                  	mv	a3, s1
80002340: ef 00 c0 43                  	jal	1084
80002344: 83 25 c4 01                  	lw	a1, 28(s0)
80002348: 93 0a 05 00                  	mv	s5, a0
8000234c: 13 85 05 00                  	mv	a0, a1
80002350: 93 85 09 00                  	mv	a1, s3
80002354: 13 06 09 00                  	mv	a2, s2
80002358: 93 86 04 00                  	mv	a3, s1
8000235c: ef 00 00 42                  	jal	1056
80002360: 83 25 04 02                  	lw	a1, 32(s0)
80002364: 13 0b 05 00                  	mv	s6, a0
80002368: 13 85 05 00                  	mv	a0, a1
8000236c: 93 85 09 00                  	mv	a1, s3
80002370: 13 06 09 00                  	mv	a2, s2
80002374: 93 86 04 00                  	mv	a3, s1
80002378: ef 00 40 40                  	jal	1028
8000237c: 03 26 c4 00                  	lw	a2, 12(s0)
80002380: 83 25 84 02                  	lw	a1, 40(s0)
80002384: 93 0b 05 00                  	mv	s7, a0
80002388: 13 05 06 00                  	mv	a0, a2
8000238c: 13 86 09 00                  	mv	a2, s3
80002390: 93 06 09 00                  	mv	a3, s2
80002394: 13 07 0a 00                  	mv	a4, s4
80002398: 93 07 0b 00                  	mv	a5, s6
8000239c: ef 00 80 5c                  	jal	1480
800023a0: 03 26 04 01                  	lw	a2, 16(s0)
800023a4: 83 25 84 02                  	lw	a1, 40(s0)
800023a8: 93 04 05 00                  	mv	s1, a0
800023ac: 13 05 06 00                  	mv	a0, a2
800023b0: 13 86 09 00                  	mv	a2, s3
800023b4: 93 06 09 00                  	mv	a3, s2
800023b8: 13 87 0a 00                  	mv	a4, s5
800023bc: 93 87 0b 00                  	mv	a5, s7
800023c0: ef 00 40 5a                  	jal	1444
800023c4: b7 05 00 ff                  	lui	a1, 1044480
800023c8: b3 75 b5 00                  	and	a1, a0, a1
800023cc: 37 06 00 01                  	lui	a2, 4096
800023d0: 03 25 84 00                  	lw	a0, 8(s0)
800023d4: 13 06 f6 ff                  	addi	a2, a2, -1
800023d8: 33 f6 c4 00                  	and	a2, s1, a2
800023dc: b3 e9 c5 00                  	or	s3, a1, a2
800023e0: 93 75 15 00                  	andi	a1, a0, 1
800023e4: 13 06 f0 0f                  	addi	a2, zero, 255
800023e8: b3 85 c5 02                  	<unknown>
800023ec: 13 56 15 00                  	srli	a2, a0, 1
800023f0: 13 76 16 00                  	andi	a2, a2, 1
800023f4: b7 06 01 00                  	lui	a3, 16
800023f8: 93 86 06 f0                  	addi	a3, a3, -256
800023fc: 33 06 d6 02                  	<unknown>
80002400: b3 65 b6 00                  	or	a1, a2, a1
80002404: 13 56 25 00                  	srli	a2, a0, 2
80002408: 13 76 16 00                  	andi	a2, a2, 1
8000240c: b7 06 ff 00                  	lui	a3, 4080
80002410: 33 06 d6 02                  	<unknown>
80002414: b3 e5 c5 00                  	or	a1, a1, a2
80002418: 13 15 55 01                  	slli	a0, a0, 21
8000241c: 37 06 00 01                  	lui	a2, 4096
80002420: 33 75 c5 00                  	and	a0, a0, a2
80002424: 33 05 a0 40                  	neg	a0, a0
80002428: 33 e5 a5 00                  	or	a0, a1, a0
8000242c: 63 0c 05 00                  	beqz	a0, 24
80002430: 93 45 f5 ff                  	not	a1, a0
80002434: b3 75 b9 00                  	and	a1, s2, a1
80002438: 33 75 35 01                  	and	a0, a0, s3
8000243c: 33 e5 a5 00                  	or	a0, a1, a0
80002440: 23 20 ac 00                  	sw	a0, 0(s8)
80002444: 03 2c 81 00                  	lw	s8, 8(sp)
80002448: 83 2b c1 00                  	lw	s7, 12(sp)
8000244c: 03 2b 01 01                  	lw	s6, 16(sp)
80002450: 83 2a 41 01                  	lw	s5, 20(sp)
80002454: 03 2a 81 01                  	lw	s4, 24(sp)
80002458: 83 29 c1 01                  	lw	s3, 28(sp)
8000245c: 03 29 01 02                  	lw	s2, 32(sp)
80002460: 83 24 41 02                  	lw	s1, 36(sp)
80002464: 03 24 81 02                  	lw	s0, 40(sp)
80002468: 83 20 c1 02                  	lw	ra, 44(sp)
8000246c: 13 01 01 03                  	addi	sp, sp, 48
80002470: 67 80 00 00                  	ret

80002474 _ZN11DepthTencil18doDepthStencilTestEjjjj:
80002474: 13 01 01 ff                  	addi	sp, sp, -16
80002478: 23 26 11 00                  	sw	ra, 12(sp)
8000247c: 23 24 81 00                  	sw	s0, 8(sp)
80002480: 23 22 91 00                  	sw	s1, 4(sp)
80002484: 93 07 00 00                  	mv	a5, zero
80002488: 93 04 c0 02                  	addi	s1, zero, 44
8000248c: 63 92 06 06                  	bnez	a3, 100
80002490: 93 04 00 01                  	addi	s1, zero, 16
80002494: b3 04 95 00                  	add	s1, a0, s1
80002498: 83 ae 04 00                  	lw	t4, 0(s1)
8000249c: 93 04 00 04                  	addi	s1, zero, 64
800024a0: 63 80 f6 06                  	beq	a3, a5, 96
800024a4: b3 04 95 00                  	add	s1, a0, s1
800024a8: 83 a8 04 00                  	lw	a7, 0(s1)
800024ac: 93 04 c0 03                  	addi	s1, zero, 60
800024b0: 63 92 f6 06                  	bne	a3, a5, 100
800024b4: 93 04 00 02                  	addi	s1, zero, 32
800024b8: b3 04 95 00                  	add	s1, a0, s1
800024bc: 83 af 04 00                  	lw	t6, 0(s1)
800024c0: 93 04 00 03                  	addi	s1, zero, 48
800024c4: 63 80 f6 06                  	beq	a3, a5, 96
800024c8: b3 04 95 00                  	add	s1, a0, s1
800024cc: 83 a3 04 00                  	lw	t2, 0(s1)
800024d0: 93 04 40 03                  	addi	s1, zero, 52
800024d4: 63 92 f6 06                  	bne	a3, a5, 100
800024d8: 93 04 80 01                  	addi	s1, zero, 24
800024dc: b3 04 95 00                  	add	s1, a0, s1
800024e0: 83 a2 04 00                  	lw	t0, 0(s1)
800024e4: 93 04 80 03                  	addi	s1, zero, 56
800024e8: 63 80 f6 06                  	beq	a3, a5, 96
800024ec: 6f 00 00 06                  	j	96
800024f0: b3 04 95 00                  	add	s1, a0, s1
800024f4: 83 ae 04 00                  	lw	t4, 0(s1)
800024f8: 93 04 00 04                  	addi	s1, zero, 64
800024fc: e3 94 f6 fa                  	bne	a3, a5, -88
80002500: 93 04 80 02                  	addi	s1, zero, 40
80002504: b3 04 95 00                  	add	s1, a0, s1
80002508: 83 a8 04 00                  	lw	a7, 0(s1)
8000250c: 93 04 c0 03                  	addi	s1, zero, 60
80002510: e3 82 f6 fa                  	beq	a3, a5, -92
80002514: b3 04 95 00                  	add	s1, a0, s1
80002518: 83 af 04 00                  	lw	t6, 0(s1)
8000251c: 93 04 00 03                  	addi	s1, zero, 48
80002520: e3 94 f6 fa                  	bne	a3, a5, -88
80002524: 93 04 40 01                  	addi	s1, zero, 20
80002528: b3 04 95 00                  	add	s1, a0, s1
8000252c: 83 a3 04 00                  	lw	t2, 0(s1)
80002530: 93 04 40 03                  	addi	s1, zero, 52
80002534: e3 82 f6 fa                  	beq	a3, a5, -92
80002538: b3 04 95 00                  	add	s1, a0, s1
8000253c: 83 a2 04 00                  	lw	t0, 0(s1)
80002540: 93 04 80 03                  	addi	s1, zero, 56
80002544: 63 94 f6 00                  	bne	a3, a5, 8
80002548: 93 04 c0 01                  	addi	s1, zero, 28
8000254c: b3 04 95 00                  	add	s1, a0, s1
80002550: 03 ae 04 00                  	lw	t3, 0(s1)
80002554: 37 08 00 01                  	lui	a6, 4096
80002558: 13 04 40 04                  	addi	s0, zero, 68
8000255c: 63 94 f6 00                  	bne	a3, a5, 8
80002560: 13 04 40 02                  	addi	s0, zero, 36
80002564: 83 26 45 00                  	lw	a3, 4(a0)
80002568: b3 04 85 00                  	add	s1, a0, s0
8000256c: 03 24 05 00                  	lw	s0, 0(a0)
80002570: 83 a4 04 00                  	lw	s1, 0(s1)
80002574: 33 86 c6 02                  	<unknown>
80002578: 93 95 25 00                  	slli	a1, a1, 2
8000257c: b3 05 b4 00                  	add	a1, s0, a1
80002580: 33 83 c5 00                  	add	t1, a1, a2
80002584: 03 2f 03 00                  	lw	t5, 0(t1)
80002588: 83 45 c5 00                  	lbu	a1, 12(a0)
8000258c: 93 06 f8 ff                  	addi	a3, a6, -1
80002590: 13 54 8f 01                  	srli	s0, t5, 24
80002594: 93 94 84 01                  	slli	s1, s1, 24
80002598: 63 84 f5 00                  	beq	a1, a5, 8
8000259c: 93 87 06 00                  	mv	a5, a3
800025a0: 33 78 d7 00                  	and	a6, a4, a3
800025a4: b3 f5 1f 01                  	and	a1, t6, a7
800025a8: 33 76 f4 01                  	and	a2, s0, t6
800025ac: 33 e7 97 00                  	or	a4, a5, s1
800025b0: 93 07 40 00                  	addi	a5, zero, 4
800025b4: 63 de fe 00                  	bge	t4, a5, 28
800025b8: 93 07 20 00                  	addi	a5, zero, 2
800025bc: 63 da fe 04                  	bge	t4, a5, 84
800025c0: 93 05 00 00                  	mv	a1, zero
800025c4: 63 40 d0 0d                  	bgtz	t4, 192
800025c8: 63 82 0e 06                  	beqz	t4, 100
800025cc: 6f 00 c0 1a                  	j	428
800025d0: 93 07 60 00                  	addi	a5, zero, 6
800025d4: 63 d6 fe 04                  	bge	t4, a5, 76
800025d8: 93 07 50 00                  	addi	a5, zero, 5
800025dc: 63 de fe 0c                  	bge	t4, a5, 220
800025e0: 63 86 c5 04                  	beq	a1, a2, 76
800025e4: 93 05 00 00                  	mv	a1, zero
800025e8: 13 05 40 00                  	addi	a0, zero, 4
800025ec: 63 40 ae 0a                  	blt	t3, a0, 160
800025f0: 13 05 60 00                  	addi	a0, zero, 6
800025f4: 63 52 ae 06                  	bge	t3, a0, 100
800025f8: 13 05 50 00                  	addi	a0, zero, 5
800025fc: 63 5c ae 0c                  	bge	t3, a0, 216
80002600: 93 08 00 00                  	mv	a7, zero
80002604: 63 00 04 12                  	beqz	s0, 288
80002608: 93 08 f4 ff                  	addi	a7, s0, -1
8000260c: 6f 00 80 11                  	j	280
80002610: 93 07 30 00                  	addi	a5, zero, 3
80002614: 63 d6 fe 0a                  	bge	t4, a5, 172
80002618: 63 ea c5 00                  	bltu	a1, a2, 20
8000261c: 6f f0 9f fc                  	j	-56
80002620: 93 07 70 00                  	addi	a5, zero, 7
80002624: 63 d2 fe 0a                  	bge	t4, a5, 164
80002628: e3 7e b6 fa                  	bgeu	a2, a1, -68
8000262c: 03 26 85 00                  	lw	a2, 8(a0)
80002630: 33 75 df 00                  	and	a0, t5, a3
80002634: 93 05 40 00                  	addi	a1, zero, 4
80002638: 63 58 b6 02                  	bge	a2, a1, 48
8000263c: 93 05 20 00                  	addi	a1, zero, 2
80002640: 63 56 b6 0a                  	bge	a2, a1, 172
80002644: 93 05 00 00                  	mv	a1, zero
80002648: 13 8e 02 00                  	mv	t3, t0
8000264c: 63 4c c0 02                  	bgtz	a2, 56
80002650: 63 0c 06 0a                  	beqz	a2, 184
80002654: 6f 00 40 12                  	j	292
80002658: 13 05 70 00                  	addi	a0, zero, 7
8000265c: 63 50 ae 08                  	bge	t3, a0, 128
80002660: 13 05 14 00                  	addi	a0, s0, 1
80002664: 6f 00 00 08                  	j	128
80002668: 93 05 60 00                  	addi	a1, zero, 6
8000266c: 63 58 b6 08                  	bge	a2, a1, 144
80002670: 93 05 50 00                  	addi	a1, zero, 5
80002674: 63 54 b6 0e                  	bge	a2, a1, 232
80002678: 63 08 a8 08                  	beq	a6, a0, 144
8000267c: 93 05 00 00                  	mv	a1, zero
80002680: 13 8e 02 00                  	mv	t3, t0
80002684: 13 05 40 00                  	addi	a0, zero, 4
80002688: e3 54 ae f6                  	bge	t3, a0, -152
8000268c: 13 05 20 00                  	addi	a0, zero, 2
80002690: 63 58 ae 00                  	bge	t3, a0, 16
80002694: 63 54 c0 09                  	blez	t3, 136
80002698: 93 08 00 00                  	mv	a7, zero
8000269c: 6f 00 80 08                  	j	136
800026a0: 13 05 30 00                  	addi	a0, zero, 3
800026a4: 63 40 ae 08                  	blt	t3, a0, 128
800026a8: 13 45 f4 0f                  	xori	a0, s0, 255
800026ac: 33 35 a0 00                  	snez	a0, a0
800026b0: b3 08 a4 00                  	add	a7, s0, a0
800026b4: 6f 00 00 07                  	j	112
800026b8: e3 fa c5 f6                  	bgeu	a1, a2, -140
800026bc: 6f f0 9f f2                  	j	-216
800026c0: e3 76 b6 f6                  	bgeu	a2, a1, -148
800026c4: 6f f0 1f f2                  	j	-224
800026c8: 63 98 fe 0a                  	bne	t4, a5, 176
800026cc: e3 90 c5 f6                  	bne	a1, a2, -160
800026d0: 6f f0 5f f1                  	j	-236
800026d4: 93 48 f4 ff                  	not	a7, s0
800026d8: 6f 00 c0 04                  	j	76
800026dc: 63 1e ae 08                  	bne	t3, a0, 156
800026e0: 13 05 f4 ff                  	addi	a0, s0, -1
800026e4: 93 78 f5 0f                  	andi	a7, a0, 255
800026e8: 6f 00 c0 03                  	j	60
800026ec: 93 05 30 00                  	addi	a1, zero, 3
800026f0: 63 5a b6 06                  	bge	a2, a1, 116
800026f4: e3 74 a8 f8                  	bgeu	a6, a0, -120
800026f8: 6f 00 00 01                  	j	16
800026fc: 93 05 70 00                  	addi	a1, zero, 7
80002700: 63 56 b6 06                  	bge	a2, a1, 108
80002704: e3 7c 05 f7                  	bgeu	a0, a6, -136
80002708: 93 05 10 00                  	addi	a1, zero, 1
8000270c: 13 8e 03 00                  	mv	t3, t2
80002710: 13 05 40 00                  	addi	a0, zero, 4
80002714: e3 4c ae f6                  	blt	t3, a0, -136
80002718: 6f f0 9f ed                  	j	-296
8000271c: 93 08 04 00                  	mv	a7, s0
80002720: 63 1c 0e 04                  	bnez	t3, 88
80002724: 63 00 07 02                  	beqz	a4, 32
80002728: 13 45 f7 ff                  	not	a0, a4
8000272c: 33 75 af 00                  	and	a0, t5, a0
80002730: 13 96 88 01                  	slli	a2, a7, 24
80002734: 33 66 06 01                  	or	a2, a2, a6
80002738: 33 76 e6 00                  	and	a2, a2, a4
8000273c: 33 65 a6 00                  	or	a0, a2, a0
80002740: 23 20 a3 00                  	sw	a0, 0(t1)
80002744: 13 85 05 00                  	mv	a0, a1
80002748: 83 24 41 00                  	lw	s1, 4(sp)
8000274c: 03 24 81 00                  	lw	s0, 8(sp)
80002750: 83 20 c1 00                  	lw	ra, 12(sp)
80002754: 13 01 01 01                  	addi	sp, sp, 16
80002758: 67 80 00 00                  	ret
8000275c: e3 60 a8 f2                  	bltu	a6, a0, -224
80002760: 6f f0 9f fa                  	j	-88
80002764: e3 6c 05 f1                  	bltu	a0, a6, -232
80002768: 6f f0 1f fa                  	j	-96
8000276c: 63 16 b6 00                  	bne	a2, a1, 12
80002770: e3 06 a8 f0                  	beq	a6, a0, -244
80002774: 6f f0 5f f9                  	j	-108
80002778: ef 10 c0 59                  	jal	5532

8000277c _Z11DoBlendFuncjN7cocogfx9ColorARGBES0_S0_:
8000277c: 13 01 01 ff                  	addi	sp, sp, -16
80002780: 23 26 11 00                  	sw	ra, 12(sp)
80002784: 13 d3 85 00                  	srli	t1, a1, 8
80002788: 93 d3 05 01                  	srli	t2, a1, 16
8000278c: 93 d8 85 01                  	srli	a7, a1, 24
80002790: 13 5e 86 00                  	srli	t3, a2, 8
80002794: 93 5e 06 01                  	srli	t4, a2, 16
80002798: 93 52 86 01                  	srli	t0, a2, 24
8000279c: 13 d8 86 00                  	srli	a6, a3, 8
800027a0: 13 df 06 01                  	srli	t5, a3, 16
800027a4: 93 d7 86 01                  	srli	a5, a3, 24
800027a8: 13 07 70 00                  	addi	a4, zero, 7
800027ac: 63 50 e5 04                  	bge	a0, a4, 64
800027b0: 93 06 30 00                  	addi	a3, zero, 3
800027b4: 63 54 d5 06                  	bge	a0, a3, 104
800027b8: 13 06 10 00                  	addi	a2, zero, 1
800027bc: 63 4a c5 12                  	blt	a0, a2, 308
800027c0: 13 06 20 00                  	addi	a2, zero, 2
800027c4: 13 08 03 00                  	mv	a6, t1
800027c8: 93 86 05 00                  	mv	a3, a1
800027cc: 13 8f 03 00                  	mv	t5, t2
800027d0: 93 87 08 00                  	mv	a5, a7
800027d4: 63 58 c5 14                  	bge	a0, a2, 336
800027d8: 13 08 f0 0f                  	addi	a6, zero, 255
800027dc: 93 06 f0 0f                  	addi	a3, zero, 255
800027e0: 13 0f f0 0f                  	addi	t5, zero, 255
800027e4: 93 07 f0 0f                  	addi	a5, zero, 255
800027e8: 6f 00 c0 13                  	j	316
800027ec: 93 05 b0 00                  	addi	a1, zero, 11
800027f0: 63 54 b5 06                  	bge	a0, a1, 104
800027f4: 93 05 90 00                  	addi	a1, zero, 9
800027f8: 63 50 b5 08                  	bge	a0, a1, 128
800027fc: 93 05 80 00                  	addi	a1, zero, 8
80002800: 13 88 02 00                  	mv	a6, t0
80002804: 93 86 02 00                  	mv	a3, t0
80002808: 13 8f 02 00                  	mv	t5, t0
8000280c: 93 87 02 00                  	mv	a5, t0
80002810: 63 5a b5 10                  	bge	a0, a1, 276
80002814: 13 c8 f8 0f                  	xori	a6, a7, 255
80002818: 6f 00 c0 06                  	j	108
8000281c: 93 06 50 00                  	addi	a3, zero, 5
80002820: 63 5a d5 06                  	bge	a0, a3, 116
80002824: 13 07 40 00                  	addi	a4, zero, 4
80002828: 13 08 0e 00                  	mv	a6, t3
8000282c: 93 06 06 00                  	mv	a3, a2
80002830: 13 8f 0e 00                  	mv	t5, t4
80002834: 93 87 02 00                  	mv	a5, t0
80002838: 63 56 e5 0e                  	bge	a0, a4, 236
8000283c: 93 c7 f8 0f                  	xori	a5, a7, 255
80002840: 13 c5 f3 ff                  	not	a0, t2
80002844: 13 7f f5 0f                  	andi	t5, a0, 255
80002848: 13 45 f3 ff                  	not	a0, t1
8000284c: 13 78 f5 0f                  	andi	a6, a0, 255
80002850: 13 c5 f5 ff                  	not	a0, a1
80002854: 6f 00 40 09                  	j	148
80002858: 93 05 d0 00                  	addi	a1, zero, 13
8000285c: 63 56 b5 06                  	bge	a0, a1, 108
80002860: 93 05 c0 00                  	addi	a1, zero, 12
80002864: 63 46 b5 06                  	blt	a0, a1, 108
80002868: 13 88 07 00                  	mv	a6, a5
8000286c: 93 86 07 00                  	mv	a3, a5
80002870: 13 8f 07 00                  	mv	t5, a5
80002874: 6f 00 00 0b                  	j	176
80002878: 93 05 a0 00                  	addi	a1, zero, 10
8000287c: 63 54 b5 0a                  	bge	a0, a1, 168
80002880: 13 c8 f2 0f                  	xori	a6, t0, 255
80002884: 93 06 08 00                  	mv	a3, a6
80002888: 13 0f 08 00                  	mv	t5, a6
8000288c: 93 07 08 00                  	mv	a5, a6
80002890: 6f 00 40 09                  	j	148
80002894: 93 05 60 00                  	addi	a1, zero, 6
80002898: 13 88 08 00                  	mv	a6, a7
8000289c: 93 86 08 00                  	mv	a3, a7
800028a0: 13 8f 08 00                  	mv	t5, a7
800028a4: 93 87 08 00                  	mv	a5, a7
800028a8: 63 5e b5 06                  	bge	a0, a1, 124
800028ac: 93 c7 f2 0f                  	xori	a5, t0, 255
800028b0: 13 c5 fe ff                  	not	a0, t4
800028b4: 13 7f f5 0f                  	andi	t5, a0, 255
800028b8: 13 45 fe ff                  	not	a0, t3
800028bc: 13 78 f5 0f                  	andi	a6, a0, 255
800028c0: 13 45 f6 ff                  	not	a0, a2
800028c4: 6f 00 40 02                  	j	36
800028c8: 93 05 e0 00                  	addi	a1, zero, 14
800028cc: 63 5e b5 02                  	bge	a0, a1, 60
800028d0: 93 c7 f7 0f                  	xori	a5, a5, 255
800028d4: 13 45 ff ff                  	not	a0, t5
800028d8: 13 7f f5 0f                  	andi	t5, a0, 255
800028dc: 13 45 f8 ff                  	not	a0, a6
800028e0: 13 78 f5 0f                  	andi	a6, a0, 255
800028e4: 13 c5 f6 ff                  	not	a0, a3
800028e8: 93 76 f5 0f                  	andi	a3, a0, 255
800028ec: 6f 00 80 03                  	j	56
800028f0: 13 08 05 00                  	mv	a6, a0
800028f4: 93 06 05 00                  	mv	a3, a0
800028f8: 13 0f 05 00                  	mv	t5, a0
800028fc: 93 07 05 00                  	mv	a5, a0
80002900: 63 02 05 02                  	beqz	a0, 36
80002904: 6f 00 c0 05                  	j	92
80002908: 63 1c b5 04                  	bne	a0, a1, 88
8000290c: 13 c8 f2 0f                  	xori	a6, t0, 255
80002910: 63 64 18 01                  	bltu	a6, a7, 8
80002914: 13 88 08 00                  	mv	a6, a7
80002918: 93 07 f0 0f                  	addi	a5, zero, 255
8000291c: 93 06 08 00                  	mv	a3, a6
80002920: 13 0f 08 00                  	mv	t5, a6
80002924: 13 95 87 01                  	slli	a0, a5, 24
80002928: 93 15 0f 01                  	slli	a1, t5, 16
8000292c: 37 06 ff 00                  	lui	a2, 4080
80002930: b3 f5 c5 00                  	and	a1, a1, a2
80002934: 13 16 88 00                  	slli	a2, a6, 8
80002938: 37 07 01 00                  	lui	a4, 16
8000293c: 13 07 07 f0                  	addi	a4, a4, -256
80002940: 33 76 e6 00                  	and	a2, a2, a4
80002944: 93 f6 f6 0f                  	andi	a3, a3, 255
80002948: 33 e6 c6 00                  	or	a2, a3, a2
8000294c: b3 65 b6 00                  	or	a1, a2, a1
80002950: 33 e5 a5 00                  	or	a0, a1, a0
80002954: 83 20 c1 00                  	lw	ra, 12(sp)
80002958: 13 01 01 01                  	addi	sp, sp, 16
8000295c: 67 80 00 00                  	ret
80002960: ef 10 40 3b                  	jal	5044

80002964 _Z11DoBlendModejjN7cocogfx9ColorARGBES0_S0_S0_:
80002964: 13 01 01 fe                  	addi	sp, sp, -32
80002968: 23 2e 11 00                  	sw	ra, 28(sp)
8000296c: 23 2c 81 00                  	sw	s0, 24(sp)
80002970: 23 2a 91 00                  	sw	s1, 20(sp)
80002974: 23 28 21 01                  	sw	s2, 16(sp)
80002978: 23 26 31 01                  	sw	s3, 12(sp)
8000297c: 13 53 86 00                  	srli	t1, a2, 8
80002980: 93 5e 06 01                  	srli	t4, a2, 16
80002984: 13 59 86 01                  	srli	s2, a2, 24
80002988: 13 d8 86 00                  	srli	a6, a3, 8
8000298c: 93 d2 06 01                  	srli	t0, a3, 16
80002990: 93 d8 86 01                  	srli	a7, a3, 24
80002994: 13 5e 87 00                  	srli	t3, a4, 8
80002998: 93 5f 07 01                  	srli	t6, a4, 16
8000299c: 93 54 87 01                  	srli	s1, a4, 24
800029a0: 93 d3 87 00                  	srli	t2, a5, 8
800029a4: 13 df 07 01                  	srli	t5, a5, 16
800029a8: 93 d9 87 01                  	srli	s3, a5, 24
800029ac: 13 04 30 00                  	addi	s0, zero, 3
800029b0: 63 50 85 0c                  	bge	a0, s0, 192
800029b4: 93 05 10 00                  	addi	a1, zero, 1
800029b8: 63 4e b5 14                  	blt	a0, a1, 348
800029bc: 93 05 20 00                  	addi	a1, zero, 2
800029c0: 63 50 b5 22                  	bge	a0, a1, 544
800029c4: 33 85 24 03                  	<unknown>
800029c8: 13 05 f5 0f                  	addi	a0, a0, 255
800029cc: 13 55 85 00                  	srli	a0, a0, 8
800029d0: b3 85 19 03                  	<unknown>
800029d4: 93 85 f5 0f                  	addi	a1, a1, 255
800029d8: 93 d5 85 00                  	srli	a1, a1, 8
800029dc: b3 08 b5 40                  	sub	a7, a0, a1
800029e0: 63 44 10 01                  	bgtz	a7, 8
800029e4: 93 08 00 00                  	mv	a7, zero
800029e8: 13 f5 fe 0f                  	andi	a0, t4, 255
800029ec: 93 f5 ff 0f                  	andi	a1, t6, 255
800029f0: 33 85 a5 02                  	<unknown>
800029f4: 13 05 f5 0f                  	addi	a0, a0, 255
800029f8: 13 55 85 00                  	srli	a0, a0, 8
800029fc: 93 f5 f2 0f                  	andi	a1, t0, 255
80002a00: 93 74 ff 0f                  	andi	s1, t5, 255
80002a04: b3 85 b4 02                  	<unknown>
80002a08: 93 85 f5 0f                  	addi	a1, a1, 255
80002a0c: 93 d5 85 00                  	srli	a1, a1, 8
80002a10: b3 02 b5 40                  	sub	t0, a0, a1
80002a14: 63 44 50 00                  	bgtz	t0, 8
80002a18: 93 02 00 00                  	mv	t0, zero
80002a1c: 13 75 f3 0f                  	andi	a0, t1, 255
80002a20: 93 75 fe 0f                  	andi	a1, t3, 255
80002a24: 33 85 a5 02                  	<unknown>
80002a28: 13 05 f5 0f                  	addi	a0, a0, 255
80002a2c: 13 55 85 00                  	srli	a0, a0, 8
80002a30: 93 75 f8 0f                  	andi	a1, a6, 255
80002a34: 93 f4 f3 0f                  	andi	s1, t2, 255
80002a38: b3 85 b4 02                  	<unknown>
80002a3c: 93 85 f5 0f                  	addi	a1, a1, 255
80002a40: 93 d5 85 00                  	srli	a1, a1, 8
80002a44: 33 08 b5 40                  	sub	a6, a0, a1
80002a48: 63 44 00 01                  	bgtz	a6, 8
80002a4c: 13 08 00 00                  	mv	a6, zero
80002a50: 13 75 f6 0f                  	andi	a0, a2, 255
80002a54: 93 75 f7 0f                  	andi	a1, a4, 255
80002a58: 33 85 a5 02                  	<unknown>
80002a5c: 13 05 f5 0f                  	addi	a0, a0, 255
80002a60: 13 55 85 00                  	srli	a0, a0, 8
80002a64: 93 f5 f6 0f                  	andi	a1, a3, 255
80002a68: 13 f6 f7 0f                  	andi	a2, a5, 255
80002a6c: 6f 00 c0 21                  	j	540
80002a70: 13 07 40 00                  	addi	a4, zero, 4
80002a74: 63 5c e5 02                  	bge	a0, a4, 56
80002a78: 13 f5 f2 0f                  	andi	a0, t0, 255
80002a7c: 13 f7 fe 0f                  	andi	a4, t4, 255
80002a80: 63 e4 28 07                  	bltu	a7, s2, 104
80002a84: 93 08 09 00                  	mv	a7, s2
80002a88: 93 75 f8 0f                  	andi	a1, a6, 255
80002a8c: 93 77 f3 0f                  	andi	a5, t1, 255
80002a90: 63 72 e5 06                  	bgeu	a0, a4, 100
80002a94: 13 f5 f6 0f                  	andi	a0, a3, 255
80002a98: 13 77 f6 0f                  	andi	a4, a2, 255
80002a9c: 63 e4 f5 06                  	bltu	a1, a5, 104
80002aa0: 13 08 03 00                  	mv	a6, t1
80002aa4: 63 72 e5 06                  	bgeu	a0, a4, 100
80002aa8: 6f 00 40 06                  	j	100
80002aac: 13 07 50 00                  	addi	a4, zero, 5
80002ab0: 63 5a e5 1e                  	bge	a0, a4, 500
80002ab4: 13 f5 f2 0f                  	andi	a0, t0, 255
80002ab8: 13 f7 fe 0f                  	andi	a4, t4, 255
80002abc: 63 68 19 21                  	bltu	s2, a7, 528
80002ac0: 93 08 09 00                  	mv	a7, s2
80002ac4: 93 75 f8 0f                  	andi	a1, a6, 255
80002ac8: 93 77 f3 0f                  	andi	a5, t1, 255
80002acc: 63 76 a7 20                  	bgeu	a4, a0, 524
80002ad0: 13 f5 f6 0f                  	andi	a0, a3, 255
80002ad4: 13 77 f6 0f                  	andi	a4, a2, 255
80002ad8: 63 e8 b7 20                  	bltu	a5, a1, 528
80002adc: 13 08 03 00                  	mv	a6, t1
80002ae0: 63 74 a7 02                  	bgeu	a4, a0, 40
80002ae4: 6f 00 80 02                  	j	40
80002ae8: 93 75 f8 0f                  	andi	a1, a6, 255
80002aec: 93 77 f3 0f                  	andi	a5, t1, 255
80002af0: e3 62 e5 fa                  	bltu	a0, a4, -92
80002af4: 93 82 0e 00                  	mv	t0, t4
80002af8: 13 f5 f6 0f                  	andi	a0, a3, 255
80002afc: 13 77 f6 0f                  	andi	a4, a2, 255
80002b00: e3 f0 f5 fa                  	bgeu	a1, a5, -96
80002b04: 63 64 e5 00                  	bltu	a0, a4, 8
80002b08: 93 06 06 00                  	mv	a3, a2
80002b0c: 93 85 06 00                  	mv	a1, a3
80002b10: 6f 00 00 2d                  	j	720
80002b14: 63 1c 05 30                  	bnez	a0, 792
80002b18: 33 85 24 03                  	<unknown>
80002b1c: 13 05 f5 0f                  	addi	a0, a0, 255
80002b20: 13 55 85 00                  	srli	a0, a0, 8
80002b24: b3 85 19 03                  	<unknown>
80002b28: 93 85 f5 0f                  	addi	a1, a1, 255
80002b2c: 93 d5 85 00                  	srli	a1, a1, 8
80002b30: b3 88 a5 00                  	add	a7, a1, a0
80002b34: 13 05 f0 0f                  	addi	a0, zero, 255
80002b38: 63 e4 a8 00                  	bltu	a7, a0, 8
80002b3c: 93 08 f0 0f                  	addi	a7, zero, 255
80002b40: 93 f5 fe 0f                  	andi	a1, t4, 255
80002b44: 93 f4 ff 0f                  	andi	s1, t6, 255
80002b48: b3 85 b4 02                  	<unknown>
80002b4c: 93 85 f5 0f                  	addi	a1, a1, 255
80002b50: 93 d5 85 00                  	srli	a1, a1, 8
80002b54: 93 f4 f2 0f                  	andi	s1, t0, 255
80002b58: 13 74 ff 0f                  	andi	s0, t5, 255
80002b5c: b3 04 94 02                  	<unknown>
80002b60: 93 84 f4 0f                  	addi	s1, s1, 255
80002b64: 93 d4 84 00                  	srli	s1, s1, 8
80002b68: b3 82 b4 00                  	add	t0, s1, a1
80002b6c: 63 e4 a2 00                  	bltu	t0, a0, 8
80002b70: 93 02 f0 0f                  	addi	t0, zero, 255
80002b74: 93 75 f3 0f                  	andi	a1, t1, 255
80002b78: 93 74 fe 0f                  	andi	s1, t3, 255
80002b7c: b3 85 b4 02                  	<unknown>
80002b80: 93 85 f5 0f                  	addi	a1, a1, 255
80002b84: 93 d5 85 00                  	srli	a1, a1, 8
80002b88: 93 74 f8 0f                  	andi	s1, a6, 255
80002b8c: 13 f4 f3 0f                  	andi	s0, t2, 255
80002b90: b3 04 94 02                  	<unknown>
80002b94: 93 84 f4 0f                  	addi	s1, s1, 255
80002b98: 93 d4 84 00                  	srli	s1, s1, 8
80002b9c: 33 88 b4 00                  	add	a6, s1, a1
80002ba0: 63 64 a8 00                  	bltu	a6, a0, 8
80002ba4: 13 08 f0 0f                  	addi	a6, zero, 255
80002ba8: 93 75 f6 0f                  	andi	a1, a2, 255
80002bac: 13 76 f7 0f                  	andi	a2, a4, 255
80002bb0: b3 05 b6 02                  	<unknown>
80002bb4: 93 85 f5 0f                  	addi	a1, a1, 255
80002bb8: 93 d5 85 00                  	srli	a1, a1, 8
80002bbc: 13 f6 f6 0f                  	andi	a2, a3, 255
80002bc0: 93 f6 f7 0f                  	andi	a3, a5, 255
80002bc4: 33 86 c6 02                  	<unknown>
80002bc8: 13 06 f6 0f                  	addi	a2, a2, 255
80002bcc: 13 56 86 00                  	srli	a2, a2, 8
80002bd0: b3 05 b6 00                  	add	a1, a2, a1
80002bd4: 63 e6 a5 20                  	bltu	a1, a0, 524
80002bd8: 93 05 f0 0f                  	addi	a1, zero, 255
80002bdc: 6f 00 40 20                  	j	516
80002be0: 33 85 19 03                  	<unknown>
80002be4: 13 05 f5 0f                  	addi	a0, a0, 255
80002be8: 13 55 85 00                  	srli	a0, a0, 8
80002bec: b3 85 24 03                  	<unknown>
80002bf0: 93 85 f5 0f                  	addi	a1, a1, 255
80002bf4: 93 d5 85 00                  	srli	a1, a1, 8
80002bf8: b3 08 b5 40                  	sub	a7, a0, a1
80002bfc: 63 44 10 01                  	bgtz	a7, 8
80002c00: 93 08 00 00                  	mv	a7, zero
80002c04: 13 f5 f2 0f                  	andi	a0, t0, 255
80002c08: 93 75 ff 0f                  	andi	a1, t5, 255
80002c0c: 33 85 a5 02                  	<unknown>
80002c10: 13 05 f5 0f                  	addi	a0, a0, 255
80002c14: 13 55 85 00                  	srli	a0, a0, 8
80002c18: 93 f5 fe 0f                  	andi	a1, t4, 255
80002c1c: 93 f4 ff 0f                  	andi	s1, t6, 255
80002c20: b3 85 b4 02                  	<unknown>
80002c24: 93 85 f5 0f                  	addi	a1, a1, 255
80002c28: 93 d5 85 00                  	srli	a1, a1, 8
80002c2c: b3 02 b5 40                  	sub	t0, a0, a1
80002c30: 63 44 50 00                  	bgtz	t0, 8
80002c34: 93 02 00 00                  	mv	t0, zero
80002c38: 13 75 f8 0f                  	andi	a0, a6, 255
80002c3c: 93 f5 f3 0f                  	andi	a1, t2, 255
80002c40: 33 85 a5 02                  	<unknown>
80002c44: 13 05 f5 0f                  	addi	a0, a0, 255
80002c48: 13 55 85 00                  	srli	a0, a0, 8
80002c4c: 93 75 f3 0f                  	andi	a1, t1, 255
80002c50: 93 74 fe 0f                  	andi	s1, t3, 255
80002c54: b3 85 b4 02                  	<unknown>
80002c58: 93 85 f5 0f                  	addi	a1, a1, 255
80002c5c: 93 d5 85 00                  	srli	a1, a1, 8
80002c60: 33 08 b5 40                  	sub	a6, a0, a1
80002c64: 63 44 00 01                  	bgtz	a6, 8
80002c68: 13 08 00 00                  	mv	a6, zero
80002c6c: 13 f5 f6 0f                  	andi	a0, a3, 255
80002c70: 93 f5 f7 0f                  	andi	a1, a5, 255
80002c74: 33 85 a5 02                  	<unknown>
80002c78: 13 05 f5 0f                  	addi	a0, a0, 255
80002c7c: 13 55 85 00                  	srli	a0, a0, 8
80002c80: 93 75 f6 0f                  	andi	a1, a2, 255
80002c84: 13 76 f7 0f                  	andi	a2, a4, 255
80002c88: b3 05 b6 02                  	<unknown>
80002c8c: 93 85 f5 0f                  	addi	a1, a1, 255
80002c90: 93 d5 85 00                  	srli	a1, a1, 8
80002c94: b3 05 b5 40                  	sub	a1, a0, a1
80002c98: 63 44 b0 14                  	bgtz	a1, 328
80002c9c: 93 05 00 00                  	mv	a1, zero
80002ca0: 6f 00 00 14                  	j	320
80002ca4: 63 14 e5 18                  	bne	a0, a4, 392
80002ca8: 13 05 80 00                  	addi	a0, zero, 8
80002cac: 63 d2 a5 04                  	bge	a1, a0, 68
80002cb0: 13 05 40 00                  	addi	a0, zero, 4
80002cb4: 63 de a5 04                  	bge	a1, a0, 92
80002cb8: 13 05 20 00                  	addi	a0, zero, 2
80002cbc: 63 d4 a5 08                  	bge	a1, a0, 136
80002cc0: 63 58 b0 10                  	blez	a1, 272
80002cc4: b3 f5 c6 00                  	and	a1, a3, a2
80002cc8: 6f 00 c0 10                  	j	268
80002ccc: 93 75 f8 0f                  	andi	a1, a6, 255
80002cd0: 93 77 f3 0f                  	andi	a5, t1, 255
80002cd4: e3 6e a7 de                  	bltu	a4, a0, -516
80002cd8: 93 82 0e 00                  	mv	t0, t4
80002cdc: 13 f5 f6 0f                  	andi	a0, a3, 255
80002ce0: 13 77 f6 0f                  	andi	a4, a2, 255
80002ce4: e3 fc b7 de                  	bgeu	a5, a1, -520
80002ce8: e3 70 a7 e2                  	bgeu	a4, a0, -480
80002cec: 6f f0 1f e2                  	j	-480
80002cf0: 13 05 c0 00                  	addi	a0, zero, 12
80002cf4: 63 dc a5 02                  	bge	a1, a0, 56
80002cf8: 13 05 a0 00                  	addi	a0, zero, 10
80002cfc: 63 de a5 04                  	bge	a1, a0, 92
80002d00: 13 05 90 00                  	addi	a0, zero, 9
80002d04: 63 d2 a5 08                  	bge	a1, a0, 132
80002d08: 33 e5 c6 00                  	or	a0, a3, a2
80002d0c: 6f 00 00 08                  	j	128
80002d10: 13 05 60 00                  	addi	a0, zero, 6
80002d14: 63 da a5 04                  	bge	a1, a0, 84
80002d18: 13 05 50 00                  	addi	a0, zero, 5
80002d1c: 63 dc a5 06                  	bge	a1, a0, 120
80002d20: 13 45 f6 ff                  	not	a0, a2
80002d24: b3 75 d5 00                  	and	a1, a0, a3
80002d28: 6f 00 c0 0a                  	j	172
80002d2c: 13 05 e0 00                  	addi	a0, zero, 14
80002d30: 63 d4 a5 04                  	bge	a1, a0, 72
80002d34: 13 05 d0 00                  	addi	a0, zero, 13
80002d38: 63 d2 a5 06                  	bge	a1, a0, 100
80002d3c: 93 45 f6 ff                  	not	a1, a2
80002d40: 6f 00 40 09                  	j	148
80002d44: 13 05 30 00                  	addi	a0, zero, 3
80002d48: 63 d0 a5 06                  	bge	a1, a0, 96
80002d4c: 13 c5 f6 ff                  	not	a0, a3
80002d50: b3 75 c5 00                  	and	a1, a0, a2
80002d54: 6f 00 00 08                  	j	128
80002d58: 13 05 b0 00                  	addi	a0, zero, 11
80002d5c: 63 da a5 04                  	bge	a1, a0, 84
80002d60: 93 c5 f6 ff                  	not	a1, a3
80002d64: 6f 00 00 07                  	j	112
80002d68: 13 05 70 00                  	addi	a0, zero, 7
80002d6c: 63 d8 a5 04                  	bge	a1, a0, 80
80002d70: b3 c5 c6 00                  	xor	a1, a3, a2
80002d74: 6f 00 00 06                  	j	96
80002d78: 13 05 f0 00                  	addi	a0, zero, 15
80002d7c: 63 d4 a5 04                  	bge	a1, a0, 72
80002d80: 33 f5 c6 00                  	and	a0, a3, a2
80002d84: 6f 00 80 00                  	j	8
80002d88: 33 45 d6 00                  	xor	a0, a2, a3
80002d8c: 93 45 f5 ff                  	not	a1, a0
80002d90: 6f 00 40 04                  	j	68
80002d94: 93 85 06 00                  	mv	a1, a3
80002d98: 6f 00 c0 03                  	j	60
80002d9c: 13 45 f6 ff                  	not	a0, a2
80002da0: b3 65 d5 00                  	or	a1, a0, a3
80002da4: 6f 00 00 03                  	j	48
80002da8: 93 05 06 00                  	mv	a1, a2
80002dac: 6f 00 80 02                  	j	40
80002db0: 13 c5 f6 ff                  	not	a0, a3
80002db4: b3 65 c5 00                  	or	a1, a0, a2
80002db8: 6f 00 c0 01                  	j	28
80002dbc: b3 e5 c6 00                  	or	a1, a3, a2
80002dc0: 6f 00 40 01                  	j	20
80002dc4: 63 94 a5 06                  	bne	a1, a0, 104
80002dc8: 93 05 f0 ff                  	addi	a1, zero, -1
80002dcc: 6f 00 80 00                  	j	8
80002dd0: 63 9e 05 04                  	bnez	a1, 92
80002dd4: 13 d8 85 00                  	srli	a6, a1, 8
80002dd8: 93 d2 05 01                  	srli	t0, a1, 16
80002ddc: 93 d8 85 01                  	srli	a7, a1, 24
80002de0: 13 95 88 01                  	slli	a0, a7, 24
80002de4: 13 96 02 01                  	slli	a2, t0, 16
80002de8: b7 06 ff 00                  	lui	a3, 4080
80002dec: 33 76 d6 00                  	and	a2, a2, a3
80002df0: 93 16 88 00                  	slli	a3, a6, 8
80002df4: 37 07 01 00                  	lui	a4, 16
80002df8: 13 07 07 f0                  	addi	a4, a4, -256
80002dfc: b3 f6 e6 00                  	and	a3, a3, a4
80002e00: 93 f5 f5 0f                  	andi	a1, a1, 255
80002e04: b3 e5 b6 00                  	or	a1, a3, a1
80002e08: b3 e5 c5 00                  	or	a1, a1, a2
80002e0c: 33 e5 a5 00                  	or	a0, a1, a0
80002e10: 83 29 c1 00                  	lw	s3, 12(sp)
80002e14: 03 29 01 01                  	lw	s2, 16(sp)
80002e18: 83 24 41 01                  	lw	s1, 20(sp)
80002e1c: 03 24 81 01                  	lw	s0, 24(sp)
80002e20: 83 20 c1 01                  	lw	ra, 28(sp)
80002e24: 13 01 01 02                  	addi	sp, sp, 32
80002e28: 67 80 00 00                  	ret
80002e2c: ef 00 90 6e                  	jal	3816

80002e30 _ZN10Rasterizer6renderEj:
80002e30: 13 01 01 f7                  	addi	sp, sp, -144
80002e34: 23 26 11 08                  	sw	ra, 140(sp)
80002e38: 23 24 81 08                  	sw	s0, 136(sp)
80002e3c: 23 22 91 08                  	sw	s1, 132(sp)
80002e40: 23 20 21 09                  	sw	s2, 128(sp)
80002e44: 23 2e 31 07                  	sw	s3, 124(sp)
80002e48: 23 2c 41 07                  	sw	s4, 120(sp)
80002e4c: 23 2a 51 07                  	sw	s5, 116(sp)
80002e50: 23 28 61 07                  	sw	s6, 112(sp)
80002e54: 23 26 71 07                  	sw	s7, 108(sp)
80002e58: 23 24 81 07                  	sw	s8, 104(sp)
80002e5c: 23 22 91 07                  	sw	s9, 100(sp)
80002e60: 23 20 a1 07                  	sw	s10, 96(sp)
80002e64: 13 0d 05 00                  	mv	s10, a0
80002e68: 03 25 c5 00                  	lw	a0, 12(a0)
80002e6c: 63 0c 05 24                  	beqz	a0, 600
80002e70: 13 8a 05 00                  	mv	s4, a1
80002e74: 93 09 00 00                  	mv	s3, zero
80002e78: 03 2c 0d 01                  	lw	s8, 16(s10)
80002e7c: b7 05 01 00                  	lui	a1, 16
80002e80: 93 8a f5 ff                  	addi	s5, a1, -1
80002e84: 13 0b f0 ff                  	addi	s6, zero, -1
80002e88: 93 0b 01 04                  	addi	s7, sp, 64
80002e8c: 13 09 01 01                  	addi	s2, sp, 16
80002e90: 6f 00 00 01                  	j	16
80002e94: 03 25 cd 00                  	lw	a0, 12(s10)
80002e98: 93 89 19 00                  	addi	s3, s3, 1
80002e9c: 63 f4 a9 22                  	bgeu	s3, a0, 552
80002ea0: 03 26 0c 00                  	lw	a2, 0(s8)
80002ea4: 83 26 4d 00                  	lw	a3, 4(s10)
80002ea8: 83 25 4c 00                  	lw	a1, 4(s8)
80002eac: 33 77 56 01                  	and	a4, a2, s5
80002eb0: b3 17 d7 00                  	sll	a5, a4, a3
80002eb4: 23 22 fd 02                  	sw	a5, 36(s10)
80002eb8: 13 56 06 01                  	srli	a2, a2, 16
80002ebc: 33 18 d6 00                  	sll	a6, a2, a3
80002ec0: 23 24 0d 03                  	sw	a6, 40(s10)
80002ec4: 63 8a 05 1e                  	beqz	a1, 500
80002ec8: 13 0c cc 00                  	addi	s8, s8, 12
80002ecc: 93 8c f5 ff                  	addi	s9, a1, -1
80002ed0: 03 26 cc ff                  	lw	a2, -4(s8)
80002ed4: 03 25 8d 01                  	lw	a0, 24(s10)
80002ed8: 83 25 4d 01                  	lw	a1, 20(s10)
80002edc: 33 05 c5 02                  	<unknown>
80002ee0: b3 04 b5 00                  	add	s1, a0, a1
80002ee4: 83 a5 04 00                  	lw	a1, 0(s1)
80002ee8: 23 28 b1 00                  	sw	a1, 16(sp)
80002eec: 83 ae 44 00                  	lw	t4, 4(s1)
80002ef0: 23 2a d1 01                  	sw	t4, 20(sp)
80002ef4: 83 a8 84 00                  	lw	a7, 8(s1)
80002ef8: 23 2c 11 01                  	sw	a7, 24(sp)
80002efc: 03 a7 c4 00                  	lw	a4, 12(s1)
80002f00: 23 2e e1 00                  	sw	a4, 28(sp)
80002f04: 03 a4 04 01                  	lw	s0, 16(s1)
80002f08: 23 20 81 02                  	sw	s0, 32(sp)
80002f0c: 03 a3 44 01                  	lw	t1, 20(s1)
80002f10: 23 22 61 02                  	sw	t1, 36(sp)
80002f14: 03 a5 84 01                  	lw	a0, 24(s1)
80002f18: 23 24 a1 02                  	sw	a0, 40(sp)
80002f1c: 03 ae c4 01                  	lw	t3, 28(s1)
80002f20: 23 26 c1 03                  	sw	t3, 44(sp)
80002f24: 83 a2 04 02                  	lw	t0, 32(s1)
80002f28: 23 28 51 02                  	sw	t0, 48(sp)
80002f2c: 23 20 01 04                  	sw	zero, 64(sp)
80002f30: 23 22 01 04                  	sw	zero, 68(sp)
80002f34: 23 24 b1 04                  	sw	a1, 72(sp)
80002f38: 23 26 01 04                  	sw	zero, 76(sp)
80002f3c: 23 28 01 04                  	sw	zero, 80(sp)
80002f40: 23 2a d1 05                  	sw	t4, 84(sp)
80002f44: 23 2c b1 04                  	sw	a1, 88(sp)
80002f48: 23 2e d1 05                  	sw	t4, 92(sp)
80002f4c: 93 03 30 00                  	addi	t2, zero, 3
80002f50: 93 04 30 00                  	addi	s1, zero, 3
80002f54: 63 44 bb 00                  	blt	s6, a1, 8
80002f58: 93 04 20 00                  	addi	s1, zero, 2
80002f5c: 63 46 db 01                  	blt	s6, t4, 12
80002f60: 93 c4 f5 ff                  	not	s1, a1
80002f64: 93 d4 f4 01                  	srli	s1, s1, 31
80002f68: 93 94 34 00                  	slli	s1, s1, 3
80002f6c: b3 84 9b 00                  	add	s1, s7, s1
80002f70: 83 a6 04 00                  	lw	a3, 0(s1)
80002f74: 93 e4 44 00                  	ori	s1, s1, 4
80002f78: 83 a4 04 00                  	lw	s1, 0(s1)
80002f7c: b3 86 d4 00                  	add	a3, s1, a3
80002f80: 23 2a d1 02                  	sw	a3, 52(sp)
80002f84: 23 20 01 04                  	sw	zero, 64(sp)
80002f88: 23 22 01 04                  	sw	zero, 68(sp)
80002f8c: 23 24 e1 04                  	sw	a4, 72(sp)
80002f90: 23 26 01 04                  	sw	zero, 76(sp)
80002f94: 23 28 01 04                  	sw	zero, 80(sp)
80002f98: 23 2a 81 04                  	sw	s0, 84(sp)
80002f9c: 23 2c e1 04                  	sw	a4, 88(sp)
80002fa0: 23 2e 81 04                  	sw	s0, 92(sp)
80002fa4: 93 04 30 00                  	addi	s1, zero, 3
80002fa8: 63 44 eb 00                  	blt	s6, a4, 8
80002fac: 93 04 20 00                  	addi	s1, zero, 2
80002fb0: 63 46 8b 00                  	blt	s6, s0, 12
80002fb4: 93 46 f7 ff                  	not	a3, a4
80002fb8: 93 d4 f6 01                  	srli	s1, a3, 31
80002fbc: 93 96 34 00                  	slli	a3, s1, 3
80002fc0: b3 86 db 00                  	add	a3, s7, a3
80002fc4: 83 a4 06 00                  	lw	s1, 0(a3)
80002fc8: 93 e6 46 00                  	ori	a3, a3, 4
80002fcc: 83 a6 06 00                  	lw	a3, 0(a3)
80002fd0: b3 86 96 00                  	add	a3, a3, s1
80002fd4: 23 2c d1 02                  	sw	a3, 56(sp)
80002fd8: 23 20 01 04                  	sw	zero, 64(sp)
80002fdc: 23 22 01 04                  	sw	zero, 68(sp)
80002fe0: 23 24 a1 04                  	sw	a0, 72(sp)
80002fe4: 23 26 01 04                  	sw	zero, 76(sp)
80002fe8: 23 28 01 04                  	sw	zero, 80(sp)
80002fec: 23 2a c1 05                  	sw	t3, 84(sp)
80002ff0: 23 2c a1 04                  	sw	a0, 88(sp)
80002ff4: 23 2e c1 05                  	sw	t3, 92(sp)
80002ff8: 63 44 ab 00                  	blt	s6, a0, 8
80002ffc: 93 03 20 00                  	addi	t2, zero, 2
80003000: 63 46 cb 01                  	blt	s6, t3, 12
80003004: 93 46 f5 ff                  	not	a3, a0
80003008: 93 d3 f6 01                  	srli	t2, a3, 31
8000300c: 93 96 33 00                  	slli	a3, t2, 3
80003010: b3 86 db 00                  	add	a3, s7, a3
80003014: 83 a4 06 00                  	lw	s1, 0(a3)
80003018: 93 e6 46 00                  	ori	a3, a3, 4
8000301c: 83 a6 06 00                  	lw	a3, 0(a3)
80003020: b3 86 96 00                  	add	a3, a3, s1
80003024: 23 2e d1 02                  	sw	a3, 60(sp)
80003028: b3 85 f5 02                  	<unknown>
8000302c: b3 86 0e 03                  	<unknown>
80003030: b3 85 b6 00                  	add	a1, a3, a1
80003034: b3 88 15 01                  	add	a7, a1, a7
80003038: b3 05 f7 02                  	<unknown>
8000303c: b3 06 04 03                  	<unknown>
80003040: b3 85 b6 00                  	add	a1, a3, a1
80003044: b3 85 65 00                  	add	a1, a1, t1
80003048: 83 26 4d 00                  	lw	a3, 4(s10)
8000304c: 03 27 8d 00                  	lw	a4, 8(s10)
80003050: 33 05 f5 02                  	<unknown>
80003054: b3 04 0e 03                  	<unknown>
80003058: 33 85 a4 00                  	add	a0, s1, a0
8000305c: 33 05 55 00                  	add	a0, a0, t0
80003060: 63 72 d7 02                  	bgeu	a4, a3, 36
80003064: 23 22 a1 00                  	sw	a0, 4(sp)
80003068: 23 20 b1 00                  	sw	a1, 0(sp)
8000306c: 13 05 0d 00                  	mv	a0, s10
80003070: 93 05 0a 00                  	mv	a1, s4
80003074: 13 07 09 00                  	mv	a4, s2
80003078: ef 00 40 08                  	jal	132
8000307c: 63 94 0c 02                  	bnez	s9, 40
80003080: 6f f0 5f e1                  	j	-492
80003084: 23 22 a1 00                  	sw	a0, 4(sp)
80003088: 23 20 b1 00                  	sw	a1, 0(sp)
8000308c: 13 05 0d 00                  	mv	a0, s10
80003090: 93 05 0a 00                  	mv	a1, s4
80003094: 93 06 07 00                  	mv	a3, a4
80003098: 13 07 09 00                  	mv	a4, s2
8000309c: ef 00 80 2c                  	jal	712
800030a0: e3 8a 0c de                  	beqz	s9, -524
800030a4: 83 27 4d 02                  	lw	a5, 36(s10)
800030a8: 03 28 8d 02                  	lw	a6, 40(s10)
800030ac: 13 0c 4c 00                  	addi	s8, s8, 4
800030b0: 93 8c fc ff                  	addi	s9, s9, -1
800030b4: 6f f0 df e1                  	j	-484
800030b8: 13 0c 8c 00                  	addi	s8, s8, 8
800030bc: 93 89 19 00                  	addi	s3, s3, 1
800030c0: e3 e0 a9 de                  	bltu	s3, a0, -544
800030c4: 03 2d 01 06                  	lw	s10, 96(sp)
800030c8: 83 2c 41 06                  	lw	s9, 100(sp)
800030cc: 03 2c 81 06                  	lw	s8, 104(sp)
800030d0: 83 2b c1 06                  	lw	s7, 108(sp)
800030d4: 03 2b 01 07                  	lw	s6, 112(sp)
800030d8: 83 2a 41 07                  	lw	s5, 116(sp)
800030dc: 03 2a 81 07                  	lw	s4, 120(sp)
800030e0: 83 29 c1 07                  	lw	s3, 124(sp)
800030e4: 03 29 01 08                  	lw	s2, 128(sp)
800030e8: 83 24 41 08                  	lw	s1, 132(sp)
800030ec: 03 24 81 08                  	lw	s0, 136(sp)
800030f0: 83 20 c1 08                  	lw	ra, 140(sp)
800030f4: 13 01 01 09                  	addi	sp, sp, 144
800030f8: 67 80 00 00                  	ret

800030fc _ZN10Rasterizer10renderTileEjjjRKNS_11primitive_tEjjN7cocogfx6TFixedILj16EiEES5_S5_:
800030fc: 13 01 01 fc                  	addi	sp, sp, -64
80003100: 23 2e 11 02                  	sw	ra, 60(sp)
80003104: 23 2c 81 02                  	sw	s0, 56(sp)
80003108: 23 2a 91 02                  	sw	s1, 52(sp)
8000310c: 23 28 21 03                  	sw	s2, 48(sp)
80003110: 23 26 31 03                  	sw	s3, 44(sp)
80003114: 23 24 41 03                  	sw	s4, 40(sp)
80003118: 23 22 51 03                  	sw	s5, 36(sp)
8000311c: 23 20 61 03                  	sw	s6, 32(sp)
80003120: 23 2e 71 01                  	sw	s7, 28(sp)
80003124: 23 2c 81 01                  	sw	s8, 24(sp)
80003128: 23 2a 91 01                  	sw	s9, 20(sp)
8000312c: 23 28 a1 01                  	sw	s10, 16(sp)
80003130: 23 26 b1 01                  	sw	s11, 12(sp)
80003134: 13 04 07 00                  	mv	s0, a4
80003138: 03 27 47 02                  	lw	a4, 36(a4)
8000313c: 93 84 06 00                  	mv	s1, a3
80003140: b3 16 d7 00                  	sll	a3, a4, a3
80003144: b3 86 16 01                  	add	a3, a3, a7
80003148: 63 c0 06 1e                  	bltz	a3, 480
8000314c: 13 89 08 00                  	mv	s2, a7
80003150: 93 09 08 00                  	mv	s3, a6
80003154: 93 8c 07 00                  	mv	s9, a5
80003158: 13 0a 06 00                  	mv	s4, a2
8000315c: 13 8c 05 00                  	mv	s8, a1
80003160: 13 0b 05 00                  	mv	s6, a0
80003164: 83 2a 41 04                  	lw	s5, 68(sp)
80003168: 83 2b 01 04                  	lw	s7, 64(sp)
8000316c: 03 25 84 02                  	lw	a0, 40(s0)
80003170: 33 15 95 00                  	sll	a0, a0, s1
80003174: 33 05 75 01                  	add	a0, a0, s7
80003178: 63 48 05 1a                  	bltz	a0, 432
8000317c: 03 25 c4 02                  	lw	a0, 44(s0)
80003180: 33 15 95 00                  	sll	a0, a0, s1
80003184: 33 05 55 01                  	add	a0, a0, s5
80003188: 63 40 05 1a                  	bltz	a0, 416
8000318c: 03 25 8b 00                  	lw	a0, 8(s6)
80003190: 63 7e 95 12                  	bgeu	a0, s1, 316
80003194: 93 84 f4 ff                  	addi	s1, s1, -1
80003198: 13 05 10 00                  	addi	a0, zero, 1
8000319c: b3 1d 95 00                  	sll	s11, a0, s1
800031a0: 23 22 51 01                  	sw	s5, 4(sp)
800031a4: 23 20 71 01                  	sw	s7, 0(sp)
800031a8: 13 05 0b 00                  	mv	a0, s6
800031ac: 93 05 0c 00                  	mv	a1, s8
800031b0: 13 06 0a 00                  	mv	a2, s4
800031b4: 93 86 04 00                  	mv	a3, s1
800031b8: 13 07 04 00                  	mv	a4, s0
800031bc: 93 87 0c 00                  	mv	a5, s9
800031c0: 13 88 09 00                  	mv	a6, s3
800031c4: 93 08 09 00                  	mv	a7, s2
800031c8: ef f0 5f f3                  	jal	-204
800031cc: 03 25 04 00                  	lw	a0, 0(s0)
800031d0: 33 8d 9d 01                  	add	s10, s11, s9
800031d4: 83 25 c4 00                  	lw	a1, 12(s0)
800031d8: 33 15 95 00                  	sll	a0, a0, s1
800031dc: 03 26 84 01                  	lw	a2, 24(s0)
800031e0: b3 08 25 01                  	add	a7, a0, s2
800031e4: 33 95 95 00                  	sll	a0, a1, s1
800031e8: 33 05 75 01                  	add	a0, a0, s7
800031ec: b3 15 96 00                  	sll	a1, a2, s1
800031f0: b3 85 55 01                  	add	a1, a1, s5
800031f4: 23 22 b1 00                  	sw	a1, 4(sp)
800031f8: 23 20 a1 00                  	sw	a0, 0(sp)
800031fc: 13 05 0b 00                  	mv	a0, s6
80003200: 93 05 0c 00                  	mv	a1, s8
80003204: 13 06 0a 00                  	mv	a2, s4
80003208: 93 86 04 00                  	mv	a3, s1
8000320c: 13 07 04 00                  	mv	a4, s0
80003210: 93 07 0d 00                  	mv	a5, s10
80003214: 13 88 09 00                  	mv	a6, s3
80003218: ef f0 5f ee                  	jal	-284
8000321c: 03 25 44 00                  	lw	a0, 4(s0)
80003220: b3 89 3d 01                  	add	s3, s11, s3
80003224: 83 25 04 01                  	lw	a1, 16(s0)
80003228: 33 15 95 00                  	sll	a0, a0, s1
8000322c: 03 26 c4 01                  	lw	a2, 28(s0)
80003230: b3 08 25 01                  	add	a7, a0, s2
80003234: 33 95 95 00                  	sll	a0, a1, s1
80003238: 33 05 75 01                  	add	a0, a0, s7
8000323c: b3 15 96 00                  	sll	a1, a2, s1
80003240: b3 85 55 01                  	add	a1, a1, s5
80003244: 23 22 b1 00                  	sw	a1, 4(sp)
80003248: 23 20 a1 00                  	sw	a0, 0(sp)
8000324c: 13 05 0b 00                  	mv	a0, s6
80003250: 93 05 0c 00                  	mv	a1, s8
80003254: 13 06 0a 00                  	mv	a2, s4
80003258: 93 86 04 00                  	mv	a3, s1
8000325c: 13 07 04 00                  	mv	a4, s0
80003260: 93 87 0c 00                  	mv	a5, s9
80003264: 13 88 09 00                  	mv	a6, s3
80003268: ef f0 5f e9                  	jal	-364
8000326c: 03 25 04 00                  	lw	a0, 0(s0)
80003270: 83 25 44 00                  	lw	a1, 4(s0)
80003274: 33 15 95 00                  	sll	a0, a0, s1
80003278: 33 05 25 01                  	add	a0, a0, s2
8000327c: 03 26 c4 00                  	lw	a2, 12(s0)
80003280: b3 95 95 00                  	sll	a1, a1, s1
80003284: 83 26 04 01                  	lw	a3, 16(s0)
80003288: 33 09 b5 00                  	add	s2, a0, a1
8000328c: 33 15 96 00                  	sll	a0, a2, s1
80003290: 33 05 75 01                  	add	a0, a0, s7
80003294: b3 95 96 00                  	sll	a1, a3, s1
80003298: 03 26 84 01                  	lw	a2, 24(s0)
8000329c: b3 0b b5 00                  	add	s7, a0, a1
800032a0: 03 25 c4 01                  	lw	a0, 28(s0)
800032a4: 83 25 44 02                  	lw	a1, 36(s0)
800032a8: 33 16 96 00                  	sll	a2, a2, s1
800032ac: 33 06 56 01                  	add	a2, a2, s5
800032b0: 33 15 95 00                  	sll	a0, a0, s1
800032b4: b3 95 95 00                  	sll	a1, a1, s1
800032b8: b3 85 25 01                  	add	a1, a1, s2
800032bc: b3 0a a6 00                  	add	s5, a2, a0
800032c0: 93 0c 0d 00                  	mv	s9, s10
800032c4: e3 d4 05 ea                  	bgez	a1, -344
800032c8: 6f 00 00 06                  	j	96
800032cc: 93 05 20 00                  	addi	a1, zero, 2
800032d0: 63 6a b5 02                  	bltu	a0, a1, 52
800032d4: 23 22 51 01                  	sw	s5, 4(sp)
800032d8: 23 20 71 01                  	sw	s7, 0(sp)
800032dc: 13 05 0b 00                  	mv	a0, s6
800032e0: 93 05 0c 00                  	mv	a1, s8
800032e4: 13 06 0a 00                  	mv	a2, s4
800032e8: 93 86 04 00                  	mv	a3, s1
800032ec: 13 07 04 00                  	mv	a4, s0
800032f0: 93 87 0c 00                  	mv	a5, s9
800032f4: 13 88 09 00                  	mv	a6, s3
800032f8: 93 08 09 00                  	mv	a7, s2
800032fc: ef 00 80 06                  	jal	104
80003300: 6f 00 80 02                  	j	40
80003304: 13 05 0b 00                  	mv	a0, s6
80003308: 93 05 0a 00                  	mv	a1, s4
8000330c: 13 06 04 00                  	mv	a2, s0
80003310: 93 86 0c 00                  	mv	a3, s9
80003314: 13 87 09 00                  	mv	a4, s3
80003318: 93 07 09 00                  	mv	a5, s2
8000331c: 13 88 0b 00                  	mv	a6, s7
80003320: 93 88 0a 00                  	mv	a7, s5
80003324: ef 00 00 2b                  	jal	688
80003328: 83 2d c1 00                  	lw	s11, 12(sp)
8000332c: 03 2d 01 01                  	lw	s10, 16(sp)
80003330: 83 2c 41 01                  	lw	s9, 20(sp)
80003334: 03 2c 81 01                  	lw	s8, 24(sp)
80003338: 83 2b c1 01                  	lw	s7, 28(sp)
8000333c: 03 2b 01 02                  	lw	s6, 32(sp)
80003340: 83 2a 41 02                  	lw	s5, 36(sp)
80003344: 03 2a 81 02                  	lw	s4, 40(sp)
80003348: 83 29 c1 02                  	lw	s3, 44(sp)
8000334c: 03 29 01 03                  	lw	s2, 48(sp)
80003350: 83 24 41 03                  	lw	s1, 52(sp)
80003354: 03 24 81 03                  	lw	s0, 56(sp)
80003358: 83 20 c1 03                  	lw	ra, 60(sp)
8000335c: 13 01 01 04                  	addi	sp, sp, 64
80003360: 67 80 00 00                  	ret

80003364 _ZN10Rasterizer11renderBlockEjjjRKNS_11primitive_tEjjN7cocogfx6TFixedILj16EiEES5_S5_:
80003364: 13 01 01 fc                  	addi	sp, sp, -64
80003368: 23 2e 11 02                  	sw	ra, 60(sp)
8000336c: 23 2c 81 02                  	sw	s0, 56(sp)
80003370: 23 2a 91 02                  	sw	s1, 52(sp)
80003374: 23 28 21 03                  	sw	s2, 48(sp)
80003378: 23 26 31 03                  	sw	s3, 44(sp)
8000337c: 23 24 41 03                  	sw	s4, 40(sp)
80003380: 23 22 51 03                  	sw	s5, 36(sp)
80003384: 23 20 61 03                  	sw	s6, 32(sp)
80003388: 23 2e 71 01                  	sw	s7, 28(sp)
8000338c: 23 2c 81 01                  	sw	s8, 24(sp)
80003390: 23 2a 91 01                  	sw	s9, 20(sp)
80003394: 23 28 a1 01                  	sw	s10, 16(sp)
80003398: 23 26 b1 01                  	sw	s11, 12(sp)
8000339c: 13 09 05 00                  	mv	s2, a0
800033a0: 03 25 85 00                  	lw	a0, 8(a0)
800033a4: 83 24 c9 02                  	lw	s1, 44(s2)
800033a8: 93 8c 07 00                  	mv	s9, a5
800033ac: b3 57 a8 00                  	srl	a5, a6, a0
800033b0: 03 24 09 03                  	lw	s0, 48(s2)
800033b4: b3 87 97 02                  	<unknown>
800033b8: 33 d5 ac 00                  	srl	a0, s9, a0
800033bc: 33 85 a7 00                  	add	a0, a5, a0
800033c0: 93 07 f4 ff                  	addi	a5, s0, -1
800033c4: 33 75 f5 00                  	and	a0, a0, a5
800033c8: 63 18 b5 1c                  	bne	a0, a1, 464
800033cc: 93 0b 08 00                  	mv	s7, a6
800033d0: 93 89 08 00                  	mv	s3, a7
800033d4: 13 04 07 00                  	mv	s0, a4
800033d8: 93 84 06 00                  	mv	s1, a3
800033dc: 93 0a 06 00                  	mv	s5, a2
800033e0: 13 8c 05 00                  	mv	s8, a1
800033e4: 03 2b 41 04                  	lw	s6, 68(sp)
800033e8: 03 2a 01 04                  	lw	s4, 64(sp)
800033ec: 03 25 44 02                  	lw	a0, 36(s0)
800033f0: 33 15 95 00                  	sll	a0, a0, s1
800033f4: 33 05 35 01                  	add	a0, a0, s3
800033f8: 63 40 05 1a                  	bltz	a0, 416
800033fc: 03 25 84 02                  	lw	a0, 40(s0)
80003400: 33 15 95 00                  	sll	a0, a0, s1
80003404: 33 05 45 01                  	add	a0, a0, s4
80003408: 63 48 05 18                  	bltz	a0, 400
8000340c: 03 25 c4 02                  	lw	a0, 44(s0)
80003410: 33 15 95 00                  	sll	a0, a0, s1
80003414: 33 05 65 01                  	add	a0, a0, s6
80003418: 63 40 05 18                  	bltz	a0, 384
8000341c: 13 05 20 00                  	addi	a0, zero, 2
80003420: 63 ea a4 14                  	bltu	s1, a0, 340
80003424: 93 84 f4 ff                  	addi	s1, s1, -1
80003428: 13 05 10 00                  	addi	a0, zero, 1
8000342c: b3 1d 95 00                  	sll	s11, a0, s1
80003430: 23 22 61 01                  	sw	s6, 4(sp)
80003434: 23 20 41 01                  	sw	s4, 0(sp)
80003438: 13 05 09 00                  	mv	a0, s2
8000343c: 93 05 0c 00                  	mv	a1, s8
80003440: 13 86 0a 00                  	mv	a2, s5
80003444: 93 86 04 00                  	mv	a3, s1
80003448: 13 07 04 00                  	mv	a4, s0
8000344c: 93 87 0c 00                  	mv	a5, s9
80003450: 13 88 0b 00                  	mv	a6, s7
80003454: 93 88 09 00                  	mv	a7, s3
80003458: ef f0 df f0                  	jal	-244
8000345c: 03 25 04 00                  	lw	a0, 0(s0)
80003460: 33 8d 9d 01                  	add	s10, s11, s9
80003464: 83 25 c4 00                  	lw	a1, 12(s0)
80003468: 33 15 95 00                  	sll	a0, a0, s1
8000346c: 03 26 84 01                  	lw	a2, 24(s0)
80003470: b3 08 35 01                  	add	a7, a0, s3
80003474: 33 95 95 00                  	sll	a0, a1, s1
80003478: 33 05 45 01                  	add	a0, a0, s4
8000347c: b3 15 96 00                  	sll	a1, a2, s1
80003480: b3 85 65 01                  	add	a1, a1, s6
80003484: 23 22 b1 00                  	sw	a1, 4(sp)
80003488: 23 20 a1 00                  	sw	a0, 0(sp)
8000348c: 13 05 09 00                  	mv	a0, s2
80003490: 93 05 0c 00                  	mv	a1, s8
80003494: 13 86 0a 00                  	mv	a2, s5
80003498: 93 86 04 00                  	mv	a3, s1
8000349c: 13 07 04 00                  	mv	a4, s0
800034a0: 93 07 0d 00                  	mv	a5, s10
800034a4: 13 88 0b 00                  	mv	a6, s7
800034a8: ef f0 df eb                  	jal	-324
800034ac: 03 25 44 00                  	lw	a0, 4(s0)
800034b0: b3 8b 7d 01                  	add	s7, s11, s7
800034b4: 83 25 04 01                  	lw	a1, 16(s0)
800034b8: 33 15 95 00                  	sll	a0, a0, s1
800034bc: 03 26 c4 01                  	lw	a2, 28(s0)
800034c0: b3 08 35 01                  	add	a7, a0, s3
800034c4: 33 95 95 00                  	sll	a0, a1, s1
800034c8: 33 05 45 01                  	add	a0, a0, s4
800034cc: b3 15 96 00                  	sll	a1, a2, s1
800034d0: b3 85 65 01                  	add	a1, a1, s6
800034d4: 23 22 b1 00                  	sw	a1, 4(sp)
800034d8: 23 20 a1 00                  	sw	a0, 0(sp)
800034dc: 13 05 09 00                  	mv	a0, s2
800034e0: 93 05 0c 00                  	mv	a1, s8
800034e4: 13 86 0a 00                  	mv	a2, s5
800034e8: 93 86 04 00                  	mv	a3, s1
800034ec: 13 07 04 00                  	mv	a4, s0
800034f0: 93 87 0c 00                  	mv	a5, s9
800034f4: 13 88 0b 00                  	mv	a6, s7
800034f8: ef f0 df e6                  	jal	-404
800034fc: 03 25 04 00                  	lw	a0, 0(s0)
80003500: 83 25 44 00                  	lw	a1, 4(s0)
80003504: 33 15 95 00                  	sll	a0, a0, s1
80003508: 33 05 35 01                  	add	a0, a0, s3
8000350c: 03 26 c4 00                  	lw	a2, 12(s0)
80003510: b3 95 95 00                  	sll	a1, a1, s1
80003514: b3 09 b5 00                  	add	s3, a0, a1
80003518: 03 25 04 01                  	lw	a0, 16(s0)
8000351c: b3 15 96 00                  	sll	a1, a2, s1
80003520: 03 26 84 01                  	lw	a2, 24(s0)
80003524: b3 85 45 01                  	add	a1, a1, s4
80003528: 33 15 95 00                  	sll	a0, a0, s1
8000352c: 33 8a a5 00                  	add	s4, a1, a0
80003530: 33 15 96 00                  	sll	a0, a2, s1
80003534: 83 25 89 00                  	lw	a1, 8(s2)
80003538: 03 26 c9 02                  	lw	a2, 44(s2)
8000353c: 33 05 65 01                  	add	a0, a0, s6
80003540: 83 26 c4 01                  	lw	a3, 28(s0)
80003544: 33 d7 bb 00                  	srl	a4, s7, a1
80003548: 33 06 c7 02                  	<unknown>
8000354c: 03 27 09 03                  	lw	a4, 48(s2)
80003550: b3 55 bd 00                  	srl	a1, s10, a1
80003554: b3 05 b6 00                  	add	a1, a2, a1
80003558: 33 96 96 00                  	sll	a2, a3, s1
8000355c: 93 06 f7 ff                  	addi	a3, a4, -1
80003560: b3 f5 d5 00                  	and	a1, a1, a3
80003564: 33 0b c5 00                  	add	s6, a0, a2
80003568: 93 0c 0d 00                  	mv	s9, s10
8000356c: e3 80 85 e9                  	beq	a1, s8, -384
80003570: 6f 00 80 02                  	j	40
80003574: 13 05 09 00                  	mv	a0, s2
80003578: 93 85 0a 00                  	mv	a1, s5
8000357c: 13 06 04 00                  	mv	a2, s0
80003580: 93 86 0c 00                  	mv	a3, s9
80003584: 13 87 0b 00                  	mv	a4, s7
80003588: 93 87 09 00                  	mv	a5, s3
8000358c: 13 08 0a 00                  	mv	a6, s4
80003590: 93 08 0b 00                  	mv	a7, s6
80003594: ef 00 00 04                  	jal	64
80003598: 83 2d c1 00                  	lw	s11, 12(sp)
8000359c: 03 2d 01 01                  	lw	s10, 16(sp)
800035a0: 83 2c 41 01                  	lw	s9, 20(sp)
800035a4: 03 2c 81 01                  	lw	s8, 24(sp)
800035a8: 83 2b c1 01                  	lw	s7, 28(sp)
800035ac: 03 2b 01 02                  	lw	s6, 32(sp)
800035b0: 83 2a 41 02                  	lw	s5, 36(sp)
800035b4: 03 2a 81 02                  	lw	s4, 40(sp)
800035b8: 83 29 c1 02                  	lw	s3, 44(sp)
800035bc: 03 29 01 03                  	lw	s2, 48(sp)
800035c0: 83 24 41 03                  	lw	s1, 52(sp)
800035c4: 03 24 81 03                  	lw	s0, 56(sp)
800035c8: 83 20 c1 03                  	lw	ra, 60(sp)
800035cc: 13 01 01 04                  	addi	sp, sp, 64
800035d0: 67 80 00 00                  	ret

800035d4 _ZN10Rasterizer10renderQuadEjRKNS_11primitive_tEjjN7cocogfx6TFixedILj16EiEES5_S5_:
800035d4: 13 01 01 fb                  	addi	sp, sp, -80
800035d8: 23 26 11 04                  	sw	ra, 76(sp)
800035dc: 23 24 81 04                  	sw	s0, 72(sp)
800035e0: 23 22 91 04                  	sw	s1, 68(sp)
800035e4: 23 20 21 05                  	sw	s2, 64(sp)
800035e8: 23 2e 31 03                  	sw	s3, 60(sp)
800035ec: 83 23 06 00                  	lw	t2, 0(a2)
800035f0: 03 2e c6 00                  	lw	t3, 12(a2)
800035f4: 83 2e 86 01                  	lw	t4, 24(a2)
800035f8: 03 2f 46 00                  	lw	t5, 4(a2)
800035fc: 83 2f 06 01                  	lw	t6, 16(a2)
80003600: 03 29 c6 01                  	lw	s2, 28(a2)
80003604: 33 66 f8 00                  	or	a2, a6, a5
80003608: 33 66 16 01                  	or	a2, a2, a7
8000360c: 93 82 05 00                  	mv	t0, a1
80003610: 63 44 06 02                  	bltz	a2, 40
80003614: 83 25 c5 01                  	lw	a1, 28(a0)
80003618: 63 f0 b6 02                  	bgeu	a3, a1, 32
8000361c: 83 25 05 02                  	lw	a1, 32(a0)
80003620: 63 7c b7 00                  	bgeu	a4, a1, 24
80003624: 23 24 f1 00                  	sw	a5, 8(sp)
80003628: 23 26 01 01                  	sw	a6, 12(sp)
8000362c: 23 28 11 01                  	sw	a7, 16(sp)
80003630: 13 03 10 00                  	addi	t1, zero, 1
80003634: 6f 00 80 00                  	j	8
80003638: 13 03 00 00                  	mv	t1, zero
8000363c: b3 89 f3 00                  	add	s3, t2, a5
80003640: 33 06 0e 01                  	add	a2, t3, a6
80003644: b3 84 1e 01                  	add	s1, t4, a7
80003648: 33 64 36 01                  	or	s0, a2, s3
8000364c: 33 64 94 00                  	or	s0, s0, s1
80003650: 93 05 f0 ff                  	addi	a1, zero, -1
80003654: 63 d4 85 02                  	bge	a1, s0, 40
80003658: 83 25 c5 01                  	lw	a1, 28(a0)
8000365c: 13 84 16 00                  	addi	s0, a3, 1
80003660: 63 7e b4 00                  	bgeu	s0, a1, 28
80003664: 83 25 05 02                  	lw	a1, 32(a0)
80003668: 63 7a b7 00                  	bgeu	a4, a1, 20
8000366c: 13 63 23 00                  	ori	t1, t1, 2
80003670: 23 2a 31 01                  	sw	s3, 20(sp)
80003674: 23 2c c1 00                  	sw	a2, 24(sp)
80003678: 23 2e 91 00                  	sw	s1, 28(sp)
8000367c: b3 07 ff 00                  	add	a5, t5, a5
80003680: 33 86 0f 01                  	add	a2, t6, a6
80003684: 33 04 19 01                  	add	s0, s2, a7
80003688: b3 65 f6 00                  	or	a1, a2, a5
8000368c: b3 e4 85 00                  	or	s1, a1, s0
80003690: 13 08 17 00                  	addi	a6, a4, 1
80003694: 63 c2 04 02                  	bltz	s1, 36
80003698: 83 24 c5 01                  	lw	s1, 28(a0)
8000369c: 63 fe 96 00                  	bgeu	a3, s1, 28
800036a0: 83 24 05 02                  	lw	s1, 32(a0)
800036a4: 63 7a 98 00                  	bgeu	a6, s1, 20
800036a8: 13 63 43 00                  	ori	t1, t1, 4
800036ac: 23 20 f1 02                  	sw	a5, 32(sp)
800036b0: 23 22 c1 02                  	sw	a2, 36(sp)
800036b4: 23 24 81 02                  	sw	s0, 40(sp)
800036b8: b3 87 f3 00                  	add	a5, t2, a5
800036bc: 33 06 ce 00                  	add	a2, t3, a2
800036c0: 33 84 8e 00                  	add	s0, t4, s0
800036c4: b3 64 f6 00                  	or	s1, a2, a5
800036c8: b3 e4 84 00                  	or	s1, s1, s0
800036cc: 63 c6 04 02                  	bltz	s1, 44
800036d0: 83 24 c5 01                  	lw	s1, 28(a0)
800036d4: 93 85 16 00                  	addi	a1, a3, 1
800036d8: 63 f0 95 02                  	bgeu	a1, s1, 32
800036dc: 83 25 05 02                  	lw	a1, 32(a0)
800036e0: 63 7c b8 00                  	bgeu	a6, a1, 24
800036e4: 13 63 83 00                  	ori	t1, t1, 8
800036e8: 23 26 f1 02                  	sw	a5, 44(sp)
800036ec: 23 28 c1 02                  	sw	a2, 48(sp)
800036f0: 23 2a 81 02                  	sw	s0, 52(sp)
800036f4: 6f 00 80 00                  	j	8
800036f8: 63 00 03 02                  	beqz	t1, 32
800036fc: 03 25 05 00                  	lw	a0, 0(a0)
80003700: 13 56 17 00                  	srli	a2, a4, 1
80003704: 93 d5 16 00                  	srli	a1, a3, 1
80003708: 13 07 81 00                  	addi	a4, sp, 8
8000370c: 93 06 03 00                  	mv	a3, t1
80003710: 93 87 02 00                  	mv	a5, t0
80003714: ef d0 1f a9                  	jal	-9584
80003718: 83 29 c1 03                  	lw	s3, 60(sp)
8000371c: 03 29 01 04                  	lw	s2, 64(sp)
80003720: 83 24 41 04                  	lw	s1, 68(sp)
80003724: 03 24 81 04                  	lw	s0, 72(sp)
80003728: 83 20 c1 04                  	lw	ra, 76(sp)
8000372c: 13 01 01 05                  	addi	sp, sp, 80
80003730: 67 80 00 00                  	ret

80003734 _exit:
80003734: 13 04 05 00                  	mv	s0, a0
80003738: ef 00 80 3c                  	jal	968
8000373c: 93 01 04 00                  	mv	gp, s0
80003740: 13 05 00 00                  	mv	a0, zero
80003744: 0b 00 05 00                  	vx_tmc	a0

80003748 vx_set_sp:
80003748: 13 05 f0 ff                  	addi	a0, zero, -1
8000374c: 0b 00 05 00                  	vx_tmc	a0
80003750: 37 01 00 ff                  	lui	sp, 1044480
80003754: b7 25 00 00                  	lui	a1, 2
80003758: 73 26 20 cc                  	csrr	a2, 3266
8000375c: b3 85 c5 02                  	<unknown>
80003760: 33 01 b1 40                  	sub	sp, sp, a1
80003764: f3 26 30 cc                  	csrr	a3, 3267
80003768: 63 86 06 00                  	beqz	a3, 12
8000376c: 13 05 00 00                  	mv	a0, zero
80003770: 0b 00 05 00                  	vx_tmc	a0

80003774 RETURN:
80003774: 67 80 00 00                  	ret

80003778 _sbrk:
80003778: 73 00 10 00                  	ebreak	
8000377c: 13 05 00 00                  	mv	a0, zero
80003780: 67 80 00 00                  	ret

80003784 _kill:
80003784: 13 05 f0 ff                  	addi	a0, zero, -1
80003788: 67 80 00 00                  	ret

8000378c _getpid:
8000378c: 73 25 40 f1                  	csrr	a0, mhartid
80003790: 67 80 00 00                  	ret

80003794 __libc_init_array:
80003794: 13 01 01 ff                  	addi	sp, sp, -16
80003798: 23 24 81 00                  	sw	s0, 8(sp)
8000379c: 23 20 21 01                  	sw	s2, 0(sp)
800037a0: 17 34 00 00                  	auipc	s0, 3
800037a4: 13 04 04 9d                  	addi	s0, s0, -1584
800037a8: 17 39 00 00                  	auipc	s2, 3
800037ac: 13 09 89 9c                  	addi	s2, s2, -1592
800037b0: 33 09 89 40                  	sub	s2, s2, s0
800037b4: 23 26 11 00                  	sw	ra, 12(sp)
800037b8: 23 22 91 00                  	sw	s1, 4(sp)
800037bc: 13 59 29 40                  	srai	s2, s2, 2
800037c0: 63 0e 09 00                  	beqz	s2, 28
800037c4: 93 04 00 00                  	mv	s1, zero
800037c8: 83 27 04 00                  	lw	a5, 0(s0)
800037cc: 93 84 14 00                  	addi	s1, s1, 1
800037d0: 13 04 44 00                  	addi	s0, s0, 4
800037d4: e7 80 07 00                  	jalr	a5
800037d8: e3 18 99 fe                  	bne	s2, s1, -16
800037dc: 17 34 00 00                  	auipc	s0, 3
800037e0: 13 04 44 99                  	addi	s0, s0, -1644
800037e4: 17 39 00 00                  	auipc	s2, 3
800037e8: 13 09 09 99                  	addi	s2, s2, -1648
800037ec: 33 09 89 40                  	sub	s2, s2, s0
800037f0: 13 59 29 40                  	srai	s2, s2, 2
800037f4: 63 0e 09 00                  	beqz	s2, 28
800037f8: 93 04 00 00                  	mv	s1, zero
800037fc: 83 27 04 00                  	lw	a5, 0(s0)
80003800: 93 84 14 00                  	addi	s1, s1, 1
80003804: 13 04 44 00                  	addi	s0, s0, 4
80003808: e7 80 07 00                  	jalr	a5
8000380c: e3 18 99 fe                  	bne	s2, s1, -16
80003810: 83 20 c1 00                  	lw	ra, 12(sp)
80003814: 03 24 81 00                  	lw	s0, 8(sp)
80003818: 83 24 41 00                  	lw	s1, 4(sp)
8000381c: 03 29 01 00                  	lw	s2, 0(sp)
80003820: 13 01 01 01                  	addi	sp, sp, 16
80003824: 67 80 00 00                  	ret

80003828 __libc_fini_array:
80003828: 13 01 01 ff                  	addi	sp, sp, -16
8000382c: 23 24 81 00                  	sw	s0, 8(sp)
80003830: 97 37 00 00                  	auipc	a5, 3
80003834: 93 87 47 94                  	addi	a5, a5, -1724
80003838: 17 34 00 00                  	auipc	s0, 3
8000383c: 13 04 c4 93                  	addi	s0, s0, -1732
80003840: b3 87 87 40                  	sub	a5, a5, s0
80003844: 23 22 91 00                  	sw	s1, 4(sp)
80003848: 23 26 11 00                  	sw	ra, 12(sp)
8000384c: 93 d4 27 40                  	srai	s1, a5, 2
80003850: 63 80 04 02                  	beqz	s1, 32
80003854: 93 87 c7 ff                  	addi	a5, a5, -4
80003858: 33 84 87 00                  	add	s0, a5, s0
8000385c: 83 27 04 00                  	lw	a5, 0(s0)
80003860: 93 84 f4 ff                  	addi	s1, s1, -1
80003864: 13 04 c4 ff                  	addi	s0, s0, -4
80003868: e7 80 07 00                  	jalr	a5
8000386c: e3 98 04 fe                  	bnez	s1, -16
80003870: 83 20 c1 00                  	lw	ra, 12(sp)
80003874: 03 24 81 00                  	lw	s0, 8(sp)
80003878: 83 24 41 00                  	lw	s1, 4(sp)
8000387c: 13 01 01 01                  	addi	sp, sp, 16
80003880: 67 80 00 00                  	ret

80003884 spawn_tasks_all_stub:
80003884: 13 01 01 fe                  	addi	sp, sp, -32
80003888: 23 2e 11 00                  	sw	ra, 28(sp)
8000388c: 23 2c 81 00                  	sw	s0, 24(sp)
80003890: 23 2a 91 00                  	sw	s1, 20(sp)
80003894: 23 28 21 01                  	sw	s2, 16(sp)
80003898: 23 26 31 01                  	sw	s3, 12(sp)
8000389c: 23 24 41 01                  	sw	s4, 8(sp)
800038a0: f3 27 50 cc                  	csrr	a5, 3269
800038a4: 73 27 30 cc                  	csrr	a4, 3267
800038a8: f3 26 00 cc                  	csrr	a3, 3264
800038ac: f3 25 00 fc                  	csrr	a1, 4032
800038b0: 13 96 27 00                  	slli	a2, a5, 2
800038b4: 97 37 00 00                  	auipc	a5, 3
800038b8: 93 87 07 15                  	addi	a5, a5, 336
800038bc: b3 87 c7 00                  	add	a5, a5, a2
800038c0: 03 aa 07 00                  	lw	s4, 0(a5)
800038c4: 03 24 0a 01                  	lw	s0, 16(s4)
800038c8: 03 26 ca 00                  	lw	a2, 12(s4)
800038cc: b3 24 87 00                  	slt	s1, a4, s0
800038d0: 93 07 04 00                  	mv	a5, s0
800038d4: b3 84 c4 00                  	add	s1, s1, a2
800038d8: 33 04 e6 02                  	<unknown>
800038dc: 63 54 f7 00                  	bge	a4, a5, 8
800038e0: 93 07 07 00                  	mv	a5, a4
800038e4: 33 04 f4 00                  	add	s0, s0, a5
800038e8: 03 27 8a 00                  	lw	a4, 8(s4)
800038ec: 83 29 0a 00                  	lw	s3, 0(s4)
800038f0: 03 29 4a 00                  	lw	s2, 4(s4)
800038f4: 33 04 b4 02                  	<unknown>
800038f8: b3 87 d4 02                  	<unknown>
800038fc: 33 04 e4 00                  	add	s0, s0, a4
80003900: 33 04 f4 00                  	add	s0, s0, a5
80003904: b3 84 84 00                  	add	s1, s1, s0
80003908: 63 5c 94 00                  	bge	s0, s1, 24
8000390c: 13 05 04 00                  	mv	a0, s0
80003910: 93 05 09 00                  	mv	a1, s2
80003914: 13 04 14 00                  	addi	s0, s0, 1
80003918: e7 80 09 00                  	jalr	s3
8000391c: e3 98 84 fe                  	bne	s1, s0, -16
80003920: 03 27 4a 01                  	lw	a4, 20(s4)
80003924: 93 07 00 00                  	mv	a5, zero
80003928: 0b c0 e7 00                  	vx_bar	a5, a4
8000392c: 83 20 c1 01                  	lw	ra, 28(sp)
80003930: 03 24 81 01                  	lw	s0, 24(sp)
80003934: 83 24 41 01                  	lw	s1, 20(sp)
80003938: 03 29 01 01                  	lw	s2, 16(sp)
8000393c: 83 29 c1 00                  	lw	s3, 12(sp)
80003940: 03 2a 81 00                  	lw	s4, 8(sp)
80003944: 13 01 01 02                  	addi	sp, sp, 32
80003948: 67 80 00 00                  	ret

8000394c spawn_tasks_rem_stub:
8000394c: f3 27 50 cc                  	csrr	a5, 3269
80003950: 73 25 20 cc                  	csrr	a0, 3266
80003954: 13 97 27 00                  	slli	a4, a5, 2
80003958: 97 37 00 00                  	auipc	a5, 3
8000395c: 93 87 c7 0a                  	addi	a5, a5, 172
80003960: b3 87 e7 00                  	add	a5, a5, a4
80003964: 83 a7 07 00                  	lw	a5, 0(a5)
80003968: 03 a7 87 00                  	lw	a4, 8(a5)
8000396c: 03 a3 07 00                  	lw	t1, 0(a5)
80003970: 83 a5 47 00                  	lw	a1, 4(a5)
80003974: 33 05 e5 00                  	add	a0, a0, a4
80003978: 67 00 03 00                  	jr	t1

8000397c spawn_tasks_all_cb:
8000397c: 13 01 01 ff                  	addi	sp, sp, -16
80003980: 23 26 11 00                  	sw	ra, 12(sp)
80003984: 93 07 f0 ff                  	addi	a5, zero, -1
80003988: 0b 80 07 00                  	vx_tmc	a5
8000398c: ef f0 9f ef                  	jal	-264
80003990: f3 27 30 cc                  	csrr	a5, 3267
80003994: 93 b7 17 00                  	seqz	a5, a5
80003998: 0b 80 07 00                  	vx_tmc	a5
8000399c: 83 20 c1 00                  	lw	ra, 12(sp)
800039a0: 13 01 01 01                  	addi	sp, sp, 16
800039a4: 67 80 00 00                  	ret

800039a8 vx_spawn_tasks:
800039a8: 13 01 01 fd                  	addi	sp, sp, -48
800039ac: 23 26 11 02                  	sw	ra, 44(sp)
800039b0: 23 24 81 02                  	sw	s0, 40(sp)
800039b4: 23 22 91 02                  	sw	s1, 36(sp)
800039b8: 23 20 21 03                  	sw	s2, 32(sp)
800039bc: f3 26 20 fc                  	csrr	a3, 4034
800039c0: f3 28 10 fc                  	csrr	a7, 4033
800039c4: f3 24 00 fc                  	csrr	s1, 4032
800039c8: f3 27 50 cc                  	csrr	a5, 3269
800039cc: 13 07 f0 01                  	addi	a4, zero, 31
800039d0: 63 48 f7 08                  	blt	a4, a5, 144
800039d4: 33 88 14 03                  	<unknown>
800039d8: 13 07 10 00                  	addi	a4, zero, 1
800039dc: 63 54 a8 00                  	bge	a6, a0, 8
800039e0: 33 47 05 03                  	<unknown>
800039e4: 63 ca e6 08                  	blt	a3, a4, 148
800039e8: 63 dc e7 06                  	bge	a5, a4, 120
800039ec: 93 86 f6 ff                  	addi	a3, a3, -1
800039f0: 33 43 e5 02                  	<unknown>
800039f4: 13 08 03 00                  	mv	a6, t1
800039f8: 63 96 f6 00                  	bne	a3, a5, 12
800039fc: 33 65 e5 02                  	<unknown>
80003a00: 33 08 65 00                  	add	a6, a0, t1
80003a04: 33 49 98 02                  	<unknown>
80003a08: 33 64 98 02                  	<unknown>
80003a0c: 63 4c 19 07                  	blt	s2, a7, 120
80003a10: 13 05 10 00                  	addi	a0, zero, 1
80003a14: b3 46 19 03                  	<unknown>
80003a18: 63 86 06 00                  	beqz	a3, 12
80003a1c: 13 85 06 00                  	mv	a0, a3
80003a20: b3 66 19 03                  	<unknown>
80003a24: 17 37 00 00                  	auipc	a4, 3
80003a28: 13 07 07 fe                  	addi	a4, a4, -32
80003a2c: 23 24 b1 00                  	sw	a1, 8(sp)
80003a30: 23 26 c1 00                  	sw	a2, 12(sp)
80003a34: 23 2a a1 00                  	sw	a0, 20(sp)
80003a38: 23 2c d1 00                  	sw	a3, 24(sp)
80003a3c: 23 2e 01 00                  	sw	zero, 28(sp)
80003a40: 33 03 f3 02                  	<unknown>
80003a44: 93 97 27 00                  	slli	a5, a5, 2
80003a48: b3 07 f7 00                  	add	a5, a4, a5
80003a4c: 13 07 81 00                  	addi	a4, sp, 8
80003a50: 23 a0 e7 00                  	sw	a4, 0(a5)
80003a54: 23 28 61 00                  	sw	t1, 16(sp)
80003a58: 63 4c 20 03                  	bgtz	s2, 56
80003a5c: 63 16 04 06                  	bnez	s0, 108
80003a60: 83 20 c1 02                  	lw	ra, 44(sp)
80003a64: 03 24 81 02                  	lw	s0, 40(sp)
80003a68: 83 24 41 02                  	lw	s1, 36(sp)
80003a6c: 03 29 01 02                  	lw	s2, 32(sp)
80003a70: 13 01 01 03                  	addi	sp, sp, 48
80003a74: 67 80 00 00                  	ret
80003a78: 13 87 06 00                  	mv	a4, a3
80003a7c: e3 c8 e7 f6                  	blt	a5, a4, -144
80003a80: 6f f0 1f fe                  	j	-32
80003a84: 93 06 00 00                  	mv	a3, zero
80003a88: 13 05 10 00                  	addi	a0, zero, 1
80003a8c: 6f f0 9f f9                  	j	-104
80003a90: 93 07 09 00                  	mv	a5, s2
80003a94: 63 d4 28 01                  	bge	a7, s2, 8
80003a98: 93 87 08 00                  	mv	a5, a7
80003a9c: 23 2e f1 00                  	sw	a5, 28(sp)
80003aa0: 17 07 00 00                  	auipc	a4, 0
80003aa4: 13 07 c7 ed                  	addi	a4, a4, -292
80003aa8: 0b 90 e7 00                  	vx_wspawn	a5, a4
80003aac: 93 07 f0 ff                  	addi	a5, zero, -1
80003ab0: 0b 80 07 00                  	vx_tmc	a5
80003ab4: ef f0 1f dd                  	jal	-560
80003ab8: f3 27 30 cc                  	csrr	a5, 3267
80003abc: 93 b7 17 00                  	seqz	a5, a5
80003ac0: 0b 80 07 00                  	vx_tmc	a5
80003ac4: e3 0e 04 f8                  	beqz	s0, -100
80003ac8: b3 04 99 02                  	<unknown>
80003acc: 13 09 10 00                  	addi	s2, zero, 1
80003ad0: 33 18 89 00                  	sll	a6, s2, s0
80003ad4: 13 08 f8 ff                  	addi	a6, a6, -1
80003ad8: 23 28 91 00                  	sw	s1, 16(sp)
80003adc: 0b 00 08 00                  	vx_tmc	a6
80003ae0: ef f0 df e6                  	jal	-404
80003ae4: 0b 00 09 00                  	vx_tmc	s2
80003ae8: 83 20 c1 02                  	lw	ra, 44(sp)
80003aec: 03 24 81 02                  	lw	s0, 40(sp)
80003af0: 83 24 41 02                  	lw	s1, 36(sp)
80003af4: 03 29 01 02                  	lw	s2, 32(sp)
80003af8: 13 01 01 03                  	addi	sp, sp, 48
80003afc: 67 80 00 00                  	ret

80003b00 vx_perf_dump:
80003b00: f3 27 50 cc                  	csrr	a5, 3269
80003b04: 37 07 ff 00                  	lui	a4, 4080
80003b08: b3 87 e7 00                  	add	a5, a5, a4
80003b0c: 93 97 87 00                  	slli	a5, a5, 8
80003b10: 73 27 00 b0                  	csrr	a4, mcycle
80003b14: 23 a0 e7 00                  	sw	a4, 0(a5)
80003b18: 73 27 10 b0                  	csrr	a4, 2817
80003b1c: 23 a2 e7 00                  	sw	a4, 4(a5)
80003b20: 73 27 20 b0                  	csrr	a4, minstret
80003b24: 23 a4 e7 00                  	sw	a4, 8(a5)
80003b28: 73 27 30 b0                  	csrr	a4, mhpmcounter3
80003b2c: 23 a6 e7 00                  	sw	a4, 12(a5)
80003b30: 73 27 40 b0                  	csrr	a4, mhpmcounter4
80003b34: 23 a8 e7 00                  	sw	a4, 16(a5)
80003b38: 73 27 50 b0                  	csrr	a4, mhpmcounter5
80003b3c: 23 aa e7 00                  	sw	a4, 20(a5)
80003b40: 73 27 60 b0                  	csrr	a4, mhpmcounter6
80003b44: 23 ac e7 00                  	sw	a4, 24(a5)
80003b48: 73 27 70 b0                  	csrr	a4, mhpmcounter7
80003b4c: 23 ae e7 00                  	sw	a4, 28(a5)
80003b50: 73 27 80 b0                  	csrr	a4, mhpmcounter8
80003b54: 23 a0 e7 02                  	sw	a4, 32(a5)
80003b58: 73 27 90 b0                  	csrr	a4, mhpmcounter9
80003b5c: 23 a2 e7 02                  	sw	a4, 36(a5)
80003b60: 73 27 a0 b0                  	csrr	a4, mhpmcounter10
80003b64: 23 a4 e7 02                  	sw	a4, 40(a5)
80003b68: 73 27 b0 b0                  	csrr	a4, mhpmcounter11
80003b6c: 23 a6 e7 02                  	sw	a4, 44(a5)
80003b70: 73 27 c0 b0                  	csrr	a4, mhpmcounter12
80003b74: 23 a8 e7 02                  	sw	a4, 48(a5)
80003b78: 73 27 d0 b0                  	csrr	a4, mhpmcounter13
80003b7c: 23 aa e7 02                  	sw	a4, 52(a5)
80003b80: 73 27 e0 b0                  	csrr	a4, mhpmcounter14
80003b84: 23 ac e7 02                  	sw	a4, 56(a5)
80003b88: 73 27 f0 b0                  	csrr	a4, mhpmcounter15
80003b8c: 23 ae e7 02                  	sw	a4, 60(a5)
80003b90: 73 27 00 b1                  	csrr	a4, mhpmcounter16
80003b94: 23 a0 e7 04                  	sw	a4, 64(a5)
80003b98: 73 27 10 b1                  	csrr	a4, mhpmcounter17
80003b9c: 23 a2 e7 04                  	sw	a4, 68(a5)
80003ba0: 73 27 20 b1                  	csrr	a4, mhpmcounter18
80003ba4: 23 a4 e7 04                  	sw	a4, 72(a5)
80003ba8: 73 27 30 b1                  	csrr	a4, mhpmcounter19
80003bac: 23 a6 e7 04                  	sw	a4, 76(a5)
80003bb0: 73 27 40 b1                  	csrr	a4, mhpmcounter20
80003bb4: 23 a8 e7 04                  	sw	a4, 80(a5)
80003bb8: 73 27 50 b1                  	csrr	a4, mhpmcounter21
80003bbc: 23 aa e7 04                  	sw	a4, 84(a5)
80003bc0: 73 27 60 b1                  	csrr	a4, mhpmcounter22
80003bc4: 23 ac e7 04                  	sw	a4, 88(a5)
80003bc8: 73 27 70 b1                  	csrr	a4, mhpmcounter23
80003bcc: 23 ae e7 04                  	sw	a4, 92(a5)
80003bd0: 73 27 80 b1                  	csrr	a4, mhpmcounter24
80003bd4: 23 a0 e7 06                  	sw	a4, 96(a5)
80003bd8: 73 27 90 b1                  	csrr	a4, mhpmcounter25
80003bdc: 23 a2 e7 06                  	sw	a4, 100(a5)
80003be0: 73 27 a0 b1                  	csrr	a4, mhpmcounter26
80003be4: 23 a4 e7 06                  	sw	a4, 104(a5)
80003be8: 73 27 b0 b1                  	csrr	a4, mhpmcounter27
80003bec: 23 a6 e7 06                  	sw	a4, 108(a5)
80003bf0: 73 27 c0 b1                  	csrr	a4, mhpmcounter28
80003bf4: 23 a8 e7 06                  	sw	a4, 112(a5)
80003bf8: 73 27 d0 b1                  	csrr	a4, mhpmcounter29
80003bfc: 23 aa e7 06                  	sw	a4, 116(a5)
80003c00: 73 27 e0 b1                  	csrr	a4, mhpmcounter30
80003c04: 23 ac e7 06                  	sw	a4, 120(a5)
80003c08: 73 27 f0 b1                  	csrr	a4, mhpmcounter31
80003c0c: 23 ae e7 06                  	sw	a4, 124(a5)
80003c10: 73 27 00 b8                  	csrr	a4, mcycleh
80003c14: 23 a0 e7 08                  	sw	a4, 128(a5)
80003c18: 73 27 10 b8                  	csrr	a4, 2945
80003c1c: 23 a2 e7 08                  	sw	a4, 132(a5)
80003c20: 73 27 20 b8                  	csrr	a4, minstreth
80003c24: 23 a4 e7 08                  	sw	a4, 136(a5)
80003c28: 73 27 30 b8                  	csrr	a4, mhpmcounter3h
80003c2c: 23 a6 e7 08                  	sw	a4, 140(a5)
80003c30: 73 27 40 b8                  	csrr	a4, mhpmcounter4h
80003c34: 23 a8 e7 08                  	sw	a4, 144(a5)
80003c38: 73 27 50 b8                  	csrr	a4, mhpmcounter5h
80003c3c: 23 aa e7 08                  	sw	a4, 148(a5)
80003c40: 73 27 60 b8                  	csrr	a4, mhpmcounter6h
80003c44: 23 ac e7 08                  	sw	a4, 152(a5)
80003c48: 73 27 70 b8                  	csrr	a4, mhpmcounter7h
80003c4c: 23 ae e7 08                  	sw	a4, 156(a5)
80003c50: 73 27 80 b8                  	csrr	a4, mhpmcounter8h
80003c54: 23 a0 e7 0a                  	sw	a4, 160(a5)
80003c58: 73 27 90 b8                  	csrr	a4, mhpmcounter9h
80003c5c: 23 a2 e7 0a                  	sw	a4, 164(a5)
80003c60: 73 27 a0 b8                  	csrr	a4, mhpmcounter10h
80003c64: 23 a4 e7 0a                  	sw	a4, 168(a5)
80003c68: 73 27 b0 b8                  	csrr	a4, mhpmcounter11h
80003c6c: 23 a6 e7 0a                  	sw	a4, 172(a5)
80003c70: 73 27 c0 b8                  	csrr	a4, mhpmcounter12h
80003c74: 23 a8 e7 0a                  	sw	a4, 176(a5)
80003c78: 73 27 d0 b8                  	csrr	a4, mhpmcounter13h
80003c7c: 23 aa e7 0a                  	sw	a4, 180(a5)
80003c80: 73 27 e0 b8                  	csrr	a4, mhpmcounter14h
80003c84: 23 ac e7 0a                  	sw	a4, 184(a5)
80003c88: 73 27 f0 b8                  	csrr	a4, mhpmcounter15h
80003c8c: 23 ae e7 0a                  	sw	a4, 188(a5)
80003c90: 73 27 00 b9                  	csrr	a4, mhpmcounter16h
80003c94: 23 a0 e7 0c                  	sw	a4, 192(a5)
80003c98: 73 27 10 b9                  	csrr	a4, mhpmcounter17h
80003c9c: 23 a2 e7 0c                  	sw	a4, 196(a5)
80003ca0: 73 27 20 b9                  	csrr	a4, mhpmcounter18h
80003ca4: 23 a4 e7 0c                  	sw	a4, 200(a5)
80003ca8: 73 27 30 b9                  	csrr	a4, mhpmcounter19h
80003cac: 23 a6 e7 0c                  	sw	a4, 204(a5)
80003cb0: 73 27 40 b9                  	csrr	a4, mhpmcounter20h
80003cb4: 23 a8 e7 0c                  	sw	a4, 208(a5)
80003cb8: 73 27 50 b9                  	csrr	a4, mhpmcounter21h
80003cbc: 23 aa e7 0c                  	sw	a4, 212(a5)
80003cc0: 73 27 60 b9                  	csrr	a4, mhpmcounter22h
80003cc4: 23 ac e7 0c                  	sw	a4, 216(a5)
80003cc8: 73 27 70 b9                  	csrr	a4, mhpmcounter23h
80003ccc: 23 ae e7 0c                  	sw	a4, 220(a5)
80003cd0: 73 27 80 b9                  	csrr	a4, mhpmcounter24h
80003cd4: 23 a0 e7 0e                  	sw	a4, 224(a5)
80003cd8: 73 27 90 b9                  	csrr	a4, mhpmcounter25h
80003cdc: 23 a2 e7 0e                  	sw	a4, 228(a5)
80003ce0: 73 27 a0 b9                  	csrr	a4, mhpmcounter26h
80003ce4: 23 a4 e7 0e                  	sw	a4, 232(a5)
80003ce8: 73 27 b0 b9                  	csrr	a4, mhpmcounter27h
80003cec: 23 a6 e7 0e                  	sw	a4, 236(a5)
80003cf0: 73 27 c0 b9                  	csrr	a4, mhpmcounter28h
80003cf4: 23 a8 e7 0e                  	sw	a4, 240(a5)
80003cf8: 73 27 d0 b9                  	csrr	a4, mhpmcounter29h
80003cfc: 23 aa e7 0e                  	sw	a4, 244(a5)
80003d00: 73 27 e0 b9                  	csrr	a4, mhpmcounter30h
80003d04: 23 ac e7 0e                  	sw	a4, 248(a5)
80003d08: 73 27 f0 b9                  	csrr	a4, mhpmcounter31h
80003d0c: 23 ae e7 0e                  	sw	a4, 252(a5)
80003d10: 67 80 00 00                  	ret

80003d14 abort:
80003d14: 13 01 01 ff                  	addi	sp, sp, -16
80003d18: 13 05 60 00                  	addi	a0, zero, 6
80003d1c: 23 26 11 00                  	sw	ra, 12(sp)
80003d20: ef 00 00 3b                  	jal	944
80003d24: 13 05 10 00                  	addi	a0, zero, 1
80003d28: ef f0 df a0                  	jal	-1524

80003d2c atexit:
80003d2c: 93 05 05 00                  	mv	a1, a0
80003d30: 93 06 00 00                  	mv	a3, zero
80003d34: 13 06 00 00                  	mv	a2, zero
80003d38: 13 05 00 00                  	mv	a0, zero
80003d3c: 6f 00 40 45                  	j	1108

80003d40 exit:
80003d40: 13 01 01 ff                  	addi	sp, sp, -16
80003d44: 93 05 00 00                  	mv	a1, zero
80003d48: 23 24 81 00                  	sw	s0, 8(sp)
80003d4c: 23 26 11 00                  	sw	ra, 12(sp)
80003d50: 13 04 05 00                  	mv	s0, a0
80003d54: ef 00 80 4d                  	jal	1240
80003d58: b7 77 00 80                  	lui	a5, 524295
80003d5c: 03 a5 87 9a                  	lw	a0, -1624(a5)
80003d60: 83 27 c5 03                  	lw	a5, 60(a0)
80003d64: 63 84 07 00                  	beqz	a5, 8
80003d68: e7 80 07 00                  	jalr	a5
80003d6c: 13 05 04 00                  	mv	a0, s0
80003d70: ef f0 5f 9c                  	jal	-1596

80003d74 memset:
80003d74: 13 03 f0 00                  	addi	t1, zero, 15
80003d78: 13 07 05 00                  	mv	a4, a0
80003d7c: 63 7e c3 02                  	bgeu	t1, a2, 60
80003d80: 93 77 f7 00                  	andi	a5, a4, 15
80003d84: 63 90 07 0a                  	bnez	a5, 160
80003d88: 63 92 05 08                  	bnez	a1, 132
80003d8c: 93 76 06 ff                  	andi	a3, a2, -16
80003d90: 13 76 f6 00                  	andi	a2, a2, 15
80003d94: b3 86 e6 00                  	add	a3, a3, a4
80003d98: 23 20 b7 00                  	sw	a1, 0(a4)
80003d9c: 23 22 b7 00                  	sw	a1, 4(a4)
80003da0: 23 24 b7 00                  	sw	a1, 8(a4)
80003da4: 23 26 b7 00                  	sw	a1, 12(a4)
80003da8: 13 07 07 01                  	addi	a4, a4, 16
80003dac: e3 66 d7 fe                  	bltu	a4, a3, -20
80003db0: 63 14 06 00                  	bnez	a2, 8
80003db4: 67 80 00 00                  	ret
80003db8: b3 06 c3 40                  	sub	a3, t1, a2
80003dbc: 93 96 26 00                  	slli	a3, a3, 2
80003dc0: 97 02 00 00                  	auipc	t0, 0
80003dc4: b3 86 56 00                  	add	a3, a3, t0
80003dc8: 67 80 c6 00                  	jr	12(a3)
80003dcc: 23 07 b7 00                  	sb	a1, 14(a4)
80003dd0: a3 06 b7 00                  	sb	a1, 13(a4)
80003dd4: 23 06 b7 00                  	sb	a1, 12(a4)
80003dd8: a3 05 b7 00                  	sb	a1, 11(a4)
80003ddc: 23 05 b7 00                  	sb	a1, 10(a4)
80003de0: a3 04 b7 00                  	sb	a1, 9(a4)
80003de4: 23 04 b7 00                  	sb	a1, 8(a4)
80003de8: a3 03 b7 00                  	sb	a1, 7(a4)
80003dec: 23 03 b7 00                  	sb	a1, 6(a4)
80003df0: a3 02 b7 00                  	sb	a1, 5(a4)
80003df4: 23 02 b7 00                  	sb	a1, 4(a4)
80003df8: a3 01 b7 00                  	sb	a1, 3(a4)
80003dfc: 23 01 b7 00                  	sb	a1, 2(a4)
80003e00: a3 00 b7 00                  	sb	a1, 1(a4)
80003e04: 23 00 b7 00                  	sb	a1, 0(a4)
80003e08: 67 80 00 00                  	ret
80003e0c: 93 f5 f5 0f                  	andi	a1, a1, 255
80003e10: 93 96 85 00                  	slli	a3, a1, 8
80003e14: b3 e5 d5 00                  	or	a1, a1, a3
80003e18: 93 96 05 01                  	slli	a3, a1, 16
80003e1c: b3 e5 d5 00                  	or	a1, a1, a3
80003e20: 6f f0 df f6                  	j	-148
80003e24: 93 96 27 00                  	slli	a3, a5, 2
80003e28: 97 02 00 00                  	auipc	t0, 0
80003e2c: b3 86 56 00                  	add	a3, a3, t0
80003e30: 93 82 00 00                  	mv	t0, ra
80003e34: e7 80 06 fa                  	jalr	-96(a3)
80003e38: 93 80 02 00                  	mv	ra, t0
80003e3c: 93 87 07 ff                  	addi	a5, a5, -16
80003e40: 33 07 f7 40                  	sub	a4, a4, a5
80003e44: 33 06 f6 00                  	add	a2, a2, a5
80003e48: e3 78 c3 f6                  	bgeu	t1, a2, -144
80003e4c: 6f f0 df f3                  	j	-196

80003e50 _init_signal_r.part.0:
80003e50: 13 01 01 ff                  	addi	sp, sp, -16
80003e54: 93 05 00 08                  	addi	a1, zero, 128
80003e58: 23 24 81 00                  	sw	s0, 8(sp)
80003e5c: 23 26 11 00                  	sw	ra, 12(sp)
80003e60: 13 04 05 00                  	mv	s0, a0
80003e64: ef 00 c0 4e                  	jal	1260
80003e68: 23 2e a4 2c                  	sw	a0, 732(s0)
80003e6c: 63 04 05 02                  	beqz	a0, 40
80003e70: 93 07 05 08                  	addi	a5, a0, 128
80003e74: 23 20 05 00                  	sw	zero, 0(a0)
80003e78: 13 05 45 00                  	addi	a0, a0, 4
80003e7c: e3 1c f5 fe                  	bne	a0, a5, -8
80003e80: 13 05 00 00                  	mv	a0, zero
80003e84: 83 20 c1 00                  	lw	ra, 12(sp)
80003e88: 03 24 81 00                  	lw	s0, 8(sp)
80003e8c: 13 01 01 01                  	addi	sp, sp, 16
80003e90: 67 80 00 00                  	ret
80003e94: 13 05 f0 ff                  	addi	a0, zero, -1
80003e98: 6f f0 df fe                  	j	-20

80003e9c _init_signal_r:
80003e9c: 83 27 c5 2d                  	lw	a5, 732(a0)
80003ea0: 63 86 07 00                  	beqz	a5, 12
80003ea4: 13 05 00 00                  	mv	a0, zero
80003ea8: 67 80 00 00                  	ret
80003eac: 6f f0 5f fa                  	j	-92

80003eb0 _signal_r:
80003eb0: 13 01 01 fe                  	addi	sp, sp, -32
80003eb4: 23 2a 91 00                  	sw	s1, 20(sp)
80003eb8: 23 2e 11 00                  	sw	ra, 28(sp)
80003ebc: 23 2c 81 00                  	sw	s0, 24(sp)
80003ec0: 93 07 f0 01                  	addi	a5, zero, 31
80003ec4: 93 04 05 00                  	mv	s1, a0
80003ec8: 63 ea b7 02                  	bltu	a5, a1, 52
80003ecc: 13 84 05 00                  	mv	s0, a1
80003ed0: 83 25 c5 2d                  	lw	a1, 732(a0)
80003ed4: 63 84 05 04                  	beqz	a1, 72
80003ed8: 13 14 24 00                  	slli	s0, s0, 2
80003edc: 33 84 85 00                  	add	s0, a1, s0
80003ee0: 03 25 04 00                  	lw	a0, 0(s0)
80003ee4: 23 20 c4 00                  	sw	a2, 0(s0)
80003ee8: 83 20 c1 01                  	lw	ra, 28(sp)
80003eec: 03 24 81 01                  	lw	s0, 24(sp)
80003ef0: 83 24 41 01                  	lw	s1, 20(sp)
80003ef4: 13 01 01 02                  	addi	sp, sp, 32
80003ef8: 67 80 00 00                  	ret
80003efc: 83 20 c1 01                  	lw	ra, 28(sp)
80003f00: 03 24 81 01                  	lw	s0, 24(sp)
80003f04: 93 07 60 01                  	addi	a5, zero, 22
80003f08: 23 20 f5 00                  	sw	a5, 0(a0)
80003f0c: 83 24 41 01                  	lw	s1, 20(sp)
80003f10: 13 05 f0 ff                  	addi	a0, zero, -1
80003f14: 13 01 01 02                  	addi	sp, sp, 32
80003f18: 67 80 00 00                  	ret
80003f1c: 23 26 c1 00                  	sw	a2, 12(sp)
80003f20: ef f0 1f f3                  	jal	-208
80003f24: 93 07 05 00                  	mv	a5, a0
80003f28: 13 05 f0 ff                  	addi	a0, zero, -1
80003f2c: e3 9e 07 fa                  	bnez	a5, -68
80003f30: 83 a5 c4 2d                  	lw	a1, 732(s1)
80003f34: 03 26 c1 00                  	lw	a2, 12(sp)
80003f38: 6f f0 1f fa                  	j	-96

80003f3c _raise_r:
80003f3c: 13 01 01 ff                  	addi	sp, sp, -16
80003f40: 23 22 91 00                  	sw	s1, 4(sp)
80003f44: 23 26 11 00                  	sw	ra, 12(sp)
80003f48: 23 24 81 00                  	sw	s0, 8(sp)
80003f4c: 93 07 f0 01                  	addi	a5, zero, 31
80003f50: 93 04 05 00                  	mv	s1, a0
80003f54: 63 ea b7 0a                  	bltu	a5, a1, 180
80003f58: 83 27 c5 2d                  	lw	a5, 732(a0)
80003f5c: 13 84 05 00                  	mv	s0, a1
80003f60: 63 84 07 04                  	beqz	a5, 72
80003f64: 13 97 25 00                  	slli	a4, a1, 2
80003f68: b3 87 e7 00                  	add	a5, a5, a4
80003f6c: 03 a7 07 00                  	lw	a4, 0(a5)
80003f70: 63 0c 07 02                  	beqz	a4, 56
80003f74: 93 06 10 00                  	addi	a3, zero, 1
80003f78: 63 0c d7 06                  	beq	a4, a3, 120
80003f7c: 93 06 f0 ff                  	addi	a3, zero, -1
80003f80: 63 08 d7 04                  	beq	a4, a3, 80
80003f84: 13 85 05 00                  	mv	a0, a1
80003f88: 23 a0 07 00                  	sw	zero, 0(a5)
80003f8c: e7 00 07 00                  	jalr	a4
80003f90: 13 05 00 00                  	mv	a0, zero
80003f94: 83 20 c1 00                  	lw	ra, 12(sp)
80003f98: 03 24 81 00                  	lw	s0, 8(sp)
80003f9c: 83 24 41 00                  	lw	s1, 4(sp)
80003fa0: 13 01 01 01                  	addi	sp, sp, 16
80003fa4: 67 80 00 00                  	ret
80003fa8: 13 85 04 00                  	mv	a0, s1
80003fac: ef 00 00 1e                  	jal	480
80003fb0: 13 06 04 00                  	mv	a2, s0
80003fb4: 03 24 81 00                  	lw	s0, 8(sp)
80003fb8: 83 20 c1 00                  	lw	ra, 12(sp)
80003fbc: 93 05 05 00                  	mv	a1, a0
80003fc0: 13 85 04 00                  	mv	a0, s1
80003fc4: 83 24 41 00                  	lw	s1, 4(sp)
80003fc8: 13 01 01 01                  	addi	sp, sp, 16
80003fcc: 6f 00 80 15                  	j	344
80003fd0: 83 20 c1 00                  	lw	ra, 12(sp)
80003fd4: 03 24 81 00                  	lw	s0, 8(sp)
80003fd8: 93 07 60 01                  	addi	a5, zero, 22
80003fdc: 23 20 f5 00                  	sw	a5, 0(a0)
80003fe0: 83 24 41 00                  	lw	s1, 4(sp)
80003fe4: 13 05 10 00                  	addi	a0, zero, 1
80003fe8: 13 01 01 01                  	addi	sp, sp, 16
80003fec: 67 80 00 00                  	ret
80003ff0: 83 20 c1 00                  	lw	ra, 12(sp)
80003ff4: 03 24 81 00                  	lw	s0, 8(sp)
80003ff8: 83 24 41 00                  	lw	s1, 4(sp)
80003ffc: 13 05 00 00                  	mv	a0, zero
80004000: 13 01 01 01                  	addi	sp, sp, 16
80004004: 67 80 00 00                  	ret
80004008: 93 07 60 01                  	addi	a5, zero, 22
8000400c: 23 20 f5 00                  	sw	a5, 0(a0)
80004010: 13 05 f0 ff                  	addi	a0, zero, -1
80004014: 6f f0 1f f8                  	j	-128

80004018 __sigtramp_r:
80004018: 93 07 f0 01                  	addi	a5, zero, 31
8000401c: 63 e6 b7 0a                  	bltu	a5, a1, 172
80004020: 83 27 c5 2d                  	lw	a5, 732(a0)
80004024: 13 01 01 fe                  	addi	sp, sp, -32
80004028: 23 2c 91 00                  	sw	s1, 24(sp)
8000402c: 23 2e 11 00                  	sw	ra, 28(sp)
80004030: 93 04 05 00                  	mv	s1, a0
80004034: 63 8c 07 04                  	beqz	a5, 88
80004038: 13 97 25 00                  	slli	a4, a1, 2
8000403c: b3 87 e7 00                  	add	a5, a5, a4
80004040: 03 a7 07 00                  	lw	a4, 0(a5)
80004044: 63 0a 07 02                  	beqz	a4, 52
80004048: 93 06 f0 ff                  	addi	a3, zero, -1
8000404c: 63 06 d7 06                  	beq	a4, a3, 108
80004050: 93 06 10 00                  	addi	a3, zero, 1
80004054: 63 08 d7 04                  	beq	a4, a3, 80
80004058: 13 85 05 00                  	mv	a0, a1
8000405c: 23 a0 07 00                  	sw	zero, 0(a5)
80004060: e7 00 07 00                  	jalr	a4
80004064: 13 05 00 00                  	mv	a0, zero
80004068: 83 20 c1 01                  	lw	ra, 28(sp)
8000406c: 83 24 81 01                  	lw	s1, 24(sp)
80004070: 13 01 01 02                  	addi	sp, sp, 32
80004074: 67 80 00 00                  	ret
80004078: 83 20 c1 01                  	lw	ra, 28(sp)
8000407c: 83 24 81 01                  	lw	s1, 24(sp)
80004080: 13 05 10 00                  	addi	a0, zero, 1
80004084: 13 01 01 02                  	addi	sp, sp, 32
80004088: 67 80 00 00                  	ret
8000408c: 23 26 b1 00                  	sw	a1, 12(sp)
80004090: ef f0 1f dc                  	jal	-576
80004094: 63 16 05 02                  	bnez	a0, 44
80004098: 83 a7 c4 2d                  	lw	a5, 732(s1)
8000409c: 83 25 c1 00                  	lw	a1, 12(sp)
800040a0: 6f f0 9f f9                  	j	-104
800040a4: 83 20 c1 01                  	lw	ra, 28(sp)
800040a8: 83 24 81 01                  	lw	s1, 24(sp)
800040ac: 13 05 30 00                  	addi	a0, zero, 3
800040b0: 13 01 01 02                  	addi	sp, sp, 32
800040b4: 67 80 00 00                  	ret
800040b8: 13 05 20 00                  	addi	a0, zero, 2
800040bc: 6f f0 df fa                  	j	-84
800040c0: 13 05 f0 ff                  	addi	a0, zero, -1
800040c4: 6f f0 5f fa                  	j	-92
800040c8: 13 05 f0 ff                  	addi	a0, zero, -1
800040cc: 67 80 00 00                  	ret

800040d0 raise:
800040d0: b7 77 00 80                  	lui	a5, 524295
800040d4: 93 05 05 00                  	mv	a1, a0
800040d8: 03 a5 47 9c                  	lw	a0, -1596(a5)
800040dc: 6f f0 1f e6                  	j	-416

800040e0 signal:
800040e0: 37 77 00 80                  	lui	a4, 524295
800040e4: 93 07 05 00                  	mv	a5, a0
800040e8: 03 25 47 9c                  	lw	a0, -1596(a4)
800040ec: 13 86 05 00                  	mv	a2, a1
800040f0: 93 85 07 00                  	mv	a1, a5
800040f4: 6f f0 df db                  	j	-580

800040f8 _init_signal:
800040f8: b7 77 00 80                  	lui	a5, 524295
800040fc: 03 a5 47 9c                  	lw	a0, -1596(a5)
80004100: 83 27 c5 2d                  	lw	a5, 732(a0)
80004104: 63 86 07 00                  	beqz	a5, 12
80004108: 13 05 00 00                  	mv	a0, zero
8000410c: 67 80 00 00                  	ret
80004110: 6f f0 1f d4                  	j	-704

80004114 __sigtramp:
80004114: b7 77 00 80                  	lui	a5, 524295
80004118: 93 05 05 00                  	mv	a1, a0
8000411c: 03 a5 47 9c                  	lw	a0, -1596(a5)
80004120: 6f f0 9f ef                  	j	-264

80004124 _kill_r:
80004124: 13 01 01 ff                  	addi	sp, sp, -16
80004128: 13 87 05 00                  	mv	a4, a1
8000412c: 23 24 81 00                  	sw	s0, 8(sp)
80004130: 23 22 91 00                  	sw	s1, 4(sp)
80004134: 13 04 05 00                  	mv	s0, a0
80004138: b7 74 00 80                  	lui	s1, 524295
8000413c: 93 05 06 00                  	mv	a1, a2
80004140: 13 05 07 00                  	mv	a0, a4
80004144: 23 26 11 00                  	sw	ra, 12(sp)
80004148: 23 a2 04 a8                  	sw	zero, -1404(s1)
8000414c: ef f0 8f e3                  	jal	-2504
80004150: 93 07 f0 ff                  	addi	a5, zero, -1
80004154: 63 0c f5 00                  	beq	a0, a5, 24
80004158: 83 20 c1 00                  	lw	ra, 12(sp)
8000415c: 03 24 81 00                  	lw	s0, 8(sp)
80004160: 83 24 41 00                  	lw	s1, 4(sp)
80004164: 13 01 01 01                  	addi	sp, sp, 16
80004168: 67 80 00 00                  	ret
8000416c: 83 a7 44 a8                  	lw	a5, -1404(s1)
80004170: e3 84 07 fe                  	beqz	a5, -24
80004174: 83 20 c1 00                  	lw	ra, 12(sp)
80004178: 23 20 f4 00                  	sw	a5, 0(s0)
8000417c: 03 24 81 00                  	lw	s0, 8(sp)
80004180: 83 24 41 00                  	lw	s1, 4(sp)
80004184: 13 01 01 01                  	addi	sp, sp, 16
80004188: 67 80 00 00                  	ret

8000418c _getpid_r:
8000418c: 6f f0 0f e0                  	j	-2560

80004190 __register_exitproc:
80004190: b7 77 00 80                  	lui	a5, 524295
80004194: 03 a7 87 9a                  	lw	a4, -1624(a5)
80004198: 83 27 87 14                  	lw	a5, 328(a4)
8000419c: 63 8c 07 04                  	beqz	a5, 88
800041a0: 03 a7 47 00                  	lw	a4, 4(a5)
800041a4: 13 08 f0 01                  	addi	a6, zero, 31
800041a8: 63 4e e8 06                  	blt	a6, a4, 124
800041ac: 13 18 27 00                  	slli	a6, a4, 2
800041b0: 63 06 05 02                  	beqz	a0, 44
800041b4: 33 83 07 01                  	add	t1, a5, a6
800041b8: 23 24 c3 08                  	sw	a2, 136(t1)
800041bc: 83 a8 87 18                  	lw	a7, 392(a5)
800041c0: 13 06 10 00                  	addi	a2, zero, 1
800041c4: 33 16 e6 00                  	sll	a2, a2, a4
800041c8: b3 e8 c8 00                  	or	a7, a7, a2
800041cc: 23 a4 17 19                  	sw	a7, 392(a5)
800041d0: 23 24 d3 10                  	sw	a3, 264(t1)
800041d4: 93 06 20 00                  	addi	a3, zero, 2
800041d8: 63 04 d5 02                  	beq	a0, a3, 40
800041dc: 13 07 17 00                  	addi	a4, a4, 1
800041e0: 23 a2 e7 00                  	sw	a4, 4(a5)
800041e4: b3 87 07 01                  	add	a5, a5, a6
800041e8: 23 a4 b7 00                  	sw	a1, 8(a5)
800041ec: 13 05 00 00                  	mv	a0, zero
800041f0: 67 80 00 00                  	ret
800041f4: 93 07 c7 14                  	addi	a5, a4, 332
800041f8: 23 24 f7 14                  	sw	a5, 328(a4)
800041fc: 6f f0 5f fa                  	j	-92
80004200: 83 a6 c7 18                  	lw	a3, 396(a5)
80004204: 13 07 17 00                  	addi	a4, a4, 1
80004208: 23 a2 e7 00                  	sw	a4, 4(a5)
8000420c: 33 e6 c6 00                  	or	a2, a3, a2
80004210: 23 a6 c7 18                  	sw	a2, 396(a5)
80004214: b3 87 07 01                  	add	a5, a5, a6
80004218: 23 a4 b7 00                  	sw	a1, 8(a5)
8000421c: 13 05 00 00                  	mv	a0, zero
80004220: 67 80 00 00                  	ret
80004224: 13 05 f0 ff                  	addi	a0, zero, -1
80004228: 67 80 00 00                  	ret

8000422c __call_exitprocs:
8000422c: 13 01 01 fd                  	addi	sp, sp, -48
80004230: b7 77 00 80                  	lui	a5, 524295
80004234: 23 2c 41 01                  	sw	s4, 24(sp)
80004238: 03 aa 87 9a                  	lw	s4, -1624(a5)
8000423c: 23 20 21 03                  	sw	s2, 32(sp)
80004240: 23 26 11 02                  	sw	ra, 44(sp)
80004244: 03 29 8a 14                  	lw	s2, 328(s4)
80004248: 23 24 81 02                  	sw	s0, 40(sp)
8000424c: 23 22 91 02                  	sw	s1, 36(sp)
80004250: 23 2e 31 01                  	sw	s3, 28(sp)
80004254: 23 2a 51 01                  	sw	s5, 20(sp)
80004258: 23 28 61 01                  	sw	s6, 16(sp)
8000425c: 23 26 71 01                  	sw	s7, 12(sp)
80004260: 23 24 81 01                  	sw	s8, 8(sp)
80004264: 63 00 09 04                  	beqz	s2, 64
80004268: 13 0b 05 00                  	mv	s6, a0
8000426c: 93 8b 05 00                  	mv	s7, a1
80004270: 93 0a 10 00                  	addi	s5, zero, 1
80004274: 93 09 f0 ff                  	addi	s3, zero, -1
80004278: 83 24 49 00                  	lw	s1, 4(s2)
8000427c: 13 84 f4 ff                  	addi	s0, s1, -1
80004280: 63 42 04 02                  	bltz	s0, 36
80004284: 93 94 24 00                  	slli	s1, s1, 2
80004288: b3 04 99 00                  	add	s1, s2, s1
8000428c: 63 84 0b 04                  	beqz	s7, 72
80004290: 83 a7 44 10                  	lw	a5, 260(s1)
80004294: 63 80 77 05                  	beq	a5, s7, 64
80004298: 13 04 f4 ff                  	addi	s0, s0, -1
8000429c: 93 84 c4 ff                  	addi	s1, s1, -4
800042a0: e3 16 34 ff                  	bne	s0, s3, -20
800042a4: 83 20 c1 02                  	lw	ra, 44(sp)
800042a8: 03 24 81 02                  	lw	s0, 40(sp)
800042ac: 83 24 41 02                  	lw	s1, 36(sp)
800042b0: 03 29 01 02                  	lw	s2, 32(sp)
800042b4: 83 29 c1 01                  	lw	s3, 28(sp)
800042b8: 03 2a 81 01                  	lw	s4, 24(sp)
800042bc: 83 2a 41 01                  	lw	s5, 20(sp)
800042c0: 03 2b 01 01                  	lw	s6, 16(sp)
800042c4: 83 2b c1 00                  	lw	s7, 12(sp)
800042c8: 03 2c 81 00                  	lw	s8, 8(sp)
800042cc: 13 01 01 03                  	addi	sp, sp, 48
800042d0: 67 80 00 00                  	ret
800042d4: 83 27 49 00                  	lw	a5, 4(s2)
800042d8: 83 a6 44 00                  	lw	a3, 4(s1)
800042dc: 93 87 f7 ff                  	addi	a5, a5, -1
800042e0: 63 8e 87 04                  	beq	a5, s0, 92
800042e4: 23 a2 04 00                  	sw	zero, 4(s1)
800042e8: e3 88 06 fa                  	beqz	a3, -80
800042ec: 83 27 89 18                  	lw	a5, 392(s2)
800042f0: 33 97 8a 00                  	sll	a4, s5, s0
800042f4: 03 2c 49 00                  	lw	s8, 4(s2)
800042f8: b3 77 f7 00                  	and	a5, a4, a5
800042fc: 63 92 07 02                  	bnez	a5, 36
80004300: e7 80 06 00                  	jalr	a3
80004304: 03 27 49 00                  	lw	a4, 4(s2)
80004308: 83 27 8a 14                  	lw	a5, 328(s4)
8000430c: 63 14 87 01                  	bne	a4, s8, 8
80004310: e3 04 f9 f8                  	beq	s2, a5, -120
80004314: e3 88 07 f8                  	beqz	a5, -112
80004318: 13 89 07 00                  	mv	s2, a5
8000431c: 6f f0 df f5                  	j	-164
80004320: 83 27 c9 18                  	lw	a5, 396(s2)
80004324: 83 a5 44 08                  	lw	a1, 132(s1)
80004328: 33 77 f7 00                  	and	a4, a4, a5
8000432c: 63 1c 07 00                  	bnez	a4, 24
80004330: 13 05 0b 00                  	mv	a0, s6
80004334: e7 80 06 00                  	jalr	a3
80004338: 6f f0 df fc                  	j	-52
8000433c: 23 22 89 00                  	sw	s0, 4(s2)
80004340: 6f f0 9f fa                  	j	-88
80004344: 13 85 05 00                  	mv	a0, a1
80004348: e7 80 06 00                  	jalr	a3
8000434c: 6f f0 9f fb                  	j	-72

80004350 _malloc_r:
80004350: 13 01 01 fd                  	addi	sp, sp, -48
80004354: 23 2e 31 01                  	sw	s3, 28(sp)
80004358: 23 26 11 02                  	sw	ra, 44(sp)
8000435c: 23 24 81 02                  	sw	s0, 40(sp)
80004360: 23 22 91 02                  	sw	s1, 36(sp)
80004364: 23 20 21 03                  	sw	s2, 32(sp)
80004368: 23 2c 41 01                  	sw	s4, 24(sp)
8000436c: 23 2a 51 01                  	sw	s5, 20(sp)
80004370: 23 28 61 01                  	sw	s6, 16(sp)
80004374: 23 26 71 01                  	sw	s7, 12(sp)
80004378: 23 24 81 01                  	sw	s8, 8(sp)
8000437c: 23 22 91 01                  	sw	s9, 4(sp)
80004380: 93 87 b5 00                  	addi	a5, a1, 11
80004384: 13 07 60 01                  	addi	a4, zero, 22
80004388: 93 09 05 00                  	mv	s3, a0
8000438c: 63 66 f7 06                  	bltu	a4, a5, 108
80004390: 93 07 00 01                  	addi	a5, zero, 16
80004394: 63 e6 b7 1e                  	bltu	a5, a1, 492
80004398: ef 00 00 77                  	jal	1904
8000439c: 93 04 00 01                  	addi	s1, zero, 16
800043a0: 13 06 20 00                  	addi	a2, zero, 2
800043a4: 93 07 80 01                  	addi	a5, zero, 24
800043a8: 37 69 00 80                  	lui	s2, 524294
800043ac: 13 09 09 5a                  	addi	s2, s2, 1440
800043b0: b3 07 f9 00                  	add	a5, s2, a5
800043b4: 03 a4 47 00                  	lw	s0, 4(a5)
800043b8: 13 87 87 ff                  	addi	a4, a5, -8
800043bc: 63 0a e4 20                  	beq	s0, a4, 532
800043c0: 83 27 44 00                  	lw	a5, 4(s0)
800043c4: 83 26 c4 00                  	lw	a3, 12(s0)
800043c8: 03 26 84 00                  	lw	a2, 8(s0)
800043cc: 93 f7 c7 ff                  	andi	a5, a5, -4
800043d0: b3 07 f4 00                  	add	a5, s0, a5
800043d4: 03 a7 47 00                  	lw	a4, 4(a5)
800043d8: 23 26 d6 00                  	sw	a3, 12(a2)
800043dc: 23 a4 c6 00                  	sw	a2, 8(a3)
800043e0: 13 67 17 00                  	ori	a4, a4, 1
800043e4: 13 85 09 00                  	mv	a0, s3
800043e8: 23 a2 e7 00                  	sw	a4, 4(a5)
800043ec: ef 00 00 72                  	jal	1824
800043f0: 13 05 84 00                  	addi	a0, s0, 8
800043f4: 6f 00 80 19                  	j	408
800043f8: 93 f4 87 ff                  	andi	s1, a5, -8
800043fc: 63 c2 07 18                  	bltz	a5, 388
80004400: 63 e0 b4 18                  	bltu	s1, a1, 384
80004404: ef 00 40 70                  	jal	1796
80004408: 93 07 70 1f                  	addi	a5, zero, 503
8000440c: 63 f6 97 46                  	bgeu	a5, s1, 1132
80004410: 93 d7 94 00                  	srli	a5, s1, 9
80004414: 63 86 07 1a                  	beqz	a5, 428
80004418: 13 07 40 00                  	addi	a4, zero, 4
8000441c: 63 6c f7 3c                  	bltu	a4, a5, 984
80004420: 93 d7 64 00                  	srli	a5, s1, 6
80004424: 13 86 97 03                  	addi	a2, a5, 57
80004428: 13 85 87 03                  	addi	a0, a5, 56
8000442c: 93 16 36 00                  	slli	a3, a2, 3
80004430: 37 69 00 80                  	lui	s2, 524294
80004434: 13 09 09 5a                  	addi	s2, s2, 1440
80004438: b3 06 d9 00                  	add	a3, s2, a3
8000443c: 03 a4 46 00                  	lw	s0, 4(a3)
80004440: 93 86 86 ff                  	addi	a3, a3, -8
80004444: 63 86 86 02                  	beq	a3, s0, 44
80004448: 93 05 f0 00                  	addi	a1, zero, 15
8000444c: 6f 00 00 01                  	j	16
80004450: 63 5c 07 32                  	bgez	a4, 824
80004454: 03 24 c4 00                  	lw	s0, 12(s0)
80004458: 63 8c 86 00                  	beq	a3, s0, 24
8000445c: 83 27 44 00                  	lw	a5, 4(s0)
80004460: 93 f7 c7 ff                  	andi	a5, a5, -4
80004464: 33 87 97 40                  	sub	a4, a5, s1
80004468: e3 d4 e5 fe                  	bge	a1, a4, -24
8000446c: 13 06 05 00                  	mv	a2, a0
80004470: 03 24 09 01                  	lw	s0, 16(s2)
80004474: 93 08 89 00                  	addi	a7, s2, 8
80004478: 63 08 14 17                  	beq	s0, a7, 368
8000447c: 03 25 44 00                  	lw	a0, 4(s0)
80004480: 93 06 f0 00                  	addi	a3, zero, 15
80004484: 13 75 c5 ff                  	andi	a0, a0, -4
80004488: b3 07 95 40                  	sub	a5, a0, s1
8000448c: 63 cc f6 40                  	blt	a3, a5, 1048
80004490: 23 2a 19 01                  	sw	a7, 20(s2)
80004494: 23 28 19 01                  	sw	a7, 16(s2)
80004498: 63 d6 07 3e                  	bgez	a5, 1004
8000449c: 93 07 f0 1f                  	addi	a5, zero, 511
800044a0: 63 ea a7 2e                  	bltu	a5, a0, 756
800044a4: 93 77 85 ff                  	andi	a5, a0, -8
800044a8: 93 87 87 00                  	addi	a5, a5, 8
800044ac: 83 25 49 00                  	lw	a1, 4(s2)
800044b0: b3 07 f9 00                  	add	a5, s2, a5
800044b4: 83 a6 07 00                  	lw	a3, 0(a5)
800044b8: 13 55 55 00                  	srli	a0, a0, 5
800044bc: 13 07 10 00                  	addi	a4, zero, 1
800044c0: 33 17 a7 00                  	sll	a4, a4, a0
800044c4: 33 67 b7 00                  	or	a4, a4, a1
800044c8: 93 85 87 ff                  	addi	a1, a5, -8
800044cc: 23 26 b4 00                  	sw	a1, 12(s0)
800044d0: 23 24 d4 00                  	sw	a3, 8(s0)
800044d4: 23 22 e9 00                  	sw	a4, 4(s2)
800044d8: 23 a0 87 00                  	sw	s0, 0(a5)
800044dc: 23 a6 86 00                  	sw	s0, 12(a3)
800044e0: 93 57 26 40                  	srai	a5, a2, 2
800044e4: 93 05 10 00                  	addi	a1, zero, 1
800044e8: b3 95 f5 00                  	sll	a1, a1, a5
800044ec: 63 68 b7 10                  	bltu	a4, a1, 272
800044f0: b3 f7 e5 00                  	and	a5, a1, a4
800044f4: 63 94 07 02                  	bnez	a5, 40
800044f8: 93 95 15 00                  	slli	a1, a1, 1
800044fc: 13 76 c6 ff                  	andi	a2, a2, -4
80004500: b3 f7 e5 00                  	and	a5, a1, a4
80004504: 13 06 46 00                  	addi	a2, a2, 4
80004508: 63 9a 07 00                  	bnez	a5, 20
8000450c: 93 95 15 00                  	slli	a1, a1, 1
80004510: b3 f7 e5 00                  	and	a5, a1, a4
80004514: 13 06 46 00                  	addi	a2, a2, 4
80004518: e3 8a 07 fe                  	beqz	a5, -12
8000451c: 13 08 f0 00                  	addi	a6, zero, 15
80004520: 13 13 36 00                  	slli	t1, a2, 3
80004524: 33 03 69 00                  	add	t1, s2, t1
80004528: 13 05 03 00                  	mv	a0, t1
8000452c: 83 27 c5 00                  	lw	a5, 12(a0)
80004530: 13 0e 06 00                  	mv	t3, a2
80004534: 63 02 f5 2e                  	beq	a0, a5, 740
80004538: 03 a7 47 00                  	lw	a4, 4(a5)
8000453c: 13 84 07 00                  	mv	s0, a5
80004540: 83 a7 c7 00                  	lw	a5, 12(a5)
80004544: 13 77 c7 ff                  	andi	a4, a4, -4
80004548: b3 06 97 40                  	sub	a3, a4, s1
8000454c: 63 42 d8 2e                  	blt	a6, a3, 740
80004550: e3 c2 06 fe                  	bltz	a3, -28
80004554: 33 07 e4 00                  	add	a4, s0, a4
80004558: 83 26 47 00                  	lw	a3, 4(a4)
8000455c: 03 26 84 00                  	lw	a2, 8(s0)
80004560: 13 85 09 00                  	mv	a0, s3
80004564: 93 e6 16 00                  	ori	a3, a3, 1
80004568: 23 22 d7 00                  	sw	a3, 4(a4)
8000456c: 23 26 f6 00                  	sw	a5, 12(a2)
80004570: 23 a4 c7 00                  	sw	a2, 8(a5)
80004574: ef 00 80 59                  	jal	1432
80004578: 13 05 84 00                  	addi	a0, s0, 8
8000457c: 6f 00 00 01                  	j	16
80004580: 93 07 c0 00                  	addi	a5, zero, 12
80004584: 23 a0 f9 00                  	sw	a5, 0(s3)
80004588: 13 05 00 00                  	mv	a0, zero
8000458c: 83 20 c1 02                  	lw	ra, 44(sp)
80004590: 03 24 81 02                  	lw	s0, 40(sp)
80004594: 83 24 41 02                  	lw	s1, 36(sp)
80004598: 03 29 01 02                  	lw	s2, 32(sp)
8000459c: 83 29 c1 01                  	lw	s3, 28(sp)
800045a0: 03 2a 81 01                  	lw	s4, 24(sp)
800045a4: 83 2a 41 01                  	lw	s5, 20(sp)
800045a8: 03 2b 01 01                  	lw	s6, 16(sp)
800045ac: 83 2b c1 00                  	lw	s7, 12(sp)
800045b0: 03 2c 81 00                  	lw	s8, 8(sp)
800045b4: 83 2c 41 00                  	lw	s9, 4(sp)
800045b8: 13 01 01 03                  	addi	sp, sp, 48
800045bc: 67 80 00 00                  	ret
800045c0: 93 06 00 20                  	addi	a3, zero, 512
800045c4: 13 06 00 04                  	addi	a2, zero, 64
800045c8: 13 05 f0 03                  	addi	a0, zero, 63
800045cc: 6f f0 5f e6                  	j	-412
800045d0: 03 a4 c7 00                  	lw	s0, 12(a5)
800045d4: 13 06 26 00                  	addi	a2, a2, 2
800045d8: e3 94 87 de                  	bne	a5, s0, -536
800045dc: 03 24 09 01                  	lw	s0, 16(s2)
800045e0: 93 08 89 00                  	addi	a7, s2, 8
800045e4: e3 1c 14 e9                  	bne	s0, a7, -360
800045e8: 03 27 49 00                  	lw	a4, 4(s2)
800045ec: 93 57 26 40                  	srai	a5, a2, 2
800045f0: 93 05 10 00                  	addi	a1, zero, 1
800045f4: b3 95 f5 00                  	sll	a1, a1, a5
800045f8: e3 7c b7 ee                  	bgeu	a4, a1, -264
800045fc: 03 24 89 00                  	lw	s0, 8(s2)
80004600: 83 2a 44 00                  	lw	s5, 4(s0)
80004604: 13 fb ca ff                  	andi	s6, s5, -4
80004608: 63 68 9b 00                  	bltu	s6, s1, 16
8000460c: b3 07 9b 40                  	sub	a5, s6, s1
80004610: 13 07 f0 00                  	addi	a4, zero, 15
80004614: 63 46 f7 14                  	blt	a4, a5, 332
80004618: b7 77 00 80                  	lui	a5, 524295
8000461c: b7 7c 00 80                  	lui	s9, 524295
80004620: 83 aa 87 9d                  	lw	s5, -1576(a5)
80004624: 03 a7 8c 9c                  	lw	a4, -1592(s9)
80004628: 93 07 f0 ff                  	addi	a5, zero, -1
8000462c: 33 0a 64 01                  	add	s4, s0, s6
80004630: b3 8a 54 01                  	add	s5, s1, s5
80004634: 63 0a f7 34                  	beq	a4, a5, 852
80004638: b7 17 00 00                  	lui	a5, 1
8000463c: 93 87 f7 00                  	addi	a5, a5, 15
80004640: b3 8a fa 00                  	add	s5, s5, a5
80004644: b7 f7 ff ff                  	lui	a5, 1048575
80004648: b3 fa fa 00                  	and	s5, s5, a5
8000464c: 93 85 0a 00                  	mv	a1, s5
80004650: 13 85 09 00                  	mv	a0, s3
80004654: ef 00 c0 4b                  	jal	1212
80004658: 93 07 f0 ff                  	addi	a5, zero, -1
8000465c: 93 0b 05 00                  	mv	s7, a0
80004660: 63 0c f5 28                  	beq	a0, a5, 664
80004664: 63 68 45 29                  	bltu	a0, s4, 656
80004668: 37 7c 00 80                  	lui	s8, 524295
8000466c: 13 0c cc 9d                  	addi	s8, s8, -1572
80004670: 83 25 0c 00                  	lw	a1, 0(s8)
80004674: b3 85 ba 00                  	add	a1, s5, a1
80004678: 23 20 bc 00                  	sw	a1, 0(s8)
8000467c: 93 87 05 00                  	mv	a5, a1
80004680: 63 04 aa 3a                  	beq	s4, a0, 936
80004684: 83 a6 8c 9c                  	lw	a3, -1592(s9)
80004688: 13 07 f0 ff                  	addi	a4, zero, -1
8000468c: 63 8c e6 3a                  	beq	a3, a4, 952
80004690: 33 8a 4b 41                  	sub	s4, s7, s4
80004694: b3 07 fa 00                  	add	a5, s4, a5
80004698: 23 20 fc 00                  	sw	a5, 0(s8)
8000469c: 93 fc 7b 00                  	andi	s9, s7, 7
800046a0: 63 86 0c 30                  	beqz	s9, 780
800046a4: b7 17 00 00                  	lui	a5, 1
800046a8: b3 8b 9b 41                  	sub	s7, s7, s9
800046ac: 93 85 87 00                  	addi	a1, a5, 8
800046b0: 93 8b 8b 00                  	addi	s7, s7, 8
800046b4: b3 85 95 41                  	sub	a1, a1, s9
800046b8: b3 8a 5b 01                  	add	s5, s7, s5
800046bc: 93 87 f7 ff                  	addi	a5, a5, -1
800046c0: b3 85 55 41                  	sub	a1, a1, s5
800046c4: 33 fa f5 00                  	and	s4, a1, a5
800046c8: 93 05 0a 00                  	mv	a1, s4
800046cc: 13 85 09 00                  	mv	a0, s3
800046d0: ef 00 00 44                  	jal	1088
800046d4: 93 07 f0 ff                  	addi	a5, zero, -1
800046d8: 63 00 f5 3c                  	beq	a0, a5, 960
800046dc: 33 05 75 41                  	sub	a0, a0, s7
800046e0: b3 0a 45 01                  	add	s5, a0, s4
800046e4: 83 25 0c 00                  	lw	a1, 0(s8)
800046e8: 23 24 79 01                  	sw	s7, 8(s2)
800046ec: 93 ea 1a 00                  	ori	s5, s5, 1
800046f0: b3 05 ba 00                  	add	a1, s4, a1
800046f4: 23 20 bc 00                  	sw	a1, 0(s8)
800046f8: 23 a2 5b 01                  	sw	s5, 4(s7)
800046fc: 63 08 24 35                  	beq	s0, s2, 848
80004700: 93 06 f0 00                  	addi	a3, zero, 15
80004704: 63 f8 66 35                  	bgeu	a3, s6, 848
80004708: 03 27 44 00                  	lw	a4, 4(s0)
8000470c: 93 07 4b ff                  	addi	a5, s6, -12
80004710: 93 f7 87 ff                  	andi	a5, a5, -8
80004714: 13 77 17 00                  	andi	a4, a4, 1
80004718: 33 67 f7 00                  	or	a4, a4, a5
8000471c: 23 22 e4 00                  	sw	a4, 4(s0)
80004720: 13 06 50 00                  	addi	a2, zero, 5
80004724: 33 07 f4 00                  	add	a4, s0, a5
80004728: 23 22 c7 00                  	sw	a2, 4(a4)
8000472c: 23 24 c7 00                  	sw	a2, 8(a4)
80004730: 63 ee f6 36                  	bltu	a3, a5, 892
80004734: 83 aa 4b 00                  	lw	s5, 4(s7)
80004738: 13 84 0b 00                  	mv	s0, s7
8000473c: b7 77 00 80                  	lui	a5, 524295
80004740: 03 a7 47 9d                  	lw	a4, -1580(a5)
80004744: 63 74 b7 00                  	bgeu	a4, a1, 8
80004748: 23 aa b7 9c                  	sw	a1, -1580(a5)
8000474c: b7 77 00 80                  	lui	a5, 524295
80004750: 03 a7 07 9d                  	lw	a4, -1584(a5)
80004754: 63 76 b7 1a                  	bgeu	a4, a1, 428
80004758: 23 a8 b7 9c                  	sw	a1, -1584(a5)
8000475c: 6f 00 40 1a                  	j	420
80004760: 13 e7 14 00                  	ori	a4, s1, 1
80004764: 23 22 e4 00                  	sw	a4, 4(s0)
80004768: b3 04 94 00                  	add	s1, s0, s1
8000476c: 23 24 99 00                  	sw	s1, 8(s2)
80004770: 93 e7 17 00                  	ori	a5, a5, 1
80004774: 13 85 09 00                  	mv	a0, s3
80004778: 23 a2 f4 00                  	sw	a5, 4(s1)
8000477c: ef 00 00 39                  	jal	912
80004780: 13 05 84 00                  	addi	a0, s0, 8
80004784: 6f f0 9f e0                  	j	-504
80004788: 83 26 c4 00                  	lw	a3, 12(s0)
8000478c: 03 26 84 00                  	lw	a2, 8(s0)
80004790: 6f f0 1f c4                  	j	-960
80004794: 93 57 95 00                  	srli	a5, a0, 9
80004798: 13 07 40 00                  	addi	a4, zero, 4
8000479c: 63 72 f7 14                  	bgeu	a4, a5, 324
800047a0: 13 07 40 01                  	addi	a4, zero, 20
800047a4: 63 6a f7 22                  	bltu	a4, a5, 564
800047a8: 93 86 c7 05                  	addi	a3, a5, 92
800047ac: 93 85 b7 05                  	addi	a1, a5, 91
800047b0: 93 96 36 00                  	slli	a3, a3, 3
800047b4: b3 06 d9 00                  	add	a3, s2, a3
800047b8: 83 a7 06 00                  	lw	a5, 0(a3)
800047bc: 93 86 86 ff                  	addi	a3, a3, -8
800047c0: 63 88 f6 1c                  	beq	a3, a5, 464
800047c4: 03 a7 47 00                  	lw	a4, 4(a5)
800047c8: 13 77 c7 ff                  	andi	a4, a4, -4
800047cc: 63 76 e5 00                  	bgeu	a0, a4, 12
800047d0: 83 a7 87 00                  	lw	a5, 8(a5)
800047d4: e3 98 f6 fe                  	bne	a3, a5, -16
800047d8: 83 a6 c7 00                  	lw	a3, 12(a5)
800047dc: 03 27 49 00                  	lw	a4, 4(s2)
800047e0: 23 26 d4 00                  	sw	a3, 12(s0)
800047e4: 23 24 f4 00                  	sw	a5, 8(s0)
800047e8: 23 a4 86 00                  	sw	s0, 8(a3)
800047ec: 23 a6 87 00                  	sw	s0, 12(a5)
800047f0: 6f f0 1f cf                  	j	-784
800047f4: 13 07 40 01                  	addi	a4, zero, 20
800047f8: 63 76 f7 12                  	bgeu	a4, a5, 300
800047fc: 13 07 40 05                  	addi	a4, zero, 84
80004800: 63 6a f7 1e                  	bltu	a4, a5, 500
80004804: 93 d7 c4 00                  	srli	a5, s1, 12
80004808: 13 86 f7 06                  	addi	a2, a5, 111
8000480c: 13 85 e7 06                  	addi	a0, a5, 110
80004810: 93 16 36 00                  	slli	a3, a2, 3
80004814: 6f f0 df c1                  	j	-996
80004818: 13 0e 1e 00                  	addi	t3, t3, 1
8000481c: 93 77 3e 00                  	andi	a5, t3, 3
80004820: 13 05 85 00                  	addi	a0, a0, 8
80004824: 63 8e 07 10                  	beqz	a5, 284
80004828: 83 27 c5 00                  	lw	a5, 12(a0)
8000482c: 6f f0 9f d0                  	j	-760
80004830: 03 26 84 00                  	lw	a2, 8(s0)
80004834: 93 e5 14 00                  	ori	a1, s1, 1
80004838: 23 22 b4 00                  	sw	a1, 4(s0)
8000483c: 23 26 f6 00                  	sw	a5, 12(a2)
80004840: 23 a4 c7 00                  	sw	a2, 8(a5)
80004844: b3 04 94 00                  	add	s1, s0, s1
80004848: 23 2a 99 00                  	sw	s1, 20(s2)
8000484c: 23 28 99 00                  	sw	s1, 16(s2)
80004850: 93 e7 16 00                  	ori	a5, a3, 1
80004854: 23 a6 14 01                  	sw	a7, 12(s1)
80004858: 23 a4 14 01                  	sw	a7, 8(s1)
8000485c: 23 a2 f4 00                  	sw	a5, 4(s1)
80004860: 33 07 e4 00                  	add	a4, s0, a4
80004864: 13 85 09 00                  	mv	a0, s3
80004868: 23 20 d7 00                  	sw	a3, 0(a4)
8000486c: ef 00 00 2a                  	jal	672
80004870: 13 05 84 00                  	addi	a0, s0, 8
80004874: 6f f0 9f d1                  	j	-744
80004878: 13 d6 34 00                  	srli	a2, s1, 3
8000487c: 93 87 84 00                  	addi	a5, s1, 8
80004880: 6f f0 9f b2                  	j	-1240
80004884: 33 07 a4 00                  	add	a4, s0, a0
80004888: 83 27 47 00                  	lw	a5, 4(a4)
8000488c: 13 85 09 00                  	mv	a0, s3
80004890: 93 e7 17 00                  	ori	a5, a5, 1
80004894: 23 22 f7 00                  	sw	a5, 4(a4)
80004898: ef 00 40 27                  	jal	628
8000489c: 13 05 84 00                  	addi	a0, s0, 8
800048a0: 6f f0 df ce                  	j	-788
800048a4: 13 e7 14 00                  	ori	a4, s1, 1
800048a8: 23 22 e4 00                  	sw	a4, 4(s0)
800048ac: b3 04 94 00                  	add	s1, s0, s1
800048b0: 23 2a 99 00                  	sw	s1, 20(s2)
800048b4: 23 28 99 00                  	sw	s1, 16(s2)
800048b8: 13 e7 17 00                  	ori	a4, a5, 1
800048bc: 23 a6 14 01                  	sw	a7, 12(s1)
800048c0: 23 a4 14 01                  	sw	a7, 8(s1)
800048c4: 23 a2 e4 00                  	sw	a4, 4(s1)
800048c8: 33 05 a4 00                  	add	a0, s0, a0
800048cc: 23 20 f5 00                  	sw	a5, 0(a0)
800048d0: 13 85 09 00                  	mv	a0, s3
800048d4: ef 00 80 23                  	jal	568
800048d8: 13 05 84 00                  	addi	a0, s0, 8
800048dc: 6f f0 1f cb                  	j	-848
800048e0: 93 57 65 00                  	srli	a5, a0, 6
800048e4: 93 86 97 03                  	addi	a3, a5, 57
800048e8: 93 85 87 03                  	addi	a1, a5, 56
800048ec: 93 96 36 00                  	slli	a3, a3, 3
800048f0: 6f f0 5f ec                  	j	-316
800048f4: 63 0e 24 11                  	beq	s0, s2, 284
800048f8: 03 24 89 00                  	lw	s0, 8(s2)
800048fc: 83 2a 44 00                  	lw	s5, 4(s0)
80004900: 93 fa ca ff                  	andi	s5, s5, -4
80004904: b3 87 9a 40                  	sub	a5, s5, s1
80004908: 63 e6 9a 00                  	bltu	s5, s1, 12
8000490c: 13 07 f0 00                  	addi	a4, zero, 15
80004910: e3 48 f7 e4                  	blt	a4, a5, -432
80004914: 13 85 09 00                  	mv	a0, s3
80004918: ef 00 40 1f                  	jal	500
8000491c: 13 05 00 00                  	mv	a0, zero
80004920: 6f f0 df c6                  	j	-916
80004924: 13 86 c7 05                  	addi	a2, a5, 92
80004928: 13 85 b7 05                  	addi	a0, a5, 91
8000492c: 93 16 36 00                  	slli	a3, a2, 3
80004930: 6f f0 1f b0                  	j	-1280
80004934: 83 27 83 00                  	lw	a5, 8(t1)
80004938: 13 06 f6 ff                  	addi	a2, a2, -1
8000493c: 63 92 67 1c                  	bne	a5, t1, 452
80004940: 93 77 36 00                  	andi	a5, a2, 3
80004944: 13 03 83 ff                  	addi	t1, t1, -8
80004948: e3 96 07 fe                  	bnez	a5, -20
8000494c: 03 27 49 00                  	lw	a4, 4(s2)
80004950: 93 c7 f5 ff                  	not	a5, a1
80004954: b3 f7 e7 00                  	and	a5, a5, a4
80004958: 23 22 f9 00                  	sw	a5, 4(s2)
8000495c: 93 95 15 00                  	slli	a1, a1, 1
80004960: e3 ee b7 c8                  	bltu	a5, a1, -868
80004964: e3 8c 05 c8                  	beqz	a1, -872
80004968: 33 f7 f5 00                  	and	a4, a1, a5
8000496c: 63 1a 07 00                  	bnez	a4, 20
80004970: 93 95 15 00                  	slli	a1, a1, 1
80004974: 33 f7 f5 00                  	and	a4, a1, a5
80004978: 13 0e 4e 00                  	addi	t3, t3, 4
8000497c: e3 0a 07 fe                  	beqz	a4, -12
80004980: 13 06 0e 00                  	mv	a2, t3
80004984: 6f f0 df b9                  	j	-1124
80004988: 93 8a 0a 01                  	addi	s5, s5, 16
8000498c: 6f f0 1f cc                  	j	-832
80004990: 03 25 49 00                  	lw	a0, 4(s2)
80004994: 93 d5 25 40                  	srai	a1, a1, 2
80004998: 13 07 10 00                  	addi	a4, zero, 1
8000499c: 33 17 b7 00                  	sll	a4, a4, a1
800049a0: 33 67 a7 00                  	or	a4, a4, a0
800049a4: 23 22 e9 00                  	sw	a4, 4(s2)
800049a8: 6f f0 9f e3                  	j	-456
800049ac: b3 85 5b 01                  	add	a1, s7, s5
800049b0: b3 05 b0 40                  	neg	a1, a1
800049b4: 93 95 45 01                  	slli	a1, a1, 20
800049b8: 13 da 45 01                  	srli	s4, a1, 20
800049bc: 93 05 0a 00                  	mv	a1, s4
800049c0: 13 85 09 00                  	mv	a0, s3
800049c4: ef 00 c0 14                  	jal	332
800049c8: 93 07 f0 ff                  	addi	a5, zero, -1
800049cc: e3 18 f5 d0                  	bne	a0, a5, -752
800049d0: 13 0a 00 00                  	mv	s4, zero
800049d4: 6f f0 1f d1                  	j	-752
800049d8: 13 07 40 05                  	addi	a4, zero, 84
800049dc: 63 62 f7 08                  	bltu	a4, a5, 132
800049e0: 93 57 c5 00                  	srli	a5, a0, 12
800049e4: 93 86 f7 06                  	addi	a3, a5, 111
800049e8: 93 85 e7 06                  	addi	a1, a5, 110
800049ec: 93 96 36 00                  	slli	a3, a3, 3
800049f0: 6f f0 5f dc                  	j	-572
800049f4: 13 07 40 15                  	addi	a4, zero, 340
800049f8: 63 62 f7 08                  	bltu	a4, a5, 132
800049fc: 93 d7 f4 00                  	srli	a5, s1, 15
80004a00: 13 86 87 07                  	addi	a2, a5, 120
80004a04: 13 85 77 07                  	addi	a0, a5, 119
80004a08: 93 16 36 00                  	slli	a3, a2, 3
80004a0c: 6f f0 5f a2                  	j	-1500
80004a10: 37 7c 00 80                  	lui	s8, 524295
80004a14: 13 0c cc 9d                  	addi	s8, s8, -1572
80004a18: 83 27 0c 00                  	lw	a5, 0(s8)
80004a1c: b3 87 fa 00                  	add	a5, s5, a5
80004a20: 23 20 fc 00                  	sw	a5, 0(s8)
80004a24: 6f f0 1f c6                  	j	-928
80004a28: 13 17 4a 01                  	slli	a4, s4, 20
80004a2c: e3 1c 07 c4                  	bnez	a4, -936
80004a30: 03 24 89 00                  	lw	s0, 8(s2)
80004a34: b3 0a 5b 01                  	add	s5, s6, s5
80004a38: 93 ea 1a 00                  	ori	s5, s5, 1
80004a3c: 23 22 54 01                  	sw	s5, 4(s0)
80004a40: 6f f0 df cf                  	j	-772
80004a44: 23 a4 7c 9d                  	sw	s7, -1592(s9)
80004a48: 6f f0 5f c5                  	j	-940
80004a4c: 13 84 0b 00                  	mv	s0, s7
80004a50: 6f f0 df ce                  	j	-788
80004a54: 93 07 10 00                  	addi	a5, zero, 1
80004a58: 23 a2 fb 00                  	sw	a5, 4(s7)
80004a5c: 6f f0 9f eb                  	j	-328
80004a60: 13 07 40 15                  	addi	a4, zero, 340
80004a64: 63 62 f7 06                  	bltu	a4, a5, 100
80004a68: 93 57 f5 00                  	srli	a5, a0, 15
80004a6c: 93 86 87 07                  	addi	a3, a5, 120
80004a70: 93 85 77 07                  	addi	a1, a5, 119
80004a74: 93 96 36 00                  	slli	a3, a3, 3
80004a78: 6f f0 df d3                  	j	-708
80004a7c: 13 07 40 55                  	addi	a4, zero, 1364
80004a80: 63 62 f7 06                  	bltu	a4, a5, 100
80004a84: 93 d7 24 01                  	srli	a5, s1, 18
80004a88: 13 86 d7 07                  	addi	a2, a5, 125
80004a8c: 13 85 c7 07                  	addi	a0, a5, 124
80004a90: 93 16 36 00                  	slli	a3, a2, 3
80004a94: 6f f0 df 99                  	j	-1636
80004a98: 93 8c 8c ff                  	addi	s9, s9, -8
80004a9c: b3 8a 9a 01                  	add	s5, s5, s9
80004aa0: b3 8a 7a 41                  	sub	s5, s5, s7
80004aa4: 13 0a 00 00                  	mv	s4, zero
80004aa8: 6f f0 df c3                  	j	-964
80004aac: 93 05 84 00                  	addi	a1, s0, 8
80004ab0: 13 85 09 00                  	mv	a0, s3
80004ab4: ef 00 c0 1f                  	jal	508
80004ab8: 03 24 89 00                  	lw	s0, 8(s2)
80004abc: 83 25 0c 00                  	lw	a1, 0(s8)
80004ac0: 83 2a 44 00                  	lw	s5, 4(s0)
80004ac4: 6f f0 9f c7                  	j	-904
80004ac8: 13 07 40 55                  	addi	a4, zero, 1364
80004acc: 63 64 f7 02                  	bltu	a4, a5, 40
80004ad0: 93 57 25 01                  	srli	a5, a0, 18
80004ad4: 93 86 d7 07                  	addi	a3, a5, 125
80004ad8: 93 85 c7 07                  	addi	a1, a5, 124
80004adc: 93 96 36 00                  	slli	a3, a3, 3
80004ae0: 6f f0 5f cd                  	j	-812
80004ae4: 93 06 80 3f                  	addi	a3, zero, 1016
80004ae8: 13 06 f0 07                  	addi	a2, zero, 127
80004aec: 13 05 e0 07                  	addi	a0, zero, 126
80004af0: 6f f0 1f 94                  	j	-1728
80004af4: 93 06 80 3f                  	addi	a3, zero, 1016
80004af8: 93 05 e0 07                  	addi	a1, zero, 126
80004afc: 6f f0 9f cb                  	j	-840
80004b00: 83 27 49 00                  	lw	a5, 4(s2)
80004b04: 6f f0 9f e5                  	j	-424

80004b08 __malloc_lock:
80004b08: 67 80 00 00                  	ret

80004b0c __malloc_unlock:
80004b0c: 67 80 00 00                  	ret

80004b10 _sbrk_r:
80004b10: 13 01 01 ff                  	addi	sp, sp, -16
80004b14: 23 24 81 00                  	sw	s0, 8(sp)
80004b18: 23 22 91 00                  	sw	s1, 4(sp)
80004b1c: 13 04 05 00                  	mv	s0, a0
80004b20: b7 74 00 80                  	lui	s1, 524295
80004b24: 13 85 05 00                  	mv	a0, a1
80004b28: 23 26 11 00                  	sw	ra, 12(sp)
80004b2c: 23 a2 04 a8                  	sw	zero, -1404(s1)
80004b30: ef e0 9f c4                  	jal	-5048
80004b34: 93 07 f0 ff                  	addi	a5, zero, -1
80004b38: 63 0c f5 00                  	beq	a0, a5, 24
80004b3c: 83 20 c1 00                  	lw	ra, 12(sp)
80004b40: 03 24 81 00                  	lw	s0, 8(sp)
80004b44: 83 24 41 00                  	lw	s1, 4(sp)
80004b48: 13 01 01 01                  	addi	sp, sp, 16
80004b4c: 67 80 00 00                  	ret
80004b50: 83 a7 44 a8                  	lw	a5, -1404(s1)
80004b54: e3 84 07 fe                  	beqz	a5, -24
80004b58: 83 20 c1 00                  	lw	ra, 12(sp)
80004b5c: 23 20 f4 00                  	sw	a5, 0(s0)
80004b60: 03 24 81 00                  	lw	s0, 8(sp)
80004b64: 83 24 41 00                  	lw	s1, 4(sp)
80004b68: 13 01 01 01                  	addi	sp, sp, 16
80004b6c: 67 80 00 00                  	ret

80004b70 _malloc_trim_r:
80004b70: 13 01 01 fe                  	addi	sp, sp, -32
80004b74: 23 26 31 01                  	sw	s3, 12(sp)
80004b78: b7 69 00 80                  	lui	s3, 524294
80004b7c: 23 2c 81 00                  	sw	s0, 24(sp)
80004b80: 23 2a 91 00                  	sw	s1, 20(sp)
80004b84: 23 28 21 01                  	sw	s2, 16(sp)
80004b88: 23 24 41 01                  	sw	s4, 8(sp)
80004b8c: 23 2e 11 00                  	sw	ra, 28(sp)
80004b90: 13 8a 05 00                  	mv	s4, a1
80004b94: 13 09 05 00                  	mv	s2, a0
80004b98: 93 89 09 5a                  	addi	s3, s3, 1440
80004b9c: ef f0 df f6                  	jal	-148
80004ba0: 03 a7 89 00                  	lw	a4, 8(s3)
80004ba4: b7 17 00 00                  	lui	a5, 1
80004ba8: 13 84 f7 fe                  	addi	s0, a5, -17
80004bac: 83 24 47 00                  	lw	s1, 4(a4)
80004bb0: 33 04 44 41                  	sub	s0, s0, s4
80004bb4: 93 f4 c4 ff                  	andi	s1, s1, -4
80004bb8: 33 04 94 00                  	add	s0, s0, s1
80004bbc: 13 54 c4 00                  	srli	s0, s0, 12
80004bc0: 13 04 f4 ff                  	addi	s0, s0, -1
80004bc4: 13 14 c4 00                  	slli	s0, s0, 12
80004bc8: 63 4e f4 00                  	blt	s0, a5, 28
80004bcc: 93 05 00 00                  	mv	a1, zero
80004bd0: 13 05 09 00                  	mv	a0, s2
80004bd4: ef f0 df f3                  	jal	-196
80004bd8: 83 a7 89 00                  	lw	a5, 8(s3)
80004bdc: b3 87 97 00                  	add	a5, a5, s1
80004be0: 63 08 f5 02                  	beq	a0, a5, 48
80004be4: 13 05 09 00                  	mv	a0, s2
80004be8: ef f0 5f f2                  	jal	-220
80004bec: 83 20 c1 01                  	lw	ra, 28(sp)
80004bf0: 03 24 81 01                  	lw	s0, 24(sp)
80004bf4: 83 24 41 01                  	lw	s1, 20(sp)
80004bf8: 03 29 01 01                  	lw	s2, 16(sp)
80004bfc: 83 29 c1 00                  	lw	s3, 12(sp)
80004c00: 03 2a 81 00                  	lw	s4, 8(sp)
80004c04: 13 05 00 00                  	mv	a0, zero
80004c08: 13 01 01 02                  	addi	sp, sp, 32
80004c0c: 67 80 00 00                  	ret
80004c10: b3 05 80 40                  	neg	a1, s0
80004c14: 13 05 09 00                  	mv	a0, s2
80004c18: ef f0 9f ef                  	jal	-264
80004c1c: 93 07 f0 ff                  	addi	a5, zero, -1
80004c20: 63 0a f5 04                  	beq	a0, a5, 84
80004c24: b7 77 00 80                  	lui	a5, 524295
80004c28: 93 87 c7 9d                  	addi	a5, a5, -1572
80004c2c: 03 a7 07 00                  	lw	a4, 0(a5)
80004c30: 83 a6 89 00                  	lw	a3, 8(s3)
80004c34: b3 84 84 40                  	sub	s1, s1, s0
80004c38: 93 e4 14 00                  	ori	s1, s1, 1
80004c3c: 33 04 87 40                  	sub	s0, a4, s0
80004c40: 13 05 09 00                  	mv	a0, s2
80004c44: 23 a2 96 00                  	sw	s1, 4(a3)
80004c48: 23 a0 87 00                  	sw	s0, 0(a5)
80004c4c: ef f0 1f ec                  	jal	-320
80004c50: 83 20 c1 01                  	lw	ra, 28(sp)
80004c54: 03 24 81 01                  	lw	s0, 24(sp)
80004c58: 83 24 41 01                  	lw	s1, 20(sp)
80004c5c: 03 29 01 01                  	lw	s2, 16(sp)
80004c60: 83 29 c1 00                  	lw	s3, 12(sp)
80004c64: 03 2a 81 00                  	lw	s4, 8(sp)
80004c68: 13 05 10 00                  	addi	a0, zero, 1
80004c6c: 13 01 01 02                  	addi	sp, sp, 32
80004c70: 67 80 00 00                  	ret
80004c74: 93 05 00 00                  	mv	a1, zero
80004c78: 13 05 09 00                  	mv	a0, s2
80004c7c: ef f0 5f e9                  	jal	-364
80004c80: 03 a7 89 00                  	lw	a4, 8(s3)
80004c84: 93 06 f0 00                  	addi	a3, zero, 15
80004c88: b3 07 e5 40                  	sub	a5, a0, a4
80004c8c: e3 dc f6 f4                  	bge	a3, a5, -168
80004c90: b7 76 00 80                  	lui	a3, 524295
80004c94: 83 a6 86 9c                  	lw	a3, -1592(a3)
80004c98: 93 e7 17 00                  	ori	a5, a5, 1
80004c9c: 23 22 f7 00                  	sw	a5, 4(a4)
80004ca0: 33 05 d5 40                  	sub	a0, a0, a3
80004ca4: b7 76 00 80                  	lui	a3, 524295
80004ca8: 23 ae a6 9c                  	sw	a0, -1572(a3)
80004cac: 6f f0 9f f3                  	j	-200

80004cb0 _free_r:
80004cb0: 63 8a 05 12                  	beqz	a1, 308
80004cb4: 13 01 01 ff                  	addi	sp, sp, -16
80004cb8: 23 24 81 00                  	sw	s0, 8(sp)
80004cbc: 23 22 91 00                  	sw	s1, 4(sp)
80004cc0: 13 84 05 00                  	mv	s0, a1
80004cc4: 93 04 05 00                  	mv	s1, a0
80004cc8: 23 26 11 00                  	sw	ra, 12(sp)
80004ccc: ef f0 df e3                  	jal	-452
80004cd0: 03 28 c4 ff                  	lw	a6, -4(s0)
80004cd4: 13 07 84 ff                  	addi	a4, s0, -8
80004cd8: b7 65 00 80                  	lui	a1, 524294
80004cdc: 93 77 e8 ff                  	andi	a5, a6, -2
80004ce0: 33 06 f7 00                  	add	a2, a4, a5
80004ce4: 93 85 05 5a                  	addi	a1, a1, 1440
80004ce8: 83 26 46 00                  	lw	a3, 4(a2)
80004cec: 03 a5 85 00                  	lw	a0, 8(a1)
80004cf0: 93 f6 c6 ff                  	andi	a3, a3, -4
80004cf4: 63 0a c5 1a                  	beq	a0, a2, 436
80004cf8: 23 22 d6 00                  	sw	a3, 4(a2)
80004cfc: 13 78 18 00                  	andi	a6, a6, 1
80004d00: 33 05 d6 00                  	add	a0, a2, a3
80004d04: 63 10 08 0a                  	bnez	a6, 160
80004d08: 03 23 84 ff                  	lw	t1, -8(s0)
80004d0c: 03 28 45 00                  	lw	a6, 4(a0)
80004d10: 37 65 00 80                  	lui	a0, 524294
80004d14: 33 07 67 40                  	sub	a4, a4, t1
80004d18: 83 28 87 00                  	lw	a7, 8(a4)
80004d1c: 13 05 85 5a                  	addi	a0, a0, 1448
80004d20: b3 87 67 00                  	add	a5, a5, t1
80004d24: 13 78 18 00                  	andi	a6, a6, 1
80004d28: 63 80 a8 14                  	beq	a7, a0, 320
80004d2c: 03 23 c7 00                  	lw	t1, 12(a4)
80004d30: 23 a6 68 00                  	sw	t1, 12(a7)
80004d34: 23 24 13 01                  	sw	a7, 8(t1)
80004d38: 63 04 08 1e                  	beqz	a6, 488
80004d3c: 93 e6 17 00                  	ori	a3, a5, 1
80004d40: 23 22 d7 00                  	sw	a3, 4(a4)
80004d44: 23 20 f6 00                  	sw	a5, 0(a2)
80004d48: 93 06 f0 1f                  	addi	a3, zero, 511
80004d4c: 63 e8 f6 0a                  	bltu	a3, a5, 176
80004d50: 93 f6 87 ff                  	andi	a3, a5, -8
80004d54: 93 86 86 00                  	addi	a3, a3, 8
80004d58: 03 a5 45 00                  	lw	a0, 4(a1)
80004d5c: b3 86 d5 00                  	add	a3, a1, a3
80004d60: 03 a6 06 00                  	lw	a2, 0(a3)
80004d64: 13 d8 57 00                  	srli	a6, a5, 5
80004d68: 93 07 10 00                  	addi	a5, zero, 1
80004d6c: b3 97 07 01                  	sll	a5, a5, a6
80004d70: b3 e7 a7 00                  	or	a5, a5, a0
80004d74: 13 85 86 ff                  	addi	a0, a3, -8
80004d78: 23 26 a7 00                  	sw	a0, 12(a4)
80004d7c: 23 24 c7 00                  	sw	a2, 8(a4)
80004d80: 23 a2 f5 00                  	sw	a5, 4(a1)
80004d84: 23 a0 e6 00                  	sw	a4, 0(a3)
80004d88: 23 26 e6 00                  	sw	a4, 12(a2)
80004d8c: 03 24 81 00                  	lw	s0, 8(sp)
80004d90: 83 20 c1 00                  	lw	ra, 12(sp)
80004d94: 13 85 04 00                  	mv	a0, s1
80004d98: 83 24 41 00                  	lw	s1, 4(sp)
80004d9c: 13 01 01 01                  	addi	sp, sp, 16
80004da0: 6f f0 df d6                  	j	-660
80004da4: 03 25 45 00                  	lw	a0, 4(a0)
80004da8: 13 75 15 00                  	andi	a0, a0, 1
80004dac: 63 1e 05 02                  	bnez	a0, 60
80004db0: 37 65 00 80                  	lui	a0, 524294
80004db4: b3 87 d7 00                  	add	a5, a5, a3
80004db8: 13 05 85 5a                  	addi	a0, a0, 1448
80004dbc: 83 26 86 00                  	lw	a3, 8(a2)
80004dc0: 93 e8 17 00                  	ori	a7, a5, 1
80004dc4: 33 08 f7 00                  	add	a6, a4, a5
80004dc8: 63 88 a6 16                  	beq	a3, a0, 368
80004dcc: 03 26 c6 00                  	lw	a2, 12(a2)
80004dd0: 23 a6 c6 00                  	sw	a2, 12(a3)
80004dd4: 23 24 d6 00                  	sw	a3, 8(a2)
80004dd8: 23 22 17 01                  	sw	a7, 4(a4)
80004ddc: 23 20 f8 00                  	sw	a5, 0(a6)
80004de0: 6f f0 9f f6                  	j	-152
80004de4: 67 80 00 00                  	ret
80004de8: 93 e6 17 00                  	ori	a3, a5, 1
80004dec: 23 2e d4 fe                  	sw	a3, -4(s0)
80004df0: 23 20 f6 00                  	sw	a5, 0(a2)
80004df4: 93 06 f0 1f                  	addi	a3, zero, 511
80004df8: e3 fc f6 f4                  	bgeu	a3, a5, -168
80004dfc: 93 d6 97 00                  	srli	a3, a5, 9
80004e00: 13 06 40 00                  	addi	a2, zero, 4
80004e04: 63 6c d6 0e                  	bltu	a2, a3, 248
80004e08: 93 d6 67 00                  	srli	a3, a5, 6
80004e0c: 13 88 96 03                  	addi	a6, a3, 57
80004e10: 13 86 86 03                  	addi	a2, a3, 56
80004e14: 13 18 38 00                  	slli	a6, a6, 3
80004e18: 33 88 05 01                  	add	a6, a1, a6
80004e1c: 83 26 08 00                  	lw	a3, 0(a6)
80004e20: 13 08 88 ff                  	addi	a6, a6, -8
80004e24: 63 08 d8 12                  	beq	a6, a3, 304
80004e28: 03 a6 46 00                  	lw	a2, 4(a3)
80004e2c: 13 76 c6 ff                  	andi	a2, a2, -4
80004e30: 63 f6 c7 00                  	bgeu	a5, a2, 12
80004e34: 83 a6 86 00                  	lw	a3, 8(a3)
80004e38: e3 18 d8 fe                  	bne	a6, a3, -16
80004e3c: 03 a8 c6 00                  	lw	a6, 12(a3)
80004e40: 23 26 07 01                  	sw	a6, 12(a4)
80004e44: 23 24 d7 00                  	sw	a3, 8(a4)
80004e48: 03 24 81 00                  	lw	s0, 8(sp)
80004e4c: 83 20 c1 00                  	lw	ra, 12(sp)
80004e50: 23 24 e8 00                  	sw	a4, 8(a6)
80004e54: 13 85 04 00                  	mv	a0, s1
80004e58: 83 24 41 00                  	lw	s1, 4(sp)
80004e5c: 23 a6 e6 00                  	sw	a4, 12(a3)
80004e60: 13 01 01 01                  	addi	sp, sp, 16
80004e64: 6f f0 9f ca                  	j	-856
80004e68: 63 16 08 14                  	bnez	a6, 332
80004e6c: 83 25 c6 00                  	lw	a1, 12(a2)
80004e70: 03 26 86 00                  	lw	a2, 8(a2)
80004e74: b3 87 f6 00                  	add	a5, a3, a5
80004e78: 03 24 81 00                  	lw	s0, 8(sp)
80004e7c: 23 26 b6 00                  	sw	a1, 12(a2)
80004e80: 23 a4 c5 00                  	sw	a2, 8(a1)
80004e84: 93 e6 17 00                  	ori	a3, a5, 1
80004e88: 83 20 c1 00                  	lw	ra, 12(sp)
80004e8c: 23 22 d7 00                  	sw	a3, 4(a4)
80004e90: 13 85 04 00                  	mv	a0, s1
80004e94: 33 07 f7 00                  	add	a4, a4, a5
80004e98: 83 24 41 00                  	lw	s1, 4(sp)
80004e9c: 23 20 f7 00                  	sw	a5, 0(a4)
80004ea0: 13 01 01 01                  	addi	sp, sp, 16
80004ea4: 6f f0 9f c6                  	j	-920
80004ea8: 13 78 18 00                  	andi	a6, a6, 1
80004eac: b3 87 d7 00                  	add	a5, a5, a3
80004eb0: 63 10 08 02                  	bnez	a6, 32
80004eb4: 03 25 84 ff                  	lw	a0, -8(s0)
80004eb8: 33 07 a7 40                  	sub	a4, a4, a0
80004ebc: 83 26 c7 00                  	lw	a3, 12(a4)
80004ec0: 03 26 87 00                  	lw	a2, 8(a4)
80004ec4: b3 87 a7 00                  	add	a5, a5, a0
80004ec8: 23 26 d6 00                  	sw	a3, 12(a2)
80004ecc: 23 a4 c6 00                  	sw	a2, 8(a3)
80004ed0: b7 76 00 80                  	lui	a3, 524295
80004ed4: 13 e6 17 00                  	ori	a2, a5, 1
80004ed8: 83 a6 c6 9c                  	lw	a3, -1588(a3)
80004edc: 23 22 c7 00                  	sw	a2, 4(a4)
80004ee0: 23 a4 e5 00                  	sw	a4, 8(a1)
80004ee4: e3 e4 d7 ea                  	bltu	a5, a3, -344
80004ee8: b7 77 00 80                  	lui	a5, 524295
80004eec: 83 a5 87 9d                  	lw	a1, -1576(a5)
80004ef0: 13 85 04 00                  	mv	a0, s1
80004ef4: ef f0 df c7                  	jal	-900
80004ef8: 6f f0 5f e9                  	j	-364
80004efc: 13 06 40 01                  	addi	a2, zero, 20
80004f00: 63 74 d6 02                  	bgeu	a2, a3, 40
80004f04: 13 06 40 05                  	addi	a2, zero, 84
80004f08: 63 64 d6 06                  	bltu	a2, a3, 104
80004f0c: 93 d6 c7 00                  	srli	a3, a5, 12
80004f10: 13 88 f6 06                  	addi	a6, a3, 111
80004f14: 13 86 e6 06                  	addi	a2, a3, 110
80004f18: 13 18 38 00                  	slli	a6, a6, 3
80004f1c: 6f f0 df ef                  	j	-260
80004f20: b3 87 d7 00                  	add	a5, a5, a3
80004f24: 6f f0 9f e9                  	j	-360
80004f28: 13 88 c6 05                  	addi	a6, a3, 92
80004f2c: 13 86 b6 05                  	addi	a2, a3, 91
80004f30: 13 18 38 00                  	slli	a6, a6, 3
80004f34: 6f f0 5f ee                  	j	-284
80004f38: 23 aa e5 00                  	sw	a4, 20(a1)
80004f3c: 23 a8 e5 00                  	sw	a4, 16(a1)
80004f40: 23 26 a7 00                  	sw	a0, 12(a4)
80004f44: 23 24 a7 00                  	sw	a0, 8(a4)
80004f48: 23 22 17 01                  	sw	a7, 4(a4)
80004f4c: 23 20 f8 00                  	sw	a5, 0(a6)
80004f50: 6f f0 df e3                  	j	-452
80004f54: 03 a5 45 00                  	lw	a0, 4(a1)
80004f58: 13 56 26 40                  	srai	a2, a2, 2
80004f5c: 93 07 10 00                  	addi	a5, zero, 1
80004f60: 33 96 c7 00                  	sll	a2, a5, a2
80004f64: 33 66 a6 00                  	or	a2, a2, a0
80004f68: 23 a2 c5 00                  	sw	a2, 4(a1)
80004f6c: 6f f0 5f ed                  	j	-300
80004f70: 13 06 40 15                  	addi	a2, zero, 340
80004f74: 63 6c d6 00                  	bltu	a2, a3, 24
80004f78: 93 d6 f7 00                  	srli	a3, a5, 15
80004f7c: 13 88 86 07                  	addi	a6, a3, 120
80004f80: 13 86 76 07                  	addi	a2, a3, 119
80004f84: 13 18 38 00                  	slli	a6, a6, 3
80004f88: 6f f0 1f e9                  	j	-368
80004f8c: 13 06 40 55                  	addi	a2, zero, 1364
80004f90: 63 6c d6 00                  	bltu	a2, a3, 24
80004f94: 93 d6 27 01                  	srli	a3, a5, 18
80004f98: 13 88 d6 07                  	addi	a6, a3, 125
80004f9c: 13 86 c6 07                  	addi	a2, a3, 124
80004fa0: 13 18 38 00                  	slli	a6, a6, 3
80004fa4: 6f f0 5f e7                  	j	-396
80004fa8: 13 08 80 3f                  	addi	a6, zero, 1016
80004fac: 13 06 e0 07                  	addi	a2, zero, 126
80004fb0: 6f f0 9f e6                  	j	-408
80004fb4: 93 e6 17 00                  	ori	a3, a5, 1
80004fb8: 23 22 d7 00                  	sw	a3, 4(a4)
80004fbc: 23 20 f6 00                  	sw	a5, 0(a2)
80004fc0: 6f f0 df dc                  	j	-564

Disassembly of section .eh_frame:

80004fc4 .eh_frame:
80004fc4: 10 00                        	<unknown>
80004fc6: 00 00                        	<unknown>
80004fc8: 00 00                        	<unknown>
80004fca: 00 00                        	<unknown>
80004fcc: 01 7a                        	<unknown>
80004fce: 52 00                        	<unknown>
80004fd0: 01 7c                        	<unknown>
80004fd2: 01 01                        	<unknown>
80004fd4: 1b 0c 02 00                  	<unknown>
80004fd8: 34 00                        	<unknown>
80004fda: 00 00                        	<unknown>
80004fdc: 18 00                        	<unknown>
80004fde: 00 00                        	<unknown>
80004fe0: 88 b0                        	<unknown>
80004fe2: ff ff 3c 11                  	<unknown>
80004fe6: 00 00                        	<unknown>
80004fe8: 00 44                        	<unknown>
80004fea: 0e d0                        	<unknown>
80004fec: 01 02                        	<unknown>
80004fee: 40 81                        	<unknown>
80004ff0: 01 88                        	<unknown>
80004ff2: 02 89                        	<unknown>
80004ff4: 03 92 04 93                  	lh	tp, -1744(s1)
80004ff8: 05 94                        	<unknown>
80004ffa: 06 95                        	<unknown>
80004ffc: 07 96 08 97                  	<unknown>
80005000: 09 98                        	<unknown>
80005002: 0a 99                        	<unknown>
80005004: 0b 9a 0c 9b                  	<unknown>
80005008: 0d a8                        	<unknown>
8000500a: 0e a9                        	<unknown>
8000500c: 0f b2 10 00                  	<unknown>
80005010: 10 00                        	<unknown>
80005012: 00 00                        	<unknown>
80005014: 50 00                        	<unknown>
80005016: 00 00                        	<unknown>
80005018: 54 d0                        	<unknown>
8000501a: ff ff 14 00                  	<unknown>
8000501e: 00 00                        	<unknown>
80005020: 00 00                        	<unknown>
80005022: 00 00                        	<unknown>
80005024: 18 00                        	<unknown>
80005026: 00 00                        	<unknown>
80005028: 64 00                        	<unknown>
8000502a: 00 00                        	<unknown>
8000502c: 54 d0                        	<unknown>
8000502e: ff ff 30 02                  	<unknown>
80005032: 00 00                        	<unknown>
80005034: 00 44                        	<unknown>
80005036: 0e c0                        	<unknown>
80005038: 01 4c                        	<unknown>
8000503a: 81 01                        	<unknown>
8000503c: 88 02                        	<unknown>
8000503e: 89 03                        	<unknown>
80005040: 28 00                        	<unknown>
80005042: 00 00                        	<unknown>
80005044: 80 00                        	<unknown>
80005046: 00 00                        	<unknown>
80005048: 68 d2                        	<unknown>
8000504a: ff ff c4 01                  	<unknown>
8000504e: 00 00                        	<unknown>
80005050: 00 44                        	<unknown>
80005052: 0e 30                        	<unknown>
80005054: 68 81                        	<unknown>
80005056: 01 88                        	<unknown>
80005058: 02 89                        	<unknown>
8000505a: 03 92 04 93                  	lh	tp, -1744(s1)
8000505e: 05 94                        	<unknown>
80005060: 06 95                        	<unknown>
80005062: 07 96 08 97                  	<unknown>
80005066: 09 98                        	<unknown>
80005068: 0a 00                        	<unknown>
8000506a: 00 00                        	<unknown>
8000506c: 18 00                        	<unknown>
8000506e: 00 00                        	<unknown>
80005070: ac 00                        	<unknown>
80005072: 00 00                        	<unknown>
80005074: 00 d4                        	<unknown>
80005076: ff ff 08 03                  	<unknown>
8000507a: 00 00                        	<unknown>
8000507c: 00 44                        	<unknown>
8000507e: 0e 10                        	<unknown>
80005080: 4c 81                        	<unknown>
80005082: 01 88                        	<unknown>
80005084: 02 89                        	<unknown>
80005086: 03 00 14 00                  	lb	zero, 1(s0)
8000508a: 00 00                        	<unknown>
8000508c: c8 00                        	<unknown>
8000508e: 00 00                        	<unknown>
80005090: ec d6                        	<unknown>
80005092: ff ff e8 01                  	<unknown>
80005096: 00 00                        	<unknown>
80005098: 00 44                        	<unknown>
8000509a: 0e 10                        	<unknown>
8000509c: 44 81                        	<unknown>
8000509e: 01 00                        	<unknown>
800050a0: 1c 00                        	<unknown>
800050a2: 00 00                        	<unknown>
800050a4: e0 00                        	<unknown>
800050a6: 00 00                        	<unknown>
800050a8: bc d8                        	<unknown>
800050aa: ff ff cc 04                  	<unknown>
800050ae: 00 00                        	<unknown>
800050b0: 00 44                        	<unknown>
800050b2: 0e 20                        	<unknown>
800050b4: 54 81                        	<unknown>
800050b6: 01 88                        	<unknown>
800050b8: 02 89                        	<unknown>
800050ba: 03 92 04 93                  	lh	tp, -1744(s1)
800050be: 05 00                        	<unknown>
800050c0: 2c 00                        	<unknown>
800050c2: 00 00                        	<unknown>
800050c4: 00 01                        	<unknown>
800050c6: 00 00                        	<unknown>
800050c8: 68 dd                        	<unknown>
800050ca: ff ff cc 02                  	<unknown>
800050ce: 00 00                        	<unknown>
800050d0: 00 44                        	<unknown>
800050d2: 0e 90                        	<unknown>
800050d4: 01 70                        	<unknown>
800050d6: 81 01                        	<unknown>
800050d8: 88 02                        	<unknown>
800050da: 89 03                        	<unknown>
800050dc: 92 04                        	<unknown>
800050de: 93 05 94 06                  	addi	a1, s0, 105
800050e2: 95 07                        	<unknown>
800050e4: 96 08                        	<unknown>
800050e6: 97 09 98 0a                  	auipc	s3, 43392
800050ea: 99 0b                        	<unknown>
800050ec: 9a 0c                        	<unknown>
800050ee: 00 00                        	<unknown>
800050f0: 2c 00                        	<unknown>
800050f2: 00 00                        	<unknown>
800050f4: 30 01                        	<unknown>
800050f6: 00 00                        	<unknown>
800050f8: 04 e0                        	<unknown>
800050fa: ff ff 68 02                  	<unknown>
800050fe: 00 00                        	<unknown>
80005100: 00 44                        	<unknown>
80005102: 0e 40                        	<unknown>
80005104: 74 81                        	<unknown>
80005106: 01 88                        	<unknown>
80005108: 02 89                        	<unknown>
8000510a: 03 92 04 93                  	lh	tp, -1744(s1)
8000510e: 05 94                        	<unknown>
80005110: 06 95                        	<unknown>
80005112: 07 96 08 97                  	<unknown>
80005116: 09 98                        	<unknown>
80005118: 0a 99                        	<unknown>
8000511a: 0b 9a 0c 9b                  	<unknown>
8000511e: 0d 00                        	<unknown>
80005120: 2c 00                        	<unknown>
80005122: 00 00                        	<unknown>
80005124: 60 01                        	<unknown>
80005126: 00 00                        	<unknown>
80005128: 3c e2                        	<unknown>
8000512a: ff ff 70 02                  	<unknown>
8000512e: 00 00                        	<unknown>
80005130: 00 44                        	<unknown>
80005132: 0e 40                        	<unknown>
80005134: 74 81                        	<unknown>
80005136: 01 88                        	<unknown>
80005138: 02 89                        	<unknown>
8000513a: 03 92 04 93                  	lh	tp, -1744(s1)
8000513e: 05 94                        	<unknown>
80005140: 06 95                        	<unknown>
80005142: 07 96 08 97                  	<unknown>
80005146: 09 98                        	<unknown>
80005148: 0a 99                        	<unknown>
8000514a: 0b 9a 0c 9b                  	<unknown>
8000514e: 0d 00                        	<unknown>
80005150: 1c 00                        	<unknown>
80005152: 00 00                        	<unknown>
80005154: 90 01                        	<unknown>
80005156: 00 00                        	<unknown>
80005158: 7c e4                        	<unknown>
8000515a: ff ff 60 01                  	<unknown>
8000515e: 00 00                        	<unknown>
80005160: 00 44                        	<unknown>
80005162: 0e 50                        	<unknown>
80005164: 54 81                        	<unknown>
80005166: 01 88                        	<unknown>
80005168: 02 89                        	<unknown>
8000516a: 03 92 04 93                  	lh	tp, -1744(s1)
8000516e: 05 00                        	<unknown>

Disassembly of section .init_array:

80006170 __preinit_array_start:
80006170: 50 00                        	<unknown>
80006172: 00 80                        	<unknown>

Disassembly of section .data:

80006178 impure_data:
80006178: 00 00                        	<unknown>
8000617a: 00 00                        	<unknown>
8000617c: 64 64                        	<unknown>
8000617e: 00 80                        	<unknown>
80006180: cc 64                        	<unknown>
80006182: 00 80                        	<unknown>
80006184: 34 65                        	<unknown>
80006186: 00 80                        	<unknown>
		...
80006220: 01 00                        	<unknown>
80006222: 00 00                        	<unknown>
80006224: 00 00                        	<unknown>
80006226: 00 00                        	<unknown>
80006228: 0e 33                        	<unknown>
8000622a: cd ab                        	<unknown>
8000622c: 34 12                        	<unknown>
8000622e: 6d e6                        	<unknown>
80006230: ec de                        	<unknown>
80006232: 05 00                        	<unknown>
80006234: 0b 00 00 00                  	vx_tmc	zero
		...

800065a0 __malloc_av_:
		...
800065a8: a0 65                        	<unknown>
800065aa: 00 80                        	<unknown>
800065ac: a0 65                        	<unknown>
800065ae: 00 80                        	<unknown>
800065b0: a8 65                        	<unknown>
800065b2: 00 80                        	<unknown>
800065b4: a8 65                        	<unknown>
800065b6: 00 80                        	<unknown>
800065b8: b0 65                        	<unknown>
800065ba: 00 80                        	<unknown>
800065bc: b0 65                        	<unknown>
800065be: 00 80                        	<unknown>
800065c0: b8 65                        	<unknown>
800065c2: 00 80                        	<unknown>
800065c4: b8 65                        	<unknown>
800065c6: 00 80                        	<unknown>
800065c8: c0 65                        	<unknown>
800065ca: 00 80                        	<unknown>
800065cc: c0 65                        	<unknown>
800065ce: 00 80                        	<unknown>
800065d0: c8 65                        	<unknown>
800065d2: 00 80                        	<unknown>
800065d4: c8 65                        	<unknown>
800065d6: 00 80                        	<unknown>
800065d8: d0 65                        	<unknown>
800065da: 00 80                        	<unknown>
800065dc: d0 65                        	<unknown>
800065de: 00 80                        	<unknown>
800065e0: d8 65                        	<unknown>
800065e2: 00 80                        	<unknown>
800065e4: d8 65                        	<unknown>
800065e6: 00 80                        	<unknown>
800065e8: e0 65                        	<unknown>
800065ea: 00 80                        	<unknown>
800065ec: e0 65                        	<unknown>
800065ee: 00 80                        	<unknown>
800065f0: e8 65                        	<unknown>
800065f2: 00 80                        	<unknown>
800065f4: e8 65                        	<unknown>
800065f6: 00 80                        	<unknown>
800065f8: f0 65                        	<unknown>
800065fa: 00 80                        	<unknown>
800065fc: f0 65                        	<unknown>
800065fe: 00 80                        	<unknown>
80006600: f8 65                        	<unknown>
80006602: 00 80                        	<unknown>
80006604: f8 65                        	<unknown>
80006606: 00 80                        	<unknown>
80006608: 00 66                        	<unknown>
8000660a: 00 80                        	<unknown>
8000660c: 00 66                        	<unknown>
8000660e: 00 80                        	<unknown>
80006610: 08 66                        	<unknown>
80006612: 00 80                        	<unknown>
80006614: 08 66                        	<unknown>
80006616: 00 80                        	<unknown>
80006618: 10 66                        	<unknown>
8000661a: 00 80                        	<unknown>
8000661c: 10 66                        	<unknown>
8000661e: 00 80                        	<unknown>
80006620: 18 66                        	<unknown>
80006622: 00 80                        	<unknown>
80006624: 18 66                        	<unknown>
80006626: 00 80                        	<unknown>
80006628: 20 66                        	<unknown>
8000662a: 00 80                        	<unknown>
8000662c: 20 66                        	<unknown>
8000662e: 00 80                        	<unknown>
80006630: 28 66                        	<unknown>
80006632: 00 80                        	<unknown>
80006634: 28 66                        	<unknown>
80006636: 00 80                        	<unknown>
80006638: 30 66                        	<unknown>
8000663a: 00 80                        	<unknown>
8000663c: 30 66                        	<unknown>
8000663e: 00 80                        	<unknown>
80006640: 38 66                        	<unknown>
80006642: 00 80                        	<unknown>
80006644: 38 66                        	<unknown>
80006646: 00 80                        	<unknown>
80006648: 40 66                        	<unknown>
8000664a: 00 80                        	<unknown>
8000664c: 40 66                        	<unknown>
8000664e: 00 80                        	<unknown>
80006650: 48 66                        	<unknown>
80006652: 00 80                        	<unknown>
80006654: 48 66                        	<unknown>
80006656: 00 80                        	<unknown>
80006658: 50 66                        	<unknown>
8000665a: 00 80                        	<unknown>
8000665c: 50 66                        	<unknown>
8000665e: 00 80                        	<unknown>
80006660: 58 66                        	<unknown>
80006662: 00 80                        	<unknown>
80006664: 58 66                        	<unknown>
80006666: 00 80                        	<unknown>
80006668: 60 66                        	<unknown>
8000666a: 00 80                        	<unknown>
8000666c: 60 66                        	<unknown>
8000666e: 00 80                        	<unknown>
80006670: 68 66                        	<unknown>
80006672: 00 80                        	<unknown>
80006674: 68 66                        	<unknown>
80006676: 00 80                        	<unknown>
80006678: 70 66                        	<unknown>
8000667a: 00 80                        	<unknown>
8000667c: 70 66                        	<unknown>
8000667e: 00 80                        	<unknown>
80006680: 78 66                        	<unknown>
80006682: 00 80                        	<unknown>
80006684: 78 66                        	<unknown>
80006686: 00 80                        	<unknown>
80006688: 80 66                        	<unknown>
8000668a: 00 80                        	<unknown>
8000668c: 80 66                        	<unknown>
8000668e: 00 80                        	<unknown>
80006690: 88 66                        	<unknown>
80006692: 00 80                        	<unknown>
80006694: 88 66                        	<unknown>
80006696: 00 80                        	<unknown>
80006698: 90 66                        	<unknown>
8000669a: 00 80                        	<unknown>
8000669c: 90 66                        	<unknown>
8000669e: 00 80                        	<unknown>
800066a0: 98 66                        	<unknown>
800066a2: 00 80                        	<unknown>
800066a4: 98 66                        	<unknown>
800066a6: 00 80                        	<unknown>
800066a8: a0 66                        	<unknown>
800066aa: 00 80                        	<unknown>
800066ac: a0 66                        	<unknown>
800066ae: 00 80                        	<unknown>
800066b0: a8 66                        	<unknown>
800066b2: 00 80                        	<unknown>
800066b4: a8 66                        	<unknown>
800066b6: 00 80                        	<unknown>
800066b8: b0 66                        	<unknown>
800066ba: 00 80                        	<unknown>
800066bc: b0 66                        	<unknown>
800066be: 00 80                        	<unknown>
800066c0: b8 66                        	<unknown>
800066c2: 00 80                        	<unknown>
800066c4: b8 66                        	<unknown>
800066c6: 00 80                        	<unknown>
800066c8: c0 66                        	<unknown>
800066ca: 00 80                        	<unknown>
800066cc: c0 66                        	<unknown>
800066ce: 00 80                        	<unknown>
800066d0: c8 66                        	<unknown>
800066d2: 00 80                        	<unknown>
800066d4: c8 66                        	<unknown>
800066d6: 00 80                        	<unknown>
800066d8: d0 66                        	<unknown>
800066da: 00 80                        	<unknown>
800066dc: d0 66                        	<unknown>
800066de: 00 80                        	<unknown>
800066e0: d8 66                        	<unknown>
800066e2: 00 80                        	<unknown>
800066e4: d8 66                        	<unknown>
800066e6: 00 80                        	<unknown>
800066e8: e0 66                        	<unknown>
800066ea: 00 80                        	<unknown>
800066ec: e0 66                        	<unknown>
800066ee: 00 80                        	<unknown>
800066f0: e8 66                        	<unknown>
800066f2: 00 80                        	<unknown>
800066f4: e8 66                        	<unknown>
800066f6: 00 80                        	<unknown>
800066f8: f0 66                        	<unknown>
800066fa: 00 80                        	<unknown>
800066fc: f0 66                        	<unknown>
800066fe: 00 80                        	<unknown>
80006700: f8 66                        	<unknown>
80006702: 00 80                        	<unknown>
80006704: f8 66                        	<unknown>
80006706: 00 80                        	<unknown>
80006708: 00 67                        	<unknown>
8000670a: 00 80                        	<unknown>
8000670c: 00 67                        	<unknown>
8000670e: 00 80                        	<unknown>
80006710: 08 67                        	<unknown>
80006712: 00 80                        	<unknown>
80006714: 08 67                        	<unknown>
80006716: 00 80                        	<unknown>
80006718: 10 67                        	<unknown>
8000671a: 00 80                        	<unknown>
8000671c: 10 67                        	<unknown>
8000671e: 00 80                        	<unknown>
80006720: 18 67                        	<unknown>
80006722: 00 80                        	<unknown>
80006724: 18 67                        	<unknown>
80006726: 00 80                        	<unknown>
80006728: 20 67                        	<unknown>
8000672a: 00 80                        	<unknown>
8000672c: 20 67                        	<unknown>
8000672e: 00 80                        	<unknown>
80006730: 28 67                        	<unknown>
80006732: 00 80                        	<unknown>
80006734: 28 67                        	<unknown>
80006736: 00 80                        	<unknown>
80006738: 30 67                        	<unknown>
8000673a: 00 80                        	<unknown>
8000673c: 30 67                        	<unknown>
8000673e: 00 80                        	<unknown>
80006740: 38 67                        	<unknown>
80006742: 00 80                        	<unknown>
80006744: 38 67                        	<unknown>
80006746: 00 80                        	<unknown>
80006748: 40 67                        	<unknown>
8000674a: 00 80                        	<unknown>
8000674c: 40 67                        	<unknown>
8000674e: 00 80                        	<unknown>
80006750: 48 67                        	<unknown>
80006752: 00 80                        	<unknown>
80006754: 48 67                        	<unknown>
80006756: 00 80                        	<unknown>
80006758: 50 67                        	<unknown>
8000675a: 00 80                        	<unknown>
8000675c: 50 67                        	<unknown>
8000675e: 00 80                        	<unknown>
80006760: 58 67                        	<unknown>
80006762: 00 80                        	<unknown>
80006764: 58 67                        	<unknown>
80006766: 00 80                        	<unknown>
80006768: 60 67                        	<unknown>
8000676a: 00 80                        	<unknown>
8000676c: 60 67                        	<unknown>
8000676e: 00 80                        	<unknown>
80006770: 68 67                        	<unknown>
80006772: 00 80                        	<unknown>
80006774: 68 67                        	<unknown>
80006776: 00 80                        	<unknown>
80006778: 70 67                        	<unknown>
8000677a: 00 80                        	<unknown>
8000677c: 70 67                        	<unknown>
8000677e: 00 80                        	<unknown>
80006780: 78 67                        	<unknown>
80006782: 00 80                        	<unknown>
80006784: 78 67                        	<unknown>
80006786: 00 80                        	<unknown>
80006788: 80 67                        	<unknown>
8000678a: 00 80                        	<unknown>
8000678c: 80 67                        	<unknown>
8000678e: 00 80                        	<unknown>
80006790: 88 67                        	<unknown>
80006792: 00 80                        	<unknown>
80006794: 88 67                        	<unknown>
80006796: 00 80                        	<unknown>
80006798: 90 67                        	<unknown>
8000679a: 00 80                        	<unknown>
8000679c: 90 67                        	<unknown>
8000679e: 00 80                        	<unknown>
800067a0: 98 67                        	<unknown>
800067a2: 00 80                        	<unknown>
800067a4: 98 67                        	<unknown>
800067a6: 00 80                        	<unknown>
800067a8: a0 67                        	<unknown>
800067aa: 00 80                        	<unknown>
800067ac: a0 67                        	<unknown>
800067ae: 00 80                        	<unknown>
800067b0: a8 67                        	<unknown>
800067b2: 00 80                        	<unknown>
800067b4: a8 67                        	<unknown>
800067b6: 00 80                        	<unknown>
800067b8: b0 67                        	<unknown>
800067ba: 00 80                        	<unknown>
800067bc: b0 67                        	<unknown>
800067be: 00 80                        	<unknown>
800067c0: b8 67                        	<unknown>
800067c2: 00 80                        	<unknown>
800067c4: b8 67                        	<unknown>
800067c6: 00 80                        	<unknown>
800067c8: c0 67                        	<unknown>
800067ca: 00 80                        	<unknown>
800067cc: c0 67                        	<unknown>
800067ce: 00 80                        	<unknown>
800067d0: c8 67                        	<unknown>
800067d2: 00 80                        	<unknown>
800067d4: c8 67                        	<unknown>
800067d6: 00 80                        	<unknown>
800067d8: d0 67                        	<unknown>
800067da: 00 80                        	<unknown>
800067dc: d0 67                        	<unknown>
800067de: 00 80                        	<unknown>
800067e0: d8 67                        	<unknown>
800067e2: 00 80                        	<unknown>
800067e4: d8 67                        	<unknown>
800067e6: 00 80                        	<unknown>
800067e8: e0 67                        	<unknown>
800067ea: 00 80                        	<unknown>
800067ec: e0 67                        	<unknown>
800067ee: 00 80                        	<unknown>
800067f0: e8 67                        	<unknown>
800067f2: 00 80                        	<unknown>
800067f4: e8 67                        	<unknown>
800067f6: 00 80                        	<unknown>
800067f8: f0 67                        	<unknown>
800067fa: 00 80                        	<unknown>
800067fc: f0 67                        	<unknown>
800067fe: 00 80                        	<unknown>
80006800: f8 67                        	<unknown>
80006802: 00 80                        	<unknown>
80006804: f8 67                        	<unknown>
80006806: 00 80                        	<unknown>
80006808: 00 68                        	<unknown>
8000680a: 00 80                        	<unknown>
8000680c: 00 68                        	<unknown>
8000680e: 00 80                        	<unknown>
80006810: 08 68                        	<unknown>
80006812: 00 80                        	<unknown>
80006814: 08 68                        	<unknown>
80006816: 00 80                        	<unknown>
80006818: 10 68                        	<unknown>
8000681a: 00 80                        	<unknown>
8000681c: 10 68                        	<unknown>
8000681e: 00 80                        	<unknown>
80006820: 18 68                        	<unknown>
80006822: 00 80                        	<unknown>
80006824: 18 68                        	<unknown>
80006826: 00 80                        	<unknown>
80006828: 20 68                        	<unknown>
8000682a: 00 80                        	<unknown>
8000682c: 20 68                        	<unknown>
8000682e: 00 80                        	<unknown>
80006830: 28 68                        	<unknown>
80006832: 00 80                        	<unknown>
80006834: 28 68                        	<unknown>
80006836: 00 80                        	<unknown>
80006838: 30 68                        	<unknown>
8000683a: 00 80                        	<unknown>
8000683c: 30 68                        	<unknown>
8000683e: 00 80                        	<unknown>
80006840: 38 68                        	<unknown>
80006842: 00 80                        	<unknown>
80006844: 38 68                        	<unknown>
80006846: 00 80                        	<unknown>
80006848: 40 68                        	<unknown>
8000684a: 00 80                        	<unknown>
8000684c: 40 68                        	<unknown>
8000684e: 00 80                        	<unknown>
80006850: 48 68                        	<unknown>
80006852: 00 80                        	<unknown>
80006854: 48 68                        	<unknown>
80006856: 00 80                        	<unknown>
80006858: 50 68                        	<unknown>
8000685a: 00 80                        	<unknown>
8000685c: 50 68                        	<unknown>
8000685e: 00 80                        	<unknown>
80006860: 58 68                        	<unknown>
80006862: 00 80                        	<unknown>
80006864: 58 68                        	<unknown>
80006866: 00 80                        	<unknown>
80006868: 60 68                        	<unknown>
8000686a: 00 80                        	<unknown>
8000686c: 60 68                        	<unknown>
8000686e: 00 80                        	<unknown>
80006870: 68 68                        	<unknown>
80006872: 00 80                        	<unknown>
80006874: 68 68                        	<unknown>
80006876: 00 80                        	<unknown>
80006878: 70 68                        	<unknown>
8000687a: 00 80                        	<unknown>
8000687c: 70 68                        	<unknown>
8000687e: 00 80                        	<unknown>
80006880: 78 68                        	<unknown>
80006882: 00 80                        	<unknown>
80006884: 78 68                        	<unknown>
80006886: 00 80                        	<unknown>
80006888: 80 68                        	<unknown>
8000688a: 00 80                        	<unknown>
8000688c: 80 68                        	<unknown>
8000688e: 00 80                        	<unknown>
80006890: 88 68                        	<unknown>
80006892: 00 80                        	<unknown>
80006894: 88 68                        	<unknown>
80006896: 00 80                        	<unknown>
80006898: 90 68                        	<unknown>
8000689a: 00 80                        	<unknown>
8000689c: 90 68                        	<unknown>
8000689e: 00 80                        	<unknown>
800068a0: 98 68                        	<unknown>
800068a2: 00 80                        	<unknown>
800068a4: 98 68                        	<unknown>
800068a6: 00 80                        	<unknown>
800068a8: a0 68                        	<unknown>
800068aa: 00 80                        	<unknown>
800068ac: a0 68                        	<unknown>
800068ae: 00 80                        	<unknown>
800068b0: a8 68                        	<unknown>
800068b2: 00 80                        	<unknown>
800068b4: a8 68                        	<unknown>
800068b6: 00 80                        	<unknown>
800068b8: b0 68                        	<unknown>
800068ba: 00 80                        	<unknown>
800068bc: b0 68                        	<unknown>
800068be: 00 80                        	<unknown>
800068c0: b8 68                        	<unknown>
800068c2: 00 80                        	<unknown>
800068c4: b8 68                        	<unknown>
800068c6: 00 80                        	<unknown>
800068c8: c0 68                        	<unknown>
800068ca: 00 80                        	<unknown>
800068cc: c0 68                        	<unknown>
800068ce: 00 80                        	<unknown>
800068d0: c8 68                        	<unknown>
800068d2: 00 80                        	<unknown>
800068d4: c8 68                        	<unknown>
800068d6: 00 80                        	<unknown>
800068d8: d0 68                        	<unknown>
800068da: 00 80                        	<unknown>
800068dc: d0 68                        	<unknown>
800068de: 00 80                        	<unknown>
800068e0: d8 68                        	<unknown>
800068e2: 00 80                        	<unknown>
800068e4: d8 68                        	<unknown>
800068e6: 00 80                        	<unknown>
800068e8: e0 68                        	<unknown>
800068ea: 00 80                        	<unknown>
800068ec: e0 68                        	<unknown>
800068ee: 00 80                        	<unknown>
800068f0: e8 68                        	<unknown>
800068f2: 00 80                        	<unknown>
800068f4: e8 68                        	<unknown>
800068f6: 00 80                        	<unknown>
800068f8: f0 68                        	<unknown>
800068fa: 00 80                        	<unknown>
800068fc: f0 68                        	<unknown>
800068fe: 00 80                        	<unknown>
80006900: f8 68                        	<unknown>
80006902: 00 80                        	<unknown>
80006904: f8 68                        	<unknown>
80006906: 00 80                        	<unknown>
80006908: 00 69                        	<unknown>
8000690a: 00 80                        	<unknown>
8000690c: 00 69                        	<unknown>
8000690e: 00 80                        	<unknown>
80006910: 08 69                        	<unknown>
80006912: 00 80                        	<unknown>
80006914: 08 69                        	<unknown>
80006916: 00 80                        	<unknown>
80006918: 10 69                        	<unknown>
8000691a: 00 80                        	<unknown>
8000691c: 10 69                        	<unknown>
8000691e: 00 80                        	<unknown>
80006920: 18 69                        	<unknown>
80006922: 00 80                        	<unknown>
80006924: 18 69                        	<unknown>
80006926: 00 80                        	<unknown>
80006928: 20 69                        	<unknown>
8000692a: 00 80                        	<unknown>
8000692c: 20 69                        	<unknown>
8000692e: 00 80                        	<unknown>
80006930: 28 69                        	<unknown>
80006932: 00 80                        	<unknown>
80006934: 28 69                        	<unknown>
80006936: 00 80                        	<unknown>
80006938: 30 69                        	<unknown>
8000693a: 00 80                        	<unknown>
8000693c: 30 69                        	<unknown>
8000693e: 00 80                        	<unknown>
80006940: 38 69                        	<unknown>
80006942: 00 80                        	<unknown>
80006944: 38 69                        	<unknown>
80006946: 00 80                        	<unknown>
80006948: 40 69                        	<unknown>
8000694a: 00 80                        	<unknown>
8000694c: 40 69                        	<unknown>
8000694e: 00 80                        	<unknown>
80006950: 48 69                        	<unknown>
80006952: 00 80                        	<unknown>
80006954: 48 69                        	<unknown>
80006956: 00 80                        	<unknown>
80006958: 50 69                        	<unknown>
8000695a: 00 80                        	<unknown>
8000695c: 50 69                        	<unknown>
8000695e: 00 80                        	<unknown>
80006960: 58 69                        	<unknown>
80006962: 00 80                        	<unknown>
80006964: 58 69                        	<unknown>
80006966: 00 80                        	<unknown>
80006968: 60 69                        	<unknown>
8000696a: 00 80                        	<unknown>
8000696c: 60 69                        	<unknown>
8000696e: 00 80                        	<unknown>
80006970: 68 69                        	<unknown>
80006972: 00 80                        	<unknown>
80006974: 68 69                        	<unknown>
80006976: 00 80                        	<unknown>
80006978: 70 69                        	<unknown>
8000697a: 00 80                        	<unknown>
8000697c: 70 69                        	<unknown>
8000697e: 00 80                        	<unknown>
80006980: 78 69                        	<unknown>
80006982: 00 80                        	<unknown>
80006984: 78 69                        	<unknown>
80006986: 00 80                        	<unknown>
80006988: 80 69                        	<unknown>
8000698a: 00 80                        	<unknown>
8000698c: 80 69                        	<unknown>
8000698e: 00 80                        	<unknown>
80006990: 88 69                        	<unknown>
80006992: 00 80                        	<unknown>
80006994: 88 69                        	<unknown>
80006996: 00 80                        	<unknown>
80006998: 90 69                        	<unknown>
8000699a: 00 80                        	<unknown>
8000699c: 90 69                        	<unknown>
8000699e: 00 80                        	<unknown>
800069a0: 98 69                        	<unknown>
800069a2: 00 80                        	<unknown>
800069a4: 98 69                        	<unknown>
800069a6: 00 80                        	<unknown>

Disassembly of section .sdata:

800069a8 _global_impure_ptr:
800069a8: 78 61                        	<unknown>
800069aa: 00 80                        	<unknown>
800069ac: 00 00                        	<unknown>
800069ae: 80 37                        	<unknown>
800069b0: 00 00                        	<unknown>
800069b2: 80 3f                        	<unknown>
800069b4: 00 00                        	<unknown>
800069b6: 80 4b                        	<unknown>
800069b8: 00 00                        	<unknown>
800069ba: 80 37                        	<unknown>
800069bc: 00 00                        	<unknown>
800069be: 80 3f                        	<unknown>
800069c0: 00 00                        	<unknown>
800069c2: 80 4b                        	<unknown>

800069c4 _impure_ptr:
800069c4: 78 61                        	<unknown>
800069c6: 00 80                        	<unknown>

800069c8 __malloc_sbrk_base:
800069c8: ff ff ff ff                  	<unknown>

800069cc __malloc_trim_threshold:
800069cc: 00 00                        	<unknown>
800069ce: 02 00                        	<unknown>

Disassembly of section .sbss:

800069d0 __malloc_max_total_mem:
...

800069d4 __malloc_max_sbrked_mem:
...

800069d8 __malloc_top_pad:
...

Disassembly of section .bss:

800069dc __malloc_current_mallinfo:
...

80006a04 g_wspawn_args:
...

80006a84 errno:
...

Disassembly of section .comment:

00000000 .comment:
       0: 63 6c 61 6e                  	bltu	sp, t1, 1784
       4: 67 20 76 65                  	<unknown>
       8: 72 73                        	<unknown>
       a: 69 6f                        	<unknown>
       c: 6e 20                        	<unknown>
       e: 31 30                        	<unknown>
      10: 2e 30                        	<unknown>
      12: 2e 31                        	<unknown>
      14: 20 28                        	<unknown>
      16: 68 74                        	<unknown>
      18: 74 70                        	<unknown>
      1a: 73 3a 2f 2f                  	csrrc	s4, 754, t5
      1e: 67 69 74 68                  	<unknown>
      22: 75 62                        	<unknown>
      24: 2e 63                        	<unknown>
      26: 6f 6d 2f 6c                  	jal	s10, 1009346
      2a: 6c 76                        	<unknown>
      2c: 6d 2f                        	<unknown>
      2e: 6c 6c                        	<unknown>
      30: 76 6d                        	<unknown>
      32: 2d 70                        	<unknown>
      34: 72 6f                        	<unknown>
      36: 6a 65                        	<unknown>
      38: 63 74 2e 67                  	bgeu	t3, s2, 1640
      3c: 69 74                        	<unknown>
      3e: 20 31                        	<unknown>
      40: 30 65                        	<unknown>
      42: 63 63 34 64                  	bltu	s0, gp, 1606
      46: 30 32                        	<unknown>
      48: 66 61                        	<unknown>
      4a: 34 37                        	<unknown>
      4c: 39 38                        	<unknown>
      4e: 36 33                        	<unknown>
      50: 33 38 61 31                  	<unknown>
      54: 62 61                        	<unknown>
      56: 65 33                        	<unknown>
      58: 64 39                        	<unknown>
      5a: 34 30                        	<unknown>
      5c: 33 66 39 65                  	<unknown>
      60: 32 62                        	<unknown>
      62: 30 61                        	<unknown>
      64: 39 65                        	<unknown>
      66: 62 29                        	<unknown>
      68: 00 47                        	<unknown>
      6a: 43 43 3a 20                  	<unknown>
      6e: 28 47                        	<unknown>
      70: 4e 55                        	<unknown>
      72: 29 20                        	<unknown>
      74: 39 2e                        	<unknown>
      76: 32 2e                        	<unknown>
      78: 30 00                        	<unknown>

Disassembly of section .riscv.attributes:

00000000 .riscv.attributes:
       0: 41 25                        	<unknown>
       2: 00 00                        	<unknown>
       4: 00 72                        	<unknown>
       6: 69 73                        	<unknown>
       8: 63 76 00 01                  	bgeu	zero, a6, 12
       c: 1b 00 00 00                  	<unknown>
      10: 04 10                        	<unknown>
      12: 05 72                        	<unknown>
      14: 76 33                        	<unknown>
      16: 32 69                        	<unknown>
      18: 32 70                        	<unknown>
      1a: 30 5f                        	<unknown>
      1c: 6d 32                        	<unknown>
      1e: 70 30                        	<unknown>
      20: 5f 66 32 70                  	<unknown>
      24: 30 00                        	<unknown>

Disassembly of section .symtab:

00000000 .symtab:
		...
      14: 00 00                        	<unknown>
      16: 00 80                        	<unknown>
      18: 00 00                        	<unknown>
      1a: 00 00                        	<unknown>
      1c: 03 00 01 00                  	lb	zero, 0(sp)
      20: 00 00                        	<unknown>
      22: 00 00                        	<unknown>
      24: 50 00                        	<unknown>
      26: 00 80                        	<unknown>
      28: 00 00                        	<unknown>
      2a: 00 00                        	<unknown>
      2c: 03 00 02 00                  	lb	zero, 0(tp)
      30: 00 00                        	<unknown>
      32: 00 00                        	<unknown>
      34: c4 4f                        	<unknown>
      36: 00 80                        	<unknown>
      38: 00 00                        	<unknown>
      3a: 00 00                        	<unknown>
      3c: 03 00 03 00                  	lb	zero, 0(t1)
      40: 00 00                        	<unknown>
      42: 00 00                        	<unknown>
      44: 70 61                        	<unknown>
      46: 00 80                        	<unknown>
      48: 00 00                        	<unknown>
      4a: 00 00                        	<unknown>
      4c: 03 00 04 00                  	lb	zero, 0(s0)
      50: 00 00                        	<unknown>
      52: 00 00                        	<unknown>
      54: 78 61                        	<unknown>
      56: 00 80                        	<unknown>
      58: 00 00                        	<unknown>
      5a: 00 00                        	<unknown>
      5c: 03 00 05 00                  	lb	zero, 0(a0)
      60: 00 00                        	<unknown>
      62: 00 00                        	<unknown>
      64: a8 69                        	<unknown>
      66: 00 80                        	<unknown>
      68: 00 00                        	<unknown>
      6a: 00 00                        	<unknown>
      6c: 03 00 06 00                  	lb	zero, 0(a2)
      70: 00 00                        	<unknown>
      72: 00 00                        	<unknown>
      74: d0 69                        	<unknown>
      76: 00 80                        	<unknown>
      78: 00 00                        	<unknown>
      7a: 00 00                        	<unknown>
      7c: 03 00 07 00                  	lb	zero, 0(a4)
      80: 00 00                        	<unknown>
      82: 00 00                        	<unknown>
      84: dc 69                        	<unknown>
      86: 00 80                        	<unknown>
      88: 00 00                        	<unknown>
      8a: 00 00                        	<unknown>
      8c: 03 00 08 00                  	lb	zero, 0(a6)
		...
      9c: 03 00 09 00                  	lb	zero, 0(s2)
		...
      ac: 03 00 0a 00                  	lb	zero, 0(s4)
      b0: 01 00                        	<unknown>
		...
      ba: 00 00                        	<unknown>
      bc: 04 00                        	<unknown>
      be: f1 ff                        	<unknown>
      c0: 0e 00                        	<unknown>
      c2: 00 00                        	<unknown>
      c4: 74 37                        	<unknown>
      c6: 00 80                        	<unknown>
      c8: 00 00                        	<unknown>
      ca: 00 00                        	<unknown>
      cc: 00 00                        	<unknown>
      ce: 02 00                        	<unknown>
      d0: 15 00                        	<unknown>
		...
      da: 00 00                        	<unknown>
      dc: 04 00                        	<unknown>
      de: f1 ff                        	<unknown>
      e0: 25 00                        	<unknown>
      e2: 00 00                        	<unknown>
      e4: 50 00                        	<unknown>
      e6: 00 80                        	<unknown>
      e8: 18 00                        	<unknown>
      ea: 00 00                        	<unknown>
      ec: 02 00                        	<unknown>
      ee: 02 00                        	<unknown>
      f0: 33 00 00 00                  	add	zero, zero, zero
		...
      fc: 04 00                        	<unknown>
      fe: f1 ff                        	<unknown>
     100: 00 00                        	<unknown>
     102: 00 00                        	<unknown>
     104: 68 00                        	<unknown>
     106: 00 80                        	<unknown>
     108: 00 00                        	<unknown>
     10a: 00 00                        	<unknown>
     10c: 00 00                        	<unknown>
     10e: 02 00                        	<unknown>
     110: 00 00                        	<unknown>
     112: 00 00                        	<unknown>
     114: 6c 00                        	<unknown>
     116: 00 80                        	<unknown>
     118: 00 00                        	<unknown>
     11a: 00 00                        	<unknown>
     11c: 00 00                        	<unknown>
     11e: 02 00                        	<unknown>
     120: 00 00                        	<unknown>
     122: 00 00                        	<unknown>
     124: ac 00                        	<unknown>
     126: 00 80                        	<unknown>
     128: 00 00                        	<unknown>
     12a: 00 00                        	<unknown>
     12c: 00 00                        	<unknown>
     12e: 02 00                        	<unknown>
     130: 00 00                        	<unknown>
     132: 00 00                        	<unknown>
     134: a4 11                        	<unknown>
     136: 00 80                        	<unknown>
     138: 00 00                        	<unknown>
     13a: 00 00                        	<unknown>
     13c: 00 00                        	<unknown>
     13e: 02 00                        	<unknown>
     140: 00 00                        	<unknown>
     142: 00 00                        	<unknown>
     144: 6c 20                        	<unknown>
     146: 00 80                        	<unknown>
     148: 00 00                        	<unknown>
     14a: 00 00                        	<unknown>
     14c: 00 00                        	<unknown>
     14e: 02 00                        	<unknown>
     150: 00 00                        	<unknown>
     152: 00 00                        	<unknown>
     154: 80 20                        	<unknown>
     156: 00 80                        	<unknown>
     158: 00 00                        	<unknown>
     15a: 00 00                        	<unknown>
     15c: 00 00                        	<unknown>
     15e: 02 00                        	<unknown>
     160: 00 00                        	<unknown>
     162: 00 00                        	<unknown>
     164: 80 20                        	<unknown>
     166: 00 80                        	<unknown>
     168: 00 00                        	<unknown>
     16a: 00 00                        	<unknown>
     16c: 00 00                        	<unknown>
     16e: 02 00                        	<unknown>
     170: 00 00                        	<unknown>
     172: 00 00                        	<unknown>
     174: 84 20                        	<unknown>
     176: 00 80                        	<unknown>
     178: 00 00                        	<unknown>
     17a: 00 00                        	<unknown>
     17c: 00 00                        	<unknown>
     17e: 02 00                        	<unknown>
     180: 00 00                        	<unknown>
     182: 00 00                        	<unknown>
     184: 90 20                        	<unknown>
     186: 00 80                        	<unknown>
     188: 00 00                        	<unknown>
     18a: 00 00                        	<unknown>
     18c: 00 00                        	<unknown>
     18e: 02 00                        	<unknown>
     190: 00 00                        	<unknown>
     192: 00 00                        	<unknown>
     194: b0 22                        	<unknown>
     196: 00 80                        	<unknown>
     198: 00 00                        	<unknown>
     19a: 00 00                        	<unknown>
     19c: 00 00                        	<unknown>
     19e: 02 00                        	<unknown>
     1a0: 00 00                        	<unknown>
     1a2: 00 00                        	<unknown>
     1a4: b0 22                        	<unknown>
     1a6: 00 80                        	<unknown>
     1a8: 00 00                        	<unknown>
     1aa: 00 00                        	<unknown>
     1ac: 00 00                        	<unknown>
     1ae: 02 00                        	<unknown>
     1b0: 00 00                        	<unknown>
     1b2: 00 00                        	<unknown>
     1b4: b4 22                        	<unknown>
     1b6: 00 80                        	<unknown>
     1b8: 00 00                        	<unknown>
     1ba: 00 00                        	<unknown>
     1bc: 00 00                        	<unknown>
     1be: 02 00                        	<unknown>
     1c0: 00 00                        	<unknown>
     1c2: 00 00                        	<unknown>
     1c4: dc 22                        	<unknown>
     1c6: 00 80                        	<unknown>
     1c8: 00 00                        	<unknown>
     1ca: 00 00                        	<unknown>
     1cc: 00 00                        	<unknown>
     1ce: 02 00                        	<unknown>
     1d0: 00 00                        	<unknown>
     1d2: 00 00                        	<unknown>
     1d4: 74 24                        	<unknown>
     1d6: 00 80                        	<unknown>
     1d8: 00 00                        	<unknown>
     1da: 00 00                        	<unknown>
     1dc: 00 00                        	<unknown>
     1de: 02 00                        	<unknown>
     1e0: 00 00                        	<unknown>
     1e2: 00 00                        	<unknown>
     1e4: 74 24                        	<unknown>
     1e6: 00 80                        	<unknown>
     1e8: 00 00                        	<unknown>
     1ea: 00 00                        	<unknown>
     1ec: 00 00                        	<unknown>
     1ee: 02 00                        	<unknown>
     1f0: 00 00                        	<unknown>
     1f2: 00 00                        	<unknown>
     1f4: 78 24                        	<unknown>
     1f6: 00 80                        	<unknown>
     1f8: 00 00                        	<unknown>
     1fa: 00 00                        	<unknown>
     1fc: 00 00                        	<unknown>
     1fe: 02 00                        	<unknown>
     200: 00 00                        	<unknown>
     202: 00 00                        	<unknown>
     204: 84 24                        	<unknown>
     206: 00 80                        	<unknown>
     208: 00 00                        	<unknown>
     20a: 00 00                        	<unknown>
     20c: 00 00                        	<unknown>
     20e: 02 00                        	<unknown>
     210: 00 00                        	<unknown>
     212: 00 00                        	<unknown>
     214: 7c 27                        	<unknown>
     216: 00 80                        	<unknown>
     218: 00 00                        	<unknown>
     21a: 00 00                        	<unknown>
     21c: 00 00                        	<unknown>
     21e: 02 00                        	<unknown>
     220: 00 00                        	<unknown>
     222: 00 00                        	<unknown>
     224: 7c 27                        	<unknown>
     226: 00 80                        	<unknown>
     228: 00 00                        	<unknown>
     22a: 00 00                        	<unknown>
     22c: 00 00                        	<unknown>
     22e: 02 00                        	<unknown>
     230: 00 00                        	<unknown>
     232: 00 00                        	<unknown>
     234: 80 27                        	<unknown>
     236: 00 80                        	<unknown>
     238: 00 00                        	<unknown>
     23a: 00 00                        	<unknown>
     23c: 00 00                        	<unknown>
     23e: 02 00                        	<unknown>
     240: 00 00                        	<unknown>
     242: 00 00                        	<unknown>
     244: 84 27                        	<unknown>
     246: 00 80                        	<unknown>
     248: 00 00                        	<unknown>
     24a: 00 00                        	<unknown>
     24c: 00 00                        	<unknown>
     24e: 02 00                        	<unknown>
     250: 00 00                        	<unknown>
     252: 00 00                        	<unknown>
     254: 64 29                        	<unknown>
     256: 00 80                        	<unknown>
     258: 00 00                        	<unknown>
     25a: 00 00                        	<unknown>
     25c: 00 00                        	<unknown>
     25e: 02 00                        	<unknown>
     260: 00 00                        	<unknown>
     262: 00 00                        	<unknown>
     264: 64 29                        	<unknown>
     266: 00 80                        	<unknown>
     268: 00 00                        	<unknown>
     26a: 00 00                        	<unknown>
     26c: 00 00                        	<unknown>
     26e: 02 00                        	<unknown>
     270: 00 00                        	<unknown>
     272: 00 00                        	<unknown>
     274: 68 29                        	<unknown>
     276: 00 80                        	<unknown>
     278: 00 00                        	<unknown>
     27a: 00 00                        	<unknown>
     27c: 00 00                        	<unknown>
     27e: 02 00                        	<unknown>
     280: 00 00                        	<unknown>
     282: 00 00                        	<unknown>
     284: 7c 29                        	<unknown>
     286: 00 80                        	<unknown>
     288: 00 00                        	<unknown>
     28a: 00 00                        	<unknown>
     28c: 00 00                        	<unknown>
     28e: 02 00                        	<unknown>
     290: 00 00                        	<unknown>
     292: 00 00                        	<unknown>
     294: 30 2e                        	<unknown>
     296: 00 80                        	<unknown>
     298: 00 00                        	<unknown>
     29a: 00 00                        	<unknown>
     29c: 00 00                        	<unknown>
     29e: 02 00                        	<unknown>
     2a0: 00 00                        	<unknown>
     2a2: 00 00                        	<unknown>
     2a4: 30 2e                        	<unknown>
     2a6: 00 80                        	<unknown>
     2a8: 00 00                        	<unknown>
     2aa: 00 00                        	<unknown>
     2ac: 00 00                        	<unknown>
     2ae: 02 00                        	<unknown>
     2b0: 00 00                        	<unknown>
     2b2: 00 00                        	<unknown>
     2b4: 34 2e                        	<unknown>
     2b6: 00 80                        	<unknown>
     2b8: 00 00                        	<unknown>
     2ba: 00 00                        	<unknown>
     2bc: 00 00                        	<unknown>
     2be: 02 00                        	<unknown>
     2c0: 00 00                        	<unknown>
     2c2: 00 00                        	<unknown>
     2c4: 64 2e                        	<unknown>
     2c6: 00 80                        	<unknown>
     2c8: 00 00                        	<unknown>
     2ca: 00 00                        	<unknown>
     2cc: 00 00                        	<unknown>
     2ce: 02 00                        	<unknown>
     2d0: 00 00                        	<unknown>
     2d2: 00 00                        	<unknown>
     2d4: fc 30                        	<unknown>
     2d6: 00 80                        	<unknown>
     2d8: 00 00                        	<unknown>
     2da: 00 00                        	<unknown>
     2dc: 00 00                        	<unknown>
     2de: 02 00                        	<unknown>
     2e0: 00 00                        	<unknown>
     2e2: 00 00                        	<unknown>
     2e4: fc 30                        	<unknown>
     2e6: 00 80                        	<unknown>
     2e8: 00 00                        	<unknown>
     2ea: 00 00                        	<unknown>
     2ec: 00 00                        	<unknown>
     2ee: 02 00                        	<unknown>
     2f0: 00 00                        	<unknown>
     2f2: 00 00                        	<unknown>
     2f4: 00 31                        	<unknown>
     2f6: 00 80                        	<unknown>
     2f8: 00 00                        	<unknown>
     2fa: 00 00                        	<unknown>
     2fc: 00 00                        	<unknown>
     2fe: 02 00                        	<unknown>
     300: 00 00                        	<unknown>
     302: 00 00                        	<unknown>
     304: 34 31                        	<unknown>
     306: 00 80                        	<unknown>
     308: 00 00                        	<unknown>
     30a: 00 00                        	<unknown>
     30c: 00 00                        	<unknown>
     30e: 02 00                        	<unknown>
     310: 00 00                        	<unknown>
     312: 00 00                        	<unknown>
     314: 64 33                        	<unknown>
     316: 00 80                        	<unknown>
     318: 00 00                        	<unknown>
     31a: 00 00                        	<unknown>
     31c: 00 00                        	<unknown>
     31e: 02 00                        	<unknown>
     320: 00 00                        	<unknown>
     322: 00 00                        	<unknown>
     324: 64 33                        	<unknown>
     326: 00 80                        	<unknown>
     328: 00 00                        	<unknown>
     32a: 00 00                        	<unknown>
     32c: 00 00                        	<unknown>
     32e: 02 00                        	<unknown>
     330: 00 00                        	<unknown>
     332: 00 00                        	<unknown>
     334: 68 33                        	<unknown>
     336: 00 80                        	<unknown>
     338: 00 00                        	<unknown>
     33a: 00 00                        	<unknown>
     33c: 00 00                        	<unknown>
     33e: 02 00                        	<unknown>
     340: 00 00                        	<unknown>
     342: 00 00                        	<unknown>
     344: 9c 33                        	<unknown>
     346: 00 80                        	<unknown>
     348: 00 00                        	<unknown>
     34a: 00 00                        	<unknown>
     34c: 00 00                        	<unknown>
     34e: 02 00                        	<unknown>
     350: 00 00                        	<unknown>
     352: 00 00                        	<unknown>
     354: d4 35                        	<unknown>
     356: 00 80                        	<unknown>
     358: 00 00                        	<unknown>
     35a: 00 00                        	<unknown>
     35c: 00 00                        	<unknown>
     35e: 02 00                        	<unknown>
     360: 00 00                        	<unknown>
     362: 00 00                        	<unknown>
     364: d4 35                        	<unknown>
     366: 00 80                        	<unknown>
     368: 00 00                        	<unknown>
     36a: 00 00                        	<unknown>
     36c: 00 00                        	<unknown>
     36e: 02 00                        	<unknown>
     370: 00 00                        	<unknown>
     372: 00 00                        	<unknown>
     374: d8 35                        	<unknown>
     376: 00 80                        	<unknown>
     378: 00 00                        	<unknown>
     37a: 00 00                        	<unknown>
     37c: 00 00                        	<unknown>
     37e: 02 00                        	<unknown>
     380: 00 00                        	<unknown>
     382: 00 00                        	<unknown>
     384: ec 35                        	<unknown>
     386: 00 80                        	<unknown>
     388: 00 00                        	<unknown>
     38a: 00 00                        	<unknown>
     38c: 00 00                        	<unknown>
     38e: 02 00                        	<unknown>
     390: 00 00                        	<unknown>
     392: 00 00                        	<unknown>
     394: 34 37                        	<unknown>
     396: 00 80                        	<unknown>
     398: 00 00                        	<unknown>
     39a: 00 00                        	<unknown>
     39c: 00 00                        	<unknown>
     39e: 02 00                        	<unknown>
     3a0: 3e 00                        	<unknown>
     3a2: 00 00                        	<unknown>
     3a4: 0a 00                        	<unknown>
		...
     3ae: f1 ff                        	<unknown>
     3b0: 45 00                        	<unknown>
     3b2: 00 00                        	<unknown>
     3b4: 0b 00 00 00                  	vx_tmc	zero
     3b8: 00 00                        	<unknown>
     3ba: 00 00                        	<unknown>
     3bc: 00 00                        	<unknown>
     3be: f1 ff                        	<unknown>
     3c0: 4c 00                        	<unknown>
     3c2: 00 00                        	<unknown>
     3c4: 0c 00                        	<unknown>
		...
     3ce: f1 ff                        	<unknown>
     3d0: 53 00 00 00                  	<unknown>
     3d4: 0d 00                        	<unknown>
		...
     3de: f1 ff                        	<unknown>
     3e0: 5a 00                        	<unknown>
     3e2: 00 00                        	<unknown>
     3e4: 0e 00                        	<unknown>
		...
     3ee: f1 ff                        	<unknown>
     3f0: 61 00                        	<unknown>
     3f2: 00 00                        	<unknown>
     3f4: 0f 00 00 00                  	fence	unknown, unknown
     3f8: 00 00                        	<unknown>
     3fa: 00 00                        	<unknown>
     3fc: 00 00                        	<unknown>
     3fe: f1 ff                        	<unknown>
     400: 68 00                        	<unknown>
     402: 00 00                        	<unknown>
     404: 10 00                        	<unknown>
		...
     40e: f1 ff                        	<unknown>
     410: 6f 00 00 00                  	j	0
     414: 11 00                        	<unknown>
		...
     41e: f1 ff                        	<unknown>
     420: 76 00                        	<unknown>
     422: 00 00                        	<unknown>
     424: 03 00 00 00                  	lb	zero, 0(zero)
     428: 00 00                        	<unknown>
     42a: 00 00                        	<unknown>
     42c: 00 00                        	<unknown>
     42e: f1 ff                        	<unknown>
     430: 7d 00                        	<unknown>
     432: 00 00                        	<unknown>
     434: 01 00                        	<unknown>
		...
     43e: f1 ff                        	<unknown>
     440: 84 00                        	<unknown>
     442: 00 00                        	<unknown>
     444: 08 00                        	<unknown>
		...
     44e: f1 ff                        	<unknown>
     450: 8b 00 00 00                  	<unknown>
     454: 09 00                        	<unknown>
		...
     45e: f1 ff                        	<unknown>
     460: 92 00                        	<unknown>
     462: 00 00                        	<unknown>
     464: 1a 00                        	<unknown>
		...
     46e: f1 ff                        	<unknown>
     470: 9a 00                        	<unknown>
     472: 00 00                        	<unknown>
     474: 1b 00 00 00                  	<unknown>
     478: 00 00                        	<unknown>
     47a: 00 00                        	<unknown>
     47c: 00 00                        	<unknown>
     47e: f1 ff                        	<unknown>
     480: a2 00                        	<unknown>
     482: 00 00                        	<unknown>
     484: 12 00                        	<unknown>
		...
     48e: f1 ff                        	<unknown>
     490: a9 00                        	<unknown>
     492: 00 00                        	<unknown>
     494: 13 00 00 00                  	nop
     498: 00 00                        	<unknown>
     49a: 00 00                        	<unknown>
     49c: 00 00                        	<unknown>
     49e: f1 ff                        	<unknown>
     4a0: b0 00                        	<unknown>
     4a2: 00 00                        	<unknown>
     4a4: 14 00                        	<unknown>
		...
     4ae: f1 ff                        	<unknown>
     4b0: b7 00 00 00                  	lui	ra, 0
     4b4: 15 00                        	<unknown>
		...
     4be: f1 ff                        	<unknown>
     4c0: be 00                        	<unknown>
     4c2: 00 00                        	<unknown>
     4c4: 16 00                        	<unknown>
		...
     4ce: f1 ff                        	<unknown>
     4d0: c5 00                        	<unknown>
     4d2: 00 00                        	<unknown>
     4d4: 17 00 00 00                  	auipc	zero, 0
     4d8: 00 00                        	<unknown>
     4da: 00 00                        	<unknown>
     4dc: 00 00                        	<unknown>
     4de: f1 ff                        	<unknown>
     4e0: cc 00                        	<unknown>
     4e2: 00 00                        	<unknown>
     4e4: 18 00                        	<unknown>
		...
     4ee: f1 ff                        	<unknown>
     4f0: d3 00 00 00                  	<unknown>
     4f4: 19 00                        	<unknown>
		...
     4fe: f1 ff                        	<unknown>
     500: da 00                        	<unknown>
     502: 00 00                        	<unknown>
     504: 02 00                        	<unknown>
		...
     50e: f1 ff                        	<unknown>
     510: e1 00                        	<unknown>
     512: 00 00                        	<unknown>
     514: 05 00                        	<unknown>
		...
     51e: f1 ff                        	<unknown>
     520: e8 00                        	<unknown>
     522: 00 00                        	<unknown>
     524: 06 00                        	<unknown>
		...
     52e: f1 ff                        	<unknown>
     530: ef 00 00 00                  	jal	0
     534: 07 00 00 00                  	<unknown>
     538: 00 00                        	<unknown>
     53a: 00 00                        	<unknown>
     53c: 00 00                        	<unknown>
     53e: f1 ff                        	<unknown>
     540: f6 00                        	<unknown>
     542: 00 00                        	<unknown>
     544: 1c 00                        	<unknown>
		...
     54e: f1 ff                        	<unknown>
     550: fd 00                        	<unknown>
     552: 00 00                        	<unknown>
     554: 1d 00                        	<unknown>
		...
     55e: f1 ff                        	<unknown>
     560: 04 01                        	<unknown>
     562: 00 00                        	<unknown>
     564: 1e 00                        	<unknown>
		...
     56e: f1 ff                        	<unknown>
     570: 0b 01 00 00                  	<unknown>
     574: 1f 00 00 00                  	<unknown>
     578: 00 00                        	<unknown>
     57a: 00 00                        	<unknown>
     57c: 00 00                        	<unknown>
     57e: f1 ff                        	<unknown>
     580: 12 01                        	<unknown>
     582: 00 00                        	<unknown>
     584: 04 00                        	<unknown>
		...
     58e: f1 ff                        	<unknown>
     590: 19 01                        	<unknown>
		...
     59e: f1 ff                        	<unknown>
     5a0: 20 01                        	<unknown>
     5a2: 00 00                        	<unknown>
     5a4: 01 00                        	<unknown>
		...
     5ae: f1 ff                        	<unknown>
     5b0: 27 01 00 00                  	<unknown>
     5b4: 0a 00                        	<unknown>
		...
     5be: f1 ff                        	<unknown>
     5c0: 2f 01 00 00                  	<unknown>
     5c4: 0b 00 00 00                  	vx_tmc	zero
     5c8: 00 00                        	<unknown>
     5ca: 00 00                        	<unknown>
     5cc: 00 00                        	<unknown>
     5ce: f1 ff                        	<unknown>
     5d0: 37 01 00 00                  	lui	sp, 0
     5d4: 0c 00                        	<unknown>
		...
     5de: f1 ff                        	<unknown>
     5e0: 3f 01 00 00                  	<unknown>
     5e4: 0d 00                        	<unknown>
		...
     5ee: f1 ff                        	<unknown>
     5f0: 47 01 00 00                  	<unknown>
     5f4: 0e 00                        	<unknown>
		...
     5fe: f1 ff                        	<unknown>
     600: 4f 01 00 00                  	<unknown>
     604: 0f 00 00 00                  	fence	unknown, unknown
     608: 00 00                        	<unknown>
     60a: 00 00                        	<unknown>
     60c: 00 00                        	<unknown>
     60e: f1 ff                        	<unknown>
     610: 57 01 00 00                  	<unknown>
     614: 10 00                        	<unknown>
		...
     61e: f1 ff                        	<unknown>
     620: 5f 01 00 00                  	<unknown>
     624: 11 00                        	<unknown>
		...
     62e: f1 ff                        	<unknown>
     630: 67 01 00 00                  	jalr	sp, zero
     634: 12 00                        	<unknown>
		...
     63e: f1 ff                        	<unknown>
     640: 6f 01 00 00                  	jal	sp, 0
     644: 13 00 00 00                  	nop
     648: 00 00                        	<unknown>
     64a: 00 00                        	<unknown>
     64c: 00 00                        	<unknown>
     64e: f1 ff                        	<unknown>
     650: 77 01 00 00                  	<unknown>
     654: 02 00                        	<unknown>
		...
     65e: f1 ff                        	<unknown>
     660: 7e 01                        	<unknown>
     662: 00 00                        	<unknown>
     664: 14 00                        	<unknown>
		...
     66e: f1 ff                        	<unknown>
     670: 86 01                        	<unknown>
     672: 00 00                        	<unknown>
     674: 15 00                        	<unknown>
		...
     67e: f1 ff                        	<unknown>
     680: 8e 01                        	<unknown>
     682: 00 00                        	<unknown>
     684: 16 00                        	<unknown>
		...
     68e: f1 ff                        	<unknown>
     690: 96 01                        	<unknown>
     692: 00 00                        	<unknown>
     694: 17 00 00 00                  	auipc	zero, 0
     698: 00 00                        	<unknown>
     69a: 00 00                        	<unknown>
     69c: 00 00                        	<unknown>
     69e: f1 ff                        	<unknown>
     6a0: 9e 01                        	<unknown>
     6a2: 00 00                        	<unknown>
     6a4: 18 00                        	<unknown>
		...
     6ae: f1 ff                        	<unknown>
     6b0: a6 01                        	<unknown>
     6b2: 00 00                        	<unknown>
     6b4: 19 00                        	<unknown>
		...
     6be: f1 ff                        	<unknown>
     6c0: ae 01                        	<unknown>
     6c2: 00 00                        	<unknown>
     6c4: 1a 00                        	<unknown>
		...
     6ce: f1 ff                        	<unknown>
     6d0: b6 01                        	<unknown>
     6d2: 00 00                        	<unknown>
     6d4: 1b 00 00 00                  	<unknown>
     6d8: 00 00                        	<unknown>
     6da: 00 00                        	<unknown>
     6dc: 00 00                        	<unknown>
     6de: f1 ff                        	<unknown>
     6e0: be 01                        	<unknown>
     6e2: 00 00                        	<unknown>
     6e4: 1c 00                        	<unknown>
		...
     6ee: f1 ff                        	<unknown>
     6f0: c6 01                        	<unknown>
     6f2: 00 00                        	<unknown>
     6f4: 1d 00                        	<unknown>
		...
     6fe: f1 ff                        	<unknown>
     700: ce 01                        	<unknown>
     702: 00 00                        	<unknown>
     704: 03 00 00 00                  	lb	zero, 0(zero)
     708: 00 00                        	<unknown>
     70a: 00 00                        	<unknown>
     70c: 00 00                        	<unknown>
     70e: f1 ff                        	<unknown>
     710: d5 01                        	<unknown>
     712: 00 00                        	<unknown>
     714: 1e 00                        	<unknown>
		...
     71e: f1 ff                        	<unknown>
     720: dd 01                        	<unknown>
     722: 00 00                        	<unknown>
     724: 1f 00 00 00                  	<unknown>
     728: 00 00                        	<unknown>
     72a: 00 00                        	<unknown>
     72c: 00 00                        	<unknown>
     72e: f1 ff                        	<unknown>
     730: e5 01                        	<unknown>
     732: 00 00                        	<unknown>
     734: 04 00                        	<unknown>
		...
     73e: f1 ff                        	<unknown>
     740: ec 01                        	<unknown>
     742: 00 00                        	<unknown>
     744: 05 00                        	<unknown>
		...
     74e: f1 ff                        	<unknown>
     750: f3 01 00 00                  	<unknown>
     754: 06 00                        	<unknown>
		...
     75e: f1 ff                        	<unknown>
     760: fa 01                        	<unknown>
     762: 00 00                        	<unknown>
     764: 07 00 00 00                  	<unknown>
     768: 00 00                        	<unknown>
     76a: 00 00                        	<unknown>
     76c: 00 00                        	<unknown>
     76e: f1 ff                        	<unknown>
     770: 01 02                        	<unknown>
     772: 00 00                        	<unknown>
     774: 08 00                        	<unknown>
		...
     77e: f1 ff                        	<unknown>
     780: 08 02                        	<unknown>
     782: 00 00                        	<unknown>
     784: 09 00                        	<unknown>
		...
     78e: f1 ff                        	<unknown>
     790: 0f 02 00 00                  	<unknown>
		...
     79c: 00 00                        	<unknown>
     79e: f1 ff                        	<unknown>
     7a0: 18 02                        	<unknown>
		...
     7aa: 00 00                        	<unknown>
     7ac: 04 00                        	<unknown>
     7ae: f1 ff                        	<unknown>
     7b0: 19 01                        	<unknown>
		...
     7be: f1 ff                        	<unknown>
     7c0: 20 01                        	<unknown>
     7c2: 00 00                        	<unknown>
     7c4: 01 00                        	<unknown>
		...
     7ce: f1 ff                        	<unknown>
     7d0: 77 01 00 00                  	<unknown>
     7d4: 02 00                        	<unknown>
		...
     7de: f1 ff                        	<unknown>
     7e0: ce 01                        	<unknown>
     7e2: 00 00                        	<unknown>
     7e4: 03 00 00 00                  	lb	zero, 0(zero)
     7e8: 00 00                        	<unknown>
     7ea: 00 00                        	<unknown>
     7ec: 00 00                        	<unknown>
     7ee: f1 ff                        	<unknown>
     7f0: e5 01                        	<unknown>
     7f2: 00 00                        	<unknown>
     7f4: 04 00                        	<unknown>
		...
     7fe: f1 ff                        	<unknown>
     800: ec 01                        	<unknown>
     802: 00 00                        	<unknown>
     804: 05 00                        	<unknown>
		...
     80e: f1 ff                        	<unknown>
     810: f3 01 00 00                  	<unknown>
     814: 06 00                        	<unknown>
		...
     81e: f1 ff                        	<unknown>
     820: fa 01                        	<unknown>
     822: 00 00                        	<unknown>
     824: 07 00 00 00                  	<unknown>
     828: 00 00                        	<unknown>
     82a: 00 00                        	<unknown>
     82c: 00 00                        	<unknown>
     82e: f1 ff                        	<unknown>
     830: 01 02                        	<unknown>
     832: 00 00                        	<unknown>
     834: 08 00                        	<unknown>
		...
     83e: f1 ff                        	<unknown>
     840: 08 02                        	<unknown>
     842: 00 00                        	<unknown>
     844: 09 00                        	<unknown>
		...
     84e: f1 ff                        	<unknown>
     850: 27 01 00 00                  	<unknown>
     854: 0a 00                        	<unknown>
		...
     85e: f1 ff                        	<unknown>
     860: 2f 01 00 00                  	<unknown>
     864: 0b 00 00 00                  	vx_tmc	zero
     868: 00 00                        	<unknown>
     86a: 00 00                        	<unknown>
     86c: 00 00                        	<unknown>
     86e: f1 ff                        	<unknown>
     870: 37 01 00 00                  	lui	sp, 0
     874: 0c 00                        	<unknown>
		...
     87e: f1 ff                        	<unknown>
     880: 3f 01 00 00                  	<unknown>
     884: 0d 00                        	<unknown>
		...
     88e: f1 ff                        	<unknown>
     890: 47 01 00 00                  	<unknown>
     894: 0e 00                        	<unknown>
		...
     89e: f1 ff                        	<unknown>
     8a0: 4f 01 00 00                  	<unknown>
     8a4: 0f 00 00 00                  	fence	unknown, unknown
     8a8: 00 00                        	<unknown>
     8aa: 00 00                        	<unknown>
     8ac: 00 00                        	<unknown>
     8ae: f1 ff                        	<unknown>
     8b0: 57 01 00 00                  	<unknown>
     8b4: 10 00                        	<unknown>
		...
     8be: f1 ff                        	<unknown>
     8c0: 5f 01 00 00                  	<unknown>
     8c4: 11 00                        	<unknown>
		...
     8ce: f1 ff                        	<unknown>
     8d0: 67 01 00 00                  	jalr	sp, zero
     8d4: 12 00                        	<unknown>
		...
     8de: f1 ff                        	<unknown>
     8e0: 6f 01 00 00                  	jal	sp, 0
     8e4: 13 00 00 00                  	nop
     8e8: 00 00                        	<unknown>
     8ea: 00 00                        	<unknown>
     8ec: 00 00                        	<unknown>
     8ee: f1 ff                        	<unknown>
     8f0: 7e 01                        	<unknown>
     8f2: 00 00                        	<unknown>
     8f4: 14 00                        	<unknown>
		...
     8fe: f1 ff                        	<unknown>
     900: 86 01                        	<unknown>
     902: 00 00                        	<unknown>
     904: 15 00                        	<unknown>
		...
     90e: f1 ff                        	<unknown>
     910: 8e 01                        	<unknown>
     912: 00 00                        	<unknown>
     914: 16 00                        	<unknown>
		...
     91e: f1 ff                        	<unknown>
     920: 96 01                        	<unknown>
     922: 00 00                        	<unknown>
     924: 17 00 00 00                  	auipc	zero, 0
     928: 00 00                        	<unknown>
     92a: 00 00                        	<unknown>
     92c: 00 00                        	<unknown>
     92e: f1 ff                        	<unknown>
     930: 9e 01                        	<unknown>
     932: 00 00                        	<unknown>
     934: 18 00                        	<unknown>
		...
     93e: f1 ff                        	<unknown>
     940: a6 01                        	<unknown>
     942: 00 00                        	<unknown>
     944: 19 00                        	<unknown>
		...
     94e: f1 ff                        	<unknown>
     950: ae 01                        	<unknown>
     952: 00 00                        	<unknown>
     954: 1a 00                        	<unknown>
		...
     95e: f1 ff                        	<unknown>
     960: b6 01                        	<unknown>
     962: 00 00                        	<unknown>
     964: 1b 00 00 00                  	<unknown>
     968: 00 00                        	<unknown>
     96a: 00 00                        	<unknown>
     96c: 00 00                        	<unknown>
     96e: f1 ff                        	<unknown>
     970: be 01                        	<unknown>
     972: 00 00                        	<unknown>
     974: 1c 00                        	<unknown>
		...
     97e: f1 ff                        	<unknown>
     980: c6 01                        	<unknown>
     982: 00 00                        	<unknown>
     984: 1d 00                        	<unknown>
		...
     98e: f1 ff                        	<unknown>
     990: d5 01                        	<unknown>
     992: 00 00                        	<unknown>
     994: 1e 00                        	<unknown>
		...
     99e: f1 ff                        	<unknown>
     9a0: dd 01                        	<unknown>
     9a2: 00 00                        	<unknown>
     9a4: 1f 00 00 00                  	<unknown>
     9a8: 00 00                        	<unknown>
     9aa: 00 00                        	<unknown>
     9ac: 00 00                        	<unknown>
     9ae: f1 ff                        	<unknown>
     9b0: 0f 02 00 00                  	<unknown>
		...
     9bc: 00 00                        	<unknown>
     9be: f1 ff                        	<unknown>
     9c0: 7d 00                        	<unknown>
     9c2: 00 00                        	<unknown>
     9c4: 01 00                        	<unknown>
		...
     9ce: f1 ff                        	<unknown>
     9d0: da 00                        	<unknown>
     9d2: 00 00                        	<unknown>
     9d4: 02 00                        	<unknown>
		...
     9de: f1 ff                        	<unknown>
     9e0: 76 00                        	<unknown>
     9e2: 00 00                        	<unknown>
     9e4: 03 00 00 00                  	lb	zero, 0(zero)
     9e8: 00 00                        	<unknown>
     9ea: 00 00                        	<unknown>
     9ec: 00 00                        	<unknown>
     9ee: f1 ff                        	<unknown>
     9f0: 12 01                        	<unknown>
     9f2: 00 00                        	<unknown>
     9f4: 04 00                        	<unknown>
		...
     9fe: f1 ff                        	<unknown>
     a00: e1 00                        	<unknown>
     a02: 00 00                        	<unknown>
     a04: 05 00                        	<unknown>
		...
     a0e: f1 ff                        	<unknown>
     a10: e8 00                        	<unknown>
     a12: 00 00                        	<unknown>
     a14: 06 00                        	<unknown>
		...
     a1e: f1 ff                        	<unknown>
     a20: ef 00 00 00                  	jal	0
     a24: 07 00 00 00                  	<unknown>
     a28: 00 00                        	<unknown>
     a2a: 00 00                        	<unknown>
     a2c: 00 00                        	<unknown>
     a2e: f1 ff                        	<unknown>
     a30: 84 00                        	<unknown>
     a32: 00 00                        	<unknown>
     a34: 08 00                        	<unknown>
		...
     a3e: f1 ff                        	<unknown>
     a40: 8b 00 00 00                  	<unknown>
     a44: 09 00                        	<unknown>
		...
     a4e: f1 ff                        	<unknown>
     a50: 3e 00                        	<unknown>
     a52: 00 00                        	<unknown>
     a54: 0a 00                        	<unknown>
		...
     a5e: f1 ff                        	<unknown>
     a60: 45 00                        	<unknown>
     a62: 00 00                        	<unknown>
     a64: 0b 00 00 00                  	vx_tmc	zero
     a68: 00 00                        	<unknown>
     a6a: 00 00                        	<unknown>
     a6c: 00 00                        	<unknown>
     a6e: f1 ff                        	<unknown>
     a70: 4c 00                        	<unknown>
     a72: 00 00                        	<unknown>
     a74: 0c 00                        	<unknown>
		...
     a7e: f1 ff                        	<unknown>
     a80: 53 00 00 00                  	<unknown>
     a84: 0d 00                        	<unknown>
		...
     a8e: f1 ff                        	<unknown>
     a90: 5a 00                        	<unknown>
     a92: 00 00                        	<unknown>
     a94: 0e 00                        	<unknown>
		...
     a9e: f1 ff                        	<unknown>
     aa0: 61 00                        	<unknown>
     aa2: 00 00                        	<unknown>
     aa4: 0f 00 00 00                  	fence	unknown, unknown
     aa8: 00 00                        	<unknown>
     aaa: 00 00                        	<unknown>
     aac: 00 00                        	<unknown>
     aae: f1 ff                        	<unknown>
     ab0: 68 00                        	<unknown>
     ab2: 00 00                        	<unknown>
     ab4: 10 00                        	<unknown>
		...
     abe: f1 ff                        	<unknown>
     ac0: 6f 00 00 00                  	j	0
     ac4: 11 00                        	<unknown>
		...
     ace: f1 ff                        	<unknown>
     ad0: a2 00                        	<unknown>
     ad2: 00 00                        	<unknown>
     ad4: 12 00                        	<unknown>
		...
     ade: f1 ff                        	<unknown>
     ae0: a9 00                        	<unknown>
     ae2: 00 00                        	<unknown>
     ae4: 13 00 00 00                  	nop
     ae8: 00 00                        	<unknown>
     aea: 00 00                        	<unknown>
     aec: 00 00                        	<unknown>
     aee: f1 ff                        	<unknown>
     af0: b0 00                        	<unknown>
     af2: 00 00                        	<unknown>
     af4: 14 00                        	<unknown>
		...
     afe: f1 ff                        	<unknown>
     b00: b7 00 00 00                  	lui	ra, 0
     b04: 15 00                        	<unknown>
		...
     b0e: f1 ff                        	<unknown>
     b10: be 00                        	<unknown>
     b12: 00 00                        	<unknown>
     b14: 16 00                        	<unknown>
		...
     b1e: f1 ff                        	<unknown>
     b20: c5 00                        	<unknown>
     b22: 00 00                        	<unknown>
     b24: 17 00 00 00                  	auipc	zero, 0
     b28: 00 00                        	<unknown>
     b2a: 00 00                        	<unknown>
     b2c: 00 00                        	<unknown>
     b2e: f1 ff                        	<unknown>
     b30: cc 00                        	<unknown>
     b32: 00 00                        	<unknown>
     b34: 18 00                        	<unknown>
		...
     b3e: f1 ff                        	<unknown>
     b40: d3 00 00 00                  	<unknown>
     b44: 19 00                        	<unknown>
		...
     b4e: f1 ff                        	<unknown>
     b50: 92 00                        	<unknown>
     b52: 00 00                        	<unknown>
     b54: 1a 00                        	<unknown>
		...
     b5e: f1 ff                        	<unknown>
     b60: 9a 00                        	<unknown>
     b62: 00 00                        	<unknown>
     b64: 1b 00 00 00                  	<unknown>
     b68: 00 00                        	<unknown>
     b6a: 00 00                        	<unknown>
     b6c: 00 00                        	<unknown>
     b6e: f1 ff                        	<unknown>
     b70: f6 00                        	<unknown>
     b72: 00 00                        	<unknown>
     b74: 1c 00                        	<unknown>
		...
     b7e: f1 ff                        	<unknown>
     b80: fd 00                        	<unknown>
     b82: 00 00                        	<unknown>
     b84: 1d 00                        	<unknown>
		...
     b8e: f1 ff                        	<unknown>
     b90: 04 01                        	<unknown>
     b92: 00 00                        	<unknown>
     b94: 1e 00                        	<unknown>
		...
     b9e: f1 ff                        	<unknown>
     ba0: 0b 01 00 00                  	<unknown>
     ba4: 1f 00 00 00                  	<unknown>
     ba8: 00 00                        	<unknown>
     baa: 00 00                        	<unknown>
     bac: 00 00                        	<unknown>
     bae: f1 ff                        	<unknown>
     bb0: 26 02                        	<unknown>
		...
     bba: 00 00                        	<unknown>
     bbc: 04 00                        	<unknown>
     bbe: f1 ff                        	<unknown>
     bc0: 19 01                        	<unknown>
		...
     bce: f1 ff                        	<unknown>
     bd0: 20 01                        	<unknown>
     bd2: 00 00                        	<unknown>
     bd4: 01 00                        	<unknown>
		...
     bde: f1 ff                        	<unknown>
     be0: 77 01 00 00                  	<unknown>
     be4: 02 00                        	<unknown>
		...
     bee: f1 ff                        	<unknown>
     bf0: ce 01                        	<unknown>
     bf2: 00 00                        	<unknown>
     bf4: 03 00 00 00                  	lb	zero, 0(zero)
     bf8: 00 00                        	<unknown>
     bfa: 00 00                        	<unknown>
     bfc: 00 00                        	<unknown>
     bfe: f1 ff                        	<unknown>
     c00: e5 01                        	<unknown>
     c02: 00 00                        	<unknown>
     c04: 04 00                        	<unknown>
		...
     c0e: f1 ff                        	<unknown>
     c10: ec 01                        	<unknown>
     c12: 00 00                        	<unknown>
     c14: 05 00                        	<unknown>
		...
     c1e: f1 ff                        	<unknown>
     c20: f3 01 00 00                  	<unknown>
     c24: 06 00                        	<unknown>
		...
     c2e: f1 ff                        	<unknown>
     c30: fa 01                        	<unknown>
     c32: 00 00                        	<unknown>
     c34: 07 00 00 00                  	<unknown>
     c38: 00 00                        	<unknown>
     c3a: 00 00                        	<unknown>
     c3c: 00 00                        	<unknown>
     c3e: f1 ff                        	<unknown>
     c40: 01 02                        	<unknown>
     c42: 00 00                        	<unknown>
     c44: 08 00                        	<unknown>
		...
     c4e: f1 ff                        	<unknown>
     c50: 08 02                        	<unknown>
     c52: 00 00                        	<unknown>
     c54: 09 00                        	<unknown>
		...
     c5e: f1 ff                        	<unknown>
     c60: 27 01 00 00                  	<unknown>
     c64: 0a 00                        	<unknown>
		...
     c6e: f1 ff                        	<unknown>
     c70: 2f 01 00 00                  	<unknown>
     c74: 0b 00 00 00                  	vx_tmc	zero
     c78: 00 00                        	<unknown>
     c7a: 00 00                        	<unknown>
     c7c: 00 00                        	<unknown>
     c7e: f1 ff                        	<unknown>
     c80: 37 01 00 00                  	lui	sp, 0
     c84: 0c 00                        	<unknown>
		...
     c8e: f1 ff                        	<unknown>
     c90: 3f 01 00 00                  	<unknown>
     c94: 0d 00                        	<unknown>
		...
     c9e: f1 ff                        	<unknown>
     ca0: 47 01 00 00                  	<unknown>
     ca4: 0e 00                        	<unknown>
		...
     cae: f1 ff                        	<unknown>
     cb0: 4f 01 00 00                  	<unknown>
     cb4: 0f 00 00 00                  	fence	unknown, unknown
     cb8: 00 00                        	<unknown>
     cba: 00 00                        	<unknown>
     cbc: 00 00                        	<unknown>
     cbe: f1 ff                        	<unknown>
     cc0: 57 01 00 00                  	<unknown>
     cc4: 10 00                        	<unknown>
		...
     cce: f1 ff                        	<unknown>
     cd0: 5f 01 00 00                  	<unknown>
     cd4: 11 00                        	<unknown>
		...
     cde: f1 ff                        	<unknown>
     ce0: 67 01 00 00                  	jalr	sp, zero
     ce4: 12 00                        	<unknown>
		...
     cee: f1 ff                        	<unknown>
     cf0: 6f 01 00 00                  	jal	sp, 0
     cf4: 13 00 00 00                  	nop
     cf8: 00 00                        	<unknown>
     cfa: 00 00                        	<unknown>
     cfc: 00 00                        	<unknown>
     cfe: f1 ff                        	<unknown>
     d00: 7e 01                        	<unknown>
     d02: 00 00                        	<unknown>
     d04: 14 00                        	<unknown>
		...
     d0e: f1 ff                        	<unknown>
     d10: 86 01                        	<unknown>
     d12: 00 00                        	<unknown>
     d14: 15 00                        	<unknown>
		...
     d1e: f1 ff                        	<unknown>
     d20: 8e 01                        	<unknown>
     d22: 00 00                        	<unknown>
     d24: 16 00                        	<unknown>
		...
     d2e: f1 ff                        	<unknown>
     d30: 96 01                        	<unknown>
     d32: 00 00                        	<unknown>
     d34: 17 00 00 00                  	auipc	zero, 0
     d38: 00 00                        	<unknown>
     d3a: 00 00                        	<unknown>
     d3c: 00 00                        	<unknown>
     d3e: f1 ff                        	<unknown>
     d40: 9e 01                        	<unknown>
     d42: 00 00                        	<unknown>
     d44: 18 00                        	<unknown>
		...
     d4e: f1 ff                        	<unknown>
     d50: a6 01                        	<unknown>
     d52: 00 00                        	<unknown>
     d54: 19 00                        	<unknown>
		...
     d5e: f1 ff                        	<unknown>
     d60: ae 01                        	<unknown>
     d62: 00 00                        	<unknown>
     d64: 1a 00                        	<unknown>
		...
     d6e: f1 ff                        	<unknown>
     d70: b6 01                        	<unknown>
     d72: 00 00                        	<unknown>
     d74: 1b 00 00 00                  	<unknown>
     d78: 00 00                        	<unknown>
     d7a: 00 00                        	<unknown>
     d7c: 00 00                        	<unknown>
     d7e: f1 ff                        	<unknown>
     d80: be 01                        	<unknown>
     d82: 00 00                        	<unknown>
     d84: 1c 00                        	<unknown>
		...
     d8e: f1 ff                        	<unknown>
     d90: c6 01                        	<unknown>
     d92: 00 00                        	<unknown>
     d94: 1d 00                        	<unknown>
		...
     d9e: f1 ff                        	<unknown>
     da0: d5 01                        	<unknown>
     da2: 00 00                        	<unknown>
     da4: 1e 00                        	<unknown>
		...
     dae: f1 ff                        	<unknown>
     db0: dd 01                        	<unknown>
     db2: 00 00                        	<unknown>
     db4: 1f 00 00 00                  	<unknown>
     db8: 00 00                        	<unknown>
     dba: 00 00                        	<unknown>
     dbc: 00 00                        	<unknown>
     dbe: f1 ff                        	<unknown>
     dc0: 0f 02 00 00                  	<unknown>
		...
     dcc: 00 00                        	<unknown>
     dce: f1 ff                        	<unknown>
     dd0: 7d 00                        	<unknown>
     dd2: 00 00                        	<unknown>
     dd4: 01 00                        	<unknown>
		...
     dde: f1 ff                        	<unknown>
     de0: da 00                        	<unknown>
     de2: 00 00                        	<unknown>
     de4: 02 00                        	<unknown>
		...
     dee: f1 ff                        	<unknown>
     df0: 76 00                        	<unknown>
     df2: 00 00                        	<unknown>
     df4: 03 00 00 00                  	lb	zero, 0(zero)
     df8: 00 00                        	<unknown>
     dfa: 00 00                        	<unknown>
     dfc: 00 00                        	<unknown>
     dfe: f1 ff                        	<unknown>
     e00: 12 01                        	<unknown>
     e02: 00 00                        	<unknown>
     e04: 04 00                        	<unknown>
		...
     e0e: f1 ff                        	<unknown>
     e10: e1 00                        	<unknown>
     e12: 00 00                        	<unknown>
     e14: 05 00                        	<unknown>
		...
     e1e: f1 ff                        	<unknown>
     e20: e8 00                        	<unknown>
     e22: 00 00                        	<unknown>
     e24: 06 00                        	<unknown>
		...
     e2e: f1 ff                        	<unknown>
     e30: ef 00 00 00                  	jal	0
     e34: 07 00 00 00                  	<unknown>
     e38: 00 00                        	<unknown>
     e3a: 00 00                        	<unknown>
     e3c: 00 00                        	<unknown>
     e3e: f1 ff                        	<unknown>
     e40: 84 00                        	<unknown>
     e42: 00 00                        	<unknown>
     e44: 08 00                        	<unknown>
		...
     e4e: f1 ff                        	<unknown>
     e50: 8b 00 00 00                  	<unknown>
     e54: 09 00                        	<unknown>
		...
     e5e: f1 ff                        	<unknown>
     e60: 3e 00                        	<unknown>
     e62: 00 00                        	<unknown>
     e64: 0a 00                        	<unknown>
		...
     e6e: f1 ff                        	<unknown>
     e70: 45 00                        	<unknown>
     e72: 00 00                        	<unknown>
     e74: 0b 00 00 00                  	vx_tmc	zero
     e78: 00 00                        	<unknown>
     e7a: 00 00                        	<unknown>
     e7c: 00 00                        	<unknown>
     e7e: f1 ff                        	<unknown>
     e80: 4c 00                        	<unknown>
     e82: 00 00                        	<unknown>
     e84: 0c 00                        	<unknown>
		...
     e8e: f1 ff                        	<unknown>
     e90: 53 00 00 00                  	<unknown>
     e94: 0d 00                        	<unknown>
		...
     e9e: f1 ff                        	<unknown>
     ea0: 5a 00                        	<unknown>
     ea2: 00 00                        	<unknown>
     ea4: 0e 00                        	<unknown>
		...
     eae: f1 ff                        	<unknown>
     eb0: 61 00                        	<unknown>
     eb2: 00 00                        	<unknown>
     eb4: 0f 00 00 00                  	fence	unknown, unknown
     eb8: 00 00                        	<unknown>
     eba: 00 00                        	<unknown>
     ebc: 00 00                        	<unknown>
     ebe: f1 ff                        	<unknown>
     ec0: 68 00                        	<unknown>
     ec2: 00 00                        	<unknown>
     ec4: 10 00                        	<unknown>
		...
     ece: f1 ff                        	<unknown>
     ed0: 6f 00 00 00                  	j	0
     ed4: 11 00                        	<unknown>
		...
     ede: f1 ff                        	<unknown>
     ee0: a2 00                        	<unknown>
     ee2: 00 00                        	<unknown>
     ee4: 12 00                        	<unknown>
		...
     eee: f1 ff                        	<unknown>
     ef0: a9 00                        	<unknown>
     ef2: 00 00                        	<unknown>
     ef4: 13 00 00 00                  	nop
     ef8: 00 00                        	<unknown>
     efa: 00 00                        	<unknown>
     efc: 00 00                        	<unknown>
     efe: f1 ff                        	<unknown>
     f00: b0 00                        	<unknown>
     f02: 00 00                        	<unknown>
     f04: 14 00                        	<unknown>
		...
     f0e: f1 ff                        	<unknown>
     f10: b7 00 00 00                  	lui	ra, 0
     f14: 15 00                        	<unknown>
		...
     f1e: f1 ff                        	<unknown>
     f20: be 00                        	<unknown>
     f22: 00 00                        	<unknown>
     f24: 16 00                        	<unknown>
		...
     f2e: f1 ff                        	<unknown>
     f30: c5 00                        	<unknown>
     f32: 00 00                        	<unknown>
     f34: 17 00 00 00                  	auipc	zero, 0
     f38: 00 00                        	<unknown>
     f3a: 00 00                        	<unknown>
     f3c: 00 00                        	<unknown>
     f3e: f1 ff                        	<unknown>
     f40: cc 00                        	<unknown>
     f42: 00 00                        	<unknown>
     f44: 18 00                        	<unknown>
		...
     f4e: f1 ff                        	<unknown>
     f50: d3 00 00 00                  	<unknown>
     f54: 19 00                        	<unknown>
		...
     f5e: f1 ff                        	<unknown>
     f60: 92 00                        	<unknown>
     f62: 00 00                        	<unknown>
     f64: 1a 00                        	<unknown>
		...
     f6e: f1 ff                        	<unknown>
     f70: 9a 00                        	<unknown>
     f72: 00 00                        	<unknown>
     f74: 1b 00 00 00                  	<unknown>
     f78: 00 00                        	<unknown>
     f7a: 00 00                        	<unknown>
     f7c: 00 00                        	<unknown>
     f7e: f1 ff                        	<unknown>
     f80: f6 00                        	<unknown>
     f82: 00 00                        	<unknown>
     f84: 1c 00                        	<unknown>
		...
     f8e: f1 ff                        	<unknown>
     f90: fd 00                        	<unknown>
     f92: 00 00                        	<unknown>
     f94: 1d 00                        	<unknown>
		...
     f9e: f1 ff                        	<unknown>
     fa0: 04 01                        	<unknown>
     fa2: 00 00                        	<unknown>
     fa4: 1e 00                        	<unknown>
		...
     fae: f1 ff                        	<unknown>
     fb0: 0b 01 00 00                  	<unknown>
     fb4: 1f 00 00 00                  	<unknown>
     fb8: 00 00                        	<unknown>
     fba: 00 00                        	<unknown>
     fbc: 00 00                        	<unknown>
     fbe: f1 ff                        	<unknown>
     fc0: 31 02                        	<unknown>
     fc2: 00 00                        	<unknown>
     fc4: 84 38                        	<unknown>
     fc6: 00 80                        	<unknown>
     fc8: c8 00                        	<unknown>
     fca: 00 00                        	<unknown>
     fcc: 02 00                        	<unknown>
     fce: 02 00                        	<unknown>
     fd0: 46 02                        	<unknown>
     fd2: 00 00                        	<unknown>
     fd4: 4c 39                        	<unknown>
     fd6: 00 80                        	<unknown>
     fd8: 30 00                        	<unknown>
     fda: 00 00                        	<unknown>
     fdc: 02 00                        	<unknown>
     fde: 02 00                        	<unknown>
     fe0: 5b 02 00 00                  	<unknown>
     fe4: 7c 39                        	<unknown>
     fe6: 00 80                        	<unknown>
     fe8: 2c 00                        	<unknown>
     fea: 00 00                        	<unknown>
     fec: 02 00                        	<unknown>
     fee: 02 00                        	<unknown>
     ff0: 6e 02                        	<unknown>
		...
     ffa: 00 00                        	<unknown>
     ffc: 04 00                        	<unknown>
     ffe: f1 ff                        	<unknown>
    1000: 19 01                        	<unknown>
		...
    100e: f1 ff                        	<unknown>
    1010: 20 01                        	<unknown>
    1012: 00 00                        	<unknown>
    1014: 01 00                        	<unknown>
		...
    101e: f1 ff                        	<unknown>
    1020: 77 01 00 00                  	<unknown>
    1024: 02 00                        	<unknown>
		...
    102e: f1 ff                        	<unknown>
    1030: ce 01                        	<unknown>
    1032: 00 00                        	<unknown>
    1034: 03 00 00 00                  	lb	zero, 0(zero)
    1038: 00 00                        	<unknown>
    103a: 00 00                        	<unknown>
    103c: 00 00                        	<unknown>
    103e: f1 ff                        	<unknown>
    1040: e5 01                        	<unknown>
    1042: 00 00                        	<unknown>
    1044: 04 00                        	<unknown>
		...
    104e: f1 ff                        	<unknown>
    1050: ec 01                        	<unknown>
    1052: 00 00                        	<unknown>
    1054: 05 00                        	<unknown>
		...
    105e: f1 ff                        	<unknown>
    1060: f3 01 00 00                  	<unknown>
    1064: 06 00                        	<unknown>
		...
    106e: f1 ff                        	<unknown>
    1070: fa 01                        	<unknown>
    1072: 00 00                        	<unknown>
    1074: 07 00 00 00                  	<unknown>
    1078: 00 00                        	<unknown>
    107a: 00 00                        	<unknown>
    107c: 00 00                        	<unknown>
    107e: f1 ff                        	<unknown>
    1080: 01 02                        	<unknown>
    1082: 00 00                        	<unknown>
    1084: 08 00                        	<unknown>
		...
    108e: f1 ff                        	<unknown>
    1090: 08 02                        	<unknown>
    1092: 00 00                        	<unknown>
    1094: 09 00                        	<unknown>
		...
    109e: f1 ff                        	<unknown>
    10a0: 27 01 00 00                  	<unknown>
    10a4: 0a 00                        	<unknown>
		...
    10ae: f1 ff                        	<unknown>
    10b0: 2f 01 00 00                  	<unknown>
    10b4: 0b 00 00 00                  	vx_tmc	zero
    10b8: 00 00                        	<unknown>
    10ba: 00 00                        	<unknown>
    10bc: 00 00                        	<unknown>
    10be: f1 ff                        	<unknown>
    10c0: 37 01 00 00                  	lui	sp, 0
    10c4: 0c 00                        	<unknown>
		...
    10ce: f1 ff                        	<unknown>
    10d0: 3f 01 00 00                  	<unknown>
    10d4: 0d 00                        	<unknown>
		...
    10de: f1 ff                        	<unknown>
    10e0: 47 01 00 00                  	<unknown>
    10e4: 0e 00                        	<unknown>
		...
    10ee: f1 ff                        	<unknown>
    10f0: 4f 01 00 00                  	<unknown>
    10f4: 0f 00 00 00                  	fence	unknown, unknown
    10f8: 00 00                        	<unknown>
    10fa: 00 00                        	<unknown>
    10fc: 00 00                        	<unknown>
    10fe: f1 ff                        	<unknown>
    1100: 57 01 00 00                  	<unknown>
    1104: 10 00                        	<unknown>
		...
    110e: f1 ff                        	<unknown>
    1110: 5f 01 00 00                  	<unknown>
    1114: 11 00                        	<unknown>
		...
    111e: f1 ff                        	<unknown>
    1120: 67 01 00 00                  	jalr	sp, zero
    1124: 12 00                        	<unknown>
		...
    112e: f1 ff                        	<unknown>
    1130: 6f 01 00 00                  	jal	sp, 0
    1134: 13 00 00 00                  	nop
    1138: 00 00                        	<unknown>
    113a: 00 00                        	<unknown>
    113c: 00 00                        	<unknown>
    113e: f1 ff                        	<unknown>
    1140: 7e 01                        	<unknown>
    1142: 00 00                        	<unknown>
    1144: 14 00                        	<unknown>
		...
    114e: f1 ff                        	<unknown>
    1150: 86 01                        	<unknown>
    1152: 00 00                        	<unknown>
    1154: 15 00                        	<unknown>
		...
    115e: f1 ff                        	<unknown>
    1160: 8e 01                        	<unknown>
    1162: 00 00                        	<unknown>
    1164: 16 00                        	<unknown>
		...
    116e: f1 ff                        	<unknown>
    1170: 96 01                        	<unknown>
    1172: 00 00                        	<unknown>
    1174: 17 00 00 00                  	auipc	zero, 0
    1178: 00 00                        	<unknown>
    117a: 00 00                        	<unknown>
    117c: 00 00                        	<unknown>
    117e: f1 ff                        	<unknown>
    1180: 9e 01                        	<unknown>
    1182: 00 00                        	<unknown>
    1184: 18 00                        	<unknown>
		...
    118e: f1 ff                        	<unknown>
    1190: a6 01                        	<unknown>
    1192: 00 00                        	<unknown>
    1194: 19 00                        	<unknown>
		...
    119e: f1 ff                        	<unknown>
    11a0: ae 01                        	<unknown>
    11a2: 00 00                        	<unknown>
    11a4: 1a 00                        	<unknown>
		...
    11ae: f1 ff                        	<unknown>
    11b0: b6 01                        	<unknown>
    11b2: 00 00                        	<unknown>
    11b4: 1b 00 00 00                  	<unknown>
    11b8: 00 00                        	<unknown>
    11ba: 00 00                        	<unknown>
    11bc: 00 00                        	<unknown>
    11be: f1 ff                        	<unknown>
    11c0: be 01                        	<unknown>
    11c2: 00 00                        	<unknown>
    11c4: 1c 00                        	<unknown>
		...
    11ce: f1 ff                        	<unknown>
    11d0: c6 01                        	<unknown>
    11d2: 00 00                        	<unknown>
    11d4: 1d 00                        	<unknown>
		...
    11de: f1 ff                        	<unknown>
    11e0: d5 01                        	<unknown>
    11e2: 00 00                        	<unknown>
    11e4: 1e 00                        	<unknown>
		...
    11ee: f1 ff                        	<unknown>
    11f0: dd 01                        	<unknown>
    11f2: 00 00                        	<unknown>
    11f4: 1f 00 00 00                  	<unknown>
    11f8: 00 00                        	<unknown>
    11fa: 00 00                        	<unknown>
    11fc: 00 00                        	<unknown>
    11fe: f1 ff                        	<unknown>
    1200: 0f 02 00 00                  	<unknown>
		...
    120c: 00 00                        	<unknown>
    120e: f1 ff                        	<unknown>
    1210: 7d 00                        	<unknown>
    1212: 00 00                        	<unknown>
    1214: 01 00                        	<unknown>
		...
    121e: f1 ff                        	<unknown>
    1220: da 00                        	<unknown>
    1222: 00 00                        	<unknown>
    1224: 02 00                        	<unknown>
		...
    122e: f1 ff                        	<unknown>
    1230: 76 00                        	<unknown>
    1232: 00 00                        	<unknown>
    1234: 03 00 00 00                  	lb	zero, 0(zero)
    1238: 00 00                        	<unknown>
    123a: 00 00                        	<unknown>
    123c: 00 00                        	<unknown>
    123e: f1 ff                        	<unknown>
    1240: 12 01                        	<unknown>
    1242: 00 00                        	<unknown>
    1244: 04 00                        	<unknown>
		...
    124e: f1 ff                        	<unknown>
    1250: e1 00                        	<unknown>
    1252: 00 00                        	<unknown>
    1254: 05 00                        	<unknown>
		...
    125e: f1 ff                        	<unknown>
    1260: e8 00                        	<unknown>
    1262: 00 00                        	<unknown>
    1264: 06 00                        	<unknown>
		...
    126e: f1 ff                        	<unknown>
    1270: ef 00 00 00                  	jal	0
    1274: 07 00 00 00                  	<unknown>
    1278: 00 00                        	<unknown>
    127a: 00 00                        	<unknown>
    127c: 00 00                        	<unknown>
    127e: f1 ff                        	<unknown>
    1280: 84 00                        	<unknown>
    1282: 00 00                        	<unknown>
    1284: 08 00                        	<unknown>
		...
    128e: f1 ff                        	<unknown>
    1290: 8b 00 00 00                  	<unknown>
    1294: 09 00                        	<unknown>
		...
    129e: f1 ff                        	<unknown>
    12a0: 3e 00                        	<unknown>
    12a2: 00 00                        	<unknown>
    12a4: 0a 00                        	<unknown>
		...
    12ae: f1 ff                        	<unknown>
    12b0: 45 00                        	<unknown>
    12b2: 00 00                        	<unknown>
    12b4: 0b 00 00 00                  	vx_tmc	zero
    12b8: 00 00                        	<unknown>
    12ba: 00 00                        	<unknown>
    12bc: 00 00                        	<unknown>
    12be: f1 ff                        	<unknown>
    12c0: 4c 00                        	<unknown>
    12c2: 00 00                        	<unknown>
    12c4: 0c 00                        	<unknown>
		...
    12ce: f1 ff                        	<unknown>
    12d0: 53 00 00 00                  	<unknown>
    12d4: 0d 00                        	<unknown>
		...
    12de: f1 ff                        	<unknown>
    12e0: 5a 00                        	<unknown>
    12e2: 00 00                        	<unknown>
    12e4: 0e 00                        	<unknown>
		...
    12ee: f1 ff                        	<unknown>
    12f0: 61 00                        	<unknown>
    12f2: 00 00                        	<unknown>
    12f4: 0f 00 00 00                  	fence	unknown, unknown
    12f8: 00 00                        	<unknown>
    12fa: 00 00                        	<unknown>
    12fc: 00 00                        	<unknown>
    12fe: f1 ff                        	<unknown>
    1300: 68 00                        	<unknown>
    1302: 00 00                        	<unknown>
    1304: 10 00                        	<unknown>
		...
    130e: f1 ff                        	<unknown>
    1310: 6f 00 00 00                  	j	0
    1314: 11 00                        	<unknown>
		...
    131e: f1 ff                        	<unknown>
    1320: a2 00                        	<unknown>
    1322: 00 00                        	<unknown>
    1324: 12 00                        	<unknown>
		...
    132e: f1 ff                        	<unknown>
    1330: a9 00                        	<unknown>
    1332: 00 00                        	<unknown>
    1334: 13 00 00 00                  	nop
    1338: 00 00                        	<unknown>
    133a: 00 00                        	<unknown>
    133c: 00 00                        	<unknown>
    133e: f1 ff                        	<unknown>
    1340: b0 00                        	<unknown>
    1342: 00 00                        	<unknown>
    1344: 14 00                        	<unknown>
		...
    134e: f1 ff                        	<unknown>
    1350: b7 00 00 00                  	lui	ra, 0
    1354: 15 00                        	<unknown>
		...
    135e: f1 ff                        	<unknown>
    1360: be 00                        	<unknown>
    1362: 00 00                        	<unknown>
    1364: 16 00                        	<unknown>
		...
    136e: f1 ff                        	<unknown>
    1370: c5 00                        	<unknown>
    1372: 00 00                        	<unknown>
    1374: 17 00 00 00                  	auipc	zero, 0
    1378: 00 00                        	<unknown>
    137a: 00 00                        	<unknown>
    137c: 00 00                        	<unknown>
    137e: f1 ff                        	<unknown>
    1380: cc 00                        	<unknown>
    1382: 00 00                        	<unknown>
    1384: 18 00                        	<unknown>
		...
    138e: f1 ff                        	<unknown>
    1390: d3 00 00 00                  	<unknown>
    1394: 19 00                        	<unknown>
		...
    139e: f1 ff                        	<unknown>
    13a0: 92 00                        	<unknown>
    13a2: 00 00                        	<unknown>
    13a4: 1a 00                        	<unknown>
		...
    13ae: f1 ff                        	<unknown>
    13b0: 9a 00                        	<unknown>
    13b2: 00 00                        	<unknown>
    13b4: 1b 00 00 00                  	<unknown>
    13b8: 00 00                        	<unknown>
    13ba: 00 00                        	<unknown>
    13bc: 00 00                        	<unknown>
    13be: f1 ff                        	<unknown>
    13c0: f6 00                        	<unknown>
    13c2: 00 00                        	<unknown>
    13c4: 1c 00                        	<unknown>
		...
    13ce: f1 ff                        	<unknown>
    13d0: fd 00                        	<unknown>
    13d2: 00 00                        	<unknown>
    13d4: 1d 00                        	<unknown>
		...
    13de: f1 ff                        	<unknown>
    13e0: 04 01                        	<unknown>
    13e2: 00 00                        	<unknown>
    13e4: 1e 00                        	<unknown>
		...
    13ee: f1 ff                        	<unknown>
    13f0: 0b 01 00 00                  	<unknown>
    13f4: 1f 00 00 00                  	<unknown>
    13f8: 00 00                        	<unknown>
    13fa: 00 00                        	<unknown>
    13fc: 00 00                        	<unknown>
    13fe: f1 ff                        	<unknown>
    1400: 78 02                        	<unknown>
		...
    140a: 00 00                        	<unknown>
    140c: 04 00                        	<unknown>
    140e: f1 ff                        	<unknown>
    1410: ab 02 00 00                  	vx_tex	t0, zero, zero, zero
		...
    141c: 04 00                        	<unknown>
    141e: f1 ff                        	<unknown>
    1420: ad 02                        	<unknown>
		...
    142a: 00 00                        	<unknown>
    142c: 04 00                        	<unknown>
    142e: f1 ff                        	<unknown>
    1430: 80 02                        	<unknown>
		...
    143a: 00 00                        	<unknown>
    143c: 04 00                        	<unknown>
    143e: f1 ff                        	<unknown>
    1440: 89 02                        	<unknown>
    1442: 00 00                        	<unknown>
    1444: 50 3e                        	<unknown>
    1446: 00 80                        	<unknown>
    1448: 4c 00                        	<unknown>
    144a: 00 00                        	<unknown>
    144c: 02 00                        	<unknown>
    144e: 02 00                        	<unknown>
    1450: 9f 02 00 00                  	<unknown>
		...
    145c: 04 00                        	<unknown>
    145e: f1 ff                        	<unknown>
    1460: a9 02                        	<unknown>
		...
    146a: 00 00                        	<unknown>
    146c: 04 00                        	<unknown>
    146e: f1 ff                        	<unknown>
    1470: b4 02                        	<unknown>
		...
    147a: 00 00                        	<unknown>
    147c: 04 00                        	<unknown>
    147e: f1 ff                        	<unknown>
    1480: be 02                        	<unknown>
		...
    148a: 00 00                        	<unknown>
    148c: 04 00                        	<unknown>
    148e: f1 ff                        	<unknown>
    1490: c6 02                        	<unknown>
		...
    149a: 00 00                        	<unknown>
    149c: 04 00                        	<unknown>
    149e: f1 ff                        	<unknown>
    14a0: b4 02                        	<unknown>
		...
    14aa: 00 00                        	<unknown>
    14ac: 04 00                        	<unknown>
    14ae: f1 ff                        	<unknown>
    14b0: ce 02                        	<unknown>
		...
    14ba: 00 00                        	<unknown>
    14bc: 04 00                        	<unknown>
    14be: f1 ff                        	<unknown>
    14c0: d7 02 00 00                  	<unknown>
    14c4: 78 61                        	<unknown>
    14c6: 00 80                        	<unknown>
    14c8: 28 04                        	<unknown>
    14ca: 00 00                        	<unknown>
    14cc: 01 00                        	<unknown>
    14ce: 05 00                        	<unknown>
		...
    14dc: 04 00                        	<unknown>
    14de: f1 ff                        	<unknown>
    14e0: e3 02 00 00                  	beqz	zero, 2052
    14e4: 74 61                        	<unknown>
    14e6: 00 80                        	<unknown>
    14e8: 00 00                        	<unknown>
    14ea: 00 00                        	<unknown>
    14ec: 00 00                        	<unknown>
    14ee: 04 00                        	<unknown>
    14f0: f4 02                        	<unknown>
    14f2: 00 00                        	<unknown>
    14f4: 74 61                        	<unknown>
    14f6: 00 80                        	<unknown>
    14f8: 00 00                        	<unknown>
    14fa: 00 00                        	<unknown>
    14fc: 00 00                        	<unknown>
    14fe: 04 00                        	<unknown>
    1500: 07 03 00 00                  	<unknown>
    1504: 74 61                        	<unknown>
    1506: 00 80                        	<unknown>
    1508: 00 00                        	<unknown>
    150a: 00 00                        	<unknown>
    150c: 00 00                        	<unknown>
    150e: 04 00                        	<unknown>
    1510: 18 03                        	<unknown>
    1512: 00 00                        	<unknown>
    1514: 70 61                        	<unknown>
    1516: 00 80                        	<unknown>
    1518: 00 00                        	<unknown>
    151a: 00 00                        	<unknown>
    151c: 00 00                        	<unknown>
    151e: 04 00                        	<unknown>
    1520: 2c 03                        	<unknown>
    1522: 00 00                        	<unknown>
    1524: 70 61                        	<unknown>
    1526: 00 80                        	<unknown>
    1528: 00 00                        	<unknown>
    152a: 00 00                        	<unknown>
    152c: 00 00                        	<unknown>
    152e: 04 00                        	<unknown>
    1530: 3f 03 00 00                  	<unknown>
    1534: 70 61                        	<unknown>
    1536: 00 80                        	<unknown>
    1538: 00 00                        	<unknown>
    153a: 00 00                        	<unknown>
    153c: 00 00                        	<unknown>
    153e: 04 00                        	<unknown>
    1540: 55 03                        	<unknown>
    1542: 00 00                        	<unknown>
    1544: 8c 37                        	<unknown>
    1546: 00 80                        	<unknown>
    1548: 08 00                        	<unknown>
    154a: 00 00                        	<unknown>
    154c: 12 00                        	<unknown>
    154e: 02 00                        	<unknown>
    1550: 5d 03                        	<unknown>
    1552: 00 00                        	<unknown>
    1554: 24 41                        	<unknown>
    1556: 00 80                        	<unknown>
    1558: 68 00                        	<unknown>
    155a: 00 00                        	<unknown>
    155c: 12 00                        	<unknown>
    155e: 02 00                        	<unknown>
    1560: 65 03                        	<unknown>
    1562: 00 00                        	<unknown>
    1564: 68 00                        	<unknown>
    1566: 00 80                        	<unknown>
    1568: 3c 11                        	<unknown>
    156a: 00 00                        	<unknown>
    156c: 12 00                        	<unknown>
    156e: 02 00                        	<unknown>
    1570: 8c 03                        	<unknown>
    1572: 00 00                        	<unknown>
    1574: a8 39                        	<unknown>
    1576: 00 80                        	<unknown>
    1578: 58 01                        	<unknown>
    157a: 00 00                        	<unknown>
    157c: 12 00                        	<unknown>
    157e: 02 00                        	<unknown>
    1580: 87 07 00 00                  	<unknown>
    1584: b0 3e                        	<unknown>
    1586: 00 80                        	<unknown>
    1588: 8c 00                        	<unknown>
    158a: 00 00                        	<unknown>
    158c: 12 00                        	<unknown>
    158e: 02 00                        	<unknown>
    1590: 9b 03 00 00                  	<unknown>
    1594: 0c 4b                        	<unknown>
    1596: 00 80                        	<unknown>
    1598: 04 00                        	<unknown>
    159a: 00 00                        	<unknown>
    159c: 12 00                        	<unknown>
    159e: 02 00                        	<unknown>
    15a0: ab 03 00 00                  	vx_tex	t2, zero, zero, zero
    15a4: 84 6a                        	<unknown>
    15a6: 00 80                        	<unknown>
    15a8: 04 00                        	<unknown>
    15aa: 00 00                        	<unknown>
    15ac: 11 00                        	<unknown>
    15ae: 08 00                        	<unknown>
    15b0: b1 03                        	<unknown>
    15b2: 00 00                        	<unknown>
    15b4: 04 6a                        	<unknown>
    15b6: 00 80                        	<unknown>
    15b8: 80 00                        	<unknown>
    15ba: 00 00                        	<unknown>
    15bc: 11 00                        	<unknown>
    15be: 08 00                        	<unknown>
    15c0: bf 03 00 00                  	<unknown>
    15c4: a8 69                        	<unknown>
    15c6: 00 80                        	<unknown>
    15c8: 00 00                        	<unknown>
    15ca: 00 00                        	<unknown>
    15cc: 10 00                        	<unknown>
    15ce: 06 00                        	<unknown>
    15d0: cf 03 00 00                  	<unknown>
    15d4: 30 2e                        	<unknown>
    15d6: 00 80                        	<unknown>
    15d8: cc 02                        	<unknown>
    15da: 00 00                        	<unknown>
    15dc: 22 00                        	<unknown>
    15de: 02 00                        	<unknown>
    15e0: e8 03                        	<unknown>
    15e2: 00 00                        	<unknown>
    15e4: 78 69                        	<unknown>
    15e6: 00 80                        	<unknown>
    15e8: 00 00                        	<unknown>
    15ea: 00 00                        	<unknown>
    15ec: 10 00                        	<unknown>
    15ee: f1 ff                        	<unknown>
    15f0: f9 03                        	<unknown>
    15f2: 00 00                        	<unknown>
    15f4: 3c 3f                        	<unknown>
    15f6: 00 80                        	<unknown>
    15f8: dc 00                        	<unknown>
    15fa: 00 00                        	<unknown>
    15fc: 12 00                        	<unknown>
    15fe: 02 00                        	<unknown>
    1600: 02 04                        	<unknown>
    1602: 00 00                        	<unknown>
    1604: d8 69                        	<unknown>
    1606: 00 80                        	<unknown>
    1608: 04 00                        	<unknown>
    160a: 00 00                        	<unknown>
    160c: 11 00                        	<unknown>
    160e: 07 00 13 04                  	<unknown>
    1612: 00 00                        	<unknown>
    1614: 8c 41                        	<unknown>
    1616: 00 80                        	<unknown>
    1618: 04 00                        	<unknown>
    161a: 00 00                        	<unknown>
    161c: 12 00                        	<unknown>
    161e: 02 00                        	<unknown>
    1620: 1d 04                        	<unknown>
    1622: 00 00                        	<unknown>
    1624: 18 40                        	<unknown>
    1626: 00 80                        	<unknown>
    1628: b8 00                        	<unknown>
    162a: 00 00                        	<unknown>
    162c: 12 00                        	<unknown>
    162e: 02 00                        	<unknown>
    1630: 2a 04                        	<unknown>
    1632: 00 00                        	<unknown>
    1634: 10 4b                        	<unknown>
    1636: 00 80                        	<unknown>
    1638: 60 00                        	<unknown>
    163a: 00 00                        	<unknown>
    163c: 12 00                        	<unknown>
    163e: 02 00                        	<unknown>
    1640: 32 04                        	<unknown>
    1642: 00 00                        	<unknown>
    1644: 64 33                        	<unknown>
    1646: 00 80                        	<unknown>
    1648: 70 02                        	<unknown>
    164a: 00 00                        	<unknown>
    164c: 22 00                        	<unknown>
    164e: 02 00                        	<unknown>
    1650: 87 04 00 00                  	<unknown>
    1654: d4 69                        	<unknown>
    1656: 00 80                        	<unknown>
    1658: 04 00                        	<unknown>
    165a: 00 00                        	<unknown>
    165c: 11 00                        	<unknown>
    165e: 07 00 9f 04                  	<unknown>
    1662: 00 00                        	<unknown>
    1664: a8 69                        	<unknown>
    1666: 00 80                        	<unknown>
    1668: 04 00                        	<unknown>
    166a: 00 00                        	<unknown>
    166c: 11 00                        	<unknown>
    166e: 06 00                        	<unknown>
    1670: b2 04                        	<unknown>
    1672: 00 00                        	<unknown>
    1674: 94 37                        	<unknown>
    1676: 00 80                        	<unknown>
    1678: 94 00                        	<unknown>
    167a: 00 00                        	<unknown>
    167c: 12 00                        	<unknown>
    167e: 02 00                        	<unknown>
    1680: c4 04                        	<unknown>
    1682: 00 00                        	<unknown>
    1684: 14 3d                        	<unknown>
    1686: 00 80                        	<unknown>
    1688: 18 00                        	<unknown>
    168a: 00 00                        	<unknown>
    168c: 12 00                        	<unknown>
    168e: 02 00                        	<unknown>
    1690: ca 04                        	<unknown>
    1692: 00 00                        	<unknown>
    1694: 78 37                        	<unknown>
    1696: 00 80                        	<unknown>
    1698: 0c 00                        	<unknown>
    169a: 00 00                        	<unknown>
    169c: 12 00                        	<unknown>
    169e: 02 00                        	<unknown>
    16a0: d0 04                        	<unknown>
    16a2: 00 00                        	<unknown>
    16a4: 28 38                        	<unknown>
    16a6: 00 80                        	<unknown>
    16a8: 5c 00                        	<unknown>
    16aa: 00 00                        	<unknown>
    16ac: 12 00                        	<unknown>
    16ae: 02 00                        	<unknown>
    16b0: e2 04                        	<unknown>
    16b2: 00 00                        	<unknown>
    16b4: b0 22                        	<unknown>
    16b6: 00 80                        	<unknown>
    16b8: c4 01                        	<unknown>
    16ba: 00 00                        	<unknown>
    16bc: 22 00                        	<unknown>
    16be: 02 00                        	<unknown>
    16c0: f8 04                        	<unknown>
    16c2: 00 00                        	<unknown>
    16c4: 48 37                        	<unknown>
    16c6: 00 80                        	<unknown>
    16c8: 00 00                        	<unknown>
    16ca: 00 00                        	<unknown>
    16cc: 12 00                        	<unknown>
    16ce: 02 00                        	<unknown>
    16d0: 02 05                        	<unknown>
    16d2: 00 00                        	<unknown>
    16d4: b0 4c                        	<unknown>
    16d6: 00 80                        	<unknown>
    16d8: 14 03                        	<unknown>
    16da: 00 00                        	<unknown>
    16dc: 12 00                        	<unknown>
    16de: 02 00                        	<unknown>
    16e0: 0a 05                        	<unknown>
    16e2: 00 00                        	<unknown>
    16e4: 2c 42                        	<unknown>
    16e6: 00 80                        	<unknown>
    16e8: 24 01                        	<unknown>
    16ea: 00 00                        	<unknown>
    16ec: 12 00                        	<unknown>
    16ee: 02 00                        	<unknown>
    16f0: 1b 05 00 00                  	<unknown>
    16f4: c8 69                        	<unknown>
    16f6: 00 80                        	<unknown>
    16f8: 04 00                        	<unknown>
    16fa: 00 00                        	<unknown>
    16fc: 11 00                        	<unknown>
    16fe: 06 00                        	<unknown>
    1700: e1 05                        	<unknown>
    1702: 00 00                        	<unknown>
    1704: 00 00                        	<unknown>
    1706: 00 80                        	<unknown>
    1708: 50 00                        	<unknown>
    170a: 00 00                        	<unknown>
    170c: 12 00                        	<unknown>
    170e: 01 00                        	<unknown>
    1710: cc 06                        	<unknown>
    1712: 00 00                        	<unknown>
    1714: e0 40                        	<unknown>
    1716: 00 80                        	<unknown>
    1718: 18 00                        	<unknown>
    171a: 00 00                        	<unknown>
    171c: 12 00                        	<unknown>
    171e: 02 00                        	<unknown>
    1720: 2e 05                        	<unknown>
    1722: 00 00                        	<unknown>
    1724: 90 41                        	<unknown>
    1726: 00 80                        	<unknown>
    1728: 9c 00                        	<unknown>
    172a: 00 00                        	<unknown>
    172c: 12 00                        	<unknown>
    172e: 02 00                        	<unknown>
    1730: 42 05                        	<unknown>
    1732: 00 00                        	<unknown>
    1734: 74 24                        	<unknown>
    1736: 00 80                        	<unknown>
    1738: 08 03                        	<unknown>
    173a: 00 00                        	<unknown>
    173c: 22 00                        	<unknown>
    173e: 02 00                        	<unknown>
    1740: 6c 05                        	<unknown>
    1742: 00 00                        	<unknown>
    1744: 64 29                        	<unknown>
    1746: 00 80                        	<unknown>
    1748: cc 04                        	<unknown>
    174a: 00 00                        	<unknown>
    174c: 22 00                        	<unknown>
    174e: 02 00                        	<unknown>
    1750: 9b 05 00 00                  	<unknown>
    1754: dc 69                        	<unknown>
    1756: 00 80                        	<unknown>
    1758: 28 00                        	<unknown>
    175a: 00 00                        	<unknown>
    175c: 11 00                        	<unknown>
    175e: 08 00                        	<unknown>
    1760: b5 05                        	<unknown>
    1762: 00 00                        	<unknown>
    1764: 88 6a                        	<unknown>
    1766: 00 80                        	<unknown>
    1768: 00 00                        	<unknown>
    176a: 00 00                        	<unknown>
    176c: 10 00                        	<unknown>
    176e: 08 00                        	<unknown>
    1770: c1 05                        	<unknown>
    1772: 00 00                        	<unknown>
    1774: a0 65                        	<unknown>
    1776: 00 80                        	<unknown>
    1778: 08 04                        	<unknown>
    177a: 00 00                        	<unknown>
    177c: 11 00                        	<unknown>
    177e: 05 00                        	<unknown>
    1780: ce 05                        	<unknown>
    1782: 00 00                        	<unknown>
    1784: 08 4b                        	<unknown>
    1786: 00 80                        	<unknown>
    1788: 04 00                        	<unknown>
    178a: 00 00                        	<unknown>
    178c: 12 00                        	<unknown>
    178e: 02 00                        	<unknown>
    1790: dc 05                        	<unknown>
    1792: 00 00                        	<unknown>
    1794: d0 69                        	<unknown>
    1796: 00 80                        	<unknown>
    1798: 00 00                        	<unknown>
    179a: 00 00                        	<unknown>
    179c: 10 00                        	<unknown>
    179e: 07 00 e8 05                  	<unknown>
    17a2: 00 00                        	<unknown>
    17a4: 74 3d                        	<unknown>
    17a6: 00 80                        	<unknown>
    17a8: dc 00                        	<unknown>
    17aa: 00 00                        	<unknown>
    17ac: 12 00                        	<unknown>
    17ae: 02 00                        	<unknown>
    17b0: ef 05 00 00                  	jal	a1, 0
    17b4: 80 20                        	<unknown>
    17b6: 00 80                        	<unknown>
    17b8: 30 02                        	<unknown>
    17ba: 00 00                        	<unknown>
    17bc: 12 00                        	<unknown>
    17be: 02 00                        	<unknown>
    17c0: f4 05                        	<unknown>
    17c2: 00 00                        	<unknown>
    17c4: d0 69                        	<unknown>
    17c6: 00 80                        	<unknown>
    17c8: 04 00                        	<unknown>
    17ca: 00 00                        	<unknown>
    17cc: 11 00                        	<unknown>
    17ce: 07 00 0b 06                  	<unknown>
    17d2: 00 00                        	<unknown>
    17d4: a4 11                        	<unknown>
    17d6: 00 80                        	<unknown>
    17d8: c8 0e                        	<unknown>
    17da: 00 00                        	<unknown>
    17dc: 12 00                        	<unknown>
    17de: 02 00                        	<unknown>
    17e0: 68 06                        	<unknown>
    17e2: 00 00                        	<unknown>
    17e4: fc 30                        	<unknown>
    17e6: 00 80                        	<unknown>
    17e8: 68 02                        	<unknown>
    17ea: 00 00                        	<unknown>
    17ec: 22 00                        	<unknown>
    17ee: 02 00                        	<unknown>
    17f0: bc 06                        	<unknown>
    17f2: 00 00                        	<unknown>
    17f4: 50 43                        	<unknown>
    17f6: 00 80                        	<unknown>
    17f8: b8 07                        	<unknown>
    17fa: 00 00                        	<unknown>
    17fc: 12 00                        	<unknown>
    17fe: 02 00                        	<unknown>
    1800: c6 06                        	<unknown>
    1802: 00 00                        	<unknown>
    1804: f8 40                        	<unknown>
    1806: 00 80                        	<unknown>
    1808: 1c 00                        	<unknown>
    180a: 00 00                        	<unknown>
    180c: 12 00                        	<unknown>
    180e: 02 00                        	<unknown>
    1810: d3 06 00 00                  	<unknown>
    1814: 70 4b                        	<unknown>
    1816: 00 80                        	<unknown>
    1818: 40 01                        	<unknown>
    181a: 00 00                        	<unknown>
    181c: 12 00                        	<unknown>
    181e: 02 00                        	<unknown>
    1820: e2 06                        	<unknown>
    1822: 00 00                        	<unknown>
    1824: 7c 27                        	<unknown>
    1826: 00 80                        	<unknown>
    1828: e8 01                        	<unknown>
    182a: 00 00                        	<unknown>
    182c: 22 00                        	<unknown>
    182e: 02 00                        	<unknown>
    1830: 0d 07                        	<unknown>
    1832: 00 00                        	<unknown>
    1834: 2c 3d                        	<unknown>
    1836: 00 80                        	<unknown>
    1838: 14 00                        	<unknown>
    183a: 00 00                        	<unknown>
    183c: 12 00                        	<unknown>
    183e: 02 00                        	<unknown>
    1840: a6 04                        	<unknown>
    1842: 00 00                        	<unknown>
    1844: c4 69                        	<unknown>
    1846: 00 80                        	<unknown>
    1848: 04 00                        	<unknown>
    184a: 00 00                        	<unknown>
    184c: 11 00                        	<unknown>
    184e: 06 00                        	<unknown>
    1850: 14 07                        	<unknown>
    1852: 00 00                        	<unknown>
    1854: 6c 20                        	<unknown>
    1856: 00 80                        	<unknown>
    1858: 14 00                        	<unknown>
    185a: 00 00                        	<unknown>
    185c: 12 00                        	<unknown>
    185e: 02 00                        	<unknown>
    1860: 3b 07 00 00                  	<unknown>
    1864: 78 61                        	<unknown>
    1866: 00 80                        	<unknown>
    1868: 00 00                        	<unknown>
    186a: 00 00                        	<unknown>
    186c: 10 00                        	<unknown>
    186e: 05 00                        	<unknown>
    1870: 4a 07                        	<unknown>
    1872: 00 00                        	<unknown>
    1874: d0 69                        	<unknown>
    1876: 00 80                        	<unknown>
    1878: 00 00                        	<unknown>
    187a: 00 00                        	<unknown>
    187c: 10 00                        	<unknown>
    187e: 06 00                        	<unknown>
    1880: ef 02 00 00                  	jal	t0, 0
    1884: 88 6a                        	<unknown>
    1886: 00 80                        	<unknown>
    1888: 00 00                        	<unknown>
    188a: 00 00                        	<unknown>
    188c: 10 00                        	<unknown>
    188e: 08 00                        	<unknown>
    1890: 51 07                        	<unknown>
    1892: 00 00                        	<unknown>
    1894: cc 69                        	<unknown>
    1896: 00 80                        	<unknown>
    1898: 04 00                        	<unknown>
    189a: 00 00                        	<unknown>
    189c: 11 00                        	<unknown>
    189e: 06 00                        	<unknown>
    18a0: 7d 07                        	<unknown>
    18a2: 00 00                        	<unknown>
    18a4: 40 3d                        	<unknown>
    18a6: 00 80                        	<unknown>
    18a8: 34 00                        	<unknown>
    18aa: 00 00                        	<unknown>
    18ac: 12 00                        	<unknown>
    18ae: 02 00                        	<unknown>
    18b0: 69 07                        	<unknown>
    18b2: 00 00                        	<unknown>
    18b4: 84 37                        	<unknown>
    18b6: 00 80                        	<unknown>
    18b8: 08 00                        	<unknown>
    18ba: 00 00                        	<unknown>
    18bc: 12 00                        	<unknown>
    18be: 02 00                        	<unknown>
    18c0: 6f 07 00 00                  	jal	a4, 0
    18c4: 00 3b                        	<unknown>
    18c6: 00 80                        	<unknown>
    18c8: 14 02                        	<unknown>
    18ca: 00 00                        	<unknown>
    18cc: 12 00                        	<unknown>
    18ce: 02 00                        	<unknown>
    18d0: 7c 07                        	<unknown>
    18d2: 00 00                        	<unknown>
    18d4: 34 37                        	<unknown>
    18d6: 00 80                        	<unknown>
    18d8: 00 00                        	<unknown>
    18da: 00 00                        	<unknown>
    18dc: 12 00                        	<unknown>
    18de: 02 00                        	<unknown>
    18e0: 82 07                        	<unknown>
    18e2: 00 00                        	<unknown>
    18e4: 9c 3e                        	<unknown>
    18e6: 00 80                        	<unknown>
    18e8: 14 00                        	<unknown>
    18ea: 00 00                        	<unknown>
    18ec: 12 00                        	<unknown>
    18ee: 02 00                        	<unknown>
    18f0: 91 07                        	<unknown>
    18f2: 00 00                        	<unknown>
    18f4: d4 35                        	<unknown>
    18f6: 00 80                        	<unknown>
    18f8: 60 01                        	<unknown>
    18fa: 00 00                        	<unknown>
    18fc: 22 00                        	<unknown>
    18fe: 02 00                        	<unknown>
    1900: e3 07 00 00                  	beqz	zero, 2062
    1904: 14 41                        	<unknown>
    1906: 00 80                        	<unknown>
    1908: 10 00                        	<unknown>
    190a: 00 00                        	<unknown>
    190c: 12 00                        	<unknown>
    190e: 02 00                        	<unknown>
    1910: ee 07                        	<unknown>
    1912: 00 00                        	<unknown>
    1914: d0 40                        	<unknown>
    1916: 00 80                        	<unknown>
    1918: 10 00                        	<unknown>
    191a: 00 00                        	<unknown>
    191c: 12 00                        	<unknown>
    191e: 02 00                        	<unknown>

Disassembly of section .strtab:

00000000 .strtab:
       0: 00 76                        	<unknown>
       2: 78 5f                        	<unknown>
       4: 73 74 61 72                  	csrrci	s0, 1830, 2
       8: 74 2e                        	<unknown>
       a: 53 2e 6f 00                  	<unknown>
       e: 52 45                        	<unknown>
      10: 54 55                        	<unknown>
      12: 52 4e                        	<unknown>
      14: 00 5f                        	<unknown>
      16: 5f 63 61 6c                  	<unknown>
      1a: 6c 5f                        	<unknown>
      1c: 61 74                        	<unknown>
      1e: 65 78                        	<unknown>
      20: 69 74                        	<unknown>
      22: 2e 63                        	<unknown>
      24: 00 72                        	<unknown>
      26: 65 67                        	<unknown>
      28: 69 73                        	<unknown>
      2a: 74 65                        	<unknown>
      2c: 72 5f                        	<unknown>
      2e: 66 69                        	<unknown>
      30: 6e 69                        	<unknown>
      32: 00 6b                        	<unknown>
      34: 65 72                        	<unknown>
      36: 6e 65                        	<unknown>
      38: 6c 2e                        	<unknown>
      3a: 63 70 70 00                  	bgeu	zero, t2, 0
      3e: 72 65                        	<unknown>
      40: 67 5f 61 30                  	<unknown>
      44: 00 72                        	<unknown>
      46: 65 67                        	<unknown>
      48: 5f 61 31 00                  	<unknown>
      4c: 72 65                        	<unknown>
      4e: 67 5f 61 32                  	<unknown>
      52: 00 72                        	<unknown>
      54: 65 67                        	<unknown>
      56: 5f 61 33 00                  	<unknown>
      5a: 72 65                        	<unknown>
      5c: 67 5f 61 34                  	<unknown>
      60: 00 72                        	<unknown>
      62: 65 67                        	<unknown>
      64: 5f 61 35 00                  	<unknown>
      68: 72 65                        	<unknown>
      6a: 67 5f 61 36                  	<unknown>
      6e: 00 72                        	<unknown>
      70: 65 67                        	<unknown>
      72: 5f 61 37 00                  	<unknown>
      76: 72 65                        	<unknown>
      78: 67 5f 67 70                  	<unknown>
      7c: 00 72                        	<unknown>
      7e: 65 67                        	<unknown>
      80: 5f 72 61 00                  	<unknown>
      84: 72 65                        	<unknown>
      86: 67 5f 73 30                  	<unknown>
      8a: 00 72                        	<unknown>
      8c: 65 67                        	<unknown>
      8e: 5f 73 31 00                  	<unknown>
      92: 72 65                        	<unknown>
      94: 67 5f 73 31                  	<unknown>
      98: 30 00                        	<unknown>
      9a: 72 65                        	<unknown>
      9c: 67 5f 73 31                  	<unknown>
      a0: 31 00                        	<unknown>
      a2: 72 65                        	<unknown>
      a4: 67 5f 73 32                  	<unknown>
      a8: 00 72                        	<unknown>
      aa: 65 67                        	<unknown>
      ac: 5f 73 33 00                  	<unknown>
      b0: 72 65                        	<unknown>
      b2: 67 5f 73 34                  	<unknown>
      b6: 00 72                        	<unknown>
      b8: 65 67                        	<unknown>
      ba: 5f 73 35 00                  	<unknown>
      be: 72 65                        	<unknown>
      c0: 67 5f 73 36                  	<unknown>
      c4: 00 72                        	<unknown>
      c6: 65 67                        	<unknown>
      c8: 5f 73 37 00                  	<unknown>
      cc: 72 65                        	<unknown>
      ce: 67 5f 73 38                  	<unknown>
      d2: 00 72                        	<unknown>
      d4: 65 67                        	<unknown>
      d6: 5f 73 39 00                  	<unknown>
      da: 72 65                        	<unknown>
      dc: 67 5f 73 70                  	<unknown>
      e0: 00 72                        	<unknown>
      e2: 65 67                        	<unknown>
      e4: 5f 74 30 00                  	<unknown>
      e8: 72 65                        	<unknown>
      ea: 67 5f 74 31                  	<unknown>
      ee: 00 72                        	<unknown>
      f0: 65 67                        	<unknown>
      f2: 5f 74 32 00                  	<unknown>
      f6: 72 65                        	<unknown>
      f8: 67 5f 74 33                  	<unknown>
      fc: 00 72                        	<unknown>
      fe: 65 67                        	<unknown>
     100: 5f 74 34 00                  	<unknown>
     104: 72 65                        	<unknown>
     106: 67 5f 74 35                  	<unknown>
     10a: 00 72                        	<unknown>
     10c: 65 67                        	<unknown>
     10e: 5f 74 36 00                  	<unknown>
     112: 72 65                        	<unknown>
     114: 67 5f 74 70                  	<unknown>
     118: 00 72                        	<unknown>
     11a: 65 67                        	<unknown>
     11c: 5f 78 30 00                  	<unknown>
     120: 72 65                        	<unknown>
     122: 67 5f 78 31                  	<unknown>
     126: 00 72                        	<unknown>
     128: 65 67                        	<unknown>
     12a: 5f 78 31 30                  	<unknown>
     12e: 00 72                        	<unknown>
     130: 65 67                        	<unknown>
     132: 5f 78 31 31                  	<unknown>
     136: 00 72                        	<unknown>
     138: 65 67                        	<unknown>
     13a: 5f 78 31 32                  	<unknown>
     13e: 00 72                        	<unknown>
     140: 65 67                        	<unknown>
     142: 5f 78 31 33                  	<unknown>
     146: 00 72                        	<unknown>
     148: 65 67                        	<unknown>
     14a: 5f 78 31 34                  	<unknown>
     14e: 00 72                        	<unknown>
     150: 65 67                        	<unknown>
     152: 5f 78 31 35                  	<unknown>
     156: 00 72                        	<unknown>
     158: 65 67                        	<unknown>
     15a: 5f 78 31 36                  	<unknown>
     15e: 00 72                        	<unknown>
     160: 65 67                        	<unknown>
     162: 5f 78 31 37                  	<unknown>
     166: 00 72                        	<unknown>
     168: 65 67                        	<unknown>
     16a: 5f 78 31 38                  	<unknown>
     16e: 00 72                        	<unknown>
     170: 65 67                        	<unknown>
     172: 5f 78 31 39                  	<unknown>
     176: 00 72                        	<unknown>
     178: 65 67                        	<unknown>
     17a: 5f 78 32 00                  	<unknown>
     17e: 72 65                        	<unknown>
     180: 67 5f 78 32                  	<unknown>
     184: 30 00                        	<unknown>
     186: 72 65                        	<unknown>
     188: 67 5f 78 32                  	<unknown>
     18c: 31 00                        	<unknown>
     18e: 72 65                        	<unknown>
     190: 67 5f 78 32                  	<unknown>
     194: 32 00                        	<unknown>
     196: 72 65                        	<unknown>
     198: 67 5f 78 32                  	<unknown>
     19c: 33 00 72 65                  	<unknown>
     1a0: 67 5f 78 32                  	<unknown>
     1a4: 34 00                        	<unknown>
     1a6: 72 65                        	<unknown>
     1a8: 67 5f 78 32                  	<unknown>
     1ac: 35 00                        	<unknown>
     1ae: 72 65                        	<unknown>
     1b0: 67 5f 78 32                  	<unknown>
     1b4: 36 00                        	<unknown>
     1b6: 72 65                        	<unknown>
     1b8: 67 5f 78 32                  	<unknown>
     1bc: 37 00 72 65                  	lui	zero, 415520
     1c0: 67 5f 78 32                  	<unknown>
     1c4: 38 00                        	<unknown>
     1c6: 72 65                        	<unknown>
     1c8: 67 5f 78 32                  	<unknown>
     1cc: 39 00                        	<unknown>
     1ce: 72 65                        	<unknown>
     1d0: 67 5f 78 33                  	<unknown>
     1d4: 00 72                        	<unknown>
     1d6: 65 67                        	<unknown>
     1d8: 5f 78 33 30                  	<unknown>
     1dc: 00 72                        	<unknown>
     1de: 65 67                        	<unknown>
     1e0: 5f 78 33 31                  	<unknown>
     1e4: 00 72                        	<unknown>
     1e6: 65 67                        	<unknown>
     1e8: 5f 78 34 00                  	<unknown>
     1ec: 72 65                        	<unknown>
     1ee: 67 5f 78 35                  	<unknown>
     1f2: 00 72                        	<unknown>
     1f4: 65 67                        	<unknown>
     1f6: 5f 78 36 00                  	<unknown>
     1fa: 72 65                        	<unknown>
     1fc: 67 5f 78 37                  	<unknown>
     200: 00 72                        	<unknown>
     202: 65 67                        	<unknown>
     204: 5f 78 38 00                  	<unknown>
     208: 72 65                        	<unknown>
     20a: 67 5f 78 39                  	<unknown>
     20e: 00 72                        	<unknown>
     210: 65 67                        	<unknown>
     212: 5f 7a 65 72                  	<unknown>
     216: 6f 00 76 78                  	j	397190
     21a: 5f 73 79 73                  	<unknown>
     21e: 63 61 6c 6c                  	bltu	s8, t1, 1730
     222: 73 2e 63 00                  	csrrs	t3, 6, t1
     226: 76 78                        	<unknown>
     228: 5f 73 70 61                  	<unknown>
     22c: 77 6e 2e 63                  	<unknown>
     230: 00 73                        	<unknown>
     232: 70 61                        	<unknown>
     234: 77 6e 5f 74                  	<unknown>
     238: 61 73                        	<unknown>
     23a: 6b 73 5f 61                  	<unknown>
     23e: 6c 6c                        	<unknown>
     240: 5f 73 74 75                  	<unknown>
     244: 62 00                        	<unknown>
     246: 73 70 61 77                  	csrci	1910, 2
     24a: 6e 5f                        	<unknown>
     24c: 74 61                        	<unknown>
     24e: 73 6b 73 5f                  	csrrsi	s6, 1527, 6
     252: 72 65                        	<unknown>
     254: 6d 5f                        	<unknown>
     256: 73 74 75 62                  	csrrci	s0, 1575, 10
     25a: 00 73                        	<unknown>
     25c: 70 61                        	<unknown>
     25e: 77 6e 5f 74                  	<unknown>
     262: 61 73                        	<unknown>
     264: 6b 73 5f 61                  	<unknown>
     268: 6c 6c                        	<unknown>
     26a: 5f 63 62 00                  	<unknown>
     26e: 76 78                        	<unknown>
     270: 5f 70 65 72                  	<unknown>
     274: 66 2e                        	<unknown>
     276: 63 00 61 62                  	beq	sp, t1, 1568
     27a: 6f 72 74 2e                  	jal	tp, 293606
     27e: 63 00 73 69                  	beq	t1, s7, 1664
     282: 67 6e 61 6c                  	<unknown>
     286: 2e 63                        	<unknown>
     288: 00 5f                        	<unknown>
     28a: 69 6e                        	<unknown>
     28c: 69 74                        	<unknown>
     28e: 5f 73 69 67                  	<unknown>
     292: 6e 61                        	<unknown>
     294: 6c 5f                        	<unknown>
     296: 72 2e                        	<unknown>
     298: 70 61                        	<unknown>
     29a: 72 74                        	<unknown>
     29c: 2e 30                        	<unknown>
     29e: 00 73                        	<unknown>
     2a0: 69 67                        	<unknown>
     2a2: 6e 61                        	<unknown>
     2a4: 6c 72                        	<unknown>
     2a6: 2e 63                        	<unknown>
     2a8: 00 5f                        	<unknown>
     2aa: 5f 61 74 65                  	<unknown>
     2ae: 78 69                        	<unknown>
     2b0: 74 2e                        	<unknown>
     2b2: 63 00 6d 61                  	beq	s10, s6, 1536
     2b6: 6c 6c                        	<unknown>
     2b8: 6f 63 72 2e                  	jal	t1, 158438
     2bc: 63 00 6d 6c                  	beq	s10, t1, 1728
     2c0: 6f 63 6b 2e                  	jal	t1, 746214
     2c4: 63 00 73 62                  	beq	t1, t2, 1568
     2c8: 72 6b                        	<unknown>
     2ca: 72 2e                        	<unknown>
     2cc: 63 00 69 6d                  	beq	s2, s6, 1728
     2d0: 70 75                        	<unknown>
     2d2: 72 65                        	<unknown>
     2d4: 2e 63                        	<unknown>
     2d6: 00 69                        	<unknown>
     2d8: 6d 70                        	<unknown>
     2da: 75 72                        	<unknown>
     2dc: 65 5f                        	<unknown>
     2de: 64 61                        	<unknown>
     2e0: 74 61                        	<unknown>
     2e2: 00 5f                        	<unknown>
     2e4: 5f 66 69 6e                  	<unknown>
     2e8: 69 5f                        	<unknown>
     2ea: 61 72                        	<unknown>
     2ec: 72 61                        	<unknown>
     2ee: 79 5f                        	<unknown>
     2f0: 65 6e                        	<unknown>
     2f2: 64 00                        	<unknown>
     2f4: 5f 5f 66 69                  	<unknown>
     2f8: 6e 69                        	<unknown>
     2fa: 5f 61 72 72                  	<unknown>
     2fe: 61 79                        	<unknown>
     300: 5f 73 74 61                  	<unknown>
     304: 72 74                        	<unknown>
     306: 00 5f                        	<unknown>
     308: 5f 69 6e 69                  	<unknown>
     30c: 74 5f                        	<unknown>
     30e: 61 72                        	<unknown>
     310: 72 61                        	<unknown>
     312: 79 5f                        	<unknown>
     314: 65 6e                        	<unknown>
     316: 64 00                        	<unknown>
     318: 5f 5f 70 72                  	<unknown>
     31c: 65 69                        	<unknown>
     31e: 6e 69                        	<unknown>
     320: 74 5f                        	<unknown>
     322: 61 72                        	<unknown>
     324: 72 61                        	<unknown>
     326: 79 5f                        	<unknown>
     328: 65 6e                        	<unknown>
     32a: 64 00                        	<unknown>
     32c: 5f 5f 69 6e                  	<unknown>
     330: 69 74                        	<unknown>
     332: 5f 61 72 72                  	<unknown>
     336: 61 79                        	<unknown>
     338: 5f 73 74 61                  	<unknown>
     33c: 72 74                        	<unknown>
     33e: 00 5f                        	<unknown>
     340: 5f 70 72 65                  	<unknown>
     344: 69 6e                        	<unknown>
     346: 69 74                        	<unknown>
     348: 5f 61 72 72                  	<unknown>
     34c: 61 79                        	<unknown>
     34e: 5f 73 74 61                  	<unknown>
     352: 72 74                        	<unknown>
     354: 00 5f                        	<unknown>
     356: 67 65 74 70                  	<unknown>
     35a: 69 64                        	<unknown>
     35c: 00 5f                        	<unknown>
     35e: 6b 69 6c 6c                  	<unknown>
     362: 5f 72 00 5f                  	<unknown>
     366: 5a 31                        	<unknown>
     368: 38 73                        	<unknown>
     36a: 68 61                        	<unknown>
     36c: 64 65                        	<unknown>
     36e: 72 5f                        	<unknown>
     370: 66 75                        	<unknown>
     372: 6e 63                        	<unknown>
     374: 74 69                        	<unknown>
     376: 6f 6e 5f 68                  	jal	t3, 1011332
     37a: 77 69 50 31                  	<unknown>
     37e: 32 6b                        	<unknown>
     380: 65 72                        	<unknown>
     382: 6e 65                        	<unknown>
     384: 6c 5f                        	<unknown>
     386: 61 72                        	<unknown>
     388: 67 5f 74 00                  	<unknown>
     38c: 76 78                        	<unknown>
     38e: 5f 73 70 61                  	<unknown>
     392: 77 6e 5f 74                  	<unknown>
     396: 61 73                        	<unknown>
     398: 6b 73 00 5f                  	<unknown>
     39c: 5f 6d 61 6c                  	<unknown>
     3a0: 6c 6f                        	<unknown>
     3a2: 63 5f 75 6e                  	bge	a0, t2, 1790
     3a6: 6c 6f                        	<unknown>
     3a8: 63 6b 00 65                  	bltu	zero, a6, 1622
     3ac: 72 72                        	<unknown>
     3ae: 6e 6f                        	<unknown>
     3b0: 00 67                        	<unknown>
     3b2: 5f 77 73 70                  	<unknown>
     3b6: 61 77                        	<unknown>
     3b8: 6e 5f                        	<unknown>
     3ba: 61 72                        	<unknown>
     3bc: 67 73 00 5f                  	<unknown>
     3c0: 5f 53 44 41                  	<unknown>
     3c4: 54 41                        	<unknown>
     3c6: 5f 42 45 47                  	<unknown>
     3ca: 49 4e                        	<unknown>
     3cc: 5f 5f 00 5f                  	<unknown>
     3d0: 5a 4e                        	<unknown>
     3d2: 31 30                        	<unknown>
     3d4: 52 61                        	<unknown>
     3d6: 73 74 65 72                  	csrrci	s0, 1830, 10
     3da: 69 7a                        	<unknown>
     3dc: 65 72                        	<unknown>
     3de: 36 72                        	<unknown>
     3e0: 65 6e                        	<unknown>
     3e2: 64 65                        	<unknown>
     3e4: 72 45                        	<unknown>
     3e6: 6a 00                        	<unknown>
     3e8: 5f 5f 67 6c                  	<unknown>
     3ec: 6f 62 61 6c                  	jal	tp, 91846
     3f0: 5f 70 6f 69                  	<unknown>
     3f4: 6e 74                        	<unknown>
     3f6: 65 72                        	<unknown>
     3f8: 00 5f                        	<unknown>
     3fa: 72 61                        	<unknown>
     3fc: 69 73                        	<unknown>
     3fe: 65 5f                        	<unknown>
     400: 72 00                        	<unknown>
     402: 5f 5f 6d 61                  	<unknown>
     406: 6c 6c                        	<unknown>
     408: 6f 63 5f 74                  	jal	t1, 1011524
     40c: 6f 70 5f 70                  	j	1015556
     410: 61 64                        	<unknown>
     412: 00 5f                        	<unknown>
     414: 67 65 74 70                  	<unknown>
     418: 69 64                        	<unknown>
     41a: 5f 72 00 5f                  	<unknown>
     41e: 5f 73 69 67                  	<unknown>
     422: 74 72                        	<unknown>
     424: 61 6d                        	<unknown>
     426: 70 5f                        	<unknown>
     428: 72 00                        	<unknown>
     42a: 5f 73 62 72                  	<unknown>
     42e: 6b 5f 72 00                  	<unknown>
     432: 5f 5a 4e 31                  	<unknown>
     436: 30 52                        	<unknown>
     438: 61 73                        	<unknown>
     43a: 74 65                        	<unknown>
     43c: 72 69                        	<unknown>
     43e: 7a 65                        	<unknown>
     440: 72 31                        	<unknown>
     442: 31 72                        	<unknown>
     444: 65 6e                        	<unknown>
     446: 64 65                        	<unknown>
     448: 72 42                        	<unknown>
     44a: 6c 6f                        	<unknown>
     44c: 63 6b 45 6a                  	bltu	a0, tp, 1718
     450: 6a 6a                        	<unknown>
     452: 52 4b                        	<unknown>
     454: 4e 53                        	<unknown>
     456: 5f 31 31 70                  	<unknown>
     45a: 72 69                        	<unknown>
     45c: 6d 69                        	<unknown>
     45e: 74 69                        	<unknown>
     460: 76 65                        	<unknown>
     462: 5f 74 45 6a                  	<unknown>
     466: 6a 4e                        	<unknown>
     468: 37 63 6f 63                  	lui	t1, 407286
     46c: 6f 67 66 78                  	jal	a4, 419718
     470: 36 54                        	<unknown>
     472: 46 69                        	<unknown>
     474: 78 65                        	<unknown>
     476: 64 49                        	<unknown>
     478: 4c 6a                        	<unknown>
     47a: 31 36                        	<unknown>
     47c: 45 69                        	<unknown>
     47e: 45 45                        	<unknown>
     480: 53 35 5f 53                  	<unknown>
     484: 35 5f                        	<unknown>
     486: 00 5f                        	<unknown>
     488: 5f 6d 61 6c                  	<unknown>
     48c: 6c 6f                        	<unknown>
     48e: 63 5f 6d 61                  	bge	s10, s6, 1566
     492: 78 5f                        	<unknown>
     494: 73 62 72 6b                  	csrrsi	tp, 1719, 4
     498: 65 64                        	<unknown>
     49a: 5f 6d 65 6d                  	<unknown>
     49e: 00 5f                        	<unknown>
     4a0: 67 6c 6f 62                  	<unknown>
     4a4: 61 6c                        	<unknown>
     4a6: 5f 69 6d 70                  	<unknown>
     4aa: 75 72                        	<unknown>
     4ac: 65 5f                        	<unknown>
     4ae: 70 74                        	<unknown>
     4b0: 72 00                        	<unknown>
     4b2: 5f 5f 6c 69                  	<unknown>
     4b6: 62 63                        	<unknown>
     4b8: 5f 69 6e 69                  	<unknown>
     4bc: 74 5f                        	<unknown>
     4be: 61 72                        	<unknown>
     4c0: 72 61                        	<unknown>
     4c2: 79 00                        	<unknown>
     4c4: 61 62                        	<unknown>
     4c6: 6f 72 74 00                  	jal	tp, 292870
     4ca: 5f 73 62 72                  	<unknown>
     4ce: 6b 00 5f 5f                  	<unknown>
     4d2: 6c 69                        	<unknown>
     4d4: 62 63                        	<unknown>
     4d6: 5f 66 69 6e                  	<unknown>
     4da: 69 5f                        	<unknown>
     4dc: 61 72                        	<unknown>
     4de: 72 61                        	<unknown>
     4e0: 79 00                        	<unknown>
     4e2: 5f 5a 4e 37                  	<unknown>
     4e6: 42 6c                        	<unknown>
     4e8: 65 6e                        	<unknown>
     4ea: 64 65                        	<unknown>
     4ec: 72 35                        	<unknown>
     4ee: 77 72 69 74                  	<unknown>
     4f2: 65 45                        	<unknown>
     4f4: 6a 6a                        	<unknown>
     4f6: 6a 00                        	<unknown>
     4f8: 76 78                        	<unknown>
     4fa: 5f 73 65 74                  	<unknown>
     4fe: 5f 73 70 00                  	<unknown>
     502: 5f 66 72 65                  	<unknown>
     506: 65 5f                        	<unknown>
     508: 72 00                        	<unknown>
     50a: 5f 5f 63 61                  	<unknown>
     50e: 6c 6c                        	<unknown>
     510: 5f 65 78 69                  	<unknown>
     514: 74 70                        	<unknown>
     516: 72 6f                        	<unknown>
     518: 63 73 00 5f                  	bgeu	zero, a6, 1510
     51c: 5f 6d 61 6c                  	<unknown>
     520: 6c 6f                        	<unknown>
     522: 63 5f 73 62                  	bge	t1, t2, 1598
     526: 72 6b                        	<unknown>
     528: 5f 62 61 73                  	<unknown>
     52c: 65 00                        	<unknown>
     52e: 5f 5f 72 65                  	<unknown>
     532: 67 69 73 74                  	<unknown>
     536: 65 72                        	<unknown>
     538: 5f 65 78 69                  	<unknown>
     53c: 74 70                        	<unknown>
     53e: 72 6f                        	<unknown>
     540: 63 00 5f 5a                  	beq	t5, t0, 1440
     544: 4e 31                        	<unknown>
     546: 31 44                        	<unknown>
     548: 65 70                        	<unknown>
     54a: 74 68                        	<unknown>
     54c: 54 65                        	<unknown>
     54e: 6e 63                        	<unknown>
     550: 69 6c                        	<unknown>
     552: 31 38                        	<unknown>
     554: 64 6f                        	<unknown>
     556: 44 65                        	<unknown>
     558: 70 74                        	<unknown>
     55a: 68 53                        	<unknown>
     55c: 74 65                        	<unknown>
     55e: 6e 63                        	<unknown>
     560: 69 6c                        	<unknown>
     562: 54 65                        	<unknown>
     564: 73 74 45 6a                  	csrrci	s0, 1700, 10
     568: 6a 6a                        	<unknown>
     56a: 6a 00                        	<unknown>
     56c: 5f 5a 31 31                  	<unknown>
     570: 44 6f                        	<unknown>
     572: 42 6c                        	<unknown>
     574: 65 6e                        	<unknown>
     576: 64 4d                        	<unknown>
     578: 6f 64 65 6a                  	jal	s0, 353958
     57c: 6a 4e                        	<unknown>
     57e: 37 63 6f 63                  	lui	t1, 407286
     582: 6f 67 66 78                  	jal	a4, 419718
     586: 39 43                        	<unknown>
     588: 6f 6c 6f 72                  	jal	s8, 1009446
     58c: 41 52                        	<unknown>
     58e: 47 42 45 53                  	<unknown>
     592: 30 5f                        	<unknown>
     594: 53 30 5f 53                  	<unknown>
     598: 30 5f                        	<unknown>
     59a: 00 5f                        	<unknown>
     59c: 5f 6d 61 6c                  	<unknown>
     5a0: 6c 6f                        	<unknown>
     5a2: 63 5f 63 75                  	bge	t1, s6, 1886
     5a6: 72 72                        	<unknown>
     5a8: 65 6e                        	<unknown>
     5aa: 74 5f                        	<unknown>
     5ac: 6d 61                        	<unknown>
     5ae: 6c 6c                        	<unknown>
     5b0: 69 6e                        	<unknown>
     5b2: 66 6f                        	<unknown>
     5b4: 00 5f                        	<unknown>
     5b6: 5f 42 53 53                  	<unknown>
     5ba: 5f 45 4e 44                  	<unknown>
     5be: 5f 5f 00 5f                  	<unknown>
     5c2: 5f 6d 61 6c                  	<unknown>
     5c6: 6c 6f                        	<unknown>
     5c8: 63 5f 61 76                  	bge	sp, t1, 1918
     5cc: 5f 00 5f 5f                  	<unknown>
     5d0: 6d 61                        	<unknown>
     5d2: 6c 6c                        	<unknown>
     5d4: 6f 63 5f 6c                  	jal	t1, 1011396
     5d8: 6f 63 6b 00                  	jal	t1, 745478
     5dc: 5f 5f 62 73                  	<unknown>
     5e0: 73 5f 73 74                  	csrrwi	t5, 1863, 6
     5e4: 61 72                        	<unknown>
     5e6: 74 00                        	<unknown>
     5e8: 6d 65                        	<unknown>
     5ea: 6d 73                        	<unknown>
     5ec: 65 74                        	<unknown>
     5ee: 00 6d                        	<unknown>
     5f0: 61 69                        	<unknown>
     5f2: 6e 00                        	<unknown>
     5f4: 5f 5f 6d 61                  	<unknown>
     5f8: 6c 6c                        	<unknown>
     5fa: 6f 63 5f 6d                  	jal	t1, 1011412
     5fe: 61 78                        	<unknown>
     600: 5f 74 6f 74                  	<unknown>
     604: 61 6c                        	<unknown>
     606: 5f 6d 65 6d                  	<unknown>
     60a: 00 5f                        	<unknown>
     60c: 5a 32                        	<unknown>
     60e: 36 73                        	<unknown>
     610: 68 61                        	<unknown>
     612: 64 65                        	<unknown>
     614: 72 5f                        	<unknown>
     616: 66 75                        	<unknown>
     618: 6e 63                        	<unknown>
     61a: 74 69                        	<unknown>
     61c: 6f 6e 5f 73                  	jal	t3, 1011508
     620: 77 5f 72 61                  	<unknown>
     624: 73 74 5f 63                  	csrrci	s0, 1589, 30
     628: 62 50                        	<unknown>
     62a: 31 32                        	<unknown>
     62c: 6b 65 72 6e                  	<unknown>
     630: 65 6c                        	<unknown>
     632: 5f 61 72 67                  	<unknown>
     636: 5f 74 6a 6a                  	<unknown>
     63a: 6a 50                        	<unknown>
     63c: 4b 4e 37 63                  	<unknown>
     640: 6f 63 6f 67                  	jal	t1, 1009270
     644: 66 78                        	<unknown>
     646: 38 54                        	<unknown>
     648: 56 65                        	<unknown>
     64a: 63 74 6f 72                  	bgeu	t5, t1, 1832
     64e: 33 49 4e 53                  	<unknown>
     652: 31 5f                        	<unknown>
     654: 36 54                        	<unknown>
     656: 46 69                        	<unknown>
     658: 78 65                        	<unknown>
     65a: 64 49                        	<unknown>
     65c: 4c 6a                        	<unknown>
     65e: 31 36                        	<unknown>
     660: 45 69                        	<unknown>
     662: 45 45                        	<unknown>
     664: 45 45                        	<unknown>
     666: 6a 00                        	<unknown>
     668: 5f 5a 4e 31                  	<unknown>
     66c: 30 52                        	<unknown>
     66e: 61 73                        	<unknown>
     670: 74 65                        	<unknown>
     672: 72 69                        	<unknown>
     674: 7a 65                        	<unknown>
     676: 72 31                        	<unknown>
     678: 30 72                        	<unknown>
     67a: 65 6e                        	<unknown>
     67c: 64 65                        	<unknown>
     67e: 72 54                        	<unknown>
     680: 69 6c                        	<unknown>
     682: 65 45                        	<unknown>
     684: 6a 6a                        	<unknown>
     686: 6a 52                        	<unknown>
     688: 4b 4e 53 5f                  	<unknown>
     68c: 31 31                        	<unknown>
     68e: 70 72                        	<unknown>
     690: 69 6d                        	<unknown>
     692: 69 74                        	<unknown>
     694: 69 76                        	<unknown>
     696: 65 5f                        	<unknown>
     698: 74 45                        	<unknown>
     69a: 6a 6a                        	<unknown>
     69c: 4e 37                        	<unknown>
     69e: 63 6f 63 6f                  	bltu	t1, s6, 1790
     6a2: 67 66 78 36                  	<unknown>
     6a6: 54 46                        	<unknown>
     6a8: 69 78                        	<unknown>
     6aa: 65 64                        	<unknown>
     6ac: 49 4c                        	<unknown>
     6ae: 6a 31                        	<unknown>
     6b0: 36 45                        	<unknown>
     6b2: 69 45                        	<unknown>
     6b4: 45 53                        	<unknown>
     6b6: 35 5f                        	<unknown>
     6b8: 53 35 5f 00                  	<unknown>
     6bc: 5f 6d 61 6c                  	<unknown>
     6c0: 6c 6f                        	<unknown>
     6c2: 63 5f 72 00                  	bge	tp, t2, 30
     6c6: 5f 69 6e 69                  	<unknown>
     6ca: 74 5f                        	<unknown>
     6cc: 73 69 67 6e                  	csrrsi	s2, 1766, 14
     6d0: 61 6c                        	<unknown>
     6d2: 00 5f                        	<unknown>
     6d4: 6d 61                        	<unknown>
     6d6: 6c 6c                        	<unknown>
     6d8: 6f 63 5f 74                  	jal	t1, 1011524
     6dc: 72 69                        	<unknown>
     6de: 6d 5f                        	<unknown>
     6e0: 72 00                        	<unknown>
     6e2: 5f 5a 31 31                  	<unknown>
     6e6: 44 6f                        	<unknown>
     6e8: 42 6c                        	<unknown>
     6ea: 65 6e                        	<unknown>
     6ec: 64 46                        	<unknown>
     6ee: 75 6e                        	<unknown>
     6f0: 63 6a 4e 37                  	bltu	t3, s4, 884
     6f4: 63 6f 63 6f                  	bltu	t1, s6, 1790
     6f8: 67 66 78 39                  	<unknown>
     6fc: 43 6f 6c 6f                  	<unknown>
     700: 72 41                        	<unknown>
     702: 52 47                        	<unknown>
     704: 42 45                        	<unknown>
     706: 53 30 5f 53                  	<unknown>
     70a: 30 5f                        	<unknown>
     70c: 00 61                        	<unknown>
     70e: 74 65                        	<unknown>
     710: 78 69                        	<unknown>
     712: 74 00                        	<unknown>
     714: 5f 5a 31 38                  	<unknown>
     718: 73 68 61 64                  	csrrsi	a6, 1606, 2
     71c: 65 72                        	<unknown>
     71e: 5f 66 75 6e                  	<unknown>
     722: 63 74 69 6f                  	bgeu	s2, s6, 1768
     726: 6e 5f                        	<unknown>
     728: 73 77 69 50                  	csrrci	a4, 1286, 18
     72c: 31 32                        	<unknown>
     72e: 6b 65 72 6e                  	<unknown>
     732: 65 6c                        	<unknown>
     734: 5f 61 72 67                  	<unknown>
     738: 5f 74 00 5f                  	<unknown>
     73c: 5f 44 41 54                  	<unknown>
     740: 41 5f                        	<unknown>
     742: 42 45                        	<unknown>
     744: 47 49 4e 5f                  	<unknown>
     748: 5f 00 5f 65                  	<unknown>
     74c: 64 61                        	<unknown>
     74e: 74 61                        	<unknown>
     750: 00 5f                        	<unknown>
     752: 5f 6d 61 6c                  	<unknown>
     756: 6c 6f                        	<unknown>
     758: 63 5f 74 72                  	bge	s0, t2, 1854
     75c: 69 6d                        	<unknown>
     75e: 5f 74 68 72                  	<unknown>
     762: 65 73                        	<unknown>
     764: 68 6f                        	<unknown>
     766: 6c 64                        	<unknown>
     768: 00 5f                        	<unknown>
     76a: 6b 69 6c 6c                  	<unknown>
     76e: 00 76                        	<unknown>
     770: 78 5f                        	<unknown>
     772: 70 65                        	<unknown>
     774: 72 66                        	<unknown>
     776: 5f 64 75 6d                  	<unknown>
     77a: 70 00                        	<unknown>
     77c: 5f 65 78 69                  	<unknown>
     780: 74 00                        	<unknown>
     782: 5f 69 6e 69                  	<unknown>
     786: 74 5f                        	<unknown>
     788: 73 69 67 6e                  	csrrsi	s2, 1766, 14
     78c: 61 6c                        	<unknown>
     78e: 5f 72 00 5f                  	<unknown>
     792: 5a 4e                        	<unknown>
     794: 31 30                        	<unknown>
     796: 52 61                        	<unknown>
     798: 73 74 65 72                  	csrrci	s0, 1830, 10
     79c: 69 7a                        	<unknown>
     79e: 65 72                        	<unknown>
     7a0: 31 30                        	<unknown>
     7a2: 72 65                        	<unknown>
     7a4: 6e 64                        	<unknown>
     7a6: 65 72                        	<unknown>
     7a8: 51 75                        	<unknown>
     7aa: 61 64                        	<unknown>
     7ac: 45 6a                        	<unknown>
     7ae: 52 4b                        	<unknown>
     7b0: 4e 53                        	<unknown>
     7b2: 5f 31 31 70                  	<unknown>
     7b6: 72 69                        	<unknown>
     7b8: 6d 69                        	<unknown>
     7ba: 74 69                        	<unknown>
     7bc: 76 65                        	<unknown>
     7be: 5f 74 45 6a                  	<unknown>
     7c2: 6a 4e                        	<unknown>
     7c4: 37 63 6f 63                  	lui	t1, 407286
     7c8: 6f 67 66 78                  	jal	a4, 419718
     7cc: 36 54                        	<unknown>
     7ce: 46 69                        	<unknown>
     7d0: 78 65                        	<unknown>
     7d2: 64 49                        	<unknown>
     7d4: 4c 6a                        	<unknown>
     7d6: 31 36                        	<unknown>
     7d8: 45 69                        	<unknown>
     7da: 45 45                        	<unknown>
     7dc: 53 35 5f 53                  	<unknown>
     7e0: 35 5f                        	<unknown>
     7e2: 00 5f                        	<unknown>
     7e4: 5f 73 69 67                  	<unknown>
     7e8: 74 72                        	<unknown>
     7ea: 61 6d                        	<unknown>
     7ec: 70 00                        	<unknown>
     7ee: 72 61                        	<unknown>
     7f0: 69 73                        	<unknown>
     7f2: 65 00                        	<unknown>

Disassembly of section .shstrtab:

00000000 .shstrtab:
       0: 00 2e                        	<unknown>
       2: 73 79 6d 74                  	csrrci	s2, 1862, 26
       6: 61 62                        	<unknown>
       8: 00 2e                        	<unknown>
       a: 73 74 72 74                  	csrrci	s0, 1863, 4
       e: 61 62                        	<unknown>
      10: 00 2e                        	<unknown>
      12: 73 68 73 74                  	csrrsi	a6, 1863, 6
      16: 72 74                        	<unknown>
      18: 61 62                        	<unknown>
      1a: 00 2e                        	<unknown>
      1c: 69 6e                        	<unknown>
      1e: 69 74                        	<unknown>
      20: 00 2e                        	<unknown>
      22: 74 65                        	<unknown>
      24: 78 74                        	<unknown>
      26: 00 2e                        	<unknown>
      28: 65 68                        	<unknown>
      2a: 5f 66 72 61                  	<unknown>
      2e: 6d 65                        	<unknown>
      30: 00 2e                        	<unknown>
      32: 69 6e                        	<unknown>
      34: 69 74                        	<unknown>
      36: 5f 61 72 72                  	<unknown>
      3a: 61 79                        	<unknown>
      3c: 00 2e                        	<unknown>
      3e: 64 61                        	<unknown>
      40: 74 61                        	<unknown>
      42: 00 2e                        	<unknown>
      44: 73 64 61 74                  	csrrsi	s0, 1862, 2
      48: 61 00                        	<unknown>
      4a: 2e 73                        	<unknown>
      4c: 62 73                        	<unknown>
      4e: 73 00 2e 62                  	<unknown>
      52: 73 73 00 2e                  	csrrci	t1, 736, 0
      56: 63 6f 6d 6d                  	bltu	s10, s6, 1758
      5a: 65 6e                        	<unknown>
      5c: 74 00                        	<unknown>
      5e: 2e 72                        	<unknown>
      60: 69 73                        	<unknown>
      62: 63 76 2e 61                  	bgeu	t3, s2, 1548
      66: 74 74                        	<unknown>
      68: 72 69                        	<unknown>
      6a: 62 75                        	<unknown>
      6c: 74 65                        	<unknown>
      6e: 73                           	<unknown>
      6f: 00                           	<unknown>
