
kernel.elf:     file format elf32-littleriscv


Disassembly of section .init:

80000000 <_start>:
80000000:	fc102573          	csrr	a0,0xfc1
80000004:	00004597          	auipc	a1,0x4
80000008:	13858593          	addi	a1,a1,312 # 8000413c <init_regs>
8000000c:	00b5100b          	0xb5100b
80000010:	12c040ef          	jal	ra,8000413c <init_regs>
80000014:	00100513          	li	a0,1
80000018:	0005000b          	0x5000b
8000001c:	fc102573          	csrr	a0,0xfc1
80000020:	00004597          	auipc	a1,0x4
80000024:	18458593          	addi	a1,a1,388 # 800041a4 <__init_tls>
80000028:	00b5100b          	0xb5100b
8000002c:	178040ef          	jal	ra,800041a4 <__init_tls>
80000030:	00100513          	li	a0,1
80000034:	0005000b          	0x5000b
80000038:	00007517          	auipc	a0,0x7
8000003c:	82850513          	addi	a0,a0,-2008 # 80006860 <__malloc_max_total_mem>
80000040:	00007617          	auipc	a2,0x7
80000044:	8d860613          	addi	a2,a2,-1832 # 80006918 <__BSS_END__>
80000048:	40a60633          	sub	a2,a2,a0
8000004c:	00000593          	li	a1,0
80000050:	0ad040ef          	jal	ra,800048fc <memset>
80000054:	00004517          	auipc	a0,0x4
80000058:	24050513          	addi	a0,a0,576 # 80004294 <__libc_fini_array>
8000005c:	73c040ef          	jal	ra,80004798 <atexit>
80000060:	1a0040ef          	jal	ra,80004200 <__libc_init_array>
80000064:	38c020ef          	jal	ra,800023f0 <main>
80000068:	7440406f          	j	800047ac <exit>

Disassembly of section .text:

8000006c <register_fini>:
8000006c:	00000793          	li	a5,0
80000070:	00078863          	beqz	a5,80000080 <register_fini+0x14>
80000074:	80004537          	lui	a0,0x80004
80000078:	29450513          	addi	a0,a0,660 # 80004294 <__BSS_END__+0xffffd97c>
8000007c:	71c0406f          	j	80004798 <atexit>
80000080:	00008067          	ret

80000084 <_Z18shader_function_hwiP12kernel_arg_t>:
80000084:	f3010113          	addi	sp,sp,-208
80000088:	0c112623          	sw	ra,204(sp)
8000008c:	0c812423          	sw	s0,200(sp)
80000090:	0c912223          	sw	s1,196(sp)
80000094:	0d212023          	sw	s2,192(sp)
80000098:	0b312e23          	sw	s3,188(sp)
8000009c:	0b412c23          	sw	s4,184(sp)
800000a0:	0b512a23          	sw	s5,180(sp)
800000a4:	0b612823          	sw	s6,176(sp)
800000a8:	0b712623          	sw	s7,172(sp)
800000ac:	0b812423          	sw	s8,168(sp)
800000b0:	0b912223          	sw	s9,164(sp)
800000b4:	0ba12023          	sw	s10,160(sp)
800000b8:	09b12e23          	sw	s11,156(sp)
800000bc:	08812c27          	fsw	fs0,152(sp)
800000c0:	08912a27          	fsw	fs1,148(sp)
800000c4:	09212827          	fsw	fs2,144(sp)
800000c8:	00058913          	mv	s2,a1
800000cc:	0245aa03          	lw	s4,36(a1)
800000d0:	08012023          	sw	zero,128(sp)
800000d4:	01000537          	lui	a0,0x1000
800000d8:	06a12823          	sw	a0,112(sp)
800000dc:	06a12023          	sw	a0,96(sp)
800000e0:	04a12823          	sw	a0,80(sp)
800000e4:	04a12023          	sw	a0,64(sp)
800000e8:	08012223          	sw	zero,132(sp)
800000ec:	06a12a23          	sw	a0,116(sp)
800000f0:	06a12223          	sw	a0,100(sp)
800000f4:	04a12a23          	sw	a0,84(sp)
800000f8:	04a12223          	sw	a0,68(sp)
800000fc:	08012423          	sw	zero,136(sp)
80000100:	06a12c23          	sw	a0,120(sp)
80000104:	06a12423          	sw	a0,104(sp)
80000108:	04a12c23          	sw	a0,88(sp)
8000010c:	04a12423          	sw	a0,72(sp)
80000110:	08012623          	sw	zero,140(sp)
80000114:	06a12e23          	sw	a0,124(sp)
80000118:	06a12623          	sw	a0,108(sp)
8000011c:	04a12e23          	sw	a0,92(sp)
80000120:	04a12623          	sw	a0,76(sp)
80000124:	0200060b          	0x200060b
80000128:	00c12623          	sw	a2,12(sp)
8000012c:	00167513          	andi	a0,a2,1
80000130:	00153593          	seqz	a1,a0
80000134:	0005a00b          	0x5a00b
80000138:	00051463          	bnez	a0,80000140 <_Z18shader_function_hwiP12kernel_arg_t+0xbc>
8000013c:	1140106f          	j	80001250 <_Z18shader_function_hwiP12kernel_arg_t+0x11cc>
80000140:	00004537          	lui	a0,0x4
80000144:	fff50b13          	addi	s6,a0,-1 # 3fff <reg_t6+0x3fe0>
80000148:	cc402573          	csrr	a0,0xcc4
8000014c:	00a12023          	sw	a0,0(sp)
80000150:	07800b93          	li	s7,120
80000154:	80007537          	lui	a0,0x80007
80000158:	83c50513          	addi	a0,a0,-1988 # 8000683c <__BSS_END__+0xffffff24>
8000015c:	00052407          	flw	fs0,0(a0)
80000160:	80007537          	lui	a0,0x80007
80000164:	84050513          	addi	a0,a0,-1984 # 80006840 <__BSS_END__+0xffffff28>
80000168:	00052487          	flw	fs1,0(a0)
8000016c:	80007537          	lui	a0,0x80007
80000170:	84450513          	addi	a0,a0,-1980 # 80006844 <__BSS_END__+0xffffff2c>
80000174:	00052907          	flw	fs2,0(a0)
80000178:	0ff00c13          	li	s8,255
8000017c:	00010537          	lui	a0,0x10
80000180:	00250513          	addi	a0,a0,2 # 10002 <reg_t6+0xffe3>
80000184:	00a12223          	sw	a0,4(sp)
80000188:	0440006f          	j	800001cc <_Z18shader_function_hwiP12kernel_arg_t+0x148>
8000018c:	08040513          	addi	a0,s0,128
80000190:	000a8593          	mv	a1,s5
80000194:	00048613          	mv	a2,s1
80000198:	00098693          	mv	a3,s3
8000019c:	484020ef          	jal	ra,80002620 <_ZN7Blender5writeEjjj>
800001a0:	0000300b          	0x300b
800001a4:	0000300b          	0x300b
800001a8:	0000300b          	0x300b
800001ac:	0000300b          	0x300b
800001b0:	0000300b          	0x300b
800001b4:	0200060b          	0x200060b
800001b8:	00c12623          	sw	a2,12(sp)
800001bc:	00167513          	andi	a0,a2,1
800001c0:	0015000b          	0x15000b
800001c4:	00051463          	bnez	a0,800001cc <_Z18shader_function_hwiP12kernel_arg_t+0x148>
800001c8:	0800106f          	j	80001248 <_Z18shader_function_hwiP12kernel_arg_t+0x11c4>
800001cc:	7c102573          	csrr	a0,0x7c1
800001d0:	7c5025f3          	csrr	a1,0x7c5
800001d4:	d0057053          	fcvt.s.w	ft0,a0
800001d8:	7c902573          	csrr	a0,0x7c9
800001dc:	10807053          	fmul.s	ft0,ft0,fs0
800001e0:	d005f0d3          	fcvt.s.w	ft1,a1
800001e4:	1080f0d3          	fmul.s	ft1,ft1,fs0
800001e8:	d0057153          	fcvt.s.w	ft2,a0
800001ec:	10817153          	fmul.s	ft2,ft2,fs0
800001f0:	001071d3          	fadd.s	ft3,ft0,ft1
800001f4:	0021f153          	fadd.s	ft2,ft3,ft2
800001f8:	1824f153          	fdiv.s	ft2,fs1,ft2
800001fc:	10207053          	fmul.s	ft0,ft0,ft2
80000200:	11207053          	fmul.s	ft0,ft0,fs2
80000204:	c0001553          	fcvt.w.s	a0,ft0,rtz
80000208:	02a12823          	sw	a0,48(sp)
8000020c:	1020f053          	fmul.s	ft0,ft1,ft2
80000210:	11207053          	fmul.s	ft0,ft0,fs2
80000214:	c0001353          	fcvt.w.s	t1,ft0,rtz
80000218:	02612023          	sw	t1,32(sp)
8000021c:	7c2025f3          	csrr	a1,0x7c2
80000220:	7c6026f3          	csrr	a3,0x7c6
80000224:	d005f053          	fcvt.s.w	ft0,a1
80000228:	7ca025f3          	csrr	a1,0x7ca
8000022c:	10807053          	fmul.s	ft0,ft0,fs0
80000230:	d006f0d3          	fcvt.s.w	ft1,a3
80000234:	1080f0d3          	fmul.s	ft1,ft1,fs0
80000238:	d005f153          	fcvt.s.w	ft2,a1
8000023c:	10817153          	fmul.s	ft2,ft2,fs0
80000240:	001071d3          	fadd.s	ft3,ft0,ft1
80000244:	0021f153          	fadd.s	ft2,ft3,ft2
80000248:	1824f153          	fdiv.s	ft2,fs1,ft2
8000024c:	10207053          	fmul.s	ft0,ft0,ft2
80000250:	11207053          	fmul.s	ft0,ft0,fs2
80000254:	c0001ed3          	fcvt.w.s	t4,ft0,rtz
80000258:	03d12a23          	sw	t4,52(sp)
8000025c:	1020f053          	fmul.s	ft0,ft1,ft2
80000260:	11207053          	fmul.s	ft0,ft0,fs2
80000264:	c00013d3          	fcvt.w.s	t2,ft0,rtz
80000268:	02712223          	sw	t2,36(sp)
8000026c:	7c3025f3          	csrr	a1,0x7c3
80000270:	7c7026f3          	csrr	a3,0x7c7
80000274:	d005f053          	fcvt.s.w	ft0,a1
80000278:	7cb025f3          	csrr	a1,0x7cb
8000027c:	10807053          	fmul.s	ft0,ft0,fs0
80000280:	d006f0d3          	fcvt.s.w	ft1,a3
80000284:	1080f0d3          	fmul.s	ft1,ft1,fs0
80000288:	d005f153          	fcvt.s.w	ft2,a1
8000028c:	10817153          	fmul.s	ft2,ft2,fs0
80000290:	001071d3          	fadd.s	ft3,ft0,ft1
80000294:	0021f153          	fadd.s	ft2,ft3,ft2
80000298:	1824f153          	fdiv.s	ft2,fs1,ft2
8000029c:	10207053          	fmul.s	ft0,ft0,ft2
800002a0:	11207053          	fmul.s	ft0,ft0,fs2
800002a4:	c0001e53          	fcvt.w.s	t3,ft0,rtz
800002a8:	03c12c23          	sw	t3,56(sp)
800002ac:	1020f053          	fmul.s	ft0,ft1,ft2
800002b0:	11207053          	fmul.s	ft0,ft0,fs2
800002b4:	c00012d3          	fcvt.w.s	t0,ft0,rtz
800002b8:	02512423          	sw	t0,40(sp)
800002bc:	7c4025f3          	csrr	a1,0x7c4
800002c0:	7c8026f3          	csrr	a3,0x7c8
800002c4:	d005f053          	fcvt.s.w	ft0,a1
800002c8:	7cc025f3          	csrr	a1,0x7cc
800002cc:	10807053          	fmul.s	ft0,ft0,fs0
800002d0:	d006f0d3          	fcvt.s.w	ft1,a3
800002d4:	1080f0d3          	fmul.s	ft1,ft1,fs0
800002d8:	d005f153          	fcvt.s.w	ft2,a1
800002dc:	10817153          	fmul.s	ft2,ft2,fs0
800002e0:	001071d3          	fadd.s	ft3,ft0,ft1
800002e4:	0021f153          	fadd.s	ft2,ft3,ft2
800002e8:	1824f153          	fdiv.s	ft2,fs1,ft2
800002ec:	10207053          	fmul.s	ft0,ft0,ft2
800002f0:	11207053          	fmul.s	ft0,ft0,fs2
800002f4:	c00018d3          	fcvt.w.s	a7,ft0,rtz
800002f8:	03112e23          	sw	a7,60(sp)
800002fc:	1020f053          	fmul.s	ft0,ft1,ft2
80000300:	11207053          	fmul.s	ft0,ft0,fs2
80000304:	c0001853          	fcvt.w.s	a6,ft0,rtz
80000308:	03012623          	sw	a6,44(sp)
8000030c:	02e94703          	lbu	a4,46(s2)
80000310:	00165593          	srli	a1,a2,0x1
80000314:	00173613          	seqz	a2,a4
80000318:	02894683          	lbu	a3,40(s2)
8000031c:	0006200b          	0x6200b
80000320:	037585b3          	mul	a1,a1,s7
80000324:	00ba0633          	add	a2,s4,a1
80000328:	02460593          	addi	a1,a2,36
8000032c:	7c070e63          	beqz	a4,80000b08 <_Z18shader_function_hwiP12kernel_arg_t+0xa84>
80000330:	00d03733          	snez	a4,a3
80000334:	0007200b          	0x7200b
80000338:	0e068063          	beqz	a3,80000418 <_Z18shader_function_hwiP12kernel_arg_t+0x394>
8000033c:	0005a583          	lw	a1,0(a1)
80000340:	02b506b3          	mul	a3,a0,a1
80000344:	02b51733          	mulh	a4,a0,a1
80000348:	00871713          	slli	a4,a4,0x8
8000034c:	02c62783          	lw	a5,44(a2)
80000350:	02862403          	lw	s0,40(a2)
80000354:	0186d693          	srli	a3,a3,0x18
80000358:	00e6e6b3          	or	a3,a3,a4
8000035c:	00d786b3          	add	a3,a5,a3
80000360:	02830733          	mul	a4,t1,s0
80000364:	028314b3          	mulh	s1,t1,s0
80000368:	00849493          	slli	s1,s1,0x8
8000036c:	01875713          	srli	a4,a4,0x18
80000370:	00976733          	or	a4,a4,s1
80000374:	00e686b3          	add	a3,a3,a4
80000378:	08d12023          	sw	a3,128(sp)
8000037c:	02be86b3          	mul	a3,t4,a1
80000380:	02be9733          	mulh	a4,t4,a1
80000384:	00871713          	slli	a4,a4,0x8
80000388:	0186d693          	srli	a3,a3,0x18
8000038c:	00e6e6b3          	or	a3,a3,a4
80000390:	00d786b3          	add	a3,a5,a3
80000394:	02838733          	mul	a4,t2,s0
80000398:	028394b3          	mulh	s1,t2,s0
8000039c:	00849493          	slli	s1,s1,0x8
800003a0:	01875713          	srli	a4,a4,0x18
800003a4:	00976733          	or	a4,a4,s1
800003a8:	00e686b3          	add	a3,a3,a4
800003ac:	08d12223          	sw	a3,132(sp)
800003b0:	02be06b3          	mul	a3,t3,a1
800003b4:	02be1733          	mulh	a4,t3,a1
800003b8:	00871713          	slli	a4,a4,0x8
800003bc:	0186d693          	srli	a3,a3,0x18
800003c0:	00e6e6b3          	or	a3,a3,a4
800003c4:	00d786b3          	add	a3,a5,a3
800003c8:	02828733          	mul	a4,t0,s0
800003cc:	028294b3          	mulh	s1,t0,s0
800003d0:	00849493          	slli	s1,s1,0x8
800003d4:	01875713          	srli	a4,a4,0x18
800003d8:	00976733          	or	a4,a4,s1
800003dc:	00e686b3          	add	a3,a3,a4
800003e0:	08d12423          	sw	a3,136(sp)
800003e4:	031586b3          	mul	a3,a1,a7
800003e8:	031595b3          	mulh	a1,a1,a7
800003ec:	00859593          	slli	a1,a1,0x8
800003f0:	0186d693          	srli	a3,a3,0x18
800003f4:	00b6e5b3          	or	a1,a3,a1
800003f8:	00b785b3          	add	a1,a5,a1
800003fc:	030406b3          	mul	a3,s0,a6
80000400:	03041733          	mulh	a4,s0,a6
80000404:	00871713          	slli	a4,a4,0x8
80000408:	0186d693          	srli	a3,a3,0x18
8000040c:	00e6e6b3          	or	a3,a3,a4
80000410:	00d585b3          	add	a1,a1,a3
80000414:	08b12623          	sw	a1,140(sp)
80000418:	0000300b          	0x300b
8000041c:	02994583          	lbu	a1,41(s2)
80000420:	0015b693          	seqz	a3,a1
80000424:	0006a00b          	0x6a00b
80000428:	36058a63          	beqz	a1,8000079c <_Z18shader_function_hwiP12kernel_arg_t+0x718>
8000042c:	03062583          	lw	a1,48(a2)
80000430:	02b506b3          	mul	a3,a0,a1
80000434:	02b51733          	mulh	a4,a0,a1
80000438:	00871713          	slli	a4,a4,0x8
8000043c:	03862783          	lw	a5,56(a2)
80000440:	03462483          	lw	s1,52(a2)
80000444:	0186d693          	srli	a3,a3,0x18
80000448:	00e6e6b3          	or	a3,a3,a4
8000044c:	00d786b3          	add	a3,a5,a3
80000450:	02930733          	mul	a4,t1,s1
80000454:	02931433          	mulh	s0,t1,s1
80000458:	00841413          	slli	s0,s0,0x8
8000045c:	01875713          	srli	a4,a4,0x18
80000460:	00876733          	or	a4,a4,s0
80000464:	00e686b3          	add	a3,a3,a4
80000468:	06d12823          	sw	a3,112(sp)
8000046c:	02be86b3          	mul	a3,t4,a1
80000470:	02be9733          	mulh	a4,t4,a1
80000474:	00871713          	slli	a4,a4,0x8
80000478:	0186d693          	srli	a3,a3,0x18
8000047c:	00e6e6b3          	or	a3,a3,a4
80000480:	00d786b3          	add	a3,a5,a3
80000484:	02938733          	mul	a4,t2,s1
80000488:	02939433          	mulh	s0,t2,s1
8000048c:	00841413          	slli	s0,s0,0x8
80000490:	01875713          	srli	a4,a4,0x18
80000494:	00876733          	or	a4,a4,s0
80000498:	00e686b3          	add	a3,a3,a4
8000049c:	06d12a23          	sw	a3,116(sp)
800004a0:	02be06b3          	mul	a3,t3,a1
800004a4:	02be1733          	mulh	a4,t3,a1
800004a8:	00871713          	slli	a4,a4,0x8
800004ac:	0186d693          	srli	a3,a3,0x18
800004b0:	00e6e6b3          	or	a3,a3,a4
800004b4:	00d786b3          	add	a3,a5,a3
800004b8:	02928733          	mul	a4,t0,s1
800004bc:	02929433          	mulh	s0,t0,s1
800004c0:	00841413          	slli	s0,s0,0x8
800004c4:	01875713          	srli	a4,a4,0x18
800004c8:	00876733          	or	a4,a4,s0
800004cc:	00e686b3          	add	a3,a3,a4
800004d0:	06d12c23          	sw	a3,120(sp)
800004d4:	031586b3          	mul	a3,a1,a7
800004d8:	031595b3          	mulh	a1,a1,a7
800004dc:	00859593          	slli	a1,a1,0x8
800004e0:	0186d693          	srli	a3,a3,0x18
800004e4:	00b6e5b3          	or	a1,a3,a1
800004e8:	00b785b3          	add	a1,a5,a1
800004ec:	030486b3          	mul	a3,s1,a6
800004f0:	03049733          	mulh	a4,s1,a6
800004f4:	00871713          	slli	a4,a4,0x8
800004f8:	0186d693          	srli	a3,a3,0x18
800004fc:	00e6e6b3          	or	a3,a3,a4
80000500:	00d585b3          	add	a1,a1,a3
80000504:	06b12e23          	sw	a1,124(sp)
80000508:	03c62583          	lw	a1,60(a2)
8000050c:	02a586b3          	mul	a3,a1,a0
80000510:	02a59733          	mulh	a4,a1,a0
80000514:	00871713          	slli	a4,a4,0x8
80000518:	04462783          	lw	a5,68(a2)
8000051c:	04062483          	lw	s1,64(a2)
80000520:	0186d693          	srli	a3,a3,0x18
80000524:	00e6e6b3          	or	a3,a3,a4
80000528:	00d786b3          	add	a3,a5,a3
8000052c:	02648733          	mul	a4,s1,t1
80000530:	02649433          	mulh	s0,s1,t1
80000534:	00841413          	slli	s0,s0,0x8
80000538:	01875713          	srli	a4,a4,0x18
8000053c:	00876733          	or	a4,a4,s0
80000540:	00e686b3          	add	a3,a3,a4
80000544:	06d12023          	sw	a3,96(sp)
80000548:	03d586b3          	mul	a3,a1,t4
8000054c:	03d59733          	mulh	a4,a1,t4
80000550:	00871713          	slli	a4,a4,0x8
80000554:	0186d693          	srli	a3,a3,0x18
80000558:	00e6e6b3          	or	a3,a3,a4
8000055c:	00d786b3          	add	a3,a5,a3
80000560:	02748733          	mul	a4,s1,t2
80000564:	02749433          	mulh	s0,s1,t2
80000568:	00841413          	slli	s0,s0,0x8
8000056c:	01875713          	srli	a4,a4,0x18
80000570:	00876733          	or	a4,a4,s0
80000574:	00e686b3          	add	a3,a3,a4
80000578:	06d12223          	sw	a3,100(sp)
8000057c:	03c586b3          	mul	a3,a1,t3
80000580:	03c59733          	mulh	a4,a1,t3
80000584:	00871713          	slli	a4,a4,0x8
80000588:	0186d693          	srli	a3,a3,0x18
8000058c:	00e6e6b3          	or	a3,a3,a4
80000590:	00d786b3          	add	a3,a5,a3
80000594:	02548733          	mul	a4,s1,t0
80000598:	02549433          	mulh	s0,s1,t0
8000059c:	00841413          	slli	s0,s0,0x8
800005a0:	01875713          	srli	a4,a4,0x18
800005a4:	00876733          	or	a4,a4,s0
800005a8:	00e686b3          	add	a3,a3,a4
800005ac:	06d12423          	sw	a3,104(sp)
800005b0:	031586b3          	mul	a3,a1,a7
800005b4:	031595b3          	mulh	a1,a1,a7
800005b8:	00859593          	slli	a1,a1,0x8
800005bc:	0186d693          	srli	a3,a3,0x18
800005c0:	00b6e5b3          	or	a1,a3,a1
800005c4:	00b785b3          	add	a1,a5,a1
800005c8:	030486b3          	mul	a3,s1,a6
800005cc:	03049733          	mulh	a4,s1,a6
800005d0:	00871713          	slli	a4,a4,0x8
800005d4:	0186d693          	srli	a3,a3,0x18
800005d8:	00e6e6b3          	or	a3,a3,a4
800005dc:	00d585b3          	add	a1,a1,a3
800005e0:	06b12623          	sw	a1,108(sp)
800005e4:	04862583          	lw	a1,72(a2)
800005e8:	02a586b3          	mul	a3,a1,a0
800005ec:	02a59733          	mulh	a4,a1,a0
800005f0:	00871713          	slli	a4,a4,0x8
800005f4:	05062783          	lw	a5,80(a2)
800005f8:	04c62483          	lw	s1,76(a2)
800005fc:	0186d693          	srli	a3,a3,0x18
80000600:	00e6e6b3          	or	a3,a3,a4
80000604:	00d786b3          	add	a3,a5,a3
80000608:	02648733          	mul	a4,s1,t1
8000060c:	02649433          	mulh	s0,s1,t1
80000610:	00841413          	slli	s0,s0,0x8
80000614:	01875713          	srli	a4,a4,0x18
80000618:	00876733          	or	a4,a4,s0
8000061c:	00e686b3          	add	a3,a3,a4
80000620:	04d12823          	sw	a3,80(sp)
80000624:	03d586b3          	mul	a3,a1,t4
80000628:	03d59733          	mulh	a4,a1,t4
8000062c:	00871713          	slli	a4,a4,0x8
80000630:	0186d693          	srli	a3,a3,0x18
80000634:	00e6e6b3          	or	a3,a3,a4
80000638:	00d786b3          	add	a3,a5,a3
8000063c:	02748733          	mul	a4,s1,t2
80000640:	02749433          	mulh	s0,s1,t2
80000644:	00841413          	slli	s0,s0,0x8
80000648:	01875713          	srli	a4,a4,0x18
8000064c:	00876733          	or	a4,a4,s0
80000650:	00e686b3          	add	a3,a3,a4
80000654:	04d12a23          	sw	a3,84(sp)
80000658:	03c586b3          	mul	a3,a1,t3
8000065c:	03c59733          	mulh	a4,a1,t3
80000660:	00871713          	slli	a4,a4,0x8
80000664:	0186d693          	srli	a3,a3,0x18
80000668:	00e6e6b3          	or	a3,a3,a4
8000066c:	00d786b3          	add	a3,a5,a3
80000670:	02548733          	mul	a4,s1,t0
80000674:	02549433          	mulh	s0,s1,t0
80000678:	00841413          	slli	s0,s0,0x8
8000067c:	01875713          	srli	a4,a4,0x18
80000680:	00876733          	or	a4,a4,s0
80000684:	00e686b3          	add	a3,a3,a4
80000688:	04d12c23          	sw	a3,88(sp)
8000068c:	031586b3          	mul	a3,a1,a7
80000690:	031595b3          	mulh	a1,a1,a7
80000694:	00859593          	slli	a1,a1,0x8
80000698:	0186d693          	srli	a3,a3,0x18
8000069c:	00b6e5b3          	or	a1,a3,a1
800006a0:	00b785b3          	add	a1,a5,a1
800006a4:	030486b3          	mul	a3,s1,a6
800006a8:	03049733          	mulh	a4,s1,a6
800006ac:	00871713          	slli	a4,a4,0x8
800006b0:	0186d693          	srli	a3,a3,0x18
800006b4:	00e6e6b3          	or	a3,a3,a4
800006b8:	00d585b3          	add	a1,a1,a3
800006bc:	04b12e23          	sw	a1,92(sp)
800006c0:	05462583          	lw	a1,84(a2)
800006c4:	02a586b3          	mul	a3,a1,a0
800006c8:	02a59533          	mulh	a0,a1,a0
800006cc:	00851513          	slli	a0,a0,0x8
800006d0:	05c62703          	lw	a4,92(a2)
800006d4:	05862783          	lw	a5,88(a2)
800006d8:	0186d693          	srli	a3,a3,0x18
800006dc:	00a6e533          	or	a0,a3,a0
800006e0:	00a70533          	add	a0,a4,a0
800006e4:	026786b3          	mul	a3,a5,t1
800006e8:	026794b3          	mulh	s1,a5,t1
800006ec:	00849493          	slli	s1,s1,0x8
800006f0:	0186d693          	srli	a3,a3,0x18
800006f4:	0096e6b3          	or	a3,a3,s1
800006f8:	00d50533          	add	a0,a0,a3
800006fc:	04a12023          	sw	a0,64(sp)
80000700:	03d58533          	mul	a0,a1,t4
80000704:	03d596b3          	mulh	a3,a1,t4
80000708:	00869693          	slli	a3,a3,0x8
8000070c:	01855513          	srli	a0,a0,0x18
80000710:	00d56533          	or	a0,a0,a3
80000714:	00a70533          	add	a0,a4,a0
80000718:	027786b3          	mul	a3,a5,t2
8000071c:	027794b3          	mulh	s1,a5,t2
80000720:	00849493          	slli	s1,s1,0x8
80000724:	0186d693          	srli	a3,a3,0x18
80000728:	0096e6b3          	or	a3,a3,s1
8000072c:	00d50533          	add	a0,a0,a3
80000730:	04a12223          	sw	a0,68(sp)
80000734:	03c58533          	mul	a0,a1,t3
80000738:	03c596b3          	mulh	a3,a1,t3
8000073c:	00869693          	slli	a3,a3,0x8
80000740:	01855513          	srli	a0,a0,0x18
80000744:	00d56533          	or	a0,a0,a3
80000748:	00a70533          	add	a0,a4,a0
8000074c:	025786b3          	mul	a3,a5,t0
80000750:	025794b3          	mulh	s1,a5,t0
80000754:	00849493          	slli	s1,s1,0x8
80000758:	0186d693          	srli	a3,a3,0x18
8000075c:	0096e6b3          	or	a3,a3,s1
80000760:	00d50533          	add	a0,a0,a3
80000764:	04a12423          	sw	a0,72(sp)
80000768:	03158533          	mul	a0,a1,a7
8000076c:	031595b3          	mulh	a1,a1,a7
80000770:	00859593          	slli	a1,a1,0x8
80000774:	01855513          	srli	a0,a0,0x18
80000778:	00b56533          	or	a0,a0,a1
8000077c:	00a70533          	add	a0,a4,a0
80000780:	030785b3          	mul	a1,a5,a6
80000784:	030796b3          	mulh	a3,a5,a6
80000788:	00869693          	slli	a3,a3,0x8
8000078c:	0185d593          	srli	a1,a1,0x18
80000790:	00d5e5b3          	or	a1,a1,a3
80000794:	00b50533          	add	a0,a0,a1
80000798:	04a12623          	sw	a0,76(sp)
8000079c:	0000300b          	0x300b
800007a0:	02a94503          	lbu	a0,42(s2)
800007a4:	00153593          	seqz	a1,a0
800007a8:	0005a00b          	0x5a00b
800007ac:	68050463          	beqz	a0,80000e34 <_Z18shader_function_hwiP12kernel_arg_t+0xdb0>
800007b0:	06062583          	lw	a1,96(a2)
800007b4:	03012303          	lw	t1,48(sp)
800007b8:	02b30533          	mul	a0,t1,a1
800007bc:	02b316b3          	mulh	a3,t1,a1
800007c0:	00869693          	slli	a3,a3,0x8
800007c4:	06862483          	lw	s1,104(a2)
800007c8:	06462403          	lw	s0,100(a2)
800007cc:	02012383          	lw	t2,32(sp)
800007d0:	01855513          	srli	a0,a0,0x18
800007d4:	00d56533          	or	a0,a0,a3
800007d8:	00a48533          	add	a0,s1,a0
800007dc:	028386b3          	mul	a3,t2,s0
800007e0:	028397b3          	mulh	a5,t2,s0
800007e4:	00879793          	slli	a5,a5,0x8
800007e8:	03412e03          	lw	t3,52(sp)
800007ec:	0186d693          	srli	a3,a3,0x18
800007f0:	00f6e6b3          	or	a3,a3,a5
800007f4:	00d502b3          	add	t0,a0,a3
800007f8:	02be0533          	mul	a0,t3,a1
800007fc:	02be16b3          	mulh	a3,t3,a1
80000800:	00869693          	slli	a3,a3,0x8
80000804:	02412f03          	lw	t5,36(sp)
80000808:	01855513          	srli	a0,a0,0x18
8000080c:	00d56533          	or	a0,a0,a3
80000810:	00a48eb3          	add	t4,s1,a0
80000814:	028f06b3          	mul	a3,t5,s0
80000818:	028f1733          	mulh	a4,t5,s0
8000081c:	00871713          	slli	a4,a4,0x8
80000820:	03812f83          	lw	t6,56(sp)
80000824:	0186d693          	srli	a3,a3,0x18
80000828:	00e6e6b3          	or	a3,a3,a4
8000082c:	00de8eb3          	add	t4,t4,a3
80000830:	02bf8733          	mul	a4,t6,a1
80000834:	02bf96b3          	mulh	a3,t6,a1
80000838:	00869693          	slli	a3,a3,0x8
8000083c:	02812783          	lw	a5,40(sp)
80000840:	01875713          	srli	a4,a4,0x18
80000844:	00d766b3          	or	a3,a4,a3
80000848:	00d486b3          	add	a3,s1,a3
8000084c:	02878733          	mul	a4,a5,s0
80000850:	02879533          	mulh	a0,a5,s0
80000854:	00851513          	slli	a0,a0,0x8
80000858:	01875713          	srli	a4,a4,0x18
8000085c:	00a76533          	or	a0,a4,a0
80000860:	00a689b3          	add	s3,a3,a0
80000864:	03158533          	mul	a0,a1,a7
80000868:	031595b3          	mulh	a1,a1,a7
8000086c:	00859593          	slli	a1,a1,0x8
80000870:	01855513          	srli	a0,a0,0x18
80000874:	00b56533          	or	a0,a0,a1
80000878:	00a48533          	add	a0,s1,a0
8000087c:	030405b3          	mul	a1,s0,a6
80000880:	030416b3          	mulh	a3,s0,a6
80000884:	00869693          	slli	a3,a3,0x8
80000888:	06c62403          	lw	s0,108(a2)
8000088c:	0185d593          	srli	a1,a1,0x18
80000890:	00d5e5b3          	or	a1,a1,a3
80000894:	00b50ab3          	add	s5,a0,a1
80000898:	026405b3          	mul	a1,s0,t1
8000089c:	026416b3          	mulh	a3,s0,t1
800008a0:	00869693          	slli	a3,a3,0x8
800008a4:	07462483          	lw	s1,116(a2)
800008a8:	07062603          	lw	a2,112(a2)
800008ac:	0185d593          	srli	a1,a1,0x18
800008b0:	00d5e5b3          	or	a1,a1,a3
800008b4:	00b485b3          	add	a1,s1,a1
800008b8:	027606b3          	mul	a3,a2,t2
800008bc:	02761733          	mulh	a4,a2,t2
800008c0:	00871713          	slli	a4,a4,0x8
800008c4:	0186d693          	srli	a3,a3,0x18
800008c8:	00e6e6b3          	or	a3,a3,a4
800008cc:	00d585b3          	add	a1,a1,a3
800008d0:	03c406b3          	mul	a3,s0,t3
800008d4:	03c41733          	mulh	a4,s0,t3
800008d8:	00871713          	slli	a4,a4,0x8
800008dc:	0186d693          	srli	a3,a3,0x18
800008e0:	00e6e6b3          	or	a3,a3,a4
800008e4:	00d486b3          	add	a3,s1,a3
800008e8:	03e60733          	mul	a4,a2,t5
800008ec:	03e61533          	mulh	a0,a2,t5
800008f0:	00851513          	slli	a0,a0,0x8
800008f4:	01875713          	srli	a4,a4,0x18
800008f8:	00a76533          	or	a0,a4,a0
800008fc:	00a68533          	add	a0,a3,a0
80000900:	03f406b3          	mul	a3,s0,t6
80000904:	03f41733          	mulh	a4,s0,t6
80000908:	00871713          	slli	a4,a4,0x8
8000090c:	0186d693          	srli	a3,a3,0x18
80000910:	00e6e6b3          	or	a3,a3,a4
80000914:	00d486b3          	add	a3,s1,a3
80000918:	02f60733          	mul	a4,a2,a5
8000091c:	02f617b3          	mulh	a5,a2,a5
80000920:	00879793          	slli	a5,a5,0x8
80000924:	01875713          	srli	a4,a4,0x18
80000928:	00f76733          	or	a4,a4,a5
8000092c:	00e686b3          	add	a3,a3,a4
80000930:	03140733          	mul	a4,s0,a7
80000934:	031417b3          	mulh	a5,s0,a7
80000938:	00879793          	slli	a5,a5,0x8
8000093c:	01875713          	srli	a4,a4,0x18
80000940:	00f76733          	or	a4,a4,a5
80000944:	00e48733          	add	a4,s1,a4
80000948:	030607b3          	mul	a5,a2,a6
8000094c:	03061633          	mulh	a2,a2,a6
80000950:	00861613          	slli	a2,a2,0x8
80000954:	0187d793          	srli	a5,a5,0x18
80000958:	00c7e633          	or	a2,a5,a2
8000095c:	00c70733          	add	a4,a4,a2
80000960:	4012d613          	srai	a2,t0,0x1
80000964:	4015d593          	srai	a1,a1,0x1
80000968:	00b604ab          	0xb604ab
8000096c:	401ed593          	srai	a1,t4,0x1
80000970:	40155513          	srai	a0,a0,0x1
80000974:	00a587ab          	0xa587ab
80000978:	4019d513          	srai	a0,s3,0x1
8000097c:	4016d593          	srai	a1,a3,0x1
80000980:	00b5062b          	0xb5062b
80000984:	401ad513          	srai	a0,s5,0x1
80000988:	40175593          	srai	a1,a4,0x1
8000098c:	00b5052b          	0xb5052b
80000990:	02b94583          	lbu	a1,43(s2)
80000994:	0015b693          	seqz	a3,a1
80000998:	0006a00b          	0x6a00b
8000099c:	48058063          	beqz	a1,80000e1c <_Z18shader_function_hwiP12kernel_arg_t+0xd98>
800009a0:	01855813          	srli	a6,a0,0x18
800009a4:	00855893          	srli	a7,a0,0x8
800009a8:	01055293          	srli	t0,a0,0x10
800009ac:	01865313          	srli	t1,a2,0x18
800009b0:	00865393          	srli	t2,a2,0x8
800009b4:	01065e13          	srli	t3,a2,0x10
800009b8:	0187de93          	srli	t4,a5,0x18
800009bc:	0087df13          	srli	t5,a5,0x8
800009c0:	0107df93          	srli	t6,a5,0x10
800009c4:	0184d693          	srli	a3,s1,0x18
800009c8:	07012703          	lw	a4,112(sp)
800009cc:	0084d413          	srli	s0,s1,0x8
800009d0:	0104d593          	srli	a1,s1,0x10
800009d4:	0ff5f593          	andi	a1,a1,255
800009d8:	02b705b3          	mul	a1,a4,a1
800009dc:	06012703          	lw	a4,96(sp)
800009e0:	0185d593          	srli	a1,a1,0x18
800009e4:	00b10923          	sb	a1,18(sp)
800009e8:	0ff47593          	andi	a1,s0,255
800009ec:	02b705b3          	mul	a1,a4,a1
800009f0:	0185d593          	srli	a1,a1,0x18
800009f4:	05012703          	lw	a4,80(sp)
800009f8:	00b108a3          	sb	a1,17(sp)
800009fc:	0ff4f593          	andi	a1,s1,255
80000a00:	04012403          	lw	s0,64(sp)
80000a04:	02b705b3          	mul	a1,a4,a1
80000a08:	0185d593          	srli	a1,a1,0x18
80000a0c:	00b10823          	sb	a1,16(sp)
80000a10:	02d405b3          	mul	a1,s0,a3
80000a14:	07412683          	lw	a3,116(sp)
80000a18:	0185d593          	srli	a1,a1,0x18
80000a1c:	00b109a3          	sb	a1,19(sp)
80000a20:	0ffff593          	andi	a1,t6,255
80000a24:	02b685b3          	mul	a1,a3,a1
80000a28:	06412683          	lw	a3,100(sp)
80000a2c:	0185d593          	srli	a1,a1,0x18
80000a30:	00b10b23          	sb	a1,22(sp)
80000a34:	0fff7593          	andi	a1,t5,255
80000a38:	02b685b3          	mul	a1,a3,a1
80000a3c:	0185d593          	srli	a1,a1,0x18
80000a40:	05412683          	lw	a3,84(sp)
80000a44:	00b10aa3          	sb	a1,21(sp)
80000a48:	0ff7f593          	andi	a1,a5,255
80000a4c:	04412703          	lw	a4,68(sp)
80000a50:	02b685b3          	mul	a1,a3,a1
80000a54:	0185d593          	srli	a1,a1,0x18
80000a58:	00b10a23          	sb	a1,20(sp)
80000a5c:	03d705b3          	mul	a1,a4,t4
80000a60:	07812683          	lw	a3,120(sp)
80000a64:	0185d593          	srli	a1,a1,0x18
80000a68:	00b10ba3          	sb	a1,23(sp)
80000a6c:	0ffe7593          	andi	a1,t3,255
80000a70:	02b685b3          	mul	a1,a3,a1
80000a74:	06812683          	lw	a3,104(sp)
80000a78:	0185d593          	srli	a1,a1,0x18
80000a7c:	00b10d23          	sb	a1,26(sp)
80000a80:	0ff3f593          	andi	a1,t2,255
80000a84:	02b685b3          	mul	a1,a3,a1
80000a88:	0185d593          	srli	a1,a1,0x18
80000a8c:	05812683          	lw	a3,88(sp)
80000a90:	00b10ca3          	sb	a1,25(sp)
80000a94:	0ff67593          	andi	a1,a2,255
80000a98:	04812603          	lw	a2,72(sp)
80000a9c:	02b685b3          	mul	a1,a3,a1
80000aa0:	0185d593          	srli	a1,a1,0x18
80000aa4:	00b10c23          	sb	a1,24(sp)
80000aa8:	026605b3          	mul	a1,a2,t1
80000aac:	07c12603          	lw	a2,124(sp)
80000ab0:	0185d593          	srli	a1,a1,0x18
80000ab4:	00b10da3          	sb	a1,27(sp)
80000ab8:	0ff2f593          	andi	a1,t0,255
80000abc:	02b605b3          	mul	a1,a2,a1
80000ac0:	06c12603          	lw	a2,108(sp)
80000ac4:	0185d593          	srli	a1,a1,0x18
80000ac8:	00b10f23          	sb	a1,30(sp)
80000acc:	0ff8f593          	andi	a1,a7,255
80000ad0:	02b605b3          	mul	a1,a2,a1
80000ad4:	0185d593          	srli	a1,a1,0x18
80000ad8:	05c12603          	lw	a2,92(sp)
80000adc:	00b10ea3          	sb	a1,29(sp)
80000ae0:	0ff57513          	andi	a0,a0,255
80000ae4:	04c12583          	lw	a1,76(sp)
80000ae8:	02a60533          	mul	a0,a2,a0
80000aec:	01855513          	srli	a0,a0,0x18
80000af0:	00a10e23          	sb	a0,28(sp)
80000af4:	03058533          	mul	a0,a1,a6
80000af8:	01855513          	srli	a0,a0,0x18
80000afc:	00a10fa3          	sb	a0,31(sp)
80000b00:	0000300b          	0x300b
80000b04:	4300006f          	j	80000f34 <_Z18shader_function_hwiP12kernel_arg_t+0xeb0>
80000b08:	00d03733          	snez	a4,a3
80000b0c:	0007200b          	0x7200b
80000b10:	06068263          	beqz	a3,80000b74 <_Z18shader_function_hwiP12kernel_arg_t+0xaf0>
80000b14:	0005a683          	lw	a3,0(a1)
80000b18:	02c62703          	lw	a4,44(a2)
80000b1c:	76a6a6ab          	0x76a6a6ab
80000b20:	02862703          	lw	a4,40(a2)
80000b24:	6e6726ab          	0x6e6726ab
80000b28:	08d12023          	sw	a3,128(sp)
80000b2c:	0005a683          	lw	a3,0(a1)
80000b30:	02c62703          	lw	a4,44(a2)
80000b34:	77d6a6ab          	0x77d6a6ab
80000b38:	02862703          	lw	a4,40(a2)
80000b3c:	6e7726ab          	0x6e7726ab
80000b40:	08d12223          	sw	a3,132(sp)
80000b44:	0005a683          	lw	a3,0(a1)
80000b48:	02c62703          	lw	a4,44(a2)
80000b4c:	77c6a6ab          	0x77c6a6ab
80000b50:	02862703          	lw	a4,40(a2)
80000b54:	6e5726ab          	0x6e5726ab
80000b58:	08d12423          	sw	a3,136(sp)
80000b5c:	0005a583          	lw	a1,0(a1)
80000b60:	02c62683          	lw	a3,44(a2)
80000b64:	6f15a5ab          	0x6f15a5ab
80000b68:	02862683          	lw	a3,40(a2)
80000b6c:	5f06a5ab          	0x5f06a5ab
80000b70:	08b12623          	sw	a1,140(sp)
80000b74:	0000300b          	0x300b
80000b78:	02994583          	lbu	a1,41(s2)
80000b7c:	0015b693          	seqz	a3,a1
80000b80:	0006a00b          	0x6a00b
80000b84:	18058863          	beqz	a1,80000d14 <_Z18shader_function_hwiP12kernel_arg_t+0xc90>
80000b88:	03062583          	lw	a1,48(a2)
80000b8c:	03862683          	lw	a3,56(a2)
80000b90:	6ea5a5ab          	0x6ea5a5ab
80000b94:	03462683          	lw	a3,52(a2)
80000b98:	5e66a5ab          	0x5e66a5ab
80000b9c:	06b12823          	sw	a1,112(sp)
80000ba0:	03062583          	lw	a1,48(a2)
80000ba4:	03862683          	lw	a3,56(a2)
80000ba8:	6fd5a5ab          	0x6fd5a5ab
80000bac:	03462683          	lw	a3,52(a2)
80000bb0:	5e76a5ab          	0x5e76a5ab
80000bb4:	06b12a23          	sw	a1,116(sp)
80000bb8:	03062583          	lw	a1,48(a2)
80000bbc:	03862683          	lw	a3,56(a2)
80000bc0:	6fc5a5ab          	0x6fc5a5ab
80000bc4:	03462683          	lw	a3,52(a2)
80000bc8:	5e56a5ab          	0x5e56a5ab
80000bcc:	06b12c23          	sw	a1,120(sp)
80000bd0:	03062583          	lw	a1,48(a2)
80000bd4:	03862683          	lw	a3,56(a2)
80000bd8:	6f15a5ab          	0x6f15a5ab
80000bdc:	03462683          	lw	a3,52(a2)
80000be0:	5f06a5ab          	0x5f06a5ab
80000be4:	06b12e23          	sw	a1,124(sp)
80000be8:	03c62583          	lw	a1,60(a2)
80000bec:	04462683          	lw	a3,68(a2)
80000bf0:	6ea5a5ab          	0x6ea5a5ab
80000bf4:	04062683          	lw	a3,64(a2)
80000bf8:	5e66a5ab          	0x5e66a5ab
80000bfc:	06b12023          	sw	a1,96(sp)
80000c00:	03c62583          	lw	a1,60(a2)
80000c04:	04462683          	lw	a3,68(a2)
80000c08:	6fd5a5ab          	0x6fd5a5ab
80000c0c:	04062683          	lw	a3,64(a2)
80000c10:	5e76a5ab          	0x5e76a5ab
80000c14:	06b12223          	sw	a1,100(sp)
80000c18:	03c62583          	lw	a1,60(a2)
80000c1c:	04462683          	lw	a3,68(a2)
80000c20:	6fc5a5ab          	0x6fc5a5ab
80000c24:	04062683          	lw	a3,64(a2)
80000c28:	5e56a5ab          	0x5e56a5ab
80000c2c:	06b12423          	sw	a1,104(sp)
80000c30:	03c62583          	lw	a1,60(a2)
80000c34:	04462683          	lw	a3,68(a2)
80000c38:	6f15a5ab          	0x6f15a5ab
80000c3c:	04062683          	lw	a3,64(a2)
80000c40:	5f06a5ab          	0x5f06a5ab
80000c44:	06b12623          	sw	a1,108(sp)
80000c48:	04862583          	lw	a1,72(a2)
80000c4c:	05062683          	lw	a3,80(a2)
80000c50:	6ea5a5ab          	0x6ea5a5ab
80000c54:	04c62683          	lw	a3,76(a2)
80000c58:	5e66a5ab          	0x5e66a5ab
80000c5c:	04b12823          	sw	a1,80(sp)
80000c60:	04862583          	lw	a1,72(a2)
80000c64:	05062683          	lw	a3,80(a2)
80000c68:	6fd5a5ab          	0x6fd5a5ab
80000c6c:	04c62683          	lw	a3,76(a2)
80000c70:	5e76a5ab          	0x5e76a5ab
80000c74:	04b12a23          	sw	a1,84(sp)
80000c78:	04862583          	lw	a1,72(a2)
80000c7c:	05062683          	lw	a3,80(a2)
80000c80:	6fc5a5ab          	0x6fc5a5ab
80000c84:	04c62683          	lw	a3,76(a2)
80000c88:	5e56a5ab          	0x5e56a5ab
80000c8c:	04b12c23          	sw	a1,88(sp)
80000c90:	04862583          	lw	a1,72(a2)
80000c94:	05062683          	lw	a3,80(a2)
80000c98:	6f15a5ab          	0x6f15a5ab
80000c9c:	04c62683          	lw	a3,76(a2)
80000ca0:	5f06a5ab          	0x5f06a5ab
80000ca4:	04b12e23          	sw	a1,92(sp)
80000ca8:	05462583          	lw	a1,84(a2)
80000cac:	05c62683          	lw	a3,92(a2)
80000cb0:	6ea5a52b          	0x6ea5a52b
80000cb4:	05862583          	lw	a1,88(a2)
80000cb8:	5665a52b          	0x5665a52b
80000cbc:	04a12023          	sw	a0,64(sp)
80000cc0:	05462503          	lw	a0,84(a2)
80000cc4:	05c62583          	lw	a1,92(a2)
80000cc8:	5fd5252b          	0x5fd5252b
80000ccc:	05862583          	lw	a1,88(a2)
80000cd0:	5675a52b          	0x5675a52b
80000cd4:	04a12223          	sw	a0,68(sp)
80000cd8:	05462503          	lw	a0,84(a2)
80000cdc:	05c62583          	lw	a1,92(a2)
80000ce0:	5fc5252b          	0x5fc5252b
80000ce4:	05862583          	lw	a1,88(a2)
80000ce8:	02812283          	lw	t0,40(sp)
80000cec:	5655a52b          	0x5655a52b
80000cf0:	04a12423          	sw	a0,72(sp)
80000cf4:	05462503          	lw	a0,84(a2)
80000cf8:	03c12883          	lw	a7,60(sp)
80000cfc:	05c62583          	lw	a1,92(a2)
80000d00:	5f15252b          	0x5f15252b
80000d04:	05862583          	lw	a1,88(a2)
80000d08:	02c12803          	lw	a6,44(sp)
80000d0c:	5705a52b          	0x5705a52b
80000d10:	04a12623          	sw	a0,76(sp)
80000d14:	0000300b          	0x300b
80000d18:	02a94503          	lbu	a0,42(s2)
80000d1c:	00153593          	seqz	a1,a0
80000d20:	0005a00b          	0x5a00b
80000d24:	10050863          	beqz	a0,80000e34 <_Z18shader_function_hwiP12kernel_arg_t+0xdb0>
80000d28:	06062503          	lw	a0,96(a2)
80000d2c:	03012583          	lw	a1,48(sp)
80000d30:	06862683          	lw	a3,104(a2)
80000d34:	6eb5252b          	0x6eb5252b
80000d38:	06462683          	lw	a3,100(a2)
80000d3c:	02012703          	lw	a4,32(sp)
80000d40:	56e6a32b          	0x56e6a32b
80000d44:	06062683          	lw	a3,96(a2)
80000d48:	03412783          	lw	a5,52(sp)
80000d4c:	06862483          	lw	s1,104(a2)
80000d50:	4ef6a6ab          	0x4ef6a6ab
80000d54:	06462483          	lw	s1,100(a2)
80000d58:	02412403          	lw	s0,36(sp)
80000d5c:	6e84a3ab          	0x6e84a3ab
80000d60:	06062483          	lw	s1,96(a2)
80000d64:	03812503          	lw	a0,56(sp)
80000d68:	06862683          	lw	a3,104(a2)
80000d6c:	6ea4a6ab          	0x6ea4a6ab
80000d70:	06462483          	lw	s1,100(a2)
80000d74:	6e54ae2b          	0x6e54ae2b
80000d78:	06062483          	lw	s1,96(a2)
80000d7c:	06862683          	lw	a3,104(a2)
80000d80:	6f14a6ab          	0x6f14a6ab
80000d84:	06462483          	lw	s1,100(a2)
80000d88:	6f04aeab          	0x6f04aeab
80000d8c:	06c62483          	lw	s1,108(a2)
80000d90:	07462683          	lw	a3,116(a2)
80000d94:	6eb4a5ab          	0x6eb4a5ab
80000d98:	07062683          	lw	a3,112(a2)
80000d9c:	5ee6a5ab          	0x5ee6a5ab
80000da0:	06c62683          	lw	a3,108(a2)
80000da4:	07462703          	lw	a4,116(a2)
80000da8:	76f6a6ab          	0x76f6a6ab
80000dac:	07062703          	lw	a4,112(a2)
80000db0:	6e8726ab          	0x6e8726ab
80000db4:	06c62703          	lw	a4,108(a2)
80000db8:	07462783          	lw	a5,116(a2)
80000dbc:	7ea7252b          	0x7ea7252b
80000dc0:	07062703          	lw	a4,112(a2)
80000dc4:	5657252b          	0x5657252b
80000dc8:	06c62703          	lw	a4,108(a2)
80000dcc:	07462783          	lw	a5,116(a2)
80000dd0:	7f17272b          	0x7f17272b
80000dd4:	07062603          	lw	a2,112(a2)
80000dd8:	7706272b          	0x7706272b
80000ddc:	40135613          	srai	a2,t1,0x1
80000de0:	4015d593          	srai	a1,a1,0x1
80000de4:	00b604ab          	0xb604ab
80000de8:	4013d593          	srai	a1,t2,0x1
80000dec:	4016d613          	srai	a2,a3,0x1
80000df0:	00c587ab          	0xc587ab
80000df4:	401e5593          	srai	a1,t3,0x1
80000df8:	40155513          	srai	a0,a0,0x1
80000dfc:	00a5862b          	0xa5862b
80000e00:	401ed513          	srai	a0,t4,0x1
80000e04:	40175593          	srai	a1,a4,0x1
80000e08:	00b5052b          	0xb5052b
80000e0c:	02b94583          	lbu	a1,43(s2)
80000e10:	0015b693          	seqz	a3,a1
80000e14:	0006a00b          	0x6a00b
80000e18:	b80594e3          	bnez	a1,800009a0 <_Z18shader_function_hwiP12kernel_arg_t+0x91c>
80000e1c:	00912823          	sw	s1,16(sp)
80000e20:	00f12a23          	sw	a5,20(sp)
80000e24:	00c12c23          	sw	a2,24(sp)
80000e28:	00a12e23          	sw	a0,28(sp)
80000e2c:	0000300b          	0x300b
80000e30:	1040006f          	j	80000f34 <_Z18shader_function_hwiP12kernel_arg_t+0xeb0>
80000e34:	07012503          	lw	a0,112(sp)
80000e38:	06012583          	lw	a1,96(sp)
80000e3c:	03850533          	mul	a0,a0,s8
80000e40:	01855513          	srli	a0,a0,0x18
80000e44:	00a10923          	sb	a0,18(sp)
80000e48:	03858533          	mul	a0,a1,s8
80000e4c:	05012583          	lw	a1,80(sp)
80000e50:	01855513          	srli	a0,a0,0x18
80000e54:	00a108a3          	sb	a0,17(sp)
80000e58:	04012503          	lw	a0,64(sp)
80000e5c:	038585b3          	mul	a1,a1,s8
80000e60:	0185d593          	srli	a1,a1,0x18
80000e64:	00b10823          	sb	a1,16(sp)
80000e68:	03850533          	mul	a0,a0,s8
80000e6c:	07412583          	lw	a1,116(sp)
80000e70:	01855513          	srli	a0,a0,0x18
80000e74:	00a109a3          	sb	a0,19(sp)
80000e78:	06412503          	lw	a0,100(sp)
80000e7c:	038585b3          	mul	a1,a1,s8
80000e80:	0185d593          	srli	a1,a1,0x18
80000e84:	00b10b23          	sb	a1,22(sp)
80000e88:	03850533          	mul	a0,a0,s8
80000e8c:	05412583          	lw	a1,84(sp)
80000e90:	01855513          	srli	a0,a0,0x18
80000e94:	00a10aa3          	sb	a0,21(sp)
80000e98:	04412503          	lw	a0,68(sp)
80000e9c:	038585b3          	mul	a1,a1,s8
80000ea0:	0185d593          	srli	a1,a1,0x18
80000ea4:	00b10a23          	sb	a1,20(sp)
80000ea8:	03850533          	mul	a0,a0,s8
80000eac:	07812583          	lw	a1,120(sp)
80000eb0:	01855513          	srli	a0,a0,0x18
80000eb4:	00a10ba3          	sb	a0,23(sp)
80000eb8:	06812503          	lw	a0,104(sp)
80000ebc:	038585b3          	mul	a1,a1,s8
80000ec0:	0185d593          	srli	a1,a1,0x18
80000ec4:	00b10d23          	sb	a1,26(sp)
80000ec8:	03850533          	mul	a0,a0,s8
80000ecc:	05812583          	lw	a1,88(sp)
80000ed0:	01855513          	srli	a0,a0,0x18
80000ed4:	00a10ca3          	sb	a0,25(sp)
80000ed8:	04812503          	lw	a0,72(sp)
80000edc:	038585b3          	mul	a1,a1,s8
80000ee0:	0185d593          	srli	a1,a1,0x18
80000ee4:	00b10c23          	sb	a1,24(sp)
80000ee8:	03850533          	mul	a0,a0,s8
80000eec:	07c12583          	lw	a1,124(sp)
80000ef0:	01855513          	srli	a0,a0,0x18
80000ef4:	00a10da3          	sb	a0,27(sp)
80000ef8:	06c12503          	lw	a0,108(sp)
80000efc:	038585b3          	mul	a1,a1,s8
80000f00:	0185d593          	srli	a1,a1,0x18
80000f04:	00b10f23          	sb	a1,30(sp)
80000f08:	03850533          	mul	a0,a0,s8
80000f0c:	05c12583          	lw	a1,92(sp)
80000f10:	01855513          	srli	a0,a0,0x18
80000f14:	00a10ea3          	sb	a0,29(sp)
80000f18:	04c12503          	lw	a0,76(sp)
80000f1c:	038585b3          	mul	a1,a1,s8
80000f20:	0185d593          	srli	a1,a1,0x18
80000f24:	00b10e23          	sb	a1,28(sp)
80000f28:	03850533          	mul	a0,a0,s8
80000f2c:	01855513          	srli	a0,a0,0x18
80000f30:	00a10fa3          	sb	a0,31(sp)
80000f34:	0000300b          	0x300b
80000f38:	0000300b          	0x300b
80000f3c:	02d94503          	lbu	a0,45(s2)
80000f40:	00153593          	seqz	a1,a0
80000f44:	0005a00b          	0x5a00b
80000f48:	22050263          	beqz	a0,8000116c <_Z18shader_function_hwiP12kernel_arg_t+0x10e8>
80000f4c:	7c002cf3          	csrr	s9,0x7c0
80000f50:	01912423          	sw	s9,8(sp)
80000f54:	001cf513          	andi	a0,s9,1
80000f58:	00153593          	seqz	a1,a0
80000f5c:	0005a00b          	0x5a00b
80000f60:	004cd593          	srli	a1,s9,0x4
80000f64:	0165fab3          	and	s5,a1,s6
80000f68:	012cdd93          	srli	s11,s9,0x12
80000f6c:	06050a63          	beqz	a0,80000fe0 <_Z18shader_function_hwiP12kernel_arg_t+0xf5c>
80000f70:	08c92d03          	lw	s10,140(s2)
80000f74:	07dd4503          	lbu	a0,125(s10)
80000f78:	01012983          	lw	s3,16(sp)
80000f7c:	08012703          	lw	a4,128(sp)
80000f80:	00153593          	seqz	a1,a0
80000f84:	0005a00b          	0x5a00b
80000f88:	001a9493          	slli	s1,s5,0x1
80000f8c:	001d9413          	slli	s0,s11,0x1
80000f90:	00051a63          	bnez	a0,80000fa4 <_Z18shader_function_hwiP12kernel_arg_t+0xf20>
80000f94:	07cd4503          	lbu	a0,124(s10)
80000f98:	00153593          	seqz	a1,a0
80000f9c:	0005a00b          	0x5a00b
80000fa0:	02050063          	beqz	a0,80000fc0 <_Z18shader_function_hwiP12kernel_arg_t+0xf3c>
80000fa4:	034d0513          	addi	a0,s10,52
80000fa8:	00048593          	mv	a1,s1
80000fac:	00040613          	mv	a2,s0
80000fb0:	00000693          	li	a3,0
80000fb4:	055010ef          	jal	ra,80002808 <_ZN11DepthTencil18doDepthStencilTestEjjjj>
80000fb8:	0005200b          	0x5200b
80000fbc:	00050c63          	beqz	a0,80000fd4 <_Z18shader_function_hwiP12kernel_arg_t+0xf50>
80000fc0:	080d0513          	addi	a0,s10,128
80000fc4:	00048593          	mv	a1,s1
80000fc8:	00040613          	mv	a2,s0
80000fcc:	00098693          	mv	a3,s3
80000fd0:	650010ef          	jal	ra,80002620 <_ZN7Blender5writeEjjj>
80000fd4:	0000300b          	0x300b
80000fd8:	0000300b          	0x300b
80000fdc:	0000300b          	0x300b
80000fe0:	0000300b          	0x300b
80000fe4:	002cf513          	andi	a0,s9,2
80000fe8:	00153593          	seqz	a1,a0
80000fec:	0005a00b          	0x5a00b
80000ff0:	06050c63          	beqz	a0,80001068 <_Z18shader_function_hwiP12kernel_arg_t+0xfe4>
80000ff4:	08c92403          	lw	s0,140(s2)
80000ff8:	07d44503          	lbu	a0,125(s0)
80000ffc:	01412983          	lw	s3,20(sp)
80001000:	08412703          	lw	a4,132(sp)
80001004:	00153593          	seqz	a1,a0
80001008:	0005a00b          	0x5a00b
8000100c:	001a9593          	slli	a1,s5,0x1
80001010:	0015e493          	ori	s1,a1,1
80001014:	001d9d13          	slli	s10,s11,0x1
80001018:	00051a63          	bnez	a0,8000102c <_Z18shader_function_hwiP12kernel_arg_t+0xfa8>
8000101c:	07c44503          	lbu	a0,124(s0)
80001020:	00153593          	seqz	a1,a0
80001024:	0005a00b          	0x5a00b
80001028:	02050063          	beqz	a0,80001048 <_Z18shader_function_hwiP12kernel_arg_t+0xfc4>
8000102c:	03440513          	addi	a0,s0,52
80001030:	00048593          	mv	a1,s1
80001034:	000d0613          	mv	a2,s10
80001038:	00000693          	li	a3,0
8000103c:	7cc010ef          	jal	ra,80002808 <_ZN11DepthTencil18doDepthStencilTestEjjjj>
80001040:	0005200b          	0x5200b
80001044:	00050c63          	beqz	a0,8000105c <_Z18shader_function_hwiP12kernel_arg_t+0xfd8>
80001048:	08040513          	addi	a0,s0,128
8000104c:	00048593          	mv	a1,s1
80001050:	000d0613          	mv	a2,s10
80001054:	00098693          	mv	a3,s3
80001058:	5c8010ef          	jal	ra,80002620 <_ZN7Blender5writeEjjj>
8000105c:	0000300b          	0x300b
80001060:	0000300b          	0x300b
80001064:	0000300b          	0x300b
80001068:	0000300b          	0x300b
8000106c:	004cf513          	andi	a0,s9,4
80001070:	00153593          	seqz	a1,a0
80001074:	0005a00b          	0x5a00b
80001078:	06050c63          	beqz	a0,800010f0 <_Z18shader_function_hwiP12kernel_arg_t+0x106c>
8000107c:	08c92403          	lw	s0,140(s2)
80001080:	07d44503          	lbu	a0,125(s0)
80001084:	01812983          	lw	s3,24(sp)
80001088:	08812703          	lw	a4,136(sp)
8000108c:	00153593          	seqz	a1,a0
80001090:	0005a00b          	0x5a00b
80001094:	001a9d13          	slli	s10,s5,0x1
80001098:	001d9593          	slli	a1,s11,0x1
8000109c:	0015e493          	ori	s1,a1,1
800010a0:	00051a63          	bnez	a0,800010b4 <_Z18shader_function_hwiP12kernel_arg_t+0x1030>
800010a4:	07c44503          	lbu	a0,124(s0)
800010a8:	00153593          	seqz	a1,a0
800010ac:	0005a00b          	0x5a00b
800010b0:	02050063          	beqz	a0,800010d0 <_Z18shader_function_hwiP12kernel_arg_t+0x104c>
800010b4:	03440513          	addi	a0,s0,52
800010b8:	000d0593          	mv	a1,s10
800010bc:	00048613          	mv	a2,s1
800010c0:	00000693          	li	a3,0
800010c4:	744010ef          	jal	ra,80002808 <_ZN11DepthTencil18doDepthStencilTestEjjjj>
800010c8:	0005200b          	0x5200b
800010cc:	00050c63          	beqz	a0,800010e4 <_Z18shader_function_hwiP12kernel_arg_t+0x1060>
800010d0:	08040513          	addi	a0,s0,128
800010d4:	000d0593          	mv	a1,s10
800010d8:	00048613          	mv	a2,s1
800010dc:	00098693          	mv	a3,s3
800010e0:	540010ef          	jal	ra,80002620 <_ZN7Blender5writeEjjj>
800010e4:	0000300b          	0x300b
800010e8:	0000300b          	0x300b
800010ec:	0000300b          	0x300b
800010f0:	0000300b          	0x300b
800010f4:	008cf513          	andi	a0,s9,8
800010f8:	00153593          	seqz	a1,a0
800010fc:	0005a00b          	0x5a00b
80001100:	00051463          	bnez	a0,80001108 <_Z18shader_function_hwiP12kernel_arg_t+0x1084>
80001104:	8a8ff06f          	j	800001ac <_Z18shader_function_hwiP12kernel_arg_t+0x128>
80001108:	08c92403          	lw	s0,140(s2)
8000110c:	07d44503          	lbu	a0,125(s0)
80001110:	001a9593          	slli	a1,s5,0x1
80001114:	01c12983          	lw	s3,28(sp)
80001118:	08c12703          	lw	a4,140(sp)
8000111c:	00153613          	seqz	a2,a0
80001120:	0006200b          	0x6200b
80001124:	0015ea93          	ori	s5,a1,1
80001128:	001d9593          	slli	a1,s11,0x1
8000112c:	0015e493          	ori	s1,a1,1
80001130:	00051c63          	bnez	a0,80001148 <_Z18shader_function_hwiP12kernel_arg_t+0x10c4>
80001134:	07c44503          	lbu	a0,124(s0)
80001138:	00153593          	seqz	a1,a0
8000113c:	0005a00b          	0x5a00b
80001140:	00051463          	bnez	a0,80001148 <_Z18shader_function_hwiP12kernel_arg_t+0x10c4>
80001144:	848ff06f          	j	8000018c <_Z18shader_function_hwiP12kernel_arg_t+0x108>
80001148:	03440513          	addi	a0,s0,52
8000114c:	000a8593          	mv	a1,s5
80001150:	00048613          	mv	a2,s1
80001154:	00000693          	li	a3,0
80001158:	6b0010ef          	jal	ra,80002808 <_ZN11DepthTencil18doDepthStencilTestEjjjj>
8000115c:	0005200b          	0x5200b
80001160:	00050463          	beqz	a0,80001168 <_Z18shader_function_hwiP12kernel_arg_t+0x10e4>
80001164:	828ff06f          	j	8000018c <_Z18shader_function_hwiP12kernel_arg_t+0x108>
80001168:	838ff06f          	j	800001a0 <_Z18shader_function_hwiP12kernel_arg_t+0x11c>
8000116c:	7c0025f3          	csrr	a1,0x7c0
80001170:	00b12423          	sw	a1,8(sp)
80001174:	0015f693          	andi	a3,a1,1
80001178:	0016b513          	seqz	a0,a3
8000117c:	0005200b          	0x5200b
80001180:	0045d513          	srli	a0,a1,0x4
80001184:	01657533          	and	a0,a0,s6
80001188:	0125d613          	srli	a2,a1,0x12
8000118c:	00068e63          	beqz	a3,800011a8 <_Z18shader_function_hwiP12kernel_arg_t+0x1124>
80001190:	01012683          	lw	a3,16(sp)
80001194:	08012703          	lw	a4,128(sp)
80001198:	01161793          	slli	a5,a2,0x11
8000119c:	00251493          	slli	s1,a0,0x2
800011a0:	00f4e7b3          	or	a5,s1,a5
800011a4:	72d7902b          	0x72d7902b
800011a8:	0000300b          	0x300b
800011ac:	0025f693          	andi	a3,a1,2
800011b0:	0016b713          	seqz	a4,a3
800011b4:	0007200b          	0x7200b
800011b8:	02068063          	beqz	a3,800011d8 <_Z18shader_function_hwiP12kernel_arg_t+0x1154>
800011bc:	01161693          	slli	a3,a2,0x11
800011c0:	01412703          	lw	a4,20(sp)
800011c4:	08412783          	lw	a5,132(sp)
800011c8:	00251493          	slli	s1,a0,0x2
800011cc:	0096e6b3          	or	a3,a3,s1
800011d0:	0026e693          	ori	a3,a3,2
800011d4:	7ae6902b          	0x7ae6902b
800011d8:	0000300b          	0x300b
800011dc:	0045f693          	andi	a3,a1,4
800011e0:	0016b713          	seqz	a4,a3
800011e4:	0007200b          	0x7200b
800011e8:	02068263          	beqz	a3,8000120c <_Z18shader_function_hwiP12kernel_arg_t+0x1188>
800011ec:	01161693          	slli	a3,a2,0x11
800011f0:	01812703          	lw	a4,24(sp)
800011f4:	08812783          	lw	a5,136(sp)
800011f8:	00251493          	slli	s1,a0,0x2
800011fc:	0096e6b3          	or	a3,a3,s1
80001200:	000104b7          	lui	s1,0x10
80001204:	0096e6b3          	or	a3,a3,s1
80001208:	7ae6902b          	0x7ae6902b
8000120c:	0000300b          	0x300b
80001210:	0085f593          	andi	a1,a1,8
80001214:	0015b693          	seqz	a3,a1
80001218:	0006a00b          	0x6a00b
8000121c:	00059463          	bnez	a1,80001224 <_Z18shader_function_hwiP12kernel_arg_t+0x11a0>
80001220:	f8dfe06f          	j	800001ac <_Z18shader_function_hwiP12kernel_arg_t+0x128>
80001224:	01161593          	slli	a1,a2,0x11
80001228:	01c12603          	lw	a2,28(sp)
8000122c:	08c12683          	lw	a3,140(sp)
80001230:	00251513          	slli	a0,a0,0x2
80001234:	00a5e533          	or	a0,a1,a0
80001238:	00412583          	lw	a1,4(sp)
8000123c:	00b56533          	or	a0,a0,a1
80001240:	6ac5102b          	0x6ac5102b
80001244:	f69fe06f          	j	800001ac <_Z18shader_function_hwiP12kernel_arg_t+0x128>
80001248:	00012503          	lw	a0,0(sp)
8000124c:	0005000b          	0x5000b
80001250:	0000300b          	0x300b
80001254:	09012907          	flw	fs2,144(sp)
80001258:	09412487          	flw	fs1,148(sp)
8000125c:	09812407          	flw	fs0,152(sp)
80001260:	09c12d83          	lw	s11,156(sp)
80001264:	0a012d03          	lw	s10,160(sp)
80001268:	0a412c83          	lw	s9,164(sp)
8000126c:	0a812c03          	lw	s8,168(sp)
80001270:	0ac12b83          	lw	s7,172(sp)
80001274:	0b012b03          	lw	s6,176(sp)
80001278:	0b412a83          	lw	s5,180(sp)
8000127c:	0b812a03          	lw	s4,184(sp)
80001280:	0bc12983          	lw	s3,188(sp)
80001284:	0c012903          	lw	s2,192(sp)
80001288:	0c412483          	lw	s1,196(sp)
8000128c:	0c812403          	lw	s0,200(sp)
80001290:	0cc12083          	lw	ra,204(sp)
80001294:	0d010113          	addi	sp,sp,208
80001298:	00008067          	ret

8000129c <_Z26shader_function_sw_rast_cbP12kernel_arg_tjjjPKN7cocogfx8TVector3INS1_6TFixedILj16EiEEEEj>:
8000129c:	f5010113          	addi	sp,sp,-176
800012a0:	0a112623          	sw	ra,172(sp)
800012a4:	0a812423          	sw	s0,168(sp)
800012a8:	0a912223          	sw	s1,164(sp)
800012ac:	0b212023          	sw	s2,160(sp)
800012b0:	09312e23          	sw	s3,156(sp)
800012b4:	09412c23          	sw	s4,152(sp)
800012b8:	09512a23          	sw	s5,148(sp)
800012bc:	09612823          	sw	s6,144(sp)
800012c0:	00050993          	mv	s3,a0
800012c4:	02452803          	lw	a6,36(a0)
800012c8:	08012023          	sw	zero,128(sp)
800012cc:	01000537          	lui	a0,0x1000
800012d0:	06a12823          	sw	a0,112(sp)
800012d4:	06a12023          	sw	a0,96(sp)
800012d8:	04a12823          	sw	a0,80(sp)
800012dc:	04a12023          	sw	a0,64(sp)
800012e0:	08012223          	sw	zero,132(sp)
800012e4:	06a12a23          	sw	a0,116(sp)
800012e8:	06a12223          	sw	a0,100(sp)
800012ec:	04a12a23          	sw	a0,84(sp)
800012f0:	04a12223          	sw	a0,68(sp)
800012f4:	08012423          	sw	zero,136(sp)
800012f8:	06a12c23          	sw	a0,120(sp)
800012fc:	06a12423          	sw	a0,104(sp)
80001300:	04a12c23          	sw	a0,88(sp)
80001304:	04a12423          	sw	a0,72(sp)
80001308:	08012623          	sw	zero,140(sp)
8000130c:	06a12e23          	sw	a0,124(sp)
80001310:	06a12623          	sw	a0,108(sp)
80001314:	04a12e23          	sw	a0,92(sp)
80001318:	04a12623          	sw	a0,76(sp)
8000131c:	00072503          	lw	a0,0(a4)
80001320:	800074b7          	lui	s1,0x80007
80001324:	84848493          	addi	s1,s1,-1976 # 80006848 <__BSS_END__+0xffffff30>
80001328:	0004a007          	flw	ft0,0(s1)
8000132c:	00472483          	lw	s1,4(a4)
80001330:	d00570d3          	fcvt.s.w	ft1,a0
80001334:	00872503          	lw	a0,8(a4)
80001338:	1000f153          	fmul.s	ft2,ft1,ft0
8000133c:	d004f0d3          	fcvt.s.w	ft1,s1
80001340:	1000f1d3          	fmul.s	ft3,ft1,ft0
80001344:	d00570d3          	fcvt.s.w	ft1,a0
80001348:	1000f253          	fmul.s	ft4,ft1,ft0
8000134c:	003172d3          	fadd.s	ft5,ft2,ft3
80001350:	80007537          	lui	a0,0x80007
80001354:	84c50513          	addi	a0,a0,-1972 # 8000684c <__BSS_END__+0xffffff34>
80001358:	00052307          	flw	ft6,0(a0)
8000135c:	80007537          	lui	a0,0x80007
80001360:	85050513          	addi	a0,a0,-1968 # 80006850 <__BSS_END__+0xffffff38>
80001364:	00052087          	flw	ft1,0(a0)
80001368:	0042f253          	fadd.s	ft4,ft5,ft4
8000136c:	18437253          	fdiv.s	ft4,ft6,ft4
80001370:	10417153          	fmul.s	ft2,ft2,ft4
80001374:	10117153          	fmul.s	ft2,ft2,ft1
80001378:	c0011fd3          	fcvt.w.s	t6,ft2,rtz
8000137c:	03f12823          	sw	t6,48(sp)
80001380:	1041f153          	fmul.s	ft2,ft3,ft4
80001384:	10117153          	fmul.s	ft2,ft2,ft1
80001388:	c0011ed3          	fcvt.w.s	t4,ft2,rtz
8000138c:	03d12023          	sw	t4,32(sp)
80001390:	00c72403          	lw	s0,12(a4)
80001394:	01072483          	lw	s1,16(a4)
80001398:	d0047153          	fcvt.s.w	ft2,s0
8000139c:	01472403          	lw	s0,20(a4)
800013a0:	10017153          	fmul.s	ft2,ft2,ft0
800013a4:	d004f1d3          	fcvt.s.w	ft3,s1
800013a8:	1001f1d3          	fmul.s	ft3,ft3,ft0
800013ac:	d0047253          	fcvt.s.w	ft4,s0
800013b0:	10027253          	fmul.s	ft4,ft4,ft0
800013b4:	003172d3          	fadd.s	ft5,ft2,ft3
800013b8:	0042f253          	fadd.s	ft4,ft5,ft4
800013bc:	18437253          	fdiv.s	ft4,ft6,ft4
800013c0:	10417153          	fmul.s	ft2,ft2,ft4
800013c4:	10117153          	fmul.s	ft2,ft2,ft1
800013c8:	c00113d3          	fcvt.w.s	t2,ft2,rtz
800013cc:	02712a23          	sw	t2,52(sp)
800013d0:	1041f153          	fmul.s	ft2,ft3,ft4
800013d4:	10117153          	fmul.s	ft2,ft2,ft1
800013d8:	c00112d3          	fcvt.w.s	t0,ft2,rtz
800013dc:	02512223          	sw	t0,36(sp)
800013e0:	01872483          	lw	s1,24(a4)
800013e4:	01c72403          	lw	s0,28(a4)
800013e8:	d004f153          	fcvt.s.w	ft2,s1
800013ec:	02072483          	lw	s1,32(a4)
800013f0:	10017153          	fmul.s	ft2,ft2,ft0
800013f4:	d00471d3          	fcvt.s.w	ft3,s0
800013f8:	1001f1d3          	fmul.s	ft3,ft3,ft0
800013fc:	d004f253          	fcvt.s.w	ft4,s1
80001400:	10027253          	fmul.s	ft4,ft4,ft0
80001404:	003172d3          	fadd.s	ft5,ft2,ft3
80001408:	0042f253          	fadd.s	ft4,ft5,ft4
8000140c:	18437253          	fdiv.s	ft4,ft6,ft4
80001410:	10417153          	fmul.s	ft2,ft2,ft4
80001414:	10117153          	fmul.s	ft2,ft2,ft1
80001418:	c0011f53          	fcvt.w.s	t5,ft2,rtz
8000141c:	03e12c23          	sw	t5,56(sp)
80001420:	1041f153          	fmul.s	ft2,ft3,ft4
80001424:	10117153          	fmul.s	ft2,ft2,ft1
80001428:	c00118d3          	fcvt.w.s	a7,ft2,rtz
8000142c:	03112423          	sw	a7,40(sp)
80001430:	02472483          	lw	s1,36(a4)
80001434:	02872403          	lw	s0,40(a4)
80001438:	d004f153          	fcvt.s.w	ft2,s1
8000143c:	02c72703          	lw	a4,44(a4)
80001440:	10017153          	fmul.s	ft2,ft2,ft0
80001444:	d00471d3          	fcvt.s.w	ft3,s0
80001448:	1001f1d3          	fmul.s	ft3,ft3,ft0
8000144c:	d0077253          	fcvt.s.w	ft4,a4
80001450:	10027053          	fmul.s	ft0,ft4,ft0
80001454:	00317253          	fadd.s	ft4,ft2,ft3
80001458:	00027053          	fadd.s	ft0,ft4,ft0
8000145c:	18037053          	fdiv.s	ft0,ft6,ft0
80001460:	10017153          	fmul.s	ft2,ft2,ft0
80001464:	10117153          	fmul.s	ft2,ft2,ft1
80001468:	c0011e53          	fcvt.w.s	t3,ft2,rtz
8000146c:	03c12e23          	sw	t3,60(sp)
80001470:	1001f053          	fmul.s	ft0,ft3,ft0
80001474:	10107053          	fmul.s	ft0,ft0,ft1
80001478:	c0001353          	fcvt.w.s	t1,ft0,rtz
8000147c:	02612623          	sw	t1,44(sp)
80001480:	02e9c483          	lbu	s1,46(s3)
80001484:	00068913          	mv	s2,a3
80001488:	07800693          	li	a3,120
8000148c:	0014b413          	seqz	s0,s1
80001490:	0289c703          	lbu	a4,40(s3)
80001494:	0004200b          	0x4200b
80001498:	02d786b3          	mul	a3,a5,a3
8000149c:	00d806b3          	add	a3,a6,a3
800014a0:	02468693          	addi	a3,a3,36
800014a4:	68048463          	beqz	s1,80001b2c <_Z26shader_function_sw_rast_cbP12kernel_arg_tjjjPKN7cocogfx8TVector3INS1_6TFixedILj16EiEEEEj+0x890>
800014a8:	00e034b3          	snez	s1,a4
800014ac:	0004a00b          	0x4a00b
800014b0:	0e070663          	beqz	a4,8000159c <_Z26shader_function_sw_rast_cbP12kernel_arg_tjjjPKN7cocogfx8TVector3INS1_6TFixedILj16EiEEEEj+0x300>
800014b4:	0006a683          	lw	a3,0(a3)
800014b8:	02df8733          	mul	a4,t6,a3
800014bc:	02df94b3          	mulh	s1,t6,a3
800014c0:	00849493          	slli	s1,s1,0x8
800014c4:	07800413          	li	s0,120
800014c8:	02878433          	mul	s0,a5,s0
800014cc:	00880433          	add	s0,a6,s0
800014d0:	02c42503          	lw	a0,44(s0)
800014d4:	02842403          	lw	s0,40(s0)
800014d8:	01875713          	srli	a4,a4,0x18
800014dc:	00976733          	or	a4,a4,s1
800014e0:	00e50a33          	add	s4,a0,a4
800014e4:	028e84b3          	mul	s1,t4,s0
800014e8:	028e9733          	mulh	a4,t4,s0
800014ec:	00871713          	slli	a4,a4,0x8
800014f0:	0184d493          	srli	s1,s1,0x18
800014f4:	00e4e733          	or	a4,s1,a4
800014f8:	00ea0733          	add	a4,s4,a4
800014fc:	08e12023          	sw	a4,128(sp)
80001500:	02768733          	mul	a4,a3,t2
80001504:	027694b3          	mulh	s1,a3,t2
80001508:	00849493          	slli	s1,s1,0x8
8000150c:	01875713          	srli	a4,a4,0x18
80001510:	00976733          	or	a4,a4,s1
80001514:	00e50a33          	add	s4,a0,a4
80001518:	025404b3          	mul	s1,s0,t0
8000151c:	02541733          	mulh	a4,s0,t0
80001520:	00871713          	slli	a4,a4,0x8
80001524:	0184d493          	srli	s1,s1,0x18
80001528:	00e4e733          	or	a4,s1,a4
8000152c:	00ea0733          	add	a4,s4,a4
80001530:	08e12223          	sw	a4,132(sp)
80001534:	03e68733          	mul	a4,a3,t5
80001538:	03e694b3          	mulh	s1,a3,t5
8000153c:	00849493          	slli	s1,s1,0x8
80001540:	01875713          	srli	a4,a4,0x18
80001544:	00976733          	or	a4,a4,s1
80001548:	00e50a33          	add	s4,a0,a4
8000154c:	031404b3          	mul	s1,s0,a7
80001550:	03141733          	mulh	a4,s0,a7
80001554:	00871713          	slli	a4,a4,0x8
80001558:	0184d493          	srli	s1,s1,0x18
8000155c:	00e4e733          	or	a4,s1,a4
80001560:	00ea0733          	add	a4,s4,a4
80001564:	08e12423          	sw	a4,136(sp)
80001568:	03c68733          	mul	a4,a3,t3
8000156c:	03c696b3          	mulh	a3,a3,t3
80001570:	00869693          	slli	a3,a3,0x8
80001574:	01875713          	srli	a4,a4,0x18
80001578:	00d766b3          	or	a3,a4,a3
8000157c:	00d50533          	add	a0,a0,a3
80001580:	026406b3          	mul	a3,s0,t1
80001584:	02641733          	mulh	a4,s0,t1
80001588:	00871713          	slli	a4,a4,0x8
8000158c:	0186d693          	srli	a3,a3,0x18
80001590:	00e6e6b3          	or	a3,a3,a4
80001594:	00d50533          	add	a0,a0,a3
80001598:	08a12623          	sw	a0,140(sp)
8000159c:	0000300b          	0x300b
800015a0:	0299c503          	lbu	a0,41(s3)
800015a4:	00153693          	seqz	a3,a0
800015a8:	0006a00b          	0x6a00b
800015ac:	38050063          	beqz	a0,8000192c <_Z26shader_function_sw_rast_cbP12kernel_arg_tjjjPKN7cocogfx8TVector3INS1_6TFixedILj16EiEEEEj+0x690>
800015b0:	07800513          	li	a0,120
800015b4:	02a78533          	mul	a0,a5,a0
800015b8:	00a80b33          	add	s6,a6,a0
800015bc:	030b2503          	lw	a0,48(s6)
800015c0:	02af8a33          	mul	s4,t6,a0
800015c4:	02af9433          	mulh	s0,t6,a0
800015c8:	00841a93          	slli	s5,s0,0x8
800015cc:	038b2483          	lw	s1,56(s6)
800015d0:	034b2703          	lw	a4,52(s6)
800015d4:	018a5413          	srli	s0,s4,0x18
800015d8:	01546433          	or	s0,s0,s5
800015dc:	00848a33          	add	s4,s1,s0
800015e0:	02ee86b3          	mul	a3,t4,a4
800015e4:	02ee9433          	mulh	s0,t4,a4
800015e8:	00841413          	slli	s0,s0,0x8
800015ec:	0186d693          	srli	a3,a3,0x18
800015f0:	0086e6b3          	or	a3,a3,s0
800015f4:	00da06b3          	add	a3,s4,a3
800015f8:	06d12823          	sw	a3,112(sp)
800015fc:	027506b3          	mul	a3,a0,t2
80001600:	02751433          	mulh	s0,a0,t2
80001604:	00841413          	slli	s0,s0,0x8
80001608:	0186d693          	srli	a3,a3,0x18
8000160c:	0086e6b3          	or	a3,a3,s0
80001610:	00d48a33          	add	s4,s1,a3
80001614:	02570433          	mul	s0,a4,t0
80001618:	025716b3          	mulh	a3,a4,t0
8000161c:	00869693          	slli	a3,a3,0x8
80001620:	01845413          	srli	s0,s0,0x18
80001624:	00d466b3          	or	a3,s0,a3
80001628:	00da06b3          	add	a3,s4,a3
8000162c:	06d12a23          	sw	a3,116(sp)
80001630:	03e506b3          	mul	a3,a0,t5
80001634:	03e51433          	mulh	s0,a0,t5
80001638:	00841413          	slli	s0,s0,0x8
8000163c:	0186d693          	srli	a3,a3,0x18
80001640:	0086e6b3          	or	a3,a3,s0
80001644:	00d48a33          	add	s4,s1,a3
80001648:	03170433          	mul	s0,a4,a7
8000164c:	031716b3          	mulh	a3,a4,a7
80001650:	00869693          	slli	a3,a3,0x8
80001654:	01845413          	srli	s0,s0,0x18
80001658:	00d466b3          	or	a3,s0,a3
8000165c:	00da06b3          	add	a3,s4,a3
80001660:	06d12c23          	sw	a3,120(sp)
80001664:	03c506b3          	mul	a3,a0,t3
80001668:	03c51533          	mulh	a0,a0,t3
8000166c:	00851513          	slli	a0,a0,0x8
80001670:	0186d693          	srli	a3,a3,0x18
80001674:	00a6e533          	or	a0,a3,a0
80001678:	00a48533          	add	a0,s1,a0
8000167c:	026706b3          	mul	a3,a4,t1
80001680:	02671733          	mulh	a4,a4,t1
80001684:	00871713          	slli	a4,a4,0x8
80001688:	0186d693          	srli	a3,a3,0x18
8000168c:	00e6e6b3          	or	a3,a3,a4
80001690:	00d50533          	add	a0,a0,a3
80001694:	06a12e23          	sw	a0,124(sp)
80001698:	03cb2503          	lw	a0,60(s6)
8000169c:	03f506b3          	mul	a3,a0,t6
800016a0:	03f51733          	mulh	a4,a0,t6
800016a4:	00871713          	slli	a4,a4,0x8
800016a8:	044b2403          	lw	s0,68(s6)
800016ac:	040b2483          	lw	s1,64(s6)
800016b0:	0186d693          	srli	a3,a3,0x18
800016b4:	00e6e6b3          	or	a3,a3,a4
800016b8:	00d40a33          	add	s4,s0,a3
800016bc:	03d48733          	mul	a4,s1,t4
800016c0:	03d496b3          	mulh	a3,s1,t4
800016c4:	00869693          	slli	a3,a3,0x8
800016c8:	01875713          	srli	a4,a4,0x18
800016cc:	00d766b3          	or	a3,a4,a3
800016d0:	00da06b3          	add	a3,s4,a3
800016d4:	06d12023          	sw	a3,96(sp)
800016d8:	027506b3          	mul	a3,a0,t2
800016dc:	02751733          	mulh	a4,a0,t2
800016e0:	00871713          	slli	a4,a4,0x8
800016e4:	0186d693          	srli	a3,a3,0x18
800016e8:	00e6e6b3          	or	a3,a3,a4
800016ec:	00d40a33          	add	s4,s0,a3
800016f0:	02548733          	mul	a4,s1,t0
800016f4:	025496b3          	mulh	a3,s1,t0
800016f8:	00869693          	slli	a3,a3,0x8
800016fc:	01875713          	srli	a4,a4,0x18
80001700:	00d766b3          	or	a3,a4,a3
80001704:	00da06b3          	add	a3,s4,a3
80001708:	06d12223          	sw	a3,100(sp)
8000170c:	03e506b3          	mul	a3,a0,t5
80001710:	03e51733          	mulh	a4,a0,t5
80001714:	00871713          	slli	a4,a4,0x8
80001718:	0186d693          	srli	a3,a3,0x18
8000171c:	00e6e6b3          	or	a3,a3,a4
80001720:	00d40a33          	add	s4,s0,a3
80001724:	03148733          	mul	a4,s1,a7
80001728:	031496b3          	mulh	a3,s1,a7
8000172c:	00869693          	slli	a3,a3,0x8
80001730:	01875713          	srli	a4,a4,0x18
80001734:	00d766b3          	or	a3,a4,a3
80001738:	00da06b3          	add	a3,s4,a3
8000173c:	06d12423          	sw	a3,104(sp)
80001740:	03c506b3          	mul	a3,a0,t3
80001744:	03c51533          	mulh	a0,a0,t3
80001748:	00851513          	slli	a0,a0,0x8
8000174c:	0186d693          	srli	a3,a3,0x18
80001750:	00a6e533          	or	a0,a3,a0
80001754:	00a40533          	add	a0,s0,a0
80001758:	026486b3          	mul	a3,s1,t1
8000175c:	02649733          	mulh	a4,s1,t1
80001760:	00871713          	slli	a4,a4,0x8
80001764:	0186d693          	srli	a3,a3,0x18
80001768:	00e6e6b3          	or	a3,a3,a4
8000176c:	00d50533          	add	a0,a0,a3
80001770:	06a12623          	sw	a0,108(sp)
80001774:	048b2503          	lw	a0,72(s6)
80001778:	03f506b3          	mul	a3,a0,t6
8000177c:	03f51733          	mulh	a4,a0,t6
80001780:	00871713          	slli	a4,a4,0x8
80001784:	050b2403          	lw	s0,80(s6)
80001788:	04cb2483          	lw	s1,76(s6)
8000178c:	0186d693          	srli	a3,a3,0x18
80001790:	00e6e6b3          	or	a3,a3,a4
80001794:	00d40a33          	add	s4,s0,a3
80001798:	03d48733          	mul	a4,s1,t4
8000179c:	03d496b3          	mulh	a3,s1,t4
800017a0:	00869693          	slli	a3,a3,0x8
800017a4:	01875713          	srli	a4,a4,0x18
800017a8:	00d766b3          	or	a3,a4,a3
800017ac:	00da06b3          	add	a3,s4,a3
800017b0:	04d12823          	sw	a3,80(sp)
800017b4:	027506b3          	mul	a3,a0,t2
800017b8:	02751733          	mulh	a4,a0,t2
800017bc:	00871713          	slli	a4,a4,0x8
800017c0:	0186d693          	srli	a3,a3,0x18
800017c4:	00e6e6b3          	or	a3,a3,a4
800017c8:	00d40a33          	add	s4,s0,a3
800017cc:	02548733          	mul	a4,s1,t0
800017d0:	025496b3          	mulh	a3,s1,t0
800017d4:	00869693          	slli	a3,a3,0x8
800017d8:	01875713          	srli	a4,a4,0x18
800017dc:	00d766b3          	or	a3,a4,a3
800017e0:	00da06b3          	add	a3,s4,a3
800017e4:	04d12a23          	sw	a3,84(sp)
800017e8:	03e506b3          	mul	a3,a0,t5
800017ec:	03e51733          	mulh	a4,a0,t5
800017f0:	00871713          	slli	a4,a4,0x8
800017f4:	0186d693          	srli	a3,a3,0x18
800017f8:	00e6e6b3          	or	a3,a3,a4
800017fc:	00d40a33          	add	s4,s0,a3
80001800:	03148733          	mul	a4,s1,a7
80001804:	031496b3          	mulh	a3,s1,a7
80001808:	00869693          	slli	a3,a3,0x8
8000180c:	01875713          	srli	a4,a4,0x18
80001810:	00d766b3          	or	a3,a4,a3
80001814:	00da06b3          	add	a3,s4,a3
80001818:	04d12c23          	sw	a3,88(sp)
8000181c:	03c506b3          	mul	a3,a0,t3
80001820:	03c51533          	mulh	a0,a0,t3
80001824:	00851513          	slli	a0,a0,0x8
80001828:	0186d693          	srli	a3,a3,0x18
8000182c:	00a6e533          	or	a0,a3,a0
80001830:	00a40533          	add	a0,s0,a0
80001834:	026486b3          	mul	a3,s1,t1
80001838:	02649733          	mulh	a4,s1,t1
8000183c:	00871713          	slli	a4,a4,0x8
80001840:	0186d693          	srli	a3,a3,0x18
80001844:	00e6e6b3          	or	a3,a3,a4
80001848:	00d50533          	add	a0,a0,a3
8000184c:	04a12e23          	sw	a0,92(sp)
80001850:	054b2503          	lw	a0,84(s6)
80001854:	03f506b3          	mul	a3,a0,t6
80001858:	03f51733          	mulh	a4,a0,t6
8000185c:	00871713          	slli	a4,a4,0x8
80001860:	05cb2483          	lw	s1,92(s6)
80001864:	058b2403          	lw	s0,88(s6)
80001868:	0186d693          	srli	a3,a3,0x18
8000186c:	00e6e6b3          	or	a3,a3,a4
80001870:	00d48fb3          	add	t6,s1,a3
80001874:	03d40733          	mul	a4,s0,t4
80001878:	03d416b3          	mulh	a3,s0,t4
8000187c:	00869693          	slli	a3,a3,0x8
80001880:	01875713          	srli	a4,a4,0x18
80001884:	00d766b3          	or	a3,a4,a3
80001888:	00df86b3          	add	a3,t6,a3
8000188c:	04d12023          	sw	a3,64(sp)
80001890:	027506b3          	mul	a3,a0,t2
80001894:	02751733          	mulh	a4,a0,t2
80001898:	00871713          	slli	a4,a4,0x8
8000189c:	0186d693          	srli	a3,a3,0x18
800018a0:	00e6e6b3          	or	a3,a3,a4
800018a4:	00d48eb3          	add	t4,s1,a3
800018a8:	02540733          	mul	a4,s0,t0
800018ac:	025416b3          	mulh	a3,s0,t0
800018b0:	00869693          	slli	a3,a3,0x8
800018b4:	01875713          	srli	a4,a4,0x18
800018b8:	00d766b3          	or	a3,a4,a3
800018bc:	00de86b3          	add	a3,t4,a3
800018c0:	04d12223          	sw	a3,68(sp)
800018c4:	03e506b3          	mul	a3,a0,t5
800018c8:	03e51733          	mulh	a4,a0,t5
800018cc:	00871713          	slli	a4,a4,0x8
800018d0:	0186d693          	srli	a3,a3,0x18
800018d4:	00e6e6b3          	or	a3,a3,a4
800018d8:	00d48eb3          	add	t4,s1,a3
800018dc:	03140733          	mul	a4,s0,a7
800018e0:	031416b3          	mulh	a3,s0,a7
800018e4:	00869693          	slli	a3,a3,0x8
800018e8:	01875713          	srli	a4,a4,0x18
800018ec:	00d766b3          	or	a3,a4,a3
800018f0:	00de86b3          	add	a3,t4,a3
800018f4:	04d12423          	sw	a3,72(sp)
800018f8:	03c506b3          	mul	a3,a0,t3
800018fc:	03c51533          	mulh	a0,a0,t3
80001900:	00851513          	slli	a0,a0,0x8
80001904:	0186d693          	srli	a3,a3,0x18
80001908:	00a6e533          	or	a0,a3,a0
8000190c:	00a48533          	add	a0,s1,a0
80001910:	026406b3          	mul	a3,s0,t1
80001914:	02641733          	mulh	a4,s0,t1
80001918:	00871713          	slli	a4,a4,0x8
8000191c:	0186d693          	srli	a3,a3,0x18
80001920:	00e6e6b3          	or	a3,a3,a4
80001924:	00d50533          	add	a0,a0,a3
80001928:	04a12623          	sw	a0,76(sp)
8000192c:	0000300b          	0x300b
80001930:	02a9c503          	lbu	a0,42(s3)
80001934:	00153693          	seqz	a3,a0
80001938:	0006a00b          	0x6a00b
8000193c:	68050a63          	beqz	a0,80001fd0 <_Z26shader_function_sw_rast_cbP12kernel_arg_tjjjPKN7cocogfx8TVector3INS1_6TFixedILj16EiEEEEj+0xd34>
80001940:	07800513          	li	a0,120
80001944:	02a78533          	mul	a0,a5,a0
80001948:	00a80733          	add	a4,a6,a0
8000194c:	06072483          	lw	s1,96(a4)
80001950:	03012a03          	lw	s4,48(sp)
80001954:	029a0833          	mul	a6,s4,s1
80001958:	029a16b3          	mulh	a3,s4,s1
8000195c:	00869e93          	slli	t4,a3,0x8
80001960:	06872783          	lw	a5,104(a4)
80001964:	06472503          	lw	a0,100(a4)
80001968:	02012a83          	lw	s5,32(sp)
8000196c:	01885413          	srli	s0,a6,0x18
80001970:	01d46433          	or	s0,s0,t4
80001974:	00878833          	add	a6,a5,s0
80001978:	02aa86b3          	mul	a3,s5,a0
8000197c:	02aa9433          	mulh	s0,s5,a0
80001980:	00841413          	slli	s0,s0,0x8
80001984:	0186d693          	srli	a3,a3,0x18
80001988:	0086e6b3          	or	a3,a3,s0
8000198c:	00d80833          	add	a6,a6,a3
80001990:	027486b3          	mul	a3,s1,t2
80001994:	02749433          	mulh	s0,s1,t2
80001998:	00841413          	slli	s0,s0,0x8
8000199c:	0186d693          	srli	a3,a3,0x18
800019a0:	0086e6b3          	or	a3,a3,s0
800019a4:	00d78eb3          	add	t4,a5,a3
800019a8:	02550433          	mul	s0,a0,t0
800019ac:	025516b3          	mulh	a3,a0,t0
800019b0:	00869693          	slli	a3,a3,0x8
800019b4:	01845413          	srli	s0,s0,0x18
800019b8:	00d466b3          	or	a3,s0,a3
800019bc:	00de8fb3          	add	t6,t4,a3
800019c0:	03e486b3          	mul	a3,s1,t5
800019c4:	03e49433          	mulh	s0,s1,t5
800019c8:	00841413          	slli	s0,s0,0x8
800019cc:	0186d693          	srli	a3,a3,0x18
800019d0:	0086e6b3          	or	a3,a3,s0
800019d4:	00d78eb3          	add	t4,a5,a3
800019d8:	03150433          	mul	s0,a0,a7
800019dc:	031516b3          	mulh	a3,a0,a7
800019e0:	00869693          	slli	a3,a3,0x8
800019e4:	01845413          	srli	s0,s0,0x18
800019e8:	00d466b3          	or	a3,s0,a3
800019ec:	00de8eb3          	add	t4,t4,a3
800019f0:	03c486b3          	mul	a3,s1,t3
800019f4:	03c49433          	mulh	s0,s1,t3
800019f8:	00841413          	slli	s0,s0,0x8
800019fc:	0186d693          	srli	a3,a3,0x18
80001a00:	0086e6b3          	or	a3,a3,s0
80001a04:	00d786b3          	add	a3,a5,a3
80001a08:	026507b3          	mul	a5,a0,t1
80001a0c:	02651533          	mulh	a0,a0,t1
80001a10:	00851513          	slli	a0,a0,0x8
80001a14:	06c72403          	lw	s0,108(a4)
80001a18:	0187d793          	srli	a5,a5,0x18
80001a1c:	00a7e533          	or	a0,a5,a0
80001a20:	00a68b33          	add	s6,a3,a0
80001a24:	03440533          	mul	a0,s0,s4
80001a28:	034416b3          	mulh	a3,s0,s4
80001a2c:	00869693          	slli	a3,a3,0x8
80001a30:	07472483          	lw	s1,116(a4)
80001a34:	07072703          	lw	a4,112(a4)
80001a38:	01855513          	srli	a0,a0,0x18
80001a3c:	00d56533          	or	a0,a0,a3
80001a40:	00a48533          	add	a0,s1,a0
80001a44:	035706b3          	mul	a3,a4,s5
80001a48:	035717b3          	mulh	a5,a4,s5
80001a4c:	00879793          	slli	a5,a5,0x8
80001a50:	0186d693          	srli	a3,a3,0x18
80001a54:	00f6e6b3          	or	a3,a3,a5
80001a58:	00d50a33          	add	s4,a0,a3
80001a5c:	027406b3          	mul	a3,s0,t2
80001a60:	027417b3          	mulh	a5,s0,t2
80001a64:	00879793          	slli	a5,a5,0x8
80001a68:	0186d693          	srli	a3,a3,0x18
80001a6c:	00f6e6b3          	or	a3,a3,a5
80001a70:	00d486b3          	add	a3,s1,a3
80001a74:	025707b3          	mul	a5,a4,t0
80001a78:	02571533          	mulh	a0,a4,t0
80001a7c:	00851513          	slli	a0,a0,0x8
80001a80:	0187d793          	srli	a5,a5,0x18
80001a84:	00a7e533          	or	a0,a5,a0
80001a88:	00a682b3          	add	t0,a3,a0
80001a8c:	03e406b3          	mul	a3,s0,t5
80001a90:	03e417b3          	mulh	a5,s0,t5
80001a94:	00879793          	slli	a5,a5,0x8
80001a98:	0186d693          	srli	a3,a3,0x18
80001a9c:	00f6e6b3          	or	a3,a3,a5
80001aa0:	00d486b3          	add	a3,s1,a3
80001aa4:	031707b3          	mul	a5,a4,a7
80001aa8:	03171533          	mulh	a0,a4,a7
80001aac:	00851513          	slli	a0,a0,0x8
80001ab0:	0187d793          	srli	a5,a5,0x18
80001ab4:	00a7e533          	or	a0,a5,a0
80001ab8:	00a68533          	add	a0,a3,a0
80001abc:	03c406b3          	mul	a3,s0,t3
80001ac0:	03c417b3          	mulh	a5,s0,t3
80001ac4:	00879793          	slli	a5,a5,0x8
80001ac8:	0186d693          	srli	a3,a3,0x18
80001acc:	00f6e6b3          	or	a3,a3,a5
80001ad0:	00d486b3          	add	a3,s1,a3
80001ad4:	026707b3          	mul	a5,a4,t1
80001ad8:	02671733          	mulh	a4,a4,t1
80001adc:	00871713          	slli	a4,a4,0x8
80001ae0:	0187d793          	srli	a5,a5,0x18
80001ae4:	00e7e733          	or	a4,a5,a4
80001ae8:	00e687b3          	add	a5,a3,a4
80001aec:	40185693          	srai	a3,a6,0x1
80001af0:	401a5713          	srai	a4,s4,0x1
80001af4:	00e6872b          	0xe6872b
80001af8:	00e12823          	sw	a4,16(sp)
80001afc:	401fd693          	srai	a3,t6,0x1
80001b00:	4012d493          	srai	s1,t0,0x1
80001b04:	009686ab          	0x9686ab
80001b08:	00d12a23          	sw	a3,20(sp)
80001b0c:	401ed493          	srai	s1,t4,0x1
80001b10:	40155513          	srai	a0,a0,0x1
80001b14:	00a4852b          	0xa4852b
80001b18:	00a12c23          	sw	a0,24(sp)
80001b1c:	401b5493          	srai	s1,s6,0x1
80001b20:	4017d793          	srai	a5,a5,0x1
80001b24:	00f487ab          	0xf487ab
80001b28:	3380006f          	j	80001e60 <_Z26shader_function_sw_rast_cbP12kernel_arg_tjjjPKN7cocogfx8TVector3INS1_6TFixedILj16EiEEEEj+0xbc4>
80001b2c:	00e03533          	snez	a0,a4
80001b30:	0005200b          	0x5200b
80001b34:	06070863          	beqz	a4,80001ba4 <_Z26shader_function_sw_rast_cbP12kernel_arg_tjjjPKN7cocogfx8TVector3INS1_6TFixedILj16EiEEEEj+0x908>
80001b38:	0006a503          	lw	a0,0(a3)
80001b3c:	07800713          	li	a4,120
80001b40:	02e78733          	mul	a4,a5,a4
80001b44:	00e80733          	add	a4,a6,a4
80001b48:	02c72403          	lw	s0,44(a4)
80001b4c:	47f5252b          	0x47f5252b
80001b50:	02872403          	lw	s0,40(a4)
80001b54:	57d4252b          	0x57d4252b
80001b58:	08a12023          	sw	a0,128(sp)
80001b5c:	0006a503          	lw	a0,0(a3)
80001b60:	02c72403          	lw	s0,44(a4)
80001b64:	4675252b          	0x4675252b
80001b68:	02872403          	lw	s0,40(a4)
80001b6c:	5654252b          	0x5654252b
80001b70:	08a12223          	sw	a0,132(sp)
80001b74:	0006a503          	lw	a0,0(a3)
80001b78:	02c72403          	lw	s0,44(a4)
80001b7c:	47e5252b          	0x47e5252b
80001b80:	02872403          	lw	s0,40(a4)
80001b84:	5714252b          	0x5714252b
80001b88:	08a12423          	sw	a0,136(sp)
80001b8c:	0006a503          	lw	a0,0(a3)
80001b90:	02c72683          	lw	a3,44(a4)
80001b94:	6fc5252b          	0x6fc5252b
80001b98:	02872683          	lw	a3,40(a4)
80001b9c:	5666a52b          	0x5666a52b
80001ba0:	08a12623          	sw	a0,140(sp)
80001ba4:	0000300b          	0x300b
80001ba8:	0299c503          	lbu	a0,41(s3)
80001bac:	00153693          	seqz	a3,a0
80001bb0:	0006a00b          	0x6a00b
80001bb4:	18050e63          	beqz	a0,80001d50 <_Z26shader_function_sw_rast_cbP12kernel_arg_tjjjPKN7cocogfx8TVector3INS1_6TFixedILj16EiEEEEj+0xab4>
80001bb8:	07800513          	li	a0,120
80001bbc:	02a78533          	mul	a0,a5,a0
80001bc0:	00a806b3          	add	a3,a6,a0
80001bc4:	0306a503          	lw	a0,48(a3)
80001bc8:	0386a703          	lw	a4,56(a3)
80001bcc:	77f5252b          	0x77f5252b
80001bd0:	0346a703          	lw	a4,52(a3)
80001bd4:	57d7252b          	0x57d7252b
80001bd8:	06a12823          	sw	a0,112(sp)
80001bdc:	0306a503          	lw	a0,48(a3)
80001be0:	0386a703          	lw	a4,56(a3)
80001be4:	7675252b          	0x7675252b
80001be8:	0346a703          	lw	a4,52(a3)
80001bec:	5657252b          	0x5657252b
80001bf0:	06a12a23          	sw	a0,116(sp)
80001bf4:	0306a503          	lw	a0,48(a3)
80001bf8:	0386a703          	lw	a4,56(a3)
80001bfc:	77e5252b          	0x77e5252b
80001c00:	0346a703          	lw	a4,52(a3)
80001c04:	5717252b          	0x5717252b
80001c08:	06a12c23          	sw	a0,120(sp)
80001c0c:	0306a503          	lw	a0,48(a3)
80001c10:	0386a703          	lw	a4,56(a3)
80001c14:	77c5252b          	0x77c5252b
80001c18:	0346a703          	lw	a4,52(a3)
80001c1c:	5667252b          	0x5667252b
80001c20:	06a12e23          	sw	a0,124(sp)
80001c24:	03c6a503          	lw	a0,60(a3)
80001c28:	0446a703          	lw	a4,68(a3)
80001c2c:	77f5252b          	0x77f5252b
80001c30:	0406a703          	lw	a4,64(a3)
80001c34:	57d7252b          	0x57d7252b
80001c38:	06a12023          	sw	a0,96(sp)
80001c3c:	03c6a503          	lw	a0,60(a3)
80001c40:	0446a703          	lw	a4,68(a3)
80001c44:	7675252b          	0x7675252b
80001c48:	0406a703          	lw	a4,64(a3)
80001c4c:	5657252b          	0x5657252b
80001c50:	06a12223          	sw	a0,100(sp)
80001c54:	03c6a503          	lw	a0,60(a3)
80001c58:	0446a703          	lw	a4,68(a3)
80001c5c:	77e5252b          	0x77e5252b
80001c60:	0406a703          	lw	a4,64(a3)
80001c64:	5717252b          	0x5717252b
80001c68:	06a12423          	sw	a0,104(sp)
80001c6c:	03c6a503          	lw	a0,60(a3)
80001c70:	0446a703          	lw	a4,68(a3)
80001c74:	77c5252b          	0x77c5252b
80001c78:	0406a703          	lw	a4,64(a3)
80001c7c:	5667252b          	0x5667252b
80001c80:	06a12623          	sw	a0,108(sp)
80001c84:	0486a503          	lw	a0,72(a3)
80001c88:	0506a703          	lw	a4,80(a3)
80001c8c:	77f5252b          	0x77f5252b
80001c90:	04c6a703          	lw	a4,76(a3)
80001c94:	57d7252b          	0x57d7252b
80001c98:	04a12823          	sw	a0,80(sp)
80001c9c:	0486a503          	lw	a0,72(a3)
80001ca0:	0506a703          	lw	a4,80(a3)
80001ca4:	7675252b          	0x7675252b
80001ca8:	04c6a703          	lw	a4,76(a3)
80001cac:	5657252b          	0x5657252b
80001cb0:	04a12a23          	sw	a0,84(sp)
80001cb4:	0486a503          	lw	a0,72(a3)
80001cb8:	0506a703          	lw	a4,80(a3)
80001cbc:	77e5252b          	0x77e5252b
80001cc0:	04c6a703          	lw	a4,76(a3)
80001cc4:	5717252b          	0x5717252b
80001cc8:	04a12c23          	sw	a0,88(sp)
80001ccc:	0486a503          	lw	a0,72(a3)
80001cd0:	0506a703          	lw	a4,80(a3)
80001cd4:	77c5252b          	0x77c5252b
80001cd8:	04c6a703          	lw	a4,76(a3)
80001cdc:	5667252b          	0x5667252b
80001ce0:	04a12e23          	sw	a0,92(sp)
80001ce4:	0546a503          	lw	a0,84(a3)
80001ce8:	05c6a703          	lw	a4,92(a3)
80001cec:	77f5252b          	0x77f5252b
80001cf0:	0586a703          	lw	a4,88(a3)
80001cf4:	57d7252b          	0x57d7252b
80001cf8:	04a12023          	sw	a0,64(sp)
80001cfc:	0546a503          	lw	a0,84(a3)
80001d00:	05c6a703          	lw	a4,92(a3)
80001d04:	7675252b          	0x7675252b
80001d08:	0586a703          	lw	a4,88(a3)
80001d0c:	5657252b          	0x5657252b
80001d10:	04a12223          	sw	a0,68(sp)
80001d14:	0546a503          	lw	a0,84(a3)
80001d18:	05c6a703          	lw	a4,92(a3)
80001d1c:	77e5252b          	0x77e5252b
80001d20:	0586a703          	lw	a4,88(a3)
80001d24:	02812883          	lw	a7,40(sp)
80001d28:	5717252b          	0x5717252b
80001d2c:	04a12423          	sw	a0,72(sp)
80001d30:	0546a503          	lw	a0,84(a3)
80001d34:	03c12e03          	lw	t3,60(sp)
80001d38:	05c6a703          	lw	a4,92(a3)
80001d3c:	77c5252b          	0x77c5252b
80001d40:	0586a683          	lw	a3,88(a3)
80001d44:	02c12303          	lw	t1,44(sp)
80001d48:	5666a52b          	0x5666a52b
80001d4c:	04a12623          	sw	a0,76(sp)
80001d50:	0000300b          	0x300b
80001d54:	02a9c503          	lbu	a0,42(s3)
80001d58:	00153693          	seqz	a3,a0
80001d5c:	0006a00b          	0x6a00b
80001d60:	26050863          	beqz	a0,80001fd0 <_Z26shader_function_sw_rast_cbP12kernel_arg_tjjjPKN7cocogfx8TVector3INS1_6TFixedILj16EiEEEEj+0xd34>
80001d64:	07800513          	li	a0,120
80001d68:	02a78533          	mul	a0,a5,a0
80001d6c:	00a80533          	add	a0,a6,a0
80001d70:	06052683          	lw	a3,96(a0)
80001d74:	03012283          	lw	t0,48(sp)
80001d78:	06852783          	lw	a5,104(a0)
80001d7c:	7e56a6ab          	0x7e56a6ab
80001d80:	06452783          	lw	a5,100(a0)
80001d84:	02012483          	lw	s1,32(sp)
80001d88:	6e97a82b          	0x6e97a82b
80001d8c:	06052783          	lw	a5,96(a0)
80001d90:	03412403          	lw	s0,52(sp)
80001d94:	06852683          	lw	a3,104(a0)
80001d98:	6e87a6ab          	0x6e87a6ab
80001d9c:	06452783          	lw	a5,100(a0)
80001da0:	02412703          	lw	a4,36(sp)
80001da4:	6ee7a3ab          	0x6ee7a3ab
80001da8:	06052783          	lw	a5,96(a0)
80001dac:	03812e83          	lw	t4,56(sp)
80001db0:	06852683          	lw	a3,104(a0)
80001db4:	6fd7a6ab          	0x6fd7a6ab
80001db8:	06452783          	lw	a5,100(a0)
80001dbc:	6f17af2b          	0x6f17af2b
80001dc0:	06052683          	lw	a3,96(a0)
80001dc4:	06852783          	lw	a5,104(a0)
80001dc8:	7fc6a6ab          	0x7fc6a6ab
80001dcc:	06452783          	lw	a5,100(a0)
80001dd0:	6e67afab          	0x6e67afab
80001dd4:	06c52683          	lw	a3,108(a0)
80001dd8:	07452783          	lw	a5,116(a0)
80001ddc:	7e56a6ab          	0x7e56a6ab
80001de0:	07052783          	lw	a5,112(a0)
80001de4:	6e97a6ab          	0x6e97a6ab
80001de8:	06c52783          	lw	a5,108(a0)
80001dec:	07452483          	lw	s1,116(a0)
80001df0:	4e87a7ab          	0x4e87a7ab
80001df4:	07052483          	lw	s1,112(a0)
80001df8:	7ee4a7ab          	0x7ee4a7ab
80001dfc:	06c52703          	lw	a4,108(a0)
80001e00:	07452483          	lw	s1,116(a0)
80001e04:	4fd7272b          	0x4fd7272b
80001e08:	07052483          	lw	s1,112(a0)
80001e0c:	7714a4ab          	0x7714a4ab
80001e10:	06c52703          	lw	a4,108(a0)
80001e14:	07452403          	lw	s0,116(a0)
80001e18:	47c7272b          	0x47c7272b
80001e1c:	07052503          	lw	a0,112(a0)
80001e20:	7665242b          	0x7665242b
80001e24:	40185513          	srai	a0,a6,0x1
80001e28:	4016d693          	srai	a3,a3,0x1
80001e2c:	00d5072b          	0xd5072b
80001e30:	00e12823          	sw	a4,16(sp)
80001e34:	4013d513          	srai	a0,t2,0x1
80001e38:	4017d693          	srai	a3,a5,0x1
80001e3c:	00d506ab          	0xd506ab
80001e40:	00d12a23          	sw	a3,20(sp)
80001e44:	401f5513          	srai	a0,t5,0x1
80001e48:	4014d793          	srai	a5,s1,0x1
80001e4c:	00f5052b          	0xf5052b
80001e50:	00a12c23          	sw	a0,24(sp)
80001e54:	401fd793          	srai	a5,t6,0x1
80001e58:	40145493          	srai	s1,s0,0x1
80001e5c:	009787ab          	0x9787ab
80001e60:	00f12e23          	sw	a5,28(sp)
80001e64:	02b9c483          	lbu	s1,43(s3)
80001e68:	0014b413          	seqz	s0,s1
80001e6c:	0004200b          	0x4200b
80001e70:	26048463          	beqz	s1,800020d8 <_Z26shader_function_sw_rast_cbP12kernel_arg_tjjjPKN7cocogfx8TVector3INS1_6TFixedILj16EiEEEEj+0xe3c>
80001e74:	01855813          	srli	a6,a0,0x18
80001e78:	00855893          	srli	a7,a0,0x8
80001e7c:	01055293          	srli	t0,a0,0x10
80001e80:	0186d313          	srli	t1,a3,0x18
80001e84:	0086d393          	srli	t2,a3,0x8
80001e88:	0106de13          	srli	t3,a3,0x10
80001e8c:	01875e93          	srli	t4,a4,0x18
80001e90:	07012483          	lw	s1,112(sp)
80001e94:	00875413          	srli	s0,a4,0x8
80001e98:	01075793          	srli	a5,a4,0x10
80001e9c:	0ff7f793          	andi	a5,a5,255
80001ea0:	02f487b3          	mul	a5,s1,a5
80001ea4:	06012483          	lw	s1,96(sp)
80001ea8:	0187d793          	srli	a5,a5,0x18
80001eac:	00f10123          	sb	a5,2(sp)
80001eb0:	0ff47793          	andi	a5,s0,255
80001eb4:	02f487b3          	mul	a5,s1,a5
80001eb8:	0187d793          	srli	a5,a5,0x18
80001ebc:	05012483          	lw	s1,80(sp)
80001ec0:	00f100a3          	sb	a5,1(sp)
80001ec4:	0ff77713          	andi	a4,a4,255
80001ec8:	04012783          	lw	a5,64(sp)
80001ecc:	02e48733          	mul	a4,s1,a4
80001ed0:	01875713          	srli	a4,a4,0x18
80001ed4:	00e10023          	sb	a4,0(sp)
80001ed8:	03d78733          	mul	a4,a5,t4
80001edc:	07412783          	lw	a5,116(sp)
80001ee0:	01875713          	srli	a4,a4,0x18
80001ee4:	00e101a3          	sb	a4,3(sp)
80001ee8:	0ffe7713          	andi	a4,t3,255
80001eec:	02e78733          	mul	a4,a5,a4
80001ef0:	06412783          	lw	a5,100(sp)
80001ef4:	01875713          	srli	a4,a4,0x18
80001ef8:	00e10323          	sb	a4,6(sp)
80001efc:	0ff3f713          	andi	a4,t2,255
80001f00:	02e78733          	mul	a4,a5,a4
80001f04:	01875713          	srli	a4,a4,0x18
80001f08:	05412783          	lw	a5,84(sp)
80001f0c:	00e102a3          	sb	a4,5(sp)
80001f10:	0ff6f693          	andi	a3,a3,255
80001f14:	04412703          	lw	a4,68(sp)
80001f18:	02d786b3          	mul	a3,a5,a3
80001f1c:	0186d693          	srli	a3,a3,0x18
80001f20:	00d10223          	sb	a3,4(sp)
80001f24:	026706b3          	mul	a3,a4,t1
80001f28:	07812703          	lw	a4,120(sp)
80001f2c:	0186d693          	srli	a3,a3,0x18
80001f30:	00d103a3          	sb	a3,7(sp)
80001f34:	0ff2f693          	andi	a3,t0,255
80001f38:	02d706b3          	mul	a3,a4,a3
80001f3c:	06812703          	lw	a4,104(sp)
80001f40:	0186d693          	srli	a3,a3,0x18
80001f44:	00d10523          	sb	a3,10(sp)
80001f48:	0ff8f693          	andi	a3,a7,255
80001f4c:	02d706b3          	mul	a3,a4,a3
80001f50:	0186d693          	srli	a3,a3,0x18
80001f54:	05812703          	lw	a4,88(sp)
80001f58:	00d104a3          	sb	a3,9(sp)
80001f5c:	0ff57513          	andi	a0,a0,255
80001f60:	04812683          	lw	a3,72(sp)
80001f64:	02a70533          	mul	a0,a4,a0
80001f68:	01855513          	srli	a0,a0,0x18
80001f6c:	00a10423          	sb	a0,8(sp)
80001f70:	03068533          	mul	a0,a3,a6
80001f74:	01855513          	srli	a0,a0,0x18
80001f78:	07c12683          	lw	a3,124(sp)
80001f7c:	01e14703          	lbu	a4,30(sp)
80001f80:	00a105a3          	sb	a0,11(sp)
80001f84:	06c12503          	lw	a0,108(sp)
80001f88:	01d14783          	lbu	a5,29(sp)
80001f8c:	02e686b3          	mul	a3,a3,a4
80001f90:	0186d693          	srli	a3,a3,0x18
80001f94:	00d10723          	sb	a3,14(sp)
80001f98:	02f50533          	mul	a0,a0,a5
80001f9c:	01855513          	srli	a0,a0,0x18
80001fa0:	05c12683          	lw	a3,92(sp)
80001fa4:	01c14703          	lbu	a4,28(sp)
80001fa8:	00a106a3          	sb	a0,13(sp)
80001fac:	04c12503          	lw	a0,76(sp)
80001fb0:	01f14783          	lbu	a5,31(sp)
80001fb4:	02e686b3          	mul	a3,a3,a4
80001fb8:	0186d693          	srli	a3,a3,0x18
80001fbc:	00d10623          	sb	a3,12(sp)
80001fc0:	02f50533          	mul	a0,a0,a5
80001fc4:	01855513          	srli	a0,a0,0x18
80001fc8:	00a107a3          	sb	a0,15(sp)
80001fcc:	11c0006f          	j	800020e8 <_Z26shader_function_sw_rast_cbP12kernel_arg_tjjjPKN7cocogfx8TVector3INS1_6TFixedILj16EiEEEEj+0xe4c>
80001fd0:	07012503          	lw	a0,112(sp)
80001fd4:	0ff00693          	li	a3,255
80001fd8:	06012703          	lw	a4,96(sp)
80001fdc:	02d50533          	mul	a0,a0,a3
80001fe0:	01855513          	srli	a0,a0,0x18
80001fe4:	00a10123          	sb	a0,2(sp)
80001fe8:	02d70533          	mul	a0,a4,a3
80001fec:	05012703          	lw	a4,80(sp)
80001ff0:	01855513          	srli	a0,a0,0x18
80001ff4:	00a100a3          	sb	a0,1(sp)
80001ff8:	04012503          	lw	a0,64(sp)
80001ffc:	02d70733          	mul	a4,a4,a3
80002000:	01875713          	srli	a4,a4,0x18
80002004:	00e10023          	sb	a4,0(sp)
80002008:	02d50533          	mul	a0,a0,a3
8000200c:	07412703          	lw	a4,116(sp)
80002010:	01855513          	srli	a0,a0,0x18
80002014:	00a101a3          	sb	a0,3(sp)
80002018:	06412503          	lw	a0,100(sp)
8000201c:	02d70733          	mul	a4,a4,a3
80002020:	01875713          	srli	a4,a4,0x18
80002024:	00e10323          	sb	a4,6(sp)
80002028:	02d50533          	mul	a0,a0,a3
8000202c:	05412703          	lw	a4,84(sp)
80002030:	01855513          	srli	a0,a0,0x18
80002034:	00a102a3          	sb	a0,5(sp)
80002038:	04412503          	lw	a0,68(sp)
8000203c:	02d70733          	mul	a4,a4,a3
80002040:	01875713          	srli	a4,a4,0x18
80002044:	00e10223          	sb	a4,4(sp)
80002048:	02d50533          	mul	a0,a0,a3
8000204c:	07812703          	lw	a4,120(sp)
80002050:	01855513          	srli	a0,a0,0x18
80002054:	00a103a3          	sb	a0,7(sp)
80002058:	06812503          	lw	a0,104(sp)
8000205c:	02d70733          	mul	a4,a4,a3
80002060:	01875713          	srli	a4,a4,0x18
80002064:	00e10523          	sb	a4,10(sp)
80002068:	02d50533          	mul	a0,a0,a3
8000206c:	05812703          	lw	a4,88(sp)
80002070:	01855513          	srli	a0,a0,0x18
80002074:	00a104a3          	sb	a0,9(sp)
80002078:	04812503          	lw	a0,72(sp)
8000207c:	02d70733          	mul	a4,a4,a3
80002080:	01875713          	srli	a4,a4,0x18
80002084:	00e10423          	sb	a4,8(sp)
80002088:	02d50533          	mul	a0,a0,a3
8000208c:	07c12703          	lw	a4,124(sp)
80002090:	01855513          	srli	a0,a0,0x18
80002094:	00a105a3          	sb	a0,11(sp)
80002098:	06c12503          	lw	a0,108(sp)
8000209c:	02d70733          	mul	a4,a4,a3
800020a0:	01875713          	srli	a4,a4,0x18
800020a4:	00e10723          	sb	a4,14(sp)
800020a8:	02d50533          	mul	a0,a0,a3
800020ac:	05c12703          	lw	a4,92(sp)
800020b0:	01855513          	srli	a0,a0,0x18
800020b4:	00a106a3          	sb	a0,13(sp)
800020b8:	04c12503          	lw	a0,76(sp)
800020bc:	02d70733          	mul	a4,a4,a3
800020c0:	01875713          	srli	a4,a4,0x18
800020c4:	00e10623          	sb	a4,12(sp)
800020c8:	02d50533          	mul	a0,a0,a3
800020cc:	01855513          	srli	a0,a0,0x18
800020d0:	00a107a3          	sb	a0,15(sp)
800020d4:	0180006f          	j	800020ec <_Z26shader_function_sw_rast_cbP12kernel_arg_tjjjPKN7cocogfx8TVector3INS1_6TFixedILj16EiEEEEj+0xe50>
800020d8:	00e12023          	sw	a4,0(sp)
800020dc:	00d12223          	sw	a3,4(sp)
800020e0:	00a12423          	sw	a0,8(sp)
800020e4:	00f12623          	sw	a5,12(sp)
800020e8:	0000300b          	0x300b
800020ec:	0000300b          	0x300b
800020f0:	0000300b          	0x300b
800020f4:	02d9c503          	lbu	a0,45(s3)
800020f8:	00153693          	seqz	a3,a0
800020fc:	0006a00b          	0x6a00b
80002100:	00197693          	andi	a3,s2,1
80002104:	20050263          	beqz	a0,80002308 <_Z26shader_function_sw_rast_cbP12kernel_arg_tjjjPKN7cocogfx8TVector3INS1_6TFixedILj16EiEEEEj+0x106c>
80002108:	0006a00b          	0x6a00b
8000210c:	00159a93          	slli	s5,a1,0x1
80002110:	00161b13          	slli	s6,a2,0x1
80002114:	06068663          	beqz	a3,80002180 <_Z26shader_function_sw_rast_cbP12kernel_arg_tjjjPKN7cocogfx8TVector3INS1_6TFixedILj16EiEEEEj+0xee4>
80002118:	08c9a483          	lw	s1,140(s3)
8000211c:	07d4c503          	lbu	a0,125(s1)
80002120:	00012a03          	lw	s4,0(sp)
80002124:	08012703          	lw	a4,128(sp)
80002128:	00153593          	seqz	a1,a0
8000212c:	0005a00b          	0x5a00b
80002130:	00051a63          	bnez	a0,80002144 <_Z26shader_function_sw_rast_cbP12kernel_arg_tjjjPKN7cocogfx8TVector3INS1_6TFixedILj16EiEEEEj+0xea8>
80002134:	07c4c503          	lbu	a0,124(s1)
80002138:	00153593          	seqz	a1,a0
8000213c:	0005a00b          	0x5a00b
80002140:	02050063          	beqz	a0,80002160 <_Z26shader_function_sw_rast_cbP12kernel_arg_tjjjPKN7cocogfx8TVector3INS1_6TFixedILj16EiEEEEj+0xec4>
80002144:	03448513          	addi	a0,s1,52
80002148:	000a8593          	mv	a1,s5
8000214c:	000b0613          	mv	a2,s6
80002150:	00000693          	li	a3,0
80002154:	6b4000ef          	jal	ra,80002808 <_ZN11DepthTencil18doDepthStencilTestEjjjj>
80002158:	0005200b          	0x5200b
8000215c:	00050c63          	beqz	a0,80002174 <_Z26shader_function_sw_rast_cbP12kernel_arg_tjjjPKN7cocogfx8TVector3INS1_6TFixedILj16EiEEEEj+0xed8>
80002160:	08048513          	addi	a0,s1,128
80002164:	000a8593          	mv	a1,s5
80002168:	000b0613          	mv	a2,s6
8000216c:	000a0693          	mv	a3,s4
80002170:	4b0000ef          	jal	ra,80002620 <_ZN7Blender5writeEjjj>
80002174:	0000300b          	0x300b
80002178:	0000300b          	0x300b
8000217c:	0000300b          	0x300b
80002180:	0000300b          	0x300b
80002184:	00297513          	andi	a0,s2,2
80002188:	00153593          	seqz	a1,a0
8000218c:	0005a00b          	0x5a00b
80002190:	06050863          	beqz	a0,80002200 <_Z26shader_function_sw_rast_cbP12kernel_arg_tjjjPKN7cocogfx8TVector3INS1_6TFixedILj16EiEEEEj+0xf64>
80002194:	08c9a403          	lw	s0,140(s3)
80002198:	07d44503          	lbu	a0,125(s0)
8000219c:	00412a03          	lw	s4,4(sp)
800021a0:	08412703          	lw	a4,132(sp)
800021a4:	00153593          	seqz	a1,a0
800021a8:	0005a00b          	0x5a00b
800021ac:	001ae493          	ori	s1,s5,1
800021b0:	00051a63          	bnez	a0,800021c4 <_Z26shader_function_sw_rast_cbP12kernel_arg_tjjjPKN7cocogfx8TVector3INS1_6TFixedILj16EiEEEEj+0xf28>
800021b4:	07c44503          	lbu	a0,124(s0)
800021b8:	00153593          	seqz	a1,a0
800021bc:	0005a00b          	0x5a00b
800021c0:	02050063          	beqz	a0,800021e0 <_Z26shader_function_sw_rast_cbP12kernel_arg_tjjjPKN7cocogfx8TVector3INS1_6TFixedILj16EiEEEEj+0xf44>
800021c4:	03440513          	addi	a0,s0,52
800021c8:	00048593          	mv	a1,s1
800021cc:	000b0613          	mv	a2,s6
800021d0:	00000693          	li	a3,0
800021d4:	634000ef          	jal	ra,80002808 <_ZN11DepthTencil18doDepthStencilTestEjjjj>
800021d8:	0005200b          	0x5200b
800021dc:	00050c63          	beqz	a0,800021f4 <_Z26shader_function_sw_rast_cbP12kernel_arg_tjjjPKN7cocogfx8TVector3INS1_6TFixedILj16EiEEEEj+0xf58>
800021e0:	08040513          	addi	a0,s0,128
800021e4:	00048593          	mv	a1,s1
800021e8:	000b0613          	mv	a2,s6
800021ec:	000a0693          	mv	a3,s4
800021f0:	430000ef          	jal	ra,80002620 <_ZN7Blender5writeEjjj>
800021f4:	0000300b          	0x300b
800021f8:	0000300b          	0x300b
800021fc:	0000300b          	0x300b
80002200:	0000300b          	0x300b
80002204:	00497513          	andi	a0,s2,4
80002208:	00153593          	seqz	a1,a0
8000220c:	0005a00b          	0x5a00b
80002210:	06050863          	beqz	a0,80002280 <_Z26shader_function_sw_rast_cbP12kernel_arg_tjjjPKN7cocogfx8TVector3INS1_6TFixedILj16EiEEEEj+0xfe4>
80002214:	08c9a403          	lw	s0,140(s3)
80002218:	07d44503          	lbu	a0,125(s0)
8000221c:	00812a03          	lw	s4,8(sp)
80002220:	08812703          	lw	a4,136(sp)
80002224:	00153593          	seqz	a1,a0
80002228:	0005a00b          	0x5a00b
8000222c:	001b6493          	ori	s1,s6,1
80002230:	00051a63          	bnez	a0,80002244 <_Z26shader_function_sw_rast_cbP12kernel_arg_tjjjPKN7cocogfx8TVector3INS1_6TFixedILj16EiEEEEj+0xfa8>
80002234:	07c44503          	lbu	a0,124(s0)
80002238:	00153593          	seqz	a1,a0
8000223c:	0005a00b          	0x5a00b
80002240:	02050063          	beqz	a0,80002260 <_Z26shader_function_sw_rast_cbP12kernel_arg_tjjjPKN7cocogfx8TVector3INS1_6TFixedILj16EiEEEEj+0xfc4>
80002244:	03440513          	addi	a0,s0,52
80002248:	000a8593          	mv	a1,s5
8000224c:	00048613          	mv	a2,s1
80002250:	00000693          	li	a3,0
80002254:	5b4000ef          	jal	ra,80002808 <_ZN11DepthTencil18doDepthStencilTestEjjjj>
80002258:	0005200b          	0x5200b
8000225c:	00050c63          	beqz	a0,80002274 <_Z26shader_function_sw_rast_cbP12kernel_arg_tjjjPKN7cocogfx8TVector3INS1_6TFixedILj16EiEEEEj+0xfd8>
80002260:	08040513          	addi	a0,s0,128
80002264:	000a8593          	mv	a1,s5
80002268:	00048613          	mv	a2,s1
8000226c:	000a0693          	mv	a3,s4
80002270:	3b0000ef          	jal	ra,80002620 <_ZN7Blender5writeEjjj>
80002274:	0000300b          	0x300b
80002278:	0000300b          	0x300b
8000227c:	0000300b          	0x300b
80002280:	0000300b          	0x300b
80002284:	00897513          	andi	a0,s2,8
80002288:	00153593          	seqz	a1,a0
8000228c:	0005a00b          	0x5a00b
80002290:	10050e63          	beqz	a0,800023ac <_Z26shader_function_sw_rast_cbP12kernel_arg_tjjjPKN7cocogfx8TVector3INS1_6TFixedILj16EiEEEEj+0x1110>
80002294:	08c9a403          	lw	s0,140(s3)
80002298:	07d44503          	lbu	a0,125(s0)
8000229c:	00c12903          	lw	s2,12(sp)
800022a0:	08c12703          	lw	a4,140(sp)
800022a4:	00153593          	seqz	a1,a0
800022a8:	0005a00b          	0x5a00b
800022ac:	001ae493          	ori	s1,s5,1
800022b0:	001b6993          	ori	s3,s6,1
800022b4:	00051a63          	bnez	a0,800022c8 <_Z26shader_function_sw_rast_cbP12kernel_arg_tjjjPKN7cocogfx8TVector3INS1_6TFixedILj16EiEEEEj+0x102c>
800022b8:	07c44503          	lbu	a0,124(s0)
800022bc:	00153593          	seqz	a1,a0
800022c0:	0005a00b          	0x5a00b
800022c4:	02050063          	beqz	a0,800022e4 <_Z26shader_function_sw_rast_cbP12kernel_arg_tjjjPKN7cocogfx8TVector3INS1_6TFixedILj16EiEEEEj+0x1048>
800022c8:	03440513          	addi	a0,s0,52
800022cc:	00048593          	mv	a1,s1
800022d0:	00098613          	mv	a2,s3
800022d4:	00000693          	li	a3,0
800022d8:	530000ef          	jal	ra,80002808 <_ZN11DepthTencil18doDepthStencilTestEjjjj>
800022dc:	0005200b          	0x5200b
800022e0:	00050c63          	beqz	a0,800022f8 <_Z26shader_function_sw_rast_cbP12kernel_arg_tjjjPKN7cocogfx8TVector3INS1_6TFixedILj16EiEEEEj+0x105c>
800022e4:	08040513          	addi	a0,s0,128
800022e8:	00048593          	mv	a1,s1
800022ec:	00098613          	mv	a2,s3
800022f0:	00090693          	mv	a3,s2
800022f4:	32c000ef          	jal	ra,80002620 <_ZN7Blender5writeEjjj>
800022f8:	0000300b          	0x300b
800022fc:	0000300b          	0x300b
80002300:	0000300b          	0x300b
80002304:	0a80006f          	j	800023ac <_Z26shader_function_sw_rast_cbP12kernel_arg_tjjjPKN7cocogfx8TVector3INS1_6TFixedILj16EiEEEEj+0x1110>
80002308:	0006a00b          	0x6a00b
8000230c:	01161513          	slli	a0,a2,0x11
80002310:	00259593          	slli	a1,a1,0x2
80002314:	00068a63          	beqz	a3,80002328 <_Z26shader_function_sw_rast_cbP12kernel_arg_tjjjPKN7cocogfx8TVector3INS1_6TFixedILj16EiEEEEj+0x108c>
80002318:	00012603          	lw	a2,0(sp)
8000231c:	08012683          	lw	a3,128(sp)
80002320:	00b56733          	or	a4,a0,a1
80002324:	6ac7102b          	0x6ac7102b
80002328:	0000300b          	0x300b
8000232c:	00297613          	andi	a2,s2,2
80002330:	00163693          	seqz	a3,a2
80002334:	0006a00b          	0x6a00b
80002338:	00060c63          	beqz	a2,80002350 <_Z26shader_function_sw_rast_cbP12kernel_arg_tjjjPKN7cocogfx8TVector3INS1_6TFixedILj16EiEEEEj+0x10b4>
8000233c:	00412603          	lw	a2,4(sp)
80002340:	08412683          	lw	a3,132(sp)
80002344:	00a5e733          	or	a4,a1,a0
80002348:	00276713          	ori	a4,a4,2
8000234c:	6ac7102b          	0x6ac7102b
80002350:	0000300b          	0x300b
80002354:	00497613          	andi	a2,s2,4
80002358:	00163693          	seqz	a3,a2
8000235c:	0006a00b          	0x6a00b
80002360:	00060e63          	beqz	a2,8000237c <_Z26shader_function_sw_rast_cbP12kernel_arg_tjjjPKN7cocogfx8TVector3INS1_6TFixedILj16EiEEEEj+0x10e0>
80002364:	00812603          	lw	a2,8(sp)
80002368:	08812683          	lw	a3,136(sp)
8000236c:	00a5e733          	or	a4,a1,a0
80002370:	000107b7          	lui	a5,0x10
80002374:	00f76733          	or	a4,a4,a5
80002378:	6ac7102b          	0x6ac7102b
8000237c:	0000300b          	0x300b
80002380:	00897613          	andi	a2,s2,8
80002384:	00163693          	seqz	a3,a2
80002388:	0006a00b          	0x6a00b
8000238c:	02060063          	beqz	a2,800023ac <_Z26shader_function_sw_rast_cbP12kernel_arg_tjjjPKN7cocogfx8TVector3INS1_6TFixedILj16EiEEEEj+0x1110>
80002390:	00a5e533          	or	a0,a1,a0
80002394:	00c12583          	lw	a1,12(sp)
80002398:	08c12603          	lw	a2,140(sp)
8000239c:	000106b7          	lui	a3,0x10
800023a0:	00268693          	addi	a3,a3,2 # 10002 <reg_t6+0xffe3>
800023a4:	00d56533          	or	a0,a0,a3
800023a8:	62b5102b          	0x62b5102b
800023ac:	0000300b          	0x300b
800023b0:	0000300b          	0x300b
800023b4:	09012b03          	lw	s6,144(sp)
800023b8:	09412a83          	lw	s5,148(sp)
800023bc:	09812a03          	lw	s4,152(sp)
800023c0:	09c12983          	lw	s3,156(sp)
800023c4:	0a012903          	lw	s2,160(sp)
800023c8:	0a412483          	lw	s1,164(sp)
800023cc:	0a812403          	lw	s0,168(sp)
800023d0:	0ac12083          	lw	ra,172(sp)
800023d4:	0b010113          	addi	sp,sp,176
800023d8:	00008067          	ret

800023dc <_Z18shader_function_swiP12kernel_arg_t>:
800023dc:	08c5a583          	lw	a1,140(a1)
800023e0:	00050613          	mv	a2,a0
800023e4:	00058513          	mv	a0,a1
800023e8:	00060593          	mv	a1,a2
800023ec:	19c0106f          	j	80003588 <_ZN10Rasterizer6renderEj>

800023f0 <main>:
800023f0:	f4010113          	addi	sp,sp,-192
800023f4:	0a112e23          	sw	ra,188(sp)
800023f8:	0a812c23          	sw	s0,184(sp)
800023fc:	0a912a23          	sw	s1,180(sp)
80002400:	7ffff5b7          	lui	a1,0x7ffff
80002404:	0005a883          	lw	a7,0(a1) # 7ffff000 <reg_t6+0x7fffefe1>
80002408:	00500513          	li	a0,5
8000240c:	00a12223          	sw	a0,4(sp)
80002410:	00200513          	li	a0,2
80002414:	00a12423          	sw	a0,8(sp)
80002418:	0345a503          	lw	a0,52(a1)
8000241c:	00a12623          	sw	a0,12(sp)
80002420:	0305a503          	lw	a0,48(a1)
80002424:	00a12823          	sw	a0,16(sp)
80002428:	0385a503          	lw	a0,56(a1)
8000242c:	00a12a23          	sw	a0,20(sp)
80002430:	03c5a503          	lw	a0,60(a1)
80002434:	00a12c23          	sw	a0,24(sp)
80002438:	0405a503          	lw	a0,64(a1)
8000243c:	00010637          	lui	a2,0x10
80002440:	fff60613          	addi	a2,a2,-1 # ffff <reg_t6+0xffe0>
80002444:	00c576b3          	and	a3,a0,a2
80002448:	00d12e23          	sw	a3,28(sp)
8000244c:	01055513          	srli	a0,a0,0x10
80002450:	02a12023          	sw	a0,32(sp)
80002454:	00368513          	addi	a0,a3,3
80002458:	00255513          	srli	a0,a0,0x2
8000245c:	02a12623          	sw	a0,44(sp)
80002460:	03112823          	sw	a7,48(sp)
80002464:	0505a503          	lw	a0,80(a1)
80002468:	02a12a23          	sw	a0,52(sp)
8000246c:	0545a503          	lw	a0,84(a1)
80002470:	02a12c23          	sw	a0,56(sp)
80002474:	0585ae03          	lw	t3,88(a1)
80002478:	03c12e23          	sw	t3,60(sp)
8000247c:	05c5c503          	lbu	a0,92(a1)
80002480:	00157293          	andi	t0,a0,1
80002484:	04510023          	sb	t0,64(sp)
80002488:	0605a383          	lw	t2,96(a1)
8000248c:	00c3f533          	and	a0,t2,a2
80002490:	04a12223          	sw	a0,68(sp)
80002494:	0645af83          	lw	t6,100(a1)
80002498:	00cff533          	and	a0,t6,a2
8000249c:	04a12423          	sw	a0,72(sp)
800024a0:	0685a483          	lw	s1,104(a1)
800024a4:	00c4f733          	and	a4,s1,a2
800024a8:	04e12623          	sw	a4,76(sp)
800024ac:	06c5a783          	lw	a5,108(a1)
800024b0:	00c7f733          	and	a4,a5,a2
800024b4:	04e12823          	sw	a4,80(sp)
800024b8:	0705a703          	lw	a4,112(a1)
800024bc:	00c776b3          	and	a3,a4,a2
800024c0:	04d12e23          	sw	a3,92(sp)
800024c4:	0745a683          	lw	a3,116(a1)
800024c8:	00c6f533          	and	a0,a3,a2
800024cc:	04a12a23          	sw	a0,84(sp)
800024d0:	0785a503          	lw	a0,120(a1)
800024d4:	00c57433          	and	s0,a0,a2
800024d8:	04812c23          	sw	s0,88(sp)
800024dc:	0103d313          	srli	t1,t2,0x10
800024e0:	06612023          	sw	t1,96(sp)
800024e4:	010fde93          	srli	t4,t6,0x10
800024e8:	07d12223          	sw	t4,100(sp)
800024ec:	0104df13          	srli	t5,s1,0x10
800024f0:	07e12423          	sw	t5,104(sp)
800024f4:	0107d793          	srli	a5,a5,0x10
800024f8:	06f12623          	sw	a5,108(sp)
800024fc:	01075713          	srli	a4,a4,0x10
80002500:	06e12a23          	sw	a4,116(sp)
80002504:	0106d693          	srli	a3,a3,0x10
80002508:	06d12823          	sw	a3,112(sp)
8000250c:	01055513          	srli	a0,a0,0x10
80002510:	06a12c23          	sw	a0,120(sp)
80002514:	00100813          	li	a6,1
80002518:	000e0463          	beqz	t3,80002520 <main+0x130>
8000251c:	00100293          	li	t0,1
80002520:	06510e23          	sb	t0,124(sp)
80002524:	007fe533          	or	a0,t6,t2
80002528:	00956533          	or	a0,a0,s1
8000252c:	00c57533          	and	a0,a0,a2
80002530:	00a03533          	snez	a0,a0
80002534:	06a10ea3          	sb	a0,125(sp)
80002538:	006ee533          	or	a0,t4,t1
8000253c:	01e56533          	or	a0,a0,t5
80002540:	00a03533          	snez	a0,a0
80002544:	06a10f23          	sb	a0,126(sp)
80002548:	0445a503          	lw	a0,68(a1)
8000254c:	08a12023          	sw	a0,128(sp)
80002550:	0485a503          	lw	a0,72(a1)
80002554:	08a12223          	sw	a0,132(sp)
80002558:	04c5a503          	lw	a0,76(a1)
8000255c:	00f57513          	andi	a0,a0,15
80002560:	08a12423          	sw	a0,136(sp)
80002564:	07c5a503          	lw	a0,124(a1)
80002568:	00c57633          	and	a2,a0,a2
8000256c:	08c12623          	sw	a2,140(sp)
80002570:	01055513          	srli	a0,a0,0x10
80002574:	08a12823          	sw	a0,144(sp)
80002578:	0805a683          	lw	a3,128(a1)
8000257c:	0ff6f713          	andi	a4,a3,255
80002580:	08e12a23          	sw	a4,148(sp)
80002584:	0086d793          	srli	a5,a3,0x8
80002588:	0ff7f793          	andi	a5,a5,255
8000258c:	08f12c23          	sw	a5,152(sp)
80002590:	0106d493          	srli	s1,a3,0x10
80002594:	0ff4f493          	andi	s1,s1,255
80002598:	08912e23          	sw	s1,156(sp)
8000259c:	0186d693          	srli	a3,a3,0x18
800025a0:	0ad12023          	sw	a3,160(sp)
800025a4:	0845a403          	lw	s0,132(a1)
800025a8:	0a812223          	sw	s0,164(sp)
800025ac:	0885a403          	lw	s0,136(a1)
800025b0:	0a812423          	sw	s0,168(sp)
800025b4:	00c56533          	or	a0,a0,a2
800025b8:	00174613          	xori	a2,a4,1
800025bc:	00c56533          	or	a0,a0,a2
800025c0:	0017c613          	xori	a2,a5,1
800025c4:	00d4e6b3          	or	a3,s1,a3
800025c8:	00c56533          	or	a0,a0,a2
800025cc:	00a6e533          	or	a0,a3,a0
800025d0:	00a03533          	snez	a0,a0
800025d4:	0aa10623          	sb	a0,172(sp)
800025d8:	02c5c503          	lbu	a0,44(a1)
800025dc:	00010613          	mv	a2,sp
800025e0:	08c5a623          	sw	a2,140(a1)
800025e4:	00050863          	beqz	a0,800025f4 <main+0x204>
800025e8:	80002537          	lui	a0,0x80002
800025ec:	3dc50593          	addi	a1,a0,988 # 800023dc <__BSS_END__+0xffffbac4>
800025f0:	00c0006f          	j	800025fc <main+0x20c>
800025f4:	80000537          	lui	a0,0x80000
800025f8:	08450593          	addi	a1,a0,132 # 80000084 <__BSS_END__+0xffff976c>
800025fc:	01181533          	sll	a0,a6,a7
80002600:	7ffff637          	lui	a2,0x7ffff
80002604:	611010ef          	jal	ra,80004414 <vx_spawn_tasks>
80002608:	00000513          	li	a0,0
8000260c:	0b412483          	lw	s1,180(sp)
80002610:	0b812403          	lw	s0,184(sp)
80002614:	0bc12083          	lw	ra,188(sp)
80002618:	0c010113          	addi	sp,sp,192
8000261c:	00008067          	ret

80002620 <_ZN7Blender5writeEjjj>:
80002620:	fd010113          	addi	sp,sp,-48
80002624:	02112623          	sw	ra,44(sp)
80002628:	02812423          	sw	s0,40(sp)
8000262c:	02912223          	sw	s1,36(sp)
80002630:	03212023          	sw	s2,32(sp)
80002634:	01312e23          	sw	s3,28(sp)
80002638:	01412c23          	sw	s4,24(sp)
8000263c:	01512a23          	sw	s5,20(sp)
80002640:	01612823          	sw	s6,16(sp)
80002644:	01712623          	sw	s7,12(sp)
80002648:	01812423          	sw	s8,8(sp)
8000264c:	00050413          	mv	s0,a0
80002650:	00852503          	lw	a0,8(a0)
80002654:	00153713          	seqz	a4,a0
80002658:	0007200b          	0x7200b
8000265c:	16050c63          	beqz	a0,800027d4 <_ZN7Blender5writeEjjj+0x1b4>
80002660:	00068993          	mv	s3,a3
80002664:	00442683          	lw	a3,4(s0)
80002668:	00042703          	lw	a4,0(s0)
8000266c:	02c68633          	mul	a2,a3,a2
80002670:	00259593          	slli	a1,a1,0x2
80002674:	00b705b3          	add	a1,a4,a1
80002678:	02c44683          	lbu	a3,44(s0)
8000267c:	00c58c33          	add	s8,a1,a2
80002680:	000c2903          	lw	s2,0(s8)
80002684:	02442483          	lw	s1,36(s0)
80002688:	0016b593          	seqz	a1,a3
8000268c:	0005a00b          	0x5a00b
80002690:	0c068863          	beqz	a3,80002760 <_ZN7Blender5writeEjjj+0x140>
80002694:	01442503          	lw	a0,20(s0)
80002698:	00098593          	mv	a1,s3
8000269c:	00090613          	mv	a2,s2
800026a0:	00048693          	mv	a3,s1
800026a4:	634000ef          	jal	ra,80002cd8 <_Z11DoBlendFuncjN7cocogfx9ColorARGBES0_S0_>
800026a8:	01842583          	lw	a1,24(s0)
800026ac:	00050a13          	mv	s4,a0
800026b0:	00058513          	mv	a0,a1
800026b4:	00098593          	mv	a1,s3
800026b8:	00090613          	mv	a2,s2
800026bc:	00048693          	mv	a3,s1
800026c0:	618000ef          	jal	ra,80002cd8 <_Z11DoBlendFuncjN7cocogfx9ColorARGBES0_S0_>
800026c4:	01c42583          	lw	a1,28(s0)
800026c8:	00050a93          	mv	s5,a0
800026cc:	00058513          	mv	a0,a1
800026d0:	00098593          	mv	a1,s3
800026d4:	00090613          	mv	a2,s2
800026d8:	00048693          	mv	a3,s1
800026dc:	5fc000ef          	jal	ra,80002cd8 <_Z11DoBlendFuncjN7cocogfx9ColorARGBES0_S0_>
800026e0:	02042583          	lw	a1,32(s0)
800026e4:	00050b13          	mv	s6,a0
800026e8:	00058513          	mv	a0,a1
800026ec:	00098593          	mv	a1,s3
800026f0:	00090613          	mv	a2,s2
800026f4:	00048693          	mv	a3,s1
800026f8:	5e0000ef          	jal	ra,80002cd8 <_Z11DoBlendFuncjN7cocogfx9ColorARGBES0_S0_>
800026fc:	00c42603          	lw	a2,12(s0)
80002700:	02842583          	lw	a1,40(s0)
80002704:	00050b93          	mv	s7,a0
80002708:	00060513          	mv	a0,a2
8000270c:	00098613          	mv	a2,s3
80002710:	00090693          	mv	a3,s2
80002714:	000a0713          	mv	a4,s4
80002718:	000b0793          	mv	a5,s6
8000271c:	089000ef          	jal	ra,80002fa4 <_Z11DoBlendModejjN7cocogfx9ColorARGBES0_S0_S0_>
80002720:	01042603          	lw	a2,16(s0)
80002724:	02842583          	lw	a1,40(s0)
80002728:	00050493          	mv	s1,a0
8000272c:	00060513          	mv	a0,a2
80002730:	00098613          	mv	a2,s3
80002734:	00090693          	mv	a3,s2
80002738:	000a8713          	mv	a4,s5
8000273c:	000b8793          	mv	a5,s7
80002740:	065000ef          	jal	ra,80002fa4 <_Z11DoBlendModejjN7cocogfx9ColorARGBES0_S0_S0_>
80002744:	ff0005b7          	lui	a1,0xff000
80002748:	00b575b3          	and	a1,a0,a1
8000274c:	01000637          	lui	a2,0x1000
80002750:	00842503          	lw	a0,8(s0)
80002754:	fff60613          	addi	a2,a2,-1 # ffffff <reg_t6+0xffffe0>
80002758:	00c4f633          	and	a2,s1,a2
8000275c:	00c5e9b3          	or	s3,a1,a2
80002760:	0000300b          	0x300b
80002764:	00157593          	andi	a1,a0,1
80002768:	0ff00613          	li	a2,255
8000276c:	02c585b3          	mul	a1,a1,a2
80002770:	00155613          	srli	a2,a0,0x1
80002774:	00167613          	andi	a2,a2,1
80002778:	000106b7          	lui	a3,0x10
8000277c:	f0068693          	addi	a3,a3,-256 # ff00 <reg_t6+0xfee1>
80002780:	02d60633          	mul	a2,a2,a3
80002784:	00b665b3          	or	a1,a2,a1
80002788:	00255613          	srli	a2,a0,0x2
8000278c:	00167613          	andi	a2,a2,1
80002790:	00ff06b7          	lui	a3,0xff0
80002794:	02d60633          	mul	a2,a2,a3
80002798:	00c5e5b3          	or	a1,a1,a2
8000279c:	01551513          	slli	a0,a0,0x15
800027a0:	01000637          	lui	a2,0x1000
800027a4:	00c57533          	and	a0,a0,a2
800027a8:	40a00533          	neg	a0,a0
800027ac:	00a5e533          	or	a0,a1,a0
800027b0:	00153593          	seqz	a1,a0
800027b4:	0005a00b          	0x5a00b
800027b8:	00050c63          	beqz	a0,800027d0 <_ZN7Blender5writeEjjj+0x1b0>
800027bc:	fff54593          	not	a1,a0
800027c0:	00b975b3          	and	a1,s2,a1
800027c4:	01357533          	and	a0,a0,s3
800027c8:	00a5e533          	or	a0,a1,a0
800027cc:	00ac2023          	sw	a0,0(s8)
800027d0:	0000300b          	0x300b
800027d4:	0000300b          	0x300b
800027d8:	00812c03          	lw	s8,8(sp)
800027dc:	00c12b83          	lw	s7,12(sp)
800027e0:	01012b03          	lw	s6,16(sp)
800027e4:	01412a83          	lw	s5,20(sp)
800027e8:	01812a03          	lw	s4,24(sp)
800027ec:	01c12983          	lw	s3,28(sp)
800027f0:	02012903          	lw	s2,32(sp)
800027f4:	02412483          	lw	s1,36(sp)
800027f8:	02812403          	lw	s0,40(sp)
800027fc:	02c12083          	lw	ra,44(sp)
80002800:	03010113          	addi	sp,sp,48
80002804:	00008067          	ret

80002808 <_ZN11DepthTencil18doDepthStencilTestEjjjj>:
80002808:	ff010113          	addi	sp,sp,-16
8000280c:	00112623          	sw	ra,12(sp)
80002810:	00812423          	sw	s0,8(sp)
80002814:	00912223          	sw	s1,4(sp)
80002818:	00050493          	mv	s1,a0
8000281c:	00000513          	li	a0,0
80002820:	02c00793          	li	a5,44
80002824:	06069263          	bnez	a3,80002888 <_ZN11DepthTencil18doDepthStencilTestEjjjj+0x80>
80002828:	01000793          	li	a5,16
8000282c:	00f487b3          	add	a5,s1,a5
80002830:	0007ae03          	lw	t3,0(a5) # 10000 <reg_t6+0xffe1>
80002834:	04000793          	li	a5,64
80002838:	06a68063          	beq	a3,a0,80002898 <_ZN11DepthTencil18doDepthStencilTestEjjjj+0x90>
8000283c:	00f487b3          	add	a5,s1,a5
80002840:	0007a883          	lw	a7,0(a5)
80002844:	03c00793          	li	a5,60
80002848:	06a69263          	bne	a3,a0,800028ac <_ZN11DepthTencil18doDepthStencilTestEjjjj+0xa4>
8000284c:	02000793          	li	a5,32
80002850:	00f487b3          	add	a5,s1,a5
80002854:	0007af83          	lw	t6,0(a5)
80002858:	03000793          	li	a5,48
8000285c:	06a68063          	beq	a3,a0,800028bc <_ZN11DepthTencil18doDepthStencilTestEjjjj+0xb4>
80002860:	00f487b3          	add	a5,s1,a5
80002864:	0007a303          	lw	t1,0(a5)
80002868:	03400793          	li	a5,52
8000286c:	06a69263          	bne	a3,a0,800028d0 <_ZN11DepthTencil18doDepthStencilTestEjjjj+0xc8>
80002870:	01800793          	li	a5,24
80002874:	00f487b3          	add	a5,s1,a5
80002878:	0007a283          	lw	t0,0(a5)
8000287c:	03800793          	li	a5,56
80002880:	06a68063          	beq	a3,a0,800028e0 <_ZN11DepthTencil18doDepthStencilTestEjjjj+0xd8>
80002884:	0600006f          	j	800028e4 <_ZN11DepthTencil18doDepthStencilTestEjjjj+0xdc>
80002888:	00f487b3          	add	a5,s1,a5
8000288c:	0007ae03          	lw	t3,0(a5)
80002890:	04000793          	li	a5,64
80002894:	faa694e3          	bne	a3,a0,8000283c <_ZN11DepthTencil18doDepthStencilTestEjjjj+0x34>
80002898:	02800793          	li	a5,40
8000289c:	00f487b3          	add	a5,s1,a5
800028a0:	0007a883          	lw	a7,0(a5)
800028a4:	03c00793          	li	a5,60
800028a8:	faa682e3          	beq	a3,a0,8000284c <_ZN11DepthTencil18doDepthStencilTestEjjjj+0x44>
800028ac:	00f487b3          	add	a5,s1,a5
800028b0:	0007af83          	lw	t6,0(a5)
800028b4:	03000793          	li	a5,48
800028b8:	faa694e3          	bne	a3,a0,80002860 <_ZN11DepthTencil18doDepthStencilTestEjjjj+0x58>
800028bc:	01400793          	li	a5,20
800028c0:	00f487b3          	add	a5,s1,a5
800028c4:	0007a303          	lw	t1,0(a5)
800028c8:	03400793          	li	a5,52
800028cc:	faa682e3          	beq	a3,a0,80002870 <_ZN11DepthTencil18doDepthStencilTestEjjjj+0x68>
800028d0:	00f487b3          	add	a5,s1,a5
800028d4:	0007a283          	lw	t0,0(a5)
800028d8:	03800793          	li	a5,56
800028dc:	00a69463          	bne	a3,a0,800028e4 <_ZN11DepthTencil18doDepthStencilTestEjjjj+0xdc>
800028e0:	01c00793          	li	a5,28
800028e4:	00f487b3          	add	a5,s1,a5
800028e8:	0007a383          	lw	t2,0(a5)
800028ec:	01000837          	lui	a6,0x1000
800028f0:	04400793          	li	a5,68
800028f4:	00a69463          	bne	a3,a0,800028fc <_ZN11DepthTencil18doDepthStencilTestEjjjj+0xf4>
800028f8:	02400793          	li	a5,36
800028fc:	0044a683          	lw	a3,4(s1)
80002900:	00f487b3          	add	a5,s1,a5
80002904:	0004a403          	lw	s0,0(s1)
80002908:	0007a783          	lw	a5,0(a5)
8000290c:	02c68633          	mul	a2,a3,a2
80002910:	00259593          	slli	a1,a1,0x2
80002914:	00b405b3          	add	a1,s0,a1
80002918:	00c58eb3          	add	t4,a1,a2
8000291c:	000eaf03          	lw	t5,0(t4)
80002920:	00c4c603          	lbu	a2,12(s1)
80002924:	fff80593          	addi	a1,a6,-1 # ffffff <reg_t6+0xffffe0>
80002928:	018f5693          	srli	a3,t5,0x18
8000292c:	01879793          	slli	a5,a5,0x18
80002930:	00a60463          	beq	a2,a0,80002938 <_ZN11DepthTencil18doDepthStencilTestEjjjj+0x130>
80002934:	00058513          	mv	a0,a1
80002938:	00b77833          	and	a6,a4,a1
8000293c:	011ff633          	and	a2,t6,a7
80002940:	01f6f733          	and	a4,a3,t6
80002944:	00f56fb3          	or	t6,a0,a5
80002948:	00300513          	li	a0,3
8000294c:	01c52533          	slt	a0,a0,t3
80002950:	0015000b          	0x15000b
80002954:	00400513          	li	a0,4
80002958:	02ae5c63          	bge	t3,a0,80002990 <_ZN11DepthTencil18doDepthStencilTestEjjjj+0x188>
8000295c:	00100513          	li	a0,1
80002960:	01c52533          	slt	a0,a0,t3
80002964:	0015000b          	0x15000b
80002968:	00200513          	li	a0,2
8000296c:	06ae5063          	bge	t3,a0,800029cc <_ZN11DepthTencil18doDepthStencilTestEjjjj+0x1c4>
80002970:	01c02533          	sgtz	a0,t3
80002974:	0015000b          	0x15000b
80002978:	00000513          	li	a0,0
8000297c:	23c04863          	bgtz	t3,80002bac <_ZN11DepthTencil18doDepthStencilTestEjjjj+0x3a4>
80002980:	01c03533          	snez	a0,t3
80002984:	0015000b          	0x15000b
80002988:	080e0463          	beqz	t3,80002a10 <_ZN11DepthTencil18doDepthStencilTestEjjjj+0x208>
8000298c:	3480006f          	j	80002cd4 <_ZN11DepthTencil18doDepthStencilTestEjjjj+0x4cc>
80002990:	00500513          	li	a0,5
80002994:	01c527b3          	slt	a5,a0,t3
80002998:	0017800b          	0x17800b
8000299c:	00600793          	li	a5,6
800029a0:	04fe5863          	bge	t3,a5,800029f0 <_ZN11DepthTencil18doDepthStencilTestEjjjj+0x1e8>
800029a4:	00400793          	li	a5,4
800029a8:	01c7a7b3          	slt	a5,a5,t3
800029ac:	0017800b          	0x17800b
800029b0:	0eae5663          	bge	t3,a0,80002a9c <_ZN11DepthTencil18doDepthStencilTestEjjjj+0x294>
800029b4:	00e64533          	xor	a0,a2,a4
800029b8:	00a03533          	snez	a0,a0
800029bc:	0015000b          	0x15000b
800029c0:	04e60863          	beq	a2,a4,80002a10 <_ZN11DepthTencil18doDepthStencilTestEjjjj+0x208>
800029c4:	00000513          	li	a0,0
800029c8:	1e40006f          	j	80002bac <_ZN11DepthTencil18doDepthStencilTestEjjjj+0x3a4>
800029cc:	01c52533          	slt	a0,a0,t3
800029d0:	0015000b          	0x15000b
800029d4:	00300513          	li	a0,3
800029d8:	0cae5c63          	bge	t3,a0,80002ab0 <_ZN11DepthTencil18doDepthStencilTestEjjjj+0x2a8>
800029dc:	00e63533          	sltu	a0,a2,a4
800029e0:	00154513          	xori	a0,a0,1
800029e4:	0015000b          	0x15000b
800029e8:	02e66463          	bltu	a2,a4,80002a10 <_ZN11DepthTencil18doDepthStencilTestEjjjj+0x208>
800029ec:	fd9ff06f          	j	800029c4 <_ZN11DepthTencil18doDepthStencilTestEjjjj+0x1bc>
800029f0:	01c7a533          	slt	a0,a5,t3
800029f4:	0015000b          	0x15000b
800029f8:	00700513          	li	a0,7
800029fc:	0cae5463          	bge	t3,a0,80002ac4 <_ZN11DepthTencil18doDepthStencilTestEjjjj+0x2bc>
80002a00:	00c73533          	sltu	a0,a4,a2
80002a04:	00154513          	xori	a0,a0,1
80002a08:	0015000b          	0x15000b
80002a0c:	fac77ce3          	bgeu	a4,a2,800029c4 <_ZN11DepthTencil18doDepthStencilTestEjjjj+0x1bc>
80002a10:	0084a603          	lw	a2,8(s1)
80002a14:	00bf7533          	and	a0,t5,a1
80002a18:	00300593          	li	a1,3
80002a1c:	00c5a5b3          	slt	a1,a1,a2
80002a20:	0015800b          	0x15800b
80002a24:	00400593          	li	a1,4
80002a28:	02b65e63          	bge	a2,a1,80002a64 <_ZN11DepthTencil18doDepthStencilTestEjjjj+0x25c>
80002a2c:	00100593          	li	a1,1
80002a30:	00c5a5b3          	slt	a1,a1,a2
80002a34:	0015800b          	0x15800b
80002a38:	00200593          	li	a1,2
80002a3c:	0ab65663          	bge	a2,a1,80002ae8 <_ZN11DepthTencil18doDepthStencilTestEjjjj+0x2e0>
80002a40:	00c02533          	sgtz	a0,a2
80002a44:	0015000b          	0x15000b
80002a48:	00000513          	li	a0,0
80002a4c:	00028393          	mv	t2,t0
80002a50:	14c04e63          	bgtz	a2,80002bac <_ZN11DepthTencil18doDepthStencilTestEjjjj+0x3a4>
80002a54:	00c03533          	snez	a0,a2
80002a58:	0015000b          	0x15000b
80002a5c:	12060263          	beqz	a2,80002b80 <_ZN11DepthTencil18doDepthStencilTestEjjjj+0x378>
80002a60:	2740006f          	j	80002cd4 <_ZN11DepthTencil18doDepthStencilTestEjjjj+0x4cc>
80002a64:	00500593          	li	a1,5
80002a68:	00c5a733          	slt	a4,a1,a2
80002a6c:	0017000b          	0x17000b
80002a70:	00600713          	li	a4,6
80002a74:	08e65c63          	bge	a2,a4,80002b0c <_ZN11DepthTencil18doDepthStencilTestEjjjj+0x304>
80002a78:	00562713          	slti	a4,a2,5
80002a7c:	0007200b          	0x7200b
80002a80:	0ab65863          	bge	a2,a1,80002b30 <_ZN11DepthTencil18doDepthStencilTestEjjjj+0x328>
80002a84:	00a845b3          	xor	a1,a6,a0
80002a88:	0015b593          	seqz	a1,a1
80002a8c:	0005a00b          	0x5a00b
80002a90:	0ea80863          	beq	a6,a0,80002b80 <_ZN11DepthTencil18doDepthStencilTestEjjjj+0x378>
80002a94:	00000513          	li	a0,0
80002a98:	0fc0006f          	j	80002b94 <_ZN11DepthTencil18doDepthStencilTestEjjjj+0x38c>
80002a9c:	00e63533          	sltu	a0,a2,a4
80002aa0:	00154513          	xori	a0,a0,1
80002aa4:	0015000b          	0x15000b
80002aa8:	f6e674e3          	bgeu	a2,a4,80002a10 <_ZN11DepthTencil18doDepthStencilTestEjjjj+0x208>
80002aac:	f19ff06f          	j	800029c4 <_ZN11DepthTencil18doDepthStencilTestEjjjj+0x1bc>
80002ab0:	00c73533          	sltu	a0,a4,a2
80002ab4:	00154513          	xori	a0,a0,1
80002ab8:	0015000b          	0x15000b
80002abc:	f4c77ae3          	bgeu	a4,a2,80002a10 <_ZN11DepthTencil18doDepthStencilTestEjjjj+0x208>
80002ac0:	f05ff06f          	j	800029c4 <_ZN11DepthTencil18doDepthStencilTestEjjjj+0x1bc>
80002ac4:	007e4793          	xori	a5,t3,7
80002ac8:	00f037b3          	snez	a5,a5
80002acc:	0017800b          	0x17800b
80002ad0:	20ae1263          	bne	t3,a0,80002cd4 <_ZN11DepthTencil18doDepthStencilTestEjjjj+0x4cc>
80002ad4:	00e64533          	xor	a0,a2,a4
80002ad8:	00a03533          	snez	a0,a0
80002adc:	0015000b          	0x15000b
80002ae0:	f2e618e3          	bne	a2,a4,80002a10 <_ZN11DepthTencil18doDepthStencilTestEjjjj+0x208>
80002ae4:	ee1ff06f          	j	800029c4 <_ZN11DepthTencil18doDepthStencilTestEjjjj+0x1bc>
80002ae8:	00362593          	slti	a1,a2,3
80002aec:	0005a00b          	0x5a00b
80002af0:	00300593          	li	a1,3
80002af4:	04b65863          	bge	a2,a1,80002b44 <_ZN11DepthTencil18doDepthStencilTestEjjjj+0x33c>
80002af8:	00a835b3          	sltu	a1,a6,a0
80002afc:	0005a00b          	0x5a00b
80002b00:	08a86063          	bltu	a6,a0,80002b80 <_ZN11DepthTencil18doDepthStencilTestEjjjj+0x378>
80002b04:	00000513          	li	a0,0
80002b08:	0980006f          	j	80002ba0 <_ZN11DepthTencil18doDepthStencilTestEjjjj+0x398>
80002b0c:	00c725b3          	slt	a1,a4,a2
80002b10:	0015800b          	0x15800b
80002b14:	00700593          	li	a1,7
80002b18:	04b65063          	bge	a2,a1,80002b58 <_ZN11DepthTencil18doDepthStencilTestEjjjj+0x350>
80002b1c:	010535b3          	sltu	a1,a0,a6
80002b20:	0005a00b          	0x5a00b
80002b24:	05056e63          	bltu	a0,a6,80002b80 <_ZN11DepthTencil18doDepthStencilTestEjjjj+0x378>
80002b28:	00000513          	li	a0,0
80002b2c:	0600006f          	j	80002b8c <_ZN11DepthTencil18doDepthStencilTestEjjjj+0x384>
80002b30:	00a835b3          	sltu	a1,a6,a0
80002b34:	0005a00b          	0x5a00b
80002b38:	04a87463          	bgeu	a6,a0,80002b80 <_ZN11DepthTencil18doDepthStencilTestEjjjj+0x378>
80002b3c:	00000513          	li	a0,0
80002b40:	0500006f          	j	80002b90 <_ZN11DepthTencil18doDepthStencilTestEjjjj+0x388>
80002b44:	010535b3          	sltu	a1,a0,a6
80002b48:	0005a00b          	0x5a00b
80002b4c:	03057a63          	bgeu	a0,a6,80002b80 <_ZN11DepthTencil18doDepthStencilTestEjjjj+0x378>
80002b50:	00000513          	li	a0,0
80002b54:	0480006f          	j	80002b9c <_ZN11DepthTencil18doDepthStencilTestEjjjj+0x394>
80002b58:	00764713          	xori	a4,a2,7
80002b5c:	00e03733          	snez	a4,a4
80002b60:	0017000b          	0x17000b
80002b64:	16b61863          	bne	a2,a1,80002cd4 <_ZN11DepthTencil18doDepthStencilTestEjjjj+0x4cc>
80002b68:	00a845b3          	xor	a1,a6,a0
80002b6c:	0015b593          	seqz	a1,a1
80002b70:	0005a00b          	0x5a00b
80002b74:	00a81663          	bne	a6,a0,80002b80 <_ZN11DepthTencil18doDepthStencilTestEjjjj+0x378>
80002b78:	00000513          	li	a0,0
80002b7c:	00c0006f          	j	80002b88 <_ZN11DepthTencil18doDepthStencilTestEjjjj+0x380>
80002b80:	00100513          	li	a0,1
80002b84:	00030293          	mv	t0,t1
80002b88:	0000300b          	0x300b
80002b8c:	0000300b          	0x300b
80002b90:	0000300b          	0x300b
80002b94:	0000300b          	0x300b
80002b98:	0000300b          	0x300b
80002b9c:	0000300b          	0x300b
80002ba0:	0000300b          	0x300b
80002ba4:	0000300b          	0x300b
80002ba8:	00028393          	mv	t2,t0
80002bac:	00300593          	li	a1,3
80002bb0:	0075a5b3          	slt	a1,a1,t2
80002bb4:	0015800b          	0x15800b
80002bb8:	00400593          	li	a1,4
80002bbc:	02b3d663          	bge	t2,a1,80002be8 <_ZN11DepthTencil18doDepthStencilTestEjjjj+0x3e0>
80002bc0:	00100593          	li	a1,1
80002bc4:	0075a5b3          	slt	a1,a1,t2
80002bc8:	0015800b          	0x15800b
80002bcc:	00200593          	li	a1,2
80002bd0:	04b3d863          	bge	t2,a1,80002c20 <_ZN11DepthTencil18doDepthStencilTestEjjjj+0x418>
80002bd4:	007025b3          	sgtz	a1,t2
80002bd8:	0015800b          	0x15800b
80002bdc:	0a705663          	blez	t2,80002c88 <_ZN11DepthTencil18doDepthStencilTestEjjjj+0x480>
80002be0:	00000693          	li	a3,0
80002be4:	0b00006f          	j	80002c94 <_ZN11DepthTencil18doDepthStencilTestEjjjj+0x48c>
80002be8:	00500593          	li	a1,5
80002bec:	0075a633          	slt	a2,a1,t2
80002bf0:	0016000b          	0x16000b
80002bf4:	00600613          	li	a2,6
80002bf8:	04c3d863          	bge	t2,a2,80002c48 <_ZN11DepthTencil18doDepthStencilTestEjjjj+0x440>
80002bfc:	0053a613          	slti	a2,t2,5
80002c00:	0006200b          	0x6200b
80002c04:	04b3de63          	bge	t2,a1,80002c60 <_ZN11DepthTencil18doDepthStencilTestEjjjj+0x458>
80002c08:	00000593          	li	a1,0
80002c0c:	00068463          	beqz	a3,80002c14 <_ZN11DepthTencil18doDepthStencilTestEjjjj+0x40c>
80002c10:	fff68593          	addi	a1,a3,-1 # feffff <reg_t6+0xfeffe0>
80002c14:	0000300b          	0x300b
80002c18:	00058693          	mv	a3,a1
80002c1c:	0780006f          	j	80002c94 <_ZN11DepthTencil18doDepthStencilTestEjjjj+0x48c>
80002c20:	0033a593          	slti	a1,t2,3
80002c24:	0005a00b          	0x5a00b
80002c28:	00300593          	li	a1,3
80002c2c:	00b3c863          	blt	t2,a1,80002c3c <_ZN11DepthTencil18doDepthStencilTestEjjjj+0x434>
80002c30:	0ff6c593          	xori	a1,a3,255
80002c34:	00b035b3          	snez	a1,a1
80002c38:	00b688b3          	add	a7,a3,a1
80002c3c:	0000300b          	0x300b
80002c40:	00088693          	mv	a3,a7
80002c44:	0500006f          	j	80002c94 <_ZN11DepthTencil18doDepthStencilTestEjjjj+0x48c>
80002c48:	007625b3          	slt	a1,a2,t2
80002c4c:	0015800b          	0x15800b
80002c50:	00700593          	li	a1,7
80002c54:	00b3dc63          	bge	t2,a1,80002c6c <_ZN11DepthTencil18doDepthStencilTestEjjjj+0x464>
80002c58:	00168593          	addi	a1,a3,1
80002c5c:	0240006f          	j	80002c80 <_ZN11DepthTencil18doDepthStencilTestEjjjj+0x478>
80002c60:	0000300b          	0x300b
80002c64:	fff6c693          	not	a3,a3
80002c68:	02c0006f          	j	80002c94 <_ZN11DepthTencil18doDepthStencilTestEjjjj+0x48c>
80002c6c:	0073c613          	xori	a2,t2,7
80002c70:	00c03633          	snez	a2,a2
80002c74:	0016000b          	0x16000b
80002c78:	04b39e63          	bne	t2,a1,80002cd4 <_ZN11DepthTencil18doDepthStencilTestEjjjj+0x4cc>
80002c7c:	fff68593          	addi	a1,a3,-1
80002c80:	0ff5f693          	andi	a3,a1,255
80002c84:	0100006f          	j	80002c94 <_ZN11DepthTencil18doDepthStencilTestEjjjj+0x48c>
80002c88:	007035b3          	snez	a1,t2
80002c8c:	0015800b          	0x15800b
80002c90:	04039263          	bnez	t2,80002cd4 <_ZN11DepthTencil18doDepthStencilTestEjjjj+0x4cc>
80002c94:	001fb593          	seqz	a1,t6
80002c98:	0005a00b          	0x5a00b
80002c9c:	020f8063          	beqz	t6,80002cbc <_ZN11DepthTencil18doDepthStencilTestEjjjj+0x4b4>
80002ca0:	ffffc593          	not	a1,t6
80002ca4:	00bf75b3          	and	a1,t5,a1
80002ca8:	01869613          	slli	a2,a3,0x18
80002cac:	01066633          	or	a2,a2,a6
80002cb0:	01f67633          	and	a2,a2,t6
80002cb4:	00b665b3          	or	a1,a2,a1
80002cb8:	00bea023          	sw	a1,0(t4)
80002cbc:	0000300b          	0x300b
80002cc0:	00412483          	lw	s1,4(sp)
80002cc4:	00812403          	lw	s0,8(sp)
80002cc8:	00c12083          	lw	ra,12(sp)
80002ccc:	01010113          	addi	sp,sp,16
80002cd0:	00008067          	ret
80002cd4:	2ad010ef          	jal	ra,80004780 <abort>

80002cd8 <_Z11DoBlendFuncjN7cocogfx9ColorARGBES0_S0_>:
80002cd8:	ff010113          	addi	sp,sp,-16
80002cdc:	00112623          	sw	ra,12(sp)
80002ce0:	0085d313          	srli	t1,a1,0x8
80002ce4:	0105d293          	srli	t0,a1,0x10
80002ce8:	0185d813          	srli	a6,a1,0x18
80002cec:	00865e93          	srli	t4,a2,0x8
80002cf0:	01065e13          	srli	t3,a2,0x10
80002cf4:	01865893          	srli	a7,a2,0x18
80002cf8:	0086d393          	srli	t2,a3,0x8
80002cfc:	0106df13          	srli	t5,a3,0x10
80002d00:	0186d793          	srli	a5,a3,0x18
80002d04:	00600713          	li	a4,6
80002d08:	00a72733          	slt	a4,a4,a0
80002d0c:	0017000b          	0x17000b
80002d10:	00700713          	li	a4,7
80002d14:	06e55063          	bge	a0,a4,80002d74 <_Z11DoBlendFuncjN7cocogfx9ColorARGBES0_S0_+0x9c>
80002d18:	00200693          	li	a3,2
80002d1c:	00a6a6b3          	slt	a3,a3,a0
80002d20:	0016800b          	0x16800b
80002d24:	00300693          	li	a3,3
80002d28:	0ad55063          	bge	a0,a3,80002dc8 <_Z11DoBlendFuncjN7cocogfx9ColorARGBES0_S0_+0xf0>
80002d2c:	00a02633          	sgtz	a2,a0
80002d30:	0016000b          	0x16000b
80002d34:	00100613          	li	a2,1
80002d38:	1cc54a63          	blt	a0,a2,80002f0c <_Z11DoBlendFuncjN7cocogfx9ColorARGBES0_S0_+0x234>
80002d3c:	00252613          	slti	a2,a0,2
80002d40:	0006200b          	0x6200b
80002d44:	00200613          	li	a2,2
80002d48:	00c55a63          	bge	a0,a2,80002d5c <_Z11DoBlendFuncjN7cocogfx9ColorARGBES0_S0_+0x84>
80002d4c:	0ff00813          	li	a6,255
80002d50:	0ff00293          	li	t0,255
80002d54:	0ff00593          	li	a1,255
80002d58:	0ff00313          	li	t1,255
80002d5c:	0000300b          	0x300b
80002d60:	00030513          	mv	a0,t1
80002d64:	00058693          	mv	a3,a1
80002d68:	00028f13          	mv	t5,t0
80002d6c:	00080793          	mv	a5,a6
80002d70:	1f40006f          	j	80002f64 <_Z11DoBlendFuncjN7cocogfx9ColorARGBES0_S0_+0x28c>
80002d74:	00a00593          	li	a1,10
80002d78:	00a5a5b3          	slt	a1,a1,a0
80002d7c:	0015800b          	0x15800b
80002d80:	00b00593          	li	a1,11
80002d84:	08b55e63          	bge	a0,a1,80002e20 <_Z11DoBlendFuncjN7cocogfx9ColorARGBES0_S0_+0x148>
80002d88:	00952593          	slti	a1,a0,9
80002d8c:	0005a00b          	0x5a00b
80002d90:	00900593          	li	a1,9
80002d94:	0cb55663          	bge	a0,a1,80002e60 <_Z11DoBlendFuncjN7cocogfx9ColorARGBES0_S0_+0x188>
80002d98:	00852593          	slti	a1,a0,8
80002d9c:	0005a00b          	0x5a00b
80002da0:	00800593          	li	a1,8
80002da4:	00b55463          	bge	a0,a1,80002dac <_Z11DoBlendFuncjN7cocogfx9ColorARGBES0_S0_+0xd4>
80002da8:	0ff84893          	xori	a7,a6,255
80002dac:	0000300b          	0x300b
80002db0:	0000300b          	0x300b
80002db4:	00088513          	mv	a0,a7
80002db8:	00088693          	mv	a3,a7
80002dbc:	00088f13          	mv	t5,a7
80002dc0:	00088793          	mv	a5,a7
80002dc4:	1a00006f          	j	80002f64 <_Z11DoBlendFuncjN7cocogfx9ColorARGBES0_S0_+0x28c>
80002dc8:	00552693          	slti	a3,a0,5
80002dcc:	0006a00b          	0x6a00b
80002dd0:	00500693          	li	a3,5
80002dd4:	0ad55e63          	bge	a0,a3,80002e90 <_Z11DoBlendFuncjN7cocogfx9ColorARGBES0_S0_+0x1b8>
80002dd8:	00452693          	slti	a3,a0,4
80002ddc:	0006a00b          	0x6a00b
80002de0:	00400693          	li	a3,4
80002de4:	02d55063          	bge	a0,a3,80002e04 <_Z11DoBlendFuncjN7cocogfx9ColorARGBES0_S0_+0x12c>
80002de8:	0ff84893          	xori	a7,a6,255
80002dec:	fff2c513          	not	a0,t0
80002df0:	0ff57e13          	andi	t3,a0,255
80002df4:	fff34513          	not	a0,t1
80002df8:	0ff57e93          	andi	t4,a0,255
80002dfc:	fff5c513          	not	a0,a1
80002e00:	0ff57613          	andi	a2,a0,255
80002e04:	0000300b          	0x300b
80002e08:	0000300b          	0x300b
80002e0c:	000e8513          	mv	a0,t4
80002e10:	00060693          	mv	a3,a2
80002e14:	000e0f13          	mv	t5,t3
80002e18:	00088793          	mv	a5,a7
80002e1c:	1480006f          	j	80002f64 <_Z11DoBlendFuncjN7cocogfx9ColorARGBES0_S0_+0x28c>
80002e20:	00c00593          	li	a1,12
80002e24:	00a5a633          	slt	a2,a1,a0
80002e28:	0016000b          	0x16000b
80002e2c:	00d00613          	li	a2,13
80002e30:	0ac55663          	bge	a0,a2,80002edc <_Z11DoBlendFuncjN7cocogfx9ColorARGBES0_S0_+0x204>
80002e34:	00c52613          	slti	a2,a0,12
80002e38:	0006200b          	0x6200b
80002e3c:	0eb55663          	bge	a0,a1,80002f28 <_Z11DoBlendFuncjN7cocogfx9ColorARGBES0_S0_+0x250>
80002e40:	0ff7c793          	xori	a5,a5,255
80002e44:	ffff4513          	not	a0,t5
80002e48:	0ff57f13          	andi	t5,a0,255
80002e4c:	fff3c513          	not	a0,t2
80002e50:	0ff57513          	andi	a0,a0,255
80002e54:	fff6c593          	not	a1,a3
80002e58:	0ff5f693          	andi	a3,a1,255
80002e5c:	0d80006f          	j	80002f34 <_Z11DoBlendFuncjN7cocogfx9ColorARGBES0_S0_+0x25c>
80002e60:	00a52593          	slti	a1,a0,10
80002e64:	0005a00b          	0x5a00b
80002e68:	00a00593          	li	a1,10
80002e6c:	00b55a63          	bge	a0,a1,80002e80 <_Z11DoBlendFuncjN7cocogfx9ColorARGBES0_S0_+0x1a8>
80002e70:	0ff8c793          	xori	a5,a7,255
80002e74:	00078f13          	mv	t5,a5
80002e78:	00078693          	mv	a3,a5
80002e7c:	00078393          	mv	t2,a5
80002e80:	0000300b          	0x300b
80002e84:	0000300b          	0x300b
80002e88:	00038513          	mv	a0,t2
80002e8c:	0d80006f          	j	80002f64 <_Z11DoBlendFuncjN7cocogfx9ColorARGBES0_S0_+0x28c>
80002e90:	00652593          	slti	a1,a0,6
80002e94:	0005a00b          	0x5a00b
80002e98:	00600713          	li	a4,6
80002e9c:	00080f13          	mv	t5,a6
80002ea0:	00080693          	mv	a3,a6
80002ea4:	00080593          	mv	a1,a6
80002ea8:	02e55063          	bge	a0,a4,80002ec8 <_Z11DoBlendFuncjN7cocogfx9ColorARGBES0_S0_+0x1f0>
80002eac:	0ff8c813          	xori	a6,a7,255
80002eb0:	fffe4513          	not	a0,t3
80002eb4:	0ff57f13          	andi	t5,a0,255
80002eb8:	fffec513          	not	a0,t4
80002ebc:	0ff57593          	andi	a1,a0,255
80002ec0:	fff64513          	not	a0,a2
80002ec4:	0ff57693          	andi	a3,a0,255
80002ec8:	0000300b          	0x300b
80002ecc:	0000300b          	0x300b
80002ed0:	00058513          	mv	a0,a1
80002ed4:	00080793          	mv	a5,a6
80002ed8:	08c0006f          	j	80002f64 <_Z11DoBlendFuncjN7cocogfx9ColorARGBES0_S0_+0x28c>
80002edc:	00a625b3          	slt	a1,a2,a0
80002ee0:	0015800b          	0x15800b
80002ee4:	00e00593          	li	a1,14
80002ee8:	04b55a63          	bge	a0,a1,80002f3c <_Z11DoBlendFuncjN7cocogfx9ColorARGBES0_S0_+0x264>
80002eec:	0ff7c793          	xori	a5,a5,255
80002ef0:	ffff4513          	not	a0,t5
80002ef4:	0ff57f13          	andi	t5,a0,255
80002ef8:	fff3c513          	not	a0,t2
80002efc:	0ff57513          	andi	a0,a0,255
80002f00:	fff6c593          	not	a1,a3
80002f04:	0ff5f693          	andi	a3,a1,255
80002f08:	05c0006f          	j	80002f64 <_Z11DoBlendFuncjN7cocogfx9ColorARGBES0_S0_+0x28c>
80002f0c:	00a035b3          	snez	a1,a0
80002f10:	0015800b          	0x15800b
80002f14:	00050693          	mv	a3,a0
80002f18:	00050f13          	mv	t5,a0
80002f1c:	00050793          	mv	a5,a0
80002f20:	04050263          	beqz	a0,80002f64 <_Z11DoBlendFuncjN7cocogfx9ColorARGBES0_S0_+0x28c>
80002f24:	07c0006f          	j	80002fa0 <_Z11DoBlendFuncjN7cocogfx9ColorARGBES0_S0_+0x2c8>
80002f28:	00078f13          	mv	t5,a5
80002f2c:	00078693          	mv	a3,a5
80002f30:	00078513          	mv	a0,a5
80002f34:	0000300b          	0x300b
80002f38:	02c0006f          	j	80002f64 <_Z11DoBlendFuncjN7cocogfx9ColorARGBES0_S0_+0x28c>
80002f3c:	00e54613          	xori	a2,a0,14
80002f40:	00c03633          	snez	a2,a2
80002f44:	0016000b          	0x16000b
80002f48:	04b51c63          	bne	a0,a1,80002fa0 <_Z11DoBlendFuncjN7cocogfx9ColorARGBES0_S0_+0x2c8>
80002f4c:	0ff8c513          	xori	a0,a7,255
80002f50:	01056463          	bltu	a0,a6,80002f58 <_Z11DoBlendFuncjN7cocogfx9ColorARGBES0_S0_+0x280>
80002f54:	00080513          	mv	a0,a6
80002f58:	0ff00793          	li	a5,255
80002f5c:	00050693          	mv	a3,a0
80002f60:	00050f13          	mv	t5,a0
80002f64:	01879593          	slli	a1,a5,0x18
80002f68:	010f1613          	slli	a2,t5,0x10
80002f6c:	00ff0737          	lui	a4,0xff0
80002f70:	00e67633          	and	a2,a2,a4
80002f74:	00851513          	slli	a0,a0,0x8
80002f78:	00010737          	lui	a4,0x10
80002f7c:	f0070713          	addi	a4,a4,-256 # ff00 <reg_t6+0xfee1>
80002f80:	00e57533          	and	a0,a0,a4
80002f84:	0ff6f693          	andi	a3,a3,255
80002f88:	00a6e533          	or	a0,a3,a0
80002f8c:	00c56533          	or	a0,a0,a2
80002f90:	00b56533          	or	a0,a0,a1
80002f94:	00c12083          	lw	ra,12(sp)
80002f98:	01010113          	addi	sp,sp,16
80002f9c:	00008067          	ret
80002fa0:	7e0010ef          	jal	ra,80004780 <abort>

80002fa4 <_Z11DoBlendModejjN7cocogfx9ColorARGBES0_S0_S0_>:
80002fa4:	fe010113          	addi	sp,sp,-32
80002fa8:	00112e23          	sw	ra,28(sp)
80002fac:	00812c23          	sw	s0,24(sp)
80002fb0:	00912a23          	sw	s1,20(sp)
80002fb4:	01212823          	sw	s2,16(sp)
80002fb8:	01312623          	sw	s3,12(sp)
80002fbc:	00865313          	srli	t1,a2,0x8
80002fc0:	01065e93          	srli	t4,a2,0x10
80002fc4:	01865913          	srli	s2,a2,0x18
80002fc8:	0086d813          	srli	a6,a3,0x8
80002fcc:	0106d293          	srli	t0,a3,0x10
80002fd0:	0186d893          	srli	a7,a3,0x18
80002fd4:	00875e13          	srli	t3,a4,0x8
80002fd8:	01075f93          	srli	t6,a4,0x10
80002fdc:	01875493          	srli	s1,a4,0x18
80002fe0:	0087d393          	srli	t2,a5,0x8
80002fe4:	0107df13          	srli	t5,a5,0x10
80002fe8:	0187d993          	srli	s3,a5,0x18
80002fec:	00200413          	li	s0,2
80002ff0:	00a42433          	slt	s0,s0,a0
80002ff4:	0014000b          	0x14000b
80002ff8:	00300413          	li	s0,3
80002ffc:	0c855863          	bge	a0,s0,800030cc <_Z11DoBlendModejjN7cocogfx9ColorARGBES0_S0_S0_+0x128>
80003000:	00a025b3          	sgtz	a1,a0
80003004:	0015800b          	0x15800b
80003008:	00100593          	li	a1,1
8000300c:	16b54a63          	blt	a0,a1,80003180 <_Z11DoBlendModejjN7cocogfx9ColorARGBES0_S0_S0_+0x1dc>
80003010:	00252593          	slti	a1,a0,2
80003014:	0005a00b          	0x5a00b
80003018:	00200593          	li	a1,2
8000301c:	22b55c63          	bge	a0,a1,80003254 <_Z11DoBlendModejjN7cocogfx9ColorARGBES0_S0_S0_+0x2b0>
80003020:	03248533          	mul	a0,s1,s2
80003024:	0ff50513          	addi	a0,a0,255
80003028:	00855513          	srli	a0,a0,0x8
8000302c:	031985b3          	mul	a1,s3,a7
80003030:	0ff58593          	addi	a1,a1,255 # ff0000ff <__BSS_END__+0x7eff97e7>
80003034:	0085d593          	srli	a1,a1,0x8
80003038:	40b508b3          	sub	a7,a0,a1
8000303c:	01104463          	bgtz	a7,80003044 <_Z11DoBlendModejjN7cocogfx9ColorARGBES0_S0_S0_+0xa0>
80003040:	00000893          	li	a7,0
80003044:	0ffef513          	andi	a0,t4,255
80003048:	0ffff593          	andi	a1,t6,255
8000304c:	02a58533          	mul	a0,a1,a0
80003050:	0ff50513          	addi	a0,a0,255
80003054:	00855513          	srli	a0,a0,0x8
80003058:	0ff2f593          	andi	a1,t0,255
8000305c:	0fff7493          	andi	s1,t5,255
80003060:	02b485b3          	mul	a1,s1,a1
80003064:	0ff58593          	addi	a1,a1,255
80003068:	0085d593          	srli	a1,a1,0x8
8000306c:	40b502b3          	sub	t0,a0,a1
80003070:	00504463          	bgtz	t0,80003078 <_Z11DoBlendModejjN7cocogfx9ColorARGBES0_S0_S0_+0xd4>
80003074:	00000293          	li	t0,0
80003078:	0ff37513          	andi	a0,t1,255
8000307c:	0ffe7593          	andi	a1,t3,255
80003080:	02a58533          	mul	a0,a1,a0
80003084:	0ff50513          	addi	a0,a0,255
80003088:	00855513          	srli	a0,a0,0x8
8000308c:	0ff87593          	andi	a1,a6,255
80003090:	0ff3f493          	andi	s1,t2,255
80003094:	02b485b3          	mul	a1,s1,a1
80003098:	0ff58593          	addi	a1,a1,255
8000309c:	0085d593          	srli	a1,a1,0x8
800030a0:	40b50833          	sub	a6,a0,a1
800030a4:	01004463          	bgtz	a6,800030ac <_Z11DoBlendModejjN7cocogfx9ColorARGBES0_S0_S0_+0x108>
800030a8:	00000813          	li	a6,0
800030ac:	0ff67513          	andi	a0,a2,255
800030b0:	0ff77593          	andi	a1,a4,255
800030b4:	02a58533          	mul	a0,a1,a0
800030b8:	0ff50513          	addi	a0,a0,255
800030bc:	00855513          	srli	a0,a0,0x8
800030c0:	0ff6f593          	andi	a1,a3,255
800030c4:	0ff7f613          	andi	a2,a5,255
800030c8:	2340006f          	j	800032fc <_Z11DoBlendModejjN7cocogfx9ColorARGBES0_S0_S0_+0x358>
800030cc:	00a42733          	slt	a4,s0,a0
800030d0:	0017000b          	0x17000b
800030d4:	00400713          	li	a4,4
800030d8:	02e55c63          	bge	a0,a4,80003110 <_Z11DoBlendModejjN7cocogfx9ColorARGBES0_S0_S0_+0x16c>
800030dc:	0ff2f513          	andi	a0,t0,255
800030e0:	0ffef713          	andi	a4,t4,255
800030e4:	0728e863          	bltu	a7,s2,80003154 <_Z11DoBlendModejjN7cocogfx9ColorARGBES0_S0_S0_+0x1b0>
800030e8:	00090893          	mv	a7,s2
800030ec:	0ff87593          	andi	a1,a6,255
800030f0:	0ff37793          	andi	a5,t1,255
800030f4:	06e57663          	bgeu	a0,a4,80003160 <_Z11DoBlendModejjN7cocogfx9ColorARGBES0_S0_S0_+0x1bc>
800030f8:	0ff6f513          	andi	a0,a3,255
800030fc:	0ff67713          	andi	a4,a2,255
80003100:	06f5e863          	bltu	a1,a5,80003170 <_Z11DoBlendModejjN7cocogfx9ColorARGBES0_S0_S0_+0x1cc>
80003104:	00030813          	mv	a6,t1
80003108:	06e57663          	bgeu	a0,a4,80003174 <_Z11DoBlendModejjN7cocogfx9ColorARGBES0_S0_S0_+0x1d0>
8000310c:	06c0006f          	j	80003178 <_Z11DoBlendModejjN7cocogfx9ColorARGBES0_S0_S0_+0x1d4>
80003110:	00a72733          	slt	a4,a4,a0
80003114:	0017000b          	0x17000b
80003118:	00500713          	li	a4,5
8000311c:	20e55063          	bge	a0,a4,8000331c <_Z11DoBlendModejjN7cocogfx9ColorARGBES0_S0_S0_+0x378>
80003120:	0ff2f513          	andi	a0,t0,255
80003124:	0ffef713          	andi	a4,t4,255
80003128:	25196a63          	bltu	s2,a7,8000337c <_Z11DoBlendModejjN7cocogfx9ColorARGBES0_S0_S0_+0x3d8>
8000312c:	00090893          	mv	a7,s2
80003130:	0ff87593          	andi	a1,a6,255
80003134:	0ff37793          	andi	a5,t1,255
80003138:	24a77863          	bgeu	a4,a0,80003388 <_Z11DoBlendModejjN7cocogfx9ColorARGBES0_S0_S0_+0x3e4>
8000313c:	0ff6f513          	andi	a0,a3,255
80003140:	0ff67713          	andi	a4,a2,255
80003144:	24b7ea63          	bltu	a5,a1,80003398 <_Z11DoBlendModejjN7cocogfx9ColorARGBES0_S0_S0_+0x3f4>
80003148:	00030813          	mv	a6,t1
8000314c:	02a77463          	bgeu	a4,a0,80003174 <_Z11DoBlendModejjN7cocogfx9ColorARGBES0_S0_S0_+0x1d0>
80003150:	0280006f          	j	80003178 <_Z11DoBlendModejjN7cocogfx9ColorARGBES0_S0_S0_+0x1d4>
80003154:	0ff87593          	andi	a1,a6,255
80003158:	0ff37793          	andi	a5,t1,255
8000315c:	f8e56ee3          	bltu	a0,a4,800030f8 <_Z11DoBlendModejjN7cocogfx9ColorARGBES0_S0_S0_+0x154>
80003160:	000e8293          	mv	t0,t4
80003164:	0ff6f513          	andi	a0,a3,255
80003168:	0ff67713          	andi	a4,a2,255
8000316c:	f8f5fce3          	bgeu	a1,a5,80003104 <_Z11DoBlendModejjN7cocogfx9ColorARGBES0_S0_S0_+0x160>
80003170:	00e56463          	bltu	a0,a4,80003178 <_Z11DoBlendModejjN7cocogfx9ColorARGBES0_S0_S0_+0x1d4>
80003174:	00060693          	mv	a3,a2
80003178:	00068593          	mv	a1,a3
8000317c:	3bc0006f          	j	80003538 <_Z11DoBlendModejjN7cocogfx9ColorARGBES0_S0_S0_+0x594>
80003180:	00a035b3          	snez	a1,a0
80003184:	0015800b          	0x15800b
80003188:	3e051e63          	bnez	a0,80003584 <_Z11DoBlendModejjN7cocogfx9ColorARGBES0_S0_S0_+0x5e0>
8000318c:	03248533          	mul	a0,s1,s2
80003190:	0ff50513          	addi	a0,a0,255
80003194:	00855513          	srli	a0,a0,0x8
80003198:	031985b3          	mul	a1,s3,a7
8000319c:	0ff58593          	addi	a1,a1,255
800031a0:	0085d593          	srli	a1,a1,0x8
800031a4:	00a588b3          	add	a7,a1,a0
800031a8:	0ff00513          	li	a0,255
800031ac:	00a8e463          	bltu	a7,a0,800031b4 <_Z11DoBlendModejjN7cocogfx9ColorARGBES0_S0_S0_+0x210>
800031b0:	0ff00893          	li	a7,255
800031b4:	0ffef593          	andi	a1,t4,255
800031b8:	0ffff493          	andi	s1,t6,255
800031bc:	02b485b3          	mul	a1,s1,a1
800031c0:	0ff58593          	addi	a1,a1,255
800031c4:	0085d593          	srli	a1,a1,0x8
800031c8:	0ff2f493          	andi	s1,t0,255
800031cc:	0fff7413          	andi	s0,t5,255
800031d0:	029404b3          	mul	s1,s0,s1
800031d4:	0ff48493          	addi	s1,s1,255
800031d8:	0084d493          	srli	s1,s1,0x8
800031dc:	00b482b3          	add	t0,s1,a1
800031e0:	00a2e463          	bltu	t0,a0,800031e8 <_Z11DoBlendModejjN7cocogfx9ColorARGBES0_S0_S0_+0x244>
800031e4:	0ff00293          	li	t0,255
800031e8:	0ff37593          	andi	a1,t1,255
800031ec:	0ffe7493          	andi	s1,t3,255
800031f0:	02b485b3          	mul	a1,s1,a1
800031f4:	0ff58593          	addi	a1,a1,255
800031f8:	0085d593          	srli	a1,a1,0x8
800031fc:	0ff87493          	andi	s1,a6,255
80003200:	0ff3f413          	andi	s0,t2,255
80003204:	029404b3          	mul	s1,s0,s1
80003208:	0ff48493          	addi	s1,s1,255
8000320c:	0084d493          	srli	s1,s1,0x8
80003210:	00b48833          	add	a6,s1,a1
80003214:	00a86463          	bltu	a6,a0,8000321c <_Z11DoBlendModejjN7cocogfx9ColorARGBES0_S0_S0_+0x278>
80003218:	0ff00813          	li	a6,255
8000321c:	0ff67593          	andi	a1,a2,255
80003220:	0ff77613          	andi	a2,a4,255
80003224:	02b605b3          	mul	a1,a2,a1
80003228:	0ff58593          	addi	a1,a1,255
8000322c:	0085d593          	srli	a1,a1,0x8
80003230:	0ff6f613          	andi	a2,a3,255
80003234:	0ff7f693          	andi	a3,a5,255
80003238:	02c68633          	mul	a2,a3,a2
8000323c:	0ff60613          	addi	a2,a2,255 # 10000ff <reg_t6+0x10000e0>
80003240:	00865613          	srli	a2,a2,0x8
80003244:	00b605b3          	add	a1,a2,a1
80003248:	2ea5e863          	bltu	a1,a0,80003538 <_Z11DoBlendModejjN7cocogfx9ColorARGBES0_S0_S0_+0x594>
8000324c:	0ff00593          	li	a1,255
80003250:	2e80006f          	j	80003538 <_Z11DoBlendModejjN7cocogfx9ColorARGBES0_S0_S0_+0x594>
80003254:	03198533          	mul	a0,s3,a7
80003258:	0ff50513          	addi	a0,a0,255
8000325c:	00855513          	srli	a0,a0,0x8
80003260:	032485b3          	mul	a1,s1,s2
80003264:	0ff58593          	addi	a1,a1,255
80003268:	0085d593          	srli	a1,a1,0x8
8000326c:	40b508b3          	sub	a7,a0,a1
80003270:	01104463          	bgtz	a7,80003278 <_Z11DoBlendModejjN7cocogfx9ColorARGBES0_S0_S0_+0x2d4>
80003274:	00000893          	li	a7,0
80003278:	0ff2f513          	andi	a0,t0,255
8000327c:	0fff7593          	andi	a1,t5,255
80003280:	02a58533          	mul	a0,a1,a0
80003284:	0ff50513          	addi	a0,a0,255
80003288:	00855513          	srli	a0,a0,0x8
8000328c:	0ffef593          	andi	a1,t4,255
80003290:	0ffff493          	andi	s1,t6,255
80003294:	02b485b3          	mul	a1,s1,a1
80003298:	0ff58593          	addi	a1,a1,255
8000329c:	0085d593          	srli	a1,a1,0x8
800032a0:	40b502b3          	sub	t0,a0,a1
800032a4:	00504463          	bgtz	t0,800032ac <_Z11DoBlendModejjN7cocogfx9ColorARGBES0_S0_S0_+0x308>
800032a8:	00000293          	li	t0,0
800032ac:	0ff87513          	andi	a0,a6,255
800032b0:	0ff3f593          	andi	a1,t2,255
800032b4:	02a58533          	mul	a0,a1,a0
800032b8:	0ff50513          	addi	a0,a0,255
800032bc:	00855513          	srli	a0,a0,0x8
800032c0:	0ff37593          	andi	a1,t1,255
800032c4:	0ffe7493          	andi	s1,t3,255
800032c8:	02b485b3          	mul	a1,s1,a1
800032cc:	0ff58593          	addi	a1,a1,255
800032d0:	0085d593          	srli	a1,a1,0x8
800032d4:	40b50833          	sub	a6,a0,a1
800032d8:	01004463          	bgtz	a6,800032e0 <_Z11DoBlendModejjN7cocogfx9ColorARGBES0_S0_S0_+0x33c>
800032dc:	00000813          	li	a6,0
800032e0:	0ff6f513          	andi	a0,a3,255
800032e4:	0ff7f593          	andi	a1,a5,255
800032e8:	02a58533          	mul	a0,a1,a0
800032ec:	0ff50513          	addi	a0,a0,255
800032f0:	00855513          	srli	a0,a0,0x8
800032f4:	0ff67593          	andi	a1,a2,255
800032f8:	0ff77613          	andi	a2,a4,255
800032fc:	02b605b3          	mul	a1,a2,a1
80003300:	0ff58593          	addi	a1,a1,255
80003304:	0085d593          	srli	a1,a1,0x8
80003308:	40b505b3          	sub	a1,a0,a1
8000330c:	00b04463          	bgtz	a1,80003314 <_Z11DoBlendModejjN7cocogfx9ColorARGBES0_S0_S0_+0x370>
80003310:	00000593          	li	a1,0
80003314:	0000300b          	0x300b
80003318:	2200006f          	j	80003538 <_Z11DoBlendModejjN7cocogfx9ColorARGBES0_S0_S0_+0x594>
8000331c:	00554793          	xori	a5,a0,5
80003320:	00f037b3          	snez	a5,a5
80003324:	0017800b          	0x17800b
80003328:	24e51e63          	bne	a0,a4,80003584 <_Z11DoBlendModejjN7cocogfx9ColorARGBES0_S0_S0_+0x5e0>
8000332c:	00700513          	li	a0,7
80003330:	00b52533          	slt	a0,a0,a1
80003334:	0015000b          	0x15000b
80003338:	00800513          	li	a0,8
8000333c:	06a5d263          	bge	a1,a0,800033a0 <_Z11DoBlendModejjN7cocogfx9ColorARGBES0_S0_S0_+0x3fc>
80003340:	00300513          	li	a0,3
80003344:	00b52533          	slt	a0,a0,a1
80003348:	0015000b          	0x15000b
8000334c:	00400513          	li	a0,4
80003350:	08a5d663          	bge	a1,a0,800033dc <_Z11DoBlendModejjN7cocogfx9ColorARGBES0_S0_S0_+0x438>
80003354:	00100513          	li	a0,1
80003358:	00b52533          	slt	a0,a0,a1
8000335c:	0015000b          	0x15000b
80003360:	00200513          	li	a0,2
80003364:	0ca5de63          	bge	a1,a0,80003440 <_Z11DoBlendModejjN7cocogfx9ColorARGBES0_S0_S0_+0x49c>
80003368:	00b02533          	sgtz	a0,a1
8000336c:	0015000b          	0x15000b
80003370:	1ab05863          	blez	a1,80003520 <_Z11DoBlendModejjN7cocogfx9ColorARGBES0_S0_S0_+0x57c>
80003374:	00c6f5b3          	and	a1,a3,a2
80003378:	1b40006f          	j	8000352c <_Z11DoBlendModejjN7cocogfx9ColorARGBES0_S0_S0_+0x588>
8000337c:	0ff87593          	andi	a1,a6,255
80003380:	0ff37793          	andi	a5,t1,255
80003384:	daa76ce3          	bltu	a4,a0,8000313c <_Z11DoBlendModejjN7cocogfx9ColorARGBES0_S0_S0_+0x198>
80003388:	000e8293          	mv	t0,t4
8000338c:	0ff6f513          	andi	a0,a3,255
80003390:	0ff67713          	andi	a4,a2,255
80003394:	dab7fae3          	bgeu	a5,a1,80003148 <_Z11DoBlendModejjN7cocogfx9ColorARGBES0_S0_S0_+0x1a4>
80003398:	dca77ee3          	bgeu	a4,a0,80003174 <_Z11DoBlendModejjN7cocogfx9ColorARGBES0_S0_S0_+0x1d0>
8000339c:	dddff06f          	j	80003178 <_Z11DoBlendModejjN7cocogfx9ColorARGBES0_S0_S0_+0x1d4>
800033a0:	00b00513          	li	a0,11
800033a4:	00b52533          	slt	a0,a0,a1
800033a8:	0015000b          	0x15000b
800033ac:	00c00513          	li	a0,12
800033b0:	06a5d263          	bge	a1,a0,80003414 <_Z11DoBlendModejjN7cocogfx9ColorARGBES0_S0_S0_+0x470>
800033b4:	00a5a513          	slti	a0,a1,10
800033b8:	0005200b          	0x5200b
800033bc:	00a00513          	li	a0,10
800033c0:	0aa5d263          	bge	a1,a0,80003464 <_Z11DoBlendModejjN7cocogfx9ColorARGBES0_S0_S0_+0x4c0>
800033c4:	0095a513          	slti	a0,a1,9
800033c8:	0005200b          	0x5200b
800033cc:	00900513          	li	a0,9
800033d0:	0ea5d863          	bge	a1,a0,800034c0 <_Z11DoBlendModejjN7cocogfx9ColorARGBES0_S0_S0_+0x51c>
800033d4:	00c6e533          	or	a0,a3,a2
800033d8:	0ec0006f          	j	800034c4 <_Z11DoBlendModejjN7cocogfx9ColorARGBES0_S0_S0_+0x520>
800033dc:	0065a513          	slti	a0,a1,6
800033e0:	0005200b          	0x5200b
800033e4:	00600513          	li	a0,6
800033e8:	08a5de63          	bge	a1,a0,80003484 <_Z11DoBlendModejjN7cocogfx9ColorARGBES0_S0_S0_+0x4e0>
800033ec:	0055a513          	slti	a0,a1,5
800033f0:	0005200b          	0x5200b
800033f4:	00500513          	li	a0,5
800033f8:	00a5d663          	bge	a1,a0,80003404 <_Z11DoBlendModejjN7cocogfx9ColorARGBES0_S0_S0_+0x460>
800033fc:	fff64513          	not	a0,a2
80003400:	00d576b3          	and	a3,a0,a3
80003404:	0000300b          	0x300b
80003408:	0000300b          	0x300b
8000340c:	00068593          	mv	a1,a3
80003410:	11c0006f          	j	8000352c <_Z11DoBlendModejjN7cocogfx9ColorARGBES0_S0_S0_+0x588>
80003414:	00d00513          	li	a0,13
80003418:	00b52733          	slt	a4,a0,a1
8000341c:	0017000b          	0x17000b
80003420:	00e00713          	li	a4,14
80003424:	08e5d063          	bge	a1,a4,800034a4 <_Z11DoBlendModejjN7cocogfx9ColorARGBES0_S0_S0_+0x500>
80003428:	00d5a713          	slti	a4,a1,13
8000342c:	0007200b          	0x7200b
80003430:	0aa5d263          	bge	a1,a0,800034d4 <_Z11DoBlendModejjN7cocogfx9ColorARGBES0_S0_S0_+0x530>
80003434:	0000300b          	0x300b
80003438:	fff64593          	not	a1,a2
8000343c:	0f00006f          	j	8000352c <_Z11DoBlendModejjN7cocogfx9ColorARGBES0_S0_S0_+0x588>
80003440:	0035a513          	slti	a0,a1,3
80003444:	0005200b          	0x5200b
80003448:	00300513          	li	a0,3
8000344c:	00a5d663          	bge	a1,a0,80003458 <_Z11DoBlendModejjN7cocogfx9ColorARGBES0_S0_S0_+0x4b4>
80003450:	fff6c513          	not	a0,a3
80003454:	00c57633          	and	a2,a0,a2
80003458:	0000300b          	0x300b
8000345c:	00060593          	mv	a1,a2
80003460:	0cc0006f          	j	8000352c <_Z11DoBlendModejjN7cocogfx9ColorARGBES0_S0_S0_+0x588>
80003464:	00b5a513          	slti	a0,a1,11
80003468:	0005200b          	0x5200b
8000346c:	00b00513          	li	a0,11
80003470:	06a5da63          	bge	a1,a0,800034e4 <_Z11DoBlendModejjN7cocogfx9ColorARGBES0_S0_S0_+0x540>
80003474:	0000300b          	0x300b
80003478:	0000300b          	0x300b
8000347c:	fff6c593          	not	a1,a3
80003480:	0ac0006f          	j	8000352c <_Z11DoBlendModejjN7cocogfx9ColorARGBES0_S0_S0_+0x588>
80003484:	0075a513          	slti	a0,a1,7
80003488:	0005200b          	0x5200b
8000348c:	00700513          	li	a0,7
80003490:	06a5d463          	bge	a1,a0,800034f8 <_Z11DoBlendModejjN7cocogfx9ColorARGBES0_S0_S0_+0x554>
80003494:	0000300b          	0x300b
80003498:	0000300b          	0x300b
8000349c:	00c6c5b3          	xor	a1,a3,a2
800034a0:	08c0006f          	j	8000352c <_Z11DoBlendModejjN7cocogfx9ColorARGBES0_S0_S0_+0x588>
800034a4:	00b72533          	slt	a0,a4,a1
800034a8:	0015000b          	0x15000b
800034ac:	00f00513          	li	a0,15
800034b0:	04a5dc63          	bge	a1,a0,80003508 <_Z11DoBlendModejjN7cocogfx9ColorARGBES0_S0_S0_+0x564>
800034b4:	00c6f533          	and	a0,a3,a2
800034b8:	fff54593          	not	a1,a0
800034bc:	0700006f          	j	8000352c <_Z11DoBlendModejjN7cocogfx9ColorARGBES0_S0_S0_+0x588>
800034c0:	00d64533          	xor	a0,a2,a3
800034c4:	fff54593          	not	a1,a0
800034c8:	0000300b          	0x300b
800034cc:	0000300b          	0x300b
800034d0:	05c0006f          	j	8000352c <_Z11DoBlendModejjN7cocogfx9ColorARGBES0_S0_S0_+0x588>
800034d4:	0000300b          	0x300b
800034d8:	fff64513          	not	a0,a2
800034dc:	00d565b3          	or	a1,a0,a3
800034e0:	04c0006f          	j	8000352c <_Z11DoBlendModejjN7cocogfx9ColorARGBES0_S0_S0_+0x588>
800034e4:	0000300b          	0x300b
800034e8:	0000300b          	0x300b
800034ec:	fff6c513          	not	a0,a3
800034f0:	00c565b3          	or	a1,a0,a2
800034f4:	0380006f          	j	8000352c <_Z11DoBlendModejjN7cocogfx9ColorARGBES0_S0_S0_+0x588>
800034f8:	0000300b          	0x300b
800034fc:	0000300b          	0x300b
80003500:	00c6e5b3          	or	a1,a3,a2
80003504:	0280006f          	j	8000352c <_Z11DoBlendModejjN7cocogfx9ColorARGBES0_S0_S0_+0x588>
80003508:	00f5c613          	xori	a2,a1,15
8000350c:	00c03633          	snez	a2,a2
80003510:	0016000b          	0x16000b
80003514:	06a59863          	bne	a1,a0,80003584 <_Z11DoBlendModejjN7cocogfx9ColorARGBES0_S0_S0_+0x5e0>
80003518:	fff00593          	li	a1,-1
8000351c:	0100006f          	j	8000352c <_Z11DoBlendModejjN7cocogfx9ColorARGBES0_S0_S0_+0x588>
80003520:	00b03533          	snez	a0,a1
80003524:	0015000b          	0x15000b
80003528:	04059e63          	bnez	a1,80003584 <_Z11DoBlendModejjN7cocogfx9ColorARGBES0_S0_S0_+0x5e0>
8000352c:	0085d813          	srli	a6,a1,0x8
80003530:	0105d293          	srli	t0,a1,0x10
80003534:	0185d893          	srli	a7,a1,0x18
80003538:	01889513          	slli	a0,a7,0x18
8000353c:	01029613          	slli	a2,t0,0x10
80003540:	00ff06b7          	lui	a3,0xff0
80003544:	00d67633          	and	a2,a2,a3
80003548:	00881693          	slli	a3,a6,0x8
8000354c:	00010737          	lui	a4,0x10
80003550:	f0070713          	addi	a4,a4,-256 # ff00 <reg_t6+0xfee1>
80003554:	00e6f6b3          	and	a3,a3,a4
80003558:	0ff5f593          	andi	a1,a1,255
8000355c:	00b6e5b3          	or	a1,a3,a1
80003560:	00c5e5b3          	or	a1,a1,a2
80003564:	00a5e533          	or	a0,a1,a0
80003568:	00c12983          	lw	s3,12(sp)
8000356c:	01012903          	lw	s2,16(sp)
80003570:	01412483          	lw	s1,20(sp)
80003574:	01812403          	lw	s0,24(sp)
80003578:	01c12083          	lw	ra,28(sp)
8000357c:	02010113          	addi	sp,sp,32
80003580:	00008067          	ret
80003584:	1fc010ef          	jal	ra,80004780 <abort>

80003588 <_ZN10Rasterizer6renderEj>:
80003588:	f6010113          	addi	sp,sp,-160
8000358c:	08112e23          	sw	ra,156(sp)
80003590:	08812c23          	sw	s0,152(sp)
80003594:	08912a23          	sw	s1,148(sp)
80003598:	09212823          	sw	s2,144(sp)
8000359c:	09312623          	sw	s3,140(sp)
800035a0:	09412423          	sw	s4,136(sp)
800035a4:	09512223          	sw	s5,132(sp)
800035a8:	09612023          	sw	s6,128(sp)
800035ac:	07712e23          	sw	s7,124(sp)
800035b0:	07812c23          	sw	s8,120(sp)
800035b4:	07912a23          	sw	s9,116(sp)
800035b8:	07a12823          	sw	s10,112(sp)
800035bc:	07b12623          	sw	s11,108(sp)
800035c0:	00050a13          	mv	s4,a0
800035c4:	00c52503          	lw	a0,12(a0)
800035c8:	00153613          	seqz	a2,a0
800035cc:	0006200b          	0x6200b
800035d0:	2a050863          	beqz	a0,80003880 <_ZN10Rasterizer6renderEj+0x2f8>
800035d4:	00058b13          	mv	s6,a1
800035d8:	00000993          	li	s3,0
800035dc:	010a2c03          	lw	s8,16(s4)
800035e0:	cc4025f3          	csrr	a1,0xcc4
800035e4:	00b12a23          	sw	a1,20(sp)
800035e8:	000105b7          	lui	a1,0x10
800035ec:	fff58a93          	addi	s5,a1,-1 # ffff <reg_t6+0xffe0>
800035f0:	fff00d13          	li	s10,-1
800035f4:	04810b93          	addi	s7,sp,72
800035f8:	01810913          	addi	s2,sp,24
800035fc:	0200006f          	j	8000361c <_ZN10Rasterizer6renderEj+0x94>
80003600:	000c800b          	0xc800b
80003604:	00ca2503          	lw	a0,12(s4)
80003608:	0000300b          	0x300b
8000360c:	00198993          	addi	s3,s3,1
80003610:	00a9b5b3          	sltu	a1,s3,a0
80003614:	0015800b          	0x15800b
80003618:	26a9f063          	bgeu	s3,a0,80003878 <_ZN10Rasterizer6renderEj+0x2f0>
8000361c:	000c2603          	lw	a2,0(s8)
80003620:	004a2683          	lw	a3,4(s4)
80003624:	004c2583          	lw	a1,4(s8)
80003628:	01567733          	and	a4,a2,s5
8000362c:	00d717b3          	sll	a5,a4,a3
80003630:	02fa2223          	sw	a5,36(s4)
80003634:	01065613          	srli	a2,a2,0x10
80003638:	00d61833          	sll	a6,a2,a3
8000363c:	030a2423          	sw	a6,40(s4)
80003640:	0015b613          	seqz	a2,a1
80003644:	0006200b          	0x6200b
80003648:	22058463          	beqz	a1,80003870 <_ZN10Rasterizer6renderEj+0x2e8>
8000364c:	00cc0513          	addi	a0,s8,12
80003650:	fff58d93          	addi	s11,a1,-1
80003654:	cc402cf3          	csrr	s9,0xcc4
80003658:	0140006f          	j	8000366c <_ZN10Rasterizer6renderEj+0xe4>
8000365c:	0000300b          	0x300b
80003660:	0015c593          	xori	a1,a1,1
80003664:	0015800b          	0x15800b
80003668:	f8058ce3          	beqz	a1,80003600 <_ZN10Rasterizer6renderEj+0x78>
8000366c:	00050c13          	mv	s8,a0
80003670:	ffc52603          	lw	a2,-4(a0)
80003674:	018a2503          	lw	a0,24(s4)
80003678:	014a2583          	lw	a1,20(s4)
8000367c:	02c50533          	mul	a0,a0,a2
80003680:	00b504b3          	add	s1,a0,a1
80003684:	0004a683          	lw	a3,0(s1)
80003688:	00d12c23          	sw	a3,24(sp)
8000368c:	0044ae83          	lw	t4,4(s1)
80003690:	01d12e23          	sw	t4,28(sp)
80003694:	0084a883          	lw	a7,8(s1)
80003698:	03112023          	sw	a7,32(sp)
8000369c:	00c4a403          	lw	s0,12(s1)
800036a0:	02812223          	sw	s0,36(sp)
800036a4:	0104a503          	lw	a0,16(s1)
800036a8:	02a12423          	sw	a0,40(sp)
800036ac:	0144a283          	lw	t0,20(s1)
800036b0:	02512623          	sw	t0,44(sp)
800036b4:	0184a583          	lw	a1,24(s1)
800036b8:	02b12823          	sw	a1,48(sp)
800036bc:	01c4ae03          	lw	t3,28(s1)
800036c0:	03c12a23          	sw	t3,52(sp)
800036c4:	0204a303          	lw	t1,32(s1)
800036c8:	02612c23          	sw	t1,56(sp)
800036cc:	04012423          	sw	zero,72(sp)
800036d0:	04012623          	sw	zero,76(sp)
800036d4:	04d12823          	sw	a3,80(sp)
800036d8:	04012a23          	sw	zero,84(sp)
800036dc:	04012c23          	sw	zero,88(sp)
800036e0:	05d12e23          	sw	t4,92(sp)
800036e4:	06d12023          	sw	a3,96(sp)
800036e8:	07d12223          	sw	t4,100(sp)
800036ec:	00300393          	li	t2,3
800036f0:	00300493          	li	s1,3
800036f4:	00dd4463          	blt	s10,a3,800036fc <_ZN10Rasterizer6renderEj+0x174>
800036f8:	00200493          	li	s1,2
800036fc:	01dd4663          	blt	s10,t4,80003708 <_ZN10Rasterizer6renderEj+0x180>
80003700:	fff6c493          	not	s1,a3
80003704:	01f4d493          	srli	s1,s1,0x1f
80003708:	00349493          	slli	s1,s1,0x3
8000370c:	009b84b3          	add	s1,s7,s1
80003710:	0004a703          	lw	a4,0(s1)
80003714:	0044e493          	ori	s1,s1,4
80003718:	0004a483          	lw	s1,0(s1)
8000371c:	00e48733          	add	a4,s1,a4
80003720:	02e12e23          	sw	a4,60(sp)
80003724:	04012423          	sw	zero,72(sp)
80003728:	04012623          	sw	zero,76(sp)
8000372c:	04812823          	sw	s0,80(sp)
80003730:	04012a23          	sw	zero,84(sp)
80003734:	04012c23          	sw	zero,88(sp)
80003738:	04a12e23          	sw	a0,92(sp)
8000373c:	06812023          	sw	s0,96(sp)
80003740:	06a12223          	sw	a0,100(sp)
80003744:	00300493          	li	s1,3
80003748:	008d4463          	blt	s10,s0,80003750 <_ZN10Rasterizer6renderEj+0x1c8>
8000374c:	00200493          	li	s1,2
80003750:	00ad4663          	blt	s10,a0,8000375c <_ZN10Rasterizer6renderEj+0x1d4>
80003754:	fff44713          	not	a4,s0
80003758:	01f75493          	srli	s1,a4,0x1f
8000375c:	00349713          	slli	a4,s1,0x3
80003760:	00eb8733          	add	a4,s7,a4
80003764:	00072483          	lw	s1,0(a4)
80003768:	00476713          	ori	a4,a4,4
8000376c:	00072703          	lw	a4,0(a4)
80003770:	00970733          	add	a4,a4,s1
80003774:	04e12023          	sw	a4,64(sp)
80003778:	04012423          	sw	zero,72(sp)
8000377c:	04012623          	sw	zero,76(sp)
80003780:	04b12823          	sw	a1,80(sp)
80003784:	04012a23          	sw	zero,84(sp)
80003788:	04012c23          	sw	zero,88(sp)
8000378c:	05c12e23          	sw	t3,92(sp)
80003790:	06b12023          	sw	a1,96(sp)
80003794:	07c12223          	sw	t3,100(sp)
80003798:	00bd4463          	blt	s10,a1,800037a0 <_ZN10Rasterizer6renderEj+0x218>
8000379c:	00200393          	li	t2,2
800037a0:	01cd4663          	blt	s10,t3,800037ac <_ZN10Rasterizer6renderEj+0x224>
800037a4:	fff5c713          	not	a4,a1
800037a8:	01f75393          	srli	t2,a4,0x1f
800037ac:	00339713          	slli	a4,t2,0x3
800037b0:	00eb8733          	add	a4,s7,a4
800037b4:	00072483          	lw	s1,0(a4)
800037b8:	00476713          	ori	a4,a4,4
800037bc:	00072703          	lw	a4,0(a4)
800037c0:	00970733          	add	a4,a4,s1
800037c4:	04e12223          	sw	a4,68(sp)
800037c8:	02f686b3          	mul	a3,a3,a5
800037cc:	030e8733          	mul	a4,t4,a6
800037d0:	00d706b3          	add	a3,a4,a3
800037d4:	011688b3          	add	a7,a3,a7
800037d8:	02f404b3          	mul	s1,s0,a5
800037dc:	03050533          	mul	a0,a0,a6
800037e0:	004a2683          	lw	a3,4(s4)
800037e4:	008a2703          	lw	a4,8(s4)
800037e8:	00950533          	add	a0,a0,s1
800037ec:	00550533          	add	a0,a0,t0
800037f0:	02f585b3          	mul	a1,a1,a5
800037f4:	00d734b3          	sltu	s1,a4,a3
800037f8:	0004a00b          	0x4a00b
800037fc:	030e04b3          	mul	s1,t3,a6
80003800:	00b485b3          	add	a1,s1,a1
80003804:	006585b3          	add	a1,a1,t1
80003808:	02d77063          	bgeu	a4,a3,80003828 <_ZN10Rasterizer6renderEj+0x2a0>
8000380c:	00b12223          	sw	a1,4(sp)
80003810:	00a12023          	sw	a0,0(sp)
80003814:	000a0513          	mv	a0,s4
80003818:	000b0593          	mv	a1,s6
8000381c:	00090713          	mv	a4,s2
80003820:	0a0000ef          	jal	ra,800038c0 <_ZN10Rasterizer10renderTileEjjjRKNS_11primitive_tEjjN7cocogfx6TFixedILj16EiEES5_S5_>
80003824:	0200006f          	j	80003844 <_ZN10Rasterizer6renderEj+0x2bc>
80003828:	00b12223          	sw	a1,4(sp)
8000382c:	00a12023          	sw	a0,0(sp)
80003830:	000a0513          	mv	a0,s4
80003834:	000b0593          	mv	a1,s6
80003838:	00070693          	mv	a3,a4
8000383c:	00090713          	mv	a4,s2
80003840:	3ac000ef          	jal	ra,80003bec <_ZN10Rasterizer11renderBlockEjjjRKNS_11primitive_tEjjN7cocogfx6TFixedILj16EiEES5_S5_>
80003844:	0000300b          	0x300b
80003848:	01b03533          	snez	a0,s11
8000384c:	0005200b          	0x5200b
80003850:	00100593          	li	a1,1
80003854:	e00d84e3          	beqz	s11,8000365c <_ZN10Rasterizer6renderEj+0xd4>
80003858:	024a2783          	lw	a5,36(s4)
8000385c:	028a2803          	lw	a6,40(s4)
80003860:	00000593          	li	a1,0
80003864:	004c0513          	addi	a0,s8,4
80003868:	fffd8d93          	addi	s11,s11,-1
8000386c:	df1ff06f          	j	8000365c <_ZN10Rasterizer6renderEj+0xd4>
80003870:	008c0c13          	addi	s8,s8,8
80003874:	d95ff06f          	j	80003608 <_ZN10Rasterizer6renderEj+0x80>
80003878:	01412503          	lw	a0,20(sp)
8000387c:	0005000b          	0x5000b
80003880:	0000300b          	0x300b
80003884:	06c12d83          	lw	s11,108(sp)
80003888:	07012d03          	lw	s10,112(sp)
8000388c:	07412c83          	lw	s9,116(sp)
80003890:	07812c03          	lw	s8,120(sp)
80003894:	07c12b83          	lw	s7,124(sp)
80003898:	08012b03          	lw	s6,128(sp)
8000389c:	08412a83          	lw	s5,132(sp)
800038a0:	08812a03          	lw	s4,136(sp)
800038a4:	08c12983          	lw	s3,140(sp)
800038a8:	09012903          	lw	s2,144(sp)
800038ac:	09412483          	lw	s1,148(sp)
800038b0:	09812403          	lw	s0,152(sp)
800038b4:	09c12083          	lw	ra,156(sp)
800038b8:	0a010113          	addi	sp,sp,160
800038bc:	00008067          	ret

800038c0 <_ZN10Rasterizer10renderTileEjjjRKNS_11primitive_tEjjN7cocogfx6TFixedILj16EiEES5_S5_>:
800038c0:	fb010113          	addi	sp,sp,-80
800038c4:	04112623          	sw	ra,76(sp)
800038c8:	04812423          	sw	s0,72(sp)
800038cc:	04912223          	sw	s1,68(sp)
800038d0:	05212023          	sw	s2,64(sp)
800038d4:	03312e23          	sw	s3,60(sp)
800038d8:	03412c23          	sw	s4,56(sp)
800038dc:	03512a23          	sw	s5,52(sp)
800038e0:	03612823          	sw	s6,48(sp)
800038e4:	03712623          	sw	s7,44(sp)
800038e8:	03812423          	sw	s8,40(sp)
800038ec:	03912223          	sw	s9,36(sp)
800038f0:	03a12023          	sw	s10,32(sp)
800038f4:	01b12e23          	sw	s11,28(sp)
800038f8:	00070413          	mv	s0,a4
800038fc:	02472703          	lw	a4,36(a4)
80003900:	00068493          	mv	s1,a3
80003904:	00d716b3          	sll	a3,a4,a3
80003908:	011686b3          	add	a3,a3,a7
8000390c:	01f6d713          	srli	a4,a3,0x1f
80003910:	0007200b          	0x7200b
80003914:	00c12823          	sw	a2,16(sp)
80003918:	00b12623          	sw	a1,12(sp)
8000391c:	2806c863          	bltz	a3,80003bac <_ZN10Rasterizer10renderTileEjjjRKNS_11primitive_tEjjN7cocogfx6TFixedILj16EiEES5_S5_+0x2ec>
80003920:	00080b13          	mv	s6,a6
80003924:	00078913          	mv	s2,a5
80003928:	00050e13          	mv	t3,a0
8000392c:	05412503          	lw	a0,84(sp)
80003930:	05012603          	lw	a2,80(sp)
80003934:	cc4025f3          	csrr	a1,0xcc4
80003938:	00b12423          	sw	a1,8(sp)
8000393c:	fff00393          	li	t2,-1
80003940:	01c12c23          	sw	t3,24(sp)
80003944:	00c12983          	lw	s3,12(sp)
80003948:	01012a03          	lw	s4,16(sp)
8000394c:	01c0006f          	j	80003968 <_ZN10Rasterizer10renderTileEjjjRKNS_11primitive_tEjjN7cocogfx6TFixedILj16EiEES5_S5_+0xa8>
80003950:	00000593          	li	a1,0
80003954:	00100693          	li	a3,1
80003958:	0000300b          	0x300b
8000395c:	0016c713          	xori	a4,a3,1
80003960:	0017000b          	0x17000b
80003964:	1c069463          	bnez	a3,80003b2c <_ZN10Rasterizer10renderTileEjjjRKNS_11primitive_tEjjN7cocogfx6TFixedILj16EiEES5_S5_+0x26c>
80003968:	02842583          	lw	a1,40(s0)
8000396c:	00048d13          	mv	s10,s1
80003970:	00060c13          	mv	s8,a2
80003974:	009595b3          	sll	a1,a1,s1
80003978:	00c58633          	add	a2,a1,a2
8000397c:	fff64593          	not	a1,a2
80003980:	01f5d593          	srli	a1,a1,0x1f
80003984:	0005a00b          	0x5a00b
80003988:	00090a93          	mv	s5,s2
8000398c:	000b0b93          	mv	s7,s6
80003990:	00088d93          	mv	s11,a7
80003994:	00050c93          	mv	s9,a0
80003998:	fa064ce3          	bltz	a2,80003950 <_ZN10Rasterizer10renderTileEjjjRKNS_11primitive_tEjjN7cocogfx6TFixedILj16EiEES5_S5_+0x90>
8000399c:	02c42503          	lw	a0,44(s0)
800039a0:	01a51533          	sll	a0,a0,s10
800039a4:	01950533          	add	a0,a0,s9
800039a8:	00a3a5b3          	slt	a1,t2,a0
800039ac:	0005a00b          	0x5a00b
800039b0:	16a3d663          	bge	t2,a0,80003b1c <_ZN10Rasterizer10renderTileEjjjRKNS_11primitive_tEjjN7cocogfx6TFixedILj16EiEES5_S5_+0x25c>
800039b4:	008e2283          	lw	t0,8(t3)
800039b8:	01a2b533          	sltu	a0,t0,s10
800039bc:	0005200b          	0x5200b
800039c0:	00100593          	li	a1,1
800039c4:	00100693          	li	a3,1
800039c8:	15a2f463          	bgeu	t0,s10,80003b10 <_ZN10Rasterizer10renderTileEjjjRKNS_11primitive_tEjjN7cocogfx6TFixedILj16EiEES5_S5_+0x250>
800039cc:	fffd0493          	addi	s1,s10,-1
800039d0:	00100513          	li	a0,1
800039d4:	00951b33          	sll	s6,a0,s1
800039d8:	01912223          	sw	s9,4(sp)
800039dc:	01812023          	sw	s8,0(sp)
800039e0:	000e0513          	mv	a0,t3
800039e4:	00098593          	mv	a1,s3
800039e8:	000a0613          	mv	a2,s4
800039ec:	00048693          	mv	a3,s1
800039f0:	00040713          	mv	a4,s0
800039f4:	000a8793          	mv	a5,s5
800039f8:	00512a23          	sw	t0,20(sp)
800039fc:	000b8813          	mv	a6,s7
80003a00:	000d8893          	mv	a7,s11
80003a04:	ebdff0ef          	jal	ra,800038c0 <_ZN10Rasterizer10renderTileEjjjRKNS_11primitive_tEjjN7cocogfx6TFixedILj16EiEES5_S5_>
80003a08:	00042503          	lw	a0,0(s0)
80003a0c:	015b07b3          	add	a5,s6,s5
80003a10:	00c42583          	lw	a1,12(s0)
80003a14:	00951533          	sll	a0,a0,s1
80003a18:	01842603          	lw	a2,24(s0)
80003a1c:	01b508b3          	add	a7,a0,s11
80003a20:	00959533          	sll	a0,a1,s1
80003a24:	01850533          	add	a0,a0,s8
80003a28:	009615b3          	sll	a1,a2,s1
80003a2c:	019585b3          	add	a1,a1,s9
80003a30:	00b12223          	sw	a1,4(sp)
80003a34:	00a12023          	sw	a0,0(sp)
80003a38:	01812503          	lw	a0,24(sp)
80003a3c:	00098593          	mv	a1,s3
80003a40:	000a0613          	mv	a2,s4
80003a44:	00048693          	mv	a3,s1
80003a48:	00040713          	mv	a4,s0
80003a4c:	00078913          	mv	s2,a5
80003a50:	000b8813          	mv	a6,s7
80003a54:	e6dff0ef          	jal	ra,800038c0 <_ZN10Rasterizer10renderTileEjjjRKNS_11primitive_tEjjN7cocogfx6TFixedILj16EiEES5_S5_>
80003a58:	00442503          	lw	a0,4(s0)
80003a5c:	017b0b33          	add	s6,s6,s7
80003a60:	01042583          	lw	a1,16(s0)
80003a64:	00951533          	sll	a0,a0,s1
80003a68:	01c42603          	lw	a2,28(s0)
80003a6c:	01b508b3          	add	a7,a0,s11
80003a70:	00959533          	sll	a0,a1,s1
80003a74:	01850533          	add	a0,a0,s8
80003a78:	009615b3          	sll	a1,a2,s1
80003a7c:	019585b3          	add	a1,a1,s9
80003a80:	00b12223          	sw	a1,4(sp)
80003a84:	00a12023          	sw	a0,0(sp)
80003a88:	01812503          	lw	a0,24(sp)
80003a8c:	00098593          	mv	a1,s3
80003a90:	000a0613          	mv	a2,s4
80003a94:	00048693          	mv	a3,s1
80003a98:	00040713          	mv	a4,s0
80003a9c:	000a8793          	mv	a5,s5
80003aa0:	000b0813          	mv	a6,s6
80003aa4:	e1dff0ef          	jal	ra,800038c0 <_ZN10Rasterizer10renderTileEjjjRKNS_11primitive_tEjjN7cocogfx6TFixedILj16EiEES5_S5_>
80003aa8:	fff00393          	li	t2,-1
80003aac:	01412283          	lw	t0,20(sp)
80003ab0:	01812e03          	lw	t3,24(sp)
80003ab4:	00042503          	lw	a0,0(s0)
80003ab8:	00000593          	li	a1,0
80003abc:	00442603          	lw	a2,4(s0)
80003ac0:	00951533          	sll	a0,a0,s1
80003ac4:	01b50533          	add	a0,a0,s11
80003ac8:	00c42683          	lw	a3,12(s0)
80003acc:	00961633          	sll	a2,a2,s1
80003ad0:	00c508b3          	add	a7,a0,a2
80003ad4:	01042503          	lw	a0,16(s0)
80003ad8:	00969633          	sll	a2,a3,s1
80003adc:	01860633          	add	a2,a2,s8
80003ae0:	01842683          	lw	a3,24(s0)
80003ae4:	00951533          	sll	a0,a0,s1
80003ae8:	00a60633          	add	a2,a2,a0
80003aec:	01c42503          	lw	a0,28(s0)
80003af0:	009696b3          	sll	a3,a3,s1
80003af4:	02442703          	lw	a4,36(s0)
80003af8:	019686b3          	add	a3,a3,s9
80003afc:	00951533          	sll	a0,a0,s1
80003b00:	00a68533          	add	a0,a3,a0
80003b04:	009716b3          	sll	a3,a4,s1
80003b08:	011686b3          	add	a3,a3,a7
80003b0c:	01f6d693          	srli	a3,a3,0x1f
80003b10:	0000300b          	0x300b
80003b14:	0000300b          	0x300b
80003b18:	e41ff06f          	j	80003958 <_ZN10Rasterizer10renderTileEjjjRKNS_11primitive_tEjjN7cocogfx6TFixedILj16EiEES5_S5_+0x98>
80003b1c:	00000593          	li	a1,0
80003b20:	00100693          	li	a3,1
80003b24:	0000300b          	0x300b
80003b28:	e31ff06f          	j	80003958 <_ZN10Rasterizer10renderTileEjjjRKNS_11primitive_tEjjN7cocogfx6TFixedILj16EiEES5_S5_+0x98>
80003b2c:	00812503          	lw	a0,8(sp)
80003b30:	0005000b          	0x5000b
80003b34:	0005a00b          	0x5a00b
80003b38:	06058863          	beqz	a1,80003ba8 <_ZN10Rasterizer10renderTileEjjjRKNS_11primitive_tEjjN7cocogfx6TFixedILj16EiEES5_S5_+0x2e8>
80003b3c:	00100513          	li	a0,1
80003b40:	00553533          	sltu	a0,a0,t0
80003b44:	0005200b          	0x5200b
80003b48:	00200513          	li	a0,2
80003b4c:	02a2ea63          	bltu	t0,a0,80003b80 <_ZN10Rasterizer10renderTileEjjjRKNS_11primitive_tEjjN7cocogfx6TFixedILj16EiEES5_S5_+0x2c0>
80003b50:	01912223          	sw	s9,4(sp)
80003b54:	01812023          	sw	s8,0(sp)
80003b58:	000e0513          	mv	a0,t3
80003b5c:	00c12583          	lw	a1,12(sp)
80003b60:	01012603          	lw	a2,16(sp)
80003b64:	000d0693          	mv	a3,s10
80003b68:	00040713          	mv	a4,s0
80003b6c:	000a8793          	mv	a5,s5
80003b70:	000b8813          	mv	a6,s7
80003b74:	000d8893          	mv	a7,s11
80003b78:	074000ef          	jal	ra,80003bec <_ZN10Rasterizer11renderBlockEjjjRKNS_11primitive_tEjjN7cocogfx6TFixedILj16EiEES5_S5_>
80003b7c:	0280006f          	j	80003ba4 <_ZN10Rasterizer10renderTileEjjjRKNS_11primitive_tEjjN7cocogfx6TFixedILj16EiEES5_S5_+0x2e4>
80003b80:	000e0513          	mv	a0,t3
80003b84:	01012583          	lw	a1,16(sp)
80003b88:	00040613          	mv	a2,s0
80003b8c:	000a8693          	mv	a3,s5
80003b90:	000b8713          	mv	a4,s7
80003b94:	000d8793          	mv	a5,s11
80003b98:	000c0813          	mv	a6,s8
80003b9c:	000c8893          	mv	a7,s9
80003ba0:	368000ef          	jal	ra,80003f08 <_ZN10Rasterizer10renderQuadEjRKNS_11primitive_tEjjN7cocogfx6TFixedILj16EiEES5_S5_>
80003ba4:	0000300b          	0x300b
80003ba8:	0000300b          	0x300b
80003bac:	0000300b          	0x300b
80003bb0:	01c12d83          	lw	s11,28(sp)
80003bb4:	02012d03          	lw	s10,32(sp)
80003bb8:	02412c83          	lw	s9,36(sp)
80003bbc:	02812c03          	lw	s8,40(sp)
80003bc0:	02c12b83          	lw	s7,44(sp)
80003bc4:	03012b03          	lw	s6,48(sp)
80003bc8:	03412a83          	lw	s5,52(sp)
80003bcc:	03812a03          	lw	s4,56(sp)
80003bd0:	03c12983          	lw	s3,60(sp)
80003bd4:	04012903          	lw	s2,64(sp)
80003bd8:	04412483          	lw	s1,68(sp)
80003bdc:	04812403          	lw	s0,72(sp)
80003be0:	04c12083          	lw	ra,76(sp)
80003be4:	05010113          	addi	sp,sp,80
80003be8:	00008067          	ret

80003bec <_ZN10Rasterizer11renderBlockEjjjRKNS_11primitive_tEjjN7cocogfx6TFixedILj16EiEES5_S5_>:
80003bec:	fb010113          	addi	sp,sp,-80
80003bf0:	04112623          	sw	ra,76(sp)
80003bf4:	04812423          	sw	s0,72(sp)
80003bf8:	04912223          	sw	s1,68(sp)
80003bfc:	05212023          	sw	s2,64(sp)
80003c00:	03312e23          	sw	s3,60(sp)
80003c04:	03412c23          	sw	s4,56(sp)
80003c08:	03512a23          	sw	s5,52(sp)
80003c0c:	03612823          	sw	s6,48(sp)
80003c10:	03712623          	sw	s7,44(sp)
80003c14:	03812423          	sw	s8,40(sp)
80003c18:	03912223          	sw	s9,36(sp)
80003c1c:	03a12023          	sw	s10,32(sp)
80003c20:	01b12e23          	sw	s11,28(sp)
80003c24:	00050a13          	mv	s4,a0
80003c28:	00852503          	lw	a0,8(a0)
80003c2c:	02ca2483          	lw	s1,44(s4)
80003c30:	00078d13          	mv	s10,a5
80003c34:	00a85433          	srl	s0,a6,a0
80003c38:	030a2783          	lw	a5,48(s4)
80003c3c:	029404b3          	mul	s1,s0,s1
80003c40:	00ad5533          	srl	a0,s10,a0
80003c44:	00a48533          	add	a0,s1,a0
80003c48:	fff78793          	addi	a5,a5,-1
80003c4c:	00f57533          	and	a0,a0,a5
80003c50:	00b547b3          	xor	a5,a0,a1
80003c54:	0017b793          	seqz	a5,a5
80003c58:	0007a00b          	0x7a00b
80003c5c:	00c12a23          	sw	a2,20(sp)
80003c60:	26b51463          	bne	a0,a1,80003ec8 <_ZN10Rasterizer11renderBlockEjjjRKNS_11primitive_tEjjN7cocogfx6TFixedILj16EiEES5_S5_+0x2dc>
80003c64:	00080d93          	mv	s11,a6
80003c68:	00070493          	mv	s1,a4
80003c6c:	00068413          	mv	s0,a3
80003c70:	05412503          	lw	a0,84(sp)
80003c74:	05012783          	lw	a5,80(sp)
80003c78:	cc402673          	csrr	a2,0xcc4
80003c7c:	00c12823          	sw	a2,16(sp)
80003c80:	fff00913          	li	s2,-1
80003c84:	00b12c23          	sw	a1,24(sp)
80003c88:	01412983          	lw	s3,20(sp)
80003c8c:	0200006f          	j	80003cac <_ZN10Rasterizer11renderBlockEjjjRKNS_11primitive_tEjjN7cocogfx6TFixedILj16EiEES5_S5_+0xc0>
80003c90:	00000613          	li	a2,0
80003c94:	00100693          	li	a3,1
80003c98:	0000300b          	0x300b
80003c9c:	0000300b          	0x300b
80003ca0:	0016c713          	xori	a4,a3,1
80003ca4:	0017000b          	0x17000b
80003ca8:	1e069463          	bnez	a3,80003e90 <_ZN10Rasterizer11renderBlockEjjjRKNS_11primitive_tEjjN7cocogfx6TFixedILj16EiEES5_S5_+0x2a4>
80003cac:	0244a603          	lw	a2,36(s1)
80003cb0:	00088c93          	mv	s9,a7
80003cb4:	00861633          	sll	a2,a2,s0
80003cb8:	01160733          	add	a4,a2,a7
80003cbc:	fff74613          	not	a2,a4
80003cc0:	01f65613          	srli	a2,a2,0x1f
80003cc4:	0006200b          	0x6200b
80003cc8:	00000613          	li	a2,0
80003ccc:	000d0c13          	mv	s8,s10
80003cd0:	000d8b93          	mv	s7,s11
80003cd4:	00078b13          	mv	s6,a5
80003cd8:	00050a93          	mv	s5,a0
80003cdc:	00100693          	li	a3,1
80003ce0:	fa074ee3          	bltz	a4,80003c9c <_ZN10Rasterizer11renderBlockEjjjRKNS_11primitive_tEjjN7cocogfx6TFixedILj16EiEES5_S5_+0xb0>
80003ce4:	0284a503          	lw	a0,40(s1)
80003ce8:	00851533          	sll	a0,a0,s0
80003cec:	01650533          	add	a0,a0,s6
80003cf0:	00a92633          	slt	a2,s2,a0
80003cf4:	0006200b          	0x6200b
80003cf8:	f8a95ce3          	bge	s2,a0,80003c90 <_ZN10Rasterizer11renderBlockEjjjRKNS_11primitive_tEjjN7cocogfx6TFixedILj16EiEES5_S5_+0xa4>
80003cfc:	02c4a503          	lw	a0,44(s1)
80003d00:	00851533          	sll	a0,a0,s0
80003d04:	01550533          	add	a0,a0,s5
80003d08:	00a92633          	slt	a2,s2,a0
80003d0c:	0006200b          	0x6200b
80003d10:	16a95863          	bge	s2,a0,80003e80 <_ZN10Rasterizer11renderBlockEjjjRKNS_11primitive_tEjjN7cocogfx6TFixedILj16EiEES5_S5_+0x294>
80003d14:	00100613          	li	a2,1
80003d18:	00863533          	sltu	a0,a2,s0
80003d1c:	0005200b          	0x5200b
80003d20:	00100693          	li	a3,1
80003d24:	14867a63          	bgeu	a2,s0,80003e78 <_ZN10Rasterizer11renderBlockEjjjRKNS_11primitive_tEjjN7cocogfx6TFixedILj16EiEES5_S5_+0x28c>
80003d28:	fff40413          	addi	s0,s0,-1
80003d2c:	00100513          	li	a0,1
80003d30:	00851db3          	sll	s11,a0,s0
80003d34:	01512223          	sw	s5,4(sp)
80003d38:	01612023          	sw	s6,0(sp)
80003d3c:	000a0513          	mv	a0,s4
80003d40:	00098613          	mv	a2,s3
80003d44:	00040693          	mv	a3,s0
80003d48:	00048713          	mv	a4,s1
80003d4c:	000c0793          	mv	a5,s8
80003d50:	000b8813          	mv	a6,s7
80003d54:	000c8893          	mv	a7,s9
80003d58:	e95ff0ef          	jal	ra,80003bec <_ZN10Rasterizer11renderBlockEjjjRKNS_11primitive_tEjjN7cocogfx6TFixedILj16EiEES5_S5_>
80003d5c:	0004a503          	lw	a0,0(s1)
80003d60:	018d8d33          	add	s10,s11,s8
80003d64:	00c4a583          	lw	a1,12(s1)
80003d68:	00851533          	sll	a0,a0,s0
80003d6c:	0184a603          	lw	a2,24(s1)
80003d70:	019508b3          	add	a7,a0,s9
80003d74:	00859533          	sll	a0,a1,s0
80003d78:	01650533          	add	a0,a0,s6
80003d7c:	008615b3          	sll	a1,a2,s0
80003d80:	015585b3          	add	a1,a1,s5
80003d84:	00b12223          	sw	a1,4(sp)
80003d88:	00a12023          	sw	a0,0(sp)
80003d8c:	000a0513          	mv	a0,s4
80003d90:	01812583          	lw	a1,24(sp)
80003d94:	00098613          	mv	a2,s3
80003d98:	00040693          	mv	a3,s0
80003d9c:	00048713          	mv	a4,s1
80003da0:	000d0793          	mv	a5,s10
80003da4:	000b8813          	mv	a6,s7
80003da8:	e45ff0ef          	jal	ra,80003bec <_ZN10Rasterizer11renderBlockEjjjRKNS_11primitive_tEjjN7cocogfx6TFixedILj16EiEES5_S5_>
80003dac:	0044a503          	lw	a0,4(s1)
80003db0:	017d8db3          	add	s11,s11,s7
80003db4:	0104a583          	lw	a1,16(s1)
80003db8:	00851533          	sll	a0,a0,s0
80003dbc:	01c4a603          	lw	a2,28(s1)
80003dc0:	019508b3          	add	a7,a0,s9
80003dc4:	00859533          	sll	a0,a1,s0
80003dc8:	01650533          	add	a0,a0,s6
80003dcc:	008615b3          	sll	a1,a2,s0
80003dd0:	015585b3          	add	a1,a1,s5
80003dd4:	00b12223          	sw	a1,4(sp)
80003dd8:	00a12023          	sw	a0,0(sp)
80003ddc:	000a0513          	mv	a0,s4
80003de0:	01812583          	lw	a1,24(sp)
80003de4:	00098613          	mv	a2,s3
80003de8:	00040693          	mv	a3,s0
80003dec:	00048713          	mv	a4,s1
80003df0:	000c0793          	mv	a5,s8
80003df4:	000d8813          	mv	a6,s11
80003df8:	df5ff0ef          	jal	ra,80003bec <_ZN10Rasterizer11renderBlockEjjjRKNS_11primitive_tEjjN7cocogfx6TFixedILj16EiEES5_S5_>
80003dfc:	0004a503          	lw	a0,0(s1)
80003e00:	00000613          	li	a2,0
80003e04:	0044a583          	lw	a1,4(s1)
80003e08:	00851533          	sll	a0,a0,s0
80003e0c:	01950533          	add	a0,a0,s9
80003e10:	00c4a683          	lw	a3,12(s1)
80003e14:	008595b3          	sll	a1,a1,s0
80003e18:	00b508b3          	add	a7,a0,a1
80003e1c:	0104a503          	lw	a0,16(s1)
80003e20:	008695b3          	sll	a1,a3,s0
80003e24:	016585b3          	add	a1,a1,s6
80003e28:	0184a683          	lw	a3,24(s1)
80003e2c:	00851533          	sll	a0,a0,s0
80003e30:	00a587b3          	add	a5,a1,a0
80003e34:	01c4a503          	lw	a0,28(s1)
80003e38:	008696b3          	sll	a3,a3,s0
80003e3c:	015686b3          	add	a3,a3,s5
80003e40:	008a2703          	lw	a4,8(s4)
80003e44:	00851533          	sll	a0,a0,s0
80003e48:	02ca2583          	lw	a1,44(s4)
80003e4c:	00a68533          	add	a0,a3,a0
80003e50:	00edd6b3          	srl	a3,s11,a4
80003e54:	030a2803          	lw	a6,48(s4)
80003e58:	02b686b3          	mul	a3,a3,a1
80003e5c:	00ed5733          	srl	a4,s10,a4
80003e60:	00e686b3          	add	a3,a3,a4
80003e64:	fff80713          	addi	a4,a6,-1
80003e68:	01812583          	lw	a1,24(sp)
80003e6c:	00e6f6b3          	and	a3,a3,a4
80003e70:	00b6c6b3          	xor	a3,a3,a1
80003e74:	00d036b3          	snez	a3,a3
80003e78:	0000300b          	0x300b
80003e7c:	00c0006f          	j	80003e88 <_ZN10Rasterizer11renderBlockEjjjRKNS_11primitive_tEjjN7cocogfx6TFixedILj16EiEES5_S5_+0x29c>
80003e80:	00000613          	li	a2,0
80003e84:	00100693          	li	a3,1
80003e88:	0000300b          	0x300b
80003e8c:	e0dff06f          	j	80003c98 <_ZN10Rasterizer11renderBlockEjjjRKNS_11primitive_tEjjN7cocogfx6TFixedILj16EiEES5_S5_+0xac>
80003e90:	01012503          	lw	a0,16(sp)
80003e94:	0005000b          	0x5000b
80003e98:	0006200b          	0x6200b
80003e9c:	02060463          	beqz	a2,80003ec4 <_ZN10Rasterizer11renderBlockEjjjRKNS_11primitive_tEjjN7cocogfx6TFixedILj16EiEES5_S5_+0x2d8>
80003ea0:	000a0513          	mv	a0,s4
80003ea4:	01412583          	lw	a1,20(sp)
80003ea8:	00048613          	mv	a2,s1
80003eac:	000c0693          	mv	a3,s8
80003eb0:	000b8713          	mv	a4,s7
80003eb4:	000c8793          	mv	a5,s9
80003eb8:	000b0813          	mv	a6,s6
80003ebc:	000a8893          	mv	a7,s5
80003ec0:	048000ef          	jal	ra,80003f08 <_ZN10Rasterizer10renderQuadEjRKNS_11primitive_tEjjN7cocogfx6TFixedILj16EiEES5_S5_>
80003ec4:	0000300b          	0x300b
80003ec8:	0000300b          	0x300b
80003ecc:	01c12d83          	lw	s11,28(sp)
80003ed0:	02012d03          	lw	s10,32(sp)
80003ed4:	02412c83          	lw	s9,36(sp)
80003ed8:	02812c03          	lw	s8,40(sp)
80003edc:	02c12b83          	lw	s7,44(sp)
80003ee0:	03012b03          	lw	s6,48(sp)
80003ee4:	03412a83          	lw	s5,52(sp)
80003ee8:	03812a03          	lw	s4,56(sp)
80003eec:	03c12983          	lw	s3,60(sp)
80003ef0:	04012903          	lw	s2,64(sp)
80003ef4:	04412483          	lw	s1,68(sp)
80003ef8:	04812403          	lw	s0,72(sp)
80003efc:	04c12083          	lw	ra,76(sp)
80003f00:	05010113          	addi	sp,sp,80
80003f04:	00008067          	ret

80003f08 <_ZN10Rasterizer10renderQuadEjRKNS_11primitive_tEjjN7cocogfx6TFixedILj16EiEES5_S5_>:
80003f08:	fb010113          	addi	sp,sp,-80
80003f0c:	04112623          	sw	ra,76(sp)
80003f10:	04812423          	sw	s0,72(sp)
80003f14:	04912223          	sw	s1,68(sp)
80003f18:	05212023          	sw	s2,64(sp)
80003f1c:	03312e23          	sw	s3,60(sp)
80003f20:	03412c23          	sw	s4,56(sp)
80003f24:	00062383          	lw	t2,0(a2)
80003f28:	00c62e03          	lw	t3,12(a2)
80003f2c:	01862e83          	lw	t4,24(a2)
80003f30:	00462f03          	lw	t5,4(a2)
80003f34:	01062f83          	lw	t6,16(a2)
80003f38:	01c62903          	lw	s2,28(a2)
80003f3c:	00f86633          	or	a2,a6,a5
80003f40:	01166633          	or	a2,a2,a7
80003f44:	fff64493          	not	s1,a2
80003f48:	01f4d493          	srli	s1,s1,0x1f
80003f4c:	0004a00b          	0x4a00b
80003f50:	00058293          	mv	t0,a1
80003f54:	02064c63          	bltz	a2,80003f8c <_ZN10Rasterizer10renderQuadEjRKNS_11primitive_tEjjN7cocogfx6TFixedILj16EiEES5_S5_+0x84>
80003f58:	01c52583          	lw	a1,28(a0)
80003f5c:	00b6b633          	sltu	a2,a3,a1
80003f60:	0006200b          	0x6200b
80003f64:	02b6f863          	bgeu	a3,a1,80003f94 <_ZN10Rasterizer10renderQuadEjRKNS_11primitive_tEjjN7cocogfx6TFixedILj16EiEES5_S5_+0x8c>
80003f68:	02052583          	lw	a1,32(a0)
80003f6c:	00b73633          	sltu	a2,a4,a1
80003f70:	0006200b          	0x6200b
80003f74:	02b77463          	bgeu	a4,a1,80003f9c <_ZN10Rasterizer10renderQuadEjRKNS_11primitive_tEjjN7cocogfx6TFixedILj16EiEES5_S5_+0x94>
80003f78:	00f12423          	sw	a5,8(sp)
80003f7c:	01012623          	sw	a6,12(sp)
80003f80:	01112823          	sw	a7,16(sp)
80003f84:	00100313          	li	t1,1
80003f88:	0180006f          	j	80003fa0 <_ZN10Rasterizer10renderQuadEjRKNS_11primitive_tEjjN7cocogfx6TFixedILj16EiEES5_S5_+0x98>
80003f8c:	00000313          	li	t1,0
80003f90:	0180006f          	j	80003fa8 <_ZN10Rasterizer10renderQuadEjRKNS_11primitive_tEjjN7cocogfx6TFixedILj16EiEES5_S5_+0xa0>
80003f94:	00000313          	li	t1,0
80003f98:	00c0006f          	j	80003fa4 <_ZN10Rasterizer10renderQuadEjRKNS_11primitive_tEjjN7cocogfx6TFixedILj16EiEES5_S5_+0x9c>
80003f9c:	00000313          	li	t1,0
80003fa0:	0000300b          	0x300b
80003fa4:	0000300b          	0x300b
80003fa8:	0000300b          	0x300b
80003fac:	00f389b3          	add	s3,t2,a5
80003fb0:	010e0a33          	add	s4,t3,a6
80003fb4:	011e84b3          	add	s1,t4,a7
80003fb8:	013a6433          	or	s0,s4,s3
80003fbc:	00946433          	or	s0,s0,s1
80003fc0:	fff00593          	li	a1,-1
80003fc4:	0085a633          	slt	a2,a1,s0
80003fc8:	0006200b          	0x6200b
80003fcc:	0485d063          	bge	a1,s0,8000400c <_ZN10Rasterizer10renderQuadEjRKNS_11primitive_tEjjN7cocogfx6TFixedILj16EiEES5_S5_+0x104>
80003fd0:	01c52583          	lw	a1,28(a0)
80003fd4:	00168613          	addi	a2,a3,1 # ff0001 <reg_t6+0xfeffe2>
80003fd8:	00b63433          	sltu	s0,a2,a1
80003fdc:	0004200b          	0x4200b
80003fe0:	02b67463          	bgeu	a2,a1,80004008 <_ZN10Rasterizer10renderQuadEjRKNS_11primitive_tEjjN7cocogfx6TFixedILj16EiEES5_S5_+0x100>
80003fe4:	02052583          	lw	a1,32(a0)
80003fe8:	00b73633          	sltu	a2,a4,a1
80003fec:	0006200b          	0x6200b
80003ff0:	00b77a63          	bgeu	a4,a1,80004004 <_ZN10Rasterizer10renderQuadEjRKNS_11primitive_tEjjN7cocogfx6TFixedILj16EiEES5_S5_+0xfc>
80003ff4:	00236313          	ori	t1,t1,2
80003ff8:	01312a23          	sw	s3,20(sp)
80003ffc:	01412c23          	sw	s4,24(sp)
80004000:	00912e23          	sw	s1,28(sp)
80004004:	0000300b          	0x300b
80004008:	0000300b          	0x300b
8000400c:	0000300b          	0x300b
80004010:	00ff07b3          	add	a5,t5,a5
80004014:	010f8633          	add	a2,t6,a6
80004018:	01190433          	add	s0,s2,a7
8000401c:	00f665b3          	or	a1,a2,a5
80004020:	0085e4b3          	or	s1,a1,s0
80004024:	fff4c593          	not	a1,s1
80004028:	01f5d593          	srli	a1,a1,0x1f
8000402c:	0005a00b          	0x5a00b
80004030:	00170813          	addi	a6,a4,1
80004034:	0204ce63          	bltz	s1,80004070 <_ZN10Rasterizer10renderQuadEjRKNS_11primitive_tEjjN7cocogfx6TFixedILj16EiEES5_S5_+0x168>
80004038:	01c52483          	lw	s1,28(a0)
8000403c:	0096b5b3          	sltu	a1,a3,s1
80004040:	0005a00b          	0x5a00b
80004044:	0296f463          	bgeu	a3,s1,8000406c <_ZN10Rasterizer10renderQuadEjRKNS_11primitive_tEjjN7cocogfx6TFixedILj16EiEES5_S5_+0x164>
80004048:	02052583          	lw	a1,32(a0)
8000404c:	00b834b3          	sltu	s1,a6,a1
80004050:	0004a00b          	0x4a00b
80004054:	00b87a63          	bgeu	a6,a1,80004068 <_ZN10Rasterizer10renderQuadEjRKNS_11primitive_tEjjN7cocogfx6TFixedILj16EiEES5_S5_+0x160>
80004058:	00436313          	ori	t1,t1,4
8000405c:	02f12023          	sw	a5,32(sp)
80004060:	02c12223          	sw	a2,36(sp)
80004064:	02812423          	sw	s0,40(sp)
80004068:	0000300b          	0x300b
8000406c:	0000300b          	0x300b
80004070:	0000300b          	0x300b
80004074:	00f387b3          	add	a5,t2,a5
80004078:	00ce08b3          	add	a7,t3,a2
8000407c:	008e8433          	add	s0,t4,s0
80004080:	00f8e5b3          	or	a1,a7,a5
80004084:	0085e5b3          	or	a1,a1,s0
80004088:	fff5c493          	not	s1,a1
8000408c:	01f4d493          	srli	s1,s1,0x1f
80004090:	0004a00b          	0x4a00b
80004094:	0205ce63          	bltz	a1,800040d0 <_ZN10Rasterizer10renderQuadEjRKNS_11primitive_tEjjN7cocogfx6TFixedILj16EiEES5_S5_+0x1c8>
80004098:	01c52583          	lw	a1,28(a0)
8000409c:	00168493          	addi	s1,a3,1
800040a0:	00b4b633          	sltu	a2,s1,a1
800040a4:	0006200b          	0x6200b
800040a8:	02b4f463          	bgeu	s1,a1,800040d0 <_ZN10Rasterizer10renderQuadEjRKNS_11primitive_tEjjN7cocogfx6TFixedILj16EiEES5_S5_+0x1c8>
800040ac:	02052583          	lw	a1,32(a0)
800040b0:	00b83633          	sltu	a2,a6,a1
800040b4:	0006200b          	0x6200b
800040b8:	00b87c63          	bgeu	a6,a1,800040d0 <_ZN10Rasterizer10renderQuadEjRKNS_11primitive_tEjjN7cocogfx6TFixedILj16EiEES5_S5_+0x1c8>
800040bc:	00836313          	ori	t1,t1,8
800040c0:	02f12623          	sw	a5,44(sp)
800040c4:	03112823          	sw	a7,48(sp)
800040c8:	02812a23          	sw	s0,52(sp)
800040cc:	0100006f          	j	800040dc <_ZN10Rasterizer10renderQuadEjRKNS_11primitive_tEjjN7cocogfx6TFixedILj16EiEES5_S5_+0x1d4>
800040d0:	00133593          	seqz	a1,t1
800040d4:	0005a00b          	0x5a00b
800040d8:	02030063          	beqz	t1,800040f8 <_ZN10Rasterizer10renderQuadEjRKNS_11primitive_tEjjN7cocogfx6TFixedILj16EiEES5_S5_+0x1f0>
800040dc:	00052503          	lw	a0,0(a0)
800040e0:	00175613          	srli	a2,a4,0x1
800040e4:	0016d593          	srli	a1,a3,0x1
800040e8:	00810713          	addi	a4,sp,8
800040ec:	00030693          	mv	a3,t1
800040f0:	00028793          	mv	a5,t0
800040f4:	9a8fd0ef          	jal	ra,8000129c <_Z26shader_function_sw_rast_cbP12kernel_arg_tjjjPKN7cocogfx8TVector3INS1_6TFixedILj16EiEEEEj>
800040f8:	0000300b          	0x300b
800040fc:	0000300b          	0x300b
80004100:	0000300b          	0x300b
80004104:	0000300b          	0x300b
80004108:	03812a03          	lw	s4,56(sp)
8000410c:	03c12983          	lw	s3,60(sp)
80004110:	04012903          	lw	s2,64(sp)
80004114:	04412483          	lw	s1,68(sp)
80004118:	04812403          	lw	s0,72(sp)
8000411c:	04c12083          	lw	ra,76(sp)
80004120:	05010113          	addi	sp,sp,80
80004124:	00008067          	ret

80004128 <_exit>:
80004128:	00050413          	mv	s0,a0
8000412c:	440000ef          	jal	ra,8000456c <vx_perf_dump>
80004130:	00040193          	mv	gp,s0
80004134:	00000513          	li	a0,0
80004138:	0005000b          	0x5000b

8000413c <init_regs>:
8000413c:	fff00513          	li	a0,-1
80004140:	0005000b          	0x5000b
80004144:	00002197          	auipc	gp,0x2
80004148:	6c418193          	addi	gp,gp,1732 # 80006808 <__global_pointer>
8000414c:	ff000137          	lui	sp,0xff000
80004150:	cc202573          	csrr	a0,0xcc2
80004154:	00d51593          	slli	a1,a0,0xd
80004158:	40b10133          	sub	sp,sp,a1
8000415c:	00000593          	li	a1,0
80004160:	02b50533          	mul	a0,a0,a1
80004164:	00002217          	auipc	tp,0x2
80004168:	7f320213          	addi	tp,tp,2035 # 80006957 <__BSS_END__+0x3f>
8000416c:	00a20233          	add	tp,tp,a0
80004170:	fc027213          	andi	tp,tp,-64
80004174:	cc302573          	csrr	a0,0xcc3
80004178:	00050663          	beqz	a0,80004184 <RETURN>
8000417c:	00000513          	li	a0,0
80004180:	0005000b          	0x5000b

80004184 <RETURN>:
80004184:	00008067          	ret

80004188 <_sbrk>:
80004188:	00100073          	ebreak
8000418c:	00000513          	li	a0,0
80004190:	00008067          	ret

80004194 <_kill>:
80004194:	fff00513          	li	a0,-1
80004198:	00008067          	ret

8000419c <_getpid>:
8000419c:	f1402573          	csrr	a0,mhartid
800041a0:	00008067          	ret

800041a4 <__init_tls>:
800041a4:	ff010113          	addi	sp,sp,-16 # fefffff0 <__BSS_END__+0x7eff96d8>
800041a8:	00112623          	sw	ra,12(sp)
800041ac:	00812423          	sw	s0,8(sp)
800041b0:	fff00793          	li	a5,-1
800041b4:	0007800b          	0x7800b
800041b8:	00000613          	li	a2,0
800041bc:	00020513          	mv	a0,tp
800041c0:	00002597          	auipc	a1,0x2
800041c4:	e4058593          	addi	a1,a1,-448 # 80006000 <__init_array_start>
800041c8:	00020413          	mv	s0,tp
800041cc:	614000ef          	jal	ra,800047e0 <memcpy>
800041d0:	00000513          	li	a0,0
800041d4:	00000613          	li	a2,0
800041d8:	00000593          	li	a1,0
800041dc:	00a40533          	add	a0,s0,a0
800041e0:	71c000ef          	jal	ra,800048fc <memset>
800041e4:	cc3027f3          	csrr	a5,0xcc3
800041e8:	0017b793          	seqz	a5,a5
800041ec:	0007800b          	0x7800b
800041f0:	00c12083          	lw	ra,12(sp)
800041f4:	00812403          	lw	s0,8(sp)
800041f8:	01010113          	addi	sp,sp,16
800041fc:	00008067          	ret

80004200 <__libc_init_array>:
80004200:	ff010113          	addi	sp,sp,-16
80004204:	00812423          	sw	s0,8(sp)
80004208:	01212023          	sw	s2,0(sp)
8000420c:	00002417          	auipc	s0,0x2
80004210:	df440413          	addi	s0,s0,-524 # 80006000 <__init_array_start>
80004214:	00002917          	auipc	s2,0x2
80004218:	dec90913          	addi	s2,s2,-532 # 80006000 <__init_array_start>
8000421c:	40890933          	sub	s2,s2,s0
80004220:	00112623          	sw	ra,12(sp)
80004224:	00912223          	sw	s1,4(sp)
80004228:	40295913          	srai	s2,s2,0x2
8000422c:	00090e63          	beqz	s2,80004248 <__libc_init_array+0x48>
80004230:	00000493          	li	s1,0
80004234:	00042783          	lw	a5,0(s0)
80004238:	00148493          	addi	s1,s1,1
8000423c:	00440413          	addi	s0,s0,4
80004240:	000780e7          	jalr	a5
80004244:	fe9918e3          	bne	s2,s1,80004234 <__libc_init_array+0x34>
80004248:	00002417          	auipc	s0,0x2
8000424c:	db840413          	addi	s0,s0,-584 # 80006000 <__init_array_start>
80004250:	00002917          	auipc	s2,0x2
80004254:	db490913          	addi	s2,s2,-588 # 80006004 <__fini_array_end>
80004258:	40890933          	sub	s2,s2,s0
8000425c:	40295913          	srai	s2,s2,0x2
80004260:	00090e63          	beqz	s2,8000427c <__libc_init_array+0x7c>
80004264:	00000493          	li	s1,0
80004268:	00042783          	lw	a5,0(s0)
8000426c:	00148493          	addi	s1,s1,1
80004270:	00440413          	addi	s0,s0,4
80004274:	000780e7          	jalr	a5
80004278:	fe9918e3          	bne	s2,s1,80004268 <__libc_init_array+0x68>
8000427c:	00c12083          	lw	ra,12(sp)
80004280:	00812403          	lw	s0,8(sp)
80004284:	00412483          	lw	s1,4(sp)
80004288:	00012903          	lw	s2,0(sp)
8000428c:	01010113          	addi	sp,sp,16
80004290:	00008067          	ret

80004294 <__libc_fini_array>:
80004294:	ff010113          	addi	sp,sp,-16
80004298:	00812423          	sw	s0,8(sp)
8000429c:	00002797          	auipc	a5,0x2
800042a0:	d6878793          	addi	a5,a5,-664 # 80006004 <__fini_array_end>
800042a4:	00002417          	auipc	s0,0x2
800042a8:	d6040413          	addi	s0,s0,-672 # 80006004 <__fini_array_end>
800042ac:	408787b3          	sub	a5,a5,s0
800042b0:	00912223          	sw	s1,4(sp)
800042b4:	00112623          	sw	ra,12(sp)
800042b8:	4027d493          	srai	s1,a5,0x2
800042bc:	02048063          	beqz	s1,800042dc <__libc_fini_array+0x48>
800042c0:	ffc78793          	addi	a5,a5,-4
800042c4:	00878433          	add	s0,a5,s0
800042c8:	00042783          	lw	a5,0(s0)
800042cc:	fff48493          	addi	s1,s1,-1
800042d0:	ffc40413          	addi	s0,s0,-4
800042d4:	000780e7          	jalr	a5
800042d8:	fe0498e3          	bnez	s1,800042c8 <__libc_fini_array+0x34>
800042dc:	00c12083          	lw	ra,12(sp)
800042e0:	00812403          	lw	s0,8(sp)
800042e4:	00412483          	lw	s1,4(sp)
800042e8:	01010113          	addi	sp,sp,16
800042ec:	00008067          	ret

800042f0 <spawn_tasks_all_stub>:
800042f0:	fe010113          	addi	sp,sp,-32
800042f4:	00112e23          	sw	ra,28(sp)
800042f8:	00812c23          	sw	s0,24(sp)
800042fc:	00912a23          	sw	s1,20(sp)
80004300:	01212823          	sw	s2,16(sp)
80004304:	01312623          	sw	s3,12(sp)
80004308:	01412423          	sw	s4,8(sp)
8000430c:	cc5027f3          	csrr	a5,0xcc5
80004310:	cc302773          	csrr	a4,0xcc3
80004314:	cc0026f3          	csrr	a3,0xcc0
80004318:	fc0025f3          	csrr	a1,0xfc0
8000431c:	00279613          	slli	a2,a5,0x2
80004320:	00002797          	auipc	a5,0x2
80004324:	57478793          	addi	a5,a5,1396 # 80006894 <g_wspawn_args>
80004328:	00c787b3          	add	a5,a5,a2
8000432c:	0007aa03          	lw	s4,0(a5)
80004330:	010a2403          	lw	s0,16(s4)
80004334:	00ca2603          	lw	a2,12(s4)
80004338:	008724b3          	slt	s1,a4,s0
8000433c:	00040793          	mv	a5,s0
80004340:	00c484b3          	add	s1,s1,a2
80004344:	02e60433          	mul	s0,a2,a4
80004348:	00f75463          	bge	a4,a5,80004350 <spawn_tasks_all_stub+0x60>
8000434c:	00070793          	mv	a5,a4
80004350:	00f40433          	add	s0,s0,a5
80004354:	008a2703          	lw	a4,8(s4)
80004358:	000a2983          	lw	s3,0(s4)
8000435c:	004a2903          	lw	s2,4(s4)
80004360:	02b40433          	mul	s0,s0,a1
80004364:	02d487b3          	mul	a5,s1,a3
80004368:	00e40433          	add	s0,s0,a4
8000436c:	00f40433          	add	s0,s0,a5
80004370:	008484b3          	add	s1,s1,s0
80004374:	00945c63          	bge	s0,s1,8000438c <spawn_tasks_all_stub+0x9c>
80004378:	00040513          	mv	a0,s0
8000437c:	00090593          	mv	a1,s2
80004380:	00140413          	addi	s0,s0,1
80004384:	000980e7          	jalr	s3
80004388:	fe8498e3          	bne	s1,s0,80004378 <spawn_tasks_all_stub+0x88>
8000438c:	014a2703          	lw	a4,20(s4)
80004390:	00000793          	li	a5,0
80004394:	00e7c00b          	0xe7c00b
80004398:	01c12083          	lw	ra,28(sp)
8000439c:	01812403          	lw	s0,24(sp)
800043a0:	01412483          	lw	s1,20(sp)
800043a4:	01012903          	lw	s2,16(sp)
800043a8:	00c12983          	lw	s3,12(sp)
800043ac:	00812a03          	lw	s4,8(sp)
800043b0:	02010113          	addi	sp,sp,32
800043b4:	00008067          	ret

800043b8 <spawn_tasks_rem_stub>:
800043b8:	cc5027f3          	csrr	a5,0xcc5
800043bc:	cc202573          	csrr	a0,0xcc2
800043c0:	00279713          	slli	a4,a5,0x2
800043c4:	00002797          	auipc	a5,0x2
800043c8:	4d078793          	addi	a5,a5,1232 # 80006894 <g_wspawn_args>
800043cc:	00e787b3          	add	a5,a5,a4
800043d0:	0007a783          	lw	a5,0(a5)
800043d4:	0087a703          	lw	a4,8(a5)
800043d8:	0007a303          	lw	t1,0(a5)
800043dc:	0047a583          	lw	a1,4(a5)
800043e0:	00e50533          	add	a0,a0,a4
800043e4:	00030067          	jr	t1

800043e8 <spawn_tasks_all_cb>:
800043e8:	ff010113          	addi	sp,sp,-16
800043ec:	00112623          	sw	ra,12(sp)
800043f0:	fff00793          	li	a5,-1
800043f4:	0007800b          	0x7800b
800043f8:	ef9ff0ef          	jal	ra,800042f0 <spawn_tasks_all_stub>
800043fc:	cc3027f3          	csrr	a5,0xcc3
80004400:	0017b793          	seqz	a5,a5
80004404:	0007800b          	0x7800b
80004408:	00c12083          	lw	ra,12(sp)
8000440c:	01010113          	addi	sp,sp,16
80004410:	00008067          	ret

80004414 <vx_spawn_tasks>:
80004414:	fd010113          	addi	sp,sp,-48
80004418:	02112623          	sw	ra,44(sp)
8000441c:	02812423          	sw	s0,40(sp)
80004420:	02912223          	sw	s1,36(sp)
80004424:	03212023          	sw	s2,32(sp)
80004428:	fc2026f3          	csrr	a3,0xfc2
8000442c:	fc1028f3          	csrr	a7,0xfc1
80004430:	fc0024f3          	csrr	s1,0xfc0
80004434:	cc5027f3          	csrr	a5,0xcc5
80004438:	01f00713          	li	a4,31
8000443c:	08f74863          	blt	a4,a5,800044cc <vx_spawn_tasks+0xb8>
80004440:	03148833          	mul	a6,s1,a7
80004444:	00100713          	li	a4,1
80004448:	00a85463          	bge	a6,a0,80004450 <vx_spawn_tasks+0x3c>
8000444c:	03054733          	div	a4,a0,a6
80004450:	08e6ca63          	blt	a3,a4,800044e4 <vx_spawn_tasks+0xd0>
80004454:	06e7dc63          	bge	a5,a4,800044cc <vx_spawn_tasks+0xb8>
80004458:	fff68693          	addi	a3,a3,-1
8000445c:	02e54333          	div	t1,a0,a4
80004460:	00030813          	mv	a6,t1
80004464:	00f69663          	bne	a3,a5,80004470 <vx_spawn_tasks+0x5c>
80004468:	02e56533          	rem	a0,a0,a4
8000446c:	00650833          	add	a6,a0,t1
80004470:	02984933          	div	s2,a6,s1
80004474:	02986433          	rem	s0,a6,s1
80004478:	07194c63          	blt	s2,a7,800044f0 <vx_spawn_tasks+0xdc>
8000447c:	00100513          	li	a0,1
80004480:	031946b3          	div	a3,s2,a7
80004484:	00068663          	beqz	a3,80004490 <vx_spawn_tasks+0x7c>
80004488:	00068513          	mv	a0,a3
8000448c:	031966b3          	rem	a3,s2,a7
80004490:	00002717          	auipc	a4,0x2
80004494:	40470713          	addi	a4,a4,1028 # 80006894 <g_wspawn_args>
80004498:	00b12423          	sw	a1,8(sp)
8000449c:	00c12623          	sw	a2,12(sp)
800044a0:	00a12a23          	sw	a0,20(sp)
800044a4:	00d12c23          	sw	a3,24(sp)
800044a8:	00012e23          	sw	zero,28(sp)
800044ac:	02f30333          	mul	t1,t1,a5
800044b0:	00279793          	slli	a5,a5,0x2
800044b4:	00f707b3          	add	a5,a4,a5
800044b8:	00810713          	addi	a4,sp,8
800044bc:	00e7a023          	sw	a4,0(a5)
800044c0:	00612823          	sw	t1,16(sp)
800044c4:	03204c63          	bgtz	s2,800044fc <vx_spawn_tasks+0xe8>
800044c8:	06041663          	bnez	s0,80004534 <vx_spawn_tasks+0x120>
800044cc:	02c12083          	lw	ra,44(sp)
800044d0:	02812403          	lw	s0,40(sp)
800044d4:	02412483          	lw	s1,36(sp)
800044d8:	02012903          	lw	s2,32(sp)
800044dc:	03010113          	addi	sp,sp,48
800044e0:	00008067          	ret
800044e4:	00068713          	mv	a4,a3
800044e8:	f6e7c8e3          	blt	a5,a4,80004458 <vx_spawn_tasks+0x44>
800044ec:	fe1ff06f          	j	800044cc <vx_spawn_tasks+0xb8>
800044f0:	00000693          	li	a3,0
800044f4:	00100513          	li	a0,1
800044f8:	f99ff06f          	j	80004490 <vx_spawn_tasks+0x7c>
800044fc:	00090793          	mv	a5,s2
80004500:	0128d463          	bge	a7,s2,80004508 <vx_spawn_tasks+0xf4>
80004504:	00088793          	mv	a5,a7
80004508:	00f12e23          	sw	a5,28(sp)
8000450c:	00000717          	auipc	a4,0x0
80004510:	edc70713          	addi	a4,a4,-292 # 800043e8 <spawn_tasks_all_cb>
80004514:	00e7900b          	0xe7900b
80004518:	fff00793          	li	a5,-1
8000451c:	0007800b          	0x7800b
80004520:	dd1ff0ef          	jal	ra,800042f0 <spawn_tasks_all_stub>
80004524:	cc3027f3          	csrr	a5,0xcc3
80004528:	0017b793          	seqz	a5,a5
8000452c:	0007800b          	0x7800b
80004530:	f8040ee3          	beqz	s0,800044cc <vx_spawn_tasks+0xb8>
80004534:	029904b3          	mul	s1,s2,s1
80004538:	00100913          	li	s2,1
8000453c:	00891833          	sll	a6,s2,s0
80004540:	fff80813          	addi	a6,a6,-1
80004544:	00912823          	sw	s1,16(sp)
80004548:	0008000b          	0x8000b
8000454c:	e6dff0ef          	jal	ra,800043b8 <spawn_tasks_rem_stub>
80004550:	0009000b          	0x9000b
80004554:	02c12083          	lw	ra,44(sp)
80004558:	02812403          	lw	s0,40(sp)
8000455c:	02412483          	lw	s1,36(sp)
80004560:	02012903          	lw	s2,32(sp)
80004564:	03010113          	addi	sp,sp,48
80004568:	00008067          	ret

8000456c <vx_perf_dump>:
8000456c:	cc5027f3          	csrr	a5,0xcc5
80004570:	00ff0737          	lui	a4,0xff0
80004574:	00e787b3          	add	a5,a5,a4
80004578:	00879793          	slli	a5,a5,0x8
8000457c:	b0002773          	csrr	a4,mcycle
80004580:	00e7a023          	sw	a4,0(a5)
80004584:	b0102773          	csrr	a4,0xb01
80004588:	00e7a223          	sw	a4,4(a5)
8000458c:	b0202773          	csrr	a4,minstret
80004590:	00e7a423          	sw	a4,8(a5)
80004594:	b0302773          	csrr	a4,mhpmcounter3
80004598:	00e7a623          	sw	a4,12(a5)
8000459c:	b0402773          	csrr	a4,mhpmcounter4
800045a0:	00e7a823          	sw	a4,16(a5)
800045a4:	b0502773          	csrr	a4,mhpmcounter5
800045a8:	00e7aa23          	sw	a4,20(a5)
800045ac:	b0602773          	csrr	a4,mhpmcounter6
800045b0:	00e7ac23          	sw	a4,24(a5)
800045b4:	b0702773          	csrr	a4,mhpmcounter7
800045b8:	00e7ae23          	sw	a4,28(a5)
800045bc:	b0802773          	csrr	a4,mhpmcounter8
800045c0:	02e7a023          	sw	a4,32(a5)
800045c4:	b0902773          	csrr	a4,mhpmcounter9
800045c8:	02e7a223          	sw	a4,36(a5)
800045cc:	b0a02773          	csrr	a4,mhpmcounter10
800045d0:	02e7a423          	sw	a4,40(a5)
800045d4:	b0b02773          	csrr	a4,mhpmcounter11
800045d8:	02e7a623          	sw	a4,44(a5)
800045dc:	b0c02773          	csrr	a4,mhpmcounter12
800045e0:	02e7a823          	sw	a4,48(a5)
800045e4:	b0d02773          	csrr	a4,mhpmcounter13
800045e8:	02e7aa23          	sw	a4,52(a5)
800045ec:	b0e02773          	csrr	a4,mhpmcounter14
800045f0:	02e7ac23          	sw	a4,56(a5)
800045f4:	b0f02773          	csrr	a4,mhpmcounter15
800045f8:	02e7ae23          	sw	a4,60(a5)
800045fc:	b1002773          	csrr	a4,mhpmcounter16
80004600:	04e7a023          	sw	a4,64(a5)
80004604:	b1102773          	csrr	a4,mhpmcounter17
80004608:	04e7a223          	sw	a4,68(a5)
8000460c:	b1202773          	csrr	a4,mhpmcounter18
80004610:	04e7a423          	sw	a4,72(a5)
80004614:	b1302773          	csrr	a4,mhpmcounter19
80004618:	04e7a623          	sw	a4,76(a5)
8000461c:	b1402773          	csrr	a4,mhpmcounter20
80004620:	04e7a823          	sw	a4,80(a5)
80004624:	b1502773          	csrr	a4,mhpmcounter21
80004628:	04e7aa23          	sw	a4,84(a5)
8000462c:	b1602773          	csrr	a4,mhpmcounter22
80004630:	04e7ac23          	sw	a4,88(a5)
80004634:	b1702773          	csrr	a4,mhpmcounter23
80004638:	04e7ae23          	sw	a4,92(a5)
8000463c:	b1802773          	csrr	a4,mhpmcounter24
80004640:	06e7a023          	sw	a4,96(a5)
80004644:	b1902773          	csrr	a4,mhpmcounter25
80004648:	06e7a223          	sw	a4,100(a5)
8000464c:	b1a02773          	csrr	a4,mhpmcounter26
80004650:	06e7a423          	sw	a4,104(a5)
80004654:	b1b02773          	csrr	a4,mhpmcounter27
80004658:	06e7a623          	sw	a4,108(a5)
8000465c:	b1c02773          	csrr	a4,mhpmcounter28
80004660:	06e7a823          	sw	a4,112(a5)
80004664:	b1d02773          	csrr	a4,mhpmcounter29
80004668:	06e7aa23          	sw	a4,116(a5)
8000466c:	b1e02773          	csrr	a4,mhpmcounter30
80004670:	06e7ac23          	sw	a4,120(a5)
80004674:	b1f02773          	csrr	a4,mhpmcounter31
80004678:	06e7ae23          	sw	a4,124(a5)
8000467c:	b8002773          	csrr	a4,mcycleh
80004680:	08e7a023          	sw	a4,128(a5)
80004684:	b8102773          	csrr	a4,0xb81
80004688:	08e7a223          	sw	a4,132(a5)
8000468c:	b8202773          	csrr	a4,minstreth
80004690:	08e7a423          	sw	a4,136(a5)
80004694:	b8302773          	csrr	a4,mhpmcounter3h
80004698:	08e7a623          	sw	a4,140(a5)
8000469c:	b8402773          	csrr	a4,mhpmcounter4h
800046a0:	08e7a823          	sw	a4,144(a5)
800046a4:	b8502773          	csrr	a4,mhpmcounter5h
800046a8:	08e7aa23          	sw	a4,148(a5)
800046ac:	b8602773          	csrr	a4,mhpmcounter6h
800046b0:	08e7ac23          	sw	a4,152(a5)
800046b4:	b8702773          	csrr	a4,mhpmcounter7h
800046b8:	08e7ae23          	sw	a4,156(a5)
800046bc:	b8802773          	csrr	a4,mhpmcounter8h
800046c0:	0ae7a023          	sw	a4,160(a5)
800046c4:	b8902773          	csrr	a4,mhpmcounter9h
800046c8:	0ae7a223          	sw	a4,164(a5)
800046cc:	b8a02773          	csrr	a4,mhpmcounter10h
800046d0:	0ae7a423          	sw	a4,168(a5)
800046d4:	b8b02773          	csrr	a4,mhpmcounter11h
800046d8:	0ae7a623          	sw	a4,172(a5)
800046dc:	b8c02773          	csrr	a4,mhpmcounter12h
800046e0:	0ae7a823          	sw	a4,176(a5)
800046e4:	b8d02773          	csrr	a4,mhpmcounter13h
800046e8:	0ae7aa23          	sw	a4,180(a5)
800046ec:	b8e02773          	csrr	a4,mhpmcounter14h
800046f0:	0ae7ac23          	sw	a4,184(a5)
800046f4:	b8f02773          	csrr	a4,mhpmcounter15h
800046f8:	0ae7ae23          	sw	a4,188(a5)
800046fc:	b9002773          	csrr	a4,mhpmcounter16h
80004700:	0ce7a023          	sw	a4,192(a5)
80004704:	b9102773          	csrr	a4,mhpmcounter17h
80004708:	0ce7a223          	sw	a4,196(a5)
8000470c:	b9202773          	csrr	a4,mhpmcounter18h
80004710:	0ce7a423          	sw	a4,200(a5)
80004714:	b9302773          	csrr	a4,mhpmcounter19h
80004718:	0ce7a623          	sw	a4,204(a5)
8000471c:	b9402773          	csrr	a4,mhpmcounter20h
80004720:	0ce7a823          	sw	a4,208(a5)
80004724:	b9502773          	csrr	a4,mhpmcounter21h
80004728:	0ce7aa23          	sw	a4,212(a5)
8000472c:	b9602773          	csrr	a4,mhpmcounter22h
80004730:	0ce7ac23          	sw	a4,216(a5)
80004734:	b9702773          	csrr	a4,mhpmcounter23h
80004738:	0ce7ae23          	sw	a4,220(a5)
8000473c:	b9802773          	csrr	a4,mhpmcounter24h
80004740:	0ee7a023          	sw	a4,224(a5)
80004744:	b9902773          	csrr	a4,mhpmcounter25h
80004748:	0ee7a223          	sw	a4,228(a5)
8000474c:	b9a02773          	csrr	a4,mhpmcounter26h
80004750:	0ee7a423          	sw	a4,232(a5)
80004754:	b9b02773          	csrr	a4,mhpmcounter27h
80004758:	0ee7a623          	sw	a4,236(a5)
8000475c:	b9c02773          	csrr	a4,mhpmcounter28h
80004760:	0ee7a823          	sw	a4,240(a5)
80004764:	b9d02773          	csrr	a4,mhpmcounter29h
80004768:	0ee7aa23          	sw	a4,244(a5)
8000476c:	b9e02773          	csrr	a4,mhpmcounter30h
80004770:	0ee7ac23          	sw	a4,248(a5)
80004774:	b9f02773          	csrr	a4,mhpmcounter31h
80004778:	0ee7ae23          	sw	a4,252(a5)
8000477c:	00008067          	ret

80004780 <abort>:
80004780:	ff010113          	addi	sp,sp,-16
80004784:	00600513          	li	a0,6
80004788:	00112623          	sw	ra,12(sp)
8000478c:	4cc000ef          	jal	ra,80004c58 <raise>
80004790:	00100513          	li	a0,1
80004794:	995ff0ef          	jal	ra,80004128 <_exit>

80004798 <atexit>:
80004798:	00050593          	mv	a1,a0
8000479c:	00000693          	li	a3,0
800047a0:	00000613          	li	a2,0
800047a4:	00000513          	li	a0,0
800047a8:	5700006f          	j	80004d18 <__register_exitproc>

800047ac <exit>:
800047ac:	ff010113          	addi	sp,sp,-16
800047b0:	00000593          	li	a1,0
800047b4:	00812423          	sw	s0,8(sp)
800047b8:	00112623          	sw	ra,12(sp)
800047bc:	00050413          	mv	s0,a0
800047c0:	5f4000ef          	jal	ra,80004db4 <__call_exitprocs>
800047c4:	800077b7          	lui	a5,0x80007
800047c8:	8387a503          	lw	a0,-1992(a5) # 80006838 <__BSS_END__+0xffffff20>
800047cc:	03c52783          	lw	a5,60(a0)
800047d0:	00078463          	beqz	a5,800047d8 <exit+0x2c>
800047d4:	000780e7          	jalr	a5
800047d8:	00040513          	mv	a0,s0
800047dc:	94dff0ef          	jal	ra,80004128 <_exit>

800047e0 <memcpy>:
800047e0:	00a5c7b3          	xor	a5,a1,a0
800047e4:	0037f793          	andi	a5,a5,3
800047e8:	00c508b3          	add	a7,a0,a2
800047ec:	06079263          	bnez	a5,80004850 <memcpy+0x70>
800047f0:	00300793          	li	a5,3
800047f4:	04c7fe63          	bgeu	a5,a2,80004850 <memcpy+0x70>
800047f8:	00357793          	andi	a5,a0,3
800047fc:	00050713          	mv	a4,a0
80004800:	06079863          	bnez	a5,80004870 <memcpy+0x90>
80004804:	ffc8f613          	andi	a2,a7,-4
80004808:	fe060793          	addi	a5,a2,-32
8000480c:	08f76c63          	bltu	a4,a5,800048a4 <memcpy+0xc4>
80004810:	02c77c63          	bgeu	a4,a2,80004848 <memcpy+0x68>
80004814:	00058693          	mv	a3,a1
80004818:	00070793          	mv	a5,a4
8000481c:	0006a803          	lw	a6,0(a3)
80004820:	00478793          	addi	a5,a5,4
80004824:	00468693          	addi	a3,a3,4
80004828:	ff07ae23          	sw	a6,-4(a5)
8000482c:	fec7e8e3          	bltu	a5,a2,8000481c <memcpy+0x3c>
80004830:	fff60793          	addi	a5,a2,-1
80004834:	40e787b3          	sub	a5,a5,a4
80004838:	ffc7f793          	andi	a5,a5,-4
8000483c:	00478793          	addi	a5,a5,4
80004840:	00f70733          	add	a4,a4,a5
80004844:	00f585b3          	add	a1,a1,a5
80004848:	01176863          	bltu	a4,a7,80004858 <memcpy+0x78>
8000484c:	00008067          	ret
80004850:	00050713          	mv	a4,a0
80004854:	ff157ce3          	bgeu	a0,a7,8000484c <memcpy+0x6c>
80004858:	0005c783          	lbu	a5,0(a1)
8000485c:	00170713          	addi	a4,a4,1 # ff0001 <reg_t6+0xfeffe2>
80004860:	00158593          	addi	a1,a1,1
80004864:	fef70fa3          	sb	a5,-1(a4)
80004868:	ff1768e3          	bltu	a4,a7,80004858 <memcpy+0x78>
8000486c:	00008067          	ret
80004870:	0005c683          	lbu	a3,0(a1)
80004874:	00170713          	addi	a4,a4,1
80004878:	00377793          	andi	a5,a4,3
8000487c:	fed70fa3          	sb	a3,-1(a4)
80004880:	00158593          	addi	a1,a1,1
80004884:	f80780e3          	beqz	a5,80004804 <memcpy+0x24>
80004888:	0005c683          	lbu	a3,0(a1)
8000488c:	00170713          	addi	a4,a4,1
80004890:	00377793          	andi	a5,a4,3
80004894:	fed70fa3          	sb	a3,-1(a4)
80004898:	00158593          	addi	a1,a1,1
8000489c:	fc079ae3          	bnez	a5,80004870 <memcpy+0x90>
800048a0:	f65ff06f          	j	80004804 <memcpy+0x24>
800048a4:	0045a683          	lw	a3,4(a1)
800048a8:	0005a283          	lw	t0,0(a1)
800048ac:	0085af83          	lw	t6,8(a1)
800048b0:	00c5af03          	lw	t5,12(a1)
800048b4:	0105ae83          	lw	t4,16(a1)
800048b8:	0145ae03          	lw	t3,20(a1)
800048bc:	0185a303          	lw	t1,24(a1)
800048c0:	01c5a803          	lw	a6,28(a1)
800048c4:	00d72223          	sw	a3,4(a4)
800048c8:	0205a683          	lw	a3,32(a1)
800048cc:	00572023          	sw	t0,0(a4)
800048d0:	01f72423          	sw	t6,8(a4)
800048d4:	01e72623          	sw	t5,12(a4)
800048d8:	01d72823          	sw	t4,16(a4)
800048dc:	01c72a23          	sw	t3,20(a4)
800048e0:	00672c23          	sw	t1,24(a4)
800048e4:	01072e23          	sw	a6,28(a4)
800048e8:	02d72023          	sw	a3,32(a4)
800048ec:	02470713          	addi	a4,a4,36
800048f0:	02458593          	addi	a1,a1,36
800048f4:	faf768e3          	bltu	a4,a5,800048a4 <memcpy+0xc4>
800048f8:	f19ff06f          	j	80004810 <memcpy+0x30>

800048fc <memset>:
800048fc:	00f00313          	li	t1,15
80004900:	00050713          	mv	a4,a0
80004904:	02c37e63          	bgeu	t1,a2,80004940 <memset+0x44>
80004908:	00f77793          	andi	a5,a4,15
8000490c:	0a079063          	bnez	a5,800049ac <memset+0xb0>
80004910:	08059263          	bnez	a1,80004994 <memset+0x98>
80004914:	ff067693          	andi	a3,a2,-16
80004918:	00f67613          	andi	a2,a2,15
8000491c:	00e686b3          	add	a3,a3,a4
80004920:	00b72023          	sw	a1,0(a4)
80004924:	00b72223          	sw	a1,4(a4)
80004928:	00b72423          	sw	a1,8(a4)
8000492c:	00b72623          	sw	a1,12(a4)
80004930:	01070713          	addi	a4,a4,16
80004934:	fed766e3          	bltu	a4,a3,80004920 <memset+0x24>
80004938:	00061463          	bnez	a2,80004940 <memset+0x44>
8000493c:	00008067          	ret
80004940:	40c306b3          	sub	a3,t1,a2
80004944:	00269693          	slli	a3,a3,0x2
80004948:	00000297          	auipc	t0,0x0
8000494c:	005686b3          	add	a3,a3,t0
80004950:	00c68067          	jr	12(a3)
80004954:	00b70723          	sb	a1,14(a4)
80004958:	00b706a3          	sb	a1,13(a4)
8000495c:	00b70623          	sb	a1,12(a4)
80004960:	00b705a3          	sb	a1,11(a4)
80004964:	00b70523          	sb	a1,10(a4)
80004968:	00b704a3          	sb	a1,9(a4)
8000496c:	00b70423          	sb	a1,8(a4)
80004970:	00b703a3          	sb	a1,7(a4)
80004974:	00b70323          	sb	a1,6(a4)
80004978:	00b702a3          	sb	a1,5(a4)
8000497c:	00b70223          	sb	a1,4(a4)
80004980:	00b701a3          	sb	a1,3(a4)
80004984:	00b70123          	sb	a1,2(a4)
80004988:	00b700a3          	sb	a1,1(a4)
8000498c:	00b70023          	sb	a1,0(a4)
80004990:	00008067          	ret
80004994:	0ff5f593          	andi	a1,a1,255
80004998:	00859693          	slli	a3,a1,0x8
8000499c:	00d5e5b3          	or	a1,a1,a3
800049a0:	01059693          	slli	a3,a1,0x10
800049a4:	00d5e5b3          	or	a1,a1,a3
800049a8:	f6dff06f          	j	80004914 <memset+0x18>
800049ac:	00279693          	slli	a3,a5,0x2
800049b0:	00000297          	auipc	t0,0x0
800049b4:	005686b3          	add	a3,a3,t0
800049b8:	00008293          	mv	t0,ra
800049bc:	fa0680e7          	jalr	-96(a3)
800049c0:	00028093          	mv	ra,t0
800049c4:	ff078793          	addi	a5,a5,-16
800049c8:	40f70733          	sub	a4,a4,a5
800049cc:	00f60633          	add	a2,a2,a5
800049d0:	f6c378e3          	bgeu	t1,a2,80004940 <memset+0x44>
800049d4:	f3dff06f          	j	80004910 <memset+0x14>

800049d8 <_init_signal_r.part.0>:
800049d8:	ff010113          	addi	sp,sp,-16
800049dc:	08000593          	li	a1,128
800049e0:	00812423          	sw	s0,8(sp)
800049e4:	00112623          	sw	ra,12(sp)
800049e8:	00050413          	mv	s0,a0
800049ec:	4ec000ef          	jal	ra,80004ed8 <_malloc_r>
800049f0:	2ca42e23          	sw	a0,732(s0)
800049f4:	02050463          	beqz	a0,80004a1c <_init_signal_r.part.0+0x44>
800049f8:	08050793          	addi	a5,a0,128
800049fc:	00052023          	sw	zero,0(a0)
80004a00:	00450513          	addi	a0,a0,4
80004a04:	fef51ce3          	bne	a0,a5,800049fc <_init_signal_r.part.0+0x24>
80004a08:	00000513          	li	a0,0
80004a0c:	00c12083          	lw	ra,12(sp)
80004a10:	00812403          	lw	s0,8(sp)
80004a14:	01010113          	addi	sp,sp,16
80004a18:	00008067          	ret
80004a1c:	fff00513          	li	a0,-1
80004a20:	fedff06f          	j	80004a0c <_init_signal_r.part.0+0x34>

80004a24 <_init_signal_r>:
80004a24:	2dc52783          	lw	a5,732(a0)
80004a28:	00078663          	beqz	a5,80004a34 <_init_signal_r+0x10>
80004a2c:	00000513          	li	a0,0
80004a30:	00008067          	ret
80004a34:	fa5ff06f          	j	800049d8 <_init_signal_r.part.0>

80004a38 <_signal_r>:
80004a38:	fe010113          	addi	sp,sp,-32
80004a3c:	00912a23          	sw	s1,20(sp)
80004a40:	00112e23          	sw	ra,28(sp)
80004a44:	00812c23          	sw	s0,24(sp)
80004a48:	01f00793          	li	a5,31
80004a4c:	00050493          	mv	s1,a0
80004a50:	02b7ea63          	bltu	a5,a1,80004a84 <_signal_r+0x4c>
80004a54:	00058413          	mv	s0,a1
80004a58:	2dc52583          	lw	a1,732(a0)
80004a5c:	04058463          	beqz	a1,80004aa4 <_signal_r+0x6c>
80004a60:	00241413          	slli	s0,s0,0x2
80004a64:	00858433          	add	s0,a1,s0
80004a68:	00042503          	lw	a0,0(s0)
80004a6c:	00c42023          	sw	a2,0(s0)
80004a70:	01c12083          	lw	ra,28(sp)
80004a74:	01812403          	lw	s0,24(sp)
80004a78:	01412483          	lw	s1,20(sp)
80004a7c:	02010113          	addi	sp,sp,32
80004a80:	00008067          	ret
80004a84:	01c12083          	lw	ra,28(sp)
80004a88:	01812403          	lw	s0,24(sp)
80004a8c:	01600793          	li	a5,22
80004a90:	00f52023          	sw	a5,0(a0)
80004a94:	01412483          	lw	s1,20(sp)
80004a98:	fff00513          	li	a0,-1
80004a9c:	02010113          	addi	sp,sp,32
80004aa0:	00008067          	ret
80004aa4:	00c12623          	sw	a2,12(sp)
80004aa8:	f31ff0ef          	jal	ra,800049d8 <_init_signal_r.part.0>
80004aac:	00050793          	mv	a5,a0
80004ab0:	fff00513          	li	a0,-1
80004ab4:	fa079ee3          	bnez	a5,80004a70 <_signal_r+0x38>
80004ab8:	2dc4a583          	lw	a1,732(s1)
80004abc:	00c12603          	lw	a2,12(sp)
80004ac0:	fa1ff06f          	j	80004a60 <_signal_r+0x28>

80004ac4 <_raise_r>:
80004ac4:	ff010113          	addi	sp,sp,-16
80004ac8:	00912223          	sw	s1,4(sp)
80004acc:	00112623          	sw	ra,12(sp)
80004ad0:	00812423          	sw	s0,8(sp)
80004ad4:	01f00793          	li	a5,31
80004ad8:	00050493          	mv	s1,a0
80004adc:	0ab7ea63          	bltu	a5,a1,80004b90 <_raise_r+0xcc>
80004ae0:	2dc52783          	lw	a5,732(a0)
80004ae4:	00058413          	mv	s0,a1
80004ae8:	04078463          	beqz	a5,80004b30 <_raise_r+0x6c>
80004aec:	00259713          	slli	a4,a1,0x2
80004af0:	00e787b3          	add	a5,a5,a4
80004af4:	0007a703          	lw	a4,0(a5)
80004af8:	02070c63          	beqz	a4,80004b30 <_raise_r+0x6c>
80004afc:	00100693          	li	a3,1
80004b00:	06d70c63          	beq	a4,a3,80004b78 <_raise_r+0xb4>
80004b04:	fff00693          	li	a3,-1
80004b08:	04d70863          	beq	a4,a3,80004b58 <_raise_r+0x94>
80004b0c:	00058513          	mv	a0,a1
80004b10:	0007a023          	sw	zero,0(a5)
80004b14:	000700e7          	jalr	a4
80004b18:	00000513          	li	a0,0
80004b1c:	00c12083          	lw	ra,12(sp)
80004b20:	00812403          	lw	s0,8(sp)
80004b24:	00412483          	lw	s1,4(sp)
80004b28:	01010113          	addi	sp,sp,16
80004b2c:	00008067          	ret
80004b30:	00048513          	mv	a0,s1
80004b34:	1e0000ef          	jal	ra,80004d14 <_getpid_r>
80004b38:	00040613          	mv	a2,s0
80004b3c:	00812403          	lw	s0,8(sp)
80004b40:	00c12083          	lw	ra,12(sp)
80004b44:	00050593          	mv	a1,a0
80004b48:	00048513          	mv	a0,s1
80004b4c:	00412483          	lw	s1,4(sp)
80004b50:	01010113          	addi	sp,sp,16
80004b54:	1580006f          	j	80004cac <_kill_r>
80004b58:	00c12083          	lw	ra,12(sp)
80004b5c:	00812403          	lw	s0,8(sp)
80004b60:	01600793          	li	a5,22
80004b64:	00f52023          	sw	a5,0(a0)
80004b68:	00412483          	lw	s1,4(sp)
80004b6c:	00100513          	li	a0,1
80004b70:	01010113          	addi	sp,sp,16
80004b74:	00008067          	ret
80004b78:	00c12083          	lw	ra,12(sp)
80004b7c:	00812403          	lw	s0,8(sp)
80004b80:	00412483          	lw	s1,4(sp)
80004b84:	00000513          	li	a0,0
80004b88:	01010113          	addi	sp,sp,16
80004b8c:	00008067          	ret
80004b90:	01600793          	li	a5,22
80004b94:	00f52023          	sw	a5,0(a0)
80004b98:	fff00513          	li	a0,-1
80004b9c:	f81ff06f          	j	80004b1c <_raise_r+0x58>

80004ba0 <__sigtramp_r>:
80004ba0:	01f00793          	li	a5,31
80004ba4:	0ab7e663          	bltu	a5,a1,80004c50 <__sigtramp_r+0xb0>
80004ba8:	2dc52783          	lw	a5,732(a0)
80004bac:	fe010113          	addi	sp,sp,-32
80004bb0:	00912c23          	sw	s1,24(sp)
80004bb4:	00112e23          	sw	ra,28(sp)
80004bb8:	00050493          	mv	s1,a0
80004bbc:	04078c63          	beqz	a5,80004c14 <__sigtramp_r+0x74>
80004bc0:	00259713          	slli	a4,a1,0x2
80004bc4:	00e787b3          	add	a5,a5,a4
80004bc8:	0007a703          	lw	a4,0(a5)
80004bcc:	02070a63          	beqz	a4,80004c00 <__sigtramp_r+0x60>
80004bd0:	fff00693          	li	a3,-1
80004bd4:	06d70663          	beq	a4,a3,80004c40 <__sigtramp_r+0xa0>
80004bd8:	00100693          	li	a3,1
80004bdc:	04d70863          	beq	a4,a3,80004c2c <__sigtramp_r+0x8c>
80004be0:	00058513          	mv	a0,a1
80004be4:	0007a023          	sw	zero,0(a5)
80004be8:	000700e7          	jalr	a4
80004bec:	00000513          	li	a0,0
80004bf0:	01c12083          	lw	ra,28(sp)
80004bf4:	01812483          	lw	s1,24(sp)
80004bf8:	02010113          	addi	sp,sp,32
80004bfc:	00008067          	ret
80004c00:	01c12083          	lw	ra,28(sp)
80004c04:	01812483          	lw	s1,24(sp)
80004c08:	00100513          	li	a0,1
80004c0c:	02010113          	addi	sp,sp,32
80004c10:	00008067          	ret
80004c14:	00b12623          	sw	a1,12(sp)
80004c18:	dc1ff0ef          	jal	ra,800049d8 <_init_signal_r.part.0>
80004c1c:	02051663          	bnez	a0,80004c48 <__sigtramp_r+0xa8>
80004c20:	2dc4a783          	lw	a5,732(s1)
80004c24:	00c12583          	lw	a1,12(sp)
80004c28:	f99ff06f          	j	80004bc0 <__sigtramp_r+0x20>
80004c2c:	01c12083          	lw	ra,28(sp)
80004c30:	01812483          	lw	s1,24(sp)
80004c34:	00300513          	li	a0,3
80004c38:	02010113          	addi	sp,sp,32
80004c3c:	00008067          	ret
80004c40:	00200513          	li	a0,2
80004c44:	fadff06f          	j	80004bf0 <__sigtramp_r+0x50>
80004c48:	fff00513          	li	a0,-1
80004c4c:	fa5ff06f          	j	80004bf0 <__sigtramp_r+0x50>
80004c50:	fff00513          	li	a0,-1
80004c54:	00008067          	ret

80004c58 <raise>:
80004c58:	800077b7          	lui	a5,0x80007
80004c5c:	00050593          	mv	a1,a0
80004c60:	8547a503          	lw	a0,-1964(a5) # 80006854 <__BSS_END__+0xffffff3c>
80004c64:	e61ff06f          	j	80004ac4 <_raise_r>

80004c68 <signal>:
80004c68:	80007737          	lui	a4,0x80007
80004c6c:	00050793          	mv	a5,a0
80004c70:	85472503          	lw	a0,-1964(a4) # 80006854 <__BSS_END__+0xffffff3c>
80004c74:	00058613          	mv	a2,a1
80004c78:	00078593          	mv	a1,a5
80004c7c:	dbdff06f          	j	80004a38 <_signal_r>

80004c80 <_init_signal>:
80004c80:	800077b7          	lui	a5,0x80007
80004c84:	8547a503          	lw	a0,-1964(a5) # 80006854 <__BSS_END__+0xffffff3c>
80004c88:	2dc52783          	lw	a5,732(a0)
80004c8c:	00078663          	beqz	a5,80004c98 <_init_signal+0x18>
80004c90:	00000513          	li	a0,0
80004c94:	00008067          	ret
80004c98:	d41ff06f          	j	800049d8 <_init_signal_r.part.0>

80004c9c <__sigtramp>:
80004c9c:	800077b7          	lui	a5,0x80007
80004ca0:	00050593          	mv	a1,a0
80004ca4:	8547a503          	lw	a0,-1964(a5) # 80006854 <__BSS_END__+0xffffff3c>
80004ca8:	ef9ff06f          	j	80004ba0 <__sigtramp_r>

80004cac <_kill_r>:
80004cac:	ff010113          	addi	sp,sp,-16
80004cb0:	00058713          	mv	a4,a1
80004cb4:	00812423          	sw	s0,8(sp)
80004cb8:	00912223          	sw	s1,4(sp)
80004cbc:	00050413          	mv	s0,a0
80004cc0:	800074b7          	lui	s1,0x80007
80004cc4:	00060593          	mv	a1,a2
80004cc8:	00070513          	mv	a0,a4
80004ccc:	00112623          	sw	ra,12(sp)
80004cd0:	9004aa23          	sw	zero,-1772(s1) # 80006914 <__BSS_END__+0xfffffffc>
80004cd4:	cc0ff0ef          	jal	ra,80004194 <_kill>
80004cd8:	fff00793          	li	a5,-1
80004cdc:	00f50c63          	beq	a0,a5,80004cf4 <_kill_r+0x48>
80004ce0:	00c12083          	lw	ra,12(sp)
80004ce4:	00812403          	lw	s0,8(sp)
80004ce8:	00412483          	lw	s1,4(sp)
80004cec:	01010113          	addi	sp,sp,16
80004cf0:	00008067          	ret
80004cf4:	9144a783          	lw	a5,-1772(s1)
80004cf8:	fe0784e3          	beqz	a5,80004ce0 <_kill_r+0x34>
80004cfc:	00c12083          	lw	ra,12(sp)
80004d00:	00f42023          	sw	a5,0(s0)
80004d04:	00812403          	lw	s0,8(sp)
80004d08:	00412483          	lw	s1,4(sp)
80004d0c:	01010113          	addi	sp,sp,16
80004d10:	00008067          	ret

80004d14 <_getpid_r>:
80004d14:	c88ff06f          	j	8000419c <_getpid>

80004d18 <__register_exitproc>:
80004d18:	800077b7          	lui	a5,0x80007
80004d1c:	8387a703          	lw	a4,-1992(a5) # 80006838 <__BSS_END__+0xffffff20>
80004d20:	14872783          	lw	a5,328(a4)
80004d24:	04078c63          	beqz	a5,80004d7c <__register_exitproc+0x64>
80004d28:	0047a703          	lw	a4,4(a5)
80004d2c:	01f00813          	li	a6,31
80004d30:	06e84e63          	blt	a6,a4,80004dac <__register_exitproc+0x94>
80004d34:	00271813          	slli	a6,a4,0x2
80004d38:	02050663          	beqz	a0,80004d64 <__register_exitproc+0x4c>
80004d3c:	01078333          	add	t1,a5,a6
80004d40:	08c32423          	sw	a2,136(t1)
80004d44:	1887a883          	lw	a7,392(a5)
80004d48:	00100613          	li	a2,1
80004d4c:	00e61633          	sll	a2,a2,a4
80004d50:	00c8e8b3          	or	a7,a7,a2
80004d54:	1917a423          	sw	a7,392(a5)
80004d58:	10d32423          	sw	a3,264(t1)
80004d5c:	00200693          	li	a3,2
80004d60:	02d50463          	beq	a0,a3,80004d88 <__register_exitproc+0x70>
80004d64:	00170713          	addi	a4,a4,1
80004d68:	00e7a223          	sw	a4,4(a5)
80004d6c:	010787b3          	add	a5,a5,a6
80004d70:	00b7a423          	sw	a1,8(a5)
80004d74:	00000513          	li	a0,0
80004d78:	00008067          	ret
80004d7c:	14c70793          	addi	a5,a4,332
80004d80:	14f72423          	sw	a5,328(a4)
80004d84:	fa5ff06f          	j	80004d28 <__register_exitproc+0x10>
80004d88:	18c7a683          	lw	a3,396(a5)
80004d8c:	00170713          	addi	a4,a4,1
80004d90:	00e7a223          	sw	a4,4(a5)
80004d94:	00c6e633          	or	a2,a3,a2
80004d98:	18c7a623          	sw	a2,396(a5)
80004d9c:	010787b3          	add	a5,a5,a6
80004da0:	00b7a423          	sw	a1,8(a5)
80004da4:	00000513          	li	a0,0
80004da8:	00008067          	ret
80004dac:	fff00513          	li	a0,-1
80004db0:	00008067          	ret

80004db4 <__call_exitprocs>:
80004db4:	fd010113          	addi	sp,sp,-48
80004db8:	800077b7          	lui	a5,0x80007
80004dbc:	01412c23          	sw	s4,24(sp)
80004dc0:	8387aa03          	lw	s4,-1992(a5) # 80006838 <__BSS_END__+0xffffff20>
80004dc4:	03212023          	sw	s2,32(sp)
80004dc8:	02112623          	sw	ra,44(sp)
80004dcc:	148a2903          	lw	s2,328(s4)
80004dd0:	02812423          	sw	s0,40(sp)
80004dd4:	02912223          	sw	s1,36(sp)
80004dd8:	01312e23          	sw	s3,28(sp)
80004ddc:	01512a23          	sw	s5,20(sp)
80004de0:	01612823          	sw	s6,16(sp)
80004de4:	01712623          	sw	s7,12(sp)
80004de8:	01812423          	sw	s8,8(sp)
80004dec:	04090063          	beqz	s2,80004e2c <__call_exitprocs+0x78>
80004df0:	00050b13          	mv	s6,a0
80004df4:	00058b93          	mv	s7,a1
80004df8:	00100a93          	li	s5,1
80004dfc:	fff00993          	li	s3,-1
80004e00:	00492483          	lw	s1,4(s2)
80004e04:	fff48413          	addi	s0,s1,-1
80004e08:	02044263          	bltz	s0,80004e2c <__call_exitprocs+0x78>
80004e0c:	00249493          	slli	s1,s1,0x2
80004e10:	009904b3          	add	s1,s2,s1
80004e14:	040b8463          	beqz	s7,80004e5c <__call_exitprocs+0xa8>
80004e18:	1044a783          	lw	a5,260(s1)
80004e1c:	05778063          	beq	a5,s7,80004e5c <__call_exitprocs+0xa8>
80004e20:	fff40413          	addi	s0,s0,-1
80004e24:	ffc48493          	addi	s1,s1,-4
80004e28:	ff3416e3          	bne	s0,s3,80004e14 <__call_exitprocs+0x60>
80004e2c:	02c12083          	lw	ra,44(sp)
80004e30:	02812403          	lw	s0,40(sp)
80004e34:	02412483          	lw	s1,36(sp)
80004e38:	02012903          	lw	s2,32(sp)
80004e3c:	01c12983          	lw	s3,28(sp)
80004e40:	01812a03          	lw	s4,24(sp)
80004e44:	01412a83          	lw	s5,20(sp)
80004e48:	01012b03          	lw	s6,16(sp)
80004e4c:	00c12b83          	lw	s7,12(sp)
80004e50:	00812c03          	lw	s8,8(sp)
80004e54:	03010113          	addi	sp,sp,48
80004e58:	00008067          	ret
80004e5c:	00492783          	lw	a5,4(s2)
80004e60:	0044a683          	lw	a3,4(s1)
80004e64:	fff78793          	addi	a5,a5,-1
80004e68:	04878e63          	beq	a5,s0,80004ec4 <__call_exitprocs+0x110>
80004e6c:	0004a223          	sw	zero,4(s1)
80004e70:	fa0688e3          	beqz	a3,80004e20 <__call_exitprocs+0x6c>
80004e74:	18892783          	lw	a5,392(s2)
80004e78:	008a9733          	sll	a4,s5,s0
80004e7c:	00492c03          	lw	s8,4(s2)
80004e80:	00f777b3          	and	a5,a4,a5
80004e84:	02079263          	bnez	a5,80004ea8 <__call_exitprocs+0xf4>
80004e88:	000680e7          	jalr	a3
80004e8c:	00492703          	lw	a4,4(s2)
80004e90:	148a2783          	lw	a5,328(s4)
80004e94:	01871463          	bne	a4,s8,80004e9c <__call_exitprocs+0xe8>
80004e98:	f8f904e3          	beq	s2,a5,80004e20 <__call_exitprocs+0x6c>
80004e9c:	f80788e3          	beqz	a5,80004e2c <__call_exitprocs+0x78>
80004ea0:	00078913          	mv	s2,a5
80004ea4:	f5dff06f          	j	80004e00 <__call_exitprocs+0x4c>
80004ea8:	18c92783          	lw	a5,396(s2)
80004eac:	0844a583          	lw	a1,132(s1)
80004eb0:	00f77733          	and	a4,a4,a5
80004eb4:	00071c63          	bnez	a4,80004ecc <__call_exitprocs+0x118>
80004eb8:	000b0513          	mv	a0,s6
80004ebc:	000680e7          	jalr	a3
80004ec0:	fcdff06f          	j	80004e8c <__call_exitprocs+0xd8>
80004ec4:	00892223          	sw	s0,4(s2)
80004ec8:	fa9ff06f          	j	80004e70 <__call_exitprocs+0xbc>
80004ecc:	00058513          	mv	a0,a1
80004ed0:	000680e7          	jalr	a3
80004ed4:	fb9ff06f          	j	80004e8c <__call_exitprocs+0xd8>

80004ed8 <_malloc_r>:
80004ed8:	fd010113          	addi	sp,sp,-48
80004edc:	01312e23          	sw	s3,28(sp)
80004ee0:	02112623          	sw	ra,44(sp)
80004ee4:	02812423          	sw	s0,40(sp)
80004ee8:	02912223          	sw	s1,36(sp)
80004eec:	03212023          	sw	s2,32(sp)
80004ef0:	01412c23          	sw	s4,24(sp)
80004ef4:	01512a23          	sw	s5,20(sp)
80004ef8:	01612823          	sw	s6,16(sp)
80004efc:	01712623          	sw	s7,12(sp)
80004f00:	01812423          	sw	s8,8(sp)
80004f04:	01912223          	sw	s9,4(sp)
80004f08:	00b58793          	addi	a5,a1,11
80004f0c:	01600713          	li	a4,22
80004f10:	00050993          	mv	s3,a0
80004f14:	06f76663          	bltu	a4,a5,80004f80 <_malloc_r+0xa8>
80004f18:	01000793          	li	a5,16
80004f1c:	1eb7e663          	bltu	a5,a1,80005108 <_malloc_r+0x230>
80004f20:	770000ef          	jal	ra,80005690 <__malloc_lock>
80004f24:	01000493          	li	s1,16
80004f28:	00200613          	li	a2,2
80004f2c:	01800793          	li	a5,24
80004f30:	80006937          	lui	s2,0x80006
80004f34:	43090913          	addi	s2,s2,1072 # 80006430 <__BSS_END__+0xfffffb18>
80004f38:	00f907b3          	add	a5,s2,a5
80004f3c:	0047a403          	lw	s0,4(a5)
80004f40:	ff878713          	addi	a4,a5,-8
80004f44:	20e40a63          	beq	s0,a4,80005158 <_malloc_r+0x280>
80004f48:	00442783          	lw	a5,4(s0)
80004f4c:	00c42683          	lw	a3,12(s0)
80004f50:	00842603          	lw	a2,8(s0)
80004f54:	ffc7f793          	andi	a5,a5,-4
80004f58:	00f407b3          	add	a5,s0,a5
80004f5c:	0047a703          	lw	a4,4(a5)
80004f60:	00d62623          	sw	a3,12(a2)
80004f64:	00c6a423          	sw	a2,8(a3)
80004f68:	00176713          	ori	a4,a4,1
80004f6c:	00098513          	mv	a0,s3
80004f70:	00e7a223          	sw	a4,4(a5)
80004f74:	720000ef          	jal	ra,80005694 <__malloc_unlock>
80004f78:	00840513          	addi	a0,s0,8
80004f7c:	1980006f          	j	80005114 <_malloc_r+0x23c>
80004f80:	ff87f493          	andi	s1,a5,-8
80004f84:	1807c263          	bltz	a5,80005108 <_malloc_r+0x230>
80004f88:	18b4e063          	bltu	s1,a1,80005108 <_malloc_r+0x230>
80004f8c:	704000ef          	jal	ra,80005690 <__malloc_lock>
80004f90:	1f700793          	li	a5,503
80004f94:	4697f663          	bgeu	a5,s1,80005400 <_malloc_r+0x528>
80004f98:	0094d793          	srli	a5,s1,0x9
80004f9c:	1a078663          	beqz	a5,80005148 <_malloc_r+0x270>
80004fa0:	00400713          	li	a4,4
80004fa4:	3cf76c63          	bltu	a4,a5,8000537c <_malloc_r+0x4a4>
80004fa8:	0064d793          	srli	a5,s1,0x6
80004fac:	03978613          	addi	a2,a5,57
80004fb0:	03878513          	addi	a0,a5,56
80004fb4:	00361693          	slli	a3,a2,0x3
80004fb8:	80006937          	lui	s2,0x80006
80004fbc:	43090913          	addi	s2,s2,1072 # 80006430 <__BSS_END__+0xfffffb18>
80004fc0:	00d906b3          	add	a3,s2,a3
80004fc4:	0046a403          	lw	s0,4(a3)
80004fc8:	ff868693          	addi	a3,a3,-8
80004fcc:	02868663          	beq	a3,s0,80004ff8 <_malloc_r+0x120>
80004fd0:	00f00593          	li	a1,15
80004fd4:	0100006f          	j	80004fe4 <_malloc_r+0x10c>
80004fd8:	32075c63          	bgez	a4,80005310 <_malloc_r+0x438>
80004fdc:	00c42403          	lw	s0,12(s0)
80004fe0:	00868c63          	beq	a3,s0,80004ff8 <_malloc_r+0x120>
80004fe4:	00442783          	lw	a5,4(s0)
80004fe8:	ffc7f793          	andi	a5,a5,-4
80004fec:	40978733          	sub	a4,a5,s1
80004ff0:	fee5d4e3          	bge	a1,a4,80004fd8 <_malloc_r+0x100>
80004ff4:	00050613          	mv	a2,a0
80004ff8:	01092403          	lw	s0,16(s2)
80004ffc:	00890893          	addi	a7,s2,8
80005000:	17140863          	beq	s0,a7,80005170 <_malloc_r+0x298>
80005004:	00442503          	lw	a0,4(s0)
80005008:	00f00693          	li	a3,15
8000500c:	ffc57513          	andi	a0,a0,-4
80005010:	409507b3          	sub	a5,a0,s1
80005014:	40f6cc63          	blt	a3,a5,8000542c <_malloc_r+0x554>
80005018:	01192a23          	sw	a7,20(s2)
8000501c:	01192823          	sw	a7,16(s2)
80005020:	3e07d663          	bgez	a5,8000540c <_malloc_r+0x534>
80005024:	1ff00793          	li	a5,511
80005028:	2ea7ea63          	bltu	a5,a0,8000531c <_malloc_r+0x444>
8000502c:	ff857793          	andi	a5,a0,-8
80005030:	00878793          	addi	a5,a5,8
80005034:	00492583          	lw	a1,4(s2)
80005038:	00f907b3          	add	a5,s2,a5
8000503c:	0007a683          	lw	a3,0(a5)
80005040:	00555513          	srli	a0,a0,0x5
80005044:	00100713          	li	a4,1
80005048:	00a71733          	sll	a4,a4,a0
8000504c:	00b76733          	or	a4,a4,a1
80005050:	ff878593          	addi	a1,a5,-8
80005054:	00b42623          	sw	a1,12(s0)
80005058:	00d42423          	sw	a3,8(s0)
8000505c:	00e92223          	sw	a4,4(s2)
80005060:	0087a023          	sw	s0,0(a5)
80005064:	0086a623          	sw	s0,12(a3)
80005068:	40265793          	srai	a5,a2,0x2
8000506c:	00100593          	li	a1,1
80005070:	00f595b3          	sll	a1,a1,a5
80005074:	10b76863          	bltu	a4,a1,80005184 <_malloc_r+0x2ac>
80005078:	00e5f7b3          	and	a5,a1,a4
8000507c:	02079463          	bnez	a5,800050a4 <_malloc_r+0x1cc>
80005080:	00159593          	slli	a1,a1,0x1
80005084:	ffc67613          	andi	a2,a2,-4
80005088:	00e5f7b3          	and	a5,a1,a4
8000508c:	00460613          	addi	a2,a2,4
80005090:	00079a63          	bnez	a5,800050a4 <_malloc_r+0x1cc>
80005094:	00159593          	slli	a1,a1,0x1
80005098:	00e5f7b3          	and	a5,a1,a4
8000509c:	00460613          	addi	a2,a2,4
800050a0:	fe078ae3          	beqz	a5,80005094 <_malloc_r+0x1bc>
800050a4:	00f00813          	li	a6,15
800050a8:	00361313          	slli	t1,a2,0x3
800050ac:	00690333          	add	t1,s2,t1
800050b0:	00030513          	mv	a0,t1
800050b4:	00c52783          	lw	a5,12(a0)
800050b8:	00060e13          	mv	t3,a2
800050bc:	2ef50263          	beq	a0,a5,800053a0 <_malloc_r+0x4c8>
800050c0:	0047a703          	lw	a4,4(a5)
800050c4:	00078413          	mv	s0,a5
800050c8:	00c7a783          	lw	a5,12(a5)
800050cc:	ffc77713          	andi	a4,a4,-4
800050d0:	409706b3          	sub	a3,a4,s1
800050d4:	2ed84263          	blt	a6,a3,800053b8 <_malloc_r+0x4e0>
800050d8:	fe06c2e3          	bltz	a3,800050bc <_malloc_r+0x1e4>
800050dc:	00e40733          	add	a4,s0,a4
800050e0:	00472683          	lw	a3,4(a4)
800050e4:	00842603          	lw	a2,8(s0)
800050e8:	00098513          	mv	a0,s3
800050ec:	0016e693          	ori	a3,a3,1
800050f0:	00d72223          	sw	a3,4(a4)
800050f4:	00f62623          	sw	a5,12(a2)
800050f8:	00c7a423          	sw	a2,8(a5)
800050fc:	598000ef          	jal	ra,80005694 <__malloc_unlock>
80005100:	00840513          	addi	a0,s0,8
80005104:	0100006f          	j	80005114 <_malloc_r+0x23c>
80005108:	00c00793          	li	a5,12
8000510c:	00f9a023          	sw	a5,0(s3)
80005110:	00000513          	li	a0,0
80005114:	02c12083          	lw	ra,44(sp)
80005118:	02812403          	lw	s0,40(sp)
8000511c:	02412483          	lw	s1,36(sp)
80005120:	02012903          	lw	s2,32(sp)
80005124:	01c12983          	lw	s3,28(sp)
80005128:	01812a03          	lw	s4,24(sp)
8000512c:	01412a83          	lw	s5,20(sp)
80005130:	01012b03          	lw	s6,16(sp)
80005134:	00c12b83          	lw	s7,12(sp)
80005138:	00812c03          	lw	s8,8(sp)
8000513c:	00412c83          	lw	s9,4(sp)
80005140:	03010113          	addi	sp,sp,48
80005144:	00008067          	ret
80005148:	20000693          	li	a3,512
8000514c:	04000613          	li	a2,64
80005150:	03f00513          	li	a0,63
80005154:	e65ff06f          	j	80004fb8 <_malloc_r+0xe0>
80005158:	00c7a403          	lw	s0,12(a5)
8000515c:	00260613          	addi	a2,a2,2
80005160:	de8794e3          	bne	a5,s0,80004f48 <_malloc_r+0x70>
80005164:	01092403          	lw	s0,16(s2)
80005168:	00890893          	addi	a7,s2,8
8000516c:	e9141ce3          	bne	s0,a7,80005004 <_malloc_r+0x12c>
80005170:	00492703          	lw	a4,4(s2)
80005174:	40265793          	srai	a5,a2,0x2
80005178:	00100593          	li	a1,1
8000517c:	00f595b3          	sll	a1,a1,a5
80005180:	eeb77ce3          	bgeu	a4,a1,80005078 <_malloc_r+0x1a0>
80005184:	00892403          	lw	s0,8(s2)
80005188:	00442a83          	lw	s5,4(s0)
8000518c:	ffcafb13          	andi	s6,s5,-4
80005190:	009b6863          	bltu	s6,s1,800051a0 <_malloc_r+0x2c8>
80005194:	409b07b3          	sub	a5,s6,s1
80005198:	00f00713          	li	a4,15
8000519c:	14f74663          	blt	a4,a5,800052e8 <_malloc_r+0x410>
800051a0:	800077b7          	lui	a5,0x80007
800051a4:	80007cb7          	lui	s9,0x80007
800051a8:	8687aa83          	lw	s5,-1944(a5) # 80006868 <__BSS_END__+0xffffff50>
800051ac:	858ca703          	lw	a4,-1960(s9) # 80006858 <__BSS_END__+0xffffff40>
800051b0:	fff00793          	li	a5,-1
800051b4:	01640a33          	add	s4,s0,s6
800051b8:	01548ab3          	add	s5,s1,s5
800051bc:	34f70a63          	beq	a4,a5,80005510 <_malloc_r+0x638>
800051c0:	000017b7          	lui	a5,0x1
800051c4:	00f78793          	addi	a5,a5,15 # 100f <reg_t6+0xff0>
800051c8:	00fa8ab3          	add	s5,s5,a5
800051cc:	fffff7b7          	lui	a5,0xfffff
800051d0:	00fafab3          	and	s5,s5,a5
800051d4:	000a8593          	mv	a1,s5
800051d8:	00098513          	mv	a0,s3
800051dc:	4bc000ef          	jal	ra,80005698 <_sbrk_r>
800051e0:	fff00793          	li	a5,-1
800051e4:	00050b93          	mv	s7,a0
800051e8:	28f50c63          	beq	a0,a5,80005480 <_malloc_r+0x5a8>
800051ec:	29456863          	bltu	a0,s4,8000547c <_malloc_r+0x5a4>
800051f0:	80007c37          	lui	s8,0x80007
800051f4:	86cc0c13          	addi	s8,s8,-1940 # 8000686c <__BSS_END__+0xffffff54>
800051f8:	000c2583          	lw	a1,0(s8)
800051fc:	00ba85b3          	add	a1,s5,a1
80005200:	00bc2023          	sw	a1,0(s8)
80005204:	00058793          	mv	a5,a1
80005208:	3aaa0463          	beq	s4,a0,800055b0 <_malloc_r+0x6d8>
8000520c:	858ca683          	lw	a3,-1960(s9)
80005210:	fff00713          	li	a4,-1
80005214:	3ae68c63          	beq	a3,a4,800055cc <_malloc_r+0x6f4>
80005218:	414b8a33          	sub	s4,s7,s4
8000521c:	00fa07b3          	add	a5,s4,a5
80005220:	00fc2023          	sw	a5,0(s8)
80005224:	007bfc93          	andi	s9,s7,7
80005228:	300c8663          	beqz	s9,80005534 <_malloc_r+0x65c>
8000522c:	000017b7          	lui	a5,0x1
80005230:	419b8bb3          	sub	s7,s7,s9
80005234:	00878593          	addi	a1,a5,8 # 1008 <reg_t6+0xfe9>
80005238:	008b8b93          	addi	s7,s7,8
8000523c:	419585b3          	sub	a1,a1,s9
80005240:	015b8ab3          	add	s5,s7,s5
80005244:	fff78793          	addi	a5,a5,-1
80005248:	415585b3          	sub	a1,a1,s5
8000524c:	00f5fa33          	and	s4,a1,a5
80005250:	000a0593          	mv	a1,s4
80005254:	00098513          	mv	a0,s3
80005258:	440000ef          	jal	ra,80005698 <_sbrk_r>
8000525c:	fff00793          	li	a5,-1
80005260:	3cf50063          	beq	a0,a5,80005620 <_malloc_r+0x748>
80005264:	41750533          	sub	a0,a0,s7
80005268:	01450ab3          	add	s5,a0,s4
8000526c:	000c2583          	lw	a1,0(s8)
80005270:	01792423          	sw	s7,8(s2)
80005274:	001aea93          	ori	s5,s5,1
80005278:	00ba05b3          	add	a1,s4,a1
8000527c:	00bc2023          	sw	a1,0(s8)
80005280:	015ba223          	sw	s5,4(s7)
80005284:	35240863          	beq	s0,s2,800055d4 <_malloc_r+0x6fc>
80005288:	00f00693          	li	a3,15
8000528c:	3566f863          	bgeu	a3,s6,800055dc <_malloc_r+0x704>
80005290:	00442703          	lw	a4,4(s0)
80005294:	ff4b0793          	addi	a5,s6,-12
80005298:	ff87f793          	andi	a5,a5,-8
8000529c:	00177713          	andi	a4,a4,1
800052a0:	00f76733          	or	a4,a4,a5
800052a4:	00e42223          	sw	a4,4(s0)
800052a8:	00500613          	li	a2,5
800052ac:	00f40733          	add	a4,s0,a5
800052b0:	00c72223          	sw	a2,4(a4)
800052b4:	00c72423          	sw	a2,8(a4)
800052b8:	36f6ee63          	bltu	a3,a5,80005634 <_malloc_r+0x75c>
800052bc:	004baa83          	lw	s5,4(s7)
800052c0:	000b8413          	mv	s0,s7
800052c4:	800077b7          	lui	a5,0x80007
800052c8:	8647a703          	lw	a4,-1948(a5) # 80006864 <__BSS_END__+0xffffff4c>
800052cc:	00b77463          	bgeu	a4,a1,800052d4 <_malloc_r+0x3fc>
800052d0:	86b7a223          	sw	a1,-1948(a5)
800052d4:	800077b7          	lui	a5,0x80007
800052d8:	8607a703          	lw	a4,-1952(a5) # 80006860 <__BSS_END__+0xffffff48>
800052dc:	1ab77663          	bgeu	a4,a1,80005488 <_malloc_r+0x5b0>
800052e0:	86b7a023          	sw	a1,-1952(a5)
800052e4:	1a40006f          	j	80005488 <_malloc_r+0x5b0>
800052e8:	0014e713          	ori	a4,s1,1
800052ec:	00e42223          	sw	a4,4(s0)
800052f0:	009404b3          	add	s1,s0,s1
800052f4:	00992423          	sw	s1,8(s2)
800052f8:	0017e793          	ori	a5,a5,1
800052fc:	00098513          	mv	a0,s3
80005300:	00f4a223          	sw	a5,4(s1)
80005304:	390000ef          	jal	ra,80005694 <__malloc_unlock>
80005308:	00840513          	addi	a0,s0,8
8000530c:	e09ff06f          	j	80005114 <_malloc_r+0x23c>
80005310:	00c42683          	lw	a3,12(s0)
80005314:	00842603          	lw	a2,8(s0)
80005318:	c41ff06f          	j	80004f58 <_malloc_r+0x80>
8000531c:	00955793          	srli	a5,a0,0x9
80005320:	00400713          	li	a4,4
80005324:	14f77263          	bgeu	a4,a5,80005468 <_malloc_r+0x590>
80005328:	01400713          	li	a4,20
8000532c:	22f76a63          	bltu	a4,a5,80005560 <_malloc_r+0x688>
80005330:	05c78693          	addi	a3,a5,92
80005334:	05b78593          	addi	a1,a5,91
80005338:	00369693          	slli	a3,a3,0x3
8000533c:	00d906b3          	add	a3,s2,a3
80005340:	0006a783          	lw	a5,0(a3)
80005344:	ff868693          	addi	a3,a3,-8
80005348:	1cf68863          	beq	a3,a5,80005518 <_malloc_r+0x640>
8000534c:	0047a703          	lw	a4,4(a5)
80005350:	ffc77713          	andi	a4,a4,-4
80005354:	00e57663          	bgeu	a0,a4,80005360 <_malloc_r+0x488>
80005358:	0087a783          	lw	a5,8(a5)
8000535c:	fef698e3          	bne	a3,a5,8000534c <_malloc_r+0x474>
80005360:	00c7a683          	lw	a3,12(a5)
80005364:	00492703          	lw	a4,4(s2)
80005368:	00d42623          	sw	a3,12(s0)
8000536c:	00f42423          	sw	a5,8(s0)
80005370:	0086a423          	sw	s0,8(a3)
80005374:	0087a623          	sw	s0,12(a5)
80005378:	cf1ff06f          	j	80005068 <_malloc_r+0x190>
8000537c:	01400713          	li	a4,20
80005380:	12f77663          	bgeu	a4,a5,800054ac <_malloc_r+0x5d4>
80005384:	05400713          	li	a4,84
80005388:	1ef76a63          	bltu	a4,a5,8000557c <_malloc_r+0x6a4>
8000538c:	00c4d793          	srli	a5,s1,0xc
80005390:	06f78613          	addi	a2,a5,111
80005394:	06e78513          	addi	a0,a5,110
80005398:	00361693          	slli	a3,a2,0x3
8000539c:	c1dff06f          	j	80004fb8 <_malloc_r+0xe0>
800053a0:	001e0e13          	addi	t3,t3,1
800053a4:	003e7793          	andi	a5,t3,3
800053a8:	00850513          	addi	a0,a0,8
800053ac:	10078e63          	beqz	a5,800054c8 <_malloc_r+0x5f0>
800053b0:	00c52783          	lw	a5,12(a0)
800053b4:	d09ff06f          	j	800050bc <_malloc_r+0x1e4>
800053b8:	00842603          	lw	a2,8(s0)
800053bc:	0014e593          	ori	a1,s1,1
800053c0:	00b42223          	sw	a1,4(s0)
800053c4:	00f62623          	sw	a5,12(a2)
800053c8:	00c7a423          	sw	a2,8(a5)
800053cc:	009404b3          	add	s1,s0,s1
800053d0:	00992a23          	sw	s1,20(s2)
800053d4:	00992823          	sw	s1,16(s2)
800053d8:	0016e793          	ori	a5,a3,1
800053dc:	0114a623          	sw	a7,12(s1)
800053e0:	0114a423          	sw	a7,8(s1)
800053e4:	00f4a223          	sw	a5,4(s1)
800053e8:	00e40733          	add	a4,s0,a4
800053ec:	00098513          	mv	a0,s3
800053f0:	00d72023          	sw	a3,0(a4)
800053f4:	2a0000ef          	jal	ra,80005694 <__malloc_unlock>
800053f8:	00840513          	addi	a0,s0,8
800053fc:	d19ff06f          	j	80005114 <_malloc_r+0x23c>
80005400:	0034d613          	srli	a2,s1,0x3
80005404:	00848793          	addi	a5,s1,8
80005408:	b29ff06f          	j	80004f30 <_malloc_r+0x58>
8000540c:	00a40733          	add	a4,s0,a0
80005410:	00472783          	lw	a5,4(a4)
80005414:	00098513          	mv	a0,s3
80005418:	0017e793          	ori	a5,a5,1
8000541c:	00f72223          	sw	a5,4(a4)
80005420:	274000ef          	jal	ra,80005694 <__malloc_unlock>
80005424:	00840513          	addi	a0,s0,8
80005428:	cedff06f          	j	80005114 <_malloc_r+0x23c>
8000542c:	0014e713          	ori	a4,s1,1
80005430:	00e42223          	sw	a4,4(s0)
80005434:	009404b3          	add	s1,s0,s1
80005438:	00992a23          	sw	s1,20(s2)
8000543c:	00992823          	sw	s1,16(s2)
80005440:	0017e713          	ori	a4,a5,1
80005444:	0114a623          	sw	a7,12(s1)
80005448:	0114a423          	sw	a7,8(s1)
8000544c:	00e4a223          	sw	a4,4(s1)
80005450:	00a40533          	add	a0,s0,a0
80005454:	00f52023          	sw	a5,0(a0)
80005458:	00098513          	mv	a0,s3
8000545c:	238000ef          	jal	ra,80005694 <__malloc_unlock>
80005460:	00840513          	addi	a0,s0,8
80005464:	cb1ff06f          	j	80005114 <_malloc_r+0x23c>
80005468:	00655793          	srli	a5,a0,0x6
8000546c:	03978693          	addi	a3,a5,57
80005470:	03878593          	addi	a1,a5,56
80005474:	00369693          	slli	a3,a3,0x3
80005478:	ec5ff06f          	j	8000533c <_malloc_r+0x464>
8000547c:	11240e63          	beq	s0,s2,80005598 <_malloc_r+0x6c0>
80005480:	00892403          	lw	s0,8(s2)
80005484:	00442a83          	lw	s5,4(s0)
80005488:	ffcafa93          	andi	s5,s5,-4
8000548c:	409a87b3          	sub	a5,s5,s1
80005490:	009ae663          	bltu	s5,s1,8000549c <_malloc_r+0x5c4>
80005494:	00f00713          	li	a4,15
80005498:	e4f748e3          	blt	a4,a5,800052e8 <_malloc_r+0x410>
8000549c:	00098513          	mv	a0,s3
800054a0:	1f4000ef          	jal	ra,80005694 <__malloc_unlock>
800054a4:	00000513          	li	a0,0
800054a8:	c6dff06f          	j	80005114 <_malloc_r+0x23c>
800054ac:	05c78613          	addi	a2,a5,92
800054b0:	05b78513          	addi	a0,a5,91
800054b4:	00361693          	slli	a3,a2,0x3
800054b8:	b01ff06f          	j	80004fb8 <_malloc_r+0xe0>
800054bc:	00832783          	lw	a5,8(t1)
800054c0:	fff60613          	addi	a2,a2,-1
800054c4:	1c679263          	bne	a5,t1,80005688 <_malloc_r+0x7b0>
800054c8:	00367793          	andi	a5,a2,3
800054cc:	ff830313          	addi	t1,t1,-8
800054d0:	fe0796e3          	bnez	a5,800054bc <_malloc_r+0x5e4>
800054d4:	00492703          	lw	a4,4(s2)
800054d8:	fff5c793          	not	a5,a1
800054dc:	00e7f7b3          	and	a5,a5,a4
800054e0:	00f92223          	sw	a5,4(s2)
800054e4:	00159593          	slli	a1,a1,0x1
800054e8:	c8b7eee3          	bltu	a5,a1,80005184 <_malloc_r+0x2ac>
800054ec:	c8058ce3          	beqz	a1,80005184 <_malloc_r+0x2ac>
800054f0:	00f5f733          	and	a4,a1,a5
800054f4:	00071a63          	bnez	a4,80005508 <_malloc_r+0x630>
800054f8:	00159593          	slli	a1,a1,0x1
800054fc:	00f5f733          	and	a4,a1,a5
80005500:	004e0e13          	addi	t3,t3,4
80005504:	fe070ae3          	beqz	a4,800054f8 <_malloc_r+0x620>
80005508:	000e0613          	mv	a2,t3
8000550c:	b9dff06f          	j	800050a8 <_malloc_r+0x1d0>
80005510:	010a8a93          	addi	s5,s5,16
80005514:	cc1ff06f          	j	800051d4 <_malloc_r+0x2fc>
80005518:	00492503          	lw	a0,4(s2)
8000551c:	4025d593          	srai	a1,a1,0x2
80005520:	00100713          	li	a4,1
80005524:	00b71733          	sll	a4,a4,a1
80005528:	00a76733          	or	a4,a4,a0
8000552c:	00e92223          	sw	a4,4(s2)
80005530:	e39ff06f          	j	80005368 <_malloc_r+0x490>
80005534:	015b85b3          	add	a1,s7,s5
80005538:	40b005b3          	neg	a1,a1
8000553c:	01459593          	slli	a1,a1,0x14
80005540:	0145da13          	srli	s4,a1,0x14
80005544:	000a0593          	mv	a1,s4
80005548:	00098513          	mv	a0,s3
8000554c:	14c000ef          	jal	ra,80005698 <_sbrk_r>
80005550:	fff00793          	li	a5,-1
80005554:	d0f518e3          	bne	a0,a5,80005264 <_malloc_r+0x38c>
80005558:	00000a13          	li	s4,0
8000555c:	d11ff06f          	j	8000526c <_malloc_r+0x394>
80005560:	05400713          	li	a4,84
80005564:	08f76263          	bltu	a4,a5,800055e8 <_malloc_r+0x710>
80005568:	00c55793          	srli	a5,a0,0xc
8000556c:	06f78693          	addi	a3,a5,111
80005570:	06e78593          	addi	a1,a5,110
80005574:	00369693          	slli	a3,a3,0x3
80005578:	dc5ff06f          	j	8000533c <_malloc_r+0x464>
8000557c:	15400713          	li	a4,340
80005580:	08f76263          	bltu	a4,a5,80005604 <_malloc_r+0x72c>
80005584:	00f4d793          	srli	a5,s1,0xf
80005588:	07878613          	addi	a2,a5,120
8000558c:	07778513          	addi	a0,a5,119
80005590:	00361693          	slli	a3,a2,0x3
80005594:	a25ff06f          	j	80004fb8 <_malloc_r+0xe0>
80005598:	80007c37          	lui	s8,0x80007
8000559c:	86cc0c13          	addi	s8,s8,-1940 # 8000686c <__BSS_END__+0xffffff54>
800055a0:	000c2783          	lw	a5,0(s8)
800055a4:	00fa87b3          	add	a5,s5,a5
800055a8:	00fc2023          	sw	a5,0(s8)
800055ac:	c61ff06f          	j	8000520c <_malloc_r+0x334>
800055b0:	014a1713          	slli	a4,s4,0x14
800055b4:	c4071ce3          	bnez	a4,8000520c <_malloc_r+0x334>
800055b8:	00892403          	lw	s0,8(s2)
800055bc:	015b0ab3          	add	s5,s6,s5
800055c0:	001aea93          	ori	s5,s5,1
800055c4:	01542223          	sw	s5,4(s0)
800055c8:	cfdff06f          	j	800052c4 <_malloc_r+0x3ec>
800055cc:	857cac23          	sw	s7,-1960(s9)
800055d0:	c55ff06f          	j	80005224 <_malloc_r+0x34c>
800055d4:	000b8413          	mv	s0,s7
800055d8:	cedff06f          	j	800052c4 <_malloc_r+0x3ec>
800055dc:	00100793          	li	a5,1
800055e0:	00fba223          	sw	a5,4(s7)
800055e4:	eb9ff06f          	j	8000549c <_malloc_r+0x5c4>
800055e8:	15400713          	li	a4,340
800055ec:	06f76263          	bltu	a4,a5,80005650 <_malloc_r+0x778>
800055f0:	00f55793          	srli	a5,a0,0xf
800055f4:	07878693          	addi	a3,a5,120
800055f8:	07778593          	addi	a1,a5,119
800055fc:	00369693          	slli	a3,a3,0x3
80005600:	d3dff06f          	j	8000533c <_malloc_r+0x464>
80005604:	55400713          	li	a4,1364
80005608:	06f76263          	bltu	a4,a5,8000566c <_malloc_r+0x794>
8000560c:	0124d793          	srli	a5,s1,0x12
80005610:	07d78613          	addi	a2,a5,125
80005614:	07c78513          	addi	a0,a5,124
80005618:	00361693          	slli	a3,a2,0x3
8000561c:	99dff06f          	j	80004fb8 <_malloc_r+0xe0>
80005620:	ff8c8c93          	addi	s9,s9,-8
80005624:	019a8ab3          	add	s5,s5,s9
80005628:	417a8ab3          	sub	s5,s5,s7
8000562c:	00000a13          	li	s4,0
80005630:	c3dff06f          	j	8000526c <_malloc_r+0x394>
80005634:	00840593          	addi	a1,s0,8
80005638:	00098513          	mv	a0,s3
8000563c:	1fc000ef          	jal	ra,80005838 <_free_r>
80005640:	00892403          	lw	s0,8(s2)
80005644:	000c2583          	lw	a1,0(s8)
80005648:	00442a83          	lw	s5,4(s0)
8000564c:	c79ff06f          	j	800052c4 <_malloc_r+0x3ec>
80005650:	55400713          	li	a4,1364
80005654:	02f76463          	bltu	a4,a5,8000567c <_malloc_r+0x7a4>
80005658:	01255793          	srli	a5,a0,0x12
8000565c:	07d78693          	addi	a3,a5,125
80005660:	07c78593          	addi	a1,a5,124
80005664:	00369693          	slli	a3,a3,0x3
80005668:	cd5ff06f          	j	8000533c <_malloc_r+0x464>
8000566c:	3f800693          	li	a3,1016
80005670:	07f00613          	li	a2,127
80005674:	07e00513          	li	a0,126
80005678:	941ff06f          	j	80004fb8 <_malloc_r+0xe0>
8000567c:	3f800693          	li	a3,1016
80005680:	07e00593          	li	a1,126
80005684:	cb9ff06f          	j	8000533c <_malloc_r+0x464>
80005688:	00492783          	lw	a5,4(s2)
8000568c:	e59ff06f          	j	800054e4 <_malloc_r+0x60c>

80005690 <__malloc_lock>:
80005690:	00008067          	ret

80005694 <__malloc_unlock>:
80005694:	00008067          	ret

80005698 <_sbrk_r>:
80005698:	ff010113          	addi	sp,sp,-16
8000569c:	00812423          	sw	s0,8(sp)
800056a0:	00912223          	sw	s1,4(sp)
800056a4:	00050413          	mv	s0,a0
800056a8:	800074b7          	lui	s1,0x80007
800056ac:	00058513          	mv	a0,a1
800056b0:	00112623          	sw	ra,12(sp)
800056b4:	9004aa23          	sw	zero,-1772(s1) # 80006914 <__BSS_END__+0xfffffffc>
800056b8:	ad1fe0ef          	jal	ra,80004188 <_sbrk>
800056bc:	fff00793          	li	a5,-1
800056c0:	00f50c63          	beq	a0,a5,800056d8 <_sbrk_r+0x40>
800056c4:	00c12083          	lw	ra,12(sp)
800056c8:	00812403          	lw	s0,8(sp)
800056cc:	00412483          	lw	s1,4(sp)
800056d0:	01010113          	addi	sp,sp,16
800056d4:	00008067          	ret
800056d8:	9144a783          	lw	a5,-1772(s1)
800056dc:	fe0784e3          	beqz	a5,800056c4 <_sbrk_r+0x2c>
800056e0:	00c12083          	lw	ra,12(sp)
800056e4:	00f42023          	sw	a5,0(s0)
800056e8:	00812403          	lw	s0,8(sp)
800056ec:	00412483          	lw	s1,4(sp)
800056f0:	01010113          	addi	sp,sp,16
800056f4:	00008067          	ret

800056f8 <_malloc_trim_r>:
800056f8:	fe010113          	addi	sp,sp,-32
800056fc:	01312623          	sw	s3,12(sp)
80005700:	800069b7          	lui	s3,0x80006
80005704:	00812c23          	sw	s0,24(sp)
80005708:	00912a23          	sw	s1,20(sp)
8000570c:	01212823          	sw	s2,16(sp)
80005710:	01412423          	sw	s4,8(sp)
80005714:	00112e23          	sw	ra,28(sp)
80005718:	00058a13          	mv	s4,a1
8000571c:	00050913          	mv	s2,a0
80005720:	43098993          	addi	s3,s3,1072 # 80006430 <__BSS_END__+0xfffffb18>
80005724:	f6dff0ef          	jal	ra,80005690 <__malloc_lock>
80005728:	0089a703          	lw	a4,8(s3)
8000572c:	000017b7          	lui	a5,0x1
80005730:	fef78413          	addi	s0,a5,-17 # fef <reg_t6+0xfd0>
80005734:	00472483          	lw	s1,4(a4)
80005738:	41440433          	sub	s0,s0,s4
8000573c:	ffc4f493          	andi	s1,s1,-4
80005740:	00940433          	add	s0,s0,s1
80005744:	00c45413          	srli	s0,s0,0xc
80005748:	fff40413          	addi	s0,s0,-1
8000574c:	00c41413          	slli	s0,s0,0xc
80005750:	00f44e63          	blt	s0,a5,8000576c <_malloc_trim_r+0x74>
80005754:	00000593          	li	a1,0
80005758:	00090513          	mv	a0,s2
8000575c:	f3dff0ef          	jal	ra,80005698 <_sbrk_r>
80005760:	0089a783          	lw	a5,8(s3)
80005764:	009787b3          	add	a5,a5,s1
80005768:	02f50863          	beq	a0,a5,80005798 <_malloc_trim_r+0xa0>
8000576c:	00090513          	mv	a0,s2
80005770:	f25ff0ef          	jal	ra,80005694 <__malloc_unlock>
80005774:	01c12083          	lw	ra,28(sp)
80005778:	01812403          	lw	s0,24(sp)
8000577c:	01412483          	lw	s1,20(sp)
80005780:	01012903          	lw	s2,16(sp)
80005784:	00c12983          	lw	s3,12(sp)
80005788:	00812a03          	lw	s4,8(sp)
8000578c:	00000513          	li	a0,0
80005790:	02010113          	addi	sp,sp,32
80005794:	00008067          	ret
80005798:	408005b3          	neg	a1,s0
8000579c:	00090513          	mv	a0,s2
800057a0:	ef9ff0ef          	jal	ra,80005698 <_sbrk_r>
800057a4:	fff00793          	li	a5,-1
800057a8:	04f50a63          	beq	a0,a5,800057fc <_malloc_trim_r+0x104>
800057ac:	800077b7          	lui	a5,0x80007
800057b0:	86c78793          	addi	a5,a5,-1940 # 8000686c <__BSS_END__+0xffffff54>
800057b4:	0007a703          	lw	a4,0(a5)
800057b8:	0089a683          	lw	a3,8(s3)
800057bc:	408484b3          	sub	s1,s1,s0
800057c0:	0014e493          	ori	s1,s1,1
800057c4:	40870433          	sub	s0,a4,s0
800057c8:	00090513          	mv	a0,s2
800057cc:	0096a223          	sw	s1,4(a3)
800057d0:	0087a023          	sw	s0,0(a5)
800057d4:	ec1ff0ef          	jal	ra,80005694 <__malloc_unlock>
800057d8:	01c12083          	lw	ra,28(sp)
800057dc:	01812403          	lw	s0,24(sp)
800057e0:	01412483          	lw	s1,20(sp)
800057e4:	01012903          	lw	s2,16(sp)
800057e8:	00c12983          	lw	s3,12(sp)
800057ec:	00812a03          	lw	s4,8(sp)
800057f0:	00100513          	li	a0,1
800057f4:	02010113          	addi	sp,sp,32
800057f8:	00008067          	ret
800057fc:	00000593          	li	a1,0
80005800:	00090513          	mv	a0,s2
80005804:	e95ff0ef          	jal	ra,80005698 <_sbrk_r>
80005808:	0089a703          	lw	a4,8(s3)
8000580c:	00f00693          	li	a3,15
80005810:	40e507b3          	sub	a5,a0,a4
80005814:	f4f6dce3          	bge	a3,a5,8000576c <_malloc_trim_r+0x74>
80005818:	800076b7          	lui	a3,0x80007
8000581c:	8586a683          	lw	a3,-1960(a3) # 80006858 <__BSS_END__+0xffffff40>
80005820:	0017e793          	ori	a5,a5,1
80005824:	00f72223          	sw	a5,4(a4)
80005828:	40d50533          	sub	a0,a0,a3
8000582c:	800076b7          	lui	a3,0x80007
80005830:	86a6a623          	sw	a0,-1940(a3) # 8000686c <__BSS_END__+0xffffff54>
80005834:	f39ff06f          	j	8000576c <_malloc_trim_r+0x74>

80005838 <_free_r>:
80005838:	12058a63          	beqz	a1,8000596c <_free_r+0x134>
8000583c:	ff010113          	addi	sp,sp,-16
80005840:	00812423          	sw	s0,8(sp)
80005844:	00912223          	sw	s1,4(sp)
80005848:	00058413          	mv	s0,a1
8000584c:	00050493          	mv	s1,a0
80005850:	00112623          	sw	ra,12(sp)
80005854:	e3dff0ef          	jal	ra,80005690 <__malloc_lock>
80005858:	ffc42803          	lw	a6,-4(s0)
8000585c:	ff840713          	addi	a4,s0,-8
80005860:	800065b7          	lui	a1,0x80006
80005864:	ffe87793          	andi	a5,a6,-2
80005868:	00f70633          	add	a2,a4,a5
8000586c:	43058593          	addi	a1,a1,1072 # 80006430 <__BSS_END__+0xfffffb18>
80005870:	00462683          	lw	a3,4(a2)
80005874:	0085a503          	lw	a0,8(a1)
80005878:	ffc6f693          	andi	a3,a3,-4
8000587c:	1ac50a63          	beq	a0,a2,80005a30 <_free_r+0x1f8>
80005880:	00d62223          	sw	a3,4(a2)
80005884:	00187813          	andi	a6,a6,1
80005888:	00d60533          	add	a0,a2,a3
8000588c:	0a081063          	bnez	a6,8000592c <_free_r+0xf4>
80005890:	ff842303          	lw	t1,-8(s0)
80005894:	00452803          	lw	a6,4(a0)
80005898:	80006537          	lui	a0,0x80006
8000589c:	40670733          	sub	a4,a4,t1
800058a0:	00872883          	lw	a7,8(a4)
800058a4:	43850513          	addi	a0,a0,1080 # 80006438 <__BSS_END__+0xfffffb20>
800058a8:	006787b3          	add	a5,a5,t1
800058ac:	00187813          	andi	a6,a6,1
800058b0:	14a88063          	beq	a7,a0,800059f0 <_free_r+0x1b8>
800058b4:	00c72303          	lw	t1,12(a4)
800058b8:	0068a623          	sw	t1,12(a7)
800058bc:	01132423          	sw	a7,8(t1)
800058c0:	1e080463          	beqz	a6,80005aa8 <_free_r+0x270>
800058c4:	0017e693          	ori	a3,a5,1
800058c8:	00d72223          	sw	a3,4(a4)
800058cc:	00f62023          	sw	a5,0(a2)
800058d0:	1ff00693          	li	a3,511
800058d4:	0af6e863          	bltu	a3,a5,80005984 <_free_r+0x14c>
800058d8:	ff87f693          	andi	a3,a5,-8
800058dc:	00868693          	addi	a3,a3,8
800058e0:	0045a503          	lw	a0,4(a1)
800058e4:	00d586b3          	add	a3,a1,a3
800058e8:	0006a603          	lw	a2,0(a3)
800058ec:	0057d813          	srli	a6,a5,0x5
800058f0:	00100793          	li	a5,1
800058f4:	010797b3          	sll	a5,a5,a6
800058f8:	00a7e7b3          	or	a5,a5,a0
800058fc:	ff868513          	addi	a0,a3,-8
80005900:	00a72623          	sw	a0,12(a4)
80005904:	00c72423          	sw	a2,8(a4)
80005908:	00f5a223          	sw	a5,4(a1)
8000590c:	00e6a023          	sw	a4,0(a3)
80005910:	00e62623          	sw	a4,12(a2)
80005914:	00812403          	lw	s0,8(sp)
80005918:	00c12083          	lw	ra,12(sp)
8000591c:	00048513          	mv	a0,s1
80005920:	00412483          	lw	s1,4(sp)
80005924:	01010113          	addi	sp,sp,16
80005928:	d6dff06f          	j	80005694 <__malloc_unlock>
8000592c:	00452503          	lw	a0,4(a0)
80005930:	00157513          	andi	a0,a0,1
80005934:	02051e63          	bnez	a0,80005970 <_free_r+0x138>
80005938:	80006537          	lui	a0,0x80006
8000593c:	00d787b3          	add	a5,a5,a3
80005940:	43850513          	addi	a0,a0,1080 # 80006438 <__BSS_END__+0xfffffb20>
80005944:	00862683          	lw	a3,8(a2)
80005948:	0017e893          	ori	a7,a5,1
8000594c:	00f70833          	add	a6,a4,a5
80005950:	16a68863          	beq	a3,a0,80005ac0 <_free_r+0x288>
80005954:	00c62603          	lw	a2,12(a2)
80005958:	00c6a623          	sw	a2,12(a3)
8000595c:	00d62423          	sw	a3,8(a2)
80005960:	01172223          	sw	a7,4(a4)
80005964:	00f82023          	sw	a5,0(a6)
80005968:	f69ff06f          	j	800058d0 <_free_r+0x98>
8000596c:	00008067          	ret
80005970:	0017e693          	ori	a3,a5,1
80005974:	fed42e23          	sw	a3,-4(s0)
80005978:	00f62023          	sw	a5,0(a2)
8000597c:	1ff00693          	li	a3,511
80005980:	f4f6fce3          	bgeu	a3,a5,800058d8 <_free_r+0xa0>
80005984:	0097d693          	srli	a3,a5,0x9
80005988:	00400613          	li	a2,4
8000598c:	0ed66c63          	bltu	a2,a3,80005a84 <_free_r+0x24c>
80005990:	0067d693          	srli	a3,a5,0x6
80005994:	03968813          	addi	a6,a3,57
80005998:	03868613          	addi	a2,a3,56
8000599c:	00381813          	slli	a6,a6,0x3
800059a0:	01058833          	add	a6,a1,a6
800059a4:	00082683          	lw	a3,0(a6)
800059a8:	ff880813          	addi	a6,a6,-8
800059ac:	12d80863          	beq	a6,a3,80005adc <_free_r+0x2a4>
800059b0:	0046a603          	lw	a2,4(a3)
800059b4:	ffc67613          	andi	a2,a2,-4
800059b8:	00c7f663          	bgeu	a5,a2,800059c4 <_free_r+0x18c>
800059bc:	0086a683          	lw	a3,8(a3)
800059c0:	fed818e3          	bne	a6,a3,800059b0 <_free_r+0x178>
800059c4:	00c6a803          	lw	a6,12(a3)
800059c8:	01072623          	sw	a6,12(a4)
800059cc:	00d72423          	sw	a3,8(a4)
800059d0:	00812403          	lw	s0,8(sp)
800059d4:	00c12083          	lw	ra,12(sp)
800059d8:	00e82423          	sw	a4,8(a6)
800059dc:	00048513          	mv	a0,s1
800059e0:	00412483          	lw	s1,4(sp)
800059e4:	00e6a623          	sw	a4,12(a3)
800059e8:	01010113          	addi	sp,sp,16
800059ec:	ca9ff06f          	j	80005694 <__malloc_unlock>
800059f0:	14081663          	bnez	a6,80005b3c <_free_r+0x304>
800059f4:	00c62583          	lw	a1,12(a2)
800059f8:	00862603          	lw	a2,8(a2)
800059fc:	00f687b3          	add	a5,a3,a5
80005a00:	00812403          	lw	s0,8(sp)
80005a04:	00b62623          	sw	a1,12(a2)
80005a08:	00c5a423          	sw	a2,8(a1)
80005a0c:	0017e693          	ori	a3,a5,1
80005a10:	00c12083          	lw	ra,12(sp)
80005a14:	00d72223          	sw	a3,4(a4)
80005a18:	00048513          	mv	a0,s1
80005a1c:	00f70733          	add	a4,a4,a5
80005a20:	00412483          	lw	s1,4(sp)
80005a24:	00f72023          	sw	a5,0(a4)
80005a28:	01010113          	addi	sp,sp,16
80005a2c:	c69ff06f          	j	80005694 <__malloc_unlock>
80005a30:	00187813          	andi	a6,a6,1
80005a34:	00d787b3          	add	a5,a5,a3
80005a38:	02081063          	bnez	a6,80005a58 <_free_r+0x220>
80005a3c:	ff842503          	lw	a0,-8(s0)
80005a40:	40a70733          	sub	a4,a4,a0
80005a44:	00c72683          	lw	a3,12(a4)
80005a48:	00872603          	lw	a2,8(a4)
80005a4c:	00a787b3          	add	a5,a5,a0
80005a50:	00d62623          	sw	a3,12(a2)
80005a54:	00c6a423          	sw	a2,8(a3)
80005a58:	800076b7          	lui	a3,0x80007
80005a5c:	0017e613          	ori	a2,a5,1
80005a60:	85c6a683          	lw	a3,-1956(a3) # 8000685c <__BSS_END__+0xffffff44>
80005a64:	00c72223          	sw	a2,4(a4)
80005a68:	00e5a423          	sw	a4,8(a1)
80005a6c:	ead7e4e3          	bltu	a5,a3,80005914 <_free_r+0xdc>
80005a70:	800077b7          	lui	a5,0x80007
80005a74:	8687a583          	lw	a1,-1944(a5) # 80006868 <__BSS_END__+0xffffff50>
80005a78:	00048513          	mv	a0,s1
80005a7c:	c7dff0ef          	jal	ra,800056f8 <_malloc_trim_r>
80005a80:	e95ff06f          	j	80005914 <_free_r+0xdc>
80005a84:	01400613          	li	a2,20
80005a88:	02d67463          	bgeu	a2,a3,80005ab0 <_free_r+0x278>
80005a8c:	05400613          	li	a2,84
80005a90:	06d66463          	bltu	a2,a3,80005af8 <_free_r+0x2c0>
80005a94:	00c7d693          	srli	a3,a5,0xc
80005a98:	06f68813          	addi	a6,a3,111
80005a9c:	06e68613          	addi	a2,a3,110
80005aa0:	00381813          	slli	a6,a6,0x3
80005aa4:	efdff06f          	j	800059a0 <_free_r+0x168>
80005aa8:	00d787b3          	add	a5,a5,a3
80005aac:	e99ff06f          	j	80005944 <_free_r+0x10c>
80005ab0:	05c68813          	addi	a6,a3,92
80005ab4:	05b68613          	addi	a2,a3,91
80005ab8:	00381813          	slli	a6,a6,0x3
80005abc:	ee5ff06f          	j	800059a0 <_free_r+0x168>
80005ac0:	00e5aa23          	sw	a4,20(a1)
80005ac4:	00e5a823          	sw	a4,16(a1)
80005ac8:	00a72623          	sw	a0,12(a4)
80005acc:	00a72423          	sw	a0,8(a4)
80005ad0:	01172223          	sw	a7,4(a4)
80005ad4:	00f82023          	sw	a5,0(a6)
80005ad8:	e3dff06f          	j	80005914 <_free_r+0xdc>
80005adc:	0045a503          	lw	a0,4(a1)
80005ae0:	40265613          	srai	a2,a2,0x2
80005ae4:	00100793          	li	a5,1
80005ae8:	00c79633          	sll	a2,a5,a2
80005aec:	00a66633          	or	a2,a2,a0
80005af0:	00c5a223          	sw	a2,4(a1)
80005af4:	ed5ff06f          	j	800059c8 <_free_r+0x190>
80005af8:	15400613          	li	a2,340
80005afc:	00d66c63          	bltu	a2,a3,80005b14 <_free_r+0x2dc>
80005b00:	00f7d693          	srli	a3,a5,0xf
80005b04:	07868813          	addi	a6,a3,120
80005b08:	07768613          	addi	a2,a3,119
80005b0c:	00381813          	slli	a6,a6,0x3
80005b10:	e91ff06f          	j	800059a0 <_free_r+0x168>
80005b14:	55400613          	li	a2,1364
80005b18:	00d66c63          	bltu	a2,a3,80005b30 <_free_r+0x2f8>
80005b1c:	0127d693          	srli	a3,a5,0x12
80005b20:	07d68813          	addi	a6,a3,125
80005b24:	07c68613          	addi	a2,a3,124
80005b28:	00381813          	slli	a6,a6,0x3
80005b2c:	e75ff06f          	j	800059a0 <_free_r+0x168>
80005b30:	3f800813          	li	a6,1016
80005b34:	07e00613          	li	a2,126
80005b38:	e69ff06f          	j	800059a0 <_free_r+0x168>
80005b3c:	0017e693          	ori	a3,a5,1
80005b40:	00d72223          	sw	a3,4(a4)
80005b44:	00f62023          	sw	a5,0(a2)
80005b48:	dcdff06f          	j	80005914 <_free_r+0xdc>

Disassembly of section .eh_frame:

80005b4c <.eh_frame>:
80005b4c:	0010                	0x10
80005b4e:	0000                	unimp
80005b50:	0000                	unimp
80005b52:	0000                	unimp
80005b54:	7a01                	lui	s4,0xfffe0
80005b56:	0052                	c.slli	zero,0x14
80005b58:	7c01                	lui	s8,0xfffe0
80005b5a:	0101                	addi	sp,sp,0
80005b5c:	00020c1b          	0x20c1b
80005b60:	0034                	addi	a3,sp,8
80005b62:	0000                	unimp
80005b64:	0018                	0x18
80005b66:	0000                	unimp
80005b68:	a51c                	fsd	fa5,8(a0)
80005b6a:	ffff                	0xffff
80005b6c:	1218                	addi	a4,sp,288
80005b6e:	0000                	unimp
80005b70:	4400                	lw	s0,8(s0)
80005b72:	d00e                	sw	gp,32(sp)
80005b74:	0201                	addi	tp,tp,0
80005b76:	8140                	0x8140
80005b78:	8801                	andi	s0,s0,0
80005b7a:	8902                	jr	s2
80005b7c:	93049203          	lh	tp,-1744(s1)
80005b80:	9405                	srai	s0,s0,0x21
80005b82:	9506                	add	a0,a0,ra
80005b84:	97089607          	0x97089607
80005b88:	9809                	andi	s0,s0,-30
80005b8a:	990a                	add	s2,s2,sp
80005b8c:	9b0c9a0b          	0x9b0c9a0b
80005b90:	a80d                	j	80005bc2 <_free_r+0x38a>
80005b92:	a90e                	fsd	ft3,144(sp)
80005b94:	0010b20f          	0x10b20f
80005b98:	0024                	addi	s1,sp,8
80005b9a:	0000                	unimp
80005b9c:	0050                	addi	a2,sp,4
80005b9e:	0000                	unimp
80005ba0:	b6fc                	fsd	fa5,232(a3)
80005ba2:	ffff                	0xffff
80005ba4:	1140                	addi	s0,sp,164
80005ba6:	0000                	unimp
80005ba8:	4400                	lw	s0,8(s0)
80005baa:	b00e                	fsd	ft3,32(sp)
80005bac:	6001                	0x6001
80005bae:	0181                	addi	gp,gp,0
80005bb0:	0288                	addi	a0,sp,320
80005bb2:	0389                	addi	t2,t2,2
80005bb4:	0492                	slli	s1,s1,0x4
80005bb6:	06940593          	addi	a1,s0,105
80005bba:	0795                	addi	a5,a5,5
80005bbc:	0896                	slli	a7,a7,0x5
80005bbe:	0000                	unimp
80005bc0:	0010                	0x10
80005bc2:	0000                	unimp
80005bc4:	0078                	addi	a4,sp,12
80005bc6:	0000                	unimp
80005bc8:	c814                	sw	a3,16(s0)
80005bca:	ffff                	0xffff
80005bcc:	0014                	0x14
80005bce:	0000                	unimp
80005bd0:	0000                	unimp
80005bd2:	0000                	unimp
80005bd4:	0018                	0x18
80005bd6:	0000                	unimp
80005bd8:	008c                	addi	a1,sp,64
80005bda:	0000                	unimp
80005bdc:	c814                	sw	a3,16(s0)
80005bde:	ffff                	0xffff
80005be0:	0230                	addi	a2,sp,264
80005be2:	0000                	unimp
80005be4:	4400                	lw	s0,8(s0)
80005be6:	c00e                	sw	gp,0(sp)
80005be8:	4c01                	li	s8,0
80005bea:	0181                	addi	gp,gp,0
80005bec:	0288                	addi	a0,sp,320
80005bee:	0389                	addi	t2,t2,2
80005bf0:	0028                	addi	a0,sp,8
80005bf2:	0000                	unimp
80005bf4:	00a8                	addi	a0,sp,72
80005bf6:	0000                	unimp
80005bf8:	ca28                	sw	a0,80(a2)
80005bfa:	ffff                	0xffff
80005bfc:	01e8                	addi	a0,sp,204
80005bfe:	0000                	unimp
80005c00:	4400                	lw	s0,8(s0)
80005c02:	300e                	fld	ft0,224(sp)
80005c04:	8168                	0x8168
80005c06:	8801                	andi	s0,s0,0
80005c08:	8902                	jr	s2
80005c0a:	93049203          	lh	tp,-1744(s1)
80005c0e:	9405                	srai	s0,s0,0x21
80005c10:	9506                	add	a0,a0,ra
80005c12:	97089607          	0x97089607
80005c16:	9809                	andi	s0,s0,-30
80005c18:	000a                	c.slli	zero,0x2
80005c1a:	0000                	unimp
80005c1c:	0018                	0x18
80005c1e:	0000                	unimp
80005c20:	00d4                	addi	a3,sp,68
80005c22:	0000                	unimp
80005c24:	cbe4                	sw	s1,84(a5)
80005c26:	ffff                	0xffff
80005c28:	04d0                	addi	a2,sp,580
80005c2a:	0000                	unimp
80005c2c:	4400                	lw	s0,8(s0)
80005c2e:	100e                	c.slli	zero,0x23
80005c30:	814c                	0x814c
80005c32:	8801                	andi	s0,s0,0
80005c34:	8902                	jr	s2
80005c36:	00140003          	lb	zero,1(s0)
80005c3a:	0000                	unimp
80005c3c:	00f0                	addi	a2,sp,76
80005c3e:	0000                	unimp
80005c40:	d098                	sw	a4,32(s1)
80005c42:	ffff                	0xffff
80005c44:	02cc                	addi	a1,sp,324
80005c46:	0000                	unimp
80005c48:	4400                	lw	s0,8(s0)
80005c4a:	100e                	c.slli	zero,0x23
80005c4c:	8144                	0x8144
80005c4e:	0001                	nop
80005c50:	001c                	0x1c
80005c52:	0000                	unimp
80005c54:	0108                	addi	a0,sp,128
80005c56:	0000                	unimp
80005c58:	d34c                	sw	a1,36(a4)
80005c5a:	ffff                	0xffff
80005c5c:	05e4                	addi	s1,sp,716
80005c5e:	0000                	unimp
80005c60:	4400                	lw	s0,8(s0)
80005c62:	200e                	fld	ft0,192(sp)
80005c64:	8154                	0x8154
80005c66:	8801                	andi	s0,s0,0
80005c68:	8902                	jr	s2
80005c6a:	93049203          	lh	tp,-1744(s1)
80005c6e:	0005                	c.nop	1
80005c70:	002c                	addi	a1,sp,8
80005c72:	0000                	unimp
80005c74:	0128                	addi	a0,sp,136
80005c76:	0000                	unimp
80005c78:	d910                	sw	a2,48(a0)
80005c7a:	ffff                	0xffff
80005c7c:	0338                	addi	a4,sp,392
80005c7e:	0000                	unimp
80005c80:	4400                	lw	s0,8(s0)
80005c82:	a00e                	fsd	ft3,0(sp)
80005c84:	7401                	lui	s0,0xfffe0
80005c86:	0181                	addi	gp,gp,0
80005c88:	0288                	addi	a0,sp,320
80005c8a:	0389                	addi	t2,t2,2
80005c8c:	0492                	slli	s1,s1,0x4
80005c8e:	06940593          	addi	a1,s0,105 # fffe0069 <__BSS_END__+0x7ffd9751>
80005c92:	0795                	addi	a5,a5,5
80005c94:	0896                	slli	a7,a7,0x5
80005c96:	0a980997          	auipc	s3,0xa980
80005c9a:	0b99                	addi	s7,s7,6
80005c9c:	0c9a                	slli	s9,s9,0x6
80005c9e:	002c0d9b          	0x2c0d9b
80005ca2:	0000                	unimp
80005ca4:	0158                	addi	a4,sp,132
80005ca6:	0000                	unimp
80005ca8:	dc18                	sw	a4,56(s0)
80005caa:	ffff                	0xffff
80005cac:	032c                	addi	a1,sp,392
80005cae:	0000                	unimp
80005cb0:	4400                	lw	s0,8(s0)
80005cb2:	500e                	0x500e
80005cb4:	8174                	0x8174
80005cb6:	8801                	andi	s0,s0,0
80005cb8:	8902                	jr	s2
80005cba:	93049203          	lh	tp,-1744(s1)
80005cbe:	9405                	srai	s0,s0,0x21
80005cc0:	9506                	add	a0,a0,ra
80005cc2:	97089607          	0x97089607
80005cc6:	9809                	andi	s0,s0,-30
80005cc8:	990a                	add	s2,s2,sp
80005cca:	9b0c9a0b          	0x9b0c9a0b
80005cce:	000d                	c.nop	3
80005cd0:	002c                	addi	a1,sp,8
80005cd2:	0000                	unimp
80005cd4:	0188                	addi	a0,sp,192
80005cd6:	0000                	unimp
80005cd8:	df14                	sw	a3,56(a4)
80005cda:	ffff                	0xffff
80005cdc:	031c                	addi	a5,sp,384
80005cde:	0000                	unimp
80005ce0:	4400                	lw	s0,8(s0)
80005ce2:	500e                	0x500e
80005ce4:	8174                	0x8174
80005ce6:	8801                	andi	s0,s0,0
80005ce8:	8902                	jr	s2
80005cea:	93049203          	lh	tp,-1744(s1)
80005cee:	9405                	srai	s0,s0,0x21
80005cf0:	9506                	add	a0,a0,ra
80005cf2:	97089607          	0x97089607
80005cf6:	9809                	andi	s0,s0,-30
80005cf8:	990a                	add	s2,s2,sp
80005cfa:	9b0c9a0b          	0x9b0c9a0b
80005cfe:	000d                	c.nop	3
80005d00:	0020                	addi	s0,sp,8
80005d02:	0000                	unimp
80005d04:	01b8                	addi	a4,sp,200
80005d06:	0000                	unimp
80005d08:	e200                	fsw	fs0,0(a2)
80005d0a:	ffff                	0xffff
80005d0c:	0220                	addi	s0,sp,264
80005d0e:	0000                	unimp
80005d10:	4400                	lw	s0,8(s0)
80005d12:	500e                	0x500e
80005d14:	8158                	0x8158
80005d16:	8801                	andi	s0,s0,0
80005d18:	8902                	jr	s2
80005d1a:	93049203          	lh	tp,-1744(s1)
80005d1e:	9405                	srai	s0,s0,0x21
80005d20:	0006                	c.slli	zero,0x1
	...

Disassembly of section .init_array:

80006000 <__init_array_start>:
80006000:	006c                	addi	a1,sp,12
80006002:	8000                	0x8000

Disassembly of section .data:

80006008 <impure_data>:
80006008:	0000                	unimp
8000600a:	0000                	unimp
8000600c:	62f4                	flw	fa3,68(a3)
8000600e:	8000                	0x8000
80006010:	635c                	flw	fa5,4(a4)
80006012:	8000                	0x8000
80006014:	63c4                	flw	fs1,4(a5)
80006016:	8000                	0x8000
	...
800060b0:	0001                	nop
800060b2:	0000                	unimp
800060b4:	0000                	unimp
800060b6:	0000                	unimp
800060b8:	330e                	fld	ft6,224(sp)
800060ba:	abcd                	j	800066ac <__malloc_av_+0x27c>
800060bc:	1234                	addi	a3,sp,296
800060be:	e66d                	bnez	a2,800061a8 <impure_data+0x1a0>
800060c0:	deec                	sw	a1,124(a3)
800060c2:	0005                	c.nop	1
800060c4:	0000000b          	0xb
	...

80006430 <__malloc_av_>:
	...
80006438:	6430                	flw	fa2,72(s0)
8000643a:	8000                	0x8000
8000643c:	6430                	flw	fa2,72(s0)
8000643e:	8000                	0x8000
80006440:	6438                	flw	fa4,72(s0)
80006442:	8000                	0x8000
80006444:	6438                	flw	fa4,72(s0)
80006446:	8000                	0x8000
80006448:	6440                	flw	fs0,12(s0)
8000644a:	8000                	0x8000
8000644c:	6440                	flw	fs0,12(s0)
8000644e:	8000                	0x8000
80006450:	6448                	flw	fa0,12(s0)
80006452:	8000                	0x8000
80006454:	6448                	flw	fa0,12(s0)
80006456:	8000                	0x8000
80006458:	6450                	flw	fa2,12(s0)
8000645a:	8000                	0x8000
8000645c:	6450                	flw	fa2,12(s0)
8000645e:	8000                	0x8000
80006460:	6458                	flw	fa4,12(s0)
80006462:	8000                	0x8000
80006464:	6458                	flw	fa4,12(s0)
80006466:	8000                	0x8000
80006468:	6460                	flw	fs0,76(s0)
8000646a:	8000                	0x8000
8000646c:	6460                	flw	fs0,76(s0)
8000646e:	8000                	0x8000
80006470:	6468                	flw	fa0,76(s0)
80006472:	8000                	0x8000
80006474:	6468                	flw	fa0,76(s0)
80006476:	8000                	0x8000
80006478:	6470                	flw	fa2,76(s0)
8000647a:	8000                	0x8000
8000647c:	6470                	flw	fa2,76(s0)
8000647e:	8000                	0x8000
80006480:	6478                	flw	fa4,76(s0)
80006482:	8000                	0x8000
80006484:	6478                	flw	fa4,76(s0)
80006486:	8000                	0x8000
80006488:	6480                	flw	fs0,8(s1)
8000648a:	8000                	0x8000
8000648c:	6480                	flw	fs0,8(s1)
8000648e:	8000                	0x8000
80006490:	6488                	flw	fa0,8(s1)
80006492:	8000                	0x8000
80006494:	6488                	flw	fa0,8(s1)
80006496:	8000                	0x8000
80006498:	6490                	flw	fa2,8(s1)
8000649a:	8000                	0x8000
8000649c:	6490                	flw	fa2,8(s1)
8000649e:	8000                	0x8000
800064a0:	6498                	flw	fa4,8(s1)
800064a2:	8000                	0x8000
800064a4:	6498                	flw	fa4,8(s1)
800064a6:	8000                	0x8000
800064a8:	64a0                	flw	fs0,72(s1)
800064aa:	8000                	0x8000
800064ac:	64a0                	flw	fs0,72(s1)
800064ae:	8000                	0x8000
800064b0:	64a8                	flw	fa0,72(s1)
800064b2:	8000                	0x8000
800064b4:	64a8                	flw	fa0,72(s1)
800064b6:	8000                	0x8000
800064b8:	64b0                	flw	fa2,72(s1)
800064ba:	8000                	0x8000
800064bc:	64b0                	flw	fa2,72(s1)
800064be:	8000                	0x8000
800064c0:	64b8                	flw	fa4,72(s1)
800064c2:	8000                	0x8000
800064c4:	64b8                	flw	fa4,72(s1)
800064c6:	8000                	0x8000
800064c8:	64c0                	flw	fs0,12(s1)
800064ca:	8000                	0x8000
800064cc:	64c0                	flw	fs0,12(s1)
800064ce:	8000                	0x8000
800064d0:	64c8                	flw	fa0,12(s1)
800064d2:	8000                	0x8000
800064d4:	64c8                	flw	fa0,12(s1)
800064d6:	8000                	0x8000
800064d8:	64d0                	flw	fa2,12(s1)
800064da:	8000                	0x8000
800064dc:	64d0                	flw	fa2,12(s1)
800064de:	8000                	0x8000
800064e0:	64d8                	flw	fa4,12(s1)
800064e2:	8000                	0x8000
800064e4:	64d8                	flw	fa4,12(s1)
800064e6:	8000                	0x8000
800064e8:	64e0                	flw	fs0,76(s1)
800064ea:	8000                	0x8000
800064ec:	64e0                	flw	fs0,76(s1)
800064ee:	8000                	0x8000
800064f0:	64e8                	flw	fa0,76(s1)
800064f2:	8000                	0x8000
800064f4:	64e8                	flw	fa0,76(s1)
800064f6:	8000                	0x8000
800064f8:	64f0                	flw	fa2,76(s1)
800064fa:	8000                	0x8000
800064fc:	64f0                	flw	fa2,76(s1)
800064fe:	8000                	0x8000
80006500:	64f8                	flw	fa4,76(s1)
80006502:	8000                	0x8000
80006504:	64f8                	flw	fa4,76(s1)
80006506:	8000                	0x8000
80006508:	6500                	flw	fs0,8(a0)
8000650a:	8000                	0x8000
8000650c:	6500                	flw	fs0,8(a0)
8000650e:	8000                	0x8000
80006510:	6508                	flw	fa0,8(a0)
80006512:	8000                	0x8000
80006514:	6508                	flw	fa0,8(a0)
80006516:	8000                	0x8000
80006518:	6510                	flw	fa2,8(a0)
8000651a:	8000                	0x8000
8000651c:	6510                	flw	fa2,8(a0)
8000651e:	8000                	0x8000
80006520:	6518                	flw	fa4,8(a0)
80006522:	8000                	0x8000
80006524:	6518                	flw	fa4,8(a0)
80006526:	8000                	0x8000
80006528:	6520                	flw	fs0,72(a0)
8000652a:	8000                	0x8000
8000652c:	6520                	flw	fs0,72(a0)
8000652e:	8000                	0x8000
80006530:	6528                	flw	fa0,72(a0)
80006532:	8000                	0x8000
80006534:	6528                	flw	fa0,72(a0)
80006536:	8000                	0x8000
80006538:	6530                	flw	fa2,72(a0)
8000653a:	8000                	0x8000
8000653c:	6530                	flw	fa2,72(a0)
8000653e:	8000                	0x8000
80006540:	6538                	flw	fa4,72(a0)
80006542:	8000                	0x8000
80006544:	6538                	flw	fa4,72(a0)
80006546:	8000                	0x8000
80006548:	6540                	flw	fs0,12(a0)
8000654a:	8000                	0x8000
8000654c:	6540                	flw	fs0,12(a0)
8000654e:	8000                	0x8000
80006550:	6548                	flw	fa0,12(a0)
80006552:	8000                	0x8000
80006554:	6548                	flw	fa0,12(a0)
80006556:	8000                	0x8000
80006558:	6550                	flw	fa2,12(a0)
8000655a:	8000                	0x8000
8000655c:	6550                	flw	fa2,12(a0)
8000655e:	8000                	0x8000
80006560:	6558                	flw	fa4,12(a0)
80006562:	8000                	0x8000
80006564:	6558                	flw	fa4,12(a0)
80006566:	8000                	0x8000
80006568:	6560                	flw	fs0,76(a0)
8000656a:	8000                	0x8000
8000656c:	6560                	flw	fs0,76(a0)
8000656e:	8000                	0x8000
80006570:	6568                	flw	fa0,76(a0)
80006572:	8000                	0x8000
80006574:	6568                	flw	fa0,76(a0)
80006576:	8000                	0x8000
80006578:	6570                	flw	fa2,76(a0)
8000657a:	8000                	0x8000
8000657c:	6570                	flw	fa2,76(a0)
8000657e:	8000                	0x8000
80006580:	6578                	flw	fa4,76(a0)
80006582:	8000                	0x8000
80006584:	6578                	flw	fa4,76(a0)
80006586:	8000                	0x8000
80006588:	6580                	flw	fs0,8(a1)
8000658a:	8000                	0x8000
8000658c:	6580                	flw	fs0,8(a1)
8000658e:	8000                	0x8000
80006590:	6588                	flw	fa0,8(a1)
80006592:	8000                	0x8000
80006594:	6588                	flw	fa0,8(a1)
80006596:	8000                	0x8000
80006598:	6590                	flw	fa2,8(a1)
8000659a:	8000                	0x8000
8000659c:	6590                	flw	fa2,8(a1)
8000659e:	8000                	0x8000
800065a0:	6598                	flw	fa4,8(a1)
800065a2:	8000                	0x8000
800065a4:	6598                	flw	fa4,8(a1)
800065a6:	8000                	0x8000
800065a8:	65a0                	flw	fs0,72(a1)
800065aa:	8000                	0x8000
800065ac:	65a0                	flw	fs0,72(a1)
800065ae:	8000                	0x8000
800065b0:	65a8                	flw	fa0,72(a1)
800065b2:	8000                	0x8000
800065b4:	65a8                	flw	fa0,72(a1)
800065b6:	8000                	0x8000
800065b8:	65b0                	flw	fa2,72(a1)
800065ba:	8000                	0x8000
800065bc:	65b0                	flw	fa2,72(a1)
800065be:	8000                	0x8000
800065c0:	65b8                	flw	fa4,72(a1)
800065c2:	8000                	0x8000
800065c4:	65b8                	flw	fa4,72(a1)
800065c6:	8000                	0x8000
800065c8:	65c0                	flw	fs0,12(a1)
800065ca:	8000                	0x8000
800065cc:	65c0                	flw	fs0,12(a1)
800065ce:	8000                	0x8000
800065d0:	65c8                	flw	fa0,12(a1)
800065d2:	8000                	0x8000
800065d4:	65c8                	flw	fa0,12(a1)
800065d6:	8000                	0x8000
800065d8:	65d0                	flw	fa2,12(a1)
800065da:	8000                	0x8000
800065dc:	65d0                	flw	fa2,12(a1)
800065de:	8000                	0x8000
800065e0:	65d8                	flw	fa4,12(a1)
800065e2:	8000                	0x8000
800065e4:	65d8                	flw	fa4,12(a1)
800065e6:	8000                	0x8000
800065e8:	65e0                	flw	fs0,76(a1)
800065ea:	8000                	0x8000
800065ec:	65e0                	flw	fs0,76(a1)
800065ee:	8000                	0x8000
800065f0:	65e8                	flw	fa0,76(a1)
800065f2:	8000                	0x8000
800065f4:	65e8                	flw	fa0,76(a1)
800065f6:	8000                	0x8000
800065f8:	65f0                	flw	fa2,76(a1)
800065fa:	8000                	0x8000
800065fc:	65f0                	flw	fa2,76(a1)
800065fe:	8000                	0x8000
80006600:	65f8                	flw	fa4,76(a1)
80006602:	8000                	0x8000
80006604:	65f8                	flw	fa4,76(a1)
80006606:	8000                	0x8000
80006608:	6600                	flw	fs0,8(a2)
8000660a:	8000                	0x8000
8000660c:	6600                	flw	fs0,8(a2)
8000660e:	8000                	0x8000
80006610:	6608                	flw	fa0,8(a2)
80006612:	8000                	0x8000
80006614:	6608                	flw	fa0,8(a2)
80006616:	8000                	0x8000
80006618:	6610                	flw	fa2,8(a2)
8000661a:	8000                	0x8000
8000661c:	6610                	flw	fa2,8(a2)
8000661e:	8000                	0x8000
80006620:	6618                	flw	fa4,8(a2)
80006622:	8000                	0x8000
80006624:	6618                	flw	fa4,8(a2)
80006626:	8000                	0x8000
80006628:	6620                	flw	fs0,72(a2)
8000662a:	8000                	0x8000
8000662c:	6620                	flw	fs0,72(a2)
8000662e:	8000                	0x8000
80006630:	6628                	flw	fa0,72(a2)
80006632:	8000                	0x8000
80006634:	6628                	flw	fa0,72(a2)
80006636:	8000                	0x8000
80006638:	6630                	flw	fa2,72(a2)
8000663a:	8000                	0x8000
8000663c:	6630                	flw	fa2,72(a2)
8000663e:	8000                	0x8000
80006640:	6638                	flw	fa4,72(a2)
80006642:	8000                	0x8000
80006644:	6638                	flw	fa4,72(a2)
80006646:	8000                	0x8000
80006648:	6640                	flw	fs0,12(a2)
8000664a:	8000                	0x8000
8000664c:	6640                	flw	fs0,12(a2)
8000664e:	8000                	0x8000
80006650:	6648                	flw	fa0,12(a2)
80006652:	8000                	0x8000
80006654:	6648                	flw	fa0,12(a2)
80006656:	8000                	0x8000
80006658:	6650                	flw	fa2,12(a2)
8000665a:	8000                	0x8000
8000665c:	6650                	flw	fa2,12(a2)
8000665e:	8000                	0x8000
80006660:	6658                	flw	fa4,12(a2)
80006662:	8000                	0x8000
80006664:	6658                	flw	fa4,12(a2)
80006666:	8000                	0x8000
80006668:	6660                	flw	fs0,76(a2)
8000666a:	8000                	0x8000
8000666c:	6660                	flw	fs0,76(a2)
8000666e:	8000                	0x8000
80006670:	6668                	flw	fa0,76(a2)
80006672:	8000                	0x8000
80006674:	6668                	flw	fa0,76(a2)
80006676:	8000                	0x8000
80006678:	6670                	flw	fa2,76(a2)
8000667a:	8000                	0x8000
8000667c:	6670                	flw	fa2,76(a2)
8000667e:	8000                	0x8000
80006680:	6678                	flw	fa4,76(a2)
80006682:	8000                	0x8000
80006684:	6678                	flw	fa4,76(a2)
80006686:	8000                	0x8000
80006688:	6680                	flw	fs0,8(a3)
8000668a:	8000                	0x8000
8000668c:	6680                	flw	fs0,8(a3)
8000668e:	8000                	0x8000
80006690:	6688                	flw	fa0,8(a3)
80006692:	8000                	0x8000
80006694:	6688                	flw	fa0,8(a3)
80006696:	8000                	0x8000
80006698:	6690                	flw	fa2,8(a3)
8000669a:	8000                	0x8000
8000669c:	6690                	flw	fa2,8(a3)
8000669e:	8000                	0x8000
800066a0:	6698                	flw	fa4,8(a3)
800066a2:	8000                	0x8000
800066a4:	6698                	flw	fa4,8(a3)
800066a6:	8000                	0x8000
800066a8:	66a0                	flw	fs0,72(a3)
800066aa:	8000                	0x8000
800066ac:	66a0                	flw	fs0,72(a3)
800066ae:	8000                	0x8000
800066b0:	66a8                	flw	fa0,72(a3)
800066b2:	8000                	0x8000
800066b4:	66a8                	flw	fa0,72(a3)
800066b6:	8000                	0x8000
800066b8:	66b0                	flw	fa2,72(a3)
800066ba:	8000                	0x8000
800066bc:	66b0                	flw	fa2,72(a3)
800066be:	8000                	0x8000
800066c0:	66b8                	flw	fa4,72(a3)
800066c2:	8000                	0x8000
800066c4:	66b8                	flw	fa4,72(a3)
800066c6:	8000                	0x8000
800066c8:	66c0                	flw	fs0,12(a3)
800066ca:	8000                	0x8000
800066cc:	66c0                	flw	fs0,12(a3)
800066ce:	8000                	0x8000
800066d0:	66c8                	flw	fa0,12(a3)
800066d2:	8000                	0x8000
800066d4:	66c8                	flw	fa0,12(a3)
800066d6:	8000                	0x8000
800066d8:	66d0                	flw	fa2,12(a3)
800066da:	8000                	0x8000
800066dc:	66d0                	flw	fa2,12(a3)
800066de:	8000                	0x8000
800066e0:	66d8                	flw	fa4,12(a3)
800066e2:	8000                	0x8000
800066e4:	66d8                	flw	fa4,12(a3)
800066e6:	8000                	0x8000
800066e8:	66e0                	flw	fs0,76(a3)
800066ea:	8000                	0x8000
800066ec:	66e0                	flw	fs0,76(a3)
800066ee:	8000                	0x8000
800066f0:	66e8                	flw	fa0,76(a3)
800066f2:	8000                	0x8000
800066f4:	66e8                	flw	fa0,76(a3)
800066f6:	8000                	0x8000
800066f8:	66f0                	flw	fa2,76(a3)
800066fa:	8000                	0x8000
800066fc:	66f0                	flw	fa2,76(a3)
800066fe:	8000                	0x8000
80006700:	66f8                	flw	fa4,76(a3)
80006702:	8000                	0x8000
80006704:	66f8                	flw	fa4,76(a3)
80006706:	8000                	0x8000
80006708:	6700                	flw	fs0,8(a4)
8000670a:	8000                	0x8000
8000670c:	6700                	flw	fs0,8(a4)
8000670e:	8000                	0x8000
80006710:	6708                	flw	fa0,8(a4)
80006712:	8000                	0x8000
80006714:	6708                	flw	fa0,8(a4)
80006716:	8000                	0x8000
80006718:	6710                	flw	fa2,8(a4)
8000671a:	8000                	0x8000
8000671c:	6710                	flw	fa2,8(a4)
8000671e:	8000                	0x8000
80006720:	6718                	flw	fa4,8(a4)
80006722:	8000                	0x8000
80006724:	6718                	flw	fa4,8(a4)
80006726:	8000                	0x8000
80006728:	6720                	flw	fs0,72(a4)
8000672a:	8000                	0x8000
8000672c:	6720                	flw	fs0,72(a4)
8000672e:	8000                	0x8000
80006730:	6728                	flw	fa0,72(a4)
80006732:	8000                	0x8000
80006734:	6728                	flw	fa0,72(a4)
80006736:	8000                	0x8000
80006738:	6730                	flw	fa2,72(a4)
8000673a:	8000                	0x8000
8000673c:	6730                	flw	fa2,72(a4)
8000673e:	8000                	0x8000
80006740:	6738                	flw	fa4,72(a4)
80006742:	8000                	0x8000
80006744:	6738                	flw	fa4,72(a4)
80006746:	8000                	0x8000
80006748:	6740                	flw	fs0,12(a4)
8000674a:	8000                	0x8000
8000674c:	6740                	flw	fs0,12(a4)
8000674e:	8000                	0x8000
80006750:	6748                	flw	fa0,12(a4)
80006752:	8000                	0x8000
80006754:	6748                	flw	fa0,12(a4)
80006756:	8000                	0x8000
80006758:	6750                	flw	fa2,12(a4)
8000675a:	8000                	0x8000
8000675c:	6750                	flw	fa2,12(a4)
8000675e:	8000                	0x8000
80006760:	6758                	flw	fa4,12(a4)
80006762:	8000                	0x8000
80006764:	6758                	flw	fa4,12(a4)
80006766:	8000                	0x8000
80006768:	6760                	flw	fs0,76(a4)
8000676a:	8000                	0x8000
8000676c:	6760                	flw	fs0,76(a4)
8000676e:	8000                	0x8000
80006770:	6768                	flw	fa0,76(a4)
80006772:	8000                	0x8000
80006774:	6768                	flw	fa0,76(a4)
80006776:	8000                	0x8000
80006778:	6770                	flw	fa2,76(a4)
8000677a:	8000                	0x8000
8000677c:	6770                	flw	fa2,76(a4)
8000677e:	8000                	0x8000
80006780:	6778                	flw	fa4,76(a4)
80006782:	8000                	0x8000
80006784:	6778                	flw	fa4,76(a4)
80006786:	8000                	0x8000
80006788:	6780                	flw	fs0,8(a5)
8000678a:	8000                	0x8000
8000678c:	6780                	flw	fs0,8(a5)
8000678e:	8000                	0x8000
80006790:	6788                	flw	fa0,8(a5)
80006792:	8000                	0x8000
80006794:	6788                	flw	fa0,8(a5)
80006796:	8000                	0x8000
80006798:	6790                	flw	fa2,8(a5)
8000679a:	8000                	0x8000
8000679c:	6790                	flw	fa2,8(a5)
8000679e:	8000                	0x8000
800067a0:	6798                	flw	fa4,8(a5)
800067a2:	8000                	0x8000
800067a4:	6798                	flw	fa4,8(a5)
800067a6:	8000                	0x8000
800067a8:	67a0                	flw	fs0,72(a5)
800067aa:	8000                	0x8000
800067ac:	67a0                	flw	fs0,72(a5)
800067ae:	8000                	0x8000
800067b0:	67a8                	flw	fa0,72(a5)
800067b2:	8000                	0x8000
800067b4:	67a8                	flw	fa0,72(a5)
800067b6:	8000                	0x8000
800067b8:	67b0                	flw	fa2,72(a5)
800067ba:	8000                	0x8000
800067bc:	67b0                	flw	fa2,72(a5)
800067be:	8000                	0x8000
800067c0:	67b8                	flw	fa4,72(a5)
800067c2:	8000                	0x8000
800067c4:	67b8                	flw	fa4,72(a5)
800067c6:	8000                	0x8000
800067c8:	67c0                	flw	fs0,12(a5)
800067ca:	8000                	0x8000
800067cc:	67c0                	flw	fs0,12(a5)
800067ce:	8000                	0x8000
800067d0:	67c8                	flw	fa0,12(a5)
800067d2:	8000                	0x8000
800067d4:	67c8                	flw	fa0,12(a5)
800067d6:	8000                	0x8000
800067d8:	67d0                	flw	fa2,12(a5)
800067da:	8000                	0x8000
800067dc:	67d0                	flw	fa2,12(a5)
800067de:	8000                	0x8000
800067e0:	67d8                	flw	fa4,12(a5)
800067e2:	8000                	0x8000
800067e4:	67d8                	flw	fa4,12(a5)
800067e6:	8000                	0x8000
800067e8:	67e0                	flw	fs0,76(a5)
800067ea:	8000                	0x8000
800067ec:	67e0                	flw	fs0,76(a5)
800067ee:	8000                	0x8000
800067f0:	67e8                	flw	fa0,76(a5)
800067f2:	8000                	0x8000
800067f4:	67e8                	flw	fa0,76(a5)
800067f6:	8000                	0x8000
800067f8:	67f0                	flw	fa2,76(a5)
800067fa:	8000                	0x8000
800067fc:	67f0                	flw	fa2,76(a5)
800067fe:	8000                	0x8000
80006800:	67f8                	flw	fa4,76(a5)
80006802:	8000                	0x8000
80006804:	67f8                	flw	fa4,76(a5)
80006806:	8000                	0x8000
80006808:	6800                	flw	fs0,16(s0)
8000680a:	8000                	0x8000
8000680c:	6800                	flw	fs0,16(s0)
8000680e:	8000                	0x8000
80006810:	6808                	flw	fa0,16(s0)
80006812:	8000                	0x8000
80006814:	6808                	flw	fa0,16(s0)
80006816:	8000                	0x8000
80006818:	6810                	flw	fa2,16(s0)
8000681a:	8000                	0x8000
8000681c:	6810                	flw	fa2,16(s0)
8000681e:	8000                	0x8000
80006820:	6818                	flw	fa4,16(s0)
80006822:	8000                	0x8000
80006824:	6818                	flw	fa4,16(s0)
80006826:	8000                	0x8000
80006828:	6820                	flw	fs0,80(s0)
8000682a:	8000                	0x8000
8000682c:	6820                	flw	fs0,80(s0)
8000682e:	8000                	0x8000
80006830:	6828                	flw	fa0,80(s0)
80006832:	8000                	0x8000
80006834:	6828                	flw	fa0,80(s0)
80006836:	8000                	0x8000

Disassembly of section .sdata:

80006838 <_global_impure_ptr>:
80006838:	6008                	flw	fa0,0(s0)
8000683a:	8000                	0x8000
8000683c:	0000                	unimp
8000683e:	3780                	fld	fs0,40(a5)
80006840:	0000                	unimp
80006842:	3f80                	fld	fs0,56(a5)
80006844:	0000                	unimp
80006846:	4b80                	lw	s0,16(a5)
80006848:	0000                	unimp
8000684a:	3780                	fld	fs0,40(a5)
8000684c:	0000                	unimp
8000684e:	3f80                	fld	fs0,56(a5)
80006850:	0000                	unimp
80006852:	4b80                	lw	s0,16(a5)

80006854 <_impure_ptr>:
80006854:	6008                	flw	fa0,0(s0)
80006856:	8000                	0x8000

80006858 <__malloc_sbrk_base>:
80006858:	ffff                	0xffff
8000685a:	ffff                	0xffff

8000685c <__malloc_trim_threshold>:
8000685c:	0000                	unimp
8000685e:	0002                	c.slli64	zero

Disassembly of section .sbss:

80006860 <__malloc_max_total_mem>:
80006860:	0000                	unimp
	...

80006864 <__malloc_max_sbrked_mem>:
80006864:	0000                	unimp
	...

80006868 <__malloc_top_pad>:
80006868:	0000                	unimp
	...

Disassembly of section .bss:

8000686c <__malloc_current_mallinfo>:
	...

80006894 <g_wspawn_args>:
	...

80006914 <errno>:
80006914:	0000                	unimp
	...

Disassembly of section .comment:

00000000 <.comment>:
   0:	6e616c63          	bltu	sp,t1,6f8 <reg_t6+0x6d9>
   4:	65762067          	0x65762067
   8:	7372                	flw	ft6,60(sp)
   a:	6f69                	lui	t5,0x1a
   c:	206e                	fld	ft0,216(sp)
   e:	3031                	jal	fffff81a <__BSS_END__+0x7fff8f02>
  10:	302e                	fld	ft0,232(sp)
  12:	312e                	fld	ft2,232(sp)
  14:	2820                	fld	fs0,80(s0)
  16:	7468                	flw	fa0,108(s0)
  18:	7074                	flw	fa3,100(s0)
  1a:	2f2f3a73          	csrrc	s4,0x2f2,t5
  1e:	68746967          	0x68746967
  22:	6275                	lui	tp,0x1d
  24:	632e                	flw	ft6,200(sp)
  26:	742f6d6f          	jal	s10,f6768 <reg_t6+0xf6749>
  2a:	6e69                	lui	t3,0x1a
  2c:	6265                	lui	tp,0x19
  2e:	2f70                	fld	fa2,216(a4)
  30:	6c6c                	flw	fa1,92(s0)
  32:	6d76                	flw	fs10,92(sp)
  34:	702d                	c.lui	zero,0xfffeb
  36:	6f72                	flw	ft10,28(sp)
  38:	656a                	flw	fa0,152(sp)
  3a:	672e7463          	bgeu	t3,s2,6a2 <reg_t6+0x683>
  3e:	7469                	lui	s0,0xffffa
  40:	3420                	fld	fs0,104(s0)
  42:	3764                	fld	fs1,232(a4)
  44:	3339                	jal	fffffd52 <__BSS_END__+0x7fff943a>
  46:	3631                	jal	fffffb52 <__BSS_END__+0x7fff923a>
  48:	6465                	lui	s0,0x19
  4a:	3330                	fld	fa2,96(a4)
  4c:	6239                	lui	tp,0xe
  4e:	3466                	fld	fs0,120(sp)
  50:	3065                	jal	fffff8f8 <__BSS_END__+0x7fff8fe0>
  52:	6164                	flw	fs1,68(a0)
  54:	6431                	lui	s0,0xc
  56:	6566                	flw	fa0,88(sp)
  58:	3334                	fld	fa3,96(a4)
  5a:	6632                	flw	fa2,12(sp)
  5c:	3062                	fld	ft0,56(sp)
  5e:	3764                	fld	fs1,232(a4)
  60:	3332                	fld	ft6,296(sp)
  62:	6565                	lui	a0,0x19
  64:	6139                	addi	sp,sp,448
  66:	6439                	lui	s0,0xe
  68:	2935                	jal	4a4 <reg_t6+0x485>
  6a:	4700                	lw	s0,8(a4)
  6c:	203a4343          	fmadd.s	ft6,fs4,ft3,ft4,rmm
  70:	4728                	lw	a0,72(a4)
  72:	554e                	lw	a0,240(sp)
  74:	2029                	jal	7e <reg_t6+0x5f>
  76:	2e39                	jal	394 <reg_t6+0x375>
  78:	2e32                	fld	ft8,264(sp)
  7a:	0030                	addi	a2,sp,8

Disassembly of section .riscv.attributes:

00000000 <.riscv.attributes>:
   0:	2541                	jal	680 <reg_t6+0x661>
   2:	0000                	unimp
   4:	7200                	flw	fs0,32(a2)
   6:	7369                	lui	t1,0xffffa
   8:	01007663          	bgeu	zero,a6,14 <reg_s4>
   c:	0000001b          	0x1b
  10:	1004                	addi	s1,sp,32
  12:	7205                	lui	tp,0xfffe1
  14:	3376                	fld	ft6,376(sp)
  16:	6932                	flw	fs2,12(sp)
  18:	7032                	flw	ft0,44(sp)
  1a:	5f30                	lw	a2,120(a4)
  1c:	326d                	jal	fffff9c6 <__BSS_END__+0x7fff90ae>
  1e:	3070                	fld	fa2,224(s0)
  20:	665f 7032 0030      	0x307032665f
