
conform.elf:     file format elf32-littleriscv


Disassembly of section .init:

80000000 <_start>:
80000000:	fc1022f3          	csrr	t0,0xfc1
80000004:	00001317          	auipc	t1,0x1
80000008:	a4830313          	add	t1,t1,-1464 # 80000a4c <init_regs_all>
8000000c:	0062900b          	.4byte	0x62900b
80000010:	fff00293          	li	t0,-1
80000014:	0002800b          	.4byte	0x2800b
80000018:	201000ef          	jal	80000a18 <init_regs>
8000001c:	00100293          	li	t0,1
80000020:	0002800b          	.4byte	0x2800b
80000024:	251000ef          	jal	80000a74 <vx_wspawn_wait>
80000028:	fc1022f3          	csrr	t0,0xfc1
8000002c:	00001317          	auipc	t1,0x1
80000030:	a3430313          	add	t1,t1,-1484 # 80000a60 <init_tls_all>
80000034:	0062900b          	.4byte	0x62900b
80000038:	fff00293          	li	t0,-1
8000003c:	0002800b          	.4byte	0x2800b
80000040:	245000ef          	jal	80000a84 <__init_tls>
80000044:	00100293          	li	t0,1
80000048:	0002800b          	.4byte	0x2800b
8000004c:	229000ef          	jal	80000a74 <vx_wspawn_wait>
80000050:	00008517          	auipc	a0,0x8
80000054:	5f850513          	add	a0,a0,1528 # 80008648 <barrier_stall>
80000058:	00009617          	auipc	a2,0x9
8000005c:	76860613          	add	a2,a2,1896 # 800097c0 <__BSS_END__>
80000060:	40a60633          	sub	a2,a2,a0
80000064:	00000593          	li	a1,0
80000068:	1f1060ef          	jal	80006a58 <memset>
8000006c:	00001517          	auipc	a0,0x1
80000070:	af050513          	add	a0,a0,-1296 # 80000b5c <__libc_fini_array>
80000074:	02d060ef          	jal	800068a0 <atexit>
80000078:	251000ef          	jal	80000ac8 <__libc_init_array>
8000007c:	03c000ef          	jal	800000b8 <main>
80000080:	0040006f          	j	80000084 <exit>

Disassembly of section .text:

80000084 <exit>:
80000084:	ff010113          	add	sp,sp,-16
80000088:	00000593          	li	a1,0
8000008c:	00812423          	sw	s0,8(sp)
80000090:	00112623          	sw	ra,12(sp)
80000094:	00050413          	mv	s0,a0
80000098:	339060ef          	jal	80006bd0 <__call_exitprocs>
8000009c:	00008517          	auipc	a0,0x8
800000a0:	5a452503          	lw	a0,1444(a0) # 80008640 <_global_impure_ptr>
800000a4:	03c52783          	lw	a5,60(a0)
800000a8:	00078463          	beqz	a5,800000b0 <exit+0x2c>
800000ac:	000780e7          	jalr	a5
800000b0:	00040513          	mv	a0,s0
800000b4:	155000ef          	jal	80000a08 <_exit>

800000b8 <main>:
800000b8:	ff010113          	add	sp,sp,-16
800000bc:	00112623          	sw	ra,12(sp)
800000c0:	00812423          	sw	s0,8(sp)
800000c4:	210000ef          	jal	800002d4 <_Z18test_global_memoryv>
800000c8:	00050413          	mv	s0,a0
800000cc:	2c0000ef          	jal	8000038c <_Z18test_shared_memoryv>
800000d0:	00a40433          	add	s0,s0,a0
800000d4:	338000ef          	jal	8000040c <_Z8test_tmcv>
800000d8:	00a40433          	add	s0,s0,a0
800000dc:	3b8000ef          	jal	80000494 <_Z9test_predv>
800000e0:	00a40433          	add	s0,s0,a0
800000e4:	57c000ef          	jal	80000660 <_Z15test_divergencev>
800000e8:	00a40433          	add	s0,s0,a0
800000ec:	488000ef          	jal	80000574 <_Z11test_wsapwnv>
800000f0:	00a40433          	add	s0,s0,a0
800000f4:	5c8000ef          	jal	800006bc <_Z16test_spawn_tasksv>
800000f8:	00a40433          	add	s0,s0,a0
800000fc:	690000ef          	jal	8000078c <_Z11test_serialv>
80000100:	00a40433          	add	s0,s0,a0
80000104:	734000ef          	jal	80000838 <_Z10test_tmaskv>
80000108:	00a40433          	add	s0,s0,a0
8000010c:	794000ef          	jal	800008a0 <_Z12test_barrierv>
80000110:	00a40433          	add	s0,s0,a0
80000114:	089000ef          	jal	8000099c <_Z8test_tlsv>
80000118:	00a40433          	add	s0,s0,a0
8000011c:	02041263          	bnez	s0,80000140 <main+0x88>
80000120:	00007517          	auipc	a0,0x7
80000124:	bd850513          	add	a0,a0,-1064 # 80006cf8 <__call_exitprocs+0x128>
80000128:	2dd000ef          	jal	80000c04 <vx_printf>
8000012c:	00c12083          	lw	ra,12(sp)
80000130:	00040513          	mv	a0,s0
80000134:	00812403          	lw	s0,8(sp)
80000138:	01010113          	add	sp,sp,16
8000013c:	00008067          	ret
80000140:	00007517          	auipc	a0,0x7
80000144:	bc450513          	add	a0,a0,-1084 # 80006d04 <__call_exitprocs+0x134>
80000148:	2bd000ef          	jal	80000c04 <vx_printf>
8000014c:	fe1ff06f          	j	8000012c <main+0x74>

80000150 <register_fini>:
80000150:	00000793          	li	a5,0
80000154:	00078863          	beqz	a5,80000164 <register_fini+0x14>
80000158:	00001517          	auipc	a0,0x1
8000015c:	a0450513          	add	a0,a0,-1532 # 80000b5c <__libc_fini_array>
80000160:	7400606f          	j	800068a0 <atexit>
80000164:	00008067          	ret

80000168 <_Z13wspawn_kernelv>:
80000168:	cc1027f3          	csrr	a5,0xcc1
8000016c:	00008717          	auipc	a4,0x8
80000170:	5b470713          	add	a4,a4,1460 # 80008720 <wspawn_buffer>
80000174:	00279693          	sll	a3,a5,0x2
80000178:	00d70733          	add	a4,a4,a3
8000017c:	04178693          	add	a3,a5,65
80000180:	00d72023          	sw	a3,0(a4)
80000184:	0017b793          	seqz	a5,a5
80000188:	0007800b          	.4byte	0x7800b
8000018c:	00008067          	ret

80000190 <_Z9st_kerneliPK9st_args_t>:
80000190:	0005a703          	lw	a4,0(a1)
80000194:	00251513          	sll	a0,a0,0x2
80000198:	0045a783          	lw	a5,4(a1)
8000019c:	00a70733          	add	a4,a4,a0
800001a0:	00072703          	lw	a4,0(a4)
800001a4:	00a787b3          	add	a5,a5,a0
800001a8:	00e7a023          	sw	a4,0(a5)
800001ac:	00008067          	ret

800001b0 <_Z9sr_kernelPK9sr_args_t>:
800001b0:	cc0027f3          	csrr	a5,0xcc0
800001b4:	00052703          	lw	a4,0(a0)
800001b8:	00279693          	sll	a3,a5,0x2
800001bc:	04178793          	add	a5,a5,65
800001c0:	00d70733          	add	a4,a4,a3
800001c4:	00f72023          	sw	a5,0(a4)
800001c8:	00008067          	ret

800001cc <_Z14barrier_kernelv>:
800001cc:	cc1025f3          	csrr	a1,0xcc1
800001d0:	00859613          	sll	a2,a1,0x8
800001d4:	00160613          	add	a2,a2,1
800001d8:	00000713          	li	a4,0
800001dc:	00008697          	auipc	a3,0x8
800001e0:	46c68693          	add	a3,a3,1132 # 80008648 <barrier_stall>
800001e4:	0006a783          	lw	a5,0(a3)
800001e8:	00170713          	add	a4,a4,1
800001ec:	00178793          	add	a5,a5,1
800001f0:	00f6a023          	sw	a5,0(a3)
800001f4:	fee618e3          	bne	a2,a4,800001e4 <_Z14barrier_kernelv+0x18>
800001f8:	00259713          	sll	a4,a1,0x2
800001fc:	00008797          	auipc	a5,0x8
80000200:	47478793          	add	a5,a5,1140 # 80008670 <barrier_buffer>
80000204:	00e787b3          	add	a5,a5,a4
80000208:	04158713          	add	a4,a1,65
8000020c:	00e7a023          	sw	a4,0(a5)
80000210:	00008717          	auipc	a4,0x8
80000214:	43c72703          	lw	a4,1084(a4) # 8000864c <barrier_ctr>
80000218:	00000793          	li	a5,0
8000021c:	00e7c00b          	.4byte	0xe7c00b
80000220:	0015b593          	seqz	a1,a1
80000224:	0005800b          	.4byte	0x5800b
80000228:	00008067          	ret

8000022c <_Z11check_errorPKiii.constprop.0>:
8000022c:	fe010113          	add	sp,sp,-32
80000230:	00112e23          	sw	ra,28(sp)
80000234:	00812c23          	sw	s0,24(sp)
80000238:	00912a23          	sw	s1,20(sp)
8000023c:	01212823          	sw	s2,16(sp)
80000240:	01312623          	sw	s3,12(sp)
80000244:	01412423          	sw	s4,8(sp)
80000248:	06b05463          	blez	a1,800002b0 <_Z11check_errorPKiii.constprop.0+0x84>
8000024c:	00050493          	mv	s1,a0
80000250:	04158913          	add	s2,a1,65
80000254:	04100413          	li	s0,65
80000258:	00000993          	li	s3,0
8000025c:	00007a17          	auipc	s4,0x7
80000260:	ab4a0a13          	add	s4,s4,-1356 # 80006d10 <__call_exitprocs+0x140>
80000264:	0004a603          	lw	a2,0(s1)
80000268:	00040693          	mv	a3,s0
8000026c:	fbf40593          	add	a1,s0,-65
80000270:	000a0513          	mv	a0,s4
80000274:	00860663          	beq	a2,s0,80000280 <_Z11check_errorPKiii.constprop.0+0x54>
80000278:	18d000ef          	jal	80000c04 <vx_printf>
8000027c:	00198993          	add	s3,s3,1
80000280:	00140413          	add	s0,s0,1
80000284:	00448493          	add	s1,s1,4
80000288:	fd241ee3          	bne	s0,s2,80000264 <_Z11check_errorPKiii.constprop.0+0x38>
8000028c:	01c12083          	lw	ra,28(sp)
80000290:	01812403          	lw	s0,24(sp)
80000294:	01412483          	lw	s1,20(sp)
80000298:	01012903          	lw	s2,16(sp)
8000029c:	00812a03          	lw	s4,8(sp)
800002a0:	00098513          	mv	a0,s3
800002a4:	00c12983          	lw	s3,12(sp)
800002a8:	02010113          	add	sp,sp,32
800002ac:	00008067          	ret
800002b0:	00000993          	li	s3,0
800002b4:	fd9ff06f          	j	8000028c <_Z11check_errorPKiii.constprop.0+0x60>

800002b8 <_Z17make_select_tmaski>:
800002b8:	00100793          	li	a5,1
800002bc:	00a79533          	sll	a0,a5,a0
800002c0:	00008067          	ret

800002c4 <_Z15make_full_tmaski>:
800002c4:	00100793          	li	a5,1
800002c8:	00a79533          	sll	a0,a5,a0
800002cc:	fff50513          	add	a0,a0,-1
800002d0:	00008067          	ret

800002d4 <_Z18test_global_memoryv>:
800002d4:	ff010113          	add	sp,sp,-16
800002d8:	00007517          	auipc	a0,0x7
800002dc:	a6050513          	add	a0,a0,-1440 # 80006d38 <__call_exitprocs+0x168>
800002e0:	00112623          	sw	ra,12(sp)
800002e4:	121000ef          	jal	80000c04 <vx_printf>
800002e8:	00008517          	auipc	a0,0x8
800002ec:	4b850513          	add	a0,a0,1208 # 800087a0 <global_buffer>
800002f0:	04100793          	li	a5,65
800002f4:	00f52023          	sw	a5,0(a0)
800002f8:	04200793          	li	a5,66
800002fc:	00f52223          	sw	a5,4(a0)
80000300:	04300793          	li	a5,67
80000304:	00f52423          	sw	a5,8(a0)
80000308:	04400793          	li	a5,68
8000030c:	00f52623          	sw	a5,12(a0)
80000310:	04500793          	li	a5,69
80000314:	00f52823          	sw	a5,16(a0)
80000318:	04600793          	li	a5,70
8000031c:	00f52a23          	sw	a5,20(a0)
80000320:	04700793          	li	a5,71
80000324:	00c12083          	lw	ra,12(sp)
80000328:	00f52c23          	sw	a5,24(a0)
8000032c:	04800793          	li	a5,72
80000330:	00f52e23          	sw	a5,28(a0)
80000334:	00800593          	li	a1,8
80000338:	01010113          	add	sp,sp,16
8000033c:	ef1ff06f          	j	8000022c <_Z11check_errorPKiii.constprop.0>

80000340 <_Z10do_smem_wrv>:
80000340:	cc0027f3          	csrr	a5,0xcc0
80000344:	00008717          	auipc	a4,0x8
80000348:	30072703          	lw	a4,768(a4) # 80008644 <smem_addr>
8000034c:	00279693          	sll	a3,a5,0x2
80000350:	00d70733          	add	a4,a4,a3
80000354:	04178793          	add	a5,a5,65
80000358:	00f72023          	sw	a5,0(a4)
8000035c:	00008067          	ret

80000360 <_Z10do_smem_rdv>:
80000360:	cc0027f3          	csrr	a5,0xcc0
80000364:	00008717          	auipc	a4,0x8
80000368:	2e072703          	lw	a4,736(a4) # 80008644 <smem_addr>
8000036c:	00279793          	sll	a5,a5,0x2
80000370:	00f70733          	add	a4,a4,a5
80000374:	00072683          	lw	a3,0(a4)
80000378:	00008717          	auipc	a4,0x8
8000037c:	40870713          	add	a4,a4,1032 # 80008780 <smem_buffer>
80000380:	00f707b3          	add	a5,a4,a5
80000384:	00d7a023          	sw	a3,0(a5)
80000388:	00008067          	ret

8000038c <_Z18test_shared_memoryv>:
8000038c:	ff010113          	add	sp,sp,-16
80000390:	00007517          	auipc	a0,0x7
80000394:	9bc50513          	add	a0,a0,-1604 # 80006d4c <__call_exitprocs+0x17c>
80000398:	00112623          	sw	ra,12(sp)
8000039c:	00812423          	sw	s0,8(sp)
800003a0:	065000ef          	jal	80000c04 <vx_printf>
800003a4:	fc002473          	csrr	s0,0xfc0
800003a8:	00800793          	li	a5,8
800003ac:	0087d463          	bge	a5,s0,800003b4 <_Z18test_shared_memoryv+0x28>
800003b0:	00800413          	li	s0,8
800003b4:	00040513          	mv	a0,s0
800003b8:	f0dff0ef          	jal	800002c4 <_Z15make_full_tmaski>
800003bc:	0005000b          	.4byte	0x5000b
800003c0:	f81ff0ef          	jal	80000340 <_Z10do_smem_wrv>
800003c4:	f9dff0ef          	jal	80000360 <_Z10do_smem_rdv>
800003c8:	00100513          	li	a0,1
800003cc:	0005000b          	.4byte	0x5000b
800003d0:	00040593          	mv	a1,s0
800003d4:	00812403          	lw	s0,8(sp)
800003d8:	00c12083          	lw	ra,12(sp)
800003dc:	00008517          	auipc	a0,0x8
800003e0:	3a450513          	add	a0,a0,932 # 80008780 <smem_buffer>
800003e4:	01010113          	add	sp,sp,16
800003e8:	e45ff06f          	j	8000022c <_Z11check_errorPKiii.constprop.0>

800003ec <_Z6do_tmcv>:
800003ec:	cc0027f3          	csrr	a5,0xcc0
800003f0:	00008717          	auipc	a4,0x8
800003f4:	37070713          	add	a4,a4,880 # 80008760 <tmc_buffer>
800003f8:	00279693          	sll	a3,a5,0x2
800003fc:	00d70733          	add	a4,a4,a3
80000400:	04178793          	add	a5,a5,65
80000404:	00f72023          	sw	a5,0(a4)
80000408:	00008067          	ret

8000040c <_Z8test_tmcv>:
8000040c:	ff010113          	add	sp,sp,-16
80000410:	00007517          	auipc	a0,0x7
80000414:	95050513          	add	a0,a0,-1712 # 80006d60 <__call_exitprocs+0x190>
80000418:	00112623          	sw	ra,12(sp)
8000041c:	00812423          	sw	s0,8(sp)
80000420:	7e4000ef          	jal	80000c04 <vx_printf>
80000424:	fc002473          	csrr	s0,0xfc0
80000428:	00800793          	li	a5,8
8000042c:	0087d463          	bge	a5,s0,80000434 <_Z8test_tmcv+0x28>
80000430:	00800413          	li	s0,8
80000434:	00040513          	mv	a0,s0
80000438:	e8dff0ef          	jal	800002c4 <_Z15make_full_tmaski>
8000043c:	0005000b          	.4byte	0x5000b
80000440:	fadff0ef          	jal	800003ec <_Z6do_tmcv>
80000444:	00100513          	li	a0,1
80000448:	0005000b          	.4byte	0x5000b
8000044c:	00040593          	mv	a1,s0
80000450:	00812403          	lw	s0,8(sp)
80000454:	00c12083          	lw	ra,12(sp)
80000458:	00008517          	auipc	a0,0x8
8000045c:	30850513          	add	a0,a0,776 # 80008760 <tmc_buffer>
80000460:	01010113          	add	sp,sp,16
80000464:	dc9ff06f          	j	8000022c <_Z11check_errorPKiii.constprop.0>

80000468 <_Z7do_predv>:
80000468:	cc0027f3          	csrr	a5,0xcc0
8000046c:	00100693          	li	a3,1
80000470:	0017b713          	seqz	a4,a5
80000474:	00d7500b          	.4byte	0xd7500b
80000478:	00008717          	auipc	a4,0x8
8000047c:	2c870713          	add	a4,a4,712 # 80008740 <pred_buffer>
80000480:	00279793          	sll	a5,a5,0x2
80000484:	00f707b3          	add	a5,a4,a5
80000488:	04100713          	li	a4,65
8000048c:	00e7a023          	sw	a4,0(a5)
80000490:	00008067          	ret

80000494 <_Z9test_predv>:
80000494:	ff010113          	add	sp,sp,-16
80000498:	00007517          	auipc	a0,0x7
8000049c:	8d450513          	add	a0,a0,-1836 # 80006d6c <__call_exitprocs+0x19c>
800004a0:	00112623          	sw	ra,12(sp)
800004a4:	00812423          	sw	s0,8(sp)
800004a8:	00912223          	sw	s1,4(sp)
800004ac:	758000ef          	jal	80000c04 <vx_printf>
800004b0:	fc002473          	csrr	s0,0xfc0
800004b4:	00800793          	li	a5,8
800004b8:	00800493          	li	s1,8
800004bc:	0087c463          	blt	a5,s0,800004c4 <_Z9test_predv+0x30>
800004c0:	00040493          	mv	s1,s0
800004c4:	00048513          	mv	a0,s1
800004c8:	dfdff0ef          	jal	800002c4 <_Z15make_full_tmaski>
800004cc:	00100793          	li	a5,1
800004d0:	0687da63          	bge	a5,s0,80000544 <_Z9test_predv+0xb0>
800004d4:	04200713          	li	a4,66
800004d8:	00008797          	auipc	a5,0x8
800004dc:	26878793          	add	a5,a5,616 # 80008740 <pred_buffer>
800004e0:	00e7a223          	sw	a4,4(a5)
800004e4:	00200713          	li	a4,2
800004e8:	04875e63          	bge	a4,s0,80000544 <_Z9test_predv+0xb0>
800004ec:	04300713          	li	a4,67
800004f0:	00e7a423          	sw	a4,8(a5)
800004f4:	00300713          	li	a4,3
800004f8:	04875663          	bge	a4,s0,80000544 <_Z9test_predv+0xb0>
800004fc:	04400713          	li	a4,68
80000500:	00e7a623          	sw	a4,12(a5)
80000504:	00400713          	li	a4,4
80000508:	02875e63          	bge	a4,s0,80000544 <_Z9test_predv+0xb0>
8000050c:	04500713          	li	a4,69
80000510:	00e7a823          	sw	a4,16(a5)
80000514:	00500713          	li	a4,5
80000518:	02875663          	bge	a4,s0,80000544 <_Z9test_predv+0xb0>
8000051c:	04600713          	li	a4,70
80000520:	00e7aa23          	sw	a4,20(a5)
80000524:	00600713          	li	a4,6
80000528:	00875e63          	bge	a4,s0,80000544 <_Z9test_predv+0xb0>
8000052c:	04700713          	li	a4,71
80000530:	00e7ac23          	sw	a4,24(a5)
80000534:	00700713          	li	a4,7
80000538:	00875663          	bge	a4,s0,80000544 <_Z9test_predv+0xb0>
8000053c:	04800713          	li	a4,72
80000540:	00e7ae23          	sw	a4,28(a5)
80000544:	0005000b          	.4byte	0x5000b
80000548:	f21ff0ef          	jal	80000468 <_Z7do_predv>
8000054c:	00100513          	li	a0,1
80000550:	0005000b          	.4byte	0x5000b
80000554:	00812403          	lw	s0,8(sp)
80000558:	00c12083          	lw	ra,12(sp)
8000055c:	00048593          	mv	a1,s1
80000560:	00412483          	lw	s1,4(sp)
80000564:	00008517          	auipc	a0,0x8
80000568:	1dc50513          	add	a0,a0,476 # 80008740 <pred_buffer>
8000056c:	01010113          	add	sp,sp,16
80000570:	cbdff06f          	j	8000022c <_Z11check_errorPKiii.constprop.0>

80000574 <_Z11test_wsapwnv>:
80000574:	ff010113          	add	sp,sp,-16
80000578:	00007517          	auipc	a0,0x7
8000057c:	80050513          	add	a0,a0,-2048 # 80006d78 <__call_exitprocs+0x1a8>
80000580:	00112623          	sw	ra,12(sp)
80000584:	680000ef          	jal	80000c04 <vx_printf>
80000588:	fc1025f3          	csrr	a1,0xfc1
8000058c:	00800793          	li	a5,8
80000590:	00b7d463          	bge	a5,a1,80000598 <_Z11test_wsapwnv+0x24>
80000594:	00800593          	li	a1,8
80000598:	00000797          	auipc	a5,0x0
8000059c:	bd078793          	add	a5,a5,-1072 # 80000168 <_Z13wspawn_kernelv>
800005a0:	00f5900b          	.4byte	0xf5900b
800005a4:	cc1027f3          	csrr	a5,0xcc1
800005a8:	00008517          	auipc	a0,0x8
800005ac:	17850513          	add	a0,a0,376 # 80008720 <wspawn_buffer>
800005b0:	00279713          	sll	a4,a5,0x2
800005b4:	04178693          	add	a3,a5,65
800005b8:	00e50733          	add	a4,a0,a4
800005bc:	00d72023          	sw	a3,0(a4)
800005c0:	0017b793          	seqz	a5,a5
800005c4:	0007800b          	.4byte	0x7800b
800005c8:	00c12083          	lw	ra,12(sp)
800005cc:	01010113          	add	sp,sp,16
800005d0:	c5dff06f          	j	8000022c <_Z11check_errorPKiii.constprop.0>

800005d4 <_Z13do_divergencev>:
800005d4:	cc0027f3          	csrr	a5,0xcc0
800005d8:	0027a713          	slti	a4,a5,2
800005dc:	0007270b          	.4byte	0x7270b
800005e0:	00100693          	li	a3,1
800005e4:	02f6dc63          	bge	a3,a5,8000061c <_Z13do_divergencev+0x48>
800005e8:	0037a613          	slti	a2,a5,3
800005ec:	0006260b          	.4byte	0x6260b
800005f0:	00200693          	li	a3,2
800005f4:	00f6a6b3          	slt	a3,a3,a5
800005f8:	04368693          	add	a3,a3,67
800005fc:	00279793          	sll	a5,a5,0x2
80000600:	00008597          	auipc	a1,0x8
80000604:	11058593          	add	a1,a1,272 # 80008710 <dvg_buffer>
80000608:	00f587b3          	add	a5,a1,a5
8000060c:	00d7a023          	sw	a3,0(a5)
80000610:	0006300b          	.4byte	0x6300b
80000614:	0007300b          	.4byte	0x7300b
80000618:	00008067          	ret
8000061c:	0017a613          	slti	a2,a5,1
80000620:	0006260b          	.4byte	0x6260b
80000624:	00f026b3          	sgtz	a3,a5
80000628:	04168693          	add	a3,a3,65
8000062c:	0006300b          	.4byte	0x6300b
80000630:	01f7d613          	srl	a2,a5,0x1f
80000634:	0006260b          	.4byte	0x6260b
80000638:	0007d463          	bgez	a5,80000640 <_Z13do_divergencev+0x6c>
8000063c:	04300693          	li	a3,67
80000640:	00279793          	sll	a5,a5,0x2
80000644:	00008597          	auipc	a1,0x8
80000648:	0cc58593          	add	a1,a1,204 # 80008710 <dvg_buffer>
8000064c:	00f587b3          	add	a5,a1,a5
80000650:	00d7a023          	sw	a3,0(a5)
80000654:	0006300b          	.4byte	0x6300b
80000658:	0007300b          	.4byte	0x7300b
8000065c:	00008067          	ret

80000660 <_Z15test_divergencev>:
80000660:	ff010113          	add	sp,sp,-16
80000664:	00006517          	auipc	a0,0x6
80000668:	72450513          	add	a0,a0,1828 # 80006d88 <__call_exitprocs+0x1b8>
8000066c:	00112623          	sw	ra,12(sp)
80000670:	00812423          	sw	s0,8(sp)
80000674:	590000ef          	jal	80000c04 <vx_printf>
80000678:	fc002473          	csrr	s0,0xfc0
8000067c:	00400793          	li	a5,4
80000680:	0087d463          	bge	a5,s0,80000688 <_Z15test_divergencev+0x28>
80000684:	00400413          	li	s0,4
80000688:	00040513          	mv	a0,s0
8000068c:	c39ff0ef          	jal	800002c4 <_Z15make_full_tmaski>
80000690:	0005000b          	.4byte	0x5000b
80000694:	f41ff0ef          	jal	800005d4 <_Z13do_divergencev>
80000698:	00100513          	li	a0,1
8000069c:	0005000b          	.4byte	0x5000b
800006a0:	00040593          	mv	a1,s0
800006a4:	00812403          	lw	s0,8(sp)
800006a8:	00c12083          	lw	ra,12(sp)
800006ac:	00008517          	auipc	a0,0x8
800006b0:	06450513          	add	a0,a0,100 # 80008710 <dvg_buffer>
800006b4:	01010113          	add	sp,sp,16
800006b8:	b75ff06f          	j	8000022c <_Z11check_errorPKiii.constprop.0>

800006bc <_Z16test_spawn_tasksv>:
800006bc:	fe010113          	add	sp,sp,-32
800006c0:	00006517          	auipc	a0,0x6
800006c4:	6e450513          	add	a0,a0,1764 # 80006da4 <__call_exitprocs+0x1d4>
800006c8:	00112e23          	sw	ra,28(sp)
800006cc:	00812c23          	sw	s0,24(sp)
800006d0:	534000ef          	jal	80000c04 <vx_printf>
800006d4:	00008797          	auipc	a5,0x8
800006d8:	01c78793          	add	a5,a5,28 # 800086f0 <st_buffer_src>
800006dc:	04100713          	li	a4,65
800006e0:	00e7a023          	sw	a4,0(a5)
800006e4:	04200713          	li	a4,66
800006e8:	00e7a223          	sw	a4,4(a5)
800006ec:	04300713          	li	a4,67
800006f0:	00e7a423          	sw	a4,8(a5)
800006f4:	04400713          	li	a4,68
800006f8:	00e7a623          	sw	a4,12(a5)
800006fc:	04500713          	li	a4,69
80000700:	00e7a823          	sw	a4,16(a5)
80000704:	04600713          	li	a4,70
80000708:	00e7aa23          	sw	a4,20(a5)
8000070c:	04700713          	li	a4,71
80000710:	00008417          	auipc	s0,0x8
80000714:	fc040413          	add	s0,s0,-64 # 800086d0 <st_buffer_dst>
80000718:	00810613          	add	a2,sp,8
8000071c:	00e7ac23          	sw	a4,24(a5)
80000720:	00000597          	auipc	a1,0x0
80000724:	a7058593          	add	a1,a1,-1424 # 80000190 <_Z9st_kerneliPK9st_args_t>
80000728:	04800713          	li	a4,72
8000072c:	00800513          	li	a0,8
80000730:	00f12423          	sw	a5,8(sp)
80000734:	00812623          	sw	s0,12(sp)
80000738:	00e7ae23          	sw	a4,28(a5)
8000073c:	62c000ef          	jal	80000d68 <vx_spawn_tasks>
80000740:	00040513          	mv	a0,s0
80000744:	00800593          	li	a1,8
80000748:	ae5ff0ef          	jal	8000022c <_Z11check_errorPKiii.constprop.0>
8000074c:	01c12083          	lw	ra,28(sp)
80000750:	01812403          	lw	s0,24(sp)
80000754:	02010113          	add	sp,sp,32
80000758:	00008067          	ret

8000075c <_Z9do_serialv>:
8000075c:	fe010113          	add	sp,sp,-32
80000760:	00c10593          	add	a1,sp,12
80000764:	00008797          	auipc	a5,0x8
80000768:	f4c78793          	add	a5,a5,-180 # 800086b0 <sr_buffer>
8000076c:	00000517          	auipc	a0,0x0
80000770:	a4450513          	add	a0,a0,-1468 # 800001b0 <_Z9sr_kernelPK9sr_args_t>
80000774:	00112e23          	sw	ra,28(sp)
80000778:	00f12623          	sw	a5,12(sp)
8000077c:	73c000ef          	jal	80000eb8 <vx_serial>
80000780:	01c12083          	lw	ra,28(sp)
80000784:	02010113          	add	sp,sp,32
80000788:	00008067          	ret

8000078c <_Z11test_serialv>:
8000078c:	ff010113          	add	sp,sp,-16
80000790:	00006517          	auipc	a0,0x6
80000794:	62850513          	add	a0,a0,1576 # 80006db8 <__call_exitprocs+0x1e8>
80000798:	00112623          	sw	ra,12(sp)
8000079c:	00812423          	sw	s0,8(sp)
800007a0:	464000ef          	jal	80000c04 <vx_printf>
800007a4:	fc002473          	csrr	s0,0xfc0
800007a8:	00800793          	li	a5,8
800007ac:	0087d463          	bge	a5,s0,800007b4 <_Z11test_serialv+0x28>
800007b0:	00800413          	li	s0,8
800007b4:	00040513          	mv	a0,s0
800007b8:	b0dff0ef          	jal	800002c4 <_Z15make_full_tmaski>
800007bc:	0005000b          	.4byte	0x5000b
800007c0:	f9dff0ef          	jal	8000075c <_Z9do_serialv>
800007c4:	00100513          	li	a0,1
800007c8:	0005000b          	.4byte	0x5000b
800007cc:	00040593          	mv	a1,s0
800007d0:	00812403          	lw	s0,8(sp)
800007d4:	00c12083          	lw	ra,12(sp)
800007d8:	00008517          	auipc	a0,0x8
800007dc:	ed850513          	add	a0,a0,-296 # 800086b0 <sr_buffer>
800007e0:	01010113          	add	sp,sp,16
800007e4:	a49ff06f          	j	8000022c <_Z11check_errorPKiii.constprop.0>

800007e8 <_Z8do_tmaskv>:
800007e8:	ff010113          	add	sp,sp,-16
800007ec:	00112623          	sw	ra,12(sp)
800007f0:	00812423          	sw	s0,8(sp)
800007f4:	cc002473          	csrr	s0,0xcc0
800007f8:	00040513          	mv	a0,s0
800007fc:	abdff0ef          	jal	800002b8 <_Z17make_select_tmaski>
80000800:	cc4027f3          	csrr	a5,0xcc4
80000804:	04140713          	add	a4,s0,65
80000808:	00a78463          	beq	a5,a0,80000810 <_Z8do_tmaskv+0x28>
8000080c:	00000713          	li	a4,0
80000810:	00c12083          	lw	ra,12(sp)
80000814:	00241693          	sll	a3,s0,0x2
80000818:	00140513          	add	a0,s0,1
8000081c:	00008797          	auipc	a5,0x8
80000820:	e7478793          	add	a5,a5,-396 # 80008690 <tmask_buffer>
80000824:	00812403          	lw	s0,8(sp)
80000828:	00d787b3          	add	a5,a5,a3
8000082c:	00e7a023          	sw	a4,0(a5)
80000830:	01010113          	add	sp,sp,16
80000834:	00008067          	ret

80000838 <_Z10test_tmaskv>:
80000838:	ff010113          	add	sp,sp,-16
8000083c:	00006517          	auipc	a0,0x6
80000840:	58c50513          	add	a0,a0,1420 # 80006dc8 <__call_exitprocs+0x1f8>
80000844:	00112623          	sw	ra,12(sp)
80000848:	00812423          	sw	s0,8(sp)
8000084c:	3b8000ef          	jal	80000c04 <vx_printf>
80000850:	fff00793          	li	a5,-1
80000854:	0007800b          	.4byte	0x7800b
80000858:	fc002473          	csrr	s0,0xfc0
8000085c:	00800793          	li	a5,8
80000860:	0087d463          	bge	a5,s0,80000868 <_Z10test_tmaskv+0x30>
80000864:	00800413          	li	s0,8
80000868:	00000513          	li	a0,0
8000086c:	a4dff0ef          	jal	800002b8 <_Z17make_select_tmaski>
80000870:	0005000b          	.4byte	0x5000b
80000874:	f75ff0ef          	jal	800007e8 <_Z8do_tmaskv>
80000878:	fe854ae3          	blt	a0,s0,8000086c <_Z10test_tmaskv+0x34>
8000087c:	00100513          	li	a0,1
80000880:	0005000b          	.4byte	0x5000b
80000884:	00040593          	mv	a1,s0
80000888:	00812403          	lw	s0,8(sp)
8000088c:	00c12083          	lw	ra,12(sp)
80000890:	00008517          	auipc	a0,0x8
80000894:	e0050513          	add	a0,a0,-512 # 80008690 <tmask_buffer>
80000898:	01010113          	add	sp,sp,16
8000089c:	991ff06f          	j	8000022c <_Z11check_errorPKiii.constprop.0>

800008a0 <_Z12test_barrierv>:
800008a0:	ff010113          	add	sp,sp,-16
800008a4:	00006517          	auipc	a0,0x6
800008a8:	53850513          	add	a0,a0,1336 # 80006ddc <__call_exitprocs+0x20c>
800008ac:	00112623          	sw	ra,12(sp)
800008b0:	354000ef          	jal	80000c04 <vx_printf>
800008b4:	fc1025f3          	csrr	a1,0xfc1
800008b8:	00800793          	li	a5,8
800008bc:	00b7d463          	bge	a5,a1,800008c4 <_Z12test_barrierv+0x24>
800008c0:	00800593          	li	a1,8
800008c4:	00008897          	auipc	a7,0x8
800008c8:	d8888893          	add	a7,a7,-632 # 8000864c <barrier_ctr>
800008cc:	00b8a023          	sw	a1,0(a7)
800008d0:	00008797          	auipc	a5,0x8
800008d4:	d607ac23          	sw	zero,-648(a5) # 80008648 <barrier_stall>
800008d8:	00000797          	auipc	a5,0x0
800008dc:	8f478793          	add	a5,a5,-1804 # 800001cc <_Z14barrier_kernelv>
800008e0:	00f5900b          	.4byte	0xf5900b
800008e4:	cc102873          	csrr	a6,0xcc1
800008e8:	00881613          	sll	a2,a6,0x8
800008ec:	00160613          	add	a2,a2,1
800008f0:	00000713          	li	a4,0
800008f4:	00008697          	auipc	a3,0x8
800008f8:	d5468693          	add	a3,a3,-684 # 80008648 <barrier_stall>
800008fc:	0006a783          	lw	a5,0(a3)
80000900:	00170713          	add	a4,a4,1
80000904:	00178793          	add	a5,a5,1
80000908:	00f6a023          	sw	a5,0(a3)
8000090c:	fec718e3          	bne	a4,a2,800008fc <_Z12test_barrierv+0x5c>
80000910:	00008517          	auipc	a0,0x8
80000914:	d6050513          	add	a0,a0,-672 # 80008670 <barrier_buffer>
80000918:	00281793          	sll	a5,a6,0x2
8000091c:	00f507b3          	add	a5,a0,a5
80000920:	04180693          	add	a3,a6,65
80000924:	00d7a023          	sw	a3,0(a5)
80000928:	0008a703          	lw	a4,0(a7)
8000092c:	00000793          	li	a5,0
80000930:	00e7c00b          	.4byte	0xe7c00b
80000934:	00183813          	seqz	a6,a6
80000938:	0008000b          	.4byte	0x8000b
8000093c:	00c12083          	lw	ra,12(sp)
80000940:	01010113          	add	sp,sp,16
80000944:	8e9ff06f          	j	8000022c <_Z11check_errorPKiii.constprop.0>

80000948 <_Z13print_tls_varv>:
80000948:	cc1026f3          	csrr	a3,0xcc1
8000094c:	00022703          	lw	a4,0(tp) # 0 <tls_var>
80000950:	00269693          	sll	a3,a3,0x2
80000954:	00008797          	auipc	a5,0x8
80000958:	cfc78793          	add	a5,a5,-772 # 80008650 <tls_buffer>
8000095c:	00d787b3          	add	a5,a5,a3
80000960:	04170713          	add	a4,a4,65
80000964:	00e7a023          	sw	a4,0(a5)
80000968:	00008067          	ret

8000096c <_Z10tls_kernelv>:
8000096c:	ff010113          	add	sp,sp,-16
80000970:	00112623          	sw	ra,12(sp)
80000974:	00812423          	sw	s0,8(sp)
80000978:	cc102473          	csrr	s0,0xcc1
8000097c:	00822023          	sw	s0,0(tp) # 0 <tls_var>
80000980:	fc9ff0ef          	jal	80000948 <_Z13print_tls_varv>
80000984:	00143413          	seqz	s0,s0
80000988:	0004000b          	.4byte	0x4000b
8000098c:	00c12083          	lw	ra,12(sp)
80000990:	00812403          	lw	s0,8(sp)
80000994:	01010113          	add	sp,sp,16
80000998:	00008067          	ret

8000099c <_Z8test_tlsv>:
8000099c:	ff010113          	add	sp,sp,-16
800009a0:	00006517          	auipc	a0,0x6
800009a4:	44c50513          	add	a0,a0,1100 # 80006dec <__call_exitprocs+0x21c>
800009a8:	00112623          	sw	ra,12(sp)
800009ac:	00812423          	sw	s0,8(sp)
800009b0:	00912223          	sw	s1,4(sp)
800009b4:	250000ef          	jal	80000c04 <vx_printf>
800009b8:	fc1024f3          	csrr	s1,0xfc1
800009bc:	00800793          	li	a5,8
800009c0:	0097d463          	bge	a5,s1,800009c8 <_Z8test_tlsv+0x2c>
800009c4:	00800493          	li	s1,8
800009c8:	00000797          	auipc	a5,0x0
800009cc:	fa478793          	add	a5,a5,-92 # 8000096c <_Z10tls_kernelv>
800009d0:	00f4900b          	.4byte	0xf4900b
800009d4:	cc102473          	csrr	s0,0xcc1
800009d8:	00822023          	sw	s0,0(tp) # 0 <tls_var>
800009dc:	f6dff0ef          	jal	80000948 <_Z13print_tls_varv>
800009e0:	00143413          	seqz	s0,s0
800009e4:	0004000b          	.4byte	0x4000b
800009e8:	00812403          	lw	s0,8(sp)
800009ec:	00c12083          	lw	ra,12(sp)
800009f0:	00048593          	mv	a1,s1
800009f4:	00412483          	lw	s1,4(sp)
800009f8:	00008517          	auipc	a0,0x8
800009fc:	c5850513          	add	a0,a0,-936 # 80008650 <tls_buffer>
80000a00:	01010113          	add	sp,sp,16
80000a04:	829ff06f          	j	8000022c <_Z11check_errorPKiii.constprop.0>

80000a08 <_exit>:
80000a08:	00050413          	mv	s0,a0
80000a0c:	528000ef          	jal	80000f34 <vx_perf_dump>
80000a10:	00040193          	mv	gp,s0
80000a14:	0000000b          	.4byte	0xb

80000a18 <init_regs>:
80000a18:	00008197          	auipc	gp,0x8
80000a1c:	39018193          	add	gp,gp,912 # 80008da8 <__global_pointer>
80000a20:	ff000137          	lui	sp,0xff000
80000a24:	f14022f3          	csrr	t0,mhartid
80000a28:	00d29313          	sll	t1,t0,0xd
80000a2c:	40610133          	sub	sp,sp,t1
80000a30:	04000313          	li	t1,64
80000a34:	026282b3          	mul	t0,t0,t1
80000a38:	00009217          	auipc	tp,0x9
80000a3c:	dc720213          	add	tp,tp,-569 # 800097ff <__BSS_END__+0x3f>
80000a40:	00520233          	add	tp,tp,t0
80000a44:	fc027213          	and	tp,tp,-64
80000a48:	00008067          	ret

80000a4c <init_regs_all>:
80000a4c:	fff00293          	li	t0,-1
80000a50:	0002800b          	.4byte	0x2800b
80000a54:	fc5ff0ef          	jal	80000a18 <init_regs>
80000a58:	0000000b          	.4byte	0xb
80000a5c:	00008067          	ret

80000a60 <init_tls_all>:
80000a60:	fff00293          	li	t0,-1
80000a64:	0002800b          	.4byte	0x2800b
80000a68:	01c000ef          	jal	80000a84 <__init_tls>
80000a6c:	0000000b          	.4byte	0xb
80000a70:	00008067          	ret

80000a74 <vx_wspawn_wait>:
80000a74:	cc3022f3          	csrr	t0,0xcc3
80000a78:	00100313          	li	t1,1
80000a7c:	fe629ce3          	bne	t0,t1,80000a74 <vx_wspawn_wait>
80000a80:	00008067          	ret

80000a84 <__init_tls>:
80000a84:	ff010113          	add	sp,sp,-16 # fefffff0 <__BSS_END__+0x7eff6830>
80000a88:	00000613          	li	a2,0
80000a8c:	00007597          	auipc	a1,0x7
80000a90:	6ec58593          	add	a1,a1,1772 # 80008178 <__init_array_start>
80000a94:	00020513          	mv	a0,tp
80000a98:	00812423          	sw	s0,8(sp)
80000a9c:	00112623          	sw	ra,12(sp)
80000aa0:	00020413          	mv	s0,tp
80000aa4:	611050ef          	jal	800068b4 <memcpy>
80000aa8:	00000513          	li	a0,0
80000aac:	00a40533          	add	a0,s0,a0
80000ab0:	00812403          	lw	s0,8(sp)
80000ab4:	00c12083          	lw	ra,12(sp)
80000ab8:	00400613          	li	a2,4
80000abc:	00000593          	li	a1,0
80000ac0:	01010113          	add	sp,sp,16
80000ac4:	7950506f          	j	80006a58 <memset>

80000ac8 <__libc_init_array>:
80000ac8:	ff010113          	add	sp,sp,-16
80000acc:	00812423          	sw	s0,8(sp)
80000ad0:	01212023          	sw	s2,0(sp)
80000ad4:	00007797          	auipc	a5,0x7
80000ad8:	6a478793          	add	a5,a5,1700 # 80008178 <__init_array_start>
80000adc:	00007417          	auipc	s0,0x7
80000ae0:	69c40413          	add	s0,s0,1692 # 80008178 <__init_array_start>
80000ae4:	00112623          	sw	ra,12(sp)
80000ae8:	00912223          	sw	s1,4(sp)
80000aec:	40878933          	sub	s2,a5,s0
80000af0:	02878063          	beq	a5,s0,80000b10 <__libc_init_array+0x48>
80000af4:	40295913          	sra	s2,s2,0x2
80000af8:	00000493          	li	s1,0
80000afc:	00042783          	lw	a5,0(s0)
80000b00:	00148493          	add	s1,s1,1
80000b04:	00440413          	add	s0,s0,4
80000b08:	000780e7          	jalr	a5
80000b0c:	ff24e8e3          	bltu	s1,s2,80000afc <__libc_init_array+0x34>
80000b10:	00007797          	auipc	a5,0x7
80000b14:	66c78793          	add	a5,a5,1644 # 8000817c <__fini_array_end>
80000b18:	00007417          	auipc	s0,0x7
80000b1c:	66040413          	add	s0,s0,1632 # 80008178 <__init_array_start>
80000b20:	40878933          	sub	s2,a5,s0
80000b24:	40295913          	sra	s2,s2,0x2
80000b28:	00878e63          	beq	a5,s0,80000b44 <__libc_init_array+0x7c>
80000b2c:	00000493          	li	s1,0
80000b30:	00042783          	lw	a5,0(s0)
80000b34:	00148493          	add	s1,s1,1
80000b38:	00440413          	add	s0,s0,4
80000b3c:	000780e7          	jalr	a5
80000b40:	ff24e8e3          	bltu	s1,s2,80000b30 <__libc_init_array+0x68>
80000b44:	00c12083          	lw	ra,12(sp)
80000b48:	00812403          	lw	s0,8(sp)
80000b4c:	00412483          	lw	s1,4(sp)
80000b50:	00012903          	lw	s2,0(sp)
80000b54:	01010113          	add	sp,sp,16
80000b58:	00008067          	ret

80000b5c <__libc_fini_array>:
80000b5c:	ff010113          	add	sp,sp,-16
80000b60:	00812423          	sw	s0,8(sp)
80000b64:	00007797          	auipc	a5,0x7
80000b68:	61878793          	add	a5,a5,1560 # 8000817c <__fini_array_end>
80000b6c:	00007417          	auipc	s0,0x7
80000b70:	61040413          	add	s0,s0,1552 # 8000817c <__fini_array_end>
80000b74:	40f40433          	sub	s0,s0,a5
80000b78:	00912223          	sw	s1,4(sp)
80000b7c:	00112623          	sw	ra,12(sp)
80000b80:	40245493          	sra	s1,s0,0x2
80000b84:	02048063          	beqz	s1,80000ba4 <__libc_fini_array+0x48>
80000b88:	ffc40413          	add	s0,s0,-4
80000b8c:	00f40433          	add	s0,s0,a5
80000b90:	00042783          	lw	a5,0(s0)
80000b94:	fff48493          	add	s1,s1,-1
80000b98:	ffc40413          	add	s0,s0,-4
80000b9c:	000780e7          	jalr	a5
80000ba0:	fe0498e3          	bnez	s1,80000b90 <__libc_fini_array+0x34>
80000ba4:	00c12083          	lw	ra,12(sp)
80000ba8:	00812403          	lw	s0,8(sp)
80000bac:	00412483          	lw	s1,4(sp)
80000bb0:	01010113          	add	sp,sp,16
80000bb4:	00008067          	ret

80000bb8 <vx_putchar>:
80000bb8:	f14022f3          	csrr	t0,mhartid
80000bbc:	03f2f293          	and	t0,t0,63
80000bc0:	ff004337          	lui	t1,0xff004
80000bc4:	006282b3          	add	t0,t0,t1
80000bc8:	00a28023          	sb	a0,0(t0)
80000bcc:	00008067          	ret

80000bd0 <__vprintf_cb>:
80000bd0:	00452783          	lw	a5,4(a0)
80000bd4:	ff010113          	add	sp,sp,-16
80000bd8:	00812423          	sw	s0,8(sp)
80000bdc:	0007a583          	lw	a1,0(a5)
80000be0:	00050413          	mv	s0,a0
80000be4:	00052503          	lw	a0,0(a0)
80000be8:	00112623          	sw	ra,12(sp)
80000bec:	49c020ef          	jal	80003088 <tiny_vprintf>
80000bf0:	00c12083          	lw	ra,12(sp)
80000bf4:	00a42423          	sw	a0,8(s0)
80000bf8:	00812403          	lw	s0,8(sp)
80000bfc:	01010113          	add	sp,sp,16
80000c00:	00008067          	ret

80000c04 <vx_printf>:
80000c04:	fb010113          	add	sp,sp,-80
80000c08:	04f12223          	sw	a5,68(sp)
80000c0c:	03410793          	add	a5,sp,52
80000c10:	00050313          	mv	t1,a0
80000c14:	02b12a23          	sw	a1,52(sp)
80000c18:	00f12623          	sw	a5,12(sp)
80000c1c:	00f12823          	sw	a5,16(sp)
80000c20:	00000517          	auipc	a0,0x0
80000c24:	fb050513          	add	a0,a0,-80 # 80000bd0 <__vprintf_cb>
80000c28:	01010793          	add	a5,sp,16
80000c2c:	01410593          	add	a1,sp,20
80000c30:	02112623          	sw	ra,44(sp)
80000c34:	02c12c23          	sw	a2,56(sp)
80000c38:	02d12e23          	sw	a3,60(sp)
80000c3c:	04e12023          	sw	a4,64(sp)
80000c40:	05012423          	sw	a6,72(sp)
80000c44:	05112623          	sw	a7,76(sp)
80000c48:	00612a23          	sw	t1,20(sp)
80000c4c:	00f12c23          	sw	a5,24(sp)
80000c50:	268000ef          	jal	80000eb8 <vx_serial>
80000c54:	02c12083          	lw	ra,44(sp)
80000c58:	01c12503          	lw	a0,28(sp)
80000c5c:	05010113          	add	sp,sp,80
80000c60:	00008067          	ret

80000c64 <spawn_tasks_all_stub>:
80000c64:	fe010113          	add	sp,sp,-32
80000c68:	00112e23          	sw	ra,28(sp)
80000c6c:	00812c23          	sw	s0,24(sp)
80000c70:	00912a23          	sw	s1,20(sp)
80000c74:	01212823          	sw	s2,16(sp)
80000c78:	01312623          	sw	s3,12(sp)
80000c7c:	fc002573          	csrr	a0,0xfc0
80000c80:	cc202773          	csrr	a4,0xcc2
80000c84:	cc1026f3          	csrr	a3,0xcc1
80000c88:	cc002673          	csrr	a2,0xcc0
80000c8c:	00008797          	auipc	a5,0x8
80000c90:	b3478793          	add	a5,a5,-1228 # 800087c0 <g_wspawn_args>
80000c94:	00271713          	sll	a4,a4,0x2
80000c98:	00e787b3          	add	a5,a5,a4
80000c9c:	0007a703          	lw	a4,0(a5)
80000ca0:	01072783          	lw	a5,16(a4)
80000ca4:	00c72583          	lw	a1,12(a4)
80000ca8:	00f6a4b3          	slt	s1,a3,a5
80000cac:	02d58433          	mul	s0,a1,a3
80000cb0:	00b484b3          	add	s1,s1,a1
80000cb4:	00f6d463          	bge	a3,a5,80000cbc <spawn_tasks_all_stub+0x58>
80000cb8:	00068793          	mv	a5,a3
80000cbc:	00f40433          	add	s0,s0,a5
80000cc0:	00872683          	lw	a3,8(a4)
80000cc4:	00072983          	lw	s3,0(a4)
80000cc8:	00472903          	lw	s2,4(a4)
80000ccc:	02a40433          	mul	s0,s0,a0
80000cd0:	02c487b3          	mul	a5,s1,a2
80000cd4:	00d40433          	add	s0,s0,a3
80000cd8:	00f40433          	add	s0,s0,a5
80000cdc:	008484b3          	add	s1,s1,s0
80000ce0:	00945c63          	bge	s0,s1,80000cf8 <spawn_tasks_all_stub+0x94>
80000ce4:	00040513          	mv	a0,s0
80000ce8:	00090593          	mv	a1,s2
80000cec:	00140413          	add	s0,s0,1
80000cf0:	000980e7          	jalr	s3
80000cf4:	fe8498e3          	bne	s1,s0,80000ce4 <spawn_tasks_all_stub+0x80>
80000cf8:	01c12083          	lw	ra,28(sp)
80000cfc:	01812403          	lw	s0,24(sp)
80000d00:	01412483          	lw	s1,20(sp)
80000d04:	01012903          	lw	s2,16(sp)
80000d08:	00c12983          	lw	s3,12(sp)
80000d0c:	02010113          	add	sp,sp,32
80000d10:	00008067          	ret

80000d14 <spawn_tasks_rem_stub>:
80000d14:	cc202773          	csrr	a4,0xcc2
80000d18:	cc002573          	csrr	a0,0xcc0
80000d1c:	00008797          	auipc	a5,0x8
80000d20:	aa478793          	add	a5,a5,-1372 # 800087c0 <g_wspawn_args>
80000d24:	00271713          	sll	a4,a4,0x2
80000d28:	00e787b3          	add	a5,a5,a4
80000d2c:	0007a783          	lw	a5,0(a5)
80000d30:	0087a683          	lw	a3,8(a5)
80000d34:	0007a703          	lw	a4,0(a5)
80000d38:	0047a583          	lw	a1,4(a5)
80000d3c:	00d50533          	add	a0,a0,a3
80000d40:	00070067          	jr	a4

80000d44 <spawn_tasks_all_cb>:
80000d44:	ff010113          	add	sp,sp,-16
80000d48:	00112623          	sw	ra,12(sp)
80000d4c:	fff00793          	li	a5,-1
80000d50:	0007800b          	.4byte	0x7800b
80000d54:	f11ff0ef          	jal	80000c64 <spawn_tasks_all_stub>
80000d58:	0000000b          	.4byte	0xb
80000d5c:	00c12083          	lw	ra,12(sp)
80000d60:	01010113          	add	sp,sp,16
80000d64:	00008067          	ret

80000d68 <vx_spawn_tasks>:
80000d68:	fd010113          	add	sp,sp,-48
80000d6c:	02112623          	sw	ra,44(sp)
80000d70:	02812423          	sw	s0,40(sp)
80000d74:	02912223          	sw	s1,36(sp)
80000d78:	03212023          	sw	s2,32(sp)
80000d7c:	fc202873          	csrr	a6,0xfc2
80000d80:	fc1026f3          	csrr	a3,0xfc1
80000d84:	fc002473          	csrr	s0,0xfc0
80000d88:	cc202773          	csrr	a4,0xcc2
80000d8c:	3ff00793          	li	a5,1023
80000d90:	08e7c063          	blt	a5,a4,80000e10 <vx_spawn_tasks+0xa8>
80000d94:	02d408b3          	mul	a7,s0,a3
80000d98:	00100793          	li	a5,1
80000d9c:	00a8d463          	bge	a7,a0,80000da4 <vx_spawn_tasks+0x3c>
80000da0:	031547b3          	div	a5,a0,a7
80000da4:	08f84263          	blt	a6,a5,80000e28 <vx_spawn_tasks+0xc0>
80000da8:	06f75463          	bge	a4,a5,80000e10 <vx_spawn_tasks+0xa8>
80000dac:	fff78313          	add	t1,a5,-1
80000db0:	02f548b3          	div	a7,a0,a5
80000db4:	00088813          	mv	a6,a7
80000db8:	00e31663          	bne	t1,a4,80000dc4 <vx_spawn_tasks+0x5c>
80000dbc:	02f56533          	rem	a0,a0,a5
80000dc0:	01150833          	add	a6,a0,a7
80000dc4:	028844b3          	div	s1,a6,s0
80000dc8:	02886933          	rem	s2,a6,s0
80000dcc:	06d4c463          	blt	s1,a3,80000e34 <vx_spawn_tasks+0xcc>
80000dd0:	02d4c833          	div	a6,s1,a3
80000dd4:	02d4e533          	rem	a0,s1,a3
80000dd8:	00008797          	auipc	a5,0x8
80000ddc:	9e878793          	add	a5,a5,-1560 # 800087c0 <g_wspawn_args>
80000de0:	00b12623          	sw	a1,12(sp)
80000de4:	00c12823          	sw	a2,16(sp)
80000de8:	01012c23          	sw	a6,24(sp)
80000dec:	00a12e23          	sw	a0,28(sp)
80000df0:	02e888b3          	mul	a7,a7,a4
80000df4:	00271713          	sll	a4,a4,0x2
80000df8:	00e787b3          	add	a5,a5,a4
80000dfc:	00c10713          	add	a4,sp,12
80000e00:	00e7a023          	sw	a4,0(a5)
80000e04:	01112a23          	sw	a7,20(sp)
80000e08:	02904c63          	bgtz	s1,80000e40 <vx_spawn_tasks+0xd8>
80000e0c:	06091463          	bnez	s2,80000e74 <vx_spawn_tasks+0x10c>
80000e10:	02c12083          	lw	ra,44(sp)
80000e14:	02812403          	lw	s0,40(sp)
80000e18:	02412483          	lw	s1,36(sp)
80000e1c:	02012903          	lw	s2,32(sp)
80000e20:	03010113          	add	sp,sp,48
80000e24:	00008067          	ret
80000e28:	00080793          	mv	a5,a6
80000e2c:	f8f740e3          	blt	a4,a5,80000dac <vx_spawn_tasks+0x44>
80000e30:	fe1ff06f          	j	80000e10 <vx_spawn_tasks+0xa8>
80000e34:	00000513          	li	a0,0
80000e38:	00100813          	li	a6,1
80000e3c:	f9dff06f          	j	80000dd8 <vx_spawn_tasks+0x70>
80000e40:	00048793          	mv	a5,s1
80000e44:	0096d463          	bge	a3,s1,80000e4c <vx_spawn_tasks+0xe4>
80000e48:	00068793          	mv	a5,a3
80000e4c:	00000717          	auipc	a4,0x0
80000e50:	ef870713          	add	a4,a4,-264 # 80000d44 <spawn_tasks_all_cb>
80000e54:	00e7900b          	.4byte	0xe7900b
80000e58:	fff00793          	li	a5,-1
80000e5c:	0007800b          	.4byte	0x7800b
80000e60:	e05ff0ef          	jal	80000c64 <spawn_tasks_all_stub>
80000e64:	00100513          	li	a0,1
80000e68:	0005000b          	.4byte	0x5000b
80000e6c:	c09ff0ef          	jal	80000a74 <vx_wspawn_wait>
80000e70:	fa0900e3          	beqz	s2,80000e10 <vx_spawn_tasks+0xa8>
80000e74:	028484b3          	mul	s1,s1,s0
80000e78:	01412703          	lw	a4,20(sp)
80000e7c:	00100793          	li	a5,1
80000e80:	012797b3          	sll	a5,a5,s2
80000e84:	fff78793          	add	a5,a5,-1
80000e88:	00970733          	add	a4,a4,s1
80000e8c:	00e12a23          	sw	a4,20(sp)
80000e90:	0007800b          	.4byte	0x7800b
80000e94:	e81ff0ef          	jal	80000d14 <spawn_tasks_rem_stub>
80000e98:	00100513          	li	a0,1
80000e9c:	0005000b          	.4byte	0x5000b
80000ea0:	02c12083          	lw	ra,44(sp)
80000ea4:	02812403          	lw	s0,40(sp)
80000ea8:	02412483          	lw	s1,36(sp)
80000eac:	02012903          	lw	s2,32(sp)
80000eb0:	03010113          	add	sp,sp,48
80000eb4:	00008067          	ret

80000eb8 <vx_serial>:
80000eb8:	fe410113          	add	sp,sp,-28
80000ebc:	00112c23          	sw	ra,24(sp)
80000ec0:	01512a23          	sw	s5,20(sp)
80000ec4:	01412823          	sw	s4,16(sp)
80000ec8:	01312623          	sw	s3,12(sp)
80000ecc:	01212423          	sw	s2,8(sp)
80000ed0:	00912223          	sw	s1,4(sp)
80000ed4:	00812023          	sw	s0,0(sp)
80000ed8:	00050a13          	mv	s4,a0
80000edc:	00058993          	mv	s3,a1
80000ee0:	fc002973          	csrr	s2,0xfc0
80000ee4:	cc0024f3          	csrr	s1,0xcc0
80000ee8:	00000413          	li	s0,0

80000eec <label_loop>:
80000eec:	409402b3          	sub	t0,s0,s1
80000ef0:	0012b313          	seqz	t1,t0
80000ef4:	00032a8b          	.4byte	0x32a8b
80000ef8:	00029663          	bnez	t0,80000f04 <label_join>
80000efc:	00098513          	mv	a0,s3
80000f00:	000a00e7          	jalr	s4

80000f04 <label_join>:
80000f04:	000ab00b          	.4byte	0xab00b
80000f08:	00140413          	add	s0,s0,1
80000f0c:	ff2440e3          	blt	s0,s2,80000eec <label_loop>
80000f10:	01812083          	lw	ra,24(sp)
80000f14:	01412a83          	lw	s5,20(sp)
80000f18:	01012a03          	lw	s4,16(sp)
80000f1c:	00c12983          	lw	s3,12(sp)
80000f20:	00812903          	lw	s2,8(sp)
80000f24:	00412483          	lw	s1,4(sp)
80000f28:	00012403          	lw	s0,0(sp)
80000f2c:	01c10113          	add	sp,sp,28
80000f30:	00008067          	ret

80000f34 <vx_perf_dump>:
80000f34:	cc2027f3          	csrr	a5,0xcc2
80000f38:	ff004737          	lui	a4,0xff004
80000f3c:	04070713          	add	a4,a4,64 # ff004040 <__BSS_END__+0x7effa880>
80000f40:	00879793          	sll	a5,a5,0x8
80000f44:	00e787b3          	add	a5,a5,a4
80000f48:	b0002773          	csrr	a4,mcycle
80000f4c:	00e7a023          	sw	a4,0(a5)
80000f50:	b0102773          	csrr	a4,0xb01
80000f54:	00e7a223          	sw	a4,4(a5)
80000f58:	b0202773          	csrr	a4,minstret
80000f5c:	00e7a423          	sw	a4,8(a5)
80000f60:	b0302773          	csrr	a4,mhpmcounter3
80000f64:	00e7a623          	sw	a4,12(a5)
80000f68:	b0402773          	csrr	a4,mhpmcounter4
80000f6c:	00e7a823          	sw	a4,16(a5)
80000f70:	b0502773          	csrr	a4,mhpmcounter5
80000f74:	00e7aa23          	sw	a4,20(a5)
80000f78:	b0602773          	csrr	a4,mhpmcounter6
80000f7c:	00e7ac23          	sw	a4,24(a5)
80000f80:	b0702773          	csrr	a4,mhpmcounter7
80000f84:	00e7ae23          	sw	a4,28(a5)
80000f88:	b0802773          	csrr	a4,mhpmcounter8
80000f8c:	02e7a023          	sw	a4,32(a5)
80000f90:	b0902773          	csrr	a4,mhpmcounter9
80000f94:	02e7a223          	sw	a4,36(a5)
80000f98:	b0a02773          	csrr	a4,mhpmcounter10
80000f9c:	02e7a423          	sw	a4,40(a5)
80000fa0:	b0b02773          	csrr	a4,mhpmcounter11
80000fa4:	02e7a623          	sw	a4,44(a5)
80000fa8:	b0c02773          	csrr	a4,mhpmcounter12
80000fac:	02e7a823          	sw	a4,48(a5)
80000fb0:	b0d02773          	csrr	a4,mhpmcounter13
80000fb4:	02e7aa23          	sw	a4,52(a5)
80000fb8:	b0e02773          	csrr	a4,mhpmcounter14
80000fbc:	02e7ac23          	sw	a4,56(a5)
80000fc0:	b0f02773          	csrr	a4,mhpmcounter15
80000fc4:	02e7ae23          	sw	a4,60(a5)
80000fc8:	b1002773          	csrr	a4,mhpmcounter16
80000fcc:	04e7a023          	sw	a4,64(a5)
80000fd0:	b1102773          	csrr	a4,mhpmcounter17
80000fd4:	04e7a223          	sw	a4,68(a5)
80000fd8:	b1202773          	csrr	a4,mhpmcounter18
80000fdc:	04e7a423          	sw	a4,72(a5)
80000fe0:	b1302773          	csrr	a4,mhpmcounter19
80000fe4:	04e7a623          	sw	a4,76(a5)
80000fe8:	b1402773          	csrr	a4,mhpmcounter20
80000fec:	04e7a823          	sw	a4,80(a5)
80000ff0:	b1502773          	csrr	a4,mhpmcounter21
80000ff4:	04e7aa23          	sw	a4,84(a5)
80000ff8:	b1602773          	csrr	a4,mhpmcounter22
80000ffc:	04e7ac23          	sw	a4,88(a5)
80001000:	b1702773          	csrr	a4,mhpmcounter23
80001004:	04e7ae23          	sw	a4,92(a5)
80001008:	b1802773          	csrr	a4,mhpmcounter24
8000100c:	06e7a023          	sw	a4,96(a5)
80001010:	b1902773          	csrr	a4,mhpmcounter25
80001014:	06e7a223          	sw	a4,100(a5)
80001018:	b1a02773          	csrr	a4,mhpmcounter26
8000101c:	06e7a423          	sw	a4,104(a5)
80001020:	b1b02773          	csrr	a4,mhpmcounter27
80001024:	06e7a623          	sw	a4,108(a5)
80001028:	b1c02773          	csrr	a4,mhpmcounter28
8000102c:	06e7a823          	sw	a4,112(a5)
80001030:	b1d02773          	csrr	a4,mhpmcounter29
80001034:	06e7aa23          	sw	a4,116(a5)
80001038:	b1e02773          	csrr	a4,mhpmcounter30
8000103c:	06e7ac23          	sw	a4,120(a5)
80001040:	b1f02773          	csrr	a4,mhpmcounter31
80001044:	06e7ae23          	sw	a4,124(a5)
80001048:	b8002773          	csrr	a4,mcycleh
8000104c:	08e7a023          	sw	a4,128(a5)
80001050:	b8102773          	csrr	a4,0xb81
80001054:	08e7a223          	sw	a4,132(a5)
80001058:	b8202773          	csrr	a4,minstreth
8000105c:	08e7a423          	sw	a4,136(a5)
80001060:	b8302773          	csrr	a4,mhpmcounter3h
80001064:	08e7a623          	sw	a4,140(a5)
80001068:	b8402773          	csrr	a4,mhpmcounter4h
8000106c:	08e7a823          	sw	a4,144(a5)
80001070:	b8502773          	csrr	a4,mhpmcounter5h
80001074:	08e7aa23          	sw	a4,148(a5)
80001078:	b8602773          	csrr	a4,mhpmcounter6h
8000107c:	08e7ac23          	sw	a4,152(a5)
80001080:	b8702773          	csrr	a4,mhpmcounter7h
80001084:	08e7ae23          	sw	a4,156(a5)
80001088:	b8802773          	csrr	a4,mhpmcounter8h
8000108c:	0ae7a023          	sw	a4,160(a5)
80001090:	b8902773          	csrr	a4,mhpmcounter9h
80001094:	0ae7a223          	sw	a4,164(a5)
80001098:	b8a02773          	csrr	a4,mhpmcounter10h
8000109c:	0ae7a423          	sw	a4,168(a5)
800010a0:	b8b02773          	csrr	a4,mhpmcounter11h
800010a4:	0ae7a623          	sw	a4,172(a5)
800010a8:	b8c02773          	csrr	a4,mhpmcounter12h
800010ac:	0ae7a823          	sw	a4,176(a5)
800010b0:	b8d02773          	csrr	a4,mhpmcounter13h
800010b4:	0ae7aa23          	sw	a4,180(a5)
800010b8:	b8e02773          	csrr	a4,mhpmcounter14h
800010bc:	0ae7ac23          	sw	a4,184(a5)
800010c0:	b8f02773          	csrr	a4,mhpmcounter15h
800010c4:	0ae7ae23          	sw	a4,188(a5)
800010c8:	b9002773          	csrr	a4,mhpmcounter16h
800010cc:	0ce7a023          	sw	a4,192(a5)
800010d0:	b9102773          	csrr	a4,mhpmcounter17h
800010d4:	0ce7a223          	sw	a4,196(a5)
800010d8:	b9202773          	csrr	a4,mhpmcounter18h
800010dc:	0ce7a423          	sw	a4,200(a5)
800010e0:	b9302773          	csrr	a4,mhpmcounter19h
800010e4:	0ce7a623          	sw	a4,204(a5)
800010e8:	b9402773          	csrr	a4,mhpmcounter20h
800010ec:	0ce7a823          	sw	a4,208(a5)
800010f0:	b9502773          	csrr	a4,mhpmcounter21h
800010f4:	0ce7aa23          	sw	a4,212(a5)
800010f8:	b9602773          	csrr	a4,mhpmcounter22h
800010fc:	0ce7ac23          	sw	a4,216(a5)
80001100:	b9702773          	csrr	a4,mhpmcounter23h
80001104:	0ce7ae23          	sw	a4,220(a5)
80001108:	b9802773          	csrr	a4,mhpmcounter24h
8000110c:	0ee7a023          	sw	a4,224(a5)
80001110:	b9902773          	csrr	a4,mhpmcounter25h
80001114:	0ee7a223          	sw	a4,228(a5)
80001118:	b9a02773          	csrr	a4,mhpmcounter26h
8000111c:	0ee7a423          	sw	a4,232(a5)
80001120:	b9b02773          	csrr	a4,mhpmcounter27h
80001124:	0ee7a623          	sw	a4,236(a5)
80001128:	b9c02773          	csrr	a4,mhpmcounter28h
8000112c:	0ee7a823          	sw	a4,240(a5)
80001130:	b9d02773          	csrr	a4,mhpmcounter29h
80001134:	0ee7aa23          	sw	a4,244(a5)
80001138:	b9e02773          	csrr	a4,mhpmcounter30h
8000113c:	0ee7ac23          	sw	a4,248(a5)
80001140:	b9f02773          	csrr	a4,mhpmcounter31h
80001144:	0ee7ae23          	sw	a4,252(a5)
80001148:	00008067          	ret

8000114c <_out_null>:
8000114c:	00008067          	ret

80001150 <_out_rev>:
80001150:	fd010113          	add	sp,sp,-48
80001154:	02912223          	sw	s1,36(sp)
80001158:	03212023          	sw	s2,32(sp)
8000115c:	01312e23          	sw	s3,28(sp)
80001160:	01412c23          	sw	s4,24(sp)
80001164:	01512a23          	sw	s5,20(sp)
80001168:	01612823          	sw	s6,16(sp)
8000116c:	00060a93          	mv	s5,a2
80001170:	01812423          	sw	s8,8(sp)
80001174:	01912223          	sw	s9,4(sp)
80001178:	01a12023          	sw	s10,0(sp)
8000117c:	02112623          	sw	ra,44(sp)
80001180:	02812423          	sw	s0,40(sp)
80001184:	01712623          	sw	s7,12(sp)
80001188:	0038f613          	and	a2,a7,3
8000118c:	00088c93          	mv	s9,a7
80001190:	00050913          	mv	s2,a0
80001194:	00058993          	mv	s3,a1
80001198:	00068a13          	mv	s4,a3
8000119c:	00070b13          	mv	s6,a4
800011a0:	00078d13          	mv	s10,a5
800011a4:	00080c13          	mv	s8,a6
800011a8:	000a8493          	mv	s1,s5
800011ac:	02061863          	bnez	a2,800011dc <_out_rev+0x8c>
800011b0:	40f804b3          	sub	s1,a6,a5
800011b4:	015484b3          	add	s1,s1,s5
800011b8:	000a8413          	mv	s0,s5
800011bc:	0b07fc63          	bgeu	a5,a6,80001274 <_out_rev+0x124>
800011c0:	00040613          	mv	a2,s0
800011c4:	000a0693          	mv	a3,s4
800011c8:	00140413          	add	s0,s0,1
800011cc:	00098593          	mv	a1,s3
800011d0:	02000513          	li	a0,32
800011d4:	000900e7          	jalr	s2
800011d8:	fe9414e3          	bne	s0,s1,800011c0 <_out_rev+0x70>
800011dc:	01ab0433          	add	s0,s6,s10
800011e0:	00940bb3          	add	s7,s0,s1
800011e4:	020d0263          	beqz	s10,80001208 <_out_rev+0xb8>
800011e8:	fff44503          	lbu	a0,-1(s0)
800011ec:	408b8633          	sub	a2,s7,s0
800011f0:	000a0693          	mv	a3,s4
800011f4:	fff40413          	add	s0,s0,-1
800011f8:	00098593          	mv	a1,s3
800011fc:	000900e7          	jalr	s2
80001200:	fe8b14e3          	bne	s6,s0,800011e8 <_out_rev+0x98>
80001204:	01a484b3          	add	s1,s1,s10
80001208:	002cfc93          	and	s9,s9,2
8000120c:	020c8663          	beqz	s9,80001238 <_out_rev+0xe8>
80001210:	41548ab3          	sub	s5,s1,s5
80001214:	038af263          	bgeu	s5,s8,80001238 <_out_rev+0xe8>
80001218:	00048613          	mv	a2,s1
8000121c:	001a8a93          	add	s5,s5,1
80001220:	000a0693          	mv	a3,s4
80001224:	00098593          	mv	a1,s3
80001228:	02000513          	li	a0,32
8000122c:	00148493          	add	s1,s1,1
80001230:	000900e7          	jalr	s2
80001234:	ff8ae2e3          	bltu	s5,s8,80001218 <_out_rev+0xc8>
80001238:	02c12083          	lw	ra,44(sp)
8000123c:	02812403          	lw	s0,40(sp)
80001240:	02012903          	lw	s2,32(sp)
80001244:	01c12983          	lw	s3,28(sp)
80001248:	01812a03          	lw	s4,24(sp)
8000124c:	01412a83          	lw	s5,20(sp)
80001250:	01012b03          	lw	s6,16(sp)
80001254:	00c12b83          	lw	s7,12(sp)
80001258:	00812c03          	lw	s8,8(sp)
8000125c:	00412c83          	lw	s9,4(sp)
80001260:	00012d03          	lw	s10,0(sp)
80001264:	00048513          	mv	a0,s1
80001268:	02412483          	lw	s1,36(sp)
8000126c:	03010113          	add	sp,sp,48
80001270:	00008067          	ret
80001274:	000a8493          	mv	s1,s5
80001278:	f65ff06f          	j	800011dc <_out_rev+0x8c>

8000127c <_ntoa_format>:
8000127c:	00812383          	lw	t2,8(sp)
80001280:	00012283          	lw	t0,0(sp)
80001284:	00412f83          	lw	t6,4(sp)
80001288:	0023f313          	and	t1,t2,2
8000128c:	00080f13          	mv	t5,a6
80001290:	06031463          	bnez	t1,800012f8 <_ntoa_format+0x7c>
80001294:	100f9463          	bnez	t6,8000139c <_ntoa_format+0x120>
80001298:	0657f063          	bgeu	a5,t0,800012f8 <_ntoa_format+0x7c>
8000129c:	02000313          	li	t1,32
800012a0:	0013f813          	and	a6,t2,1
800012a4:	2c678263          	beq	a5,t1,80001568 <_ntoa_format+0x2ec>
800012a8:	03000e13          	li	t3,48
800012ac:	02000e93          	li	t4,32
800012b0:	0080006f          	j	800012b8 <_ntoa_format+0x3c>
800012b4:	15d78a63          	beq	a5,t4,80001408 <_ntoa_format+0x18c>
800012b8:	00178793          	add	a5,a5,1
800012bc:	00f70333          	add	t1,a4,a5
800012c0:	ffc30fa3          	sb	t3,-1(t1) # ff003fff <__BSS_END__+0x7effa83f>
800012c4:	fe57e8e3          	bltu	a5,t0,800012b4 <_ntoa_format+0x38>
800012c8:	02080863          	beqz	a6,800012f8 <_ntoa_format+0x7c>
800012cc:	03f7f663          	bgeu	a5,t6,800012f8 <_ntoa_format+0x7c>
800012d0:	02000813          	li	a6,32
800012d4:	03000e13          	li	t3,48
800012d8:	02000e93          	li	t4,32
800012dc:	01079663          	bne	a5,a6,800012e8 <_ntoa_format+0x6c>
800012e0:	1300006f          	j	80001410 <_ntoa_format+0x194>
800012e4:	07d78263          	beq	a5,t4,80001348 <_ntoa_format+0xcc>
800012e8:	00178793          	add	a5,a5,1
800012ec:	00f70333          	add	t1,a4,a5
800012f0:	ffc30fa3          	sb	t3,-1(t1)
800012f4:	fff798e3          	bne	a5,t6,800012e4 <_ntoa_format+0x68>
800012f8:	0103f813          	and	a6,t2,16
800012fc:	08080663          	beqz	a6,80001388 <_ntoa_format+0x10c>
80001300:	4003f813          	and	a6,t2,1024
80001304:	0e081063          	bnez	a6,800013e4 <_ntoa_format+0x168>
80001308:	04079a63          	bnez	a5,8000135c <_ntoa_format+0xe0>
8000130c:	01000793          	li	a5,16
80001310:	20f88863          	beq	a7,a5,80001520 <_ntoa_format+0x2a4>
80001314:	00200793          	li	a5,2
80001318:	22f88663          	beq	a7,a5,80001544 <_ntoa_format+0x2c8>
8000131c:	03000793          	li	a5,48
80001320:	00f70023          	sb	a5,0(a4)
80001324:	00100793          	li	a5,1
80001328:	100f1a63          	bnez	t5,8000143c <_ntoa_format+0x1c0>
8000132c:	0043f813          	and	a6,t2,4
80001330:	18080663          	beqz	a6,800014bc <_ntoa_format+0x240>
80001334:	00f70833          	add	a6,a4,a5
80001338:	02b00893          	li	a7,43
8000133c:	01180023          	sb	a7,0(a6)
80001340:	00178793          	add	a5,a5,1
80001344:	04c0006f          	j	80001390 <_ntoa_format+0x114>
80001348:	0103f813          	and	a6,t2,16
8000134c:	02000793          	li	a5,32
80001350:	04080063          	beqz	a6,80001390 <_ntoa_format+0x114>
80001354:	4003f813          	and	a6,t2,1024
80001358:	08081663          	bnez	a6,800013e4 <_ntoa_format+0x168>
8000135c:	00f28463          	beq	t0,a5,80001364 <_ntoa_format+0xe8>
80001360:	09f79263          	bne	a5,t6,800013e4 <_ntoa_format+0x168>
80001364:	fff78813          	add	a6,a5,-1
80001368:	18080663          	beqz	a6,800014f4 <_ntoa_format+0x278>
8000136c:	01000313          	li	t1,16
80001370:	20688463          	beq	a7,t1,80001578 <_ntoa_format+0x2fc>
80001374:	00200313          	li	t1,2
80001378:	10688463          	beq	a7,t1,80001480 <_ntoa_format+0x204>
8000137c:	01070833          	add	a6,a4,a6
80001380:	03000893          	li	a7,48
80001384:	01180023          	sb	a7,0(a6)
80001388:	02000813          	li	a6,32
8000138c:	f9079ee3          	bne	a5,a6,80001328 <_ntoa_format+0xac>
80001390:	00038893          	mv	a7,t2
80001394:	000f8813          	mv	a6,t6
80001398:	db9ff06f          	j	80001150 <_out_rev>
8000139c:	0013f813          	and	a6,t2,1
800013a0:	0a080c63          	beqz	a6,80001458 <_ntoa_format+0x1dc>
800013a4:	0e0f1663          	bnez	t5,80001490 <_ntoa_format+0x214>
800013a8:	00c3f313          	and	t1,t2,12
800013ac:	0e031263          	bnez	t1,80001490 <_ntoa_format+0x214>
800013b0:	f057fee3          	bgeu	a5,t0,800012cc <_ntoa_format+0x50>
800013b4:	02000313          	li	t1,32
800013b8:	ee6798e3          	bne	a5,t1,800012a8 <_ntoa_format+0x2c>
800013bc:	0103f313          	and	t1,t2,16
800013c0:	05f7e863          	bltu	a5,t6,80001410 <_ntoa_format+0x194>
800013c4:	f2031ee3          	bnez	t1,80001300 <_ntoa_format+0x84>
800013c8:	fc9ff06f          	j	80001390 <_ntoa_format+0x114>
800013cc:	0103f813          	and	a6,t2,16
800013d0:	fc0800e3          	beqz	a6,80001390 <_ntoa_format+0x114>
800013d4:	4003f813          	and	a6,t2,1024
800013d8:	fa081ce3          	bnez	a6,80001390 <_ntoa_format+0x114>
800013dc:	02000813          	li	a6,32
800013e0:	050f8663          	beq	t6,a6,8000142c <_ntoa_format+0x1b0>
800013e4:	01000813          	li	a6,16
800013e8:	0b088863          	beq	a7,a6,80001498 <_ntoa_format+0x21c>
800013ec:	00200813          	li	a6,2
800013f0:	09088063          	beq	a7,a6,80001470 <_ntoa_format+0x1f4>
800013f4:	02000813          	li	a6,32
800013f8:	f9078ce3          	beq	a5,a6,80001390 <_ntoa_format+0x114>
800013fc:	00078813          	mv	a6,a5
80001400:	00178793          	add	a5,a5,1
80001404:	f79ff06f          	j	8000137c <_ntoa_format+0x100>
80001408:	fc0802e3          	beqz	a6,800013cc <_ntoa_format+0x150>
8000140c:	f3f7fee3          	bgeu	a5,t6,80001348 <_ntoa_format+0xcc>
80001410:	0103f813          	and	a6,t2,16
80001414:	02000793          	li	a5,32
80001418:	f6080ce3          	beqz	a6,80001390 <_ntoa_format+0x114>
8000141c:	4003f813          	and	a6,t2,1024
80001420:	f60818e3          	bnez	a6,80001390 <_ntoa_format+0x114>
80001424:	18f28263          	beq	t0,a5,800015a8 <_ntoa_format+0x32c>
80001428:	faff9ee3          	bne	t6,a5,800013e4 <_ntoa_format+0x168>
8000142c:	02000f93          	li	t6,32
80001430:	02000793          	li	a5,32
80001434:	01f00813          	li	a6,31
80001438:	f35ff06f          	j	8000136c <_ntoa_format+0xf0>
8000143c:	00f70833          	add	a6,a4,a5
80001440:	02d00893          	li	a7,45
80001444:	01180023          	sb	a7,0(a6)
80001448:	00178793          	add	a5,a5,1
8000144c:	00038893          	mv	a7,t2
80001450:	000f8813          	mv	a6,t6
80001454:	cfdff06f          	j	80001150 <_out_rev>
80001458:	ea57f0e3          	bgeu	a5,t0,800012f8 <_ntoa_format+0x7c>
8000145c:	02000313          	li	t1,32
80001460:	e46794e3          	bne	a5,t1,800012a8 <_ntoa_format+0x2c>
80001464:	0103f313          	and	t1,t2,16
80001468:	ee0316e3          	bnez	t1,80001354 <_ntoa_format+0xd8>
8000146c:	f25ff06f          	j	80001390 <_ntoa_format+0x114>
80001470:	02000813          	li	a6,32
80001474:	f1078ee3          	beq	a5,a6,80001390 <_ntoa_format+0x114>
80001478:	00078813          	mv	a6,a5
8000147c:	00178793          	add	a5,a5,1
80001480:	01070833          	add	a6,a4,a6
80001484:	06200893          	li	a7,98
80001488:	01180023          	sb	a7,0(a6)
8000148c:	f69ff06f          	j	800013f4 <_ntoa_format+0x178>
80001490:	ffff8f93          	add	t6,t6,-1
80001494:	f1dff06f          	j	800013b0 <_ntoa_format+0x134>
80001498:	0203f813          	and	a6,t2,32
8000149c:	02081e63          	bnez	a6,800014d8 <_ntoa_format+0x25c>
800014a0:	02000813          	li	a6,32
800014a4:	ef0786e3          	beq	a5,a6,80001390 <_ntoa_format+0x114>
800014a8:	00f70833          	add	a6,a4,a5
800014ac:	07800893          	li	a7,120
800014b0:	01180023          	sb	a7,0(a6)
800014b4:	00178793          	add	a5,a5,1
800014b8:	f3dff06f          	j	800013f4 <_ntoa_format+0x178>
800014bc:	0083f813          	and	a6,t2,8
800014c0:	ec0808e3          	beqz	a6,80001390 <_ntoa_format+0x114>
800014c4:	00f70833          	add	a6,a4,a5
800014c8:	02000893          	li	a7,32
800014cc:	01180023          	sb	a7,0(a6)
800014d0:	00178793          	add	a5,a5,1
800014d4:	ebdff06f          	j	80001390 <_ntoa_format+0x114>
800014d8:	02000813          	li	a6,32
800014dc:	eb078ae3          	beq	a5,a6,80001390 <_ntoa_format+0x114>
800014e0:	00f70833          	add	a6,a4,a5
800014e4:	05800893          	li	a7,88
800014e8:	01180023          	sb	a7,0(a6)
800014ec:	00178793          	add	a5,a5,1
800014f0:	f05ff06f          	j	800013f4 <_ntoa_format+0x178>
800014f4:	01000793          	li	a5,16
800014f8:	e0f89ee3          	bne	a7,a5,80001314 <_ntoa_format+0x98>
800014fc:	0203f793          	and	a5,t2,32
80001500:	02079463          	bnez	a5,80001528 <_ntoa_format+0x2ac>
80001504:	07800793          	li	a5,120
80001508:	00f70023          	sb	a5,0(a4)
8000150c:	03000793          	li	a5,48
80001510:	00f700a3          	sb	a5,1(a4)
80001514:	00200793          	li	a5,2
80001518:	e00f0ae3          	beqz	t5,8000132c <_ntoa_format+0xb0>
8000151c:	f21ff06f          	j	8000143c <_ntoa_format+0x1c0>
80001520:	0203f793          	and	a5,t2,32
80001524:	02078463          	beqz	a5,8000154c <_ntoa_format+0x2d0>
80001528:	05800793          	li	a5,88
8000152c:	00f70023          	sb	a5,0(a4)
80001530:	03000793          	li	a5,48
80001534:	00f700a3          	sb	a5,1(a4)
80001538:	00200793          	li	a5,2
8000153c:	de0f08e3          	beqz	t5,8000132c <_ntoa_format+0xb0>
80001540:	efdff06f          	j	8000143c <_ntoa_format+0x1c0>
80001544:	06200793          	li	a5,98
80001548:	fc1ff06f          	j	80001508 <_ntoa_format+0x28c>
8000154c:	07800793          	li	a5,120
80001550:	00f70023          	sb	a5,0(a4)
80001554:	03000793          	li	a5,48
80001558:	00f700a3          	sb	a5,1(a4)
8000155c:	00200793          	li	a5,2
80001560:	dc0f06e3          	beqz	t5,8000132c <_ntoa_format+0xb0>
80001564:	ed9ff06f          	j	8000143c <_ntoa_format+0x1c0>
80001568:	0103f313          	and	t1,t2,16
8000156c:	ee080ee3          	beqz	a6,80001468 <_ntoa_format+0x1ec>
80001570:	d80318e3          	bnez	t1,80001300 <_ntoa_format+0x84>
80001574:	e1dff06f          	j	80001390 <_ntoa_format+0x114>
80001578:	ffe78793          	add	a5,a5,-2
8000157c:	0203f893          	and	a7,t2,32
80001580:	00f707b3          	add	a5,a4,a5
80001584:	00089a63          	bnez	a7,80001598 <_ntoa_format+0x31c>
80001588:	07800893          	li	a7,120
8000158c:	01178023          	sb	a7,0(a5)
80001590:	00080793          	mv	a5,a6
80001594:	e69ff06f          	j	800013fc <_ntoa_format+0x180>
80001598:	05800893          	li	a7,88
8000159c:	01178023          	sb	a7,0(a5)
800015a0:	00080793          	mv	a5,a6
800015a4:	e59ff06f          	j	800013fc <_ntoa_format+0x180>
800015a8:	01f00813          	li	a6,31
800015ac:	dc1ff06f          	j	8000136c <_ntoa_format+0xf0>

800015b0 <_out_char>:
800015b0:	00051463          	bnez	a0,800015b8 <_out_char+0x8>
800015b4:	00008067          	ret
800015b8:	e00ff06f          	j	80000bb8 <vx_putchar>

800015bc <_etoa>:
800015bc:	f7010113          	add	sp,sp,-144
800015c0:	09212023          	sw	s2,128(sp)
800015c4:	07312e23          	sw	s3,124(sp)
800015c8:	07412c23          	sw	s4,120(sp)
800015cc:	07512a23          	sw	s5,116(sp)
800015d0:	00050993          	mv	s3,a0
800015d4:	00058a13          	mv	s4,a1
800015d8:	00060913          	mv	s2,a2
800015dc:	00068a93          	mv	s5,a3
800015e0:	00070613          	mv	a2,a4
800015e4:	00078693          	mv	a3,a5
800015e8:	00070513          	mv	a0,a4
800015ec:	00078593          	mv	a1,a5
800015f0:	08812423          	sw	s0,136(sp)
800015f4:	08912223          	sw	s1,132(sp)
800015f8:	07612823          	sw	s6,112(sp)
800015fc:	07812423          	sw	s8,104(sp)
80001600:	07912223          	sw	s9,100(sp)
80001604:	08112623          	sw	ra,140(sp)
80001608:	07712623          	sw	s7,108(sp)
8000160c:	07a12023          	sw	s10,96(sp)
80001610:	05b12e23          	sw	s11,92(sp)
80001614:	00070413          	mv	s0,a4
80001618:	00078493          	mv	s1,a5
8000161c:	00080c13          	mv	s8,a6
80001620:	00088b13          	mv	s6,a7
80001624:	031030ef          	jal	80004e54 <__eqdf2>
80001628:	09012c83          	lw	s9,144(sp)
8000162c:	58051263          	bnez	a0,80001bb0 <_etoa+0x5f4>
80001630:	00007797          	auipc	a5,0x7
80001634:	f7878793          	add	a5,a5,-136 # 800085a8 <__SDATA_BEGIN__>
80001638:	0007a603          	lw	a2,0(a5)
8000163c:	0047a683          	lw	a3,4(a5)
80001640:	00040513          	mv	a0,s0
80001644:	00048593          	mv	a1,s1
80001648:	0d1030ef          	jal	80004f18 <__gedf2>
8000164c:	56a04263          	bgtz	a0,80001bb0 <_etoa+0x5f4>
80001650:	00007797          	auipc	a5,0x7
80001654:	f6078793          	add	a5,a5,-160 # 800085b0 <__SDATA_BEGIN__+0x8>
80001658:	0007a603          	lw	a2,0(a5)
8000165c:	0047a683          	lw	a3,4(a5)
80001660:	00040513          	mv	a0,s0
80001664:	00048593          	mv	a1,s1
80001668:	1c1030ef          	jal	80005028 <__ledf2>
8000166c:	54054263          	bltz	a0,80001bb0 <_etoa+0x5f4>
80001670:	00040513          	mv	a0,s0
80001674:	00048593          	mv	a1,s1
80001678:	00000613          	li	a2,0
8000167c:	00000693          	li	a3,0
80001680:	1a9030ef          	jal	80005028 <__ledf2>
80001684:	80000bb7          	lui	s7,0x80000
80001688:	00812a23          	sw	s0,20(sp)
8000168c:	009bcbb3          	xor	s7,s7,s1
80001690:	00054463          	bltz	a0,80001698 <_etoa+0xdc>
80001694:	00048b93          	mv	s7,s1
80001698:	400cf793          	and	a5,s9,1024
8000169c:	02f12623          	sw	a5,44(sp)
800016a0:	00079463          	bnez	a5,800016a8 <_etoa+0xec>
800016a4:	00600c13          	li	s8,6
800016a8:	014bd513          	srl	a0,s7,0x14
800016ac:	7ff57513          	and	a0,a0,2047
800016b0:	c0150513          	add	a0,a0,-1023
800016b4:	0c4050ef          	jal	80006778 <__floatsidf>
800016b8:	00007797          	auipc	a5,0x7
800016bc:	f0078793          	add	a5,a5,-256 # 800085b8 <__SDATA_BEGIN__+0x10>
800016c0:	0007a603          	lw	a2,0(a5)
800016c4:	0047a683          	lw	a3,4(a5)
800016c8:	271030ef          	jal	80005138 <__muldf3>
800016cc:	00007797          	auipc	a5,0x7
800016d0:	ef478793          	add	a5,a5,-268 # 800085c0 <__SDATA_BEGIN__+0x18>
800016d4:	0007a603          	lw	a2,0(a5)
800016d8:	0047a683          	lw	a3,4(a5)
800016dc:	23c020ef          	jal	80003918 <__adddf3>
800016e0:	00007797          	auipc	a5,0x7
800016e4:	ee878793          	add	a5,a5,-280 # 800085c8 <__SDATA_BEGIN__+0x20>
800016e8:	00cb9713          	sll	a4,s7,0xc
800016ec:	00c75713          	srl	a4,a4,0xc
800016f0:	0007a603          	lw	a2,0(a5)
800016f4:	0047a683          	lw	a3,4(a5)
800016f8:	3ff007b7          	lui	a5,0x3ff00
800016fc:	00e7e7b3          	or	a5,a5,a4
80001700:	00050d93          	mv	s11,a0
80001704:	00058d13          	mv	s10,a1
80001708:	00040513          	mv	a0,s0
8000170c:	00078593          	mv	a1,a5
80001710:	1e8040ef          	jal	800058f8 <__subdf3>
80001714:	00007797          	auipc	a5,0x7
80001718:	ebc78793          	add	a5,a5,-324 # 800085d0 <__SDATA_BEGIN__+0x28>
8000171c:	0007a603          	lw	a2,0(a5)
80001720:	0047a683          	lw	a3,4(a5)
80001724:	215030ef          	jal	80005138 <__muldf3>
80001728:	00050613          	mv	a2,a0
8000172c:	00058693          	mv	a3,a1
80001730:	000d8513          	mv	a0,s11
80001734:	000d0593          	mv	a1,s10
80001738:	1e0020ef          	jal	80003918 <__adddf3>
8000173c:	679040ef          	jal	800065b4 <__fixdfsi>
80001740:	00050d13          	mv	s10,a0
80001744:	034050ef          	jal	80006778 <__floatsidf>
80001748:	00007797          	auipc	a5,0x7
8000174c:	e9078793          	add	a5,a5,-368 # 800085d8 <__SDATA_BEGIN__+0x30>
80001750:	0007a603          	lw	a2,0(a5)
80001754:	0047a683          	lw	a3,4(a5)
80001758:	00058d93          	mv	s11,a1
8000175c:	00a12823          	sw	a0,16(sp)
80001760:	1d9030ef          	jal	80005138 <__muldf3>
80001764:	00007717          	auipc	a4,0x7
80001768:	e7c70713          	add	a4,a4,-388 # 800085e0 <__SDATA_BEGIN__+0x38>
8000176c:	00072603          	lw	a2,0(a4)
80001770:	00472683          	lw	a3,4(a4)
80001774:	1a4020ef          	jal	80003918 <__adddf3>
80001778:	63d040ef          	jal	800065b4 <__fixdfsi>
8000177c:	01012783          	lw	a5,16(sp)
80001780:	00007697          	auipc	a3,0x7
80001784:	e6868693          	add	a3,a3,-408 # 800085e8 <__SDATA_BEGIN__+0x40>
80001788:	0006a603          	lw	a2,0(a3)
8000178c:	0046a683          	lw	a3,4(a3)
80001790:	00050713          	mv	a4,a0
80001794:	000d8593          	mv	a1,s11
80001798:	00078513          	mv	a0,a5
8000179c:	00070d93          	mv	s11,a4
800017a0:	199030ef          	jal	80005138 <__muldf3>
800017a4:	00050793          	mv	a5,a0
800017a8:	000d8513          	mv	a0,s11
800017ac:	00f12823          	sw	a5,16(sp)
800017b0:	01b12c23          	sw	s11,24(sp)
800017b4:	00058d93          	mv	s11,a1
800017b8:	7c1040ef          	jal	80006778 <__floatsidf>
800017bc:	00007717          	auipc	a4,0x7
800017c0:	e3470713          	add	a4,a4,-460 # 800085f0 <__SDATA_BEGIN__+0x48>
800017c4:	00072603          	lw	a2,0(a4)
800017c8:	00472683          	lw	a3,4(a4)
800017cc:	16d030ef          	jal	80005138 <__muldf3>
800017d0:	01012783          	lw	a5,16(sp)
800017d4:	00050613          	mv	a2,a0
800017d8:	00058693          	mv	a3,a1
800017dc:	00078513          	mv	a0,a5
800017e0:	000d8593          	mv	a1,s11
800017e4:	114040ef          	jal	800058f8 <__subdf3>
800017e8:	00050613          	mv	a2,a0
800017ec:	00058693          	mv	a3,a1
800017f0:	00a12e23          	sw	a0,28(sp)
800017f4:	00b12823          	sw	a1,16(sp)
800017f8:	141030ef          	jal	80005138 <__muldf3>
800017fc:	01012783          	lw	a5,16(sp)
80001800:	01c12703          	lw	a4,28(sp)
80001804:	00050d93          	mv	s11,a0
80001808:	00078693          	mv	a3,a5
8000180c:	00058813          	mv	a6,a1
80001810:	00070613          	mv	a2,a4
80001814:	00078593          	mv	a1,a5
80001818:	00070513          	mv	a0,a4
8000181c:	02f12223          	sw	a5,36(sp)
80001820:	02e12423          	sw	a4,40(sp)
80001824:	01012823          	sw	a6,16(sp)
80001828:	0f0020ef          	jal	80003918 <__adddf3>
8000182c:	00007697          	auipc	a3,0x7
80001830:	dcc68693          	add	a3,a3,-564 # 800085f8 <__SDATA_BEGIN__+0x50>
80001834:	00058813          	mv	a6,a1
80001838:	0006a603          	lw	a2,0(a3)
8000183c:	01012583          	lw	a1,16(sp)
80001840:	0046a683          	lw	a3,4(a3)
80001844:	00050893          	mv	a7,a0
80001848:	000d8513          	mv	a0,s11
8000184c:	03112023          	sw	a7,32(sp)
80001850:	01012e23          	sw	a6,28(sp)
80001854:	569020ef          	jal	800045bc <__divdf3>
80001858:	00007717          	auipc	a4,0x7
8000185c:	da870713          	add	a4,a4,-600 # 80008600 <__SDATA_BEGIN__+0x58>
80001860:	00072603          	lw	a2,0(a4)
80001864:	00472683          	lw	a3,4(a4)
80001868:	0b0020ef          	jal	80003918 <__adddf3>
8000186c:	00058693          	mv	a3,a1
80001870:	01012583          	lw	a1,16(sp)
80001874:	00050613          	mv	a2,a0
80001878:	000d8513          	mv	a0,s11
8000187c:	541020ef          	jal	800045bc <__divdf3>
80001880:	00007697          	auipc	a3,0x7
80001884:	d8868693          	add	a3,a3,-632 # 80008608 <__SDATA_BEGIN__+0x60>
80001888:	0006a603          	lw	a2,0(a3)
8000188c:	0046a683          	lw	a3,4(a3)
80001890:	088020ef          	jal	80003918 <__adddf3>
80001894:	00058693          	mv	a3,a1
80001898:	01012583          	lw	a1,16(sp)
8000189c:	00050613          	mv	a2,a0
800018a0:	000d8513          	mv	a0,s11
800018a4:	519020ef          	jal	800045bc <__divdf3>
800018a8:	02812703          	lw	a4,40(sp)
800018ac:	02412783          	lw	a5,36(sp)
800018b0:	00007697          	auipc	a3,0x7
800018b4:	d6068693          	add	a3,a3,-672 # 80008610 <__SDATA_BEGIN__+0x68>
800018b8:	00050313          	mv	t1,a0
800018bc:	00058d93          	mv	s11,a1
800018c0:	0006a503          	lw	a0,0(a3)
800018c4:	0046a583          	lw	a1,4(a3)
800018c8:	00070613          	mv	a2,a4
800018cc:	00078693          	mv	a3,a5
800018d0:	00612823          	sw	t1,16(sp)
800018d4:	024040ef          	jal	800058f8 <__subdf3>
800018d8:	01012303          	lw	t1,16(sp)
800018dc:	00050613          	mv	a2,a0
800018e0:	00058693          	mv	a3,a1
800018e4:	00030513          	mv	a0,t1
800018e8:	000d8593          	mv	a1,s11
800018ec:	02c020ef          	jal	80003918 <__adddf3>
800018f0:	02012883          	lw	a7,32(sp)
800018f4:	01c12803          	lw	a6,28(sp)
800018f8:	00050613          	mv	a2,a0
800018fc:	00058693          	mv	a3,a1
80001900:	00088513          	mv	a0,a7
80001904:	00080593          	mv	a1,a6
80001908:	4b5020ef          	jal	800045bc <__divdf3>
8000190c:	00007797          	auipc	a5,0x7
80001910:	d0c78793          	add	a5,a5,-756 # 80008618 <__SDATA_BEGIN__+0x70>
80001914:	0007a603          	lw	a2,0(a5)
80001918:	0047a683          	lw	a3,4(a5)
8000191c:	7fd010ef          	jal	80003918 <__adddf3>
80001920:	01812783          	lw	a5,24(sp)
80001924:	00000613          	li	a2,0
80001928:	3ff78793          	add	a5,a5,1023
8000192c:	01479793          	sll	a5,a5,0x14
80001930:	00078693          	mv	a3,a5
80001934:	005030ef          	jal	80005138 <__muldf3>
80001938:	00050613          	mv	a2,a0
8000193c:	00a12c23          	sw	a0,24(sp)
80001940:	00058693          	mv	a3,a1
80001944:	00b12823          	sw	a1,16(sp)
80001948:	00040513          	mv	a0,s0
8000194c:	000b8593          	mv	a1,s7
80001950:	6d8030ef          	jal	80005028 <__ledf2>
80001954:	01012783          	lw	a5,16(sp)
80001958:	01812703          	lw	a4,24(sp)
8000195c:	02055663          	bgez	a0,80001988 <_etoa+0x3cc>
80001960:	00007697          	auipc	a3,0x7
80001964:	ca068693          	add	a3,a3,-864 # 80008600 <__SDATA_BEGIN__+0x58>
80001968:	0006a603          	lw	a2,0(a3)
8000196c:	0046a683          	lw	a3,4(a3)
80001970:	00070513          	mv	a0,a4
80001974:	00078593          	mv	a1,a5
80001978:	445020ef          	jal	800045bc <__divdf3>
8000197c:	fffd0d13          	add	s10,s10,-1
80001980:	00050713          	mv	a4,a0
80001984:	00058793          	mv	a5,a1
80001988:	063d0d93          	add	s11,s10,99
8000198c:	00bcd693          	srl	a3,s9,0xb
80001990:	0c600613          	li	a2,198
80001994:	01b63db3          	sltu	s11,a2,s11
80001998:	0016f693          	and	a3,a3,1
8000199c:	004d8d93          	add	s11,s11,4
800019a0:	06068a63          	beqz	a3,80001a14 <_etoa+0x458>
800019a4:	00007697          	auipc	a3,0x7
800019a8:	c7c68693          	add	a3,a3,-900 # 80008620 <__SDATA_BEGIN__+0x78>
800019ac:	0006a603          	lw	a2,0(a3)
800019b0:	0046a683          	lw	a3,4(a3)
800019b4:	00040513          	mv	a0,s0
800019b8:	000b8593          	mv	a1,s7
800019bc:	00f12c23          	sw	a5,24(sp)
800019c0:	00e12823          	sw	a4,16(sp)
800019c4:	554030ef          	jal	80004f18 <__gedf2>
800019c8:	01012703          	lw	a4,16(sp)
800019cc:	01812783          	lw	a5,24(sp)
800019d0:	26054463          	bltz	a0,80001c38 <_etoa+0x67c>
800019d4:	00007697          	auipc	a3,0x7
800019d8:	c5468693          	add	a3,a3,-940 # 80008628 <__SDATA_BEGIN__+0x80>
800019dc:	0006a603          	lw	a2,0(a3)
800019e0:	0046a683          	lw	a3,4(a3)
800019e4:	00040513          	mv	a0,s0
800019e8:	000b8593          	mv	a1,s7
800019ec:	63c030ef          	jal	80005028 <__ledf2>
800019f0:	01012703          	lw	a4,16(sp)
800019f4:	01812783          	lw	a5,24(sp)
800019f8:	24055063          	bgez	a0,80001c38 <_etoa+0x67c>
800019fc:	258d5863          	bge	s10,s8,80001c4c <_etoa+0x690>
80001a00:	41ac0d33          	sub	s10,s8,s10
80001a04:	fffd0c13          	add	s8,s10,-1
80001a08:	400cec93          	or	s9,s9,1024
80001a0c:	00000d93          	li	s11,0
80001a10:	00000d13          	li	s10,0
80001a14:	00000893          	li	a7,0
80001a18:	016df463          	bgeu	s11,s6,80001a20 <_etoa+0x464>
80001a1c:	41bb08b3          	sub	a7,s6,s11
80001a20:	002cf693          	and	a3,s9,2
80001a24:	00d12c23          	sw	a3,24(sp)
80001a28:	00068863          	beqz	a3,80001a38 <_etoa+0x47c>
80001a2c:	001db693          	seqz	a3,s11
80001a30:	40d006b3          	neg	a3,a3
80001a34:	00d8f8b3          	and	a7,a7,a3
80001a38:	1c0d1c63          	bnez	s10,80001c10 <_etoa+0x654>
80001a3c:	00040513          	mv	a0,s0
80001a40:	00048593          	mv	a1,s1
80001a44:	00000613          	li	a2,0
80001a48:	00000693          	li	a3,0
80001a4c:	01112823          	sw	a7,16(sp)
80001a50:	5d8030ef          	jal	80005028 <__ledf2>
80001a54:	01012883          	lw	a7,16(sp)
80001a58:	00055663          	bgez	a0,80001a64 <_etoa+0x4a8>
80001a5c:	800007b7          	lui	a5,0x80000
80001a60:	0177cbb3          	xor	s7,a5,s7
80001a64:	01412783          	lw	a5,20(sp)
80001a68:	000c0813          	mv	a6,s8
80001a6c:	000a8693          	mv	a3,s5
80001a70:	00078613          	mv	a2,a5
80001a74:	fffff7b7          	lui	a5,0xfffff
80001a78:	7ff78793          	add	a5,a5,2047 # fffff7ff <__BSS_END__+0x7fff603f>
80001a7c:	00fcf7b3          	and	a5,s9,a5
80001a80:	00f12023          	sw	a5,0(sp)
80001a84:	00060713          	mv	a4,a2
80001a88:	000b8793          	mv	a5,s7
80001a8c:	00090613          	mv	a2,s2
80001a90:	000a0593          	mv	a1,s4
80001a94:	00098513          	mv	a0,s3
80001a98:	1bc000ef          	jal	80001c54 <_ftoa>
80001a9c:	00050413          	mv	s0,a0
80001aa0:	0c0d8863          	beqz	s11,80001b70 <_etoa+0x5b4>
80001aa4:	fffcc513          	not	a0,s9
80001aa8:	02057513          	and	a0,a0,32
80001aac:	00040613          	mv	a2,s0
80001ab0:	000a0593          	mv	a1,s4
80001ab4:	000a8693          	mv	a3,s5
80001ab8:	04550513          	add	a0,a0,69
80001abc:	000980e7          	jalr	s3
80001ac0:	41fd5793          	sra	a5,s10,0x1f
80001ac4:	01a7c733          	xor	a4,a5,s10
80001ac8:	40f70733          	sub	a4,a4,a5
80001acc:	00140613          	add	a2,s0,1
80001ad0:	01fd5813          	srl	a6,s10,0x1f
80001ad4:	fffd8d93          	add	s11,s11,-1
80001ad8:	00000793          	li	a5,0
80001adc:	00a00593          	li	a1,10
80001ae0:	00900313          	li	t1,9
80001ae4:	02000e13          	li	t3,32
80001ae8:	0080006f          	j	80001af0 <_etoa+0x534>
80001aec:	03c78463          	beq	a5,t3,80001b14 <_etoa+0x558>
80001af0:	02b776b3          	remu	a3,a4,a1
80001af4:	03010513          	add	a0,sp,48
80001af8:	00178793          	add	a5,a5,1
80001afc:	00f508b3          	add	a7,a0,a5
80001b00:	00070513          	mv	a0,a4
80001b04:	03068693          	add	a3,a3,48
80001b08:	fed88fa3          	sb	a3,-1(a7)
80001b0c:	02b75733          	divu	a4,a4,a1
80001b10:	fca36ee3          	bltu	t1,a0,80001aec <_etoa+0x530>
80001b14:	00500713          	li	a4,5
80001b18:	00e12423          	sw	a4,8(sp)
80001b1c:	01b12223          	sw	s11,4(sp)
80001b20:	00012023          	sw	zero,0(sp)
80001b24:	00a00893          	li	a7,10
80001b28:	03010713          	add	a4,sp,48
80001b2c:	000a8693          	mv	a3,s5
80001b30:	000a0593          	mv	a1,s4
80001b34:	00098513          	mv	a0,s3
80001b38:	f44ff0ef          	jal	8000127c <_ntoa_format>
80001b3c:	01812783          	lw	a5,24(sp)
80001b40:	00050413          	mv	s0,a0
80001b44:	02078663          	beqz	a5,80001b70 <_etoa+0x5b4>
80001b48:	41250933          	sub	s2,a0,s2
80001b4c:	03697263          	bgeu	s2,s6,80001b70 <_etoa+0x5b4>
80001b50:	00040613          	mv	a2,s0
80001b54:	00190913          	add	s2,s2,1
80001b58:	000a8693          	mv	a3,s5
80001b5c:	000a0593          	mv	a1,s4
80001b60:	02000513          	li	a0,32
80001b64:	00140413          	add	s0,s0,1
80001b68:	000980e7          	jalr	s3
80001b6c:	ff6962e3          	bltu	s2,s6,80001b50 <_etoa+0x594>
80001b70:	08c12083          	lw	ra,140(sp)
80001b74:	00040513          	mv	a0,s0
80001b78:	08812403          	lw	s0,136(sp)
80001b7c:	08412483          	lw	s1,132(sp)
80001b80:	08012903          	lw	s2,128(sp)
80001b84:	07c12983          	lw	s3,124(sp)
80001b88:	07812a03          	lw	s4,120(sp)
80001b8c:	07412a83          	lw	s5,116(sp)
80001b90:	07012b03          	lw	s6,112(sp)
80001b94:	06c12b83          	lw	s7,108(sp)
80001b98:	06812c03          	lw	s8,104(sp)
80001b9c:	06412c83          	lw	s9,100(sp)
80001ba0:	06012d03          	lw	s10,96(sp)
80001ba4:	05c12d83          	lw	s11,92(sp)
80001ba8:	09010113          	add	sp,sp,144
80001bac:	00008067          	ret
80001bb0:	00040713          	mv	a4,s0
80001bb4:	08812403          	lw	s0,136(sp)
80001bb8:	09912823          	sw	s9,144(sp)
80001bbc:	08c12083          	lw	ra,140(sp)
80001bc0:	06c12b83          	lw	s7,108(sp)
80001bc4:	06412c83          	lw	s9,100(sp)
80001bc8:	06012d03          	lw	s10,96(sp)
80001bcc:	05c12d83          	lw	s11,92(sp)
80001bd0:	00048793          	mv	a5,s1
80001bd4:	000b0893          	mv	a7,s6
80001bd8:	08412483          	lw	s1,132(sp)
80001bdc:	07012b03          	lw	s6,112(sp)
80001be0:	000c0813          	mv	a6,s8
80001be4:	000a8693          	mv	a3,s5
80001be8:	06812c03          	lw	s8,104(sp)
80001bec:	07412a83          	lw	s5,116(sp)
80001bf0:	00090613          	mv	a2,s2
80001bf4:	000a0593          	mv	a1,s4
80001bf8:	08012903          	lw	s2,128(sp)
80001bfc:	07812a03          	lw	s4,120(sp)
80001c00:	00098513          	mv	a0,s3
80001c04:	07c12983          	lw	s3,124(sp)
80001c08:	09010113          	add	sp,sp,144
80001c0c:	0480006f          	j	80001c54 <_ftoa>
80001c10:	000b8593          	mv	a1,s7
80001c14:	00070613          	mv	a2,a4
80001c18:	00040513          	mv	a0,s0
80001c1c:	00078693          	mv	a3,a5
80001c20:	01112823          	sw	a7,16(sp)
80001c24:	199020ef          	jal	800045bc <__divdf3>
80001c28:	01012883          	lw	a7,16(sp)
80001c2c:	00a12a23          	sw	a0,20(sp)
80001c30:	00058b93          	mv	s7,a1
80001c34:	e09ff06f          	j	80001a3c <_etoa+0x480>
80001c38:	dc0c0ee3          	beqz	s8,80001a14 <_etoa+0x458>
80001c3c:	02c12683          	lw	a3,44(sp)
80001c40:	00d036b3          	snez	a3,a3
80001c44:	40dc0c33          	sub	s8,s8,a3
80001c48:	dcdff06f          	j	80001a14 <_etoa+0x458>
80001c4c:	00000c13          	li	s8,0
80001c50:	db9ff06f          	j	80001a08 <_etoa+0x44c>

80001c54 <_ftoa>:
80001c54:	f8010113          	add	sp,sp,-128
80001c58:	07312623          	sw	s3,108(sp)
80001c5c:	05812c23          	sw	s8,88(sp)
80001c60:	05912a23          	sw	s9,84(sp)
80001c64:	05a12823          	sw	s10,80(sp)
80001c68:	00050993          	mv	s3,a0
80001c6c:	00058c13          	mv	s8,a1
80001c70:	00060c93          	mv	s9,a2
80001c74:	00068d13          	mv	s10,a3
80001c78:	00070613          	mv	a2,a4
80001c7c:	00078693          	mv	a3,a5
80001c80:	00070513          	mv	a0,a4
80001c84:	00078593          	mv	a1,a5
80001c88:	06812c23          	sw	s0,120(sp)
80001c8c:	06912a23          	sw	s1,116(sp)
80001c90:	07212823          	sw	s2,112(sp)
80001c94:	07612023          	sw	s6,96(sp)
80001c98:	05b12623          	sw	s11,76(sp)
80001c9c:	06112e23          	sw	ra,124(sp)
80001ca0:	07412423          	sw	s4,104(sp)
80001ca4:	07512223          	sw	s5,100(sp)
80001ca8:	05712e23          	sw	s7,92(sp)
80001cac:	00070493          	mv	s1,a4
80001cb0:	00078413          	mv	s0,a5
80001cb4:	00080b13          	mv	s6,a6
80001cb8:	00088913          	mv	s2,a7
80001cbc:	198030ef          	jal	80004e54 <__eqdf2>
80001cc0:	08012d83          	lw	s11,128(sp)
80001cc4:	20051463          	bnez	a0,80001ecc <_ftoa+0x278>
80001cc8:	00007797          	auipc	a5,0x7
80001ccc:	8e878793          	add	a5,a5,-1816 # 800085b0 <__SDATA_BEGIN__+0x8>
80001cd0:	0007a603          	lw	a2,0(a5)
80001cd4:	0047a683          	lw	a3,4(a5)
80001cd8:	00048513          	mv	a0,s1
80001cdc:	00040593          	mv	a1,s0
80001ce0:	348030ef          	jal	80005028 <__ledf2>
80001ce4:	2e054063          	bltz	a0,80001fc4 <_ftoa+0x370>
80001ce8:	00007797          	auipc	a5,0x7
80001cec:	8c078793          	add	a5,a5,-1856 # 800085a8 <__SDATA_BEGIN__>
80001cf0:	0007a603          	lw	a2,0(a5)
80001cf4:	0047a683          	lw	a3,4(a5)
80001cf8:	00048513          	mv	a0,s1
80001cfc:	00040593          	mv	a1,s0
80001d00:	218030ef          	jal	80004f18 <__gedf2>
80001d04:	1aa04463          	bgtz	a0,80001eac <_ftoa+0x258>
80001d08:	00007a17          	auipc	s4,0x7
80001d0c:	928a0a13          	add	s4,s4,-1752 # 80008630 <__SDATA_BEGIN__+0x88>
80001d10:	000a2603          	lw	a2,0(s4)
80001d14:	004a2683          	lw	a3,4(s4)
80001d18:	00048513          	mv	a0,s1
80001d1c:	00040593          	mv	a1,s0
80001d20:	1f8030ef          	jal	80004f18 <__gedf2>
80001d24:	24a04063          	bgtz	a0,80001f64 <_ftoa+0x310>
80001d28:	00007797          	auipc	a5,0x7
80001d2c:	91078793          	add	a5,a5,-1776 # 80008638 <__SDATA_BEGIN__+0x90>
80001d30:	0007a603          	lw	a2,0(a5)
80001d34:	0047a683          	lw	a3,4(a5)
80001d38:	00048513          	mv	a0,s1
80001d3c:	00040593          	mv	a1,s0
80001d40:	2e8030ef          	jal	80005028 <__ledf2>
80001d44:	22054063          	bltz	a0,80001f64 <_ftoa+0x310>
80001d48:	00048513          	mv	a0,s1
80001d4c:	00040593          	mv	a1,s0
80001d50:	00000613          	li	a2,0
80001d54:	00000693          	li	a3,0
80001d58:	2d0030ef          	jal	80005028 <__ledf2>
80001d5c:	1e054063          	bltz	a0,80001f3c <_ftoa+0x2e8>
80001d60:	00012c23          	sw	zero,24(sp)
80001d64:	400dfa93          	and	s5,s11,1024
80001d68:	400a8c63          	beqz	s5,80002180 <_ftoa+0x52c>
80001d6c:	00900793          	li	a5,9
80001d70:	5167f663          	bgeu	a5,s6,8000227c <_ftoa+0x628>
80001d74:	ff7b0a93          	add	s5,s6,-9
80001d78:	00000693          	li	a3,0
80001d7c:	02010b93          	add	s7,sp,32
80001d80:	03000513          	li	a0,48
80001d84:	02000593          	li	a1,32
80001d88:	00168693          	add	a3,a3,1
80001d8c:	00db8633          	add	a2,s7,a3
80001d90:	fea60fa3          	sb	a0,-1(a2)
80001d94:	40db0333          	sub	t1,s6,a3
80001d98:	44b68063          	beq	a3,a1,800021d8 <_ftoa+0x584>
80001d9c:	ff5696e3          	bne	a3,s5,80001d88 <_ftoa+0x134>
80001da0:	000a2783          	lw	a5,0(s4)
80001da4:	004a2803          	lw	a6,4(s4)
80001da8:	00f12023          	sw	a5,0(sp)
80001dac:	01012223          	sw	a6,4(sp)
80001db0:	00040593          	mv	a1,s0
80001db4:	00048513          	mv	a0,s1
80001db8:	00612a23          	sw	t1,20(sp)
80001dbc:	7f8040ef          	jal	800065b4 <__fixdfsi>
80001dc0:	00050a13          	mv	s4,a0
80001dc4:	1b5040ef          	jal	80006778 <__floatsidf>
80001dc8:	00050613          	mv	a2,a0
80001dcc:	00058693          	mv	a3,a1
80001dd0:	00048513          	mv	a0,s1
80001dd4:	00040593          	mv	a1,s0
80001dd8:	321030ef          	jal	800058f8 <__subdf3>
80001ddc:	00012603          	lw	a2,0(sp)
80001de0:	00412683          	lw	a3,4(sp)
80001de4:	354030ef          	jal	80005138 <__muldf3>
80001de8:	00058b13          	mv	s6,a1
80001dec:	00a12823          	sw	a0,16(sp)
80001df0:	0c5040ef          	jal	800066b4 <__fixunsdfsi>
80001df4:	00a12623          	sw	a0,12(sp)
80001df8:	229040ef          	jal	80006820 <__floatunsidf>
80001dfc:	01012783          	lw	a5,16(sp)
80001e00:	00050613          	mv	a2,a0
80001e04:	00058693          	mv	a3,a1
80001e08:	00078513          	mv	a0,a5
80001e0c:	000b0593          	mv	a1,s6
80001e10:	2e9030ef          	jal	800058f8 <__subdf3>
80001e14:	00006b17          	auipc	s6,0x6
80001e18:	7ccb0b13          	add	s6,s6,1996 # 800085e0 <__SDATA_BEGIN__+0x38>
80001e1c:	000b2603          	lw	a2,0(s6)
80001e20:	004b2683          	lw	a3,4(s6)
80001e24:	00a12823          	sw	a0,16(sp)
80001e28:	00b12e23          	sw	a1,28(sp)
80001e2c:	0ec030ef          	jal	80004f18 <__gedf2>
80001e30:	00c12883          	lw	a7,12(sp)
80001e34:	01412303          	lw	t1,20(sp)
80001e38:	30a05663          	blez	a0,80002144 <_ftoa+0x4f0>
80001e3c:	00188893          	add	a7,a7,1
80001e40:	00088513          	mv	a0,a7
80001e44:	00612823          	sw	t1,16(sp)
80001e48:	01112623          	sw	a7,12(sp)
80001e4c:	1d5040ef          	jal	80006820 <__floatunsidf>
80001e50:	00012603          	lw	a2,0(sp)
80001e54:	00412683          	lw	a3,4(sp)
80001e58:	0c0030ef          	jal	80004f18 <__gedf2>
80001e5c:	00c12883          	lw	a7,12(sp)
80001e60:	01012303          	lw	t1,16(sp)
80001e64:	00054663          	bltz	a0,80001e70 <_ftoa+0x21c>
80001e68:	001a0a13          	add	s4,s4,1
80001e6c:	00000893          	li	a7,0
80001e70:	16030663          	beqz	t1,80001fdc <_ftoa+0x388>
80001e74:	02000513          	li	a0,32
80001e78:	00a00613          	li	a2,10
80001e7c:	00900e13          	li	t3,9
80001e80:	34aa8863          	beq	s5,a0,800021d0 <_ftoa+0x57c>
80001e84:	02c8f6b3          	remu	a3,a7,a2
80001e88:	001a8a93          	add	s5,s5,1
80001e8c:	015b85b3          	add	a1,s7,s5
80001e90:	fff30313          	add	t1,t1,-1
80001e94:	03068693          	add	a3,a3,48
80001e98:	fed58fa3          	sb	a3,-1(a1)
80001e9c:	02c8d6b3          	divu	a3,a7,a2
80001ea0:	311e7263          	bgeu	t3,a7,800021a4 <_ftoa+0x550>
80001ea4:	00068893          	mv	a7,a3
80001ea8:	fd9ff06f          	j	80001e80 <_ftoa+0x22c>
80001eac:	004df793          	and	a5,s11,4
80001eb0:	06079e63          	bnez	a5,80001f2c <_ftoa+0x2d8>
80001eb4:	00005717          	auipc	a4,0x5
80001eb8:	f4c70713          	add	a4,a4,-180 # 80006e00 <__call_exitprocs+0x230>
80001ebc:	00300793          	li	a5,3
80001ec0:	000d8893          	mv	a7,s11
80001ec4:	00090813          	mv	a6,s2
80001ec8:	0180006f          	j	80001ee0 <_ftoa+0x28c>
80001ecc:	000d8893          	mv	a7,s11
80001ed0:	00090813          	mv	a6,s2
80001ed4:	00300793          	li	a5,3
80001ed8:	00005717          	auipc	a4,0x5
80001edc:	f2c70713          	add	a4,a4,-212 # 80006e04 <__call_exitprocs+0x234>
80001ee0:	07812403          	lw	s0,120(sp)
80001ee4:	07c12083          	lw	ra,124(sp)
80001ee8:	07412483          	lw	s1,116(sp)
80001eec:	07012903          	lw	s2,112(sp)
80001ef0:	06812a03          	lw	s4,104(sp)
80001ef4:	06412a83          	lw	s5,100(sp)
80001ef8:	06012b03          	lw	s6,96(sp)
80001efc:	05c12b83          	lw	s7,92(sp)
80001f00:	04c12d83          	lw	s11,76(sp)
80001f04:	000d0693          	mv	a3,s10
80001f08:	000c8613          	mv	a2,s9
80001f0c:	05012d03          	lw	s10,80(sp)
80001f10:	05412c83          	lw	s9,84(sp)
80001f14:	000c0593          	mv	a1,s8
80001f18:	00098513          	mv	a0,s3
80001f1c:	05812c03          	lw	s8,88(sp)
80001f20:	06c12983          	lw	s3,108(sp)
80001f24:	08010113          	add	sp,sp,128
80001f28:	a28ff06f          	j	80001150 <_out_rev>
80001f2c:	00005717          	auipc	a4,0x5
80001f30:	ecc70713          	add	a4,a4,-308 # 80006df8 <__call_exitprocs+0x228>
80001f34:	00400793          	li	a5,4
80001f38:	f89ff06f          	j	80001ec0 <_ftoa+0x26c>
80001f3c:	00048613          	mv	a2,s1
80001f40:	00040693          	mv	a3,s0
80001f44:	00000513          	li	a0,0
80001f48:	00000593          	li	a1,0
80001f4c:	1ad030ef          	jal	800058f8 <__subdf3>
80001f50:	00100793          	li	a5,1
80001f54:	00050493          	mv	s1,a0
80001f58:	00058413          	mv	s0,a1
80001f5c:	00f12c23          	sw	a5,24(sp)
80001f60:	e05ff06f          	j	80001d64 <_ftoa+0x110>
80001f64:	00040793          	mv	a5,s0
80001f68:	07812403          	lw	s0,120(sp)
80001f6c:	09b12023          	sw	s11,128(sp)
80001f70:	07c12083          	lw	ra,124(sp)
80001f74:	06812a03          	lw	s4,104(sp)
80001f78:	06412a83          	lw	s5,100(sp)
80001f7c:	05c12b83          	lw	s7,92(sp)
80001f80:	04c12d83          	lw	s11,76(sp)
80001f84:	00048713          	mv	a4,s1
80001f88:	00090893          	mv	a7,s2
80001f8c:	07412483          	lw	s1,116(sp)
80001f90:	07012903          	lw	s2,112(sp)
80001f94:	000b0813          	mv	a6,s6
80001f98:	000d0693          	mv	a3,s10
80001f9c:	06012b03          	lw	s6,96(sp)
80001fa0:	05012d03          	lw	s10,80(sp)
80001fa4:	000c8613          	mv	a2,s9
80001fa8:	000c0593          	mv	a1,s8
80001fac:	05412c83          	lw	s9,84(sp)
80001fb0:	05812c03          	lw	s8,88(sp)
80001fb4:	00098513          	mv	a0,s3
80001fb8:	06c12983          	lw	s3,108(sp)
80001fbc:	08010113          	add	sp,sp,128
80001fc0:	dfcff06f          	j	800015bc <_etoa>
80001fc4:	000d8893          	mv	a7,s11
80001fc8:	00090813          	mv	a6,s2
80001fcc:	00400793          	li	a5,4
80001fd0:	00005717          	auipc	a4,0x5
80001fd4:	e3870713          	add	a4,a4,-456 # 80006e08 <__call_exitprocs+0x238>
80001fd8:	f09ff06f          	j	80001ee0 <_ftoa+0x28c>
80001fdc:	000a0513          	mv	a0,s4
80001fe0:	798040ef          	jal	80006778 <__floatsidf>
80001fe4:	00050613          	mv	a2,a0
80001fe8:	00058693          	mv	a3,a1
80001fec:	00048513          	mv	a0,s1
80001ff0:	00040593          	mv	a1,s0
80001ff4:	105030ef          	jal	800058f8 <__subdf3>
80001ff8:	000b2403          	lw	s0,0(s6)
80001ffc:	004b2483          	lw	s1,4(s6)
80002000:	00a12023          	sw	a0,0(sp)
80002004:	00040613          	mv	a2,s0
80002008:	00048693          	mv	a3,s1
8000200c:	00058b13          	mv	s6,a1
80002010:	018030ef          	jal	80005028 <__ledf2>
80002014:	00055e63          	bgez	a0,80002030 <_ftoa+0x3dc>
80002018:	00012503          	lw	a0,0(sp)
8000201c:	000b0593          	mv	a1,s6
80002020:	00040613          	mv	a2,s0
80002024:	00048693          	mv	a3,s1
80002028:	6f1020ef          	jal	80004f18 <__gedf2>
8000202c:	00a05663          	blez	a0,80002038 <_ftoa+0x3e4>
80002030:	001a7693          	and	a3,s4,1
80002034:	00da0a33          	add	s4,s4,a3
80002038:	02000513          	li	a0,32
8000203c:	00a00613          	li	a2,10
80002040:	0aaa8a63          	beq	s5,a0,800020f4 <_ftoa+0x4a0>
80002044:	02ca66b3          	rem	a3,s4,a2
80002048:	001a8a93          	add	s5,s5,1
8000204c:	015b85b3          	add	a1,s7,s5
80002050:	02ca4a33          	div	s4,s4,a2
80002054:	03068693          	add	a3,a3,48
80002058:	fed58fa3          	sb	a3,-1(a1)
8000205c:	fe0a12e3          	bnez	s4,80002040 <_ftoa+0x3ec>
80002060:	003df693          	and	a3,s11,3
80002064:	00100613          	li	a2,1
80002068:	24c68263          	beq	a3,a2,800022ac <_ftoa+0x658>
8000206c:	02000693          	li	a3,32
80002070:	02da8263          	beq	s5,a3,80002094 <_ftoa+0x440>
80002074:	01812783          	lw	a5,24(sp)
80002078:	18078063          	beqz	a5,800021f8 <_ftoa+0x5a4>
8000207c:	020a8793          	add	a5,s5,32
80002080:	02010713          	add	a4,sp,32
80002084:	00e786b3          	add	a3,a5,a4
80002088:	02d00613          	li	a2,45
8000208c:	fec68023          	sb	a2,-32(a3)
80002090:	001a8a93          	add	s5,s5,1
80002094:	000d8893          	mv	a7,s11
80002098:	00090813          	mv	a6,s2
8000209c:	000a8793          	mv	a5,s5
800020a0:	000b8713          	mv	a4,s7
800020a4:	000d0693          	mv	a3,s10
800020a8:	000c8613          	mv	a2,s9
800020ac:	000c0593          	mv	a1,s8
800020b0:	00098513          	mv	a0,s3
800020b4:	89cff0ef          	jal	80001150 <_out_rev>
800020b8:	07c12083          	lw	ra,124(sp)
800020bc:	07812403          	lw	s0,120(sp)
800020c0:	07412483          	lw	s1,116(sp)
800020c4:	07012903          	lw	s2,112(sp)
800020c8:	06c12983          	lw	s3,108(sp)
800020cc:	06812a03          	lw	s4,104(sp)
800020d0:	06412a83          	lw	s5,100(sp)
800020d4:	06012b03          	lw	s6,96(sp)
800020d8:	05c12b83          	lw	s7,92(sp)
800020dc:	05812c03          	lw	s8,88(sp)
800020e0:	05412c83          	lw	s9,84(sp)
800020e4:	05012d03          	lw	s10,80(sp)
800020e8:	04c12d83          	lw	s11,76(sp)
800020ec:	08010113          	add	sp,sp,128
800020f0:	00008067          	ret
800020f4:	003df693          	and	a3,s11,3
800020f8:	00100613          	li	a2,1
800020fc:	f8c69ce3          	bne	a3,a2,80002094 <_ftoa+0x440>
80002100:	f8090ae3          	beqz	s2,80002094 <_ftoa+0x440>
80002104:	01812783          	lw	a5,24(sp)
80002108:	16079463          	bnez	a5,80002270 <_ftoa+0x61c>
8000210c:	00cdf693          	and	a3,s11,12
80002110:	16069063          	bnez	a3,80002270 <_ftoa+0x61c>
80002114:	0d2afe63          	bgeu	s5,s2,800021f0 <_ftoa+0x59c>
80002118:	02000693          	li	a3,32
8000211c:	03000613          	li	a2,48
80002120:	02000593          	li	a1,32
80002124:	00da8c63          	beq	s5,a3,8000213c <_ftoa+0x4e8>
80002128:	001a8a93          	add	s5,s5,1
8000212c:	015b86b3          	add	a3,s7,s5
80002130:	fec68fa3          	sb	a2,-1(a3)
80002134:	f32a8ce3          	beq	s5,s2,8000206c <_ftoa+0x418>
80002138:	feba98e3          	bne	s5,a1,80002128 <_ftoa+0x4d4>
8000213c:	02000a93          	li	s5,32
80002140:	f55ff06f          	j	80002094 <_ftoa+0x440>
80002144:	00006797          	auipc	a5,0x6
80002148:	49c78793          	add	a5,a5,1180 # 800085e0 <__SDATA_BEGIN__+0x38>
8000214c:	01012503          	lw	a0,16(sp)
80002150:	01c12583          	lw	a1,28(sp)
80002154:	0007a603          	lw	a2,0(a5)
80002158:	0047a683          	lw	a3,4(a5)
8000215c:	01112623          	sw	a7,12(sp)
80002160:	00612023          	sw	t1,0(sp)
80002164:	6c5020ef          	jal	80005028 <__ledf2>
80002168:	00012303          	lw	t1,0(sp)
8000216c:	00c12883          	lw	a7,12(sp)
80002170:	d00540e3          	bltz	a0,80001e70 <_ftoa+0x21c>
80002174:	0e089663          	bnez	a7,80002260 <_ftoa+0x60c>
80002178:	00188893          	add	a7,a7,1
8000217c:	cf5ff06f          	j	80001e70 <_ftoa+0x21c>
80002180:	00006717          	auipc	a4,0x6
80002184:	4a870713          	add	a4,a4,1192 # 80008628 <__SDATA_BEGIN__+0x80>
80002188:	00072783          	lw	a5,0(a4)
8000218c:	00472803          	lw	a6,4(a4)
80002190:	00600313          	li	t1,6
80002194:	00f12023          	sw	a5,0(sp)
80002198:	01012223          	sw	a6,4(sp)
8000219c:	02010b93          	add	s7,sp,32
800021a0:	c11ff06f          	j	80001db0 <_ftoa+0x15c>
800021a4:	02aa8663          	beq	s5,a0,800021d0 <_ftoa+0x57c>
800021a8:	01530633          	add	a2,t1,s5
800021ac:	03000513          	li	a0,48
800021b0:	02000593          	li	a1,32
800021b4:	00031663          	bnez	t1,800021c0 <_ftoa+0x56c>
800021b8:	06c0006f          	j	80002224 <_ftoa+0x5d0>
800021bc:	06ca8663          	beq	s5,a2,80002228 <_ftoa+0x5d4>
800021c0:	001a8a93          	add	s5,s5,1
800021c4:	015b86b3          	add	a3,s7,s5
800021c8:	fea68fa3          	sb	a0,-1(a3)
800021cc:	feba98e3          	bne	s5,a1,800021bc <_ftoa+0x568>
800021d0:	02000a93          	li	s5,32
800021d4:	e65ff06f          	j	80002038 <_ftoa+0x3e4>
800021d8:	000a2783          	lw	a5,0(s4)
800021dc:	004a2803          	lw	a6,4(s4)
800021e0:	02000a93          	li	s5,32
800021e4:	00f12023          	sw	a5,0(sp)
800021e8:	01012223          	sw	a6,4(sp)
800021ec:	bc5ff06f          	j	80001db0 <_ftoa+0x15c>
800021f0:	02000693          	li	a3,32
800021f4:	eada80e3          	beq	s5,a3,80002094 <_ftoa+0x440>
800021f8:	004df693          	and	a3,s11,4
800021fc:	04069463          	bnez	a3,80002244 <_ftoa+0x5f0>
80002200:	008df693          	and	a3,s11,8
80002204:	e80688e3          	beqz	a3,80002094 <_ftoa+0x440>
80002208:	020a8793          	add	a5,s5,32
8000220c:	02010713          	add	a4,sp,32
80002210:	00e786b3          	add	a3,a5,a4
80002214:	02000613          	li	a2,32
80002218:	fec68023          	sb	a2,-32(a3)
8000221c:	001a8a93          	add	s5,s5,1
80002220:	e75ff06f          	j	80002094 <_ftoa+0x440>
80002224:	000a8613          	mv	a2,s5
80002228:	02060793          	add	a5,a2,32
8000222c:	02010713          	add	a4,sp,32
80002230:	00e786b3          	add	a3,a5,a4
80002234:	00160a93          	add	s5,a2,1
80002238:	02e00613          	li	a2,46
8000223c:	fec68023          	sb	a2,-32(a3)
80002240:	df9ff06f          	j	80002038 <_ftoa+0x3e4>
80002244:	020a8793          	add	a5,s5,32
80002248:	02010713          	add	a4,sp,32
8000224c:	00e786b3          	add	a3,a5,a4
80002250:	02b00613          	li	a2,43
80002254:	fec68023          	sb	a2,-32(a3)
80002258:	001a8a93          	add	s5,s5,1
8000225c:	e39ff06f          	j	80002094 <_ftoa+0x440>
80002260:	0018f693          	and	a3,a7,1
80002264:	c00686e3          	beqz	a3,80001e70 <_ftoa+0x21c>
80002268:	00188893          	add	a7,a7,1
8000226c:	c05ff06f          	j	80001e70 <_ftoa+0x21c>
80002270:	fff90913          	add	s2,s2,-1
80002274:	eb2ae2e3          	bltu	s5,s2,80002118 <_ftoa+0x4c4>
80002278:	df5ff06f          	j	8000206c <_ftoa+0x418>
8000227c:	003b1713          	sll	a4,s6,0x3
80002280:	00005797          	auipc	a5,0x5
80002284:	d3078793          	add	a5,a5,-720 # 80006fb0 <pow10.0>
80002288:	00e787b3          	add	a5,a5,a4
8000228c:	0047a803          	lw	a6,4(a5)
80002290:	0007a783          	lw	a5,0(a5)
80002294:	000b0313          	mv	t1,s6
80002298:	01012223          	sw	a6,4(sp)
8000229c:	00f12023          	sw	a5,0(sp)
800022a0:	00000a93          	li	s5,0
800022a4:	02010b93          	add	s7,sp,32
800022a8:	b09ff06f          	j	80001db0 <_ftoa+0x15c>
800022ac:	dc0900e3          	beqz	s2,8000206c <_ftoa+0x418>
800022b0:	e55ff06f          	j	80002104 <_ftoa+0x4b0>

800022b4 <_vsnprintf>:
800022b4:	f7010113          	add	sp,sp,-144
800022b8:	09212023          	sw	s2,128(sp)
800022bc:	07612823          	sw	s6,112(sp)
800022c0:	07712623          	sw	s7,108(sp)
800022c4:	07912223          	sw	s9,100(sp)
800022c8:	05b12e23          	sw	s11,92(sp)
800022cc:	08112623          	sw	ra,140(sp)
800022d0:	08812423          	sw	s0,136(sp)
800022d4:	08912223          	sw	s1,132(sp)
800022d8:	07312e23          	sw	s3,124(sp)
800022dc:	07412c23          	sw	s4,120(sp)
800022e0:	07512a23          	sw	s5,116(sp)
800022e4:	07812423          	sw	s8,104(sp)
800022e8:	07a12023          	sw	s10,96(sp)
800022ec:	00058b13          	mv	s6,a1
800022f0:	00060d93          	mv	s11,a2
800022f4:	00068913          	mv	s2,a3
800022f8:	00070c93          	mv	s9,a4
800022fc:	fffffb97          	auipc	s7,0xfffff
80002300:	e50b8b93          	add	s7,s7,-432 # 8000114c <_out_null>
80002304:	00058463          	beqz	a1,8000230c <_vsnprintf+0x58>
80002308:	00050b93          	mv	s7,a0
8000230c:	00094503          	lbu	a0,0(s2)
80002310:	00000413          	li	s0,0
80002314:	78050463          	beqz	a0,80002a9c <_vsnprintf+0x7e8>
80002318:	000097b7          	lui	a5,0x9
8000231c:	04178793          	add	a5,a5,65 # 9041 <__tcb_aligned_size+0x9001>
80002320:	02500a93          	li	s5,37
80002324:	01000a13          	li	s4,16
80002328:	00005997          	auipc	s3,0x5
8000232c:	ae898993          	add	s3,s3,-1304 # 80006e10 <__call_exitprocs+0x240>
80002330:	00f12a23          	sw	a5,20(sp)
80002334:	0200006f          	j	80002354 <_vsnprintf+0xa0>
80002338:	00040613          	mv	a2,s0
8000233c:	000d8693          	mv	a3,s11
80002340:	000b0593          	mv	a1,s6
80002344:	00140413          	add	s0,s0,1
80002348:	000b80e7          	jalr	s7
8000234c:	00094503          	lbu	a0,0(s2)
80002350:	1c050a63          	beqz	a0,80002524 <_vsnprintf+0x270>
80002354:	00190913          	add	s2,s2,1
80002358:	ff5510e3          	bne	a0,s5,80002338 <_vsnprintf+0x84>
8000235c:	00000693          	li	a3,0
80002360:	00094503          	lbu	a0,0(s2)
80002364:	00190713          	add	a4,s2,1
80002368:	fe050793          	add	a5,a0,-32
8000236c:	0ff7f793          	zext.b	a5,a5
80002370:	00fa6c63          	bltu	s4,a5,80002388 <_vsnprintf+0xd4>
80002374:	00279793          	sll	a5,a5,0x2
80002378:	013787b3          	add	a5,a5,s3
8000237c:	0007a783          	lw	a5,0(a5)
80002380:	013787b3          	add	a5,a5,s3
80002384:	00078067          	jr	a5
80002388:	fd050793          	add	a5,a0,-48
8000238c:	0ff7f793          	zext.b	a5,a5
80002390:	00900613          	li	a2,9
80002394:	1ef67863          	bgeu	a2,a5,80002584 <_vsnprintf+0x2d0>
80002398:	02a00793          	li	a5,42
8000239c:	00000893          	li	a7,0
800023a0:	26f50263          	beq	a0,a5,80002604 <_vsnprintf+0x350>
800023a4:	02e00793          	li	a5,46
800023a8:	00000813          	li	a6,0
800023ac:	22f50463          	beq	a0,a5,800025d4 <_vsnprintf+0x320>
800023b0:	f9850793          	add	a5,a0,-104
800023b4:	0ff7f793          	zext.b	a5,a5
800023b8:	01200613          	li	a2,18
800023bc:	06f66463          	bltu	a2,a5,80002424 <_vsnprintf+0x170>
800023c0:	00005617          	auipc	a2,0x5
800023c4:	a9460613          	add	a2,a2,-1388 # 80006e54 <__call_exitprocs+0x284>
800023c8:	00279793          	sll	a5,a5,0x2
800023cc:	00c787b3          	add	a5,a5,a2
800023d0:	0007a783          	lw	a5,0(a5)
800023d4:	00c787b3          	add	a5,a5,a2
800023d8:	00078067          	jr	a5
800023dc:	0016e693          	or	a3,a3,1
800023e0:	00070913          	mv	s2,a4
800023e4:	f7dff06f          	j	80002360 <_vsnprintf+0xac>
800023e8:	0026e693          	or	a3,a3,2
800023ec:	00070913          	mv	s2,a4
800023f0:	f71ff06f          	j	80002360 <_vsnprintf+0xac>
800023f4:	0046e693          	or	a3,a3,4
800023f8:	00070913          	mv	s2,a4
800023fc:	f65ff06f          	j	80002360 <_vsnprintf+0xac>
80002400:	0106e693          	or	a3,a3,16
80002404:	00070913          	mv	s2,a4
80002408:	f59ff06f          	j	80002360 <_vsnprintf+0xac>
8000240c:	0086e693          	or	a3,a3,8
80002410:	00070913          	mv	s2,a4
80002414:	f4dff06f          	j	80002360 <_vsnprintf+0xac>
80002418:	00194503          	lbu	a0,1(s2)
8000241c:	1006e693          	or	a3,a3,256
80002420:	00170713          	add	a4,a4,1
80002424:	06700793          	li	a5,103
80002428:	00070913          	mv	s2,a4
8000242c:	02a7ec63          	bltu	a5,a0,80002464 <_vsnprintf+0x1b0>
80002430:	02400793          	li	a5,36
80002434:	f0a7f2e3          	bgeu	a5,a0,80002338 <_vsnprintf+0x84>
80002438:	fdb50793          	add	a5,a0,-37
8000243c:	0ff7f793          	zext.b	a5,a5
80002440:	04200713          	li	a4,66
80002444:	eef76ae3          	bltu	a4,a5,80002338 <_vsnprintf+0x84>
80002448:	00005717          	auipc	a4,0x5
8000244c:	a5870713          	add	a4,a4,-1448 # 80006ea0 <__call_exitprocs+0x2d0>
80002450:	00279793          	sll	a5,a5,0x2
80002454:	00e787b3          	add	a5,a5,a4
80002458:	0007a783          	lw	a5,0(a5)
8000245c:	00e787b3          	add	a5,a5,a4
80002460:	00078067          	jr	a5
80002464:	f9750793          	add	a5,a0,-105
80002468:	0ff7f793          	zext.b	a5,a5
8000246c:	00f00713          	li	a4,15
80002470:	ecf764e3          	bltu	a4,a5,80002338 <_vsnprintf+0x84>
80002474:	01412703          	lw	a4,20(sp)
80002478:	00100493          	li	s1,1
8000247c:	00f494b3          	sll	s1,s1,a5
80002480:	00e4f4b3          	and	s1,s1,a4
80002484:	58049663          	bnez	s1,80002a10 <_vsnprintf+0x75c>
80002488:	00a00713          	li	a4,10
8000248c:	2ee78863          	beq	a5,a4,8000277c <_vsnprintf+0x4c8>
80002490:	00700713          	li	a4,7
80002494:	eae792e3          	bne	a5,a4,80002338 <_vsnprintf+0x84>
80002498:	000ca783          	lw	a5,0(s9)
8000249c:	0216e593          	or	a1,a3,33
800024a0:	004c8c93          	add	s9,s9,4
800024a4:	3e078263          	beqz	a5,80002888 <_vsnprintf+0x5d4>
800024a8:	03010713          	add	a4,sp,48
800024ac:	00900893          	li	a7,9
800024b0:	00f00513          	li	a0,15
800024b4:	02000313          	li	t1,32
800024b8:	00c0006f          	j	800024c4 <_vsnprintf+0x210>
800024bc:	02648663          	beq	s1,t1,800024e8 <_vsnprintf+0x234>
800024c0:	00068793          	mv	a5,a3
800024c4:	00f7fe13          	and	t3,a5,15
800024c8:	037e0613          	add	a2,t3,55
800024cc:	01c8e463          	bltu	a7,t3,800024d4 <_vsnprintf+0x220>
800024d0:	030e0613          	add	a2,t3,48
800024d4:	00148493          	add	s1,s1,1
800024d8:	009706b3          	add	a3,a4,s1
800024dc:	fec68fa3          	sb	a2,-1(a3)
800024e0:	0047d693          	srl	a3,a5,0x4
800024e4:	fcf56ce3          	bltu	a0,a5,800024bc <_vsnprintf+0x208>
800024e8:	00800793          	li	a5,8
800024ec:	00f12223          	sw	a5,4(sp)
800024f0:	01012023          	sw	a6,0(sp)
800024f4:	00040613          	mv	a2,s0
800024f8:	00b12423          	sw	a1,8(sp)
800024fc:	01000893          	li	a7,16
80002500:	00000813          	li	a6,0
80002504:	00048793          	mv	a5,s1
80002508:	000d8693          	mv	a3,s11
8000250c:	000b0593          	mv	a1,s6
80002510:	000b8513          	mv	a0,s7
80002514:	d69fe0ef          	jal	8000127c <_ntoa_format>
80002518:	00050413          	mv	s0,a0
8000251c:	00094503          	lbu	a0,0(s2)
80002520:	e2051ae3          	bnez	a0,80002354 <_vsnprintf+0xa0>
80002524:	00040493          	mv	s1,s0
80002528:	01b46463          	bltu	s0,s11,80002530 <_vsnprintf+0x27c>
8000252c:	fffd8413          	add	s0,s11,-1
80002530:	000d8693          	mv	a3,s11
80002534:	00040613          	mv	a2,s0
80002538:	000b0593          	mv	a1,s6
8000253c:	00000513          	li	a0,0
80002540:	000b80e7          	jalr	s7
80002544:	08c12083          	lw	ra,140(sp)
80002548:	08812403          	lw	s0,136(sp)
8000254c:	08012903          	lw	s2,128(sp)
80002550:	07c12983          	lw	s3,124(sp)
80002554:	07812a03          	lw	s4,120(sp)
80002558:	07412a83          	lw	s5,116(sp)
8000255c:	07012b03          	lw	s6,112(sp)
80002560:	06c12b83          	lw	s7,108(sp)
80002564:	06812c03          	lw	s8,104(sp)
80002568:	06412c83          	lw	s9,100(sp)
8000256c:	06012d03          	lw	s10,96(sp)
80002570:	05c12d83          	lw	s11,92(sp)
80002574:	00048513          	mv	a0,s1
80002578:	08412483          	lw	s1,132(sp)
8000257c:	09010113          	add	sp,sp,144
80002580:	00008067          	ret
80002584:	00000893          	li	a7,0
80002588:	00900613          	li	a2,9
8000258c:	00088593          	mv	a1,a7
80002590:	0080006f          	j	80002598 <_vsnprintf+0x2e4>
80002594:	00170713          	add	a4,a4,1
80002598:	00259893          	sll	a7,a1,0x2
8000259c:	00b888b3          	add	a7,a7,a1
800025a0:	00189893          	sll	a7,a7,0x1
800025a4:	00a888b3          	add	a7,a7,a0
800025a8:	00074503          	lbu	a0,0(a4)
800025ac:	00070913          	mv	s2,a4
800025b0:	fd088593          	add	a1,a7,-48
800025b4:	fd050793          	add	a5,a0,-48
800025b8:	0ff7f793          	zext.b	a5,a5
800025bc:	fcf67ce3          	bgeu	a2,a5,80002594 <_vsnprintf+0x2e0>
800025c0:	02e00793          	li	a5,46
800025c4:	00058893          	mv	a7,a1
800025c8:	00170713          	add	a4,a4,1
800025cc:	00000813          	li	a6,0
800025d0:	def510e3          	bne	a0,a5,800023b0 <_vsnprintf+0xfc>
800025d4:	00194503          	lbu	a0,1(s2)
800025d8:	00900593          	li	a1,9
800025dc:	00070613          	mv	a2,a4
800025e0:	fd050793          	add	a5,a0,-48
800025e4:	0ff7f793          	zext.b	a5,a5
800025e8:	4006e693          	or	a3,a3,1024
800025ec:	22f5fa63          	bgeu	a1,a5,80002820 <_vsnprintf+0x56c>
800025f0:	02a00793          	li	a5,42
800025f4:	26f50263          	beq	a0,a5,80002858 <_vsnprintf+0x5a4>
800025f8:	00070913          	mv	s2,a4
800025fc:	00170713          	add	a4,a4,1
80002600:	db1ff06f          	j	800023b0 <_vsnprintf+0xfc>
80002604:	000ca883          	lw	a7,0(s9)
80002608:	004c8c93          	add	s9,s9,4
8000260c:	0008ca63          	bltz	a7,80002620 <_vsnprintf+0x36c>
80002610:	00194503          	lbu	a0,1(s2)
80002614:	00070913          	mv	s2,a4
80002618:	00170713          	add	a4,a4,1
8000261c:	d89ff06f          	j	800023a4 <_vsnprintf+0xf0>
80002620:	00194503          	lbu	a0,1(s2)
80002624:	0026e693          	or	a3,a3,2
80002628:	00070913          	mv	s2,a4
8000262c:	411008b3          	neg	a7,a7
80002630:	00170713          	add	a4,a4,1
80002634:	d71ff06f          	j	800023a4 <_vsnprintf+0xf0>
80002638:	06700793          	li	a5,103
8000263c:	32f50a63          	beq	a0,a5,80002970 <_vsnprintf+0x6bc>
80002640:	04700793          	li	a5,71
80002644:	42f50a63          	beq	a0,a5,80002a78 <_vsnprintf+0x7c4>
80002648:	04500793          	li	a5,69
8000264c:	42f50c63          	beq	a0,a5,80002a84 <_vsnprintf+0x7d0>
80002650:	007c8c93          	add	s9,s9,7
80002654:	ff8cfc93          	and	s9,s9,-8
80002658:	000ca703          	lw	a4,0(s9)
8000265c:	004ca783          	lw	a5,4(s9)
80002660:	00040613          	mv	a2,s0
80002664:	00d12023          	sw	a3,0(sp)
80002668:	000b0593          	mv	a1,s6
8000266c:	000d8693          	mv	a3,s11
80002670:	000b8513          	mv	a0,s7
80002674:	f49fe0ef          	jal	800015bc <_etoa>
80002678:	008c8c93          	add	s9,s9,8
8000267c:	00050413          	mv	s0,a0
80002680:	ccdff06f          	j	8000234c <_vsnprintf+0x98>
80002684:	00194503          	lbu	a0,1(s2)
80002688:	06c00793          	li	a5,108
8000268c:	d8f518e3          	bne	a0,a5,8000241c <_vsnprintf+0x168>
80002690:	00294503          	lbu	a0,2(s2)
80002694:	3006e693          	or	a3,a3,768
80002698:	00390713          	add	a4,s2,3
8000269c:	d89ff06f          	j	80002424 <_vsnprintf+0x170>
800026a0:	00194503          	lbu	a0,1(s2)
800026a4:	2006e693          	or	a3,a3,512
800026a8:	00170713          	add	a4,a4,1
800026ac:	d79ff06f          	j	80002424 <_vsnprintf+0x170>
800026b0:	00194503          	lbu	a0,1(s2)
800026b4:	06800793          	li	a5,104
800026b8:	3cf50a63          	beq	a0,a5,80002a8c <_vsnprintf+0x7d8>
800026bc:	0806e693          	or	a3,a3,128
800026c0:	00170713          	add	a4,a4,1
800026c4:	d61ff06f          	j	80002424 <_vsnprintf+0x170>
800026c8:	04600793          	li	a5,70
800026cc:	2af50a63          	beq	a0,a5,80002980 <_vsnprintf+0x6cc>
800026d0:	007c8c93          	add	s9,s9,7
800026d4:	ff8cfc93          	and	s9,s9,-8
800026d8:	000ca703          	lw	a4,0(s9)
800026dc:	004ca783          	lw	a5,4(s9)
800026e0:	00040613          	mv	a2,s0
800026e4:	00d12023          	sw	a3,0(sp)
800026e8:	000b0593          	mv	a1,s6
800026ec:	000d8693          	mv	a3,s11
800026f0:	000b8513          	mv	a0,s7
800026f4:	d60ff0ef          	jal	80001c54 <_ftoa>
800026f8:	008c8c93          	add	s9,s9,8
800026fc:	00050413          	mv	s0,a0
80002700:	c4dff06f          	j	8000234c <_vsnprintf+0x98>
80002704:	00040613          	mv	a2,s0
80002708:	000d8693          	mv	a3,s11
8000270c:	000b0593          	mv	a1,s6
80002710:	02500513          	li	a0,37
80002714:	00140413          	add	s0,s0,1
80002718:	000b80e7          	jalr	s7
8000271c:	c31ff06f          	j	8000234c <_vsnprintf+0x98>
80002720:	0026f693          	and	a3,a3,2
80002724:	004c8c13          	add	s8,s9,4
80002728:	00140493          	add	s1,s0,1
8000272c:	3a068663          	beqz	a3,80002ad8 <_vsnprintf+0x824>
80002730:	000cc503          	lbu	a0,0(s9)
80002734:	01112c23          	sw	a7,24(sp)
80002738:	00040613          	mv	a2,s0
8000273c:	000d8693          	mv	a3,s11
80002740:	000b0593          	mv	a1,s6
80002744:	000b80e7          	jalr	s7
80002748:	01812883          	lw	a7,24(sp)
8000274c:	00100793          	li	a5,1
80002750:	01140433          	add	s0,s0,a7
80002754:	5917f463          	bgeu	a5,a7,80002cdc <_vsnprintf+0xa28>
80002758:	00048613          	mv	a2,s1
8000275c:	000d8693          	mv	a3,s11
80002760:	00148493          	add	s1,s1,1
80002764:	000b0593          	mv	a1,s6
80002768:	02000513          	li	a0,32
8000276c:	000b80e7          	jalr	s7
80002770:	fe8494e3          	bne	s1,s0,80002758 <_vsnprintf+0x4a4>
80002774:	000c0c93          	mv	s9,s8
80002778:	bd5ff06f          	j	8000234c <_vsnprintf+0x98>
8000277c:	000cad03          	lw	s10,0(s9)
80002780:	004c8793          	add	a5,s9,4
80002784:	00f12c23          	sw	a5,24(sp)
80002788:	000d4603          	lbu	a2,0(s10)
8000278c:	00060513          	mv	a0,a2
80002790:	0e081663          	bnez	a6,8000287c <_vsnprintf+0x5c8>
80002794:	ffe00793          	li	a5,-2
80002798:	02060463          	beqz	a2,800027c0 <_vsnprintf+0x50c>
8000279c:	00178793          	add	a5,a5,1
800027a0:	00fd0733          	add	a4,s10,a5
800027a4:	000d0493          	mv	s1,s10
800027a8:	0080006f          	j	800027b0 <_vsnprintf+0x4fc>
800027ac:	00e48863          	beq	s1,a4,800027bc <_vsnprintf+0x508>
800027b0:	0014c783          	lbu	a5,1(s1)
800027b4:	00148493          	add	s1,s1,1
800027b8:	fe079ae3          	bnez	a5,800027ac <_vsnprintf+0x4f8>
800027bc:	41a484b3          	sub	s1,s1,s10
800027c0:	4006fc13          	and	s8,a3,1024
800027c4:	000c0663          	beqz	s8,800027d0 <_vsnprintf+0x51c>
800027c8:	00987463          	bgeu	a6,s1,800027d0 <_vsnprintf+0x51c>
800027cc:	00080493          	mv	s1,a6
800027d0:	0026f693          	and	a3,a3,2
800027d4:	36068c63          	beqz	a3,80002b4c <_vsnprintf+0x898>
800027d8:	20060263          	beqz	a2,800029dc <_vsnprintf+0x728>
800027dc:	1a0c0663          	beqz	s8,80002988 <_vsnprintf+0x6d4>
800027e0:	00880cb3          	add	s9,a6,s0
800027e4:	00040613          	mv	a2,s0
800027e8:	00068c13          	mv	s8,a3
800027ec:	00912e23          	sw	s1,28(sp)
800027f0:	03112023          	sw	a7,32(sp)
800027f4:	2acc8a63          	beq	s9,a2,80002aa8 <_vsnprintf+0x7f4>
800027f8:	000d8693          	mv	a3,s11
800027fc:	000b0593          	mv	a1,s6
80002800:	00160493          	add	s1,a2,1
80002804:	000b80e7          	jalr	s7
80002808:	408487b3          	sub	a5,s1,s0
8000280c:	00fd07b3          	add	a5,s10,a5
80002810:	0007c503          	lbu	a0,0(a5)
80002814:	2a050663          	beqz	a0,80002ac0 <_vsnprintf+0x80c>
80002818:	00048613          	mv	a2,s1
8000281c:	fd9ff06f          	j	800027f4 <_vsnprintf+0x540>
80002820:	00900713          	li	a4,9
80002824:	00281793          	sll	a5,a6,0x2
80002828:	010787b3          	add	a5,a5,a6
8000282c:	00160613          	add	a2,a2,1
80002830:	00179793          	sll	a5,a5,0x1
80002834:	00a787b3          	add	a5,a5,a0
80002838:	00064503          	lbu	a0,0(a2)
8000283c:	fd078813          	add	a6,a5,-48
80002840:	fd050793          	add	a5,a0,-48
80002844:	0ff7f793          	zext.b	a5,a5
80002848:	fcf77ee3          	bgeu	a4,a5,80002824 <_vsnprintf+0x570>
8000284c:	00060913          	mv	s2,a2
80002850:	00160713          	add	a4,a2,1
80002854:	b5dff06f          	j	800023b0 <_vsnprintf+0xfc>
80002858:	000ca803          	lw	a6,0(s9)
8000285c:	00294503          	lbu	a0,2(s2)
80002860:	00290913          	add	s2,s2,2
80002864:	fff84793          	not	a5,a6
80002868:	41f7d793          	sra	a5,a5,0x1f
8000286c:	00f87833          	and	a6,a6,a5
80002870:	004c8c93          	add	s9,s9,4
80002874:	00190713          	add	a4,s2,1
80002878:	b39ff06f          	j	800023b0 <_vsnprintf+0xfc>
8000287c:	f40602e3          	beqz	a2,800027c0 <_vsnprintf+0x50c>
80002880:	fff80793          	add	a5,a6,-1
80002884:	f19ff06f          	j	8000279c <_vsnprintf+0x4e8>
80002888:	fef6f593          	and	a1,a3,-17
8000288c:	4006f793          	and	a5,a3,1024
80002890:	0215e593          	or	a1,a1,33
80002894:	03010713          	add	a4,sp,48
80002898:	c40798e3          	bnez	a5,800024e8 <_vsnprintf+0x234>
8000289c:	c0dff06f          	j	800024a8 <_vsnprintf+0x1f4>
800028a0:	06200793          	li	a5,98
800028a4:	44f50263          	beq	a0,a5,80002ce8 <_vsnprintf+0xa34>
800028a8:	05800793          	li	a5,88
800028ac:	44f50863          	beq	a0,a5,80002cfc <_vsnprintf+0xa48>
800028b0:	4006f513          	and	a0,a3,1024
800028b4:	fee6fe13          	and	t3,a3,-18
800028b8:	3e050663          	beqz	a0,80002ca4 <_vsnprintf+0x9f0>
800028bc:	200e7693          	and	a3,t3,512
800028c0:	2e069263          	bnez	a3,80002ba4 <_vsnprintf+0x8f0>
800028c4:	100e7793          	and	a5,t3,256
800028c8:	004c8493          	add	s1,s9,4
800028cc:	52079663          	bnez	a5,80002df8 <_vsnprintf+0xb44>
800028d0:	040e7713          	and	a4,t3,64
800028d4:	3c071263          	bnez	a4,80002c98 <_vsnprintf+0x9e4>
800028d8:	080e7713          	and	a4,t3,128
800028dc:	72070a63          	beqz	a4,80003010 <_vsnprintf+0xd5c>
800028e0:	000c9703          	lh	a4,0(s9)
800028e4:	40f75613          	sra	a2,a4,0xf
800028e8:	00c746b3          	xor	a3,a4,a2
800028ec:	40c686b3          	sub	a3,a3,a2
800028f0:	01069693          	sll	a3,a3,0x10
800028f4:	0106d693          	srl	a3,a3,0x10
800028f8:	01f75593          	srl	a1,a4,0x1f
800028fc:	4e070863          	beqz	a4,80002dec <_vsnprintf+0xb38>
80002900:	00068513          	mv	a0,a3
80002904:	03010713          	add	a4,sp,48
80002908:	00a00613          	li	a2,10
8000290c:	00900e93          	li	t4,9
80002910:	02000f13          	li	t5,32
80002914:	0080006f          	j	8000291c <_vsnprintf+0x668>
80002918:	03e78263          	beq	a5,t5,8000293c <_vsnprintf+0x688>
8000291c:	02c576b3          	remu	a3,a0,a2
80002920:	00178793          	add	a5,a5,1
80002924:	00f70fb3          	add	t6,a4,a5
80002928:	00050313          	mv	t1,a0
8000292c:	03068693          	add	a3,a3,48
80002930:	fedf8fa3          	sb	a3,-1(t6)
80002934:	02c55533          	divu	a0,a0,a2
80002938:	fe6ee0e3          	bltu	t4,t1,80002918 <_vsnprintf+0x664>
8000293c:	01112223          	sw	a7,4(sp)
80002940:	01012023          	sw	a6,0(sp)
80002944:	00040613          	mv	a2,s0
80002948:	01c12423          	sw	t3,8(sp)
8000294c:	00a00893          	li	a7,10
80002950:	00058813          	mv	a6,a1
80002954:	000d8693          	mv	a3,s11
80002958:	000b0593          	mv	a1,s6
8000295c:	000b8513          	mv	a0,s7
80002960:	91dfe0ef          	jal	8000127c <_ntoa_format>
80002964:	00050413          	mv	s0,a0
80002968:	00048c93          	mv	s9,s1
8000296c:	9e1ff06f          	j	8000234c <_vsnprintf+0x98>
80002970:	000017b7          	lui	a5,0x1
80002974:	80078793          	add	a5,a5,-2048 # 800 <__tcb_aligned_size+0x7c0>
80002978:	00f6e6b3          	or	a3,a3,a5
8000297c:	cd5ff06f          	j	80002650 <_vsnprintf+0x39c>
80002980:	0206e693          	or	a3,a3,32
80002984:	d4dff06f          	j	800026d0 <_vsnprintf+0x41c>
80002988:	00912e23          	sw	s1,28(sp)
8000298c:	00090c13          	mv	s8,s2
80002990:	00068c93          	mv	s9,a3
80002994:	00040493          	mv	s1,s0
80002998:	00088913          	mv	s2,a7
8000299c:	00048613          	mv	a2,s1
800029a0:	000d8693          	mv	a3,s11
800029a4:	000b0593          	mv	a1,s6
800029a8:	000b80e7          	jalr	s7
800029ac:	00148493          	add	s1,s1,1
800029b0:	40848733          	sub	a4,s1,s0
800029b4:	00ed0733          	add	a4,s10,a4
800029b8:	00074503          	lbu	a0,0(a4)
800029bc:	fe0510e3          	bnez	a0,8000299c <_vsnprintf+0x6e8>
800029c0:	00090893          	mv	a7,s2
800029c4:	000c0913          	mv	s2,s8
800029c8:	00048c13          	mv	s8,s1
800029cc:	01c12483          	lw	s1,28(sp)
800029d0:	000c8693          	mv	a3,s9
800029d4:	000c0413          	mv	s0,s8
800029d8:	02068863          	beqz	a3,80002a08 <_vsnprintf+0x754>
800029dc:	00040c13          	mv	s8,s0
800029e0:	0314f463          	bgeu	s1,a7,80002a08 <_vsnprintf+0x754>
800029e4:	008888b3          	add	a7,a7,s0
800029e8:	40988433          	sub	s0,a7,s1
800029ec:	000c0613          	mv	a2,s8
800029f0:	000d8693          	mv	a3,s11
800029f4:	001c0c13          	add	s8,s8,1
800029f8:	000b0593          	mv	a1,s6
800029fc:	02000513          	li	a0,32
80002a00:	000b80e7          	jalr	s7
80002a04:	fe8c14e3          	bne	s8,s0,800029ec <_vsnprintf+0x738>
80002a08:	01812c83          	lw	s9,24(sp)
80002a0c:	941ff06f          	j	8000234c <_vsnprintf+0x98>
80002a10:	07800793          	li	a5,120
80002a14:	34f51663          	bne	a0,a5,80002d60 <_vsnprintf+0xaac>
80002a18:	4006f613          	and	a2,a3,1024
80002a1c:	62060463          	beqz	a2,80003044 <_vsnprintf+0xd90>
80002a20:	ff26fe93          	and	t4,a3,-14
80002a24:	01000d13          	li	s10,16
80002a28:	200ef593          	and	a1,t4,512
80002a2c:	2e059463          	bnez	a1,80002d14 <_vsnprintf+0xa60>
80002a30:	100ef793          	and	a5,t4,256
80002a34:	004c8493          	add	s1,s9,4
80002a38:	4e079e63          	bnez	a5,80002f34 <_vsnprintf+0xc80>
80002a3c:	040ef713          	and	a4,t4,64
80002a40:	4e070263          	beqz	a4,80002f24 <_vsnprintf+0xc70>
80002a44:	000cc583          	lbu	a1,0(s9)
80002a48:	34059063          	bnez	a1,80002d88 <_vsnprintf+0xad4>
80002a4c:	fefefe93          	and	t4,t4,-17
80002a50:	32060c63          	beqz	a2,80002d88 <_vsnprintf+0xad4>
80002a54:	00000793          	li	a5,0
80002a58:	03010713          	add	a4,sp,48
80002a5c:	01112223          	sw	a7,4(sp)
80002a60:	01012023          	sw	a6,0(sp)
80002a64:	00040613          	mv	a2,s0
80002a68:	01d12423          	sw	t4,8(sp)
80002a6c:	000d0893          	mv	a7,s10
80002a70:	00000813          	li	a6,0
80002a74:	ee1ff06f          	j	80002954 <_vsnprintf+0x6a0>
80002a78:	000017b7          	lui	a5,0x1
80002a7c:	80078793          	add	a5,a5,-2048 # 800 <__tcb_aligned_size+0x7c0>
80002a80:	00f6e6b3          	or	a3,a3,a5
80002a84:	0206e693          	or	a3,a3,32
80002a88:	bc9ff06f          	j	80002650 <_vsnprintf+0x39c>
80002a8c:	00294503          	lbu	a0,2(s2)
80002a90:	0c06e693          	or	a3,a3,192
80002a94:	00390713          	add	a4,s2,3
80002a98:	98dff06f          	j	80002424 <_vsnprintf+0x170>
80002a9c:	00000493          	li	s1,0
80002aa0:	a9b468e3          	bltu	s0,s11,80002530 <_vsnprintf+0x27c>
80002aa4:	a89ff06f          	j	8000252c <_vsnprintf+0x278>
80002aa8:	000c0693          	mv	a3,s8
80002aac:	01c12483          	lw	s1,28(sp)
80002ab0:	02012883          	lw	a7,32(sp)
80002ab4:	000c8413          	mv	s0,s9
80002ab8:	f40688e3          	beqz	a3,80002a08 <_vsnprintf+0x754>
80002abc:	f21ff06f          	j	800029dc <_vsnprintf+0x728>
80002ac0:	000c0693          	mv	a3,s8
80002ac4:	00048c13          	mv	s8,s1
80002ac8:	02012883          	lw	a7,32(sp)
80002acc:	01c12483          	lw	s1,28(sp)
80002ad0:	000c0413          	mv	s0,s8
80002ad4:	f05ff06f          	j	800029d8 <_vsnprintf+0x724>
80002ad8:	00100793          	li	a5,1
80002adc:	1f17f663          	bgeu	a5,a7,80002cc8 <_vsnprintf+0xa14>
80002ae0:	000c8793          	mv	a5,s9
80002ae4:	fff40493          	add	s1,s0,-1
80002ae8:	00090c93          	mv	s9,s2
80002aec:	011484b3          	add	s1,s1,a7
80002af0:	01112c23          	sw	a7,24(sp)
80002af4:	00040913          	mv	s2,s0
80002af8:	00078d13          	mv	s10,a5
80002afc:	00040613          	mv	a2,s0
80002b00:	000d8693          	mv	a3,s11
80002b04:	00140413          	add	s0,s0,1
80002b08:	000b0593          	mv	a1,s6
80002b0c:	02000513          	li	a0,32
80002b10:	000b80e7          	jalr	s7
80002b14:	fe9414e3          	bne	s0,s1,80002afc <_vsnprintf+0x848>
80002b18:	000d0793          	mv	a5,s10
80002b1c:	01812883          	lw	a7,24(sp)
80002b20:	0007c503          	lbu	a0,0(a5)
80002b24:	00040d13          	mv	s10,s0
80002b28:	000d8693          	mv	a3,s11
80002b2c:	00090413          	mv	s0,s2
80002b30:	000d0613          	mv	a2,s10
80002b34:	000b0593          	mv	a1,s6
80002b38:	000c8913          	mv	s2,s9
80002b3c:	01140433          	add	s0,s0,a7
80002b40:	000c0c93          	mv	s9,s8
80002b44:	000b80e7          	jalr	s7
80002b48:	805ff06f          	j	8000234c <_vsnprintf+0x98>
80002b4c:	4f14f663          	bgeu	s1,a7,80003038 <_vsnprintf+0xd84>
80002b50:	008887b3          	add	a5,a7,s0
80002b54:	409784b3          	sub	s1,a5,s1
80002b58:	00068c93          	mv	s9,a3
80002b5c:	01112e23          	sw	a7,28(sp)
80002b60:	03012023          	sw	a6,32(sp)
80002b64:	00040613          	mv	a2,s0
80002b68:	000d8693          	mv	a3,s11
80002b6c:	00140413          	add	s0,s0,1
80002b70:	000b0593          	mv	a1,s6
80002b74:	02000513          	li	a0,32
80002b78:	000b80e7          	jalr	s7
80002b7c:	fe9414e3          	bne	s0,s1,80002b64 <_vsnprintf+0x8b0>
80002b80:	01c12883          	lw	a7,28(sp)
80002b84:	02012803          	lw	a6,32(sp)
80002b88:	000d4603          	lbu	a2,0(s10)
80002b8c:	000c8693          	mv	a3,s9
80002b90:	00188493          	add	s1,a7,1
80002b94:	00060513          	mv	a0,a2
80002b98:	c40612e3          	bnez	a2,800027dc <_vsnprintf+0x528>
80002b9c:	01812c83          	lw	s9,24(sp)
80002ba0:	facff06f          	j	8000234c <_vsnprintf+0x98>
80002ba4:	007c8c93          	add	s9,s9,7
80002ba8:	ff8cfc93          	and	s9,s9,-8
80002bac:	004ca583          	lw	a1,4(s9)
80002bb0:	000ca603          	lw	a2,0(s9)
80002bb4:	008c8c93          	add	s9,s9,8
80002bb8:	01f5df93          	srl	t6,a1,0x1f
80002bbc:	00b667b3          	or	a5,a2,a1
80002bc0:	0e078663          	beqz	a5,80002cac <_vsnprintf+0x9f8>
80002bc4:	41f5d793          	sra	a5,a1,0x1f
80002bc8:	00c7c633          	xor	a2,a5,a2
80002bcc:	40f60733          	sub	a4,a2,a5
80002bd0:	00b7c5b3          	xor	a1,a5,a1
80002bd4:	00e636b3          	sltu	a3,a2,a4
80002bd8:	40f587b3          	sub	a5,a1,a5
80002bdc:	00070613          	mv	a2,a4
80002be0:	40d785b3          	sub	a1,a5,a3
80002be4:	ccccdeb7          	lui	t4,0xccccd
80002be8:	ccde8513          	add	a0,t4,-819 # cccccccd <__BSS_END__+0x4ccc350d>
80002bec:	00000793          	li	a5,0
80002bf0:	03010713          	add	a4,sp,48
80002bf4:	00500f13          	li	t5,5
80002bf8:	ccce8e93          	add	t4,t4,-820
80002bfc:	02000393          	li	t2,32
80002c00:	00058493          	mv	s1,a1
80002c04:	009606b3          	add	a3,a2,s1
80002c08:	00c6b5b3          	sltu	a1,a3,a2
80002c0c:	00b686b3          	add	a3,a3,a1
80002c10:	03e6f6b3          	remu	a3,a3,t5
80002c14:	00048313          	mv	t1,s1
80002c18:	00178793          	add	a5,a5,1
80002c1c:	00060093          	mv	ra,a2
80002c20:	00f702b3          	add	t0,a4,a5
80002c24:	40d606b3          	sub	a3,a2,a3
80002c28:	00d635b3          	sltu	a1,a2,a3
80002c2c:	40b485b3          	sub	a1,s1,a1
80002c30:	03d68c33          	mul	s8,a3,t4
80002c34:	02a585b3          	mul	a1,a1,a0
80002c38:	02a6b4b3          	mulhu	s1,a3,a0
80002c3c:	018585b3          	add	a1,a1,s8
80002c40:	02a686b3          	mul	a3,a3,a0
80002c44:	009585b3          	add	a1,a1,s1
80002c48:	01f59c13          	sll	s8,a1,0x1f
80002c4c:	0015d493          	srl	s1,a1,0x1
80002c50:	0016d693          	srl	a3,a3,0x1
80002c54:	00dc66b3          	or	a3,s8,a3
80002c58:	00269593          	sll	a1,a3,0x2
80002c5c:	00d585b3          	add	a1,a1,a3
80002c60:	00159593          	sll	a1,a1,0x1
80002c64:	40b60633          	sub	a2,a2,a1
80002c68:	03060613          	add	a2,a2,48
80002c6c:	fec28fa3          	sb	a2,-1(t0)
80002c70:	00068613          	mv	a2,a3
80002c74:	04030463          	beqz	t1,80002cbc <_vsnprintf+0xa08>
80002c78:	f87796e3          	bne	a5,t2,80002c04 <_vsnprintf+0x950>
80002c7c:	01112223          	sw	a7,4(sp)
80002c80:	01012023          	sw	a6,0(sp)
80002c84:	00040613          	mv	a2,s0
80002c88:	01c12423          	sw	t3,8(sp)
80002c8c:	00a00893          	li	a7,10
80002c90:	000f8813          	mv	a6,t6
80002c94:	875ff06f          	j	80002508 <_vsnprintf+0x254>
80002c98:	000cc703          	lbu	a4,0(s9)
80002c9c:	00070693          	mv	a3,a4
80002ca0:	c59ff06f          	j	800028f8 <_vsnprintf+0x644>
80002ca4:	fef6fe13          	and	t3,a3,-17
80002ca8:	c15ff06f          	j	800028bc <_vsnprintf+0x608>
80002cac:	38051063          	bnez	a0,8000302c <_vsnprintf+0xd78>
80002cb0:	00000613          	li	a2,0
80002cb4:	00000593          	li	a1,0
80002cb8:	f2dff06f          	j	80002be4 <_vsnprintf+0x930>
80002cbc:	00900693          	li	a3,9
80002cc0:	fa16ece3          	bltu	a3,ra,80002c78 <_vsnprintf+0x9c4>
80002cc4:	fb9ff06f          	j	80002c7c <_vsnprintf+0x9c8>
80002cc8:	000cc503          	lbu	a0,0(s9)
80002ccc:	000d8693          	mv	a3,s11
80002cd0:	00040613          	mv	a2,s0
80002cd4:	000b0593          	mv	a1,s6
80002cd8:	000b80e7          	jalr	s7
80002cdc:	00048413          	mv	s0,s1
80002ce0:	000c0c93          	mv	s9,s8
80002ce4:	e68ff06f          	j	8000234c <_vsnprintf+0x98>
80002ce8:	4006f613          	and	a2,a3,1024
80002cec:	2e060063          	beqz	a2,80002fcc <_vsnprintf+0xd18>
80002cf0:	ff26fe93          	and	t4,a3,-14
80002cf4:	00200d13          	li	s10,2
80002cf8:	d31ff06f          	j	80002a28 <_vsnprintf+0x774>
80002cfc:	4006f613          	and	a2,a3,1024
80002d00:	34060063          	beqz	a2,80003040 <_vsnprintf+0xd8c>
80002d04:	ff26fe93          	and	t4,a3,-14
80002d08:	020eee93          	or	t4,t4,32
80002d0c:	01000d13          	li	s10,16
80002d10:	d19ff06f          	j	80002a28 <_vsnprintf+0x774>
80002d14:	007c8c93          	add	s9,s9,7
80002d18:	ff8cfc93          	and	s9,s9,-8
80002d1c:	000ca683          	lw	a3,0(s9)
80002d20:	004ca483          	lw	s1,4(s9)
80002d24:	008c8c93          	add	s9,s9,8
80002d28:	0096e7b3          	or	a5,a3,s1
80002d2c:	12079e63          	bnez	a5,80002e68 <_vsnprintf+0xbb4>
80002d30:	fefefe93          	and	t4,t4,-17
80002d34:	12060a63          	beqz	a2,80002e68 <_vsnprintf+0xbb4>
80002d38:	00000c13          	li	s8,0
80002d3c:	03010713          	add	a4,sp,48
80002d40:	01112223          	sw	a7,4(sp)
80002d44:	01012023          	sw	a6,0(sp)
80002d48:	00040613          	mv	a2,s0
80002d4c:	01d12423          	sw	t4,8(sp)
80002d50:	000d0893          	mv	a7,s10
80002d54:	00000813          	li	a6,0
80002d58:	000c0793          	mv	a5,s8
80002d5c:	facff06f          	j	80002508 <_vsnprintf+0x254>
80002d60:	06f00793          	li	a5,111
80002d64:	2ef51863          	bne	a0,a5,80003054 <_vsnprintf+0xda0>
80002d68:	4006f613          	and	a2,a3,1024
80002d6c:	ff36fe93          	and	t4,a3,-13
80002d70:	00800d13          	li	s10,8
80002d74:	ca060ae3          	beqz	a2,80002a28 <_vsnprintf+0x774>
80002d78:	00068e13          	mv	t3,a3
80002d7c:	00800d13          	li	s10,8
80002d80:	ff2e7e93          	and	t4,t3,-14
80002d84:	ca5ff06f          	j	80002a28 <_vsnprintf+0x774>
80002d88:	020ef613          	and	a2,t4,32
80002d8c:	06100713          	li	a4,97
80002d90:	00060463          	beqz	a2,80002d98 <_vsnprintf+0xae4>
80002d94:	04100713          	li	a4,65
80002d98:	0ff77f13          	zext.b	t5,a4
80002d9c:	00900313          	li	t1,9
80002da0:	03010713          	add	a4,sp,48
80002da4:	ff6f0f13          	add	t5,t5,-10
80002da8:	02000e13          	li	t3,32
80002dac:	0280006f          	j	80002dd4 <_vsnprintf+0xb20>
80002db0:	03068693          	add	a3,a3,48
80002db4:	0ff6f693          	zext.b	a3,a3
80002db8:	00178793          	add	a5,a5,1
80002dbc:	00f70633          	add	a2,a4,a5
80002dc0:	fed60fa3          	sb	a3,-1(a2)
80002dc4:	03a5d6b3          	divu	a3,a1,s10
80002dc8:	c9a5eae3          	bltu	a1,s10,80002a5c <_vsnprintf+0x7a8>
80002dcc:	c9c788e3          	beq	a5,t3,80002a5c <_vsnprintf+0x7a8>
80002dd0:	00068593          	mv	a1,a3
80002dd4:	03a5f633          	remu	a2,a1,s10
80002dd8:	0ff67693          	zext.b	a3,a2
80002ddc:	fcc37ae3          	bgeu	t1,a2,80002db0 <_vsnprintf+0xafc>
80002de0:	01e686b3          	add	a3,a3,t5
80002de4:	0ff6f693          	zext.b	a3,a3
80002de8:	fd1ff06f          	j	80002db8 <_vsnprintf+0xb04>
80002dec:	03010713          	add	a4,sp,48
80002df0:	b40516e3          	bnez	a0,8000293c <_vsnprintf+0x688>
80002df4:	b11ff06f          	j	80002904 <_vsnprintf+0x650>
80002df8:	000ca783          	lw	a5,0(s9)
80002dfc:	01f7d593          	srl	a1,a5,0x1f
80002e00:	1c078c63          	beqz	a5,80002fd8 <_vsnprintf+0xd24>
80002e04:	41f7d713          	sra	a4,a5,0x1f
80002e08:	00f74533          	xor	a0,a4,a5
80002e0c:	40e50533          	sub	a0,a0,a4
80002e10:	03010713          	add	a4,sp,48
80002e14:	00a00613          	li	a2,10
80002e18:	00900e93          	li	t4,9
80002e1c:	02000f13          	li	t5,32
80002e20:	0080006f          	j	80002e28 <_vsnprintf+0xb74>
80002e24:	03e68263          	beq	a3,t5,80002e48 <_vsnprintf+0xb94>
80002e28:	02c577b3          	remu	a5,a0,a2
80002e2c:	00168693          	add	a3,a3,1
80002e30:	00d70fb3          	add	t6,a4,a3
80002e34:	00050313          	mv	t1,a0
80002e38:	03078793          	add	a5,a5,48
80002e3c:	feff8fa3          	sb	a5,-1(t6)
80002e40:	02c55533          	divu	a0,a0,a2
80002e44:	fe6ee0e3          	bltu	t4,t1,80002e24 <_vsnprintf+0xb70>
80002e48:	01112223          	sw	a7,4(sp)
80002e4c:	01012023          	sw	a6,0(sp)
80002e50:	00040613          	mv	a2,s0
80002e54:	01c12423          	sw	t3,8(sp)
80002e58:	00a00893          	li	a7,10
80002e5c:	00058813          	mv	a6,a1
80002e60:	00068793          	mv	a5,a3
80002e64:	af1ff06f          	j	80002954 <_vsnprintf+0x6a0>
80002e68:	020ef713          	and	a4,t4,32
80002e6c:	06100793          	li	a5,97
80002e70:	00070463          	beqz	a4,80002e78 <_vsnprintf+0xbc4>
80002e74:	04100793          	li	a5,65
80002e78:	0ff7f613          	zext.b	a2,a5
80002e7c:	00000c13          	li	s8,0
80002e80:	03010713          	add	a4,sp,48
80002e84:	ff660793          	add	a5,a2,-10
80002e88:	02812023          	sw	s0,32(sp)
80002e8c:	03712423          	sw	s7,40(sp)
80002e90:	03612623          	sw	s6,44(sp)
80002e94:	01112c23          	sw	a7,24(sp)
80002e98:	000c0b13          	mv	s6,s8
80002e9c:	01012e23          	sw	a6,28(sp)
80002ea0:	00090c13          	mv	s8,s2
80002ea4:	03d12223          	sw	t4,36(sp)
80002ea8:	00068413          	mv	s0,a3
80002eac:	00070b93          	mv	s7,a4
80002eb0:	00078913          	mv	s2,a5
80002eb4:	0440006f          	j	80002ef8 <_vsnprintf+0xc44>
80002eb8:	03050793          	add	a5,a0,48
80002ebc:	0ff7f793          	zext.b	a5,a5
80002ec0:	001b0b13          	add	s6,s6,1
80002ec4:	016b8833          	add	a6,s7,s6
80002ec8:	fef80fa3          	sb	a5,-1(a6)
80002ecc:	000d0613          	mv	a2,s10
80002ed0:	00000693          	li	a3,0
80002ed4:	00040513          	mv	a0,s0
80002ed8:	00048593          	mv	a1,s1
80002edc:	228000ef          	jal	80003104 <__udivdi3>
80002ee0:	00000793          	li	a5,0
80002ee4:	10978063          	beq	a5,s1,80002fe4 <_vsnprintf+0xd30>
80002ee8:	02000793          	li	a5,32
80002eec:	0efb0e63          	beq	s6,a5,80002fe8 <_vsnprintf+0xd34>
80002ef0:	00050413          	mv	s0,a0
80002ef4:	00058493          	mv	s1,a1
80002ef8:	000d0613          	mv	a2,s10
80002efc:	00000693          	li	a3,0
80002f00:	00040513          	mv	a0,s0
80002f04:	00048593          	mv	a1,s1
80002f08:	62c000ef          	jal	80003534 <__umoddi3>
80002f0c:	0ff57513          	zext.b	a0,a0
80002f10:	00900793          	li	a5,9
80002f14:	faa7f2e3          	bgeu	a5,a0,80002eb8 <_vsnprintf+0xc04>
80002f18:	012507b3          	add	a5,a0,s2
80002f1c:	0ff7f793          	zext.b	a5,a5
80002f20:	fa1ff06f          	j	80002ec0 <_vsnprintf+0xc0c>
80002f24:	080ef713          	and	a4,t4,128
80002f28:	0e070e63          	beqz	a4,80003024 <_vsnprintf+0xd70>
80002f2c:	000cd583          	lhu	a1,0(s9)
80002f30:	b19ff06f          	j	80002a48 <_vsnprintf+0x794>
80002f34:	000ca783          	lw	a5,0(s9)
80002f38:	00079863          	bnez	a5,80002f48 <_vsnprintf+0xc94>
80002f3c:	fefefe93          	and	t4,t4,-17
80002f40:	03010713          	add	a4,sp,48
80002f44:	06061463          	bnez	a2,80002fac <_vsnprintf+0xcf8>
80002f48:	020ef613          	and	a2,t4,32
80002f4c:	06100713          	li	a4,97
80002f50:	00060463          	beqz	a2,80002f58 <_vsnprintf+0xca4>
80002f54:	04100713          	li	a4,65
80002f58:	0ff77f13          	zext.b	t5,a4
80002f5c:	00900e13          	li	t3,9
80002f60:	03010713          	add	a4,sp,48
80002f64:	ff6f0f13          	add	t5,t5,-10
80002f68:	02000313          	li	t1,32
80002f6c:	0280006f          	j	80002f94 <_vsnprintf+0xce0>
80002f70:	03068693          	add	a3,a3,48
80002f74:	0ff6f693          	zext.b	a3,a3
80002f78:	00158593          	add	a1,a1,1
80002f7c:	00b70633          	add	a2,a4,a1
80002f80:	fed60fa3          	sb	a3,-1(a2)
80002f84:	03a7d6b3          	divu	a3,a5,s10
80002f88:	03a7e263          	bltu	a5,s10,80002fac <_vsnprintf+0xcf8>
80002f8c:	02658063          	beq	a1,t1,80002fac <_vsnprintf+0xcf8>
80002f90:	00068793          	mv	a5,a3
80002f94:	03a7f633          	remu	a2,a5,s10
80002f98:	0ff67693          	zext.b	a3,a2
80002f9c:	fcce7ae3          	bgeu	t3,a2,80002f70 <_vsnprintf+0xcbc>
80002fa0:	01e686b3          	add	a3,a3,t5
80002fa4:	0ff6f693          	zext.b	a3,a3
80002fa8:	fd1ff06f          	j	80002f78 <_vsnprintf+0xcc4>
80002fac:	01112223          	sw	a7,4(sp)
80002fb0:	01012023          	sw	a6,0(sp)
80002fb4:	00040613          	mv	a2,s0
80002fb8:	01d12423          	sw	t4,8(sp)
80002fbc:	000d0893          	mv	a7,s10
80002fc0:	00000813          	li	a6,0
80002fc4:	00058793          	mv	a5,a1
80002fc8:	98dff06f          	j	80002954 <_vsnprintf+0x6a0>
80002fcc:	ff36fe93          	and	t4,a3,-13
80002fd0:	00200d13          	li	s10,2
80002fd4:	a55ff06f          	j	80002a28 <_vsnprintf+0x774>
80002fd8:	03010713          	add	a4,sp,48
80002fdc:	e60516e3          	bnez	a0,80002e48 <_vsnprintf+0xb94>
80002fe0:	e31ff06f          	j	80002e10 <_vsnprintf+0xb5c>
80002fe4:	f1a472e3          	bgeu	s0,s10,80002ee8 <_vsnprintf+0xc34>
80002fe8:	000c0913          	mv	s2,s8
80002fec:	000b8713          	mv	a4,s7
80002ff0:	000b0c13          	mv	s8,s6
80002ff4:	01812883          	lw	a7,24(sp)
80002ff8:	01c12803          	lw	a6,28(sp)
80002ffc:	02012403          	lw	s0,32(sp)
80003000:	02412e83          	lw	t4,36(sp)
80003004:	02c12b03          	lw	s6,44(sp)
80003008:	02812b83          	lw	s7,40(sp)
8000300c:	d35ff06f          	j	80002d40 <_vsnprintf+0xa8c>
80003010:	000ca703          	lw	a4,0(s9)
80003014:	41f75613          	sra	a2,a4,0x1f
80003018:	00e646b3          	xor	a3,a2,a4
8000301c:	40c686b3          	sub	a3,a3,a2
80003020:	8d9ff06f          	j	800028f8 <_vsnprintf+0x644>
80003024:	000ca583          	lw	a1,0(s9)
80003028:	a21ff06f          	j	80002a48 <_vsnprintf+0x794>
8000302c:	00000793          	li	a5,0
80003030:	03010713          	add	a4,sp,48
80003034:	c49ff06f          	j	80002c7c <_vsnprintf+0x9c8>
80003038:	00148493          	add	s1,s1,1
8000303c:	b59ff06f          	j	80002b94 <_vsnprintf+0x8e0>
80003040:	0206e693          	or	a3,a3,32
80003044:	ff36fe93          	and	t4,a3,-13
80003048:	00000613          	li	a2,0
8000304c:	01000d13          	li	s10,16
80003050:	9d9ff06f          	j	80002a28 <_vsnprintf+0x774>
80003054:	06900793          	li	a5,105
80003058:	fef6fe13          	and	t3,a3,-17
8000305c:	00f51a63          	bne	a0,a5,80003070 <_vsnprintf+0xdbc>
80003060:	4006f513          	and	a0,a3,1024
80003064:	84050ce3          	beqz	a0,800028bc <_vsnprintf+0x608>
80003068:	fee6fe13          	and	t3,a3,-18
8000306c:	851ff06f          	j	800028bc <_vsnprintf+0x608>
80003070:	4006f613          	and	a2,a3,1024
80003074:	fe36fe93          	and	t4,a3,-29
80003078:	00a00d13          	li	s10,10
8000307c:	9a0606e3          	beqz	a2,80002a28 <_vsnprintf+0x774>
80003080:	ff2e7e93          	and	t4,t3,-14
80003084:	9a5ff06f          	j	80002a28 <_vsnprintf+0x774>

80003088 <tiny_vprintf>:
80003088:	fe010113          	add	sp,sp,-32
8000308c:	00050693          	mv	a3,a0
80003090:	00058713          	mv	a4,a1
80003094:	fff00613          	li	a2,-1
80003098:	00c10593          	add	a1,sp,12
8000309c:	ffffe517          	auipc	a0,0xffffe
800030a0:	51450513          	add	a0,a0,1300 # 800015b0 <_out_char>
800030a4:	00112e23          	sw	ra,28(sp)
800030a8:	a0cff0ef          	jal	800022b4 <_vsnprintf>
800030ac:	01c12083          	lw	ra,28(sp)
800030b0:	02010113          	add	sp,sp,32
800030b4:	00008067          	ret

800030b8 <__clzsi2>:
800030b8:	000107b7          	lui	a5,0x10
800030bc:	02f57a63          	bgeu	a0,a5,800030f0 <__clzsi2+0x38>
800030c0:	10053793          	sltiu	a5,a0,256
800030c4:	0017c793          	xor	a5,a5,1
800030c8:	00379793          	sll	a5,a5,0x3
800030cc:	02000713          	li	a4,32
800030d0:	40f70733          	sub	a4,a4,a5
800030d4:	00f55533          	srl	a0,a0,a5
800030d8:	00004797          	auipc	a5,0x4
800030dc:	f6478793          	add	a5,a5,-156 # 8000703c <__clz_tab>
800030e0:	00a787b3          	add	a5,a5,a0
800030e4:	0007c503          	lbu	a0,0(a5)
800030e8:	40a70533          	sub	a0,a4,a0
800030ec:	00008067          	ret
800030f0:	01000737          	lui	a4,0x1000
800030f4:	01000793          	li	a5,16
800030f8:	fce56ae3          	bltu	a0,a4,800030cc <__clzsi2+0x14>
800030fc:	01800793          	li	a5,24
80003100:	fcdff06f          	j	800030cc <__clzsi2+0x14>

80003104 <__udivdi3>:
80003104:	00050893          	mv	a7,a0
80003108:	00058313          	mv	t1,a1
8000310c:	00060713          	mv	a4,a2
80003110:	00050813          	mv	a6,a0
80003114:	00058793          	mv	a5,a1
80003118:	28069263          	bnez	a3,8000339c <__udivdi3+0x298>
8000311c:	00004597          	auipc	a1,0x4
80003120:	f2058593          	add	a1,a1,-224 # 8000703c <__clz_tab>
80003124:	0ec37663          	bgeu	t1,a2,80003210 <__udivdi3+0x10c>
80003128:	000106b7          	lui	a3,0x10
8000312c:	0cd67863          	bgeu	a2,a3,800031fc <__udivdi3+0xf8>
80003130:	10063693          	sltiu	a3,a2,256
80003134:	0016c693          	xor	a3,a3,1
80003138:	00369693          	sll	a3,a3,0x3
8000313c:	00d65533          	srl	a0,a2,a3
80003140:	00a585b3          	add	a1,a1,a0
80003144:	0005c583          	lbu	a1,0(a1)
80003148:	02000513          	li	a0,32
8000314c:	00d586b3          	add	a3,a1,a3
80003150:	40d505b3          	sub	a1,a0,a3
80003154:	00d50c63          	beq	a0,a3,8000316c <__udivdi3+0x68>
80003158:	00b317b3          	sll	a5,t1,a1
8000315c:	00d8d6b3          	srl	a3,a7,a3
80003160:	00b61733          	sll	a4,a2,a1
80003164:	00f6e7b3          	or	a5,a3,a5
80003168:	00b89833          	sll	a6,a7,a1
8000316c:	01075593          	srl	a1,a4,0x10
80003170:	02b7d333          	divu	t1,a5,a1
80003174:	01071613          	sll	a2,a4,0x10
80003178:	01065613          	srl	a2,a2,0x10
8000317c:	02b7f7b3          	remu	a5,a5,a1
80003180:	00030513          	mv	a0,t1
80003184:	026608b3          	mul	a7,a2,t1
80003188:	01079693          	sll	a3,a5,0x10
8000318c:	01085793          	srl	a5,a6,0x10
80003190:	00d7e7b3          	or	a5,a5,a3
80003194:	0117fe63          	bgeu	a5,a7,800031b0 <__udivdi3+0xac>
80003198:	00f707b3          	add	a5,a4,a5
8000319c:	fff30513          	add	a0,t1,-1
800031a0:	00e7e863          	bltu	a5,a4,800031b0 <__udivdi3+0xac>
800031a4:	0117f663          	bgeu	a5,a7,800031b0 <__udivdi3+0xac>
800031a8:	ffe30513          	add	a0,t1,-2
800031ac:	00e787b3          	add	a5,a5,a4
800031b0:	411787b3          	sub	a5,a5,a7
800031b4:	02b7d8b3          	divu	a7,a5,a1
800031b8:	01081813          	sll	a6,a6,0x10
800031bc:	01085813          	srl	a6,a6,0x10
800031c0:	02b7f7b3          	remu	a5,a5,a1
800031c4:	031606b3          	mul	a3,a2,a7
800031c8:	01079793          	sll	a5,a5,0x10
800031cc:	00f86833          	or	a6,a6,a5
800031d0:	00088793          	mv	a5,a7
800031d4:	00d87c63          	bgeu	a6,a3,800031ec <__udivdi3+0xe8>
800031d8:	01070833          	add	a6,a4,a6
800031dc:	fff88793          	add	a5,a7,-1
800031e0:	00e86663          	bltu	a6,a4,800031ec <__udivdi3+0xe8>
800031e4:	00d87463          	bgeu	a6,a3,800031ec <__udivdi3+0xe8>
800031e8:	ffe88793          	add	a5,a7,-2
800031ec:	01051513          	sll	a0,a0,0x10
800031f0:	00f56533          	or	a0,a0,a5
800031f4:	00000593          	li	a1,0
800031f8:	00008067          	ret
800031fc:	01000537          	lui	a0,0x1000
80003200:	01000693          	li	a3,16
80003204:	f2a66ce3          	bltu	a2,a0,8000313c <__udivdi3+0x38>
80003208:	01800693          	li	a3,24
8000320c:	f31ff06f          	j	8000313c <__udivdi3+0x38>
80003210:	00000693          	li	a3,0
80003214:	00060c63          	beqz	a2,8000322c <__udivdi3+0x128>
80003218:	000107b7          	lui	a5,0x10
8000321c:	0cf67063          	bgeu	a2,a5,800032dc <__udivdi3+0x1d8>
80003220:	10063693          	sltiu	a3,a2,256
80003224:	0016c693          	xor	a3,a3,1
80003228:	00369693          	sll	a3,a3,0x3
8000322c:	00d657b3          	srl	a5,a2,a3
80003230:	00f585b3          	add	a1,a1,a5
80003234:	0005c783          	lbu	a5,0(a1)
80003238:	00d787b3          	add	a5,a5,a3
8000323c:	02000693          	li	a3,32
80003240:	40f685b3          	sub	a1,a3,a5
80003244:	0af69663          	bne	a3,a5,800032f0 <__udivdi3+0x1ec>
80003248:	40c307b3          	sub	a5,t1,a2
8000324c:	00100593          	li	a1,1
80003250:	01075893          	srl	a7,a4,0x10
80003254:	0317de33          	divu	t3,a5,a7
80003258:	01071613          	sll	a2,a4,0x10
8000325c:	01065613          	srl	a2,a2,0x10
80003260:	01085693          	srl	a3,a6,0x10
80003264:	0317f7b3          	remu	a5,a5,a7
80003268:	000e0513          	mv	a0,t3
8000326c:	03c60333          	mul	t1,a2,t3
80003270:	01079793          	sll	a5,a5,0x10
80003274:	00f6e7b3          	or	a5,a3,a5
80003278:	0067fe63          	bgeu	a5,t1,80003294 <__udivdi3+0x190>
8000327c:	00f707b3          	add	a5,a4,a5
80003280:	fffe0513          	add	a0,t3,-1
80003284:	00e7e863          	bltu	a5,a4,80003294 <__udivdi3+0x190>
80003288:	0067f663          	bgeu	a5,t1,80003294 <__udivdi3+0x190>
8000328c:	ffee0513          	add	a0,t3,-2
80003290:	00e787b3          	add	a5,a5,a4
80003294:	406787b3          	sub	a5,a5,t1
80003298:	0317d333          	divu	t1,a5,a7
8000329c:	01081813          	sll	a6,a6,0x10
800032a0:	01085813          	srl	a6,a6,0x10
800032a4:	0317f7b3          	remu	a5,a5,a7
800032a8:	026606b3          	mul	a3,a2,t1
800032ac:	01079793          	sll	a5,a5,0x10
800032b0:	00f86833          	or	a6,a6,a5
800032b4:	00030793          	mv	a5,t1
800032b8:	00d87c63          	bgeu	a6,a3,800032d0 <__udivdi3+0x1cc>
800032bc:	01070833          	add	a6,a4,a6
800032c0:	fff30793          	add	a5,t1,-1
800032c4:	00e86663          	bltu	a6,a4,800032d0 <__udivdi3+0x1cc>
800032c8:	00d87463          	bgeu	a6,a3,800032d0 <__udivdi3+0x1cc>
800032cc:	ffe30793          	add	a5,t1,-2
800032d0:	01051513          	sll	a0,a0,0x10
800032d4:	00f56533          	or	a0,a0,a5
800032d8:	00008067          	ret
800032dc:	010007b7          	lui	a5,0x1000
800032e0:	01000693          	li	a3,16
800032e4:	f4f664e3          	bltu	a2,a5,8000322c <__udivdi3+0x128>
800032e8:	01800693          	li	a3,24
800032ec:	f41ff06f          	j	8000322c <__udivdi3+0x128>
800032f0:	00b61733          	sll	a4,a2,a1
800032f4:	00f356b3          	srl	a3,t1,a5
800032f8:	01075513          	srl	a0,a4,0x10
800032fc:	00b31333          	sll	t1,t1,a1
80003300:	00f8d7b3          	srl	a5,a7,a5
80003304:	0067e7b3          	or	a5,a5,t1
80003308:	02a6d333          	divu	t1,a3,a0
8000330c:	01071613          	sll	a2,a4,0x10
80003310:	01065613          	srl	a2,a2,0x10
80003314:	00b89833          	sll	a6,a7,a1
80003318:	02a6f6b3          	remu	a3,a3,a0
8000331c:	026608b3          	mul	a7,a2,t1
80003320:	01069593          	sll	a1,a3,0x10
80003324:	0107d693          	srl	a3,a5,0x10
80003328:	00b6e6b3          	or	a3,a3,a1
8000332c:	00030593          	mv	a1,t1
80003330:	0116fe63          	bgeu	a3,a7,8000334c <__udivdi3+0x248>
80003334:	00d706b3          	add	a3,a4,a3
80003338:	fff30593          	add	a1,t1,-1
8000333c:	00e6e863          	bltu	a3,a4,8000334c <__udivdi3+0x248>
80003340:	0116f663          	bgeu	a3,a7,8000334c <__udivdi3+0x248>
80003344:	ffe30593          	add	a1,t1,-2
80003348:	00e686b3          	add	a3,a3,a4
8000334c:	411686b3          	sub	a3,a3,a7
80003350:	02a6d8b3          	divu	a7,a3,a0
80003354:	01079793          	sll	a5,a5,0x10
80003358:	0107d793          	srl	a5,a5,0x10
8000335c:	02a6f6b3          	remu	a3,a3,a0
80003360:	03160633          	mul	a2,a2,a7
80003364:	01069693          	sll	a3,a3,0x10
80003368:	00d7e7b3          	or	a5,a5,a3
8000336c:	00088693          	mv	a3,a7
80003370:	00c7fe63          	bgeu	a5,a2,8000338c <__udivdi3+0x288>
80003374:	00f707b3          	add	a5,a4,a5
80003378:	fff88693          	add	a3,a7,-1
8000337c:	00e7e863          	bltu	a5,a4,8000338c <__udivdi3+0x288>
80003380:	00c7f663          	bgeu	a5,a2,8000338c <__udivdi3+0x288>
80003384:	ffe88693          	add	a3,a7,-2
80003388:	00e787b3          	add	a5,a5,a4
8000338c:	01059593          	sll	a1,a1,0x10
80003390:	40c787b3          	sub	a5,a5,a2
80003394:	00d5e5b3          	or	a1,a1,a3
80003398:	eb9ff06f          	j	80003250 <__udivdi3+0x14c>
8000339c:	18d5e663          	bltu	a1,a3,80003528 <__udivdi3+0x424>
800033a0:	000107b7          	lui	a5,0x10
800033a4:	04f6f463          	bgeu	a3,a5,800033ec <__udivdi3+0x2e8>
800033a8:	1006b713          	sltiu	a4,a3,256
800033ac:	00174713          	xor	a4,a4,1
800033b0:	00371713          	sll	a4,a4,0x3
800033b4:	00e6d5b3          	srl	a1,a3,a4
800033b8:	00004797          	auipc	a5,0x4
800033bc:	c8478793          	add	a5,a5,-892 # 8000703c <__clz_tab>
800033c0:	00b787b3          	add	a5,a5,a1
800033c4:	0007c783          	lbu	a5,0(a5)
800033c8:	00e787b3          	add	a5,a5,a4
800033cc:	02000713          	li	a4,32
800033d0:	40f705b3          	sub	a1,a4,a5
800033d4:	02f71663          	bne	a4,a5,80003400 <__udivdi3+0x2fc>
800033d8:	00100513          	li	a0,1
800033dc:	e066eee3          	bltu	a3,t1,800031f8 <__udivdi3+0xf4>
800033e0:	00c8b533          	sltu	a0,a7,a2
800033e4:	00154513          	xor	a0,a0,1
800033e8:	00008067          	ret
800033ec:	010007b7          	lui	a5,0x1000
800033f0:	01000713          	li	a4,16
800033f4:	fcf6e0e3          	bltu	a3,a5,800033b4 <__udivdi3+0x2b0>
800033f8:	01800713          	li	a4,24
800033fc:	fb9ff06f          	j	800033b4 <__udivdi3+0x2b0>
80003400:	00f65733          	srl	a4,a2,a5
80003404:	00b696b3          	sll	a3,a3,a1
80003408:	00d766b3          	or	a3,a4,a3
8000340c:	00f35733          	srl	a4,t1,a5
80003410:	00b31333          	sll	t1,t1,a1
80003414:	00f8d7b3          	srl	a5,a7,a5
80003418:	0067e7b3          	or	a5,a5,t1
8000341c:	0106d313          	srl	t1,a3,0x10
80003420:	02675eb3          	divu	t4,a4,t1
80003424:	01069813          	sll	a6,a3,0x10
80003428:	01085813          	srl	a6,a6,0x10
8000342c:	00b61633          	sll	a2,a2,a1
80003430:	02677733          	remu	a4,a4,t1
80003434:	03d80e33          	mul	t3,a6,t4
80003438:	01071513          	sll	a0,a4,0x10
8000343c:	0107d713          	srl	a4,a5,0x10
80003440:	00a76733          	or	a4,a4,a0
80003444:	000e8513          	mv	a0,t4
80003448:	01c77e63          	bgeu	a4,t3,80003464 <__udivdi3+0x360>
8000344c:	00e68733          	add	a4,a3,a4
80003450:	fffe8513          	add	a0,t4,-1
80003454:	00d76863          	bltu	a4,a3,80003464 <__udivdi3+0x360>
80003458:	01c77663          	bgeu	a4,t3,80003464 <__udivdi3+0x360>
8000345c:	ffee8513          	add	a0,t4,-2
80003460:	00d70733          	add	a4,a4,a3
80003464:	41c70733          	sub	a4,a4,t3
80003468:	02675e33          	divu	t3,a4,t1
8000346c:	01079793          	sll	a5,a5,0x10
80003470:	0107d793          	srl	a5,a5,0x10
80003474:	02677733          	remu	a4,a4,t1
80003478:	03c80833          	mul	a6,a6,t3
8000347c:	01071713          	sll	a4,a4,0x10
80003480:	00e7e7b3          	or	a5,a5,a4
80003484:	000e0713          	mv	a4,t3
80003488:	0107fe63          	bgeu	a5,a6,800034a4 <__udivdi3+0x3a0>
8000348c:	00f687b3          	add	a5,a3,a5
80003490:	fffe0713          	add	a4,t3,-1
80003494:	00d7e863          	bltu	a5,a3,800034a4 <__udivdi3+0x3a0>
80003498:	0107f663          	bgeu	a5,a6,800034a4 <__udivdi3+0x3a0>
8000349c:	ffee0713          	add	a4,t3,-2
800034a0:	00d787b3          	add	a5,a5,a3
800034a4:	01051513          	sll	a0,a0,0x10
800034a8:	00010e37          	lui	t3,0x10
800034ac:	00e56533          	or	a0,a0,a4
800034b0:	fffe0693          	add	a3,t3,-1 # ffff <__tcb_aligned_size+0xffbf>
800034b4:	00d57733          	and	a4,a0,a3
800034b8:	410787b3          	sub	a5,a5,a6
800034bc:	00d676b3          	and	a3,a2,a3
800034c0:	01055813          	srl	a6,a0,0x10
800034c4:	01065613          	srl	a2,a2,0x10
800034c8:	02d70333          	mul	t1,a4,a3
800034cc:	02d806b3          	mul	a3,a6,a3
800034d0:	02c70733          	mul	a4,a4,a2
800034d4:	02c80833          	mul	a6,a6,a2
800034d8:	00d70633          	add	a2,a4,a3
800034dc:	01035713          	srl	a4,t1,0x10
800034e0:	00c70733          	add	a4,a4,a2
800034e4:	00d77463          	bgeu	a4,a3,800034ec <__udivdi3+0x3e8>
800034e8:	01c80833          	add	a6,a6,t3
800034ec:	01075693          	srl	a3,a4,0x10
800034f0:	010686b3          	add	a3,a3,a6
800034f4:	02d7e663          	bltu	a5,a3,80003520 <__udivdi3+0x41c>
800034f8:	ced79ee3          	bne	a5,a3,800031f4 <__udivdi3+0xf0>
800034fc:	000107b7          	lui	a5,0x10
80003500:	fff78793          	add	a5,a5,-1 # ffff <__tcb_aligned_size+0xffbf>
80003504:	00f77733          	and	a4,a4,a5
80003508:	01071713          	sll	a4,a4,0x10
8000350c:	00f37333          	and	t1,t1,a5
80003510:	00b898b3          	sll	a7,a7,a1
80003514:	00670733          	add	a4,a4,t1
80003518:	00000593          	li	a1,0
8000351c:	cce8fee3          	bgeu	a7,a4,800031f8 <__udivdi3+0xf4>
80003520:	fff50513          	add	a0,a0,-1 # ffffff <__tcb_aligned_size+0xffffbf>
80003524:	cd1ff06f          	j	800031f4 <__udivdi3+0xf0>
80003528:	00000593          	li	a1,0
8000352c:	00000513          	li	a0,0
80003530:	00008067          	ret

80003534 <__umoddi3>:
80003534:	00060813          	mv	a6,a2
80003538:	00050793          	mv	a5,a0
8000353c:	00058713          	mv	a4,a1
80003540:	20069663          	bnez	a3,8000374c <__umoddi3+0x218>
80003544:	00004897          	auipc	a7,0x4
80003548:	af888893          	add	a7,a7,-1288 # 8000703c <__clz_tab>
8000354c:	0cc5fc63          	bgeu	a1,a2,80003624 <__umoddi3+0xf0>
80003550:	000106b7          	lui	a3,0x10
80003554:	0ad67e63          	bgeu	a2,a3,80003610 <__umoddi3+0xdc>
80003558:	10063693          	sltiu	a3,a2,256
8000355c:	0016c693          	xor	a3,a3,1
80003560:	00369693          	sll	a3,a3,0x3
80003564:	00d65333          	srl	t1,a2,a3
80003568:	006888b3          	add	a7,a7,t1
8000356c:	0008c883          	lbu	a7,0(a7)
80003570:	02000313          	li	t1,32
80003574:	00d886b3          	add	a3,a7,a3
80003578:	40d308b3          	sub	a7,t1,a3
8000357c:	00d30c63          	beq	t1,a3,80003594 <__umoddi3+0x60>
80003580:	01159733          	sll	a4,a1,a7
80003584:	00d556b3          	srl	a3,a0,a3
80003588:	01161833          	sll	a6,a2,a7
8000358c:	00e6e733          	or	a4,a3,a4
80003590:	011517b3          	sll	a5,a0,a7
80003594:	01085613          	srl	a2,a6,0x10
80003598:	02c756b3          	divu	a3,a4,a2
8000359c:	01081513          	sll	a0,a6,0x10
800035a0:	01055513          	srl	a0,a0,0x10
800035a4:	02c77733          	remu	a4,a4,a2
800035a8:	02a686b3          	mul	a3,a3,a0
800035ac:	01071593          	sll	a1,a4,0x10
800035b0:	0107d713          	srl	a4,a5,0x10
800035b4:	00b76733          	or	a4,a4,a1
800035b8:	00d77a63          	bgeu	a4,a3,800035cc <__umoddi3+0x98>
800035bc:	00e80733          	add	a4,a6,a4
800035c0:	01076663          	bltu	a4,a6,800035cc <__umoddi3+0x98>
800035c4:	00d77463          	bgeu	a4,a3,800035cc <__umoddi3+0x98>
800035c8:	01070733          	add	a4,a4,a6
800035cc:	40d70733          	sub	a4,a4,a3
800035d0:	02c756b3          	divu	a3,a4,a2
800035d4:	02c77733          	remu	a4,a4,a2
800035d8:	02a686b3          	mul	a3,a3,a0
800035dc:	01079793          	sll	a5,a5,0x10
800035e0:	01071713          	sll	a4,a4,0x10
800035e4:	0107d793          	srl	a5,a5,0x10
800035e8:	00e7e7b3          	or	a5,a5,a4
800035ec:	00d7fa63          	bgeu	a5,a3,80003600 <__umoddi3+0xcc>
800035f0:	00f807b3          	add	a5,a6,a5
800035f4:	0107e663          	bltu	a5,a6,80003600 <__umoddi3+0xcc>
800035f8:	00d7f463          	bgeu	a5,a3,80003600 <__umoddi3+0xcc>
800035fc:	010787b3          	add	a5,a5,a6
80003600:	40d787b3          	sub	a5,a5,a3
80003604:	0117d533          	srl	a0,a5,a7
80003608:	00000593          	li	a1,0
8000360c:	00008067          	ret
80003610:	01000337          	lui	t1,0x1000
80003614:	01000693          	li	a3,16
80003618:	f46666e3          	bltu	a2,t1,80003564 <__umoddi3+0x30>
8000361c:	01800693          	li	a3,24
80003620:	f45ff06f          	j	80003564 <__umoddi3+0x30>
80003624:	00000693          	li	a3,0
80003628:	00060c63          	beqz	a2,80003640 <__umoddi3+0x10c>
8000362c:	00010737          	lui	a4,0x10
80003630:	06e67e63          	bgeu	a2,a4,800036ac <__umoddi3+0x178>
80003634:	10063693          	sltiu	a3,a2,256
80003638:	0016c693          	xor	a3,a3,1
8000363c:	00369693          	sll	a3,a3,0x3
80003640:	00d65733          	srl	a4,a2,a3
80003644:	00e888b3          	add	a7,a7,a4
80003648:	0008c703          	lbu	a4,0(a7)
8000364c:	00d70733          	add	a4,a4,a3
80003650:	02000693          	li	a3,32
80003654:	40e688b3          	sub	a7,a3,a4
80003658:	06e69463          	bne	a3,a4,800036c0 <__umoddi3+0x18c>
8000365c:	40c58733          	sub	a4,a1,a2
80003660:	01085593          	srl	a1,a6,0x10
80003664:	02b75633          	divu	a2,a4,a1
80003668:	01081513          	sll	a0,a6,0x10
8000366c:	01055513          	srl	a0,a0,0x10
80003670:	0107d693          	srl	a3,a5,0x10
80003674:	02b77733          	remu	a4,a4,a1
80003678:	02a60633          	mul	a2,a2,a0
8000367c:	01071713          	sll	a4,a4,0x10
80003680:	00e6e733          	or	a4,a3,a4
80003684:	00c77a63          	bgeu	a4,a2,80003698 <__umoddi3+0x164>
80003688:	00e80733          	add	a4,a6,a4
8000368c:	01076663          	bltu	a4,a6,80003698 <__umoddi3+0x164>
80003690:	00c77463          	bgeu	a4,a2,80003698 <__umoddi3+0x164>
80003694:	01070733          	add	a4,a4,a6
80003698:	40c70733          	sub	a4,a4,a2
8000369c:	02b756b3          	divu	a3,a4,a1
800036a0:	02b77733          	remu	a4,a4,a1
800036a4:	02a686b3          	mul	a3,a3,a0
800036a8:	f35ff06f          	j	800035dc <__umoddi3+0xa8>
800036ac:	01000737          	lui	a4,0x1000
800036b0:	01000693          	li	a3,16
800036b4:	f8e666e3          	bltu	a2,a4,80003640 <__umoddi3+0x10c>
800036b8:	01800693          	li	a3,24
800036bc:	f85ff06f          	j	80003640 <__umoddi3+0x10c>
800036c0:	01161833          	sll	a6,a2,a7
800036c4:	00e5d6b3          	srl	a3,a1,a4
800036c8:	011517b3          	sll	a5,a0,a7
800036cc:	011595b3          	sll	a1,a1,a7
800036d0:	00e55733          	srl	a4,a0,a4
800036d4:	01085513          	srl	a0,a6,0x10
800036d8:	00b76733          	or	a4,a4,a1
800036dc:	02a6d5b3          	divu	a1,a3,a0
800036e0:	01081313          	sll	t1,a6,0x10
800036e4:	01035313          	srl	t1,t1,0x10
800036e8:	02a6f6b3          	remu	a3,a3,a0
800036ec:	026585b3          	mul	a1,a1,t1
800036f0:	01069613          	sll	a2,a3,0x10
800036f4:	01075693          	srl	a3,a4,0x10
800036f8:	00c6e6b3          	or	a3,a3,a2
800036fc:	00b6fa63          	bgeu	a3,a1,80003710 <__umoddi3+0x1dc>
80003700:	00d806b3          	add	a3,a6,a3
80003704:	0106e663          	bltu	a3,a6,80003710 <__umoddi3+0x1dc>
80003708:	00b6f463          	bgeu	a3,a1,80003710 <__umoddi3+0x1dc>
8000370c:	010686b3          	add	a3,a3,a6
80003710:	40b686b3          	sub	a3,a3,a1
80003714:	02a6d633          	divu	a2,a3,a0
80003718:	01071713          	sll	a4,a4,0x10
8000371c:	01075713          	srl	a4,a4,0x10
80003720:	02a6f6b3          	remu	a3,a3,a0
80003724:	02660633          	mul	a2,a2,t1
80003728:	01069693          	sll	a3,a3,0x10
8000372c:	00d76733          	or	a4,a4,a3
80003730:	00c77a63          	bgeu	a4,a2,80003744 <__umoddi3+0x210>
80003734:	00e80733          	add	a4,a6,a4
80003738:	01076663          	bltu	a4,a6,80003744 <__umoddi3+0x210>
8000373c:	00c77463          	bgeu	a4,a2,80003744 <__umoddi3+0x210>
80003740:	01070733          	add	a4,a4,a6
80003744:	40c70733          	sub	a4,a4,a2
80003748:	f19ff06f          	j	80003660 <__umoddi3+0x12c>
8000374c:	1cd5e463          	bltu	a1,a3,80003914 <__umoddi3+0x3e0>
80003750:	00010837          	lui	a6,0x10
80003754:	0506fe63          	bgeu	a3,a6,800037b0 <__umoddi3+0x27c>
80003758:	1006b813          	sltiu	a6,a3,256
8000375c:	00184813          	xor	a6,a6,1
80003760:	00381813          	sll	a6,a6,0x3
80003764:	0106d333          	srl	t1,a3,a6
80003768:	00004897          	auipc	a7,0x4
8000376c:	8d488893          	add	a7,a7,-1836 # 8000703c <__clz_tab>
80003770:	006888b3          	add	a7,a7,t1
80003774:	0008c883          	lbu	a7,0(a7)
80003778:	02000313          	li	t1,32
8000377c:	010888b3          	add	a7,a7,a6
80003780:	41130833          	sub	a6,t1,a7
80003784:	05131063          	bne	t1,a7,800037c4 <__umoddi3+0x290>
80003788:	00b6e463          	bltu	a3,a1,80003790 <__umoddi3+0x25c>
8000378c:	00c56c63          	bltu	a0,a2,800037a4 <__umoddi3+0x270>
80003790:	40c50633          	sub	a2,a0,a2
80003794:	40d586b3          	sub	a3,a1,a3
80003798:	00c53733          	sltu	a4,a0,a2
8000379c:	00060793          	mv	a5,a2
800037a0:	40e68733          	sub	a4,a3,a4
800037a4:	00078513          	mv	a0,a5
800037a8:	00070593          	mv	a1,a4
800037ac:	00008067          	ret
800037b0:	010008b7          	lui	a7,0x1000
800037b4:	01000813          	li	a6,16
800037b8:	fb16e6e3          	bltu	a3,a7,80003764 <__umoddi3+0x230>
800037bc:	01800813          	li	a6,24
800037c0:	fa5ff06f          	j	80003764 <__umoddi3+0x230>
800037c4:	011657b3          	srl	a5,a2,a7
800037c8:	010696b3          	sll	a3,a3,a6
800037cc:	00d7e6b3          	or	a3,a5,a3
800037d0:	0115d733          	srl	a4,a1,a7
800037d4:	0106de13          	srl	t3,a3,0x10
800037d8:	03c75f33          	divu	t5,a4,t3
800037dc:	01069313          	sll	t1,a3,0x10
800037e0:	01035313          	srl	t1,t1,0x10
800037e4:	010597b3          	sll	a5,a1,a6
800037e8:	011555b3          	srl	a1,a0,a7
800037ec:	00f5e5b3          	or	a1,a1,a5
800037f0:	0105d793          	srl	a5,a1,0x10
800037f4:	01061633          	sll	a2,a2,a6
800037f8:	01051533          	sll	a0,a0,a6
800037fc:	03c77733          	remu	a4,a4,t3
80003800:	03e30eb3          	mul	t4,t1,t5
80003804:	01071713          	sll	a4,a4,0x10
80003808:	00e7e7b3          	or	a5,a5,a4
8000380c:	000f0713          	mv	a4,t5
80003810:	01d7fe63          	bgeu	a5,t4,8000382c <__umoddi3+0x2f8>
80003814:	00f687b3          	add	a5,a3,a5
80003818:	ffff0713          	add	a4,t5,-1
8000381c:	00d7e863          	bltu	a5,a3,8000382c <__umoddi3+0x2f8>
80003820:	01d7f663          	bgeu	a5,t4,8000382c <__umoddi3+0x2f8>
80003824:	ffef0713          	add	a4,t5,-2
80003828:	00d787b3          	add	a5,a5,a3
8000382c:	41d787b3          	sub	a5,a5,t4
80003830:	03c7deb3          	divu	t4,a5,t3
80003834:	01059593          	sll	a1,a1,0x10
80003838:	0105d593          	srl	a1,a1,0x10
8000383c:	03c7f7b3          	remu	a5,a5,t3
80003840:	000e8e13          	mv	t3,t4
80003844:	03d30333          	mul	t1,t1,t4
80003848:	01079793          	sll	a5,a5,0x10
8000384c:	00f5e5b3          	or	a1,a1,a5
80003850:	0065fe63          	bgeu	a1,t1,8000386c <__umoddi3+0x338>
80003854:	00b685b3          	add	a1,a3,a1
80003858:	fffe8e13          	add	t3,t4,-1
8000385c:	00d5e863          	bltu	a1,a3,8000386c <__umoddi3+0x338>
80003860:	0065f663          	bgeu	a1,t1,8000386c <__umoddi3+0x338>
80003864:	ffee8e13          	add	t3,t4,-2
80003868:	00d585b3          	add	a1,a1,a3
8000386c:	01071793          	sll	a5,a4,0x10
80003870:	00010f37          	lui	t5,0x10
80003874:	01c7e7b3          	or	a5,a5,t3
80003878:	406585b3          	sub	a1,a1,t1
8000387c:	ffff0313          	add	t1,t5,-1 # ffff <__tcb_aligned_size+0xffbf>
80003880:	0067f733          	and	a4,a5,t1
80003884:	01065e13          	srl	t3,a2,0x10
80003888:	0107d793          	srl	a5,a5,0x10
8000388c:	00667333          	and	t1,a2,t1
80003890:	02670eb3          	mul	t4,a4,t1
80003894:	02678333          	mul	t1,a5,t1
80003898:	03c70733          	mul	a4,a4,t3
8000389c:	03c787b3          	mul	a5,a5,t3
800038a0:	00670e33          	add	t3,a4,t1
800038a4:	010ed713          	srl	a4,t4,0x10
800038a8:	01c70733          	add	a4,a4,t3
800038ac:	00677463          	bgeu	a4,t1,800038b4 <__umoddi3+0x380>
800038b0:	01e787b3          	add	a5,a5,t5
800038b4:	01075313          	srl	t1,a4,0x10
800038b8:	00f307b3          	add	a5,t1,a5
800038bc:	00010337          	lui	t1,0x10
800038c0:	fff30313          	add	t1,t1,-1 # ffff <__tcb_aligned_size+0xffbf>
800038c4:	00677733          	and	a4,a4,t1
800038c8:	01071713          	sll	a4,a4,0x10
800038cc:	006efeb3          	and	t4,t4,t1
800038d0:	01d70733          	add	a4,a4,t4
800038d4:	00f5e663          	bltu	a1,a5,800038e0 <__umoddi3+0x3ac>
800038d8:	00f59e63          	bne	a1,a5,800038f4 <__umoddi3+0x3c0>
800038dc:	00e57c63          	bgeu	a0,a4,800038f4 <__umoddi3+0x3c0>
800038e0:	40c70633          	sub	a2,a4,a2
800038e4:	00c73333          	sltu	t1,a4,a2
800038e8:	00d306b3          	add	a3,t1,a3
800038ec:	00060713          	mv	a4,a2
800038f0:	40d787b3          	sub	a5,a5,a3
800038f4:	40e50733          	sub	a4,a0,a4
800038f8:	00e53533          	sltu	a0,a0,a4
800038fc:	40f585b3          	sub	a1,a1,a5
80003900:	40a585b3          	sub	a1,a1,a0
80003904:	011598b3          	sll	a7,a1,a7
80003908:	01075733          	srl	a4,a4,a6
8000390c:	00e8e533          	or	a0,a7,a4
80003910:	0105d5b3          	srl	a1,a1,a6
80003914:	00008067          	ret

80003918 <__adddf3>:
80003918:	fe010113          	add	sp,sp,-32
8000391c:	00112e23          	sw	ra,28(sp)
80003920:	00812c23          	sw	s0,24(sp)
80003924:	00912a23          	sw	s1,20(sp)
80003928:	01212823          	sw	s2,16(sp)
8000392c:	01312623          	sw	s3,12(sp)
80003930:	01412423          	sw	s4,8(sp)
80003934:	002029f3          	frrm	s3
80003938:	001007b7          	lui	a5,0x100
8000393c:	fff78793          	add	a5,a5,-1 # fffff <__tcb_aligned_size+0xfffbf>
80003940:	00b7f733          	and	a4,a5,a1
80003944:	0145d413          	srl	s0,a1,0x14
80003948:	00371713          	sll	a4,a4,0x3
8000394c:	01d55813          	srl	a6,a0,0x1d
80003950:	00d7f7b3          	and	a5,a5,a3
80003954:	0146d893          	srl	a7,a3,0x14
80003958:	7ff47413          	and	s0,s0,2047
8000395c:	01f5d493          	srl	s1,a1,0x1f
80003960:	00e86833          	or	a6,a6,a4
80003964:	7ff8f893          	and	a7,a7,2047
80003968:	01d65713          	srl	a4,a2,0x1d
8000396c:	00379793          	sll	a5,a5,0x3
80003970:	01f6d693          	srl	a3,a3,0x1f
80003974:	00351513          	sll	a0,a0,0x3
80003978:	00f76733          	or	a4,a4,a5
8000397c:	00361613          	sll	a2,a2,0x3
80003980:	411405b3          	sub	a1,s0,a7
80003984:	4ad49e63          	bne	s1,a3,80003e40 <__adddf3+0x528>
80003988:	00058693          	mv	a3,a1
8000398c:	1ab05063          	blez	a1,80003b2c <__adddf3+0x214>
80003990:	0a089a63          	bnez	a7,80003a44 <__adddf3+0x12c>
80003994:	00c767b3          	or	a5,a4,a2
80003998:	02079063          	bnez	a5,800039b8 <__adddf3+0xa0>
8000399c:	7ff00793          	li	a5,2047
800039a0:	08f58063          	beq	a1,a5,80003a20 <__adddf3+0x108>
800039a4:	00080713          	mv	a4,a6
800039a8:	00050613          	mv	a2,a0
800039ac:	00000793          	li	a5,0
800039b0:	00058893          	mv	a7,a1
800039b4:	02c0006f          	j	800039e0 <__adddf3+0xc8>
800039b8:	fff58793          	add	a5,a1,-1
800039bc:	04079e63          	bnez	a5,80003a18 <__adddf3+0x100>
800039c0:	00c50633          	add	a2,a0,a2
800039c4:	00e80733          	add	a4,a6,a4
800039c8:	00a63533          	sltu	a0,a2,a0
800039cc:	00a70733          	add	a4,a4,a0
800039d0:	008006b7          	lui	a3,0x800
800039d4:	00d776b3          	and	a3,a4,a3
800039d8:	42069063          	bnez	a3,80003df8 <__adddf3+0x4e0>
800039dc:	00100893          	li	a7,1
800039e0:	00767693          	and	a3,a2,7
800039e4:	00070813          	mv	a6,a4
800039e8:	00060513          	mv	a0,a2
800039ec:	20068ce3          	beqz	a3,80004404 <__adddf3+0xaec>
800039f0:	00000693          	li	a3,0
800039f4:	00200713          	li	a4,2
800039f8:	0017e793          	or	a5,a5,1
800039fc:	3ae99663          	bne	s3,a4,80003da8 <__adddf3+0x490>
80003a00:	3c048863          	beqz	s1,80003dd0 <__adddf3+0x4b8>
80003a04:	00850713          	add	a4,a0,8
80003a08:	00a73633          	sltu	a2,a4,a0
80003a0c:	00c80833          	add	a6,a6,a2
80003a10:	00070513          	mv	a0,a4
80003a14:	2bd0006f          	j	800044d0 <__adddf3+0xbb8>
80003a18:	7ff00693          	li	a3,2047
80003a1c:	0cd59463          	bne	a1,a3,80003ae4 <__adddf3+0x1cc>
80003a20:	00a865b3          	or	a1,a6,a0
80003a24:	320588e3          	beqz	a1,80004554 <__adddf3+0xc3c>
80003a28:	01685793          	srl	a5,a6,0x16
80003a2c:	0017c793          	xor	a5,a5,1
80003a30:	0017f793          	and	a5,a5,1
80003a34:	00479793          	sll	a5,a5,0x4
80003a38:	00080713          	mv	a4,a6
80003a3c:	00050613          	mv	a2,a0
80003a40:	1240006f          	j	80003b64 <__adddf3+0x24c>
80003a44:	7ff00793          	li	a5,2047
80003a48:	00f41c63          	bne	s0,a5,80003a60 <__adddf3+0x148>
80003a4c:	00a865b3          	or	a1,a6,a0
80003a50:	fc059ce3          	bnez	a1,80003a28 <__adddf3+0x110>
80003a54:	00000813          	li	a6,0
80003a58:	7ff00893          	li	a7,2047
80003a5c:	64c0006f          	j	800040a8 <__adddf3+0x790>
80003a60:	03800793          	li	a5,56
80003a64:	08b7c463          	blt	a5,a1,80003aec <__adddf3+0x1d4>
80003a68:	008007b7          	lui	a5,0x800
80003a6c:	00f76733          	or	a4,a4,a5
80003a70:	00058793          	mv	a5,a1
80003a74:	01f00693          	li	a3,31
80003a78:	08f6c063          	blt	a3,a5,80003af8 <__adddf3+0x1e0>
80003a7c:	02000593          	li	a1,32
80003a80:	40f585b3          	sub	a1,a1,a5
80003a84:	00b716b3          	sll	a3,a4,a1
80003a88:	00f658b3          	srl	a7,a2,a5
80003a8c:	00b615b3          	sll	a1,a2,a1
80003a90:	0116e6b3          	or	a3,a3,a7
80003a94:	00b035b3          	snez	a1,a1
80003a98:	00b6e6b3          	or	a3,a3,a1
80003a9c:	00f757b3          	srl	a5,a4,a5
80003aa0:	00a68633          	add	a2,a3,a0
80003aa4:	010787b3          	add	a5,a5,a6
80003aa8:	00d636b3          	sltu	a3,a2,a3
80003aac:	00d78733          	add	a4,a5,a3
80003ab0:	00040893          	mv	a7,s0
80003ab4:	008007b7          	lui	a5,0x800
80003ab8:	00f777b3          	and	a5,a4,a5
80003abc:	2c078263          	beqz	a5,80003d80 <__adddf3+0x468>
80003ac0:	00188893          	add	a7,a7,1 # 1000001 <__tcb_aligned_size+0xffffc1>
80003ac4:	7ff00793          	li	a5,2047
80003ac8:	32f89a63          	bne	a7,a5,80003dfc <__adddf3+0x4e4>
80003acc:	36098263          	beqz	s3,80003e30 <__adddf3+0x518>
80003ad0:	00300793          	li	a5,3
80003ad4:	34f99863          	bne	s3,a5,80003e24 <__adddf3+0x50c>
80003ad8:	34048c63          	beqz	s1,80003e30 <__adddf3+0x518>
80003adc:	00000693          	li	a3,0
80003ae0:	2b80006f          	j	80003d98 <__adddf3+0x480>
80003ae4:	03800693          	li	a3,56
80003ae8:	f8f6d6e3          	bge	a3,a5,80003a74 <__adddf3+0x15c>
80003aec:	00000793          	li	a5,0
80003af0:	00100693          	li	a3,1
80003af4:	fadff06f          	j	80003aa0 <__adddf3+0x188>
80003af8:	fe078693          	add	a3,a5,-32 # 7fffe0 <__tcb_aligned_size+0x7fffa0>
80003afc:	02000893          	li	a7,32
80003b00:	00d756b3          	srl	a3,a4,a3
80003b04:	00000593          	li	a1,0
80003b08:	01178863          	beq	a5,a7,80003b18 <__adddf3+0x200>
80003b0c:	04000593          	li	a1,64
80003b10:	40f585b3          	sub	a1,a1,a5
80003b14:	00b715b3          	sll	a1,a4,a1
80003b18:	00c5e5b3          	or	a1,a1,a2
80003b1c:	00b035b3          	snez	a1,a1
80003b20:	00b6e6b3          	or	a3,a3,a1
80003b24:	00000793          	li	a5,0
80003b28:	f79ff06f          	j	80003aa0 <__adddf3+0x188>
80003b2c:	10058263          	beqz	a1,80003c30 <__adddf3+0x318>
80003b30:	408886b3          	sub	a3,a7,s0
80003b34:	04041e63          	bnez	s0,80003b90 <__adddf3+0x278>
80003b38:	00a867b3          	or	a5,a6,a0
80003b3c:	02079863          	bnez	a5,80003b6c <__adddf3+0x254>
80003b40:	7ff00793          	li	a5,2047
80003b44:	00068893          	mv	a7,a3
80003b48:	22f69c63          	bne	a3,a5,80003d80 <__adddf3+0x468>
80003b4c:	00c765b3          	or	a1,a4,a2
80003b50:	20058ae3          	beqz	a1,80004564 <__adddf3+0xc4c>
80003b54:	01675793          	srl	a5,a4,0x16
80003b58:	0017c793          	xor	a5,a5,1
80003b5c:	0017f793          	and	a5,a5,1
80003b60:	00479793          	sll	a5,a5,0x4
80003b64:	7ff00893          	li	a7,2047
80003b68:	e79ff06f          	j	800039e0 <__adddf3+0xc8>
80003b6c:	fff68793          	add	a5,a3,-1 # 7fffff <__tcb_aligned_size+0x7fffbf>
80003b70:	e40788e3          	beqz	a5,800039c0 <__adddf3+0xa8>
80003b74:	7ff00593          	li	a1,2047
80003b78:	fcb68ae3          	beq	a3,a1,80003b4c <__adddf3+0x234>
80003b7c:	03800693          	li	a3,56
80003b80:	02f6de63          	bge	a3,a5,80003bbc <__adddf3+0x2a4>
80003b84:	00000793          	li	a5,0
80003b88:	00100693          	li	a3,1
80003b8c:	05c0006f          	j	80003be8 <__adddf3+0x2d0>
80003b90:	7ff00793          	li	a5,2047
80003b94:	00f89a63          	bne	a7,a5,80003ba8 <__adddf3+0x290>
80003b98:	00c765b3          	or	a1,a4,a2
80003b9c:	12059c63          	bnez	a1,80003cd4 <__adddf3+0x3bc>
80003ba0:	00000813          	li	a6,0
80003ba4:	5040006f          	j	800040a8 <__adddf3+0x790>
80003ba8:	03800793          	li	a5,56
80003bac:	fcd7cce3          	blt	a5,a3,80003b84 <__adddf3+0x26c>
80003bb0:	008007b7          	lui	a5,0x800
80003bb4:	00f86833          	or	a6,a6,a5
80003bb8:	00068793          	mv	a5,a3
80003bbc:	01f00693          	li	a3,31
80003bc0:	02f6ce63          	blt	a3,a5,80003bfc <__adddf3+0x2e4>
80003bc4:	02000593          	li	a1,32
80003bc8:	40f585b3          	sub	a1,a1,a5
80003bcc:	00b816b3          	sll	a3,a6,a1
80003bd0:	00f55333          	srl	t1,a0,a5
80003bd4:	00b515b3          	sll	a1,a0,a1
80003bd8:	0066e6b3          	or	a3,a3,t1
80003bdc:	00b035b3          	snez	a1,a1
80003be0:	00b6e6b3          	or	a3,a3,a1
80003be4:	00f857b3          	srl	a5,a6,a5
80003be8:	00c68633          	add	a2,a3,a2
80003bec:	00e787b3          	add	a5,a5,a4
80003bf0:	00d636b3          	sltu	a3,a2,a3
80003bf4:	00d78733          	add	a4,a5,a3
80003bf8:	ebdff06f          	j	80003ab4 <__adddf3+0x19c>
80003bfc:	fe078693          	add	a3,a5,-32 # 7fffe0 <__tcb_aligned_size+0x7fffa0>
80003c00:	02000313          	li	t1,32
80003c04:	00d856b3          	srl	a3,a6,a3
80003c08:	00000593          	li	a1,0
80003c0c:	00678863          	beq	a5,t1,80003c1c <__adddf3+0x304>
80003c10:	04000593          	li	a1,64
80003c14:	40f585b3          	sub	a1,a1,a5
80003c18:	00b815b3          	sll	a1,a6,a1
80003c1c:	00a5e5b3          	or	a1,a1,a0
80003c20:	00b035b3          	snez	a1,a1
80003c24:	00b6e6b3          	or	a3,a3,a1
80003c28:	00000793          	li	a5,0
80003c2c:	fbdff06f          	j	80003be8 <__adddf3+0x2d0>
80003c30:	00140593          	add	a1,s0,1
80003c34:	7fe5f793          	and	a5,a1,2046
80003c38:	10079e63          	bnez	a5,80003d54 <__adddf3+0x43c>
80003c3c:	00a865b3          	or	a1,a6,a0
80003c40:	04041063          	bnez	s0,80003c80 <__adddf3+0x368>
80003c44:	6e058263          	beqz	a1,80004328 <__adddf3+0xa10>
80003c48:	00c766b3          	or	a3,a4,a2
80003c4c:	5e068a63          	beqz	a3,80004240 <__adddf3+0x928>
80003c50:	00c50633          	add	a2,a0,a2
80003c54:	00a636b3          	sltu	a3,a2,a0
80003c58:	00e80733          	add	a4,a6,a4
80003c5c:	00d70833          	add	a6,a4,a3
80003c60:	00800737          	lui	a4,0x800
80003c64:	00e87733          	and	a4,a6,a4
80003c68:	00060513          	mv	a0,a2
80003c6c:	5c070a63          	beqz	a4,80004240 <__adddf3+0x928>
80003c70:	ff800737          	lui	a4,0xff800
80003c74:	fff70713          	add	a4,a4,-1 # ff7fffff <__BSS_END__+0x7f7f683f>
80003c78:	00e87733          	and	a4,a6,a4
80003c7c:	d61ff06f          	j	800039dc <__adddf3+0xc4>
80003c80:	7ff00693          	li	a3,2047
80003c84:	02d41a63          	bne	s0,a3,80003cb8 <__adddf3+0x3a0>
80003c88:	00059663          	bnez	a1,80003c94 <__adddf3+0x37c>
80003c8c:	ec889ce3          	bne	a7,s0,80003b64 <__adddf3+0x24c>
80003c90:	f09ff06f          	j	80003b98 <__adddf3+0x280>
80003c94:	004006b7          	lui	a3,0x400
80003c98:	00d876b3          	and	a3,a6,a3
80003c9c:	00c76333          	or	t1,a4,a2
80003ca0:	0e0680e3          	beqz	a3,80004580 <__adddf3+0xc68>
80003ca4:	08889863          	bne	a7,s0,80003d34 <__adddf3+0x41c>
80003ca8:	04031063          	bnez	t1,80003ce8 <__adddf3+0x3d0>
80003cac:	00080713          	mv	a4,a6
80003cb0:	00050613          	mv	a2,a0
80003cb4:	d2dff06f          	j	800039e0 <__adddf3+0xc8>
80003cb8:	00000413          	li	s0,0
80003cbc:	06d89663          	bne	a7,a3,80003d28 <__adddf3+0x410>
80003cc0:	00c766b3          	or	a3,a4,a2
80003cc4:	02069e63          	bnez	a3,80003d00 <__adddf3+0x3e8>
80003cc8:	fe0592e3          	bnez	a1,80003cac <__adddf3+0x394>
80003ccc:	00000813          	li	a6,0
80003cd0:	0310006f          	j	80004500 <__adddf3+0xbe8>
80003cd4:	01675793          	srl	a5,a4,0x16
80003cd8:	0017c793          	xor	a5,a5,1
80003cdc:	0017f793          	and	a5,a5,1
80003ce0:	00479793          	sll	a5,a5,0x4
80003ce4:	cfdff06f          	j	800039e0 <__adddf3+0xc8>
80003ce8:	004007b7          	lui	a5,0x400
80003cec:	00f777b3          	and	a5,a4,a5
80003cf0:	04078e63          	beqz	a5,80003d4c <__adddf3+0x434>
80003cf4:	00000413          	li	s0,0
80003cf8:	0180006f          	j	80003d10 <__adddf3+0x3f8>
80003cfc:	01000413          	li	s0,16
80003d00:	004007b7          	lui	a5,0x400
80003d04:	00f777b3          	and	a5,a4,a5
80003d08:	00078e63          	beqz	a5,80003d24 <__adddf3+0x40c>
80003d0c:	02058063          	beqz	a1,80003d2c <__adddf3+0x414>
80003d10:	00000493          	li	s1,0
80003d14:	00400837          	lui	a6,0x400
80003d18:	00000593          	li	a1,0
80003d1c:	7ff00893          	li	a7,2047
80003d20:	7e00006f          	j	80004500 <__adddf3+0xbe8>
80003d24:	01000413          	li	s0,16
80003d28:	00059863          	bnez	a1,80003d38 <__adddf3+0x420>
80003d2c:	00040793          	mv	a5,s0
80003d30:	e35ff06f          	j	80003b64 <__adddf3+0x24c>
80003d34:	00000413          	li	s0,0
80003d38:	00c76733          	or	a4,a4,a2
80003d3c:	fc071ae3          	bnez	a4,80003d10 <__adddf3+0x3f8>
80003d40:	00080713          	mv	a4,a6
80003d44:	00050613          	mv	a2,a0
80003d48:	fe5ff06f          	j	80003d2c <__adddf3+0x414>
80003d4c:	01000413          	li	s0,16
80003d50:	fe9ff06f          	j	80003d38 <__adddf3+0x420>
80003d54:	7ff00793          	li	a5,2047
80003d58:	02f58863          	beq	a1,a5,80003d88 <__adddf3+0x470>
80003d5c:	00c50633          	add	a2,a0,a2
80003d60:	00a63533          	sltu	a0,a2,a0
80003d64:	00e80733          	add	a4,a6,a4
80003d68:	00a70733          	add	a4,a4,a0
80003d6c:	01f71793          	sll	a5,a4,0x1f
80003d70:	00165613          	srl	a2,a2,0x1
80003d74:	00c7e633          	or	a2,a5,a2
80003d78:	00175713          	srl	a4,a4,0x1
80003d7c:	00058893          	mv	a7,a1
80003d80:	00000793          	li	a5,0
80003d84:	c5dff06f          	j	800039e0 <__adddf3+0xc8>
80003d88:	7c098263          	beqz	s3,8000454c <__adddf3+0xc34>
80003d8c:	00300793          	li	a5,3
80003d90:	04f99463          	bne	s3,a5,80003dd8 <__adddf3+0x4c0>
80003d94:	7a048c63          	beqz	s1,8000454c <__adddf3+0xc34>
80003d98:	fff00813          	li	a6,-1
80003d9c:	fff00513          	li	a0,-1
80003da0:	7fe00893          	li	a7,2046
80003da4:	00500793          	li	a5,5
80003da8:	00300713          	li	a4,3
80003dac:	72e98063          	beq	s3,a4,800044cc <__adddf3+0xbb4>
80003db0:	02099063          	bnez	s3,80003dd0 <__adddf3+0x4b8>
80003db4:	00f57713          	and	a4,a0,15
80003db8:	00400613          	li	a2,4
80003dbc:	00c70a63          	beq	a4,a2,80003dd0 <__adddf3+0x4b8>
80003dc0:	00450713          	add	a4,a0,4
80003dc4:	00a73633          	sltu	a2,a4,a0
80003dc8:	00c80833          	add	a6,a6,a2
80003dcc:	00070513          	mv	a0,a4
80003dd0:	58069663          	bnez	a3,8000435c <__adddf3+0xa44>
80003dd4:	6300006f          	j	80004404 <__adddf3+0xaec>
80003dd8:	00200793          	li	a5,2
80003ddc:	00f99463          	bne	s3,a5,80003de4 <__adddf3+0x4cc>
80003de0:	76049663          	bnez	s1,8000454c <__adddf3+0xc34>
80003de4:	fff00813          	li	a6,-1
80003de8:	fff00513          	li	a0,-1
80003dec:	7fe00893          	li	a7,2046
80003df0:	00500793          	li	a5,5
80003df4:	6100006f          	j	80004404 <__adddf3+0xaec>
80003df8:	00200893          	li	a7,2
80003dfc:	ff8007b7          	lui	a5,0xff800
80003e00:	fff78793          	add	a5,a5,-1 # ff7fffff <__BSS_END__+0x7f7f683f>
80003e04:	00f777b3          	and	a5,a4,a5
80003e08:	00165713          	srl	a4,a2,0x1
80003e0c:	00167613          	and	a2,a2,1
80003e10:	00c76733          	or	a4,a4,a2
80003e14:	01f79613          	sll	a2,a5,0x1f
80003e18:	00e66633          	or	a2,a2,a4
80003e1c:	0017d713          	srl	a4,a5,0x1
80003e20:	f61ff06f          	j	80003d80 <__adddf3+0x468>
80003e24:	00200793          	li	a5,2
80003e28:	faf99ee3          	bne	s3,a5,80003de4 <__adddf3+0x4cc>
80003e2c:	fa048ce3          	beqz	s1,80003de4 <__adddf3+0x4cc>
80003e30:	00000813          	li	a6,0
80003e34:	00000593          	li	a1,0
80003e38:	00500413          	li	s0,5
80003e3c:	6c40006f          	j	80004500 <__adddf3+0xbe8>
80003e40:	10b05063          	blez	a1,80003f40 <__adddf3+0x628>
80003e44:	04089463          	bnez	a7,80003e8c <__adddf3+0x574>
80003e48:	00c767b3          	or	a5,a4,a2
80003e4c:	b40788e3          	beqz	a5,8000399c <__adddf3+0x84>
80003e50:	fff58793          	add	a5,a1,-1
80003e54:	00079e63          	bnez	a5,80003e70 <__adddf3+0x558>
80003e58:	40c50633          	sub	a2,a0,a2
80003e5c:	40e80733          	sub	a4,a6,a4
80003e60:	00c53533          	sltu	a0,a0,a2
80003e64:	40a70733          	sub	a4,a4,a0
80003e68:	00100893          	li	a7,1
80003e6c:	0800006f          	j	80003eec <__adddf3+0x5d4>
80003e70:	7ff00693          	li	a3,2047
80003e74:	bad586e3          	beq	a1,a3,80003a20 <__adddf3+0x108>
80003e78:	03800693          	li	a3,56
80003e7c:	02f6d663          	bge	a3,a5,80003ea8 <__adddf3+0x590>
80003e80:	00000793          	li	a5,0
80003e84:	00100693          	li	a3,1
80003e88:	04c0006f          	j	80003ed4 <__adddf3+0x5bc>
80003e8c:	7ff00793          	li	a5,2047
80003e90:	baf40ee3          	beq	s0,a5,80003a4c <__adddf3+0x134>
80003e94:	03800793          	li	a5,56
80003e98:	feb7c4e3          	blt	a5,a1,80003e80 <__adddf3+0x568>
80003e9c:	008007b7          	lui	a5,0x800
80003ea0:	00f76733          	or	a4,a4,a5
80003ea4:	00058793          	mv	a5,a1
80003ea8:	01f00693          	li	a3,31
80003eac:	06f6c063          	blt	a3,a5,80003f0c <__adddf3+0x5f4>
80003eb0:	02000593          	li	a1,32
80003eb4:	40f585b3          	sub	a1,a1,a5
80003eb8:	00b716b3          	sll	a3,a4,a1
80003ebc:	00f658b3          	srl	a7,a2,a5
80003ec0:	00b615b3          	sll	a1,a2,a1
80003ec4:	0116e6b3          	or	a3,a3,a7
80003ec8:	00b035b3          	snez	a1,a1
80003ecc:	00b6e6b3          	or	a3,a3,a1
80003ed0:	00f757b3          	srl	a5,a4,a5
80003ed4:	40d506b3          	sub	a3,a0,a3
80003ed8:	40f807b3          	sub	a5,a6,a5
80003edc:	00d53733          	sltu	a4,a0,a3
80003ee0:	00068613          	mv	a2,a3
80003ee4:	40e78733          	sub	a4,a5,a4
80003ee8:	00040893          	mv	a7,s0
80003eec:	00800937          	lui	s2,0x800
80003ef0:	012777b3          	and	a5,a4,s2
80003ef4:	e80786e3          	beqz	a5,80003d80 <__adddf3+0x468>
80003ef8:	fff90913          	add	s2,s2,-1 # 7fffff <__tcb_aligned_size+0x7fffbf>
80003efc:	01277933          	and	s2,a4,s2
80003f00:	00060a13          	mv	s4,a2
80003f04:	00088413          	mv	s0,a7
80003f08:	2e00006f          	j	800041e8 <__adddf3+0x8d0>
80003f0c:	fe078693          	add	a3,a5,-32 # 7fffe0 <__tcb_aligned_size+0x7fffa0>
80003f10:	02000893          	li	a7,32
80003f14:	00d756b3          	srl	a3,a4,a3
80003f18:	00000593          	li	a1,0
80003f1c:	01178863          	beq	a5,a7,80003f2c <__adddf3+0x614>
80003f20:	04000593          	li	a1,64
80003f24:	40f585b3          	sub	a1,a1,a5
80003f28:	00b715b3          	sll	a1,a4,a1
80003f2c:	00c5e5b3          	or	a1,a1,a2
80003f30:	00b035b3          	snez	a1,a1
80003f34:	00b6e6b3          	or	a3,a3,a1
80003f38:	00000793          	li	a5,0
80003f3c:	f99ff06f          	j	80003ed4 <__adddf3+0x5bc>
80003f40:	12058a63          	beqz	a1,80004074 <__adddf3+0x75c>
80003f44:	408885b3          	sub	a1,a7,s0
80003f48:	06041c63          	bnez	s0,80003fc0 <__adddf3+0x6a8>
80003f4c:	00a867b3          	or	a5,a6,a0
80003f50:	02079863          	bnez	a5,80003f80 <__adddf3+0x668>
80003f54:	7ff00793          	li	a5,2047
80003f58:	3cf59263          	bne	a1,a5,8000431c <__adddf3+0xa04>
80003f5c:	00c765b3          	or	a1,a4,a2
80003f60:	60058063          	beqz	a1,80004560 <__adddf3+0xc48>
80003f64:	01675793          	srl	a5,a4,0x16
80003f68:	0017c793          	xor	a5,a5,1
80003f6c:	0017f793          	and	a5,a5,1
80003f70:	00479793          	sll	a5,a5,0x4
80003f74:	7ff00893          	li	a7,2047
80003f78:	00068493          	mv	s1,a3
80003f7c:	a65ff06f          	j	800039e0 <__adddf3+0xc8>
80003f80:	fff58793          	add	a5,a1,-1
80003f84:	02079063          	bnez	a5,80003fa4 <__adddf3+0x68c>
80003f88:	40a60533          	sub	a0,a2,a0
80003f8c:	00a637b3          	sltu	a5,a2,a0
80003f90:	41070733          	sub	a4,a4,a6
80003f94:	00050613          	mv	a2,a0
80003f98:	40f70733          	sub	a4,a4,a5
80003f9c:	00068493          	mv	s1,a3
80003fa0:	ec9ff06f          	j	80003e68 <__adddf3+0x550>
80003fa4:	7ff00313          	li	t1,2047
80003fa8:	fa658ae3          	beq	a1,t1,80003f5c <__adddf3+0x644>
80003fac:	03800593          	li	a1,56
80003fb0:	04f5d463          	bge	a1,a5,80003ff8 <__adddf3+0x6e0>
80003fb4:	00000793          	li	a5,0
80003fb8:	00100593          	li	a1,1
80003fbc:	0680006f          	j	80004024 <__adddf3+0x70c>
80003fc0:	7ff00793          	li	a5,2047
80003fc4:	02f89063          	bne	a7,a5,80003fe4 <__adddf3+0x6cc>
80003fc8:	00c765b3          	or	a1,a4,a2
80003fcc:	5a058063          	beqz	a1,8000456c <__adddf3+0xc54>
80003fd0:	01675793          	srl	a5,a4,0x16
80003fd4:	0017c793          	xor	a5,a5,1
80003fd8:	0017f793          	and	a5,a5,1
80003fdc:	00479793          	sll	a5,a5,0x4
80003fe0:	f99ff06f          	j	80003f78 <__adddf3+0x660>
80003fe4:	03800793          	li	a5,56
80003fe8:	fcb7c6e3          	blt	a5,a1,80003fb4 <__adddf3+0x69c>
80003fec:	008007b7          	lui	a5,0x800
80003ff0:	00f86833          	or	a6,a6,a5
80003ff4:	00058793          	mv	a5,a1
80003ff8:	01f00593          	li	a1,31
80003ffc:	04f5c263          	blt	a1,a5,80004040 <__adddf3+0x728>
80004000:	02000313          	li	t1,32
80004004:	40f30333          	sub	t1,t1,a5
80004008:	006815b3          	sll	a1,a6,t1
8000400c:	00f55e33          	srl	t3,a0,a5
80004010:	00651333          	sll	t1,a0,t1
80004014:	01c5e5b3          	or	a1,a1,t3
80004018:	00603333          	snez	t1,t1
8000401c:	0065e5b3          	or	a1,a1,t1
80004020:	00f857b3          	srl	a5,a6,a5
80004024:	40b605b3          	sub	a1,a2,a1
80004028:	00b63533          	sltu	a0,a2,a1
8000402c:	40f707b3          	sub	a5,a4,a5
80004030:	00058613          	mv	a2,a1
80004034:	40a78733          	sub	a4,a5,a0
80004038:	00068493          	mv	s1,a3
8000403c:	eb1ff06f          	j	80003eec <__adddf3+0x5d4>
80004040:	fe078593          	add	a1,a5,-32 # 7fffe0 <__tcb_aligned_size+0x7fffa0>
80004044:	02000e13          	li	t3,32
80004048:	00b855b3          	srl	a1,a6,a1
8000404c:	00000313          	li	t1,0
80004050:	01c78863          	beq	a5,t3,80004060 <__adddf3+0x748>
80004054:	04000313          	li	t1,64
80004058:	40f30333          	sub	t1,t1,a5
8000405c:	00681333          	sll	t1,a6,t1
80004060:	00a36333          	or	t1,t1,a0
80004064:	00603333          	snez	t1,t1
80004068:	0065e5b3          	or	a1,a1,t1
8000406c:	00000793          	li	a5,0
80004070:	fb5ff06f          	j	80004024 <__adddf3+0x70c>
80004074:	00140793          	add	a5,s0,1
80004078:	7fe7f793          	and	a5,a5,2046
8000407c:	12079c63          	bnez	a5,800041b4 <__adddf3+0x89c>
80004080:	00a86333          	or	t1,a6,a0
80004084:	00c765b3          	or	a1,a4,a2
80004088:	06041a63          	bnez	s0,800040fc <__adddf3+0x7e4>
8000408c:	02031263          	bnez	t1,800040b0 <__adddf3+0x798>
80004090:	2a059263          	bnez	a1,80004334 <__adddf3+0xa1c>
80004094:	ffe98493          	add	s1,s3,-2
80004098:	0014b493          	seqz	s1,s1
8000409c:	00000813          	li	a6,0
800040a0:	00000593          	li	a1,0
800040a4:	00000893          	li	a7,0
800040a8:	00000413          	li	s0,0
800040ac:	4540006f          	j	80004500 <__adddf3+0xbe8>
800040b0:	18058863          	beqz	a1,80004240 <__adddf3+0x928>
800040b4:	40c505b3          	sub	a1,a0,a2
800040b8:	00b538b3          	sltu	a7,a0,a1
800040bc:	40e807b3          	sub	a5,a6,a4
800040c0:	411787b3          	sub	a5,a5,a7
800040c4:	008008b7          	lui	a7,0x800
800040c8:	0117f8b3          	and	a7,a5,a7
800040cc:	00088e63          	beqz	a7,800040e8 <__adddf3+0x7d0>
800040d0:	40a60533          	sub	a0,a2,a0
800040d4:	41070733          	sub	a4,a4,a6
800040d8:	00a63633          	sltu	a2,a2,a0
800040dc:	40c70833          	sub	a6,a4,a2
800040e0:	00068493          	mv	s1,a3
800040e4:	15c0006f          	j	80004240 <__adddf3+0x928>
800040e8:	00f5e733          	or	a4,a1,a5
800040ec:	fa0704e3          	beqz	a4,80004094 <__adddf3+0x77c>
800040f0:	00078813          	mv	a6,a5
800040f4:	00058513          	mv	a0,a1
800040f8:	1480006f          	j	80004240 <__adddf3+0x928>
800040fc:	7ff00e13          	li	t3,2047
80004100:	05c41463          	bne	s0,t3,80004148 <__adddf3+0x830>
80004104:	00031e63          	bnez	t1,80004120 <__adddf3+0x808>
80004108:	08889e63          	bne	a7,s0,800041a4 <__adddf3+0x88c>
8000410c:	04059863          	bnez	a1,8000415c <__adddf3+0x844>
80004110:	00000493          	li	s1,0
80004114:	00400837          	lui	a6,0x400
80004118:	01000413          	li	s0,16
8000411c:	3e40006f          	j	80004500 <__adddf3+0xbe8>
80004120:	004006b7          	lui	a3,0x400
80004124:	00d876b3          	and	a3,a6,a3
80004128:	46068863          	beqz	a3,80004598 <__adddf3+0xc80>
8000412c:	08889063          	bne	a7,s0,800041ac <__adddf3+0x894>
80004130:	900584e3          	beqz	a1,80003a38 <__adddf3+0x120>
80004134:	004007b7          	lui	a5,0x400
80004138:	00f777b3          	and	a5,a4,a5
8000413c:	ba079ce3          	bnez	a5,80003cf4 <__adddf3+0x3dc>
80004140:	01000413          	li	s0,16
80004144:	4700006f          	j	800045b4 <__adddf3+0xc9c>
80004148:	00000413          	li	s0,0
8000414c:	03c89e63          	bne	a7,t3,80004188 <__adddf3+0x870>
80004150:	02059063          	bnez	a1,80004170 <__adddf3+0x858>
80004154:	8e0312e3          	bnez	t1,80003a38 <__adddf3+0x120>
80004158:	fb9ff06f          	j	80004110 <__adddf3+0x7f8>
8000415c:	00400537          	lui	a0,0x400
80004160:	00a77533          	and	a0,a4,a0
80004164:	e0051ae3          	bnez	a0,80003f78 <__adddf3+0x660>
80004168:	01000413          	li	s0,16
8000416c:	0200006f          	j	8000418c <__adddf3+0x874>
80004170:	00400e37          	lui	t3,0x400
80004174:	01c77e33          	and	t3,a4,t3
80004178:	000e0663          	beqz	t3,80004184 <__adddf3+0x86c>
8000417c:	b6031ce3          	bnez	t1,80003cf4 <__adddf3+0x3dc>
80004180:	df9ff06f          	j	80003f78 <__adddf3+0x660>
80004184:	01000413          	li	s0,16
80004188:	42031663          	bnez	t1,800045b4 <__adddf3+0xc9c>
8000418c:	00068493          	mv	s1,a3
80004190:	b8059ee3          	bnez	a1,80003d2c <__adddf3+0x414>
80004194:	00000493          	li	s1,0
80004198:	00400837          	lui	a6,0x400
8000419c:	7ff00893          	li	a7,2047
800041a0:	f79ff06f          	j	80004118 <__adddf3+0x800>
800041a4:	00000413          	li	s0,0
800041a8:	fe5ff06f          	j	8000418c <__adddf3+0x874>
800041ac:	00000413          	li	s0,0
800041b0:	4040006f          	j	800045b4 <__adddf3+0xc9c>
800041b4:	40c507b3          	sub	a5,a0,a2
800041b8:	00f535b3          	sltu	a1,a0,a5
800041bc:	40e80933          	sub	s2,a6,a4
800041c0:	40b90933          	sub	s2,s2,a1
800041c4:	008005b7          	lui	a1,0x800
800041c8:	00b975b3          	and	a1,s2,a1
800041cc:	00078a13          	mv	s4,a5
800041d0:	0c058663          	beqz	a1,8000429c <__adddf3+0x984>
800041d4:	40a60a33          	sub	s4,a2,a0
800041d8:	41070933          	sub	s2,a4,a6
800041dc:	01463633          	sltu	a2,a2,s4
800041e0:	40c90933          	sub	s2,s2,a2
800041e4:	00068493          	mv	s1,a3
800041e8:	0c090063          	beqz	s2,800042a8 <__adddf3+0x990>
800041ec:	00090513          	mv	a0,s2
800041f0:	ec9fe0ef          	jal	800030b8 <__clzsi2>
800041f4:	ff850793          	add	a5,a0,-8 # 3ffff8 <__tcb_aligned_size+0x3fffb8>
800041f8:	02000713          	li	a4,32
800041fc:	40f70733          	sub	a4,a4,a5
80004200:	00f91933          	sll	s2,s2,a5
80004204:	00ea5733          	srl	a4,s4,a4
80004208:	01276733          	or	a4,a4,s2
8000420c:	00fa1933          	sll	s2,s4,a5
80004210:	0e87ca63          	blt	a5,s0,80004304 <__adddf3+0x9ec>
80004214:	408787b3          	sub	a5,a5,s0
80004218:	00178813          	add	a6,a5,1 # 400001 <__tcb_aligned_size+0x3fffc1>
8000421c:	02000793          	li	a5,32
80004220:	410787b3          	sub	a5,a5,a6
80004224:	00f71533          	sll	a0,a4,a5
80004228:	010956b3          	srl	a3,s2,a6
8000422c:	00f917b3          	sll	a5,s2,a5
80004230:	00d56533          	or	a0,a0,a3
80004234:	00f037b3          	snez	a5,a5
80004238:	00f56533          	or	a0,a0,a5
8000423c:	01075833          	srl	a6,a4,a6
80004240:	010567b3          	or	a5,a0,a6
80004244:	e4078ce3          	beqz	a5,8000409c <__adddf3+0x784>
80004248:	01f55793          	srl	a5,a0,0x1f
8000424c:	00181713          	sll	a4,a6,0x1
80004250:	00f70733          	add	a4,a4,a5
80004254:	00151793          	sll	a5,a0,0x1
80004258:	0077f613          	and	a2,a5,7
8000425c:	00757693          	and	a3,a0,7
80004260:	18060663          	beqz	a2,800043ec <__adddf3+0xad4>
80004264:	00200613          	li	a2,2
80004268:	12c98263          	beq	s3,a2,8000438c <__adddf3+0xa74>
8000426c:	00300613          	li	a2,3
80004270:	0cc98863          	beq	s3,a2,80004340 <__adddf3+0xa28>
80004274:	14099e63          	bnez	s3,800043d0 <__adddf3+0xab8>
80004278:	00f7f613          	and	a2,a5,15
8000427c:	00400593          	li	a1,4
80004280:	ffc7b793          	sltiu	a5,a5,-4
80004284:	0eb61263          	bne	a2,a1,80004368 <__adddf3+0xa50>
80004288:	010007b7          	lui	a5,0x1000
8000428c:	00f77733          	and	a4,a4,a5
80004290:	0e070663          	beqz	a4,8000437c <__adddf3+0xa64>
80004294:	00100793          	li	a5,1
80004298:	1f80006f          	j	80004490 <__adddf3+0xb78>
8000429c:	0127e7b3          	or	a5,a5,s2
800042a0:	f40794e3          	bnez	a5,800041e8 <__adddf3+0x8d0>
800042a4:	df1ff06f          	j	80004094 <__adddf3+0x77c>
800042a8:	000a0513          	mv	a0,s4
800042ac:	e0dfe0ef          	jal	800030b8 <__clzsi2>
800042b0:	01850793          	add	a5,a0,24
800042b4:	01f00693          	li	a3,31
800042b8:	f4f6d0e3          	bge	a3,a5,800041f8 <__adddf3+0x8e0>
800042bc:	ff850713          	add	a4,a0,-8
800042c0:	00ea1733          	sll	a4,s4,a4
800042c4:	0487c063          	blt	a5,s0,80004304 <__adddf3+0x9ec>
800042c8:	408787b3          	sub	a5,a5,s0
800042cc:	00178813          	add	a6,a5,1 # 1000001 <__tcb_aligned_size+0xffffc1>
800042d0:	f506d6e3          	bge	a3,a6,8000421c <__adddf3+0x904>
800042d4:	fe178793          	add	a5,a5,-31
800042d8:	02000693          	li	a3,32
800042dc:	00f757b3          	srl	a5,a4,a5
800042e0:	00000513          	li	a0,0
800042e4:	00d80863          	beq	a6,a3,800042f4 <__adddf3+0x9dc>
800042e8:	04000513          	li	a0,64
800042ec:	41050533          	sub	a0,a0,a6
800042f0:	00a71533          	sll	a0,a4,a0
800042f4:	00a03533          	snez	a0,a0
800042f8:	00f56533          	or	a0,a0,a5
800042fc:	00000813          	li	a6,0
80004300:	f41ff06f          	j	80004240 <__adddf3+0x928>
80004304:	40f408b3          	sub	a7,s0,a5
80004308:	ff8007b7          	lui	a5,0xff800
8000430c:	fff78793          	add	a5,a5,-1 # ff7fffff <__BSS_END__+0x7f7f683f>
80004310:	00f77733          	and	a4,a4,a5
80004314:	00090613          	mv	a2,s2
80004318:	a69ff06f          	j	80003d80 <__adddf3+0x468>
8000431c:	00058893          	mv	a7,a1
80004320:	00068493          	mv	s1,a3
80004324:	a5dff06f          	j	80003d80 <__adddf3+0x468>
80004328:	00070813          	mv	a6,a4
8000432c:	00060513          	mv	a0,a2
80004330:	f11ff06f          	j	80004240 <__adddf3+0x928>
80004334:	00070813          	mv	a6,a4
80004338:	00060513          	mv	a0,a2
8000433c:	da5ff06f          	j	800040e0 <__adddf3+0x7c8>
80004340:	02048263          	beqz	s1,80004364 <__adddf3+0xa4c>
80004344:	010007b7          	lui	a5,0x1000
80004348:	00f77733          	and	a4,a4,a5
8000434c:	14071063          	bnez	a4,8000448c <__adddf3+0xb74>
80004350:	16069063          	bnez	a3,800044b0 <__adddf3+0xb98>
80004354:	00048793          	mv	a5,s1
80004358:	00000893          	li	a7,0
8000435c:	0027e793          	or	a5,a5,2
80004360:	0a40006f          	j	80004404 <__adddf3+0xaec>
80004364:	ff87b793          	sltiu	a5,a5,-8
80004368:	0017c793          	xor	a5,a5,1
8000436c:	00e787b3          	add	a5,a5,a4
80004370:	01000737          	lui	a4,0x1000
80004374:	00e7f7b3          	and	a5,a5,a4
80004378:	f0079ee3          	bnez	a5,80004294 <__adddf3+0x97c>
8000437c:	00000893          	li	a7,0
80004380:	14069063          	bnez	a3,800044c0 <__adddf3+0xba8>
80004384:	00100793          	li	a5,1
80004388:	fd5ff06f          	j	8000435c <__adddf3+0xa44>
8000438c:	00049c63          	bnez	s1,800043a4 <__adddf3+0xa8c>
80004390:	010007b7          	lui	a5,0x1000
80004394:	00f77733          	and	a4,a4,a5
80004398:	ee071ee3          	bnez	a4,80004294 <__adddf3+0x97c>
8000439c:	00000893          	li	a7,0
800043a0:	fe5ff06f          	j	80004384 <__adddf3+0xa6c>
800043a4:	ff87b793          	sltiu	a5,a5,-8
800043a8:	0017c793          	xor	a5,a5,1
800043ac:	00e787b3          	add	a5,a5,a4
800043b0:	01000737          	lui	a4,0x1000
800043b4:	00e7f7b3          	and	a5,a5,a4
800043b8:	0c079a63          	bnez	a5,8000448c <__adddf3+0xb74>
800043bc:	f8068ce3          	beqz	a3,80004354 <__adddf3+0xa3c>
800043c0:	00048693          	mv	a3,s1
800043c4:	00048793          	mv	a5,s1
800043c8:	00000893          	li	a7,0
800043cc:	e34ff06f          	j	80003a00 <__adddf3+0xe8>
800043d0:	010007b7          	lui	a5,0x1000
800043d4:	00f77733          	and	a4,a4,a5
800043d8:	ea071ee3          	bnez	a4,80004294 <__adddf3+0x97c>
800043dc:	fc0680e3          	beqz	a3,8000439c <__adddf3+0xa84>
800043e0:	00100693          	li	a3,1
800043e4:	00000893          	li	a7,0
800043e8:	0dc0006f          	j	800044c4 <__adddf3+0xbac>
800043ec:	010007b7          	lui	a5,0x1000
800043f0:	00f77733          	and	a4,a4,a5
800043f4:	0a071263          	bnez	a4,80004498 <__adddf3+0xb80>
800043f8:	0a069463          	bnez	a3,800044a0 <__adddf3+0xb88>
800043fc:	00000893          	li	a7,0
80004400:	00000793          	li	a5,0
80004404:	00800737          	lui	a4,0x800
80004408:	00e87733          	and	a4,a6,a4
8000440c:	16070463          	beqz	a4,80004574 <__adddf3+0xc5c>
80004410:	00188893          	add	a7,a7,1 # 800001 <__tcb_aligned_size+0x7fffc1>
80004414:	7ff00713          	li	a4,2047
80004418:	0ce88663          	beq	a7,a4,800044e4 <__adddf3+0xbcc>
8000441c:	ff800737          	lui	a4,0xff800
80004420:	fff70713          	add	a4,a4,-1 # ff7fffff <__BSS_END__+0x7f7f683f>
80004424:	00e87733          	and	a4,a6,a4
80004428:	01d71593          	sll	a1,a4,0x1d
8000442c:	00355513          	srl	a0,a0,0x3
80004430:	00a5e5b3          	or	a1,a1,a0
80004434:	00375713          	srl	a4,a4,0x3
80004438:	00078413          	mv	s0,a5
8000443c:	01489793          	sll	a5,a7,0x14
80004440:	7ff006b7          	lui	a3,0x7ff00
80004444:	00c71713          	sll	a4,a4,0xc
80004448:	00c75713          	srl	a4,a4,0xc
8000444c:	00d7f7b3          	and	a5,a5,a3
80004450:	00e7e7b3          	or	a5,a5,a4
80004454:	01f49493          	sll	s1,s1,0x1f
80004458:	0097e733          	or	a4,a5,s1
8000445c:	00058513          	mv	a0,a1
80004460:	00070593          	mv	a1,a4
80004464:	00040463          	beqz	s0,8000446c <__adddf3+0xb54>
80004468:	00142073          	csrs	fflags,s0
8000446c:	01c12083          	lw	ra,28(sp)
80004470:	01812403          	lw	s0,24(sp)
80004474:	01412483          	lw	s1,20(sp)
80004478:	01012903          	lw	s2,16(sp)
8000447c:	00c12983          	lw	s3,12(sp)
80004480:	00812a03          	lw	s4,8(sp)
80004484:	02010113          	add	sp,sp,32
80004488:	00008067          	ret
8000448c:	00048793          	mv	a5,s1
80004490:	00000893          	li	a7,0
80004494:	d58ff06f          	j	800039ec <__adddf3+0xd4>
80004498:	00000793          	li	a5,0
8000449c:	ff5ff06f          	j	80004490 <__adddf3+0xb78>
800044a0:	00100693          	li	a3,1
800044a4:	00000893          	li	a7,0
800044a8:	00000793          	li	a5,0
800044ac:	d48ff06f          	j	800039f4 <__adddf3+0xdc>
800044b0:	00048693          	mv	a3,s1
800044b4:	00048793          	mv	a5,s1
800044b8:	00000893          	li	a7,0
800044bc:	8edff06f          	j	80003da8 <__adddf3+0x490>
800044c0:	00100693          	li	a3,1
800044c4:	00100793          	li	a5,1
800044c8:	8e1ff06f          	j	80003da8 <__adddf3+0x490>
800044cc:	00048863          	beqz	s1,800044dc <__adddf3+0xbc4>
800044d0:	f2068ae3          	beqz	a3,80004404 <__adddf3+0xaec>
800044d4:	00068493          	mv	s1,a3
800044d8:	e85ff06f          	j	8000435c <__adddf3+0xa44>
800044dc:	00850713          	add	a4,a0,8
800044e0:	8e5ff06f          	j	80003dc4 <__adddf3+0x4ac>
800044e4:	00000593          	li	a1,0
800044e8:	00098863          	beqz	s3,800044f8 <__adddf3+0xbe0>
800044ec:	00300713          	li	a4,3
800044f0:	04e99263          	bne	s3,a4,80004534 <__adddf3+0xc1c>
800044f4:	04049663          	bnez	s1,80004540 <__adddf3+0xc28>
800044f8:	0057e413          	or	s0,a5,5
800044fc:	00058813          	mv	a6,a1
80004500:	01d81793          	sll	a5,a6,0x1d
80004504:	0035d593          	srl	a1,a1,0x3
80004508:	00b7e5b3          	or	a1,a5,a1
8000450c:	7ff00793          	li	a5,2047
80004510:	00385713          	srl	a4,a6,0x3
80004514:	f2f894e3          	bne	a7,a5,8000443c <__adddf3+0xb24>
80004518:	00e5e5b3          	or	a1,a1,a4
8000451c:	00000713          	li	a4,0
80004520:	f0058ee3          	beqz	a1,8000443c <__adddf3+0xb24>
80004524:	00080737          	lui	a4,0x80
80004528:	00000593          	li	a1,0
8000452c:	00000493          	li	s1,0
80004530:	f0dff06f          	j	8000443c <__adddf3+0xb24>
80004534:	00200713          	li	a4,2
80004538:	00e99463          	bne	s3,a4,80004540 <__adddf3+0xc28>
8000453c:	fa049ee3          	bnez	s1,800044f8 <__adddf3+0xbe0>
80004540:	fff00593          	li	a1,-1
80004544:	7fe00893          	li	a7,2046
80004548:	fb1ff06f          	j	800044f8 <__adddf3+0xbe0>
8000454c:	7ff00893          	li	a7,2047
80004550:	8e1ff06f          	j	80003e30 <__adddf3+0x518>
80004554:	00000813          	li	a6,0
80004558:	00000413          	li	s0,0
8000455c:	fc0ff06f          	j	80003d1c <__adddf3+0x404>
80004560:	00068493          	mv	s1,a3
80004564:	00000813          	li	a6,0
80004568:	fb4ff06f          	j	80003d1c <__adddf3+0x404>
8000456c:	00068493          	mv	s1,a3
80004570:	e30ff06f          	j	80003ba0 <__adddf3+0x288>
80004574:	00050593          	mv	a1,a0
80004578:	00078413          	mv	s0,a5
8000457c:	f85ff06f          	j	80004500 <__adddf3+0xbe8>
80004580:	fc889663          	bne	a7,s0,80003d4c <__adddf3+0x434>
80004584:	f6031c63          	bnez	t1,80003cfc <__adddf3+0x3e4>
80004588:	00080713          	mv	a4,a6
8000458c:	00050613          	mv	a2,a0
80004590:	01000793          	li	a5,16
80004594:	c4cff06f          	j	800039e0 <__adddf3+0xc8>
80004598:	ba8894e3          	bne	a7,s0,80004140 <__adddf3+0x828>
8000459c:	01000793          	li	a5,16
800045a0:	c8058c63          	beqz	a1,80003a38 <__adddf3+0x120>
800045a4:	004007b7          	lui	a5,0x400
800045a8:	00f777b3          	and	a5,a4,a5
800045ac:	01000413          	li	s0,16
800045b0:	f6079063          	bnez	a5,80003d10 <__adddf3+0x3f8>
800045b4:	f4059e63          	bnez	a1,80003d10 <__adddf3+0x3f8>
800045b8:	f88ff06f          	j	80003d40 <__adddf3+0x428>

800045bc <__divdf3>:
800045bc:	fd010113          	add	sp,sp,-48
800045c0:	02812423          	sw	s0,40(sp)
800045c4:	01512a23          	sw	s5,20(sp)
800045c8:	01912223          	sw	s9,4(sp)
800045cc:	02112623          	sw	ra,44(sp)
800045d0:	02912223          	sw	s1,36(sp)
800045d4:	03212023          	sw	s2,32(sp)
800045d8:	01312e23          	sw	s3,28(sp)
800045dc:	01412c23          	sw	s4,24(sp)
800045e0:	01612823          	sw	s6,16(sp)
800045e4:	01712623          	sw	s7,12(sp)
800045e8:	01812423          	sw	s8,8(sp)
800045ec:	00050413          	mv	s0,a0
800045f0:	00060c93          	mv	s9,a2
800045f4:	00068a93          	mv	s5,a3
800045f8:	002024f3          	frrm	s1
800045fc:	0145d813          	srl	a6,a1,0x14
80004600:	00c59913          	sll	s2,a1,0xc
80004604:	7ff87813          	and	a6,a6,2047
80004608:	00c95913          	srl	s2,s2,0xc
8000460c:	01f5da13          	srl	s4,a1,0x1f
80004610:	02080a63          	beqz	a6,80004644 <__divdf3+0x88>
80004614:	7ff00793          	li	a5,2047
80004618:	08f80a63          	beq	a6,a5,800046ac <__divdf3+0xf0>
8000461c:	01d55b13          	srl	s6,a0,0x1d
80004620:	00391913          	sll	s2,s2,0x3
80004624:	012b6b33          	or	s6,s6,s2
80004628:	008007b7          	lui	a5,0x800
8000462c:	00fb6b33          	or	s6,s6,a5
80004630:	00351993          	sll	s3,a0,0x3
80004634:	c0180c13          	add	s8,a6,-1023 # 3ffc01 <__tcb_aligned_size+0x3ffbc1>
80004638:	00000b93          	li	s7,0
8000463c:	00000413          	li	s0,0
80004640:	0900006f          	j	800046d0 <__divdf3+0x114>
80004644:	00a96b33          	or	s6,s2,a0
80004648:	100b0263          	beqz	s6,8000474c <__divdf3+0x190>
8000464c:	02090e63          	beqz	s2,80004688 <__divdf3+0xcc>
80004650:	00090513          	mv	a0,s2
80004654:	a65fe0ef          	jal	800030b8 <__clzsi2>
80004658:	ff550793          	add	a5,a0,-11
8000465c:	01d00b13          	li	s6,29
80004660:	ff850713          	add	a4,a0,-8
80004664:	40fb0b33          	sub	s6,s6,a5
80004668:	00e91933          	sll	s2,s2,a4
8000466c:	01645b33          	srl	s6,s0,s6
80004670:	012b6b33          	or	s6,s6,s2
80004674:	00e41933          	sll	s2,s0,a4
80004678:	c0d00813          	li	a6,-1011
8000467c:	40a80c33          	sub	s8,a6,a0
80004680:	00090993          	mv	s3,s2
80004684:	fb5ff06f          	j	80004638 <__divdf3+0x7c>
80004688:	a31fe0ef          	jal	800030b8 <__clzsi2>
8000468c:	00050b13          	mv	s6,a0
80004690:	015b0793          	add	a5,s6,21
80004694:	01c00713          	li	a4,28
80004698:	02050513          	add	a0,a0,32
8000469c:	fcf750e3          	bge	a4,a5,8000465c <__divdf3+0xa0>
800046a0:	ff8b0b13          	add	s6,s6,-8
800046a4:	01641b33          	sll	s6,s0,s6
800046a8:	fd1ff06f          	j	80004678 <__divdf3+0xbc>
800046ac:	00a96b33          	or	s6,s2,a0
800046b0:	0a0b0663          	beqz	s6,8000475c <__divdf3+0x1a0>
800046b4:	00080437          	lui	s0,0x80
800046b8:	00893433          	sltu	s0,s2,s0
800046bc:	00050993          	mv	s3,a0
800046c0:	00441413          	sll	s0,s0,0x4
800046c4:	00090b13          	mv	s6,s2
800046c8:	7ff00c13          	li	s8,2047
800046cc:	00300b93          	li	s7,3
800046d0:	014ad713          	srl	a4,s5,0x14
800046d4:	00ca9913          	sll	s2,s5,0xc
800046d8:	7ff77713          	and	a4,a4,2047
800046dc:	000c8793          	mv	a5,s9
800046e0:	00c95913          	srl	s2,s2,0xc
800046e4:	01fada93          	srl	s5,s5,0x1f
800046e8:	08070263          	beqz	a4,8000476c <__divdf3+0x1b0>
800046ec:	7ff00693          	li	a3,2047
800046f0:	0ed70663          	beq	a4,a3,800047dc <__divdf3+0x220>
800046f4:	00391913          	sll	s2,s2,0x3
800046f8:	01dcd793          	srl	a5,s9,0x1d
800046fc:	0127e7b3          	or	a5,a5,s2
80004700:	00800937          	lui	s2,0x800
80004704:	0127e933          	or	s2,a5,s2
80004708:	c0170693          	add	a3,a4,-1023 # 7fc01 <__tcb_aligned_size+0x7fbc1>
8000470c:	003c9793          	sll	a5,s9,0x3
80004710:	00000593          	li	a1,0
80004714:	002b9713          	sll	a4,s7,0x2
80004718:	00b76733          	or	a4,a4,a1
8000471c:	40dc0833          	sub	a6,s8,a3
80004720:	fff70713          	add	a4,a4,-1
80004724:	00e00693          	li	a3,14
80004728:	015a4633          	xor	a2,s4,s5
8000472c:	0ee6ec63          	bltu	a3,a4,80004824 <__divdf3+0x268>
80004730:	00003697          	auipc	a3,0x3
80004734:	8d068693          	add	a3,a3,-1840 # 80007000 <pow10.0+0x50>
80004738:	00271713          	sll	a4,a4,0x2
8000473c:	00d70733          	add	a4,a4,a3
80004740:	00072703          	lw	a4,0(a4)
80004744:	00d70733          	add	a4,a4,a3
80004748:	00070067          	jr	a4
8000474c:	00000993          	li	s3,0
80004750:	00000c13          	li	s8,0
80004754:	00100b93          	li	s7,1
80004758:	ee5ff06f          	j	8000463c <__divdf3+0x80>
8000475c:	00000993          	li	s3,0
80004760:	7ff00c13          	li	s8,2047
80004764:	00200b93          	li	s7,2
80004768:	ed5ff06f          	j	8000463c <__divdf3+0x80>
8000476c:	019967b3          	or	a5,s2,s9
80004770:	08078663          	beqz	a5,800047fc <__divdf3+0x240>
80004774:	04090063          	beqz	s2,800047b4 <__divdf3+0x1f8>
80004778:	00090513          	mv	a0,s2
8000477c:	93dfe0ef          	jal	800030b8 <__clzsi2>
80004780:	ff550693          	add	a3,a0,-11
80004784:	01d00713          	li	a4,29
80004788:	ff850793          	add	a5,a0,-8
8000478c:	40d70733          	sub	a4,a4,a3
80004790:	00f91933          	sll	s2,s2,a5
80004794:	00ecd733          	srl	a4,s9,a4
80004798:	01276733          	or	a4,a4,s2
8000479c:	00fc9933          	sll	s2,s9,a5
800047a0:	c0d00693          	li	a3,-1011
800047a4:	00090793          	mv	a5,s2
800047a8:	40a686b3          	sub	a3,a3,a0
800047ac:	00070913          	mv	s2,a4
800047b0:	f61ff06f          	j	80004710 <__divdf3+0x154>
800047b4:	000c8513          	mv	a0,s9
800047b8:	901fe0ef          	jal	800030b8 <__clzsi2>
800047bc:	00050793          	mv	a5,a0
800047c0:	01578693          	add	a3,a5,21 # 800015 <__tcb_aligned_size+0x7fffd5>
800047c4:	01c00713          	li	a4,28
800047c8:	02050513          	add	a0,a0,32
800047cc:	fad75ce3          	bge	a4,a3,80004784 <__divdf3+0x1c8>
800047d0:	ff878793          	add	a5,a5,-8
800047d4:	00fc9733          	sll	a4,s9,a5
800047d8:	fc9ff06f          	j	800047a0 <__divdf3+0x1e4>
800047dc:	01996633          	or	a2,s2,s9
800047e0:	02060863          	beqz	a2,80004810 <__divdf3+0x254>
800047e4:	00080737          	lui	a4,0x80
800047e8:	7ff00693          	li	a3,2047
800047ec:	00300593          	li	a1,3
800047f0:	f2e972e3          	bgeu	s2,a4,80004714 <__divdf3+0x158>
800047f4:	01000413          	li	s0,16
800047f8:	f1dff06f          	j	80004714 <__divdf3+0x158>
800047fc:	00000913          	li	s2,0
80004800:	00000793          	li	a5,0
80004804:	00000693          	li	a3,0
80004808:	00100593          	li	a1,1
8000480c:	f09ff06f          	j	80004714 <__divdf3+0x158>
80004810:	00000913          	li	s2,0
80004814:	00000793          	li	a5,0
80004818:	7ff00693          	li	a3,2047
8000481c:	00200593          	li	a1,2
80004820:	ef5ff06f          	j	80004714 <__divdf3+0x158>
80004824:	01696663          	bltu	s2,s6,80004830 <__divdf3+0x274>
80004828:	2f2b1c63          	bne	s6,s2,80004b20 <__divdf3+0x564>
8000482c:	2ef9ea63          	bltu	s3,a5,80004b20 <__divdf3+0x564>
80004830:	01fb1693          	sll	a3,s6,0x1f
80004834:	0019d713          	srl	a4,s3,0x1
80004838:	01f99e93          	sll	t4,s3,0x1f
8000483c:	001b5b13          	srl	s6,s6,0x1
80004840:	00e6e9b3          	or	s3,a3,a4
80004844:	00891513          	sll	a0,s2,0x8
80004848:	0187d693          	srl	a3,a5,0x18
8000484c:	00a6e6b3          	or	a3,a3,a0
80004850:	01055513          	srl	a0,a0,0x10
80004854:	02ab5333          	divu	t1,s6,a0
80004858:	01069893          	sll	a7,a3,0x10
8000485c:	0108d893          	srl	a7,a7,0x10
80004860:	00879593          	sll	a1,a5,0x8
80004864:	0109d793          	srl	a5,s3,0x10
80004868:	02ab7b33          	remu	s6,s6,a0
8000486c:	00030f13          	mv	t5,t1
80004870:	02688733          	mul	a4,a7,t1
80004874:	010b1b13          	sll	s6,s6,0x10
80004878:	0167e7b3          	or	a5,a5,s6
8000487c:	00e7fe63          	bgeu	a5,a4,80004898 <__divdf3+0x2dc>
80004880:	00f687b3          	add	a5,a3,a5
80004884:	fff30f13          	add	t5,t1,-1
80004888:	00d7e863          	bltu	a5,a3,80004898 <__divdf3+0x2dc>
8000488c:	00e7f663          	bgeu	a5,a4,80004898 <__divdf3+0x2dc>
80004890:	ffe30f13          	add	t5,t1,-2
80004894:	00d787b3          	add	a5,a5,a3
80004898:	40e787b3          	sub	a5,a5,a4
8000489c:	02a7de33          	divu	t3,a5,a0
800048a0:	01099713          	sll	a4,s3,0x10
800048a4:	01075713          	srl	a4,a4,0x10
800048a8:	02a7f7b3          	remu	a5,a5,a0
800048ac:	03c88333          	mul	t1,a7,t3
800048b0:	01079793          	sll	a5,a5,0x10
800048b4:	00f76733          	or	a4,a4,a5
800048b8:	000e0793          	mv	a5,t3
800048bc:	00677e63          	bgeu	a4,t1,800048d8 <__divdf3+0x31c>
800048c0:	00e68733          	add	a4,a3,a4
800048c4:	fffe0793          	add	a5,t3,-1 # 3fffff <__tcb_aligned_size+0x3fffbf>
800048c8:	00d76863          	bltu	a4,a3,800048d8 <__divdf3+0x31c>
800048cc:	00677663          	bgeu	a4,t1,800048d8 <__divdf3+0x31c>
800048d0:	ffee0793          	add	a5,t3,-2
800048d4:	00d70733          	add	a4,a4,a3
800048d8:	010f1f13          	sll	t5,t5,0x10
800048dc:	00010937          	lui	s2,0x10
800048e0:	00ff6f33          	or	t5,t5,a5
800048e4:	40670733          	sub	a4,a4,t1
800048e8:	fff90313          	add	t1,s2,-1 # ffff <__tcb_aligned_size+0xffbf>
800048ec:	006f77b3          	and	a5,t5,t1
800048f0:	010f5293          	srl	t0,t5,0x10
800048f4:	0105de13          	srl	t3,a1,0x10
800048f8:	0065f333          	and	t1,a1,t1
800048fc:	026783b3          	mul	t2,a5,t1
80004900:	026289b3          	mul	s3,t0,t1
80004904:	02fe07b3          	mul	a5,t3,a5
80004908:	01378fb3          	add	t6,a5,s3
8000490c:	0103d793          	srl	a5,t2,0x10
80004910:	01f787b3          	add	a5,a5,t6
80004914:	03c282b3          	mul	t0,t0,t3
80004918:	0137f463          	bgeu	a5,s3,80004920 <__divdf3+0x364>
8000491c:	012282b3          	add	t0,t0,s2
80004920:	0107df93          	srl	t6,a5,0x10
80004924:	005f8fb3          	add	t6,t6,t0
80004928:	000102b7          	lui	t0,0x10
8000492c:	fff28293          	add	t0,t0,-1 # ffff <__tcb_aligned_size+0xffbf>
80004930:	0057f7b3          	and	a5,a5,t0
80004934:	01079793          	sll	a5,a5,0x10
80004938:	0053f3b3          	and	t2,t2,t0
8000493c:	007787b3          	add	a5,a5,t2
80004940:	01f76863          	bltu	a4,t6,80004950 <__divdf3+0x394>
80004944:	000f0913          	mv	s2,t5
80004948:	05f71863          	bne	a4,t6,80004998 <__divdf3+0x3dc>
8000494c:	04fef663          	bgeu	t4,a5,80004998 <__divdf3+0x3dc>
80004950:	00be82b3          	add	t0,t4,a1
80004954:	01d2b3b3          	sltu	t2,t0,t4
80004958:	00d389b3          	add	s3,t2,a3
8000495c:	01370733          	add	a4,a4,s3
80004960:	ffff0913          	add	s2,t5,-1
80004964:	00028e93          	mv	t4,t0
80004968:	00e6e663          	bltu	a3,a4,80004974 <__divdf3+0x3b8>
8000496c:	02e69663          	bne	a3,a4,80004998 <__divdf3+0x3dc>
80004970:	02039463          	bnez	t2,80004998 <__divdf3+0x3dc>
80004974:	01f76663          	bltu	a4,t6,80004980 <__divdf3+0x3c4>
80004978:	02ef9063          	bne	t6,a4,80004998 <__divdf3+0x3dc>
8000497c:	00f2fe63          	bgeu	t0,a5,80004998 <__divdf3+0x3dc>
80004980:	005582b3          	add	t0,a1,t0
80004984:	ffef0913          	add	s2,t5,-2
80004988:	00b2bf33          	sltu	t5,t0,a1
8000498c:	00df0f33          	add	t5,t5,a3
80004990:	00028e93          	mv	t4,t0
80004994:	01e70733          	add	a4,a4,t5
80004998:	40fe8f33          	sub	t5,t4,a5
8000499c:	41f70733          	sub	a4,a4,t6
800049a0:	01eebeb3          	sltu	t4,t4,t5
800049a4:	41d70733          	sub	a4,a4,t4
800049a8:	fff00793          	li	a5,-1
800049ac:	12e68663          	beq	a3,a4,80004ad8 <__divdf3+0x51c>
800049b0:	02a752b3          	divu	t0,a4,a0
800049b4:	010f5793          	srl	a5,t5,0x10
800049b8:	02a77733          	remu	a4,a4,a0
800049bc:	00028e93          	mv	t4,t0
800049c0:	02588fb3          	mul	t6,a7,t0
800049c4:	01071713          	sll	a4,a4,0x10
800049c8:	00e7e7b3          	or	a5,a5,a4
800049cc:	01f7fe63          	bgeu	a5,t6,800049e8 <__divdf3+0x42c>
800049d0:	00f687b3          	add	a5,a3,a5
800049d4:	fff28e93          	add	t4,t0,-1
800049d8:	00d7e863          	bltu	a5,a3,800049e8 <__divdf3+0x42c>
800049dc:	01f7f663          	bgeu	a5,t6,800049e8 <__divdf3+0x42c>
800049e0:	ffe28e93          	add	t4,t0,-2
800049e4:	00d787b3          	add	a5,a5,a3
800049e8:	41f787b3          	sub	a5,a5,t6
800049ec:	02a7dfb3          	divu	t6,a5,a0
800049f0:	010f1713          	sll	a4,t5,0x10
800049f4:	01075713          	srl	a4,a4,0x10
800049f8:	02a7f7b3          	remu	a5,a5,a0
800049fc:	03f888b3          	mul	a7,a7,t6
80004a00:	01079793          	sll	a5,a5,0x10
80004a04:	00f767b3          	or	a5,a4,a5
80004a08:	000f8713          	mv	a4,t6
80004a0c:	0117fe63          	bgeu	a5,a7,80004a28 <__divdf3+0x46c>
80004a10:	00f687b3          	add	a5,a3,a5
80004a14:	ffff8713          	add	a4,t6,-1
80004a18:	00d7e863          	bltu	a5,a3,80004a28 <__divdf3+0x46c>
80004a1c:	0117f663          	bgeu	a5,a7,80004a28 <__divdf3+0x46c>
80004a20:	ffef8713          	add	a4,t6,-2
80004a24:	00d787b3          	add	a5,a5,a3
80004a28:	010e9513          	sll	a0,t4,0x10
80004a2c:	00e56533          	or	a0,a0,a4
80004a30:	01051713          	sll	a4,a0,0x10
80004a34:	01075713          	srl	a4,a4,0x10
80004a38:	411788b3          	sub	a7,a5,a7
80004a3c:	01055793          	srl	a5,a0,0x10
80004a40:	02e30eb3          	mul	t4,t1,a4
80004a44:	02678333          	mul	t1,a5,t1
80004a48:	02fe07b3          	mul	a5,t3,a5
80004a4c:	02ee0e33          	mul	t3,t3,a4
80004a50:	010ed713          	srl	a4,t4,0x10
80004a54:	006e0e33          	add	t3,t3,t1
80004a58:	01c70733          	add	a4,a4,t3
80004a5c:	00677663          	bgeu	a4,t1,80004a68 <__divdf3+0x4ac>
80004a60:	00010337          	lui	t1,0x10
80004a64:	006787b3          	add	a5,a5,t1
80004a68:	01075313          	srl	t1,a4,0x10
80004a6c:	00f30333          	add	t1,t1,a5
80004a70:	000107b7          	lui	a5,0x10
80004a74:	fff78793          	add	a5,a5,-1 # ffff <__tcb_aligned_size+0xffbf>
80004a78:	00f77733          	and	a4,a4,a5
80004a7c:	01071713          	sll	a4,a4,0x10
80004a80:	00fefeb3          	and	t4,t4,a5
80004a84:	01d70733          	add	a4,a4,t4
80004a88:	0068e863          	bltu	a7,t1,80004a98 <__divdf3+0x4dc>
80004a8c:	00050793          	mv	a5,a0
80004a90:	04689263          	bne	a7,t1,80004ad4 <__divdf3+0x518>
80004a94:	04070263          	beqz	a4,80004ad8 <__divdf3+0x51c>
80004a98:	011688b3          	add	a7,a3,a7
80004a9c:	fff50793          	add	a5,a0,-1
80004aa0:	00088e13          	mv	t3,a7
80004aa4:	02d8e463          	bltu	a7,a3,80004acc <__divdf3+0x510>
80004aa8:	0068e663          	bltu	a7,t1,80004ab4 <__divdf3+0x4f8>
80004aac:	02689463          	bne	a7,t1,80004ad4 <__divdf3+0x518>
80004ab0:	02e5f063          	bgeu	a1,a4,80004ad0 <__divdf3+0x514>
80004ab4:	ffe50793          	add	a5,a0,-2
80004ab8:	00159513          	sll	a0,a1,0x1
80004abc:	00b53e33          	sltu	t3,a0,a1
80004ac0:	00de0e33          	add	t3,t3,a3
80004ac4:	01c88e33          	add	t3,a7,t3
80004ac8:	00050593          	mv	a1,a0
80004acc:	006e1463          	bne	t3,t1,80004ad4 <__divdf3+0x518>
80004ad0:	00b70463          	beq	a4,a1,80004ad8 <__divdf3+0x51c>
80004ad4:	0017e793          	or	a5,a5,1
80004ad8:	3ff80713          	add	a4,a6,1023
80004adc:	18e05263          	blez	a4,80004c60 <__divdf3+0x6a4>
80004ae0:	0077f693          	and	a3,a5,7
80004ae4:	10068263          	beqz	a3,80004be8 <__divdf3+0x62c>
80004ae8:	00200693          	li	a3,2
80004aec:	00146413          	or	s0,s0,1
80004af0:	0ed48a63          	beq	s1,a3,80004be4 <__divdf3+0x628>
80004af4:	00300693          	li	a3,3
80004af8:	0ed48063          	beq	s1,a3,80004bd8 <__divdf3+0x61c>
80004afc:	0e049663          	bnez	s1,80004be8 <__divdf3+0x62c>
80004b00:	00f7f693          	and	a3,a5,15
80004b04:	00400593          	li	a1,4
80004b08:	0eb68063          	beq	a3,a1,80004be8 <__divdf3+0x62c>
80004b0c:	00478693          	add	a3,a5,4
80004b10:	00f6b5b3          	sltu	a1,a3,a5
80004b14:	00b90933          	add	s2,s2,a1
80004b18:	00068793          	mv	a5,a3
80004b1c:	0cc0006f          	j	80004be8 <__divdf3+0x62c>
80004b20:	fff80813          	add	a6,a6,-1
80004b24:	00000e93          	li	t4,0
80004b28:	d1dff06f          	j	80004844 <__divdf3+0x288>
80004b2c:	000a8613          	mv	a2,s5
80004b30:	00058b93          	mv	s7,a1
80004b34:	00100713          	li	a4,1
80004b38:	30eb8863          	beq	s7,a4,80004e48 <__divdf3+0x88c>
80004b3c:	f80b8ee3          	beqz	s7,80004ad8 <__divdf3+0x51c>
80004b40:	00200793          	li	a5,2
80004b44:	06fb8a63          	beq	s7,a5,80004bb8 <__divdf3+0x5fc>
80004b48:	00080537          	lui	a0,0x80
80004b4c:	00000793          	li	a5,0
80004b50:	7ff00713          	li	a4,2047
80004b54:	00000613          	li	a2,0
80004b58:	00c51513          	sll	a0,a0,0xc
80004b5c:	00c55513          	srl	a0,a0,0xc
80004b60:	01471713          	sll	a4,a4,0x14
80004b64:	00a76733          	or	a4,a4,a0
80004b68:	01f61613          	sll	a2,a2,0x1f
80004b6c:	00c766b3          	or	a3,a4,a2
80004b70:	00078513          	mv	a0,a5
80004b74:	00068593          	mv	a1,a3
80004b78:	00040463          	beqz	s0,80004b80 <__divdf3+0x5c4>
80004b7c:	00142073          	csrs	fflags,s0
80004b80:	02c12083          	lw	ra,44(sp)
80004b84:	02812403          	lw	s0,40(sp)
80004b88:	02412483          	lw	s1,36(sp)
80004b8c:	02012903          	lw	s2,32(sp)
80004b90:	01c12983          	lw	s3,28(sp)
80004b94:	01812a03          	lw	s4,24(sp)
80004b98:	01412a83          	lw	s5,20(sp)
80004b9c:	01012b03          	lw	s6,16(sp)
80004ba0:	00c12b83          	lw	s7,12(sp)
80004ba4:	00812c03          	lw	s8,8(sp)
80004ba8:	00412c83          	lw	s9,4(sp)
80004bac:	03010113          	add	sp,sp,48
80004bb0:	00008067          	ret
80004bb4:	00846413          	or	s0,s0,8
80004bb8:	00000513          	li	a0,0
80004bbc:	00000793          	li	a5,0
80004bc0:	7ff00713          	li	a4,2047
80004bc4:	f95ff06f          	j	80004b58 <__divdf3+0x59c>
80004bc8:	000a0613          	mv	a2,s4
80004bcc:	000b0913          	mv	s2,s6
80004bd0:	00098793          	mv	a5,s3
80004bd4:	f61ff06f          	j	80004b34 <__divdf3+0x578>
80004bd8:	00061863          	bnez	a2,80004be8 <__divdf3+0x62c>
80004bdc:	00878693          	add	a3,a5,8
80004be0:	f31ff06f          	j	80004b10 <__divdf3+0x554>
80004be4:	fe061ce3          	bnez	a2,80004bdc <__divdf3+0x620>
80004be8:	010006b7          	lui	a3,0x1000
80004bec:	00d976b3          	and	a3,s2,a3
80004bf0:	00068a63          	beqz	a3,80004c04 <__divdf3+0x648>
80004bf4:	ff000737          	lui	a4,0xff000
80004bf8:	fff70713          	add	a4,a4,-1 # feffffff <__BSS_END__+0x7eff683f>
80004bfc:	00e97933          	and	s2,s2,a4
80004c00:	40080713          	add	a4,a6,1024
80004c04:	7fe00693          	li	a3,2046
80004c08:	00e6cc63          	blt	a3,a4,80004c20 <__divdf3+0x664>
80004c0c:	0037d693          	srl	a3,a5,0x3
80004c10:	01d91793          	sll	a5,s2,0x1d
80004c14:	00d7e7b3          	or	a5,a5,a3
80004c18:	00395513          	srl	a0,s2,0x3
80004c1c:	f3dff06f          	j	80004b58 <__divdf3+0x59c>
80004c20:	00200793          	li	a5,2
80004c24:	02f48a63          	beq	s1,a5,80004c58 <__divdf3+0x69c>
80004c28:	00300793          	li	a5,3
80004c2c:	00f48a63          	beq	s1,a5,80004c40 <__divdf3+0x684>
80004c30:	00048a63          	beqz	s1,80004c44 <__divdf3+0x688>
80004c34:	fff00793          	li	a5,-1
80004c38:	7fe00713          	li	a4,2046
80004c3c:	0100006f          	j	80004c4c <__divdf3+0x690>
80004c40:	fe061ae3          	bnez	a2,80004c34 <__divdf3+0x678>
80004c44:	00000793          	li	a5,0
80004c48:	7ff00713          	li	a4,2047
80004c4c:	00546413          	or	s0,s0,5
80004c50:	00078513          	mv	a0,a5
80004c54:	f05ff06f          	j	80004b58 <__divdf3+0x59c>
80004c58:	fc060ee3          	beqz	a2,80004c34 <__divdf3+0x678>
80004c5c:	fe9ff06f          	j	80004c44 <__divdf3+0x688>
80004c60:	0c071263          	bnez	a4,80004d24 <__divdf3+0x768>
80004c64:	0077f693          	and	a3,a5,7
80004c68:	00090713          	mv	a4,s2
80004c6c:	04068463          	beqz	a3,80004cb4 <__divdf3+0x6f8>
80004c70:	00200693          	li	a3,2
80004c74:	00146413          	or	s0,s0,1
80004c78:	02d48c63          	beq	s1,a3,80004cb0 <__divdf3+0x6f4>
80004c7c:	00300693          	li	a3,3
80004c80:	02d48263          	beq	s1,a3,80004ca4 <__divdf3+0x6e8>
80004c84:	02049863          	bnez	s1,80004cb4 <__divdf3+0x6f8>
80004c88:	00f7f693          	and	a3,a5,15
80004c8c:	00400593          	li	a1,4
80004c90:	02b68263          	beq	a3,a1,80004cb4 <__divdf3+0x6f8>
80004c94:	ffc7b713          	sltiu	a4,a5,-4
80004c98:	00174713          	xor	a4,a4,1
80004c9c:	01270733          	add	a4,a4,s2
80004ca0:	0140006f          	j	80004cb4 <__divdf3+0x6f8>
80004ca4:	00061863          	bnez	a2,80004cb4 <__divdf3+0x6f8>
80004ca8:	ff87b713          	sltiu	a4,a5,-8
80004cac:	fedff06f          	j	80004c98 <__divdf3+0x6dc>
80004cb0:	fe061ce3          	bnez	a2,80004ca8 <__divdf3+0x6ec>
80004cb4:	01875713          	srl	a4,a4,0x18
80004cb8:	00174713          	xor	a4,a4,1
80004cbc:	00177713          	and	a4,a4,1
80004cc0:	00100513          	li	a0,1
80004cc4:	41e80813          	add	a6,a6,1054
80004cc8:	00a7d6b3          	srl	a3,a5,a0
80004ccc:	010797b3          	sll	a5,a5,a6
80004cd0:	00f037b3          	snez	a5,a5
80004cd4:	01091833          	sll	a6,s2,a6
80004cd8:	0107e7b3          	or	a5,a5,a6
80004cdc:	00f6e7b3          	or	a5,a3,a5
80004ce0:	00a95533          	srl	a0,s2,a0
80004ce4:	0077f693          	and	a3,a5,7
80004ce8:	0a068263          	beqz	a3,80004d8c <__divdf3+0x7d0>
80004cec:	00200693          	li	a3,2
80004cf0:	00146413          	or	s0,s0,1
80004cf4:	08d48a63          	beq	s1,a3,80004d88 <__divdf3+0x7cc>
80004cf8:	00300693          	li	a3,3
80004cfc:	08d48063          	beq	s1,a3,80004d7c <__divdf3+0x7c0>
80004d00:	08049663          	bnez	s1,80004d8c <__divdf3+0x7d0>
80004d04:	00f7f693          	and	a3,a5,15
80004d08:	00400593          	li	a1,4
80004d0c:	08b68063          	beq	a3,a1,80004d8c <__divdf3+0x7d0>
80004d10:	00478693          	add	a3,a5,4
80004d14:	00f6b5b3          	sltu	a1,a3,a5
80004d18:	00b50533          	add	a0,a0,a1
80004d1c:	00068793          	mv	a5,a3
80004d20:	06c0006f          	j	80004d8c <__divdf3+0x7d0>
80004d24:	00100513          	li	a0,1
80004d28:	40e50533          	sub	a0,a0,a4
80004d2c:	03800693          	li	a3,56
80004d30:	0aa6c463          	blt	a3,a0,80004dd8 <__divdf3+0x81c>
80004d34:	01f00693          	li	a3,31
80004d38:	00a6c663          	blt	a3,a0,80004d44 <__divdf3+0x788>
80004d3c:	00100713          	li	a4,1
80004d40:	f85ff06f          	j	80004cc4 <__divdf3+0x708>
80004d44:	fe100693          	li	a3,-31
80004d48:	40e68733          	sub	a4,a3,a4
80004d4c:	02000593          	li	a1,32
80004d50:	00e95733          	srl	a4,s2,a4
80004d54:	00000693          	li	a3,0
80004d58:	00b50663          	beq	a0,a1,80004d64 <__divdf3+0x7a8>
80004d5c:	43e80813          	add	a6,a6,1086
80004d60:	010916b3          	sll	a3,s2,a6
80004d64:	00f6e6b3          	or	a3,a3,a5
80004d68:	00d036b3          	snez	a3,a3
80004d6c:	00d767b3          	or	a5,a4,a3
80004d70:	00000513          	li	a0,0
80004d74:	00100713          	li	a4,1
80004d78:	f6dff06f          	j	80004ce4 <__divdf3+0x728>
80004d7c:	00061863          	bnez	a2,80004d8c <__divdf3+0x7d0>
80004d80:	00878693          	add	a3,a5,8
80004d84:	f91ff06f          	j	80004d14 <__divdf3+0x758>
80004d88:	fe061ce3          	bnez	a2,80004d80 <__divdf3+0x7c4>
80004d8c:	008006b7          	lui	a3,0x800
80004d90:	00d576b3          	and	a3,a0,a3
80004d94:	00068e63          	beqz	a3,80004db0 <__divdf3+0x7f4>
80004d98:	00146413          	or	s0,s0,1
80004d9c:	00000513          	li	a0,0
80004da0:	00000793          	li	a5,0
80004da4:	02071663          	bnez	a4,80004dd0 <__divdf3+0x814>
80004da8:	00100713          	li	a4,1
80004dac:	dadff06f          	j	80004b58 <__divdf3+0x59c>
80004db0:	0037d693          	srl	a3,a5,0x3
80004db4:	01d51793          	sll	a5,a0,0x1d
80004db8:	00d7e7b3          	or	a5,a5,a3
80004dbc:	00355513          	srl	a0,a0,0x3
80004dc0:	d8070ce3          	beqz	a4,80004b58 <__divdf3+0x59c>
80004dc4:	00147713          	and	a4,s0,1
80004dc8:	d80708e3          	beqz	a4,80004b58 <__divdf3+0x59c>
80004dcc:	00000713          	li	a4,0
80004dd0:	00246413          	or	s0,s0,2
80004dd4:	d85ff06f          	j	80004b58 <__divdf3+0x59c>
80004dd8:	0127e7b3          	or	a5,a5,s2
80004ddc:	02078463          	beqz	a5,80004e04 <__divdf3+0x848>
80004de0:	00200793          	li	a5,2
80004de4:	00146413          	or	s0,s0,1
80004de8:	02f48e63          	beq	s1,a5,80004e24 <__divdf3+0x868>
80004dec:	00300793          	li	a5,3
80004df0:	02f48263          	beq	s1,a5,80004e14 <__divdf3+0x858>
80004df4:	00500793          	li	a5,5
80004df8:	00048463          	beqz	s1,80004e00 <__divdf3+0x844>
80004dfc:	00100793          	li	a5,1
80004e00:	0037d793          	srl	a5,a5,0x3
80004e04:	00246413          	or	s0,s0,2
80004e08:	00000513          	li	a0,0
80004e0c:	00000713          	li	a4,0
80004e10:	d49ff06f          	j	80004b58 <__divdf3+0x59c>
80004e14:	00100793          	li	a5,1
80004e18:	fe0614e3          	bnez	a2,80004e00 <__divdf3+0x844>
80004e1c:	00900793          	li	a5,9
80004e20:	fe1ff06f          	j	80004e00 <__divdf3+0x844>
80004e24:	00100793          	li	a5,1
80004e28:	fc060ce3          	beqz	a2,80004e00 <__divdf3+0x844>
80004e2c:	ff1ff06f          	j	80004e1c <__divdf3+0x860>
80004e30:	00080537          	lui	a0,0x80
80004e34:	00000793          	li	a5,0
80004e38:	7ff00713          	li	a4,2047
80004e3c:	00000613          	li	a2,0
80004e40:	01000413          	li	s0,16
80004e44:	d15ff06f          	j	80004b58 <__divdf3+0x59c>
80004e48:	00000513          	li	a0,0
80004e4c:	00000793          	li	a5,0
80004e50:	fbdff06f          	j	80004e0c <__divdf3+0x850>

80004e54 <__eqdf2>:
80004e54:	00050713          	mv	a4,a0
80004e58:	002027f3          	frrm	a5
80004e5c:	001007b7          	lui	a5,0x100
80004e60:	0145d813          	srl	a6,a1,0x14
80004e64:	fff78793          	add	a5,a5,-1 # fffff <__tcb_aligned_size+0xfffbf>
80004e68:	0146d313          	srl	t1,a3,0x14
80004e6c:	7ff87813          	and	a6,a6,2047
80004e70:	7ff00513          	li	a0,2047
80004e74:	00b7f8b3          	and	a7,a5,a1
80004e78:	7ff37313          	and	t1,t1,2047
80004e7c:	00d7f7b3          	and	a5,a5,a3
80004e80:	01f5d593          	srl	a1,a1,0x1f
80004e84:	01f6d693          	srl	a3,a3,0x1f
80004e88:	02a81463          	bne	a6,a0,80004eb0 <__eqdf2+0x5c>
80004e8c:	00e8e733          	or	a4,a7,a4
80004e90:	02071a63          	bnez	a4,80004ec4 <__eqdf2+0x70>
80004e94:	00100513          	li	a0,1
80004e98:	07031e63          	bne	t1,a6,80004f14 <__eqdf2+0xc0>
80004e9c:	00c7e633          	or	a2,a5,a2
80004ea0:	02061e63          	bnez	a2,80004edc <__eqdf2+0x88>
80004ea4:	40d585b3          	sub	a1,a1,a3
80004ea8:	00b03533          	snez	a0,a1
80004eac:	00008067          	ret
80004eb0:	02a31e63          	bne	t1,a0,80004eec <__eqdf2+0x98>
80004eb4:	00c7e633          	or	a2,a5,a2
80004eb8:	02061263          	bnez	a2,80004edc <__eqdf2+0x88>
80004ebc:	00100513          	li	a0,1
80004ec0:	00008067          	ret
80004ec4:	00080737          	lui	a4,0x80
80004ec8:	00e8ee63          	bltu	a7,a4,80004ee4 <__eqdf2+0x90>
80004ecc:	00100513          	li	a0,1
80004ed0:	05031263          	bne	t1,a6,80004f14 <__eqdf2+0xc0>
80004ed4:	00c7e633          	or	a2,a5,a2
80004ed8:	02060e63          	beqz	a2,80004f14 <__eqdf2+0xc0>
80004edc:	00080737          	lui	a4,0x80
80004ee0:	fce7fee3          	bgeu	a5,a4,80004ebc <__eqdf2+0x68>
80004ee4:	00186073          	csrs	fflags,16
80004ee8:	fd5ff06f          	j	80004ebc <__eqdf2+0x68>
80004eec:	00100513          	li	a0,1
80004ef0:	02681263          	bne	a6,t1,80004f14 <__eqdf2+0xc0>
80004ef4:	02f89063          	bne	a7,a5,80004f14 <__eqdf2+0xc0>
80004ef8:	00c71e63          	bne	a4,a2,80004f14 <__eqdf2+0xc0>
80004efc:	00d58a63          	beq	a1,a3,80004f10 <__eqdf2+0xbc>
80004f00:	00081a63          	bnez	a6,80004f14 <__eqdf2+0xc0>
80004f04:	00e8e8b3          	or	a7,a7,a4
80004f08:	01103533          	snez	a0,a7
80004f0c:	00008067          	ret
80004f10:	00000513          	li	a0,0
80004f14:	00008067          	ret

80004f18 <__gedf2>:
80004f18:	00050813          	mv	a6,a0
80004f1c:	002027f3          	frrm	a5
80004f20:	00100737          	lui	a4,0x100
80004f24:	0146d793          	srl	a5,a3,0x14
80004f28:	0145d313          	srl	t1,a1,0x14
80004f2c:	fff70713          	add	a4,a4,-1 # fffff <__tcb_aligned_size+0xfffbf>
80004f30:	00050e13          	mv	t3,a0
80004f34:	7ff37313          	and	t1,t1,2047
80004f38:	7ff7f513          	and	a0,a5,2047
80004f3c:	7ff00793          	li	a5,2047
80004f40:	00b778b3          	and	a7,a4,a1
80004f44:	00060e93          	mv	t4,a2
80004f48:	00d77733          	and	a4,a4,a3
80004f4c:	01f5d593          	srl	a1,a1,0x1f
80004f50:	01f6d693          	srl	a3,a3,0x1f
80004f54:	02f31a63          	bne	t1,a5,80004f88 <__gedf2+0x70>
80004f58:	0108e8b3          	or	a7,a7,a6
80004f5c:	0c089063          	bnez	a7,8000501c <__gedf2+0x104>
80004f60:	00650a63          	beq	a0,t1,80004f74 <__gedf2+0x5c>
80004f64:	00100513          	li	a0,1
80004f68:	0a058863          	beqz	a1,80005018 <__gedf2+0x100>
80004f6c:	fff00513          	li	a0,-1
80004f70:	00008067          	ret
80004f74:	00c76733          	or	a4,a4,a2
80004f78:	0a071263          	bnez	a4,8000501c <__gedf2+0x104>
80004f7c:	fed594e3          	bne	a1,a3,80004f64 <__gedf2+0x4c>
80004f80:	00000513          	li	a0,0
80004f84:	00008067          	ret
80004f88:	02f51e63          	bne	a0,a5,80004fc4 <__gedf2+0xac>
80004f8c:	00c76733          	or	a4,a4,a2
80004f90:	08071663          	bnez	a4,8000501c <__gedf2+0x104>
80004f94:	00030c63          	beqz	t1,80004fac <__gedf2+0x94>
80004f98:	fcd596e3          	bne	a1,a3,80004f64 <__gedf2+0x4c>
80004f9c:	fff00513          	li	a0,-1
80004fa0:	06058c63          	beqz	a1,80005018 <__gedf2+0x100>
80004fa4:	00058513          	mv	a0,a1
80004fa8:	00008067          	ret
80004fac:	0108e8b3          	or	a7,a7,a6
80004fb0:	fe0894e3          	bnez	a7,80004f98 <__gedf2+0x80>
80004fb4:	fff00513          	li	a0,-1
80004fb8:	06068063          	beqz	a3,80005018 <__gedf2+0x100>
80004fbc:	00068513          	mv	a0,a3
80004fc0:	00008067          	ret
80004fc4:	02030663          	beqz	t1,80004ff0 <__gedf2+0xd8>
80004fc8:	f8050ee3          	beqz	a0,80004f64 <__gedf2+0x4c>
80004fcc:	f8d59ce3          	bne	a1,a3,80004f64 <__gedf2+0x4c>
80004fd0:	f8654ae3          	blt	a0,t1,80004f64 <__gedf2+0x4c>
80004fd4:	fca344e3          	blt	t1,a0,80004f9c <__gedf2+0x84>
80004fd8:	f91766e3          	bltu	a4,a7,80004f64 <__gedf2+0x4c>
80004fdc:	fce890e3          	bne	a7,a4,80004f9c <__gedf2+0x84>
80004fe0:	f9cee2e3          	bltu	t4,t3,80004f64 <__gedf2+0x4c>
80004fe4:	00000513          	li	a0,0
80004fe8:	03de7863          	bgeu	t3,t4,80005018 <__gedf2+0x100>
80004fec:	fb1ff06f          	j	80004f9c <__gedf2+0x84>
80004ff0:	0108e833          	or	a6,a7,a6
80004ff4:	00050663          	beqz	a0,80005000 <__gedf2+0xe8>
80004ff8:	fa080ee3          	beqz	a6,80004fb4 <__gedf2+0x9c>
80004ffc:	f9dff06f          	j	80004f98 <__gedf2+0x80>
80005000:	00c76633          	or	a2,a4,a2
80005004:	00060863          	beqz	a2,80005014 <__gedf2+0xfc>
80005008:	fa0806e3          	beqz	a6,80004fb4 <__gedf2+0x9c>
8000500c:	fcd586e3          	beq	a1,a3,80004fd8 <__gedf2+0xc0>
80005010:	f55ff06f          	j	80004f64 <__gedf2+0x4c>
80005014:	f40818e3          	bnez	a6,80004f64 <__gedf2+0x4c>
80005018:	00008067          	ret
8000501c:	00186073          	csrs	fflags,16
80005020:	ffe00513          	li	a0,-2
80005024:	00008067          	ret

80005028 <__ledf2>:
80005028:	00050813          	mv	a6,a0
8000502c:	002027f3          	frrm	a5
80005030:	00100737          	lui	a4,0x100
80005034:	0146d793          	srl	a5,a3,0x14
80005038:	0145d313          	srl	t1,a1,0x14
8000503c:	fff70713          	add	a4,a4,-1 # fffff <__tcb_aligned_size+0xfffbf>
80005040:	00050e13          	mv	t3,a0
80005044:	7ff37313          	and	t1,t1,2047
80005048:	7ff7f513          	and	a0,a5,2047
8000504c:	7ff00793          	li	a5,2047
80005050:	00b778b3          	and	a7,a4,a1
80005054:	00060e93          	mv	t4,a2
80005058:	00d77733          	and	a4,a4,a3
8000505c:	01f5d593          	srl	a1,a1,0x1f
80005060:	01f6d693          	srl	a3,a3,0x1f
80005064:	02f31a63          	bne	t1,a5,80005098 <__ledf2+0x70>
80005068:	0108e8b3          	or	a7,a7,a6
8000506c:	0c089063          	bnez	a7,8000512c <__ledf2+0x104>
80005070:	00650a63          	beq	a0,t1,80005084 <__ledf2+0x5c>
80005074:	00100513          	li	a0,1
80005078:	0a058863          	beqz	a1,80005128 <__ledf2+0x100>
8000507c:	fff00513          	li	a0,-1
80005080:	00008067          	ret
80005084:	00c76733          	or	a4,a4,a2
80005088:	0a071263          	bnez	a4,8000512c <__ledf2+0x104>
8000508c:	fed594e3          	bne	a1,a3,80005074 <__ledf2+0x4c>
80005090:	00000513          	li	a0,0
80005094:	00008067          	ret
80005098:	02f51e63          	bne	a0,a5,800050d4 <__ledf2+0xac>
8000509c:	00c76733          	or	a4,a4,a2
800050a0:	08071663          	bnez	a4,8000512c <__ledf2+0x104>
800050a4:	00030c63          	beqz	t1,800050bc <__ledf2+0x94>
800050a8:	fcd596e3          	bne	a1,a3,80005074 <__ledf2+0x4c>
800050ac:	fff00513          	li	a0,-1
800050b0:	06058c63          	beqz	a1,80005128 <__ledf2+0x100>
800050b4:	00058513          	mv	a0,a1
800050b8:	00008067          	ret
800050bc:	0108e8b3          	or	a7,a7,a6
800050c0:	fe0894e3          	bnez	a7,800050a8 <__ledf2+0x80>
800050c4:	fff00513          	li	a0,-1
800050c8:	06068063          	beqz	a3,80005128 <__ledf2+0x100>
800050cc:	00068513          	mv	a0,a3
800050d0:	00008067          	ret
800050d4:	02030663          	beqz	t1,80005100 <__ledf2+0xd8>
800050d8:	f8050ee3          	beqz	a0,80005074 <__ledf2+0x4c>
800050dc:	f8d59ce3          	bne	a1,a3,80005074 <__ledf2+0x4c>
800050e0:	f8654ae3          	blt	a0,t1,80005074 <__ledf2+0x4c>
800050e4:	fca344e3          	blt	t1,a0,800050ac <__ledf2+0x84>
800050e8:	f91766e3          	bltu	a4,a7,80005074 <__ledf2+0x4c>
800050ec:	fce890e3          	bne	a7,a4,800050ac <__ledf2+0x84>
800050f0:	f9cee2e3          	bltu	t4,t3,80005074 <__ledf2+0x4c>
800050f4:	00000513          	li	a0,0
800050f8:	03de7863          	bgeu	t3,t4,80005128 <__ledf2+0x100>
800050fc:	fb1ff06f          	j	800050ac <__ledf2+0x84>
80005100:	0108e833          	or	a6,a7,a6
80005104:	00050663          	beqz	a0,80005110 <__ledf2+0xe8>
80005108:	fa080ee3          	beqz	a6,800050c4 <__ledf2+0x9c>
8000510c:	f9dff06f          	j	800050a8 <__ledf2+0x80>
80005110:	00c76633          	or	a2,a4,a2
80005114:	00060863          	beqz	a2,80005124 <__ledf2+0xfc>
80005118:	fa0806e3          	beqz	a6,800050c4 <__ledf2+0x9c>
8000511c:	fcd586e3          	beq	a1,a3,800050e8 <__ledf2+0xc0>
80005120:	f55ff06f          	j	80005074 <__ledf2+0x4c>
80005124:	f40818e3          	bnez	a6,80005074 <__ledf2+0x4c>
80005128:	00008067          	ret
8000512c:	00186073          	csrs	fflags,16
80005130:	00200513          	li	a0,2
80005134:	00008067          	ret

80005138 <__muldf3>:
80005138:	fd010113          	add	sp,sp,-48
8000513c:	02812423          	sw	s0,40(sp)
80005140:	01512a23          	sw	s5,20(sp)
80005144:	01812423          	sw	s8,8(sp)
80005148:	02112623          	sw	ra,44(sp)
8000514c:	02912223          	sw	s1,36(sp)
80005150:	03212023          	sw	s2,32(sp)
80005154:	01312e23          	sw	s3,28(sp)
80005158:	01412c23          	sw	s4,24(sp)
8000515c:	01612823          	sw	s6,16(sp)
80005160:	01712623          	sw	s7,12(sp)
80005164:	01912223          	sw	s9,4(sp)
80005168:	00050413          	mv	s0,a0
8000516c:	00060c13          	mv	s8,a2
80005170:	00068a93          	mv	s5,a3
80005174:	00202973          	frrm	s2
80005178:	0145db93          	srl	s7,a1,0x14
8000517c:	00c59993          	sll	s3,a1,0xc
80005180:	7ffbfb93          	and	s7,s7,2047
80005184:	00c9d993          	srl	s3,s3,0xc
80005188:	01f5db13          	srl	s6,a1,0x1f
8000518c:	020b8a63          	beqz	s7,800051c0 <__muldf3+0x88>
80005190:	7ff00793          	li	a5,2047
80005194:	08fb8c63          	beq	s7,a5,8000522c <__muldf3+0xf4>
80005198:	00399993          	sll	s3,s3,0x3
8000519c:	01d55793          	srl	a5,a0,0x1d
800051a0:	0137e7b3          	or	a5,a5,s3
800051a4:	008009b7          	lui	s3,0x800
800051a8:	0137e9b3          	or	s3,a5,s3
800051ac:	00351a13          	sll	s4,a0,0x3
800051b0:	c01b8b93          	add	s7,s7,-1023
800051b4:	00000c93          	li	s9,0
800051b8:	00000493          	li	s1,0
800051bc:	0900006f          	j	8000524c <__muldf3+0x114>
800051c0:	00a9ea33          	or	s4,s3,a0
800051c4:	120a0263          	beqz	s4,800052e8 <__muldf3+0x1b0>
800051c8:	04098063          	beqz	s3,80005208 <__muldf3+0xd0>
800051cc:	00098513          	mv	a0,s3
800051d0:	ee9fd0ef          	jal	800030b8 <__clzsi2>
800051d4:	ff550713          	add	a4,a0,-11 # 7fff5 <__tcb_aligned_size+0x7ffb5>
800051d8:	01d00793          	li	a5,29
800051dc:	ff850693          	add	a3,a0,-8
800051e0:	40e787b3          	sub	a5,a5,a4
800051e4:	00d999b3          	sll	s3,s3,a3
800051e8:	00f457b3          	srl	a5,s0,a5
800051ec:	0137e7b3          	or	a5,a5,s3
800051f0:	00d419b3          	sll	s3,s0,a3
800051f4:	c0d00b93          	li	s7,-1011
800051f8:	00098a13          	mv	s4,s3
800051fc:	40ab8bb3          	sub	s7,s7,a0
80005200:	00078993          	mv	s3,a5
80005204:	fb1ff06f          	j	800051b4 <__muldf3+0x7c>
80005208:	eb1fd0ef          	jal	800030b8 <__clzsi2>
8000520c:	00050793          	mv	a5,a0
80005210:	01578713          	add	a4,a5,21
80005214:	01c00693          	li	a3,28
80005218:	02050513          	add	a0,a0,32
8000521c:	fae6dee3          	bge	a3,a4,800051d8 <__muldf3+0xa0>
80005220:	ff878793          	add	a5,a5,-8
80005224:	00f417b3          	sll	a5,s0,a5
80005228:	fcdff06f          	j	800051f4 <__muldf3+0xbc>
8000522c:	00a9ea33          	or	s4,s3,a0
80005230:	0c0a0463          	beqz	s4,800052f8 <__muldf3+0x1c0>
80005234:	000804b7          	lui	s1,0x80
80005238:	0099b4b3          	sltu	s1,s3,s1
8000523c:	00449493          	sll	s1,s1,0x4
80005240:	00050a13          	mv	s4,a0
80005244:	7ff00b93          	li	s7,2047
80005248:	00300c93          	li	s9,3
8000524c:	014ad713          	srl	a4,s5,0x14
80005250:	00ca9413          	sll	s0,s5,0xc
80005254:	7ff77713          	and	a4,a4,2047
80005258:	000c0793          	mv	a5,s8
8000525c:	00c45413          	srl	s0,s0,0xc
80005260:	01fada93          	srl	s5,s5,0x1f
80005264:	0a070263          	beqz	a4,80005308 <__muldf3+0x1d0>
80005268:	7ff00693          	li	a3,2047
8000526c:	10d70663          	beq	a4,a3,80005378 <__muldf3+0x240>
80005270:	00341413          	sll	s0,s0,0x3
80005274:	01dc5793          	srl	a5,s8,0x1d
80005278:	0087e7b3          	or	a5,a5,s0
8000527c:	00800437          	lui	s0,0x800
80005280:	0087e433          	or	s0,a5,s0
80005284:	c0170693          	add	a3,a4,-1023
80005288:	003c1793          	sll	a5,s8,0x3
8000528c:	00000593          	li	a1,0
80005290:	002c9713          	sll	a4,s9,0x2
80005294:	00db8bb3          	add	s7,s7,a3
80005298:	00b76733          	or	a4,a4,a1
8000529c:	00a00693          	li	a3,10
800052a0:	015b4833          	xor	a6,s6,s5
800052a4:	001b8893          	add	a7,s7,1
800052a8:	32e6cc63          	blt	a3,a4,800055e0 <__muldf3+0x4a8>
800052ac:	00200693          	li	a3,2
800052b0:	10e6c863          	blt	a3,a4,800053c0 <__muldf3+0x288>
800052b4:	fff70713          	add	a4,a4,-1
800052b8:	00100693          	li	a3,1
800052bc:	12e6e263          	bltu	a3,a4,800053e0 <__muldf3+0x2a8>
800052c0:	00058c93          	mv	s9,a1
800052c4:	00200713          	li	a4,2
800052c8:	60ec8663          	beq	s9,a4,800058d4 <__muldf3+0x79c>
800052cc:	00300713          	li	a4,3
800052d0:	60ec8a63          	beq	s9,a4,800058e4 <__muldf3+0x7ac>
800052d4:	00100713          	li	a4,1
800052d8:	2cec9063          	bne	s9,a4,80005598 <__muldf3+0x460>
800052dc:	00000693          	li	a3,0
800052e0:	00000613          	li	a2,0
800052e4:	5b80006f          	j	8000589c <__muldf3+0x764>
800052e8:	00000993          	li	s3,0
800052ec:	00000b93          	li	s7,0
800052f0:	00100c93          	li	s9,1
800052f4:	ec5ff06f          	j	800051b8 <__muldf3+0x80>
800052f8:	00000993          	li	s3,0
800052fc:	7ff00b93          	li	s7,2047
80005300:	00200c93          	li	s9,2
80005304:	eb5ff06f          	j	800051b8 <__muldf3+0x80>
80005308:	018467b3          	or	a5,s0,s8
8000530c:	08078663          	beqz	a5,80005398 <__muldf3+0x260>
80005310:	04040063          	beqz	s0,80005350 <__muldf3+0x218>
80005314:	00040513          	mv	a0,s0
80005318:	da1fd0ef          	jal	800030b8 <__clzsi2>
8000531c:	ff550693          	add	a3,a0,-11
80005320:	01d00713          	li	a4,29
80005324:	ff850793          	add	a5,a0,-8
80005328:	40d70733          	sub	a4,a4,a3
8000532c:	00f41433          	sll	s0,s0,a5
80005330:	00ec5733          	srl	a4,s8,a4
80005334:	00876733          	or	a4,a4,s0
80005338:	00fc1433          	sll	s0,s8,a5
8000533c:	c0d00693          	li	a3,-1011
80005340:	00040793          	mv	a5,s0
80005344:	40a686b3          	sub	a3,a3,a0
80005348:	00070413          	mv	s0,a4
8000534c:	f41ff06f          	j	8000528c <__muldf3+0x154>
80005350:	000c0513          	mv	a0,s8
80005354:	d65fd0ef          	jal	800030b8 <__clzsi2>
80005358:	00050793          	mv	a5,a0
8000535c:	01578693          	add	a3,a5,21
80005360:	01c00713          	li	a4,28
80005364:	02050513          	add	a0,a0,32
80005368:	fad75ce3          	bge	a4,a3,80005320 <__muldf3+0x1e8>
8000536c:	ff878793          	add	a5,a5,-8
80005370:	00fc1733          	sll	a4,s8,a5
80005374:	fc9ff06f          	j	8000533c <__muldf3+0x204>
80005378:	01846c33          	or	s8,s0,s8
8000537c:	020c0863          	beqz	s8,800053ac <__muldf3+0x274>
80005380:	00080737          	lui	a4,0x80
80005384:	7ff00693          	li	a3,2047
80005388:	00300593          	li	a1,3
8000538c:	f0e472e3          	bgeu	s0,a4,80005290 <__muldf3+0x158>
80005390:	01000493          	li	s1,16
80005394:	efdff06f          	j	80005290 <__muldf3+0x158>
80005398:	00000413          	li	s0,0
8000539c:	00000793          	li	a5,0
800053a0:	00000693          	li	a3,0
800053a4:	00100593          	li	a1,1
800053a8:	ee9ff06f          	j	80005290 <__muldf3+0x158>
800053ac:	00000413          	li	s0,0
800053b0:	00000793          	li	a5,0
800053b4:	7ff00693          	li	a3,2047
800053b8:	00200593          	li	a1,2
800053bc:	ed5ff06f          	j	80005290 <__muldf3+0x158>
800053c0:	00100693          	li	a3,1
800053c4:	00e69733          	sll	a4,a3,a4
800053c8:	53077613          	and	a2,a4,1328
800053cc:	22061463          	bnez	a2,800055f4 <__muldf3+0x4bc>
800053d0:	24077693          	and	a3,a4,576
800053d4:	4e069663          	bnez	a3,800058c0 <__muldf3+0x788>
800053d8:	08877713          	and	a4,a4,136
800053dc:	22071263          	bnez	a4,80005600 <__muldf3+0x4c8>
800053e0:	00010337          	lui	t1,0x10
800053e4:	fff30593          	add	a1,t1,-1 # ffff <__tcb_aligned_size+0xffbf>
800053e8:	010a5713          	srl	a4,s4,0x10
800053ec:	0107d513          	srl	a0,a5,0x10
800053f0:	00ba7a33          	and	s4,s4,a1
800053f4:	00b7f2b3          	and	t0,a5,a1
800053f8:	034287b3          	mul	a5,t0,s4
800053fc:	02570e33          	mul	t3,a4,t0
80005400:	0107d613          	srl	a2,a5,0x10
80005404:	034506b3          	mul	a3,a0,s4
80005408:	01c686b3          	add	a3,a3,t3
8000540c:	00d60633          	add	a2,a2,a3
80005410:	02a70eb3          	mul	t4,a4,a0
80005414:	01c67463          	bgeu	a2,t3,8000541c <__muldf3+0x2e4>
80005418:	006e8eb3          	add	t4,t4,t1
8000541c:	01065693          	srl	a3,a2,0x10
80005420:	00b67633          	and	a2,a2,a1
80005424:	00b7f7b3          	and	a5,a5,a1
80005428:	01045f13          	srl	t5,s0,0x10
8000542c:	00b475b3          	and	a1,s0,a1
80005430:	01061613          	sll	a2,a2,0x10
80005434:	00f60633          	add	a2,a2,a5
80005438:	02ba0433          	mul	s0,s4,a1
8000543c:	02b707b3          	mul	a5,a4,a1
80005440:	034f0a33          	mul	s4,t5,s4
80005444:	03e70e33          	mul	t3,a4,t5
80005448:	00fa0a33          	add	s4,s4,a5
8000544c:	01045713          	srl	a4,s0,0x10
80005450:	01470733          	add	a4,a4,s4
80005454:	00f77663          	bgeu	a4,a5,80005460 <__muldf3+0x328>
80005458:	000107b7          	lui	a5,0x10
8000545c:	00fe0e33          	add	t3,t3,a5
80005460:	000103b7          	lui	t2,0x10
80005464:	fff38f93          	add	t6,t2,-1 # ffff <__tcb_aligned_size+0xffbf>
80005468:	01f777b3          	and	a5,a4,t6
8000546c:	01075313          	srl	t1,a4,0x10
80005470:	01f47433          	and	s0,s0,t6
80005474:	01c30333          	add	t1,t1,t3
80005478:	01f9ffb3          	and	t6,s3,t6
8000547c:	0109de13          	srl	t3,s3,0x10
80005480:	01079793          	sll	a5,a5,0x10
80005484:	008787b3          	add	a5,a5,s0
80005488:	03c509b3          	mul	s3,a0,t3
8000548c:	00f686b3          	add	a3,a3,a5
80005490:	03f28433          	mul	s0,t0,t6
80005494:	03f50533          	mul	a0,a0,t6
80005498:	01045713          	srl	a4,s0,0x10
8000549c:	025e02b3          	mul	t0,t3,t0
800054a0:	00550533          	add	a0,a0,t0
800054a4:	00a70733          	add	a4,a4,a0
800054a8:	00577463          	bgeu	a4,t0,800054b0 <__muldf3+0x378>
800054ac:	007989b3          	add	s3,s3,t2
800054b0:	01075513          	srl	a0,a4,0x10
800054b4:	01350533          	add	a0,a0,s3
800054b8:	000109b7          	lui	s3,0x10
800054bc:	fff98393          	add	t2,s3,-1 # ffff <__tcb_aligned_size+0xffbf>
800054c0:	00777733          	and	a4,a4,t2
800054c4:	01071713          	sll	a4,a4,0x10
800054c8:	00747433          	and	s0,s0,t2
800054cc:	008702b3          	add	t0,a4,s0
800054d0:	02bf8433          	mul	s0,t6,a1
800054d4:	02be05b3          	mul	a1,t3,a1
800054d8:	01045713          	srl	a4,s0,0x10
800054dc:	03cf0e33          	mul	t3,t5,t3
800054e0:	03ff0f33          	mul	t5,t5,t6
800054e4:	00bf0f33          	add	t5,t5,a1
800054e8:	01e70f33          	add	t5,a4,t5
800054ec:	00bf7463          	bgeu	t5,a1,800054f4 <__muldf3+0x3bc>
800054f0:	013e0e33          	add	t3,t3,s3
800054f4:	007f7733          	and	a4,t5,t2
800054f8:	00747433          	and	s0,s0,t2
800054fc:	01071713          	sll	a4,a4,0x10
80005500:	01d686b3          	add	a3,a3,t4
80005504:	00870733          	add	a4,a4,s0
80005508:	00670333          	add	t1,a4,t1
8000550c:	00f6b7b3          	sltu	a5,a3,a5
80005510:	00f307b3          	add	a5,t1,a5
80005514:	005685b3          	add	a1,a3,t0
80005518:	00a78533          	add	a0,a5,a0
8000551c:	00d5b6b3          	sltu	a3,a1,a3
80005520:	00d506b3          	add	a3,a0,a3
80005524:	00e33733          	sltu	a4,t1,a4
80005528:	0067b333          	sltu	t1,a5,t1
8000552c:	00f53433          	sltu	s0,a0,a5
80005530:	00676733          	or	a4,a4,t1
80005534:	00a6b533          	sltu	a0,a3,a0
80005538:	010f5f13          	srl	t5,t5,0x10
8000553c:	01e70733          	add	a4,a4,t5
80005540:	00a46433          	or	s0,s0,a0
80005544:	00e40433          	add	s0,s0,a4
80005548:	01c40433          	add	s0,s0,t3
8000554c:	0176d793          	srl	a5,a3,0x17
80005550:	00941413          	sll	s0,s0,0x9
80005554:	00f46433          	or	s0,s0,a5
80005558:	00959793          	sll	a5,a1,0x9
8000555c:	00c7e7b3          	or	a5,a5,a2
80005560:	00f037b3          	snez	a5,a5
80005564:	0175d593          	srl	a1,a1,0x17
80005568:	01000737          	lui	a4,0x1000
8000556c:	00b7e7b3          	or	a5,a5,a1
80005570:	00969693          	sll	a3,a3,0x9
80005574:	00e47733          	and	a4,s0,a4
80005578:	00d7e7b3          	or	a5,a5,a3
8000557c:	08070663          	beqz	a4,80005608 <__muldf3+0x4d0>
80005580:	0017d713          	srl	a4,a5,0x1
80005584:	0017f793          	and	a5,a5,1
80005588:	00f76733          	or	a4,a4,a5
8000558c:	01f41793          	sll	a5,s0,0x1f
80005590:	00f767b3          	or	a5,a4,a5
80005594:	00145413          	srl	s0,s0,0x1
80005598:	3ff88713          	add	a4,a7,1023
8000559c:	14e05a63          	blez	a4,800056f0 <__muldf3+0x5b8>
800055a0:	0077f693          	and	a3,a5,7
800055a4:	06068e63          	beqz	a3,80005620 <__muldf3+0x4e8>
800055a8:	00200693          	li	a3,2
800055ac:	0014e493          	or	s1,s1,1
800055b0:	06d90663          	beq	s2,a3,8000561c <__muldf3+0x4e4>
800055b4:	00300693          	li	a3,3
800055b8:	04d90c63          	beq	s2,a3,80005610 <__muldf3+0x4d8>
800055bc:	06091263          	bnez	s2,80005620 <__muldf3+0x4e8>
800055c0:	00f7f693          	and	a3,a5,15
800055c4:	00400613          	li	a2,4
800055c8:	04c68c63          	beq	a3,a2,80005620 <__muldf3+0x4e8>
800055cc:	00478693          	add	a3,a5,4 # 10004 <__tcb_aligned_size+0xffc4>
800055d0:	00f6b633          	sltu	a2,a3,a5
800055d4:	00c40433          	add	s0,s0,a2
800055d8:	00068793          	mv	a5,a3
800055dc:	0440006f          	j	80005620 <__muldf3+0x4e8>
800055e0:	00f00693          	li	a3,15
800055e4:	30d70063          	beq	a4,a3,800058e4 <__muldf3+0x7ac>
800055e8:	00b00693          	li	a3,11
800055ec:	00d70a63          	beq	a4,a3,80005600 <__muldf3+0x4c8>
800055f0:	000b0813          	mv	a6,s6
800055f4:	00098413          	mv	s0,s3
800055f8:	000a0793          	mv	a5,s4
800055fc:	cc9ff06f          	j	800052c4 <__muldf3+0x18c>
80005600:	000a8813          	mv	a6,s5
80005604:	cbdff06f          	j	800052c0 <__muldf3+0x188>
80005608:	000b8893          	mv	a7,s7
8000560c:	f8dff06f          	j	80005598 <__muldf3+0x460>
80005610:	00081863          	bnez	a6,80005620 <__muldf3+0x4e8>
80005614:	00878693          	add	a3,a5,8
80005618:	fb9ff06f          	j	800055d0 <__muldf3+0x498>
8000561c:	fe081ce3          	bnez	a6,80005614 <__muldf3+0x4dc>
80005620:	010006b7          	lui	a3,0x1000
80005624:	00d476b3          	and	a3,s0,a3
80005628:	00068a63          	beqz	a3,8000563c <__muldf3+0x504>
8000562c:	ff000737          	lui	a4,0xff000
80005630:	fff70713          	add	a4,a4,-1 # feffffff <__BSS_END__+0x7eff683f>
80005634:	00e47433          	and	s0,s0,a4
80005638:	40088713          	add	a4,a7,1024
8000563c:	7fe00693          	li	a3,2046
80005640:	06e6c863          	blt	a3,a4,800056b0 <__muldf3+0x578>
80005644:	0037d793          	srl	a5,a5,0x3
80005648:	01d41613          	sll	a2,s0,0x1d
8000564c:	00f66633          	or	a2,a2,a5
80005650:	00345693          	srl	a3,s0,0x3
80005654:	00c69693          	sll	a3,a3,0xc
80005658:	01471713          	sll	a4,a4,0x14
8000565c:	00c6d693          	srl	a3,a3,0xc
80005660:	00d76733          	or	a4,a4,a3
80005664:	01f81813          	sll	a6,a6,0x1f
80005668:	010767b3          	or	a5,a4,a6
8000566c:	00060513          	mv	a0,a2
80005670:	00078593          	mv	a1,a5
80005674:	00048463          	beqz	s1,8000567c <__muldf3+0x544>
80005678:	0014a073          	csrs	fflags,s1
8000567c:	02c12083          	lw	ra,44(sp)
80005680:	02812403          	lw	s0,40(sp)
80005684:	02412483          	lw	s1,36(sp)
80005688:	02012903          	lw	s2,32(sp)
8000568c:	01c12983          	lw	s3,28(sp)
80005690:	01812a03          	lw	s4,24(sp)
80005694:	01412a83          	lw	s5,20(sp)
80005698:	01012b03          	lw	s6,16(sp)
8000569c:	00c12b83          	lw	s7,12(sp)
800056a0:	00812c03          	lw	s8,8(sp)
800056a4:	00412c83          	lw	s9,4(sp)
800056a8:	03010113          	add	sp,sp,48
800056ac:	00008067          	ret
800056b0:	00200793          	li	a5,2
800056b4:	02f90a63          	beq	s2,a5,800056e8 <__muldf3+0x5b0>
800056b8:	00300793          	li	a5,3
800056bc:	00f90a63          	beq	s2,a5,800056d0 <__muldf3+0x598>
800056c0:	00090a63          	beqz	s2,800056d4 <__muldf3+0x59c>
800056c4:	fff00613          	li	a2,-1
800056c8:	7fe00713          	li	a4,2046
800056cc:	0100006f          	j	800056dc <__muldf3+0x5a4>
800056d0:	fe081ae3          	bnez	a6,800056c4 <__muldf3+0x58c>
800056d4:	00000613          	li	a2,0
800056d8:	7ff00713          	li	a4,2047
800056dc:	0054e493          	or	s1,s1,5
800056e0:	00060693          	mv	a3,a2
800056e4:	f71ff06f          	j	80005654 <__muldf3+0x51c>
800056e8:	fc080ee3          	beqz	a6,800056c4 <__muldf3+0x58c>
800056ec:	fe9ff06f          	j	800056d4 <__muldf3+0x59c>
800056f0:	0c071263          	bnez	a4,800057b4 <__muldf3+0x67c>
800056f4:	0077f693          	and	a3,a5,7
800056f8:	00040713          	mv	a4,s0
800056fc:	04068463          	beqz	a3,80005744 <__muldf3+0x60c>
80005700:	00200693          	li	a3,2
80005704:	0014e493          	or	s1,s1,1
80005708:	02d90c63          	beq	s2,a3,80005740 <__muldf3+0x608>
8000570c:	00300693          	li	a3,3
80005710:	02d90263          	beq	s2,a3,80005734 <__muldf3+0x5fc>
80005714:	02091863          	bnez	s2,80005744 <__muldf3+0x60c>
80005718:	00f7f693          	and	a3,a5,15
8000571c:	00400613          	li	a2,4
80005720:	02c68263          	beq	a3,a2,80005744 <__muldf3+0x60c>
80005724:	ffc7b713          	sltiu	a4,a5,-4
80005728:	00174713          	xor	a4,a4,1
8000572c:	00870733          	add	a4,a4,s0
80005730:	0140006f          	j	80005744 <__muldf3+0x60c>
80005734:	00081863          	bnez	a6,80005744 <__muldf3+0x60c>
80005738:	ff87b713          	sltiu	a4,a5,-8
8000573c:	fedff06f          	j	80005728 <__muldf3+0x5f0>
80005740:	fe081ce3          	bnez	a6,80005738 <__muldf3+0x600>
80005744:	01875713          	srl	a4,a4,0x18
80005748:	00174713          	xor	a4,a4,1
8000574c:	00177713          	and	a4,a4,1
80005750:	00100693          	li	a3,1
80005754:	41e88893          	add	a7,a7,1054
80005758:	00d7d633          	srl	a2,a5,a3
8000575c:	011797b3          	sll	a5,a5,a7
80005760:	00f037b3          	snez	a5,a5
80005764:	011418b3          	sll	a7,s0,a7
80005768:	0117e7b3          	or	a5,a5,a7
8000576c:	00f667b3          	or	a5,a2,a5
80005770:	00d456b3          	srl	a3,s0,a3
80005774:	0077f613          	and	a2,a5,7
80005778:	0a060263          	beqz	a2,8000581c <__muldf3+0x6e4>
8000577c:	00200613          	li	a2,2
80005780:	0014e493          	or	s1,s1,1
80005784:	08c90a63          	beq	s2,a2,80005818 <__muldf3+0x6e0>
80005788:	00300613          	li	a2,3
8000578c:	08c90063          	beq	s2,a2,8000580c <__muldf3+0x6d4>
80005790:	08091663          	bnez	s2,8000581c <__muldf3+0x6e4>
80005794:	00f7f613          	and	a2,a5,15
80005798:	00400593          	li	a1,4
8000579c:	08b60063          	beq	a2,a1,8000581c <__muldf3+0x6e4>
800057a0:	00478613          	add	a2,a5,4
800057a4:	00f635b3          	sltu	a1,a2,a5
800057a8:	00b686b3          	add	a3,a3,a1
800057ac:	00060793          	mv	a5,a2
800057b0:	06c0006f          	j	8000581c <__muldf3+0x6e4>
800057b4:	00100693          	li	a3,1
800057b8:	40e686b3          	sub	a3,a3,a4
800057bc:	03800613          	li	a2,56
800057c0:	0ad64463          	blt	a2,a3,80005868 <__muldf3+0x730>
800057c4:	01f00613          	li	a2,31
800057c8:	00d64663          	blt	a2,a3,800057d4 <__muldf3+0x69c>
800057cc:	00100713          	li	a4,1
800057d0:	f85ff06f          	j	80005754 <__muldf3+0x61c>
800057d4:	fe100613          	li	a2,-31
800057d8:	40e60733          	sub	a4,a2,a4
800057dc:	02000593          	li	a1,32
800057e0:	00e45733          	srl	a4,s0,a4
800057e4:	00000613          	li	a2,0
800057e8:	00b68663          	beq	a3,a1,800057f4 <__muldf3+0x6bc>
800057ec:	43e88893          	add	a7,a7,1086
800057f0:	01141633          	sll	a2,s0,a7
800057f4:	00f66633          	or	a2,a2,a5
800057f8:	00c03633          	snez	a2,a2
800057fc:	00c767b3          	or	a5,a4,a2
80005800:	00000693          	li	a3,0
80005804:	00100713          	li	a4,1
80005808:	f6dff06f          	j	80005774 <__muldf3+0x63c>
8000580c:	00081863          	bnez	a6,8000581c <__muldf3+0x6e4>
80005810:	00878613          	add	a2,a5,8
80005814:	f91ff06f          	j	800057a4 <__muldf3+0x66c>
80005818:	fe081ce3          	bnez	a6,80005810 <__muldf3+0x6d8>
8000581c:	00800637          	lui	a2,0x800
80005820:	00c6f633          	and	a2,a3,a2
80005824:	00060e63          	beqz	a2,80005840 <__muldf3+0x708>
80005828:	0014e493          	or	s1,s1,1
8000582c:	00000693          	li	a3,0
80005830:	00000613          	li	a2,0
80005834:	02071663          	bnez	a4,80005860 <__muldf3+0x728>
80005838:	00100713          	li	a4,1
8000583c:	e19ff06f          	j	80005654 <__muldf3+0x51c>
80005840:	01d69613          	sll	a2,a3,0x1d
80005844:	0037d793          	srl	a5,a5,0x3
80005848:	00f66633          	or	a2,a2,a5
8000584c:	0036d693          	srl	a3,a3,0x3
80005850:	e00702e3          	beqz	a4,80005654 <__muldf3+0x51c>
80005854:	0014f713          	and	a4,s1,1
80005858:	de070ee3          	beqz	a4,80005654 <__muldf3+0x51c>
8000585c:	00000713          	li	a4,0
80005860:	0024e493          	or	s1,s1,2
80005864:	df1ff06f          	j	80005654 <__muldf3+0x51c>
80005868:	0087e633          	or	a2,a5,s0
8000586c:	02060463          	beqz	a2,80005894 <__muldf3+0x75c>
80005870:	00200793          	li	a5,2
80005874:	0014e493          	or	s1,s1,1
80005878:	02f90e63          	beq	s2,a5,800058b4 <__muldf3+0x77c>
8000587c:	00300793          	li	a5,3
80005880:	02f90263          	beq	s2,a5,800058a4 <__muldf3+0x76c>
80005884:	00500613          	li	a2,5
80005888:	00090463          	beqz	s2,80005890 <__muldf3+0x758>
8000588c:	00100613          	li	a2,1
80005890:	00365613          	srl	a2,a2,0x3
80005894:	0024e493          	or	s1,s1,2
80005898:	00000693          	li	a3,0
8000589c:	00000713          	li	a4,0
800058a0:	db5ff06f          	j	80005654 <__muldf3+0x51c>
800058a4:	00100613          	li	a2,1
800058a8:	fe0814e3          	bnez	a6,80005890 <__muldf3+0x758>
800058ac:	00900613          	li	a2,9
800058b0:	fe1ff06f          	j	80005890 <__muldf3+0x758>
800058b4:	00100613          	li	a2,1
800058b8:	fc080ce3          	beqz	a6,80005890 <__muldf3+0x758>
800058bc:	ff1ff06f          	j	800058ac <__muldf3+0x774>
800058c0:	000806b7          	lui	a3,0x80
800058c4:	7ff00713          	li	a4,2047
800058c8:	00000813          	li	a6,0
800058cc:	01000493          	li	s1,16
800058d0:	d85ff06f          	j	80005654 <__muldf3+0x51c>
800058d4:	00000693          	li	a3,0
800058d8:	00000613          	li	a2,0
800058dc:	7ff00713          	li	a4,2047
800058e0:	d75ff06f          	j	80005654 <__muldf3+0x51c>
800058e4:	000806b7          	lui	a3,0x80
800058e8:	00000613          	li	a2,0
800058ec:	7ff00713          	li	a4,2047
800058f0:	00000813          	li	a6,0
800058f4:	d61ff06f          	j	80005654 <__muldf3+0x51c>

800058f8 <__subdf3>:
800058f8:	fe010113          	add	sp,sp,-32
800058fc:	00112e23          	sw	ra,28(sp)
80005900:	00812c23          	sw	s0,24(sp)
80005904:	00912a23          	sw	s1,20(sp)
80005908:	01212823          	sw	s2,16(sp)
8000590c:	01312623          	sw	s3,12(sp)
80005910:	01412423          	sw	s4,8(sp)
80005914:	002029f3          	frrm	s3
80005918:	001007b7          	lui	a5,0x100
8000591c:	fff78793          	add	a5,a5,-1 # fffff <__tcb_aligned_size+0xfffbf>
80005920:	00b7f733          	and	a4,a5,a1
80005924:	00371713          	sll	a4,a4,0x3
80005928:	01d55893          	srl	a7,a0,0x1d
8000592c:	00d7f7b3          	and	a5,a5,a3
80005930:	00e8e8b3          	or	a7,a7,a4
80005934:	0146d713          	srl	a4,a3,0x14
80005938:	0145d413          	srl	s0,a1,0x14
8000593c:	01d65813          	srl	a6,a2,0x1d
80005940:	01f5d493          	srl	s1,a1,0x1f
80005944:	00379793          	sll	a5,a5,0x3
80005948:	7ff77713          	and	a4,a4,2047
8000594c:	7ff00593          	li	a1,2047
80005950:	7ff47413          	and	s0,s0,2047
80005954:	00351513          	sll	a0,a0,0x3
80005958:	01f6d693          	srl	a3,a3,0x1f
8000595c:	00f86833          	or	a6,a6,a5
80005960:	00361613          	sll	a2,a2,0x3
80005964:	04b71863          	bne	a4,a1,800059b4 <__subdf3+0xbc>
80005968:	00c865b3          	or	a1,a6,a2
8000596c:	80140793          	add	a5,s0,-2047 # 7ff801 <__tcb_aligned_size+0x7ff7c1>
80005970:	02058463          	beqz	a1,80005998 <__subdf3+0xa0>
80005974:	00068313          	mv	t1,a3
80005978:	5ed49c63          	bne	s1,a3,80005f70 <__subdf3+0x678>
8000597c:	2c078063          	beqz	a5,80005c3c <__subdf3+0x344>
80005980:	02040663          	beqz	s0,800059ac <__subdf3+0xb4>
80005984:	01685793          	srl	a5,a6,0x16
80005988:	0017c793          	xor	a5,a5,1
8000598c:	0017f793          	and	a5,a5,1
80005990:	00479793          	sll	a5,a5,0x4
80005994:	07c0006f          	j	80005a10 <__subdf3+0x118>
80005998:	0016c313          	xor	t1,a3,1
8000599c:	5e649a63          	bne	s1,t1,80005f90 <__subdf3+0x698>
800059a0:	28078e63          	beqz	a5,80005c3c <__subdf3+0x344>
800059a4:	00000693          	li	a3,0
800059a8:	5e041c63          	bnez	s0,80005fa0 <__subdf3+0x6a8>
800059ac:	7ff00413          	li	s0,2047
800059b0:	2000006f          	j	80005bb0 <__subdf3+0x2b8>
800059b4:	0016c313          	xor	t1,a3,1
800059b8:	40e407b3          	sub	a5,s0,a4
800059bc:	4c649063          	bne	s1,t1,80005e7c <__subdf3+0x584>
800059c0:	18f05863          	blez	a5,80005b50 <__subdf3+0x258>
800059c4:	0a071663          	bnez	a4,80005a70 <__subdf3+0x178>
800059c8:	00c867b3          	or	a5,a6,a2
800059cc:	00079e63          	bnez	a5,800059e8 <__subdf3+0xf0>
800059d0:	06b40e63          	beq	s0,a1,80005a4c <__subdf3+0x154>
800059d4:	00088813          	mv	a6,a7
800059d8:	00050613          	mv	a2,a0
800059dc:	00000793          	li	a5,0
800059e0:	00040713          	mv	a4,s0
800059e4:	02c0006f          	j	80005a10 <__subdf3+0x118>
800059e8:	fff40793          	add	a5,s0,-1
800059ec:	04079e63          	bnez	a5,80005a48 <__subdf3+0x150>
800059f0:	00c50633          	add	a2,a0,a2
800059f4:	01088833          	add	a6,a7,a6
800059f8:	00a63533          	sltu	a0,a2,a0
800059fc:	00a80833          	add	a6,a6,a0
80005a00:	00800737          	lui	a4,0x800
80005a04:	00e87733          	and	a4,a6,a4
80005a08:	42071a63          	bnez	a4,80005e3c <__subdf3+0x544>
80005a0c:	00100713          	li	a4,1
80005a10:	00767693          	and	a3,a2,7
80005a14:	00080893          	mv	a7,a6
80005a18:	00060513          	mv	a0,a2
80005a1c:	260680e3          	beqz	a3,8000647c <__subdf3+0xb84>
80005a20:	00000693          	li	a3,0
80005a24:	00200613          	li	a2,2
80005a28:	0017e793          	or	a5,a5,1
80005a2c:	3cc99063          	bne	s3,a2,80005dec <__subdf3+0x4f4>
80005a30:	3e048263          	beqz	s1,80005e14 <__subdf3+0x51c>
80005a34:	00850613          	add	a2,a0,8
80005a38:	00a635b3          	sltu	a1,a2,a0
80005a3c:	00b888b3          	add	a7,a7,a1
80005a40:	00060513          	mv	a0,a2
80005a44:	2350006f          	j	80006478 <__subdf3+0xb80>
80005a48:	0cb41063          	bne	s0,a1,80005b08 <__subdf3+0x210>
80005a4c:	00a8e6b3          	or	a3,a7,a0
80005a50:	30068ae3          	beqz	a3,80006564 <__subdf3+0xc6c>
80005a54:	0168d793          	srl	a5,a7,0x16
80005a58:	0017c793          	xor	a5,a5,1
80005a5c:	0017f793          	and	a5,a5,1
80005a60:	00479793          	sll	a5,a5,0x4
80005a64:	00088813          	mv	a6,a7
80005a68:	00050613          	mv	a2,a0
80005a6c:	1800006f          	j	80005bec <__subdf3+0x2f4>
80005a70:	00b41863          	bne	s0,a1,80005a80 <__subdf3+0x188>
80005a74:	00a8e6b3          	or	a3,a7,a0
80005a78:	22068663          	beqz	a3,80005ca4 <__subdf3+0x3ac>
80005a7c:	fd9ff06f          	j	80005a54 <__subdf3+0x15c>
80005a80:	03800713          	li	a4,56
80005a84:	08f74663          	blt	a4,a5,80005b10 <__subdf3+0x218>
80005a88:	00800737          	lui	a4,0x800
80005a8c:	00e86833          	or	a6,a6,a4
80005a90:	01f00713          	li	a4,31
80005a94:	08f74463          	blt	a4,a5,80005b1c <__subdf3+0x224>
80005a98:	02000693          	li	a3,32
80005a9c:	40f686b3          	sub	a3,a3,a5
80005aa0:	00d81733          	sll	a4,a6,a3
80005aa4:	00f655b3          	srl	a1,a2,a5
80005aa8:	00d616b3          	sll	a3,a2,a3
80005aac:	00b76733          	or	a4,a4,a1
80005ab0:	00d036b3          	snez	a3,a3
80005ab4:	00d76733          	or	a4,a4,a3
80005ab8:	00f857b3          	srl	a5,a6,a5
80005abc:	00a70633          	add	a2,a4,a0
80005ac0:	00e63733          	sltu	a4,a2,a4
80005ac4:	011787b3          	add	a5,a5,a7
80005ac8:	00e78833          	add	a6,a5,a4
80005acc:	00040713          	mv	a4,s0
80005ad0:	008007b7          	lui	a5,0x800
80005ad4:	00f877b3          	and	a5,a6,a5
80005ad8:	2e078463          	beqz	a5,80005dc0 <__subdf3+0x4c8>
80005adc:	00170413          	add	s0,a4,1 # 800001 <__tcb_aligned_size+0x7fffc1>
80005ae0:	7ff00793          	li	a5,2047
80005ae4:	34f41e63          	bne	s0,a5,80005e40 <__subdf3+0x548>
80005ae8:	00098863          	beqz	s3,80005af8 <__subdf3+0x200>
80005aec:	00300793          	li	a5,3
80005af0:	36f99e63          	bne	s3,a5,80005e6c <__subdf3+0x574>
80005af4:	2e049263          	bnez	s1,80005dd8 <__subdf3+0x4e0>
80005af8:	00000893          	li	a7,0
80005afc:	00000693          	li	a3,0
80005b00:	00500713          	li	a4,5
80005b04:	21c0006f          	j	80005d20 <__subdf3+0x428>
80005b08:	03800713          	li	a4,56
80005b0c:	f8f752e3          	bge	a4,a5,80005a90 <__subdf3+0x198>
80005b10:	00000793          	li	a5,0
80005b14:	00100713          	li	a4,1
80005b18:	fa5ff06f          	j	80005abc <__subdf3+0x1c4>
80005b1c:	fe078713          	add	a4,a5,-32 # 7fffe0 <__tcb_aligned_size+0x7fffa0>
80005b20:	02000593          	li	a1,32
80005b24:	00e85733          	srl	a4,a6,a4
80005b28:	00000693          	li	a3,0
80005b2c:	00b78863          	beq	a5,a1,80005b3c <__subdf3+0x244>
80005b30:	04000693          	li	a3,64
80005b34:	40f686b3          	sub	a3,a3,a5
80005b38:	00d816b3          	sll	a3,a6,a3
80005b3c:	00c6e6b3          	or	a3,a3,a2
80005b40:	00d036b3          	snez	a3,a3
80005b44:	00d76733          	or	a4,a4,a3
80005b48:	00000793          	li	a5,0
80005b4c:	f71ff06f          	j	80005abc <__subdf3+0x1c4>
80005b50:	0e078663          	beqz	a5,80005c3c <__subdf3+0x344>
80005b54:	408707b3          	sub	a5,a4,s0
80005b58:	04040a63          	beqz	s0,80005bac <__subdf3+0x2b4>
80005b5c:	03800693          	li	a3,56
80005b60:	08f6ce63          	blt	a3,a5,80005bfc <__subdf3+0x304>
80005b64:	008006b7          	lui	a3,0x800
80005b68:	00d8e8b3          	or	a7,a7,a3
80005b6c:	01f00693          	li	a3,31
80005b70:	08f6cc63          	blt	a3,a5,80005c08 <__subdf3+0x310>
80005b74:	02000593          	li	a1,32
80005b78:	40f585b3          	sub	a1,a1,a5
80005b7c:	00b896b3          	sll	a3,a7,a1
80005b80:	00f55333          	srl	t1,a0,a5
80005b84:	00b515b3          	sll	a1,a0,a1
80005b88:	0066e6b3          	or	a3,a3,t1
80005b8c:	00b035b3          	snez	a1,a1
80005b90:	00b6e6b3          	or	a3,a3,a1
80005b94:	00f8d7b3          	srl	a5,a7,a5
80005b98:	00c68633          	add	a2,a3,a2
80005b9c:	010787b3          	add	a5,a5,a6
80005ba0:	00d636b3          	sltu	a3,a2,a3
80005ba4:	00d78833          	add	a6,a5,a3
80005ba8:	f29ff06f          	j	80005ad0 <__subdf3+0x1d8>
80005bac:	00078413          	mv	s0,a5
80005bb0:	00a8e7b3          	or	a5,a7,a0
80005bb4:	00079863          	bnez	a5,80005bc4 <__subdf3+0x2cc>
80005bb8:	7ff00793          	li	a5,2047
80005bbc:	2af41463          	bne	s0,a5,80005e64 <__subdf3+0x56c>
80005bc0:	0140006f          	j	80005bd4 <__subdf3+0x2dc>
80005bc4:	fff40793          	add	a5,s0,-1
80005bc8:	e20784e3          	beqz	a5,800059f0 <__subdf3+0xf8>
80005bcc:	7ff00693          	li	a3,2047
80005bd0:	02d41263          	bne	s0,a3,80005bf4 <__subdf3+0x2fc>
80005bd4:	00c866b3          	or	a3,a6,a2
80005bd8:	0c068663          	beqz	a3,80005ca4 <__subdf3+0x3ac>
80005bdc:	01685793          	srl	a5,a6,0x16
80005be0:	0017c793          	xor	a5,a5,1
80005be4:	0017f793          	and	a5,a5,1
80005be8:	00479793          	sll	a5,a5,0x4
80005bec:	7ff00713          	li	a4,2047
80005bf0:	e21ff06f          	j	80005a10 <__subdf3+0x118>
80005bf4:	03800693          	li	a3,56
80005bf8:	f6f6dae3          	bge	a3,a5,80005b6c <__subdf3+0x274>
80005bfc:	00000793          	li	a5,0
80005c00:	00100693          	li	a3,1
80005c04:	f95ff06f          	j	80005b98 <__subdf3+0x2a0>
80005c08:	fe078693          	add	a3,a5,-32
80005c0c:	02000313          	li	t1,32
80005c10:	00d8d6b3          	srl	a3,a7,a3
80005c14:	00000593          	li	a1,0
80005c18:	00678863          	beq	a5,t1,80005c28 <__subdf3+0x330>
80005c1c:	04000593          	li	a1,64
80005c20:	40f585b3          	sub	a1,a1,a5
80005c24:	00b895b3          	sll	a1,a7,a1
80005c28:	00a5e5b3          	or	a1,a1,a0
80005c2c:	00b035b3          	snez	a1,a1
80005c30:	00b6e6b3          	or	a3,a3,a1
80005c34:	00000793          	li	a5,0
80005c38:	f61ff06f          	j	80005b98 <__subdf3+0x2a0>
80005c3c:	00140693          	add	a3,s0,1
80005c40:	7fe6f793          	and	a5,a3,2046
80005c44:	14079863          	bnez	a5,80005d94 <__subdf3+0x49c>
80005c48:	00a8e6b3          	or	a3,a7,a0
80005c4c:	04041063          	bnez	s0,80005c8c <__subdf3+0x394>
80005c50:	70068a63          	beqz	a3,80006364 <__subdf3+0xa6c>
80005c54:	00c86733          	or	a4,a6,a2
80005c58:	62070663          	beqz	a4,80006284 <__subdf3+0x98c>
80005c5c:	00c50633          	add	a2,a0,a2
80005c60:	00a63733          	sltu	a4,a2,a0
80005c64:	01088833          	add	a6,a7,a6
80005c68:	00e808b3          	add	a7,a6,a4
80005c6c:	00800737          	lui	a4,0x800
80005c70:	00e8f733          	and	a4,a7,a4
80005c74:	00060513          	mv	a0,a2
80005c78:	60070663          	beqz	a4,80006284 <__subdf3+0x98c>
80005c7c:	ff800837          	lui	a6,0xff800
80005c80:	fff80813          	add	a6,a6,-1 # ff7fffff <__BSS_END__+0x7f7f683f>
80005c84:	0108f833          	and	a6,a7,a6
80005c88:	d85ff06f          	j	80005a0c <__subdf3+0x114>
80005c8c:	7ff00593          	li	a1,2047
80005c90:	04b41063          	bne	s0,a1,80005cd0 <__subdf3+0x3d8>
80005c94:	00069c63          	bnez	a3,80005cac <__subdf3+0x3b4>
80005c98:	f4871ae3          	bne	a4,s0,80005bec <__subdf3+0x2f4>
80005c9c:	00c866b3          	or	a3,a6,a2
80005ca0:	ce0692e3          	bnez	a3,80005984 <__subdf3+0x8c>
80005ca4:	00000893          	li	a7,0
80005ca8:	3000006f          	j	80005fa8 <__subdf3+0x6b0>
80005cac:	004005b7          	lui	a1,0x400
80005cb0:	00b8fe33          	and	t3,a7,a1
80005cb4:	00c86333          	or	t1,a6,a2
80005cb8:	0c0e02e3          	beqz	t3,8000657c <__subdf3+0xc84>
80005cbc:	0a871c63          	bne	a4,s0,80005d74 <__subdf3+0x47c>
80005cc0:	02031663          	bnez	t1,80005cec <__subdf3+0x3f4>
80005cc4:	00088813          	mv	a6,a7
80005cc8:	00050613          	mv	a2,a0
80005ccc:	d45ff06f          	j	80005a10 <__subdf3+0x118>
80005cd0:	08b71663          	bne	a4,a1,80005d5c <__subdf3+0x464>
80005cd4:	00c865b3          	or	a1,a6,a2
80005cd8:	02059263          	bnez	a1,80005cfc <__subdf3+0x404>
80005cdc:	fe0694e3          	bnez	a3,80005cc4 <__subdf3+0x3cc>
80005ce0:	00000893          	li	a7,0
80005ce4:	7ff00413          	li	s0,2047
80005ce8:	2c00006f          	j	80005fa8 <__subdf3+0x6b0>
80005cec:	00b875b3          	and	a1,a6,a1
80005cf0:	08058e63          	beqz	a1,80005d8c <__subdf3+0x494>
80005cf4:	00000713          	li	a4,0
80005cf8:	0180006f          	j	80005d10 <__subdf3+0x418>
80005cfc:	00000713          	li	a4,0
80005d00:	004007b7          	lui	a5,0x400
80005d04:	00f877b3          	and	a5,a6,a5
80005d08:	06078263          	beqz	a5,80005d6c <__subdf3+0x474>
80005d0c:	04068c63          	beqz	a3,80005d64 <__subdf3+0x46c>
80005d10:	00000493          	li	s1,0
80005d14:	004008b7          	lui	a7,0x400
80005d18:	00000693          	li	a3,0
80005d1c:	7ff00413          	li	s0,2047
80005d20:	01d89793          	sll	a5,a7,0x1d
80005d24:	0036d693          	srl	a3,a3,0x3
80005d28:	00d7e6b3          	or	a3,a5,a3
80005d2c:	7ff00793          	li	a5,2047
80005d30:	0038d613          	srl	a2,a7,0x3
80005d34:	78f41063          	bne	s0,a5,800064b4 <__subdf3+0xbbc>
80005d38:	00c6e6b3          	or	a3,a3,a2
80005d3c:	00000613          	li	a2,0
80005d40:	76068a63          	beqz	a3,800064b4 <__subdf3+0xbbc>
80005d44:	00080637          	lui	a2,0x80
80005d48:	00000693          	li	a3,0
80005d4c:	00000493          	li	s1,0
80005d50:	7640006f          	j	800064b4 <__subdf3+0xbbc>
80005d54:	01000713          	li	a4,16
80005d58:	fa9ff06f          	j	80005d00 <__subdf3+0x408>
80005d5c:	00000713          	li	a4,0
80005d60:	00069c63          	bnez	a3,80005d78 <__subdf3+0x480>
80005d64:	00070793          	mv	a5,a4
80005d68:	e85ff06f          	j	80005bec <__subdf3+0x2f4>
80005d6c:	01000713          	li	a4,16
80005d70:	ff1ff06f          	j	80005d60 <__subdf3+0x468>
80005d74:	00000713          	li	a4,0
80005d78:	00c86833          	or	a6,a6,a2
80005d7c:	f8081ae3          	bnez	a6,80005d10 <__subdf3+0x418>
80005d80:	00088813          	mv	a6,a7
80005d84:	00050613          	mv	a2,a0
80005d88:	fddff06f          	j	80005d64 <__subdf3+0x46c>
80005d8c:	01000713          	li	a4,16
80005d90:	fe9ff06f          	j	80005d78 <__subdf3+0x480>
80005d94:	7ff00793          	li	a5,2047
80005d98:	02f68863          	beq	a3,a5,80005dc8 <__subdf3+0x4d0>
80005d9c:	00c50633          	add	a2,a0,a2
80005da0:	00a63533          	sltu	a0,a2,a0
80005da4:	01088833          	add	a6,a7,a6
80005da8:	00a80833          	add	a6,a6,a0
80005dac:	01f81793          	sll	a5,a6,0x1f
80005db0:	00165613          	srl	a2,a2,0x1
80005db4:	00c7e633          	or	a2,a5,a2
80005db8:	00185813          	srl	a6,a6,0x1
80005dbc:	00068713          	mv	a4,a3
80005dc0:	00000793          	li	a5,0
80005dc4:	c4dff06f          	j	80005a10 <__subdf3+0x118>
80005dc8:	78098a63          	beqz	s3,8000655c <__subdf3+0xc64>
80005dcc:	00300793          	li	a5,3
80005dd0:	04f99663          	bne	s3,a5,80005e1c <__subdf3+0x524>
80005dd4:	78048463          	beqz	s1,8000655c <__subdf3+0xc64>
80005dd8:	00000693          	li	a3,0
80005ddc:	fff00893          	li	a7,-1
80005de0:	fff00513          	li	a0,-1
80005de4:	7fe00713          	li	a4,2046
80005de8:	00500793          	li	a5,5
80005dec:	00300613          	li	a2,3
80005df0:	68c98263          	beq	s3,a2,80006474 <__subdf3+0xb7c>
80005df4:	02099063          	bnez	s3,80005e14 <__subdf3+0x51c>
80005df8:	00f57613          	and	a2,a0,15
80005dfc:	00400593          	li	a1,4
80005e00:	00b60a63          	beq	a2,a1,80005e14 <__subdf3+0x51c>
80005e04:	00450613          	add	a2,a0,4
80005e08:	00a635b3          	sltu	a1,a2,a0
80005e0c:	00b888b3          	add	a7,a7,a1
80005e10:	00060513          	mv	a0,a2
80005e14:	5c069663          	bnez	a3,800063e0 <__subdf3+0xae8>
80005e18:	6640006f          	j	8000647c <__subdf3+0xb84>
80005e1c:	00200793          	li	a5,2
80005e20:	00f99463          	bne	s3,a5,80005e28 <__subdf3+0x530>
80005e24:	72049c63          	bnez	s1,8000655c <__subdf3+0xc64>
80005e28:	fff00893          	li	a7,-1
80005e2c:	fff00513          	li	a0,-1
80005e30:	7fe00713          	li	a4,2046
80005e34:	00500793          	li	a5,5
80005e38:	6440006f          	j	8000647c <__subdf3+0xb84>
80005e3c:	00200413          	li	s0,2
80005e40:	ff8007b7          	lui	a5,0xff800
80005e44:	fff78793          	add	a5,a5,-1 # ff7fffff <__BSS_END__+0x7f7f683f>
80005e48:	00f877b3          	and	a5,a6,a5
80005e4c:	00165713          	srl	a4,a2,0x1
80005e50:	00167613          	and	a2,a2,1
80005e54:	00c76733          	or	a4,a4,a2
80005e58:	01f79613          	sll	a2,a5,0x1f
80005e5c:	00e66633          	or	a2,a2,a4
80005e60:	0017d813          	srl	a6,a5,0x1
80005e64:	00040713          	mv	a4,s0
80005e68:	f59ff06f          	j	80005dc0 <__subdf3+0x4c8>
80005e6c:	00200793          	li	a5,2
80005e70:	faf99ce3          	bne	s3,a5,80005e28 <__subdf3+0x530>
80005e74:	fa048ae3          	beqz	s1,80005e28 <__subdf3+0x530>
80005e78:	c81ff06f          	j	80005af8 <__subdf3+0x200>
80005e7c:	12f05a63          	blez	a5,80005fb0 <__subdf3+0x6b8>
80005e80:	04071263          	bnez	a4,80005ec4 <__subdf3+0x5cc>
80005e84:	00c867b3          	or	a5,a6,a2
80005e88:	b40784e3          	beqz	a5,800059d0 <__subdf3+0xd8>
80005e8c:	fff40793          	add	a5,s0,-1
80005e90:	00079e63          	bnez	a5,80005eac <__subdf3+0x5b4>
80005e94:	40c50633          	sub	a2,a0,a2
80005e98:	41088833          	sub	a6,a7,a6
80005e9c:	00c53533          	sltu	a0,a0,a2
80005ea0:	40a80833          	sub	a6,a6,a0
80005ea4:	00100713          	li	a4,1
80005ea8:	0740006f          	j	80005f1c <__subdf3+0x624>
80005eac:	bab400e3          	beq	s0,a1,80005a4c <__subdf3+0x154>
80005eb0:	03800713          	li	a4,56
80005eb4:	02f75263          	bge	a4,a5,80005ed8 <__subdf3+0x5e0>
80005eb8:	00000793          	li	a5,0
80005ebc:	00100713          	li	a4,1
80005ec0:	0440006f          	j	80005f04 <__subdf3+0x60c>
80005ec4:	bab408e3          	beq	s0,a1,80005a74 <__subdf3+0x17c>
80005ec8:	03800713          	li	a4,56
80005ecc:	fef746e3          	blt	a4,a5,80005eb8 <__subdf3+0x5c0>
80005ed0:	00800737          	lui	a4,0x800
80005ed4:	00e86833          	or	a6,a6,a4
80005ed8:	01f00713          	li	a4,31
80005edc:	06f74063          	blt	a4,a5,80005f3c <__subdf3+0x644>
80005ee0:	02000693          	li	a3,32
80005ee4:	40f686b3          	sub	a3,a3,a5
80005ee8:	00d81733          	sll	a4,a6,a3
80005eec:	00f655b3          	srl	a1,a2,a5
80005ef0:	00d616b3          	sll	a3,a2,a3
80005ef4:	00b76733          	or	a4,a4,a1
80005ef8:	00d036b3          	snez	a3,a3
80005efc:	00d76733          	or	a4,a4,a3
80005f00:	00f857b3          	srl	a5,a6,a5
80005f04:	40e50733          	sub	a4,a0,a4
80005f08:	00e53833          	sltu	a6,a0,a4
80005f0c:	40f887b3          	sub	a5,a7,a5
80005f10:	00070613          	mv	a2,a4
80005f14:	41078833          	sub	a6,a5,a6
80005f18:	00040713          	mv	a4,s0
80005f1c:	00800937          	lui	s2,0x800
80005f20:	012877b3          	and	a5,a6,s2
80005f24:	e8078ee3          	beqz	a5,80005dc0 <__subdf3+0x4c8>
80005f28:	fff90913          	add	s2,s2,-1 # 7fffff <__tcb_aligned_size+0x7fffbf>
80005f2c:	01287933          	and	s2,a6,s2
80005f30:	00060a13          	mv	s4,a2
80005f34:	00070413          	mv	s0,a4
80005f38:	2f40006f          	j	8000622c <__subdf3+0x934>
80005f3c:	fe078713          	add	a4,a5,-32
80005f40:	02000593          	li	a1,32
80005f44:	00e85733          	srl	a4,a6,a4
80005f48:	00000693          	li	a3,0
80005f4c:	00b78863          	beq	a5,a1,80005f5c <__subdf3+0x664>
80005f50:	04000693          	li	a3,64
80005f54:	40f686b3          	sub	a3,a3,a5
80005f58:	00d816b3          	sll	a3,a6,a3
80005f5c:	00c6e6b3          	or	a3,a3,a2
80005f60:	00d036b3          	snez	a3,a3
80005f64:	00d76733          	or	a4,a4,a3
80005f68:	00000793          	li	a5,0
80005f6c:	f99ff06f          	j	80005f04 <__subdf3+0x60c>
80005f70:	14078063          	beqz	a5,800060b0 <__subdf3+0x7b8>
80005f74:	06040c63          	beqz	s0,80005fec <__subdf3+0x6f4>
80005f78:	01685793          	srl	a5,a6,0x16
80005f7c:	0017c793          	xor	a5,a5,1
80005f80:	0017f793          	and	a5,a5,1
80005f84:	00479793          	sll	a5,a5,0x4
80005f88:	00068493          	mv	s1,a3
80005f8c:	a85ff06f          	j	80005a10 <__subdf3+0x118>
80005f90:	12078063          	beqz	a5,800060b0 <__subdf3+0x7b8>
80005f94:	06040263          	beqz	s0,80005ff8 <__subdf3+0x700>
80005f98:	00000693          	li	a3,0
80005f9c:	00030493          	mv	s1,t1
80005fa0:	00000893          	li	a7,0
80005fa4:	00070413          	mv	s0,a4
80005fa8:	00000713          	li	a4,0
80005fac:	d75ff06f          	j	80005d20 <__subdf3+0x428>
80005fb0:	10078063          	beqz	a5,800060b0 <__subdf3+0x7b8>
80005fb4:	408707b3          	sub	a5,a4,s0
80005fb8:	06041263          	bnez	s0,8000601c <__subdf3+0x724>
80005fbc:	00030493          	mv	s1,t1
80005fc0:	00078413          	mv	s0,a5
80005fc4:	00a8e7b3          	or	a5,a7,a0
80005fc8:	be0788e3          	beqz	a5,80005bb8 <__subdf3+0x2c0>
80005fcc:	fff40793          	add	a5,s0,-1
80005fd0:	02079863          	bnez	a5,80006000 <__subdf3+0x708>
80005fd4:	40a60533          	sub	a0,a2,a0
80005fd8:	00a637b3          	sltu	a5,a2,a0
80005fdc:	41180833          	sub	a6,a6,a7
80005fe0:	00050613          	mv	a2,a0
80005fe4:	40f80833          	sub	a6,a6,a5
80005fe8:	ebdff06f          	j	80005ea4 <__subdf3+0x5ac>
80005fec:	00068493          	mv	s1,a3
80005ff0:	7ff00413          	li	s0,2047
80005ff4:	fd1ff06f          	j	80005fc4 <__subdf3+0x6cc>
80005ff8:	00030493          	mv	s1,t1
80005ffc:	ff5ff06f          	j	80005ff0 <__subdf3+0x6f8>
80006000:	7ff00693          	li	a3,2047
80006004:	bcd408e3          	beq	s0,a3,80005bd4 <__subdf3+0x2dc>
80006008:	03800693          	li	a3,56
8000600c:	02f6d263          	bge	a3,a5,80006030 <__subdf3+0x738>
80006010:	00000793          	li	a5,0
80006014:	00100693          	li	a3,1
80006018:	0440006f          	j	8000605c <__subdf3+0x764>
8000601c:	03800693          	li	a3,56
80006020:	08f6c463          	blt	a3,a5,800060a8 <__subdf3+0x7b0>
80006024:	008006b7          	lui	a3,0x800
80006028:	00d8e8b3          	or	a7,a7,a3
8000602c:	00030493          	mv	s1,t1
80006030:	01f00693          	li	a3,31
80006034:	04f6c063          	blt	a3,a5,80006074 <__subdf3+0x77c>
80006038:	02000593          	li	a1,32
8000603c:	40f585b3          	sub	a1,a1,a5
80006040:	00b896b3          	sll	a3,a7,a1
80006044:	00f55333          	srl	t1,a0,a5
80006048:	00b515b3          	sll	a1,a0,a1
8000604c:	0066e6b3          	or	a3,a3,t1
80006050:	00b035b3          	snez	a1,a1
80006054:	00b6e6b3          	or	a3,a3,a1
80006058:	00f8d7b3          	srl	a5,a7,a5
8000605c:	40d606b3          	sub	a3,a2,a3
80006060:	00d635b3          	sltu	a1,a2,a3
80006064:	40f807b3          	sub	a5,a6,a5
80006068:	00068613          	mv	a2,a3
8000606c:	40b78833          	sub	a6,a5,a1
80006070:	eadff06f          	j	80005f1c <__subdf3+0x624>
80006074:	fe078693          	add	a3,a5,-32
80006078:	02000313          	li	t1,32
8000607c:	00d8d6b3          	srl	a3,a7,a3
80006080:	00000593          	li	a1,0
80006084:	00678863          	beq	a5,t1,80006094 <__subdf3+0x79c>
80006088:	04000593          	li	a1,64
8000608c:	40f585b3          	sub	a1,a1,a5
80006090:	00b895b3          	sll	a1,a7,a1
80006094:	00a5e5b3          	or	a1,a1,a0
80006098:	00b035b3          	snez	a1,a1
8000609c:	00b6e6b3          	or	a3,a3,a1
800060a0:	00000793          	li	a5,0
800060a4:	fb9ff06f          	j	8000605c <__subdf3+0x764>
800060a8:	00030493          	mv	s1,t1
800060ac:	f65ff06f          	j	80006010 <__subdf3+0x718>
800060b0:	00140793          	add	a5,s0,1
800060b4:	7fe7f793          	and	a5,a5,2046
800060b8:	14079063          	bnez	a5,800061f8 <__subdf3+0x900>
800060bc:	00c866b3          	or	a3,a6,a2
800060c0:	00a8e5b3          	or	a1,a7,a0
800060c4:	06041863          	bnez	s0,80006134 <__subdf3+0x83c>
800060c8:	02059063          	bnez	a1,800060e8 <__subdf3+0x7f0>
800060cc:	2a069263          	bnez	a3,80006370 <__subdf3+0xa78>
800060d0:	ffe98493          	add	s1,s3,-2
800060d4:	0014b493          	seqz	s1,s1
800060d8:	00000893          	li	a7,0
800060dc:	00000693          	li	a3,0
800060e0:	00000413          	li	s0,0
800060e4:	ec5ff06f          	j	80005fa8 <__subdf3+0x6b0>
800060e8:	18068e63          	beqz	a3,80006284 <__subdf3+0x98c>
800060ec:	40c50733          	sub	a4,a0,a2
800060f0:	00e536b3          	sltu	a3,a0,a4
800060f4:	410887b3          	sub	a5,a7,a6
800060f8:	40d787b3          	sub	a5,a5,a3
800060fc:	008006b7          	lui	a3,0x800
80006100:	00d7f6b3          	and	a3,a5,a3
80006104:	00068e63          	beqz	a3,80006120 <__subdf3+0x828>
80006108:	40a60533          	sub	a0,a2,a0
8000610c:	41180833          	sub	a6,a6,a7
80006110:	00a63633          	sltu	a2,a2,a0
80006114:	40c808b3          	sub	a7,a6,a2
80006118:	00030493          	mv	s1,t1
8000611c:	1680006f          	j	80006284 <__subdf3+0x98c>
80006120:	00f766b3          	or	a3,a4,a5
80006124:	fa0686e3          	beqz	a3,800060d0 <__subdf3+0x7d8>
80006128:	00078893          	mv	a7,a5
8000612c:	00070513          	mv	a0,a4
80006130:	1540006f          	j	80006284 <__subdf3+0x98c>
80006134:	7ff00e13          	li	t3,2047
80006138:	05c41663          	bne	s0,t3,80006184 <__subdf3+0x88c>
8000613c:	02059263          	bnez	a1,80006160 <__subdf3+0x868>
80006140:	0a871063          	bne	a4,s0,800061e0 <__subdf3+0x8e8>
80006144:	00000493          	li	s1,0
80006148:	04068863          	beqz	a3,80006198 <__subdf3+0x8a0>
8000614c:	004005b7          	lui	a1,0x400
80006150:	00b875b3          	and	a1,a6,a1
80006154:	08058a63          	beqz	a1,800061e8 <__subdf3+0x8f0>
80006158:	00030493          	mv	s1,t1
8000615c:	8b5ff06f          	j	80005a10 <__subdf3+0x118>
80006160:	00400637          	lui	a2,0x400
80006164:	00c8f5b3          	and	a1,a7,a2
80006168:	42058663          	beqz	a1,80006594 <__subdf3+0xc9c>
8000616c:	08871263          	bne	a4,s0,800061f0 <__subdf3+0x8f8>
80006170:	8e068ae3          	beqz	a3,80005a64 <__subdf3+0x16c>
80006174:	00c87633          	and	a2,a6,a2
80006178:	b6061ee3          	bnez	a2,80005cf4 <__subdf3+0x3fc>
8000617c:	01000713          	li	a4,16
80006180:	42c0006f          	j	800065ac <__subdf3+0xcb4>
80006184:	03c71a63          	bne	a4,t3,800061b8 <__subdf3+0x8c0>
80006188:	00069e63          	bnez	a3,800061a4 <__subdf3+0x8ac>
8000618c:	8c059ce3          	bnez	a1,80005a64 <__subdf3+0x16c>
80006190:	00000493          	li	s1,0
80006194:	7ff00413          	li	s0,2047
80006198:	004008b7          	lui	a7,0x400
8000619c:	01000713          	li	a4,16
800061a0:	b81ff06f          	j	80005d20 <__subdf3+0x428>
800061a4:	00400e37          	lui	t3,0x400
800061a8:	01c87e33          	and	t3,a6,t3
800061ac:	020e0663          	beqz	t3,800061d8 <__subdf3+0x8e0>
800061b0:	b40592e3          	bnez	a1,80005cf4 <__subdf3+0x3fc>
800061b4:	fa5ff06f          	j	80006158 <__subdf3+0x860>
800061b8:	00000713          	li	a4,0
800061bc:	3e059863          	bnez	a1,800065ac <__subdf3+0xcb4>
800061c0:	00030493          	mv	s1,t1
800061c4:	ba0690e3          	bnez	a3,80005d64 <__subdf3+0x46c>
800061c8:	00000493          	li	s1,0
800061cc:	004008b7          	lui	a7,0x400
800061d0:	7ff00413          	li	s0,2047
800061d4:	fc9ff06f          	j	8000619c <__subdf3+0x8a4>
800061d8:	01000713          	li	a4,16
800061dc:	fe1ff06f          	j	800061bc <__subdf3+0x8c4>
800061e0:	00000713          	li	a4,0
800061e4:	fddff06f          	j	800061c0 <__subdf3+0x8c8>
800061e8:	01000713          	li	a4,16
800061ec:	fd5ff06f          	j	800061c0 <__subdf3+0x8c8>
800061f0:	00000713          	li	a4,0
800061f4:	3b80006f          	j	800065ac <__subdf3+0xcb4>
800061f8:	40c507b3          	sub	a5,a0,a2
800061fc:	00f53733          	sltu	a4,a0,a5
80006200:	41088933          	sub	s2,a7,a6
80006204:	40e90933          	sub	s2,s2,a4
80006208:	00800737          	lui	a4,0x800
8000620c:	00e97733          	and	a4,s2,a4
80006210:	00078a13          	mv	s4,a5
80006214:	0c070863          	beqz	a4,800062e4 <__subdf3+0x9ec>
80006218:	40a60a33          	sub	s4,a2,a0
8000621c:	41180933          	sub	s2,a6,a7
80006220:	01463633          	sltu	a2,a2,s4
80006224:	40c90933          	sub	s2,s2,a2
80006228:	00030493          	mv	s1,t1
8000622c:	0c090263          	beqz	s2,800062f0 <__subdf3+0x9f8>
80006230:	00090513          	mv	a0,s2
80006234:	e85fc0ef          	jal	800030b8 <__clzsi2>
80006238:	ff850713          	add	a4,a0,-8
8000623c:	02000513          	li	a0,32
80006240:	40e50533          	sub	a0,a0,a4
80006244:	00e91933          	sll	s2,s2,a4
80006248:	00aa5533          	srl	a0,s4,a0
8000624c:	01256833          	or	a6,a0,s2
80006250:	00ea1933          	sll	s2,s4,a4
80006254:	0e874c63          	blt	a4,s0,8000634c <__subdf3+0xa54>
80006258:	40870733          	sub	a4,a4,s0
8000625c:	00170893          	add	a7,a4,1 # 800001 <__tcb_aligned_size+0x7fffc1>
80006260:	02000793          	li	a5,32
80006264:	411787b3          	sub	a5,a5,a7
80006268:	00f81733          	sll	a4,a6,a5
8000626c:	011956b3          	srl	a3,s2,a7
80006270:	00f917b3          	sll	a5,s2,a5
80006274:	00d76733          	or	a4,a4,a3
80006278:	00f037b3          	snez	a5,a5
8000627c:	00f76533          	or	a0,a4,a5
80006280:	011858b3          	srl	a7,a6,a7
80006284:	011567b3          	or	a5,a0,a7
80006288:	e40788e3          	beqz	a5,800060d8 <__subdf3+0x7e0>
8000628c:	01f55793          	srl	a5,a0,0x1f
80006290:	00189713          	sll	a4,a7,0x1
80006294:	00f70733          	add	a4,a4,a5
80006298:	00151793          	sll	a5,a0,0x1
8000629c:	0077f613          	and	a2,a5,7
800062a0:	00757693          	and	a3,a0,7
800062a4:	18060463          	beqz	a2,8000642c <__subdf3+0xb34>
800062a8:	00200613          	li	a2,2
800062ac:	12c98063          	beq	s3,a2,800063cc <__subdf3+0xad4>
800062b0:	00300613          	li	a2,3
800062b4:	0cc98463          	beq	s3,a2,8000637c <__subdf3+0xa84>
800062b8:	14099c63          	bnez	s3,80006410 <__subdf3+0xb18>
800062bc:	00f7f613          	and	a2,a5,15
800062c0:	00400593          	li	a1,4
800062c4:	ffc7b793          	sltiu	a5,a5,-4
800062c8:	0cb61e63          	bne	a2,a1,800063a4 <__subdf3+0xaac>
800062cc:	010007b7          	lui	a5,0x1000
800062d0:	00f77733          	and	a4,a4,a5
800062d4:	18071463          	bnez	a4,8000645c <__subdf3+0xb64>
800062d8:	18069a63          	bnez	a3,8000646c <__subdf3+0xb74>
800062dc:	00100793          	li	a5,1
800062e0:	1000006f          	j	800063e0 <__subdf3+0xae8>
800062e4:	0127e7b3          	or	a5,a5,s2
800062e8:	f40792e3          	bnez	a5,8000622c <__subdf3+0x934>
800062ec:	de5ff06f          	j	800060d0 <__subdf3+0x7d8>
800062f0:	000a0513          	mv	a0,s4
800062f4:	dc5fc0ef          	jal	800030b8 <__clzsi2>
800062f8:	01850713          	add	a4,a0,24
800062fc:	01f00793          	li	a5,31
80006300:	f2e7dee3          	bge	a5,a4,8000623c <__subdf3+0x944>
80006304:	ff850513          	add	a0,a0,-8
80006308:	00aa1833          	sll	a6,s4,a0
8000630c:	04874063          	blt	a4,s0,8000634c <__subdf3+0xa54>
80006310:	40870733          	sub	a4,a4,s0
80006314:	00170893          	add	a7,a4,1
80006318:	f517d4e3          	bge	a5,a7,80006260 <__subdf3+0x968>
8000631c:	fe170713          	add	a4,a4,-31
80006320:	02000793          	li	a5,32
80006324:	00e85733          	srl	a4,a6,a4
80006328:	00000513          	li	a0,0
8000632c:	00f88863          	beq	a7,a5,8000633c <__subdf3+0xa44>
80006330:	04000513          	li	a0,64
80006334:	41150533          	sub	a0,a0,a7
80006338:	00a81533          	sll	a0,a6,a0
8000633c:	00a03533          	snez	a0,a0
80006340:	00e56533          	or	a0,a0,a4
80006344:	00000893          	li	a7,0
80006348:	f3dff06f          	j	80006284 <__subdf3+0x98c>
8000634c:	ff8007b7          	lui	a5,0xff800
80006350:	fff78793          	add	a5,a5,-1 # ff7fffff <__BSS_END__+0x7f7f683f>
80006354:	40e40733          	sub	a4,s0,a4
80006358:	00f87833          	and	a6,a6,a5
8000635c:	00090613          	mv	a2,s2
80006360:	a61ff06f          	j	80005dc0 <__subdf3+0x4c8>
80006364:	00080893          	mv	a7,a6
80006368:	00060513          	mv	a0,a2
8000636c:	f19ff06f          	j	80006284 <__subdf3+0x98c>
80006370:	00080893          	mv	a7,a6
80006374:	00060513          	mv	a0,a2
80006378:	da1ff06f          	j	80006118 <__subdf3+0x820>
8000637c:	02048263          	beqz	s1,800063a0 <__subdf3+0xaa8>
80006380:	010007b7          	lui	a5,0x1000
80006384:	00f77733          	and	a4,a4,a5
80006388:	0c071463          	bnez	a4,80006450 <__subdf3+0xb58>
8000638c:	00048793          	mv	a5,s1
80006390:	04068863          	beqz	a3,800063e0 <__subdf3+0xae8>
80006394:	00048693          	mv	a3,s1
80006398:	00000713          	li	a4,0
8000639c:	a51ff06f          	j	80005dec <__subdf3+0x4f4>
800063a0:	ff87b793          	sltiu	a5,a5,-8
800063a4:	0017c793          	xor	a5,a5,1
800063a8:	00e787b3          	add	a5,a5,a4
800063ac:	01000737          	lui	a4,0x1000
800063b0:	00e7f7b3          	and	a5,a5,a4
800063b4:	0a079463          	bnez	a5,8000645c <__subdf3+0xb64>
800063b8:	00000713          	li	a4,0
800063bc:	f20680e3          	beqz	a3,800062dc <__subdf3+0x9e4>
800063c0:	00100693          	li	a3,1
800063c4:	00100793          	li	a5,1
800063c8:	a25ff06f          	j	80005dec <__subdf3+0x4f4>
800063cc:	00049e63          	bnez	s1,800063e8 <__subdf3+0xaf0>
800063d0:	010007b7          	lui	a5,0x1000
800063d4:	00f77733          	and	a4,a4,a5
800063d8:	00100793          	li	a5,1
800063dc:	06071c63          	bnez	a4,80006454 <__subdf3+0xb5c>
800063e0:	0027e793          	or	a5,a5,2
800063e4:	0980006f          	j	8000647c <__subdf3+0xb84>
800063e8:	ff87b793          	sltiu	a5,a5,-8
800063ec:	0017c793          	xor	a5,a5,1
800063f0:	00e787b3          	add	a5,a5,a4
800063f4:	01000737          	lui	a4,0x1000
800063f8:	00e7f7b3          	and	a5,a5,a4
800063fc:	04079a63          	bnez	a5,80006450 <__subdf3+0xb58>
80006400:	10069663          	bnez	a3,8000650c <__subdf3+0xc14>
80006404:	00048793          	mv	a5,s1
80006408:	00000713          	li	a4,0
8000640c:	fd5ff06f          	j	800063e0 <__subdf3+0xae8>
80006410:	010007b7          	lui	a5,0x1000
80006414:	00f77733          	and	a4,a4,a5
80006418:	04071263          	bnez	a4,8000645c <__subdf3+0xb64>
8000641c:	ec0680e3          	beqz	a3,800062dc <__subdf3+0x9e4>
80006420:	00100693          	li	a3,1
80006424:	00000713          	li	a4,0
80006428:	f9dff06f          	j	800063c4 <__subdf3+0xacc>
8000642c:	010007b7          	lui	a5,0x1000
80006430:	00f77733          	and	a4,a4,a5
80006434:	02071863          	bnez	a4,80006464 <__subdf3+0xb6c>
80006438:	00000793          	li	a5,0
8000643c:	04068063          	beqz	a3,8000647c <__subdf3+0xb84>
80006440:	00100693          	li	a3,1
80006444:	00000713          	li	a4,0
80006448:	00000793          	li	a5,0
8000644c:	dd8ff06f          	j	80005a24 <__subdf3+0x12c>
80006450:	00048793          	mv	a5,s1
80006454:	00000713          	li	a4,0
80006458:	dc4ff06f          	j	80005a1c <__subdf3+0x124>
8000645c:	00100793          	li	a5,1
80006460:	ff5ff06f          	j	80006454 <__subdf3+0xb5c>
80006464:	00000793          	li	a5,0
80006468:	fedff06f          	j	80006454 <__subdf3+0xb5c>
8000646c:	00000713          	li	a4,0
80006470:	f51ff06f          	j	800063c0 <__subdf3+0xac8>
80006474:	08048863          	beqz	s1,80006504 <__subdf3+0xc0c>
80006478:	0a069263          	bnez	a3,8000651c <__subdf3+0xc24>
8000647c:	008006b7          	lui	a3,0x800
80006480:	00d8f6b3          	and	a3,a7,a3
80006484:	0e068463          	beqz	a3,8000656c <__subdf3+0xc74>
80006488:	00170413          	add	s0,a4,1 # 1000001 <__tcb_aligned_size+0xffffc1>
8000648c:	7ff00713          	li	a4,2047
80006490:	08e40a63          	beq	s0,a4,80006524 <__subdf3+0xc2c>
80006494:	ff800637          	lui	a2,0xff800
80006498:	fff60613          	add	a2,a2,-1 # ff7fffff <__BSS_END__+0x7f7f683f>
8000649c:	00c8f633          	and	a2,a7,a2
800064a0:	01d61693          	sll	a3,a2,0x1d
800064a4:	00355513          	srl	a0,a0,0x3
800064a8:	00a6e6b3          	or	a3,a3,a0
800064ac:	00365613          	srl	a2,a2,0x3
800064b0:	00078713          	mv	a4,a5
800064b4:	7ff007b7          	lui	a5,0x7ff00
800064b8:	01441413          	sll	s0,s0,0x14
800064bc:	00c61613          	sll	a2,a2,0xc
800064c0:	00f47433          	and	s0,s0,a5
800064c4:	00c65613          	srl	a2,a2,0xc
800064c8:	00c46433          	or	s0,s0,a2
800064cc:	01f49493          	sll	s1,s1,0x1f
800064d0:	009467b3          	or	a5,s0,s1
800064d4:	00068513          	mv	a0,a3
800064d8:	00078593          	mv	a1,a5
800064dc:	00070463          	beqz	a4,800064e4 <__subdf3+0xbec>
800064e0:	00172073          	csrs	fflags,a4
800064e4:	01c12083          	lw	ra,28(sp)
800064e8:	01812403          	lw	s0,24(sp)
800064ec:	01412483          	lw	s1,20(sp)
800064f0:	01012903          	lw	s2,16(sp)
800064f4:	00c12983          	lw	s3,12(sp)
800064f8:	00812a03          	lw	s4,8(sp)
800064fc:	02010113          	add	sp,sp,32
80006500:	00008067          	ret
80006504:	00850613          	add	a2,a0,8
80006508:	901ff06f          	j	80005e08 <__subdf3+0x510>
8000650c:	00048693          	mv	a3,s1
80006510:	00048793          	mv	a5,s1
80006514:	00000713          	li	a4,0
80006518:	d18ff06f          	j	80005a30 <__subdf3+0x138>
8000651c:	00068493          	mv	s1,a3
80006520:	ec1ff06f          	j	800063e0 <__subdf3+0xae8>
80006524:	00000693          	li	a3,0
80006528:	00098863          	beqz	s3,80006538 <__subdf3+0xc40>
8000652c:	00300713          	li	a4,3
80006530:	00e99a63          	bne	s3,a4,80006544 <__subdf3+0xc4c>
80006534:	00049e63          	bnez	s1,80006550 <__subdf3+0xc58>
80006538:	0057e713          	or	a4,a5,5
8000653c:	00068893          	mv	a7,a3
80006540:	fe0ff06f          	j	80005d20 <__subdf3+0x428>
80006544:	00200713          	li	a4,2
80006548:	00e99463          	bne	s3,a4,80006550 <__subdf3+0xc58>
8000654c:	fe0496e3          	bnez	s1,80006538 <__subdf3+0xc40>
80006550:	fff00693          	li	a3,-1
80006554:	7fe00413          	li	s0,2046
80006558:	fe1ff06f          	j	80006538 <__subdf3+0xc40>
8000655c:	7ff00413          	li	s0,2047
80006560:	d98ff06f          	j	80005af8 <__subdf3+0x200>
80006564:	00000893          	li	a7,0
80006568:	fb8ff06f          	j	80005d20 <__subdf3+0x428>
8000656c:	00070413          	mv	s0,a4
80006570:	00050693          	mv	a3,a0
80006574:	00078713          	mv	a4,a5
80006578:	fa8ff06f          	j	80005d20 <__subdf3+0x428>
8000657c:	808718e3          	bne	a4,s0,80005d8c <__subdf3+0x494>
80006580:	fc031a63          	bnez	t1,80005d54 <__subdf3+0x45c>
80006584:	00088813          	mv	a6,a7
80006588:	00050613          	mv	a2,a0
8000658c:	01000793          	li	a5,16
80006590:	c80ff06f          	j	80005a10 <__subdf3+0x118>
80006594:	be8714e3          	bne	a4,s0,8000617c <__subdf3+0x884>
80006598:	01000793          	li	a5,16
8000659c:	cc068463          	beqz	a3,80005a64 <__subdf3+0x16c>
800065a0:	00c87633          	and	a2,a6,a2
800065a4:	01000713          	li	a4,16
800065a8:	f6061463          	bnez	a2,80005d10 <__subdf3+0x418>
800065ac:	f6069263          	bnez	a3,80005d10 <__subdf3+0x418>
800065b0:	fd0ff06f          	j	80005d80 <__subdf3+0x488>

800065b4 <__fixdfsi>:
800065b4:	00050613          	mv	a2,a0
800065b8:	002027f3          	frrm	a5
800065bc:	001007b7          	lui	a5,0x100
800065c0:	0145d693          	srl	a3,a1,0x14
800065c4:	fff78813          	add	a6,a5,-1 # fffff <__tcb_aligned_size+0xfffbf>
800065c8:	7ff6f693          	and	a3,a3,2047
800065cc:	3fe00713          	li	a4,1022
800065d0:	00b87833          	and	a6,a6,a1
800065d4:	01f5d593          	srl	a1,a1,0x1f
800065d8:	00d74a63          	blt	a4,a3,800065ec <__fixdfsi+0x38>
800065dc:	0a069e63          	bnez	a3,80006698 <__fixdfsi+0xe4>
800065e0:	00a86533          	or	a0,a6,a0
800065e4:	0a051a63          	bnez	a0,80006698 <__fixdfsi+0xe4>
800065e8:	00008067          	ret
800065ec:	41d00713          	li	a4,1053
800065f0:	02d75e63          	bge	a4,a3,8000662c <__fixdfsi+0x78>
800065f4:	800007b7          	lui	a5,0x80000
800065f8:	fff7c793          	not	a5,a5
800065fc:	00f58533          	add	a0,a1,a5
80006600:	0a058263          	beqz	a1,800066a4 <__fixdfsi+0xf0>
80006604:	41e00793          	li	a5,1054
80006608:	01000713          	li	a4,16
8000660c:	04f69c63          	bne	a3,a5,80006664 <__fixdfsi+0xb0>
80006610:	00b81813          	sll	a6,a6,0xb
80006614:	01565793          	srl	a5,a2,0x15
80006618:	00f86833          	or	a6,a6,a5
8000661c:	04081463          	bnez	a6,80006664 <__fixdfsi+0xb0>
80006620:	00b61613          	sll	a2,a2,0xb
80006624:	08061463          	bnez	a2,800066ac <__fixdfsi+0xf8>
80006628:	00008067          	ret
8000662c:	00f867b3          	or	a5,a6,a5
80006630:	43300813          	li	a6,1075
80006634:	40d80833          	sub	a6,a6,a3
80006638:	01f00713          	li	a4,31
8000663c:	03074863          	blt	a4,a6,8000666c <__fixdfsi+0xb8>
80006640:	bed68693          	add	a3,a3,-1043 # 7ffbed <__tcb_aligned_size+0x7ffbad>
80006644:	00d51733          	sll	a4,a0,a3
80006648:	01065833          	srl	a6,a2,a6
8000664c:	00d79533          	sll	a0,a5,a3
80006650:	00e03733          	snez	a4,a4
80006654:	01056533          	or	a0,a0,a6
80006658:	00058463          	beqz	a1,80006660 <__fixdfsi+0xac>
8000665c:	40a00533          	neg	a0,a0
80006660:	00070463          	beqz	a4,80006668 <__fixdfsi+0xb4>
80006664:	00172073          	csrs	fflags,a4
80006668:	00008067          	ret
8000666c:	02000513          	li	a0,32
80006670:	00000713          	li	a4,0
80006674:	00a80663          	beq	a6,a0,80006680 <__fixdfsi+0xcc>
80006678:	c0d68713          	add	a4,a3,-1011
8000667c:	00e79733          	sll	a4,a5,a4
80006680:	00c76733          	or	a4,a4,a2
80006684:	41300613          	li	a2,1043
80006688:	40d606b3          	sub	a3,a2,a3
8000668c:	00e03733          	snez	a4,a4
80006690:	00d7d533          	srl	a0,a5,a3
80006694:	fc5ff06f          	j	80006658 <__fixdfsi+0xa4>
80006698:	00000513          	li	a0,0
8000669c:	00100713          	li	a4,1
800066a0:	fc5ff06f          	j	80006664 <__fixdfsi+0xb0>
800066a4:	01000713          	li	a4,16
800066a8:	fbdff06f          	j	80006664 <__fixdfsi+0xb0>
800066ac:	00058713          	mv	a4,a1
800066b0:	fb5ff06f          	j	80006664 <__fixdfsi+0xb0>

800066b4 <__fixunsdfsi>:
800066b4:	00050693          	mv	a3,a0
800066b8:	002027f3          	frrm	a5
800066bc:	00100637          	lui	a2,0x100
800066c0:	0145d713          	srl	a4,a1,0x14
800066c4:	fff60793          	add	a5,a2,-1 # fffff <__tcb_aligned_size+0xfffbf>
800066c8:	7ff77713          	and	a4,a4,2047
800066cc:	3fe00513          	li	a0,1022
800066d0:	00b7f7b3          	and	a5,a5,a1
800066d4:	01f5d593          	srl	a1,a1,0x1f
800066d8:	00e54a63          	blt	a0,a4,800066ec <__fixunsdfsi+0x38>
800066dc:	06071e63          	bnez	a4,80006758 <__fixunsdfsi+0xa4>
800066e0:	00d7e533          	or	a0,a5,a3
800066e4:	06051a63          	bnez	a0,80006758 <__fixunsdfsi+0xa4>
800066e8:	00008067          	ret
800066ec:	06059a63          	bnez	a1,80006760 <__fixunsdfsi+0xac>
800066f0:	41e00593          	li	a1,1054
800066f4:	06e5ce63          	blt	a1,a4,80006770 <__fixunsdfsi+0xbc>
800066f8:	00c7e7b3          	or	a5,a5,a2
800066fc:	43300613          	li	a2,1075
80006700:	40e60633          	sub	a2,a2,a4
80006704:	01f00593          	li	a1,31
80006708:	02c5c063          	blt	a1,a2,80006728 <__fixunsdfsi+0x74>
8000670c:	bed70713          	add	a4,a4,-1043
80006710:	00c6d633          	srl	a2,a3,a2
80006714:	00e797b3          	sll	a5,a5,a4
80006718:	00e696b3          	sll	a3,a3,a4
8000671c:	00c7e533          	or	a0,a5,a2
80006720:	02069863          	bnez	a3,80006750 <__fixunsdfsi+0x9c>
80006724:	00008067          	ret
80006728:	02000513          	li	a0,32
8000672c:	00000593          	li	a1,0
80006730:	00a60663          	beq	a2,a0,8000673c <__fixunsdfsi+0x88>
80006734:	c0d70593          	add	a1,a4,-1011
80006738:	00b795b3          	sll	a1,a5,a1
8000673c:	41300613          	li	a2,1043
80006740:	40e60733          	sub	a4,a2,a4
80006744:	00d5e5b3          	or	a1,a1,a3
80006748:	00e7d533          	srl	a0,a5,a4
8000674c:	02058063          	beqz	a1,8000676c <__fixunsdfsi+0xb8>
80006750:	00100793          	li	a5,1
80006754:	0140006f          	j	80006768 <__fixunsdfsi+0xb4>
80006758:	00000513          	li	a0,0
8000675c:	ff5ff06f          	j	80006750 <__fixunsdfsi+0x9c>
80006760:	00000513          	li	a0,0
80006764:	01000793          	li	a5,16
80006768:	0017a073          	csrs	fflags,a5
8000676c:	00008067          	ret
80006770:	fff00513          	li	a0,-1
80006774:	ff1ff06f          	j	80006764 <__fixunsdfsi+0xb0>

80006778 <__floatsidf>:
80006778:	ff010113          	add	sp,sp,-16
8000677c:	00112623          	sw	ra,12(sp)
80006780:	00812423          	sw	s0,8(sp)
80006784:	00912223          	sw	s1,4(sp)
80006788:	08050663          	beqz	a0,80006814 <__floatsidf+0x9c>
8000678c:	41f55793          	sra	a5,a0,0x1f
80006790:	00a7c433          	xor	s0,a5,a0
80006794:	40f40433          	sub	s0,s0,a5
80006798:	01f55493          	srl	s1,a0,0x1f
8000679c:	00040513          	mv	a0,s0
800067a0:	919fc0ef          	jal	800030b8 <__clzsi2>
800067a4:	41e00713          	li	a4,1054
800067a8:	00a00793          	li	a5,10
800067ac:	40a70733          	sub	a4,a4,a0
800067b0:	04a7c863          	blt	a5,a0,80006800 <__floatsidf+0x88>
800067b4:	00b00793          	li	a5,11
800067b8:	40a787b3          	sub	a5,a5,a0
800067bc:	01550513          	add	a0,a0,21
800067c0:	00f457b3          	srl	a5,s0,a5
800067c4:	00a41433          	sll	s0,s0,a0
800067c8:	00048513          	mv	a0,s1
800067cc:	00c79793          	sll	a5,a5,0xc
800067d0:	00c7d793          	srl	a5,a5,0xc
800067d4:	01471713          	sll	a4,a4,0x14
800067d8:	01f51513          	sll	a0,a0,0x1f
800067dc:	00f76733          	or	a4,a4,a5
800067e0:	00c12083          	lw	ra,12(sp)
800067e4:	00a767b3          	or	a5,a4,a0
800067e8:	00040513          	mv	a0,s0
800067ec:	00812403          	lw	s0,8(sp)
800067f0:	00412483          	lw	s1,4(sp)
800067f4:	00078593          	mv	a1,a5
800067f8:	01010113          	add	sp,sp,16
800067fc:	00008067          	ret
80006800:	ff550513          	add	a0,a0,-11
80006804:	00a417b3          	sll	a5,s0,a0
80006808:	00048513          	mv	a0,s1
8000680c:	00000413          	li	s0,0
80006810:	fbdff06f          	j	800067cc <__floatsidf+0x54>
80006814:	00000713          	li	a4,0
80006818:	00000793          	li	a5,0
8000681c:	ff1ff06f          	j	8000680c <__floatsidf+0x94>

80006820 <__floatunsidf>:
80006820:	ff010113          	add	sp,sp,-16
80006824:	00812423          	sw	s0,8(sp)
80006828:	00112623          	sw	ra,12(sp)
8000682c:	00050413          	mv	s0,a0
80006830:	06050263          	beqz	a0,80006894 <__floatunsidf+0x74>
80006834:	885fc0ef          	jal	800030b8 <__clzsi2>
80006838:	41e00713          	li	a4,1054
8000683c:	00a00793          	li	a5,10
80006840:	40a70733          	sub	a4,a4,a0
80006844:	04a7c063          	blt	a5,a0,80006884 <__floatunsidf+0x64>
80006848:	00b00793          	li	a5,11
8000684c:	40a787b3          	sub	a5,a5,a0
80006850:	01550513          	add	a0,a0,21
80006854:	00f457b3          	srl	a5,s0,a5
80006858:	00a41433          	sll	s0,s0,a0
8000685c:	00c12083          	lw	ra,12(sp)
80006860:	00040513          	mv	a0,s0
80006864:	00c79793          	sll	a5,a5,0xc
80006868:	00812403          	lw	s0,8(sp)
8000686c:	01471713          	sll	a4,a4,0x14
80006870:	00c7d793          	srl	a5,a5,0xc
80006874:	00f766b3          	or	a3,a4,a5
80006878:	00068593          	mv	a1,a3
8000687c:	01010113          	add	sp,sp,16
80006880:	00008067          	ret
80006884:	ff550513          	add	a0,a0,-11
80006888:	00a417b3          	sll	a5,s0,a0
8000688c:	00000413          	li	s0,0
80006890:	fcdff06f          	j	8000685c <__floatunsidf+0x3c>
80006894:	00000793          	li	a5,0
80006898:	00000713          	li	a4,0
8000689c:	fc1ff06f          	j	8000685c <__floatunsidf+0x3c>

800068a0 <atexit>:
800068a0:	00050593          	mv	a1,a0
800068a4:	00000693          	li	a3,0
800068a8:	00000613          	li	a2,0
800068ac:	00000513          	li	a0,0
800068b0:	2840006f          	j	80006b34 <__register_exitproc>

800068b4 <memcpy>:
800068b4:	00b547b3          	xor	a5,a0,a1
800068b8:	0037f793          	and	a5,a5,3
800068bc:	00c508b3          	add	a7,a0,a2
800068c0:	06079463          	bnez	a5,80006928 <memcpy+0x74>
800068c4:	00300793          	li	a5,3
800068c8:	06c7f063          	bgeu	a5,a2,80006928 <memcpy+0x74>
800068cc:	00357793          	and	a5,a0,3
800068d0:	00050713          	mv	a4,a0
800068d4:	06079a63          	bnez	a5,80006948 <memcpy+0x94>
800068d8:	ffc8f613          	and	a2,a7,-4
800068dc:	40e606b3          	sub	a3,a2,a4
800068e0:	02000793          	li	a5,32
800068e4:	08d7ce63          	blt	a5,a3,80006980 <memcpy+0xcc>
800068e8:	00058693          	mv	a3,a1
800068ec:	00070793          	mv	a5,a4
800068f0:	02c77863          	bgeu	a4,a2,80006920 <memcpy+0x6c>
800068f4:	0006a803          	lw	a6,0(a3)
800068f8:	00478793          	add	a5,a5,4 # 80000004 <_start+0x4>
800068fc:	00468693          	add	a3,a3,4
80006900:	ff07ae23          	sw	a6,-4(a5)
80006904:	fec7e8e3          	bltu	a5,a2,800068f4 <memcpy+0x40>
80006908:	fff60793          	add	a5,a2,-1
8000690c:	40e787b3          	sub	a5,a5,a4
80006910:	ffc7f793          	and	a5,a5,-4
80006914:	00478793          	add	a5,a5,4
80006918:	00f70733          	add	a4,a4,a5
8000691c:	00f585b3          	add	a1,a1,a5
80006920:	01176863          	bltu	a4,a7,80006930 <memcpy+0x7c>
80006924:	00008067          	ret
80006928:	00050713          	mv	a4,a0
8000692c:	05157863          	bgeu	a0,a7,8000697c <memcpy+0xc8>
80006930:	0005c783          	lbu	a5,0(a1) # 400000 <__tcb_aligned_size+0x3fffc0>
80006934:	00170713          	add	a4,a4,1
80006938:	00158593          	add	a1,a1,1
8000693c:	fef70fa3          	sb	a5,-1(a4)
80006940:	fee898e3          	bne	a7,a4,80006930 <memcpy+0x7c>
80006944:	00008067          	ret
80006948:	0005c683          	lbu	a3,0(a1)
8000694c:	00170713          	add	a4,a4,1
80006950:	00377793          	and	a5,a4,3
80006954:	fed70fa3          	sb	a3,-1(a4)
80006958:	00158593          	add	a1,a1,1
8000695c:	f6078ee3          	beqz	a5,800068d8 <memcpy+0x24>
80006960:	0005c683          	lbu	a3,0(a1)
80006964:	00170713          	add	a4,a4,1
80006968:	00377793          	and	a5,a4,3
8000696c:	fed70fa3          	sb	a3,-1(a4)
80006970:	00158593          	add	a1,a1,1
80006974:	fc079ae3          	bnez	a5,80006948 <memcpy+0x94>
80006978:	f61ff06f          	j	800068d8 <memcpy+0x24>
8000697c:	00008067          	ret
80006980:	ff010113          	add	sp,sp,-16
80006984:	00812623          	sw	s0,12(sp)
80006988:	02000413          	li	s0,32
8000698c:	0005a383          	lw	t2,0(a1)
80006990:	0045a283          	lw	t0,4(a1)
80006994:	0085af83          	lw	t6,8(a1)
80006998:	00c5af03          	lw	t5,12(a1)
8000699c:	0105ae83          	lw	t4,16(a1)
800069a0:	0145ae03          	lw	t3,20(a1)
800069a4:	0185a303          	lw	t1,24(a1)
800069a8:	01c5a803          	lw	a6,28(a1)
800069ac:	0205a683          	lw	a3,32(a1)
800069b0:	02470713          	add	a4,a4,36
800069b4:	40e607b3          	sub	a5,a2,a4
800069b8:	fc772e23          	sw	t2,-36(a4)
800069bc:	fe572023          	sw	t0,-32(a4)
800069c0:	fff72223          	sw	t6,-28(a4)
800069c4:	ffe72423          	sw	t5,-24(a4)
800069c8:	ffd72623          	sw	t4,-20(a4)
800069cc:	ffc72823          	sw	t3,-16(a4)
800069d0:	fe672a23          	sw	t1,-12(a4)
800069d4:	ff072c23          	sw	a6,-8(a4)
800069d8:	fed72e23          	sw	a3,-4(a4)
800069dc:	02458593          	add	a1,a1,36
800069e0:	faf446e3          	blt	s0,a5,8000698c <memcpy+0xd8>
800069e4:	00058693          	mv	a3,a1
800069e8:	00070793          	mv	a5,a4
800069ec:	02c77863          	bgeu	a4,a2,80006a1c <memcpy+0x168>
800069f0:	0006a803          	lw	a6,0(a3)
800069f4:	00478793          	add	a5,a5,4
800069f8:	00468693          	add	a3,a3,4
800069fc:	ff07ae23          	sw	a6,-4(a5)
80006a00:	fec7e8e3          	bltu	a5,a2,800069f0 <memcpy+0x13c>
80006a04:	fff60793          	add	a5,a2,-1
80006a08:	40e787b3          	sub	a5,a5,a4
80006a0c:	ffc7f793          	and	a5,a5,-4
80006a10:	00478793          	add	a5,a5,4
80006a14:	00f70733          	add	a4,a4,a5
80006a18:	00f585b3          	add	a1,a1,a5
80006a1c:	01176863          	bltu	a4,a7,80006a2c <memcpy+0x178>
80006a20:	00c12403          	lw	s0,12(sp)
80006a24:	01010113          	add	sp,sp,16
80006a28:	00008067          	ret
80006a2c:	0005c783          	lbu	a5,0(a1)
80006a30:	00170713          	add	a4,a4,1
80006a34:	00158593          	add	a1,a1,1
80006a38:	fef70fa3          	sb	a5,-1(a4)
80006a3c:	fee882e3          	beq	a7,a4,80006a20 <memcpy+0x16c>
80006a40:	0005c783          	lbu	a5,0(a1)
80006a44:	00170713          	add	a4,a4,1
80006a48:	00158593          	add	a1,a1,1
80006a4c:	fef70fa3          	sb	a5,-1(a4)
80006a50:	fce89ee3          	bne	a7,a4,80006a2c <memcpy+0x178>
80006a54:	fcdff06f          	j	80006a20 <memcpy+0x16c>

80006a58 <memset>:
80006a58:	00f00313          	li	t1,15
80006a5c:	00050713          	mv	a4,a0
80006a60:	02c37e63          	bgeu	t1,a2,80006a9c <memset+0x44>
80006a64:	00f77793          	and	a5,a4,15
80006a68:	0a079063          	bnez	a5,80006b08 <memset+0xb0>
80006a6c:	08059263          	bnez	a1,80006af0 <memset+0x98>
80006a70:	ff067693          	and	a3,a2,-16
80006a74:	00f67613          	and	a2,a2,15
80006a78:	00e686b3          	add	a3,a3,a4
80006a7c:	00b72023          	sw	a1,0(a4)
80006a80:	00b72223          	sw	a1,4(a4)
80006a84:	00b72423          	sw	a1,8(a4)
80006a88:	00b72623          	sw	a1,12(a4)
80006a8c:	01070713          	add	a4,a4,16
80006a90:	fed766e3          	bltu	a4,a3,80006a7c <memset+0x24>
80006a94:	00061463          	bnez	a2,80006a9c <memset+0x44>
80006a98:	00008067          	ret
80006a9c:	40c306b3          	sub	a3,t1,a2
80006aa0:	00269693          	sll	a3,a3,0x2
80006aa4:	00000297          	auipc	t0,0x0
80006aa8:	005686b3          	add	a3,a3,t0
80006aac:	00c68067          	jr	12(a3)
80006ab0:	00b70723          	sb	a1,14(a4)
80006ab4:	00b706a3          	sb	a1,13(a4)
80006ab8:	00b70623          	sb	a1,12(a4)
80006abc:	00b705a3          	sb	a1,11(a4)
80006ac0:	00b70523          	sb	a1,10(a4)
80006ac4:	00b704a3          	sb	a1,9(a4)
80006ac8:	00b70423          	sb	a1,8(a4)
80006acc:	00b703a3          	sb	a1,7(a4)
80006ad0:	00b70323          	sb	a1,6(a4)
80006ad4:	00b702a3          	sb	a1,5(a4)
80006ad8:	00b70223          	sb	a1,4(a4)
80006adc:	00b701a3          	sb	a1,3(a4)
80006ae0:	00b70123          	sb	a1,2(a4)
80006ae4:	00b700a3          	sb	a1,1(a4)
80006ae8:	00b70023          	sb	a1,0(a4)
80006aec:	00008067          	ret
80006af0:	0ff5f593          	zext.b	a1,a1
80006af4:	00859693          	sll	a3,a1,0x8
80006af8:	00d5e5b3          	or	a1,a1,a3
80006afc:	01059693          	sll	a3,a1,0x10
80006b00:	00d5e5b3          	or	a1,a1,a3
80006b04:	f6dff06f          	j	80006a70 <memset+0x18>
80006b08:	00279693          	sll	a3,a5,0x2
80006b0c:	00000297          	auipc	t0,0x0
80006b10:	005686b3          	add	a3,a3,t0
80006b14:	00008293          	mv	t0,ra
80006b18:	fa0680e7          	jalr	-96(a3)
80006b1c:	00028093          	mv	ra,t0
80006b20:	ff078793          	add	a5,a5,-16
80006b24:	40f70733          	sub	a4,a4,a5
80006b28:	00f60633          	add	a2,a2,a5
80006b2c:	f6c378e3          	bgeu	t1,a2,80006a9c <memset+0x44>
80006b30:	f3dff06f          	j	80006a6c <memset+0x14>

80006b34 <__register_exitproc>:
80006b34:	00002717          	auipc	a4,0x2
80006b38:	b0c72703          	lw	a4,-1268(a4) # 80008640 <_global_impure_ptr>
80006b3c:	14872783          	lw	a5,328(a4)
80006b40:	04078c63          	beqz	a5,80006b98 <__register_exitproc+0x64>
80006b44:	0047a703          	lw	a4,4(a5)
80006b48:	01f00813          	li	a6,31
80006b4c:	06e84e63          	blt	a6,a4,80006bc8 <__register_exitproc+0x94>
80006b50:	00271813          	sll	a6,a4,0x2
80006b54:	02050663          	beqz	a0,80006b80 <__register_exitproc+0x4c>
80006b58:	01078333          	add	t1,a5,a6
80006b5c:	08c32423          	sw	a2,136(t1)
80006b60:	1887a883          	lw	a7,392(a5)
80006b64:	00100613          	li	a2,1
80006b68:	00e61633          	sll	a2,a2,a4
80006b6c:	00c8e8b3          	or	a7,a7,a2
80006b70:	1917a423          	sw	a7,392(a5)
80006b74:	10d32423          	sw	a3,264(t1)
80006b78:	00200693          	li	a3,2
80006b7c:	02d50463          	beq	a0,a3,80006ba4 <__register_exitproc+0x70>
80006b80:	00170713          	add	a4,a4,1
80006b84:	00e7a223          	sw	a4,4(a5)
80006b88:	010787b3          	add	a5,a5,a6
80006b8c:	00b7a423          	sw	a1,8(a5)
80006b90:	00000513          	li	a0,0
80006b94:	00008067          	ret
80006b98:	14c70793          	add	a5,a4,332
80006b9c:	14f72423          	sw	a5,328(a4)
80006ba0:	fa5ff06f          	j	80006b44 <__register_exitproc+0x10>
80006ba4:	18c7a683          	lw	a3,396(a5)
80006ba8:	00170713          	add	a4,a4,1
80006bac:	00e7a223          	sw	a4,4(a5)
80006bb0:	00c6e6b3          	or	a3,a3,a2
80006bb4:	18d7a623          	sw	a3,396(a5)
80006bb8:	010787b3          	add	a5,a5,a6
80006bbc:	00b7a423          	sw	a1,8(a5)
80006bc0:	00000513          	li	a0,0
80006bc4:	00008067          	ret
80006bc8:	fff00513          	li	a0,-1
80006bcc:	00008067          	ret

80006bd0 <__call_exitprocs>:
80006bd0:	fd010113          	add	sp,sp,-48
80006bd4:	01412c23          	sw	s4,24(sp)
80006bd8:	00002a17          	auipc	s4,0x2
80006bdc:	a68a2a03          	lw	s4,-1432(s4) # 80008640 <_global_impure_ptr>
80006be0:	03212023          	sw	s2,32(sp)
80006be4:	148a2903          	lw	s2,328(s4)
80006be8:	02112623          	sw	ra,44(sp)
80006bec:	02812423          	sw	s0,40(sp)
80006bf0:	02912223          	sw	s1,36(sp)
80006bf4:	01312e23          	sw	s3,28(sp)
80006bf8:	01512a23          	sw	s5,20(sp)
80006bfc:	01612823          	sw	s6,16(sp)
80006c00:	01712623          	sw	s7,12(sp)
80006c04:	01812423          	sw	s8,8(sp)
80006c08:	04090063          	beqz	s2,80006c48 <__call_exitprocs+0x78>
80006c0c:	00050b13          	mv	s6,a0
80006c10:	00058b93          	mv	s7,a1
80006c14:	00100a93          	li	s5,1
80006c18:	fff00993          	li	s3,-1
80006c1c:	00492483          	lw	s1,4(s2)
80006c20:	fff48413          	add	s0,s1,-1 # 7ffff <__tcb_aligned_size+0x7ffbf>
80006c24:	02044263          	bltz	s0,80006c48 <__call_exitprocs+0x78>
80006c28:	00249493          	sll	s1,s1,0x2
80006c2c:	009904b3          	add	s1,s2,s1
80006c30:	040b8463          	beqz	s7,80006c78 <__call_exitprocs+0xa8>
80006c34:	1044a783          	lw	a5,260(s1)
80006c38:	05778063          	beq	a5,s7,80006c78 <__call_exitprocs+0xa8>
80006c3c:	fff40413          	add	s0,s0,-1
80006c40:	ffc48493          	add	s1,s1,-4
80006c44:	ff3416e3          	bne	s0,s3,80006c30 <__call_exitprocs+0x60>
80006c48:	02c12083          	lw	ra,44(sp)
80006c4c:	02812403          	lw	s0,40(sp)
80006c50:	02412483          	lw	s1,36(sp)
80006c54:	02012903          	lw	s2,32(sp)
80006c58:	01c12983          	lw	s3,28(sp)
80006c5c:	01812a03          	lw	s4,24(sp)
80006c60:	01412a83          	lw	s5,20(sp)
80006c64:	01012b03          	lw	s6,16(sp)
80006c68:	00c12b83          	lw	s7,12(sp)
80006c6c:	00812c03          	lw	s8,8(sp)
80006c70:	03010113          	add	sp,sp,48
80006c74:	00008067          	ret
80006c78:	00492783          	lw	a5,4(s2)
80006c7c:	0044a683          	lw	a3,4(s1)
80006c80:	fff78793          	add	a5,a5,-1
80006c84:	04878e63          	beq	a5,s0,80006ce0 <__call_exitprocs+0x110>
80006c88:	0004a223          	sw	zero,4(s1)
80006c8c:	fa0688e3          	beqz	a3,80006c3c <__call_exitprocs+0x6c>
80006c90:	18892783          	lw	a5,392(s2)
80006c94:	008a9733          	sll	a4,s5,s0
80006c98:	00492c03          	lw	s8,4(s2)
80006c9c:	00f777b3          	and	a5,a4,a5
80006ca0:	02079263          	bnez	a5,80006cc4 <__call_exitprocs+0xf4>
80006ca4:	000680e7          	jalr	a3
80006ca8:	00492703          	lw	a4,4(s2)
80006cac:	148a2783          	lw	a5,328(s4)
80006cb0:	01871463          	bne	a4,s8,80006cb8 <__call_exitprocs+0xe8>
80006cb4:	f92784e3          	beq	a5,s2,80006c3c <__call_exitprocs+0x6c>
80006cb8:	f80788e3          	beqz	a5,80006c48 <__call_exitprocs+0x78>
80006cbc:	00078913          	mv	s2,a5
80006cc0:	f5dff06f          	j	80006c1c <__call_exitprocs+0x4c>
80006cc4:	18c92783          	lw	a5,396(s2)
80006cc8:	0844a583          	lw	a1,132(s1)
80006ccc:	00f77733          	and	a4,a4,a5
80006cd0:	00071c63          	bnez	a4,80006ce8 <__call_exitprocs+0x118>
80006cd4:	000b0513          	mv	a0,s6
80006cd8:	000680e7          	jalr	a3
80006cdc:	fcdff06f          	j	80006ca8 <__call_exitprocs+0xd8>
80006ce0:	00892223          	sw	s0,4(s2)
80006ce4:	fa9ff06f          	j	80006c8c <__call_exitprocs+0xbc>
80006ce8:	00058513          	mv	a0,a1
80006cec:	000680e7          	jalr	a3
80006cf0:	fb9ff06f          	j	80006ca8 <__call_exitprocs+0xd8>

Disassembly of section .rodata:

80006cf8 <pow10.0-0x2b8>:
80006cf8:	6150                	.2byte	0x6150
80006cfa:	64657373          	csrrc	t1,hviprio1,10
80006cfe:	0a21                	.2byte	0xa21
80006d00:	0000                	.2byte	0x0
80006d02:	0000                	.2byte	0x0
80006d04:	6146                	.2byte	0x6146
80006d06:	6c69                	.2byte	0x6c69
80006d08:	6465                	.2byte	0x6465
80006d0a:	0a21                	.2byte	0xa21
80006d0c:	0000                	.2byte	0x0
80006d0e:	0000                	.2byte	0x0
80006d10:	2a2a                	.2byte	0x2a2a
80006d12:	202a                	.2byte	0x202a
80006d14:	7265                	.2byte	0x7265
80006d16:	6f72                	.2byte	0x6f72
80006d18:	3a72                	.2byte	0x3a72
80006d1a:	5b20                	.2byte	0x5b20
80006d1c:	6425                	.2byte	0x6425
80006d1e:	205d                	.2byte	0x205d
80006d20:	7830                	.2byte	0x7830
80006d22:	7825                	.2byte	0x7825
80006d24:	202c                	.2byte	0x202c
80006d26:	7865                	.2byte	0x7865
80006d28:	6570                	.2byte	0x6570
80006d2a:	64657463          	bgeu	a0,t1,80007372 <__clz_tab+0x336>
80006d2e:	3020                	.2byte	0x3020
80006d30:	2578                	.2byte	0x2578
80006d32:	0a78                	.2byte	0xa78
80006d34:	0000                	.2byte	0x0
80006d36:	0000                	.2byte	0x0
80006d38:	626f6c47          	.4byte	0x626f6c47
80006d3c:	6c61                	.2byte	0x6c61
80006d3e:	4d20                	.2byte	0x4d20
80006d40:	6d65                	.2byte	0x6d65
80006d42:	2079726f          	jal	tp,8009e748 <__BSS_END__+0x94f88>
80006d46:	6554                	.2byte	0x6554
80006d48:	000a7473          	csrrc	s0,ustatus,20
80006d4c:	72616853          	.4byte	0x72616853
80006d50:	6465                	.2byte	0x6465
80006d52:	4d20                	.2byte	0x4d20
80006d54:	6d65                	.2byte	0x6d65
80006d56:	2079726f          	jal	tp,8009e75c <__BSS_END__+0x94f9c>
80006d5a:	6554                	.2byte	0x6554
80006d5c:	000a7473          	csrrc	s0,ustatus,20
80006d60:	4d54                	.2byte	0x4d54
80006d62:	65542043          	.4byte	0x65542043
80006d66:	000a7473          	csrrc	s0,ustatus,20
80006d6a:	0000                	.2byte	0x0
80006d6c:	5250                	.2byte	0x5250
80006d6e:	4445                	.2byte	0x4445
80006d70:	5420                	.2byte	0x5420
80006d72:	7365                	.2byte	0x7365
80006d74:	0a74                	.2byte	0xa74
80006d76:	0000                	.2byte	0x0
80006d78:	61707357          	.4byte	0x61707357
80006d7c:	54206e77          	.4byte	0x54206e77
80006d80:	7365                	.2byte	0x7365
80006d82:	0a74                	.2byte	0xa74
80006d84:	0000                	.2byte	0x0
80006d86:	0000                	.2byte	0x0
80006d88:	746e6f43          	.4byte	0x746e6f43
80006d8c:	6f72                	.2byte	0x6f72
80006d8e:	206c                	.2byte	0x206c
80006d90:	6944                	.2byte	0x6944
80006d92:	6576                	.2byte	0x6576
80006d94:	6772                	.2byte	0x6772
80006d96:	6e65                	.2byte	0x6e65
80006d98:	54206563          	bltu	zero,sp,800072e2 <__clz_tab+0x2a6>
80006d9c:	7365                	.2byte	0x7365
80006d9e:	0a74                	.2byte	0xa74
80006da0:	0000                	.2byte	0x0
80006da2:	0000                	.2byte	0x0
80006da4:	77617053          	.4byte	0x77617053
80006da8:	546e                	.2byte	0x546e
80006daa:	7361                	.2byte	0x7361
80006dac:	5420736b          	.4byte	0x5420736b
80006db0:	7365                	.2byte	0x7365
80006db2:	0a74                	.2byte	0xa74
80006db4:	0000                	.2byte	0x0
80006db6:	0000                	.2byte	0x0
80006db8:	69726553          	.4byte	0x69726553
80006dbc:	6c61                	.2byte	0x6c61
80006dbe:	5420                	.2byte	0x5420
80006dc0:	7365                	.2byte	0x7365
80006dc2:	0a74                	.2byte	0xa74
80006dc4:	0000                	.2byte	0x0
80006dc6:	0000                	.2byte	0x0
80006dc8:	6854                	.2byte	0x6854
80006dca:	6572                	.2byte	0x6572
80006dcc:	6461                	.2byte	0x6461
80006dce:	4d20                	.2byte	0x4d20
80006dd0:	7361                	.2byte	0x7361
80006dd2:	6554206b          	.4byte	0x6554206b
80006dd6:	000a7473          	csrrc	s0,ustatus,20
80006dda:	0000                	.2byte	0x0
80006ddc:	6142                	.2byte	0x6142
80006dde:	7272                	.2byte	0x7272
80006de0:	6569                	.2byte	0x6569
80006de2:	2072                	.2byte	0x2072
80006de4:	6554                	.2byte	0x6554
80006de6:	000a7473          	csrrc	s0,ustatus,20
80006dea:	0000                	.2byte	0x0
80006dec:	4c54                	.2byte	0x4c54
80006dee:	65542053          	.4byte	0x65542053
80006df2:	000a7473          	csrrc	s0,ustatus,20
80006df6:	0000                	.2byte	0x0
80006df8:	6e66                	.2byte	0x6e66
80006dfa:	2b69                	.2byte	0x2b69
80006dfc:	0000                	.2byte	0x0
80006dfe:	0000                	.2byte	0x0
80006e00:	6e66                	.2byte	0x6e66
80006e02:	0069                	.2byte	0x69
80006e04:	616e                	.2byte	0x616e
80006e06:	006e                	.2byte	0x6e
80006e08:	6e66                	.2byte	0x6e66
80006e0a:	2d69                	.2byte	0x2d69
80006e0c:	0000                	.2byte	0x0
80006e0e:	0000                	.2byte	0x0
80006e10:	b5fc                	.2byte	0xb5fc
80006e12:	ffff                	.2byte	0xffff
80006e14:	b578                	.2byte	0xb578
80006e16:	ffff                	.2byte	0xffff
80006e18:	b578                	.2byte	0xb578
80006e1a:	ffff                	.2byte	0xffff
80006e1c:	b5f0                	.2byte	0xb5f0
80006e1e:	ffff                	.2byte	0xffff
80006e20:	b578                	.2byte	0xb578
80006e22:	ffff                	.2byte	0xffff
80006e24:	b578                	.2byte	0xb578
80006e26:	ffff                	.2byte	0xffff
80006e28:	b578                	.2byte	0xb578
80006e2a:	ffff                	.2byte	0xffff
80006e2c:	b578                	.2byte	0xb578
80006e2e:	ffff                	.2byte	0xffff
80006e30:	b578                	.2byte	0xb578
80006e32:	ffff                	.2byte	0xffff
80006e34:	b578                	.2byte	0xb578
80006e36:	ffff                	.2byte	0xffff
80006e38:	b578                	.2byte	0xb578
80006e3a:	ffff                	.2byte	0xffff
80006e3c:	b5e4                	.2byte	0xb5e4
80006e3e:	ffff                	.2byte	0xffff
80006e40:	b578                	.2byte	0xb578
80006e42:	ffff                	.2byte	0xffff
80006e44:	b5d8                	.2byte	0xb5d8
80006e46:	ffff                	.2byte	0xffff
80006e48:	b578                	.2byte	0xb578
80006e4a:	ffff                	.2byte	0xffff
80006e4c:	b578                	.2byte	0xb578
80006e4e:	ffff                	.2byte	0xffff
80006e50:	b5cc                	.2byte	0xb5cc
80006e52:	ffff                	.2byte	0xffff
80006e54:	b85c                	.2byte	0xb85c
80006e56:	ffff                	.2byte	0xffff
80006e58:	b5d0                	.2byte	0xb5d0
80006e5a:	ffff                	.2byte	0xffff
80006e5c:	b84c                	.2byte	0xb84c
80006e5e:	ffff                	.2byte	0xffff
80006e60:	b5d0                	.2byte	0xb5d0
80006e62:	ffff                	.2byte	0xffff
80006e64:	b830                	.2byte	0xb830
80006e66:	ffff                	.2byte	0xffff
80006e68:	b5d0                	.2byte	0xb5d0
80006e6a:	ffff                	.2byte	0xffff
80006e6c:	b5d0                	.2byte	0xb5d0
80006e6e:	ffff                	.2byte	0xffff
80006e70:	b5d0                	.2byte	0xb5d0
80006e72:	ffff                	.2byte	0xffff
80006e74:	b5d0                	.2byte	0xb5d0
80006e76:	ffff                	.2byte	0xffff
80006e78:	b5d0                	.2byte	0xb5d0
80006e7a:	ffff                	.2byte	0xffff
80006e7c:	b5d0                	.2byte	0xb5d0
80006e7e:	ffff                	.2byte	0xffff
80006e80:	b5d0                	.2byte	0xb5d0
80006e82:	ffff                	.2byte	0xffff
80006e84:	b5c4                	.2byte	0xb5c4
80006e86:	ffff                	.2byte	0xffff
80006e88:	b5d0                	.2byte	0xb5d0
80006e8a:	ffff                	.2byte	0xffff
80006e8c:	b5d0                	.2byte	0xb5d0
80006e8e:	ffff                	.2byte	0xffff
80006e90:	b5d0                	.2byte	0xb5d0
80006e92:	ffff                	.2byte	0xffff
80006e94:	b5d0                	.2byte	0xb5d0
80006e96:	ffff                	.2byte	0xffff
80006e98:	b5d0                	.2byte	0xb5d0
80006e9a:	ffff                	.2byte	0xffff
80006e9c:	b5c4                	.2byte	0xb5c4
80006e9e:	ffff                	.2byte	0xffff
80006ea0:	b864                	.2byte	0xb864
80006ea2:	ffff                	.2byte	0xffff
80006ea4:	b498                	.2byte	0xb498
80006ea6:	ffff                	.2byte	0xffff
80006ea8:	b498                	.2byte	0xb498
80006eaa:	ffff                	.2byte	0xffff
80006eac:	b498                	.2byte	0xb498
80006eae:	ffff                	.2byte	0xffff
80006eb0:	b498                	.2byte	0xb498
80006eb2:	ffff                	.2byte	0xffff
80006eb4:	b498                	.2byte	0xb498
80006eb6:	ffff                	.2byte	0xffff
80006eb8:	b498                	.2byte	0xb498
80006eba:	ffff                	.2byte	0xffff
80006ebc:	b498                	.2byte	0xb498
80006ebe:	ffff                	.2byte	0xffff
80006ec0:	b498                	.2byte	0xb498
80006ec2:	ffff                	.2byte	0xffff
80006ec4:	b498                	.2byte	0xb498
80006ec6:	ffff                	.2byte	0xffff
80006ec8:	b498                	.2byte	0xb498
80006eca:	ffff                	.2byte	0xffff
80006ecc:	b498                	.2byte	0xb498
80006ece:	ffff                	.2byte	0xffff
80006ed0:	b498                	.2byte	0xb498
80006ed2:	ffff                	.2byte	0xffff
80006ed4:	b498                	.2byte	0xb498
80006ed6:	ffff                	.2byte	0xffff
80006ed8:	b498                	.2byte	0xb498
80006eda:	ffff                	.2byte	0xffff
80006edc:	b498                	.2byte	0xb498
80006ede:	ffff                	.2byte	0xffff
80006ee0:	b498                	.2byte	0xb498
80006ee2:	ffff                	.2byte	0xffff
80006ee4:	b498                	.2byte	0xb498
80006ee6:	ffff                	.2byte	0xffff
80006ee8:	b498                	.2byte	0xb498
80006eea:	ffff                	.2byte	0xffff
80006eec:	b498                	.2byte	0xb498
80006eee:	ffff                	.2byte	0xffff
80006ef0:	b498                	.2byte	0xb498
80006ef2:	ffff                	.2byte	0xffff
80006ef4:	b498                	.2byte	0xb498
80006ef6:	ffff                	.2byte	0xffff
80006ef8:	b498                	.2byte	0xb498
80006efa:	ffff                	.2byte	0xffff
80006efc:	b498                	.2byte	0xb498
80006efe:	ffff                	.2byte	0xffff
80006f00:	b498                	.2byte	0xb498
80006f02:	ffff                	.2byte	0xffff
80006f04:	b498                	.2byte	0xb498
80006f06:	ffff                	.2byte	0xffff
80006f08:	b498                	.2byte	0xb498
80006f0a:	ffff                	.2byte	0xffff
80006f0c:	b498                	.2byte	0xb498
80006f0e:	ffff                	.2byte	0xffff
80006f10:	b498                	.2byte	0xb498
80006f12:	ffff                	.2byte	0xffff
80006f14:	b498                	.2byte	0xb498
80006f16:	ffff                	.2byte	0xffff
80006f18:	b498                	.2byte	0xb498
80006f1a:	ffff                	.2byte	0xffff
80006f1c:	b498                	.2byte	0xb498
80006f1e:	ffff                	.2byte	0xffff
80006f20:	b798                	.2byte	0xb798
80006f22:	ffff                	.2byte	0xffff
80006f24:	b828                	.2byte	0xb828
80006f26:	ffff                	.2byte	0xffff
80006f28:	b798                	.2byte	0xb798
80006f2a:	ffff                	.2byte	0xffff
80006f2c:	b498                	.2byte	0xb498
80006f2e:	ffff                	.2byte	0xffff
80006f30:	b498                	.2byte	0xb498
80006f32:	ffff                	.2byte	0xffff
80006f34:	b498                	.2byte	0xb498
80006f36:	ffff                	.2byte	0xffff
80006f38:	b498                	.2byte	0xb498
80006f3a:	ffff                	.2byte	0xffff
80006f3c:	b498                	.2byte	0xb498
80006f3e:	ffff                	.2byte	0xffff
80006f40:	b498                	.2byte	0xb498
80006f42:	ffff                	.2byte	0xffff
80006f44:	b498                	.2byte	0xb498
80006f46:	ffff                	.2byte	0xffff
80006f48:	b498                	.2byte	0xb498
80006f4a:	ffff                	.2byte	0xffff
80006f4c:	b498                	.2byte	0xb498
80006f4e:	ffff                	.2byte	0xffff
80006f50:	b498                	.2byte	0xb498
80006f52:	ffff                	.2byte	0xffff
80006f54:	b498                	.2byte	0xb498
80006f56:	ffff                	.2byte	0xffff
80006f58:	b498                	.2byte	0xb498
80006f5a:	ffff                	.2byte	0xffff
80006f5c:	b498                	.2byte	0xb498
80006f5e:	ffff                	.2byte	0xffff
80006f60:	b498                	.2byte	0xb498
80006f62:	ffff                	.2byte	0xffff
80006f64:	b498                	.2byte	0xb498
80006f66:	ffff                	.2byte	0xffff
80006f68:	b498                	.2byte	0xb498
80006f6a:	ffff                	.2byte	0xffff
80006f6c:	ba00                	.2byte	0xba00
80006f6e:	ffff                	.2byte	0xffff
80006f70:	b498                	.2byte	0xb498
80006f72:	ffff                	.2byte	0xffff
80006f74:	b498                	.2byte	0xb498
80006f76:	ffff                	.2byte	0xffff
80006f78:	b498                	.2byte	0xb498
80006f7a:	ffff                	.2byte	0xffff
80006f7c:	b498                	.2byte	0xb498
80006f7e:	ffff                	.2byte	0xffff
80006f80:	b498                	.2byte	0xb498
80006f82:	ffff                	.2byte	0xffff
80006f84:	b498                	.2byte	0xb498
80006f86:	ffff                	.2byte	0xffff
80006f88:	b498                	.2byte	0xb498
80006f8a:	ffff                	.2byte	0xffff
80006f8c:	b498                	.2byte	0xb498
80006f8e:	ffff                	.2byte	0xffff
80006f90:	b498                	.2byte	0xb498
80006f92:	ffff                	.2byte	0xffff
80006f94:	ba00                	.2byte	0xba00
80006f96:	ffff                	.2byte	0xffff
80006f98:	b880                	.2byte	0xb880
80006f9a:	ffff                	.2byte	0xffff
80006f9c:	ba00                	.2byte	0xba00
80006f9e:	ffff                	.2byte	0xffff
80006fa0:	b798                	.2byte	0xb798
80006fa2:	ffff                	.2byte	0xffff
80006fa4:	b828                	.2byte	0xb828
80006fa6:	ffff                	.2byte	0xffff
80006fa8:	b798                	.2byte	0xb798
80006faa:	ffff                	.2byte	0xffff
80006fac:	0000                	.2byte	0x0
	...

80006fb0 <pow10.0>:
80006fb0:	0000                	.2byte	0x0
80006fb2:	0000                	.2byte	0x0
80006fb4:	0000                	.2byte	0x0
80006fb6:	3ff0                	.2byte	0x3ff0
80006fb8:	0000                	.2byte	0x0
80006fba:	0000                	.2byte	0x0
80006fbc:	0000                	.2byte	0x0
80006fbe:	4024                	.2byte	0x4024
80006fc0:	0000                	.2byte	0x0
80006fc2:	0000                	.2byte	0x0
80006fc4:	0000                	.2byte	0x0
80006fc6:	4059                	.2byte	0x4059
80006fc8:	0000                	.2byte	0x0
80006fca:	0000                	.2byte	0x0
80006fcc:	4000                	.2byte	0x4000
80006fce:	0000408f          	.4byte	0x408f
80006fd2:	0000                	.2byte	0x0
80006fd4:	8800                	.2byte	0x8800
80006fd6:	000040c3          	fmadd.s	ft1,ft0,ft0,ft0,rmm
80006fda:	0000                	.2byte	0x0
80006fdc:	6a00                	.2byte	0x6a00
80006fde:	40f8                	.2byte	0x40f8
80006fe0:	0000                	.2byte	0x0
80006fe2:	0000                	.2byte	0x0
80006fe4:	8480                	.2byte	0x8480
80006fe6:	412e                	.2byte	0x412e
80006fe8:	0000                	.2byte	0x0
80006fea:	0000                	.2byte	0x0
80006fec:	12d0                	.2byte	0x12d0
80006fee:	00004163          	bltz	zero,80006ff0 <pow10.0+0x40>
80006ff2:	0000                	.2byte	0x0
80006ff4:	d784                	.2byte	0xd784
80006ff6:	00004197          	auipc	gp,0x4
80006ffa:	0000                	.2byte	0x0
80006ffc:	cd65                	.2byte	0xcd65
80006ffe:	41cd                	.2byte	0x41cd
80007000:	dbb4                	.2byte	0xdbb4
80007002:	ffff                	.2byte	0xffff
80007004:	de48                	.2byte	0xde48
80007006:	ffff                	.2byte	0xffff
80007008:	db2c                	.2byte	0xdb2c
8000700a:	ffff                	.2byte	0xffff
8000700c:	de48                	.2byte	0xde48
8000700e:	ffff                	.2byte	0xffff
80007010:	de30                	.2byte	0xde30
80007012:	ffff                	.2byte	0xffff
80007014:	de48                	.2byte	0xde48
80007016:	ffff                	.2byte	0xffff
80007018:	db2c                	.2byte	0xdb2c
8000701a:	ffff                	.2byte	0xffff
8000701c:	dbb8                	.2byte	0xdbb8
8000701e:	ffff                	.2byte	0xffff
80007020:	dbb8                	.2byte	0xdbb8
80007022:	ffff                	.2byte	0xffff
80007024:	de30                	.2byte	0xde30
80007026:	ffff                	.2byte	0xffff
80007028:	db2c                	.2byte	0xdb2c
8000702a:	ffff                	.2byte	0xffff
8000702c:	dbc8                	.2byte	0xdbc8
8000702e:	ffff                	.2byte	0xffff
80007030:	dbc8                	.2byte	0xdbc8
80007032:	ffff                	.2byte	0xffff
80007034:	dbc8                	.2byte	0xdbc8
80007036:	ffff                	.2byte	0xffff
80007038:	db48                	.2byte	0xdb48
8000703a:	ffff                	.2byte	0xffff

8000703c <__clz_tab>:
8000703c:	0100                	.2byte	0x100
8000703e:	0202                	.2byte	0x202
80007040:	03030303          	lb	t1,48(t1)
80007044:	0404                	.2byte	0x404
80007046:	0404                	.2byte	0x404
80007048:	0404                	.2byte	0x404
8000704a:	0404                	.2byte	0x404
8000704c:	0505                	.2byte	0x505
8000704e:	0505                	.2byte	0x505
80007050:	0505                	.2byte	0x505
80007052:	0505                	.2byte	0x505
80007054:	0505                	.2byte	0x505
80007056:	0505                	.2byte	0x505
80007058:	0505                	.2byte	0x505
8000705a:	0505                	.2byte	0x505
8000705c:	0606                	.2byte	0x606
8000705e:	0606                	.2byte	0x606
80007060:	0606                	.2byte	0x606
80007062:	0606                	.2byte	0x606
80007064:	0606                	.2byte	0x606
80007066:	0606                	.2byte	0x606
80007068:	0606                	.2byte	0x606
8000706a:	0606                	.2byte	0x606
8000706c:	0606                	.2byte	0x606
8000706e:	0606                	.2byte	0x606
80007070:	0606                	.2byte	0x606
80007072:	0606                	.2byte	0x606
80007074:	0606                	.2byte	0x606
80007076:	0606                	.2byte	0x606
80007078:	0606                	.2byte	0x606
8000707a:	0606                	.2byte	0x606
8000707c:	07070707          	.4byte	0x7070707
80007080:	07070707          	.4byte	0x7070707
80007084:	07070707          	.4byte	0x7070707
80007088:	07070707          	.4byte	0x7070707
8000708c:	07070707          	.4byte	0x7070707
80007090:	07070707          	.4byte	0x7070707
80007094:	07070707          	.4byte	0x7070707
80007098:	07070707          	.4byte	0x7070707
8000709c:	07070707          	.4byte	0x7070707
800070a0:	07070707          	.4byte	0x7070707
800070a4:	07070707          	.4byte	0x7070707
800070a8:	07070707          	.4byte	0x7070707
800070ac:	07070707          	.4byte	0x7070707
800070b0:	07070707          	.4byte	0x7070707
800070b4:	07070707          	.4byte	0x7070707
800070b8:	07070707          	.4byte	0x7070707
800070bc:	0808                	.2byte	0x808
800070be:	0808                	.2byte	0x808
800070c0:	0808                	.2byte	0x808
800070c2:	0808                	.2byte	0x808
800070c4:	0808                	.2byte	0x808
800070c6:	0808                	.2byte	0x808
800070c8:	0808                	.2byte	0x808
800070ca:	0808                	.2byte	0x808
800070cc:	0808                	.2byte	0x808
800070ce:	0808                	.2byte	0x808
800070d0:	0808                	.2byte	0x808
800070d2:	0808                	.2byte	0x808
800070d4:	0808                	.2byte	0x808
800070d6:	0808                	.2byte	0x808
800070d8:	0808                	.2byte	0x808
800070da:	0808                	.2byte	0x808
800070dc:	0808                	.2byte	0x808
800070de:	0808                	.2byte	0x808
800070e0:	0808                	.2byte	0x808
800070e2:	0808                	.2byte	0x808
800070e4:	0808                	.2byte	0x808
800070e6:	0808                	.2byte	0x808
800070e8:	0808                	.2byte	0x808
800070ea:	0808                	.2byte	0x808
800070ec:	0808                	.2byte	0x808
800070ee:	0808                	.2byte	0x808
800070f0:	0808                	.2byte	0x808
800070f2:	0808                	.2byte	0x808
800070f4:	0808                	.2byte	0x808
800070f6:	0808                	.2byte	0x808
800070f8:	0808                	.2byte	0x808
800070fa:	0808                	.2byte	0x808
800070fc:	0808                	.2byte	0x808
800070fe:	0808                	.2byte	0x808
80007100:	0808                	.2byte	0x808
80007102:	0808                	.2byte	0x808
80007104:	0808                	.2byte	0x808
80007106:	0808                	.2byte	0x808
80007108:	0808                	.2byte	0x808
8000710a:	0808                	.2byte	0x808
8000710c:	0808                	.2byte	0x808
8000710e:	0808                	.2byte	0x808
80007110:	0808                	.2byte	0x808
80007112:	0808                	.2byte	0x808
80007114:	0808                	.2byte	0x808
80007116:	0808                	.2byte	0x808
80007118:	0808                	.2byte	0x808
8000711a:	0808                	.2byte	0x808
8000711c:	0808                	.2byte	0x808
8000711e:	0808                	.2byte	0x808
80007120:	0808                	.2byte	0x808
80007122:	0808                	.2byte	0x808
80007124:	0808                	.2byte	0x808
80007126:	0808                	.2byte	0x808
80007128:	0808                	.2byte	0x808
8000712a:	0808                	.2byte	0x808
8000712c:	0808                	.2byte	0x808
8000712e:	0808                	.2byte	0x808
80007130:	0808                	.2byte	0x808
80007132:	0808                	.2byte	0x808
80007134:	0808                	.2byte	0x808
80007136:	0808                	.2byte	0x808
80007138:	0808                	.2byte	0x808
8000713a:	0808                	.2byte	0x808

Disassembly of section .eh_frame:

8000713c <__tdata_start-0x103c>:
8000713c:	0010                	.2byte	0x10
8000713e:	0000                	.2byte	0x0
80007140:	0000                	.2byte	0x0
80007142:	0000                	.2byte	0x0
80007144:	00527a03          	.4byte	0x527a03
80007148:	7c01                	.2byte	0x7c01
8000714a:	0101                	.2byte	0x101
8000714c:	00020d1b          	.4byte	0x20d1b
80007150:	0010                	.2byte	0x10
80007152:	0000                	.2byte	0x0
80007154:	0018                	.2byte	0x18
80007156:	0000                	.2byte	0x0
80007158:	bfac                	.2byte	0xbfac
8000715a:	ffff                	.2byte	0xffff
8000715c:	0430                	.2byte	0x430
8000715e:	0000                	.2byte	0x0
80007160:	0000                	.2byte	0x0
80007162:	0000                	.2byte	0x0
80007164:	0010                	.2byte	0x10
80007166:	0000                	.2byte	0x0
80007168:	002c                	.2byte	0x2c
8000716a:	0000                	.2byte	0x0
8000716c:	c3c8                	.2byte	0xc3c8
8000716e:	ffff                	.2byte	0xffff
80007170:	03e4                	.2byte	0x3e4
80007172:	0000                	.2byte	0x0
80007174:	0000                	.2byte	0x0
	...

Disassembly of section .tbss:

80008178 <__preinit_array_end>:
80008178:	0000                	.2byte	0x0
	...

Disassembly of section .init_array:

80008178 <__init_array_start>:
80008178:	0150                	.2byte	0x150
8000817a:	8000                	.2byte	0x8000

Disassembly of section .data:

80008180 <impure_data>:
80008180:	0000                	.2byte	0x0
80008182:	0000                	.2byte	0x0
80008184:	846c                	.2byte	0x846c
80008186:	8000                	.2byte	0x8000
80008188:	84d4                	.2byte	0x84d4
8000818a:	8000                	.2byte	0x8000
8000818c:	853c                	.2byte	0x853c
8000818e:	8000                	.2byte	0x8000
	...
80008228:	0001                	.2byte	0x1
8000822a:	0000                	.2byte	0x0
8000822c:	0000                	.2byte	0x0
8000822e:	0000                	.2byte	0x0
80008230:	330e                	.2byte	0x330e
80008232:	abcd                	.2byte	0xabcd
80008234:	1234                	.2byte	0x1234
80008236:	e66d                	.2byte	0xe66d
80008238:	deec                	.2byte	0xdeec
8000823a:	0005                	.2byte	0x5
8000823c:	0000000b          	.4byte	0xb
	...

Disassembly of section .sdata:

800085a8 <__SDATA_BEGIN__>:
800085a8:	ffff                	.2byte	0xffff
800085aa:	ffff                	.2byte	0xffff
800085ac:	ffff                	.2byte	0xffff
800085ae:	ffff7fef          	jal	t6,800005ac <_Z11test_wsapwnv+0x38>
800085b2:	ffff                	.2byte	0xffff
800085b4:	ffff                	.2byte	0xffff
800085b6:	79fbffef          	jal	t6,800c8554 <__BSS_END__+0xbed94>
800085ba:	509f 4413 3fd3      	.byte	0x9f, 0x50, 0x13, 0x44, 0xd3, 0x3f
800085c0:	8b60c8b3          	.4byte	0x8b60c8b3
800085c4:	8a28                	.2byte	0x8a28
800085c6:	3fc6                	.2byte	0x3fc6
800085c8:	0000                	.2byte	0x0
800085ca:	0000                	.2byte	0x0
800085cc:	0000                	.2byte	0x0
800085ce:	3ff8                	.2byte	0x3ff8
800085d0:	4361                	.2byte	0x4361
800085d2:	87a7636f          	jal	t1,7ff7e64c <__tcb_aligned_size+0x7ff7e60c>
800085d6:	3fd2                	.2byte	0x3fd2
800085d8:	a371                	.2byte	0xa371
800085da:	0979                	.2byte	0x979
800085dc:	400a934f          	fnmadd.s	ft6,fs5,ft0,fs0,rtz
800085e0:	0000                	.2byte	0x0
800085e2:	0000                	.2byte	0x0
800085e4:	0000                	.2byte	0x0
800085e6:	3fe0                	.2byte	0x3fe0
800085e8:	5516                	.2byte	0x5516
800085ea:	bbb5                	.2byte	0xbbb5
800085ec:	6bb1                	.2byte	0x6bb1
800085ee:	4002                	.2byte	0x4002
800085f0:	fefa39ef          	jal	s3,7ffac5de <__tcb_aligned_size+0x7ffac59e>
800085f4:	2e42                	.2byte	0x2e42
800085f6:	3fe6                	.2byte	0x3fe6
800085f8:	0000                	.2byte	0x0
800085fa:	0000                	.2byte	0x0
800085fc:	0000                	.2byte	0x0
800085fe:	402c                	.2byte	0x402c
80008600:	0000                	.2byte	0x0
80008602:	0000                	.2byte	0x0
80008604:	0000                	.2byte	0x0
80008606:	4024                	.2byte	0x4024
80008608:	0000                	.2byte	0x0
8000860a:	0000                	.2byte	0x0
8000860c:	0000                	.2byte	0x0
8000860e:	4018                	.2byte	0x4018
80008610:	0000                	.2byte	0x0
80008612:	0000                	.2byte	0x0
80008614:	0000                	.2byte	0x0
80008616:	4000                	.2byte	0x4000
80008618:	0000                	.2byte	0x0
8000861a:	0000                	.2byte	0x0
8000861c:	0000                	.2byte	0x0
8000861e:	3ff0                	.2byte	0x3ff0
80008620:	432d                	.2byte	0x432d
80008622:	eb1c                	.2byte	0xeb1c
80008624:	36e2                	.2byte	0x36e2
80008626:	3f1a                	.2byte	0x3f1a
80008628:	0000                	.2byte	0x0
8000862a:	0000                	.2byte	0x0
8000862c:	8480                	.2byte	0x8480
8000862e:	412e                	.2byte	0x412e
80008630:	0000                	.2byte	0x0
80008632:	0000                	.2byte	0x0
80008634:	cd65                	.2byte	0xcd65
80008636:	41cd                	.2byte	0x41cd
80008638:	0000                	.2byte	0x0
8000863a:	0000                	.2byte	0x0
8000863c:	cd65                	.2byte	0xcd65
8000863e:	c1cd                	.2byte	0xc1cd

80008640 <_global_impure_ptr>:
80008640:	8180                	.2byte	0x8180
80008642:	8000                	.2byte	0x8000

80008644 <smem_addr>:
80008644:	0000                	.2byte	0x0
80008646:	ff00                	.2byte	0xff00

Disassembly of section .sbss:

80008648 <barrier_stall>:
80008648:	0000                	.2byte	0x0
	...

8000864c <barrier_ctr>:
8000864c:	0000                	.2byte	0x0
	...

Disassembly of section .bss:

80008650 <tls_buffer>:
	...

80008670 <barrier_buffer>:
	...

80008690 <tmask_buffer>:
	...

800086b0 <sr_buffer>:
	...

800086d0 <st_buffer_dst>:
	...

800086f0 <st_buffer_src>:
	...

80008710 <dvg_buffer>:
	...

80008720 <wspawn_buffer>:
	...

80008740 <pred_buffer>:
	...

80008760 <tmc_buffer>:
	...

80008780 <smem_buffer>:
	...

800087a0 <global_buffer>:
	...

800087c0 <g_wspawn_args>:
	...

Disassembly of section .comment:

00000000 <.comment>:
   0:	3a434347          	.4byte	0x3a434347
   4:	2820                	.2byte	0x2820
   6:	65653267          	.4byte	0x65653267
   a:	6535                	.2byte	0x6535
   c:	3334                	.2byte	0x3334
   e:	3030                	.2byte	0x3030
  10:	3831                	.2byte	0x3831
  12:	642d                	.2byte	0x642d
  14:	7269                	.2byte	0x7269
  16:	7974                	.2byte	0x7974
  18:	2029                	.2byte	0x2029
  1a:	3231                	.2byte	0x3231
  1c:	322e                	.2byte	0x322e
  1e:	302e                	.2byte	0x302e
  20:	4700                	.2byte	0x4700
  22:	203a4343          	fmadd.s	ft6,fs4,ft3,ft4,rmm
  26:	4728                	.2byte	0x4728
  28:	554e                	.2byte	0x554e
  2a:	2029                	.2byte	0x2029
  2c:	3231                	.2byte	0x3231
  2e:	322e                	.2byte	0x322e
  30:	302e                	.2byte	0x302e
	...

Disassembly of section .riscv.attributes:

00000000 <.riscv.attributes>:
   0:	4041                	.2byte	0x4041
   2:	0000                	.2byte	0x0
   4:	7200                	.2byte	0x7200
   6:	7369                	.2byte	0x7369
   8:	01007663          	bgeu	zero,a6,14 <__tbss_size+0x10>
   c:	0036                	.2byte	0x36
   e:	0000                	.2byte	0x0
  10:	1004                	.2byte	0x1004
  12:	7205                	.2byte	0x7205
  14:	3376                	.2byte	0x3376
  16:	6932                	.2byte	0x6932
  18:	7032                	.2byte	0x7032
  1a:	5f31                	.2byte	0x5f31
  1c:	326d                	.2byte	0x326d
  1e:	3070                	.2byte	0x3070
  20:	615f 7032 5f31      	.byte	0x5f, 0x61, 0x32, 0x70, 0x31, 0x5f
  26:	3266                	.2byte	0x3266
  28:	3270                	.2byte	0x3270
  2a:	7a5f 6369 7273      	.byte	0x5f, 0x7a, 0x69, 0x63, 0x73, 0x72
  30:	7032                	.2byte	0x7032
  32:	5f30                	.2byte	0x5f30
  34:	6d7a                	.2byte	0x6d7a
  36:	756d                	.2byte	0x756d
  38:	316c                	.2byte	0x316c
  3a:	3070                	.2byte	0x3070
  3c:	0800                	.2byte	0x800
  3e:	0a01                	.2byte	0xa01
  40:	0b              	Address 0x40 is out of bounds.


Disassembly of section .debug_aranges:

00000000 <.debug_aranges>:
   0:	001c                	.2byte	0x1c
   2:	0000                	.2byte	0x0
   4:	0002                	.2byte	0x2
   6:	0000                	.2byte	0x0
   8:	0000                	.2byte	0x0
   a:	0004                	.2byte	0x4
   c:	0000                	.2byte	0x0
   e:	0000                	.2byte	0x0
  10:	30b8                	.2byte	0x30b8
  12:	8000                	.2byte	0x8000
  14:	004c                	.2byte	0x4c
	...
  1e:	0000                	.2byte	0x0
  20:	001c                	.2byte	0x1c
  22:	0000                	.2byte	0x0
  24:	0002                	.2byte	0x2
  26:	0142                	.2byte	0x142
  28:	0000                	.2byte	0x0
  2a:	0004                	.2byte	0x4
  2c:	0000                	.2byte	0x0
  2e:	0000                	.2byte	0x0
  30:	3104                	.2byte	0x3104
  32:	8000                	.2byte	0x8000
  34:	0430                	.2byte	0x430
	...
  3e:	0000                	.2byte	0x0
  40:	001c                	.2byte	0x1c
  42:	0000                	.2byte	0x0
  44:	0002                	.2byte	0x2
  46:	000008a3          	sb	zero,17(zero) # 11 <__tbss_size+0xd>
  4a:	0004                	.2byte	0x4
  4c:	0000                	.2byte	0x0
  4e:	0000                	.2byte	0x0
  50:	3534                	.2byte	0x3534
  52:	8000                	.2byte	0x8000
  54:	03e4                	.2byte	0x3e4
	...
  5e:	0000                	.2byte	0x0
  60:	001c                	.2byte	0x1c
  62:	0000                	.2byte	0x0
  64:	0002                	.2byte	0x2
  66:	00001057          	.4byte	0x1057
  6a:	0004                	.2byte	0x4
  6c:	0000                	.2byte	0x0
  6e:	0000                	.2byte	0x0
  70:	3918                	.2byte	0x3918
  72:	8000                	.2byte	0x8000
  74:	0ca4                	.2byte	0xca4
	...
  7e:	0000                	.2byte	0x0
  80:	001c                	.2byte	0x1c
  82:	0000                	.2byte	0x0
  84:	0002                	.2byte	0x2
  86:	1596                	.2byte	0x1596
  88:	0000                	.2byte	0x0
  8a:	0004                	.2byte	0x4
  8c:	0000                	.2byte	0x0
  8e:	0000                	.2byte	0x0
  90:	45bc                	.2byte	0x45bc
  92:	8000                	.2byte	0x8000
  94:	0898                	.2byte	0x898
	...
  9e:	0000                	.2byte	0x0
  a0:	001c                	.2byte	0x1c
  a2:	0000                	.2byte	0x0
  a4:	0002                	.2byte	0x2
  a6:	1c64                	.2byte	0x1c64
  a8:	0000                	.2byte	0x0
  aa:	0004                	.2byte	0x4
  ac:	0000                	.2byte	0x0
  ae:	0000                	.2byte	0x0
  b0:	4e54                	.2byte	0x4e54
  b2:	8000                	.2byte	0x8000
  b4:	00c4                	.2byte	0xc4
	...
  be:	0000                	.2byte	0x0
  c0:	001c                	.2byte	0x1c
  c2:	0000                	.2byte	0x0
  c4:	0002                	.2byte	0x2
  c6:	1e9d                	.2byte	0x1e9d
  c8:	0000                	.2byte	0x0
  ca:	0004                	.2byte	0x4
  cc:	0000                	.2byte	0x0
  ce:	0000                	.2byte	0x0
  d0:	4f18                	.2byte	0x4f18
  d2:	8000                	.2byte	0x8000
  d4:	0110                	.2byte	0x110
	...
  de:	0000                	.2byte	0x0
  e0:	001c                	.2byte	0x1c
  e2:	0000                	.2byte	0x0
  e4:	0002                	.2byte	0x2
  e6:	000020c7          	fmsub.s	ft1,ft0,ft0,ft0,rdn
  ea:	0004                	.2byte	0x4
  ec:	0000                	.2byte	0x0
  ee:	0000                	.2byte	0x0
  f0:	5028                	.2byte	0x5028
  f2:	8000                	.2byte	0x8000
  f4:	0110                	.2byte	0x110
	...
  fe:	0000                	.2byte	0x0
 100:	001c                	.2byte	0x1c
 102:	0000                	.2byte	0x0
 104:	0002                	.2byte	0x2
 106:	22f1                	.2byte	0x22f1
 108:	0000                	.2byte	0x0
 10a:	0004                	.2byte	0x4
 10c:	0000                	.2byte	0x0
 10e:	0000                	.2byte	0x0
 110:	5138                	.2byte	0x5138
 112:	8000                	.2byte	0x8000
 114:	07c0                	.2byte	0x7c0
	...
 11e:	0000                	.2byte	0x0
 120:	001c                	.2byte	0x1c
 122:	0000                	.2byte	0x0
 124:	0002                	.2byte	0x2
 126:	29d8                	.2byte	0x29d8
 128:	0000                	.2byte	0x0
 12a:	0004                	.2byte	0x4
 12c:	0000                	.2byte	0x0
 12e:	0000                	.2byte	0x0
 130:	58f8                	.2byte	0x58f8
 132:	8000                	.2byte	0x8000
 134:	0cbc                	.2byte	0xcbc
	...
 13e:	0000                	.2byte	0x0
 140:	001c                	.2byte	0x1c
 142:	0000                	.2byte	0x0
 144:	0002                	.2byte	0x2
 146:	00002f13          	slti	t5,zero,0
 14a:	0004                	.2byte	0x4
 14c:	0000                	.2byte	0x0
 14e:	0000                	.2byte	0x0
 150:	65b4                	.2byte	0x65b4
 152:	8000                	.2byte	0x8000
 154:	0100                	.2byte	0x100
	...
 15e:	0000                	.2byte	0x0
 160:	001c                	.2byte	0x1c
 162:	0000                	.2byte	0x0
 164:	0002                	.2byte	0x2
 166:	30de                	.2byte	0x30de
 168:	0000                	.2byte	0x0
 16a:	0004                	.2byte	0x4
 16c:	0000                	.2byte	0x0
 16e:	0000                	.2byte	0x0
 170:	66b4                	.2byte	0x66b4
 172:	8000                	.2byte	0x8000
 174:	00c4                	.2byte	0xc4
	...
 17e:	0000                	.2byte	0x0
 180:	001c                	.2byte	0x1c
 182:	0000                	.2byte	0x0
 184:	0002                	.2byte	0x2
 186:	3296                	.2byte	0x3296
 188:	0000                	.2byte	0x0
 18a:	0004                	.2byte	0x4
 18c:	0000                	.2byte	0x0
 18e:	0000                	.2byte	0x0
 190:	6778                	.2byte	0x6778
 192:	8000                	.2byte	0x8000
 194:	00a8                	.2byte	0xa8
	...
 19e:	0000                	.2byte	0x0
 1a0:	001c                	.2byte	0x1c
 1a2:	0000                	.2byte	0x0
 1a4:	0002                	.2byte	0x2
 1a6:	34fe                	.2byte	0x34fe
 1a8:	0000                	.2byte	0x0
 1aa:	0004                	.2byte	0x4
 1ac:	0000                	.2byte	0x0
 1ae:	0000                	.2byte	0x0
 1b0:	6820                	.2byte	0x6820
 1b2:	8000                	.2byte	0x8000
 1b4:	0080                	.2byte	0x80
	...
 1be:	0000                	.2byte	0x0
 1c0:	0014                	.2byte	0x14
 1c2:	0000                	.2byte	0x0
 1c4:	0002                	.2byte	0x2
 1c6:	0000375b          	.4byte	0x375b
 1ca:	0004                	.2byte	0x4
	...

Disassembly of section .debug_info:

00000000 <.debug_info>:
       0:	013e                	.2byte	0x13e
       2:	0000                	.2byte	0x0
       4:	0005                	.2byte	0x5
       6:	0401                	.2byte	0x401
       8:	0000                	.2byte	0x0
       a:	0000                	.2byte	0x0
       c:	2b04                	.2byte	0x2b04
       e:	0000                	.2byte	0x0
      10:	1d00                	.2byte	0x1d00
      12:	0000                	.2byte	0x0
      14:	0000                	.2byte	0x0
      16:	0021                	.2byte	0x21
      18:	0000                	.2byte	0x0
      1a:	30b8                	.2byte	0x30b8
      1c:	8000                	.2byte	0x8000
      1e:	004c                	.2byte	0x4c
      20:	0000                	.2byte	0x0
      22:	0000                	.2byte	0x0
      24:	0000                	.2byte	0x0
      26:	0405                	.2byte	0x405
      28:	6905                	.2byte	0x6905
      2a:	746e                	.2byte	0x746e
      2c:	0100                	.2byte	0x100
      2e:	0704                	.2byte	0x704
      30:	00f2                	.2byte	0xf2
      32:	0000                	.2byte	0x0
      34:	0801                	.2byte	0x801
      36:	0005                	.2byte	0x5
      38:	0000                	.2byte	0x0
      3a:	0100                	.2byte	0x100
      3c:	0410                	.2byte	0x410
      3e:	011f 0000 0101      	.byte	0x1f, 0x01, 0x00, 0x00, 0x01, 0x01
      44:	0106                	.2byte	0x106
      46:	0001                	.2byte	0x1
      48:	0100                	.2byte	0x100
      4a:	0801                	.2byte	0x801
      4c:	00ff 0000 0201 5c05 	.byte	0xff, 0x00, 0x00, 0x00, 0x01, 0x02, 0x05, 0x5c, 0x01, 0x00
      54:	0001 
      56:	0100                	.2byte	0x100
      58:	0702                	.2byte	0x702
      5a:	0000012b          	.4byte	0x12b
      5e:	0401                	.2byte	0x401
      60:	0505                	.2byte	0x505
      62:	0000                	.2byte	0x0
      64:	0100                	.2byte	0x100
      66:	0704                	.2byte	0x704
      68:	00ed                	.2byte	0xed
      6a:	0000                	.2byte	0x0
      6c:	0801                	.2byte	0x801
      6e:	0000e807          	.4byte	0xe807
      72:	0100                	.2byte	0x100
      74:	0801                	.2byte	0x801
      76:	0108                	.2byte	0x108
      78:	0000                	.2byte	0x0
      7a:	4c02                	.2byte	0x4c02
      7c:	0001                	.2byte	0x1
      7e:	7b00                	.2byte	0x7b00
      80:	4916                	.2byte	0x4916
      82:	0000                	.2byte	0x0
      84:	0300                	.2byte	0x300
      86:	007a                	.2byte	0x7a
      88:	0000                	.2byte	0x0
      8a:	5502                	.2byte	0x5502
      8c:	0001                	.2byte	0x1
      8e:	8000                	.2byte	0x8000
      90:	0000260f          	.4byte	0x260f
      94:	0200                	.2byte	0x200
      96:	0154                	.2byte	0x154
      98:	0000                	.2byte	0x0
      9a:	1681                	.2byte	0x1681
      9c:	002d                	.2byte	0x2d
      9e:	0000                	.2byte	0x0
      a0:	0401                	.2byte	0x401
      a2:	4604                	.2byte	0x4604
      a4:	0001                	.2byte	0x1
      a6:	0100                	.2byte	0x100
      a8:	0308                	.2byte	0x308
      aa:	013e                	.2byte	0x13e
      ac:	0000                	.2byte	0x0
      ae:	0801                	.2byte	0x801
      b0:	2404                	.2byte	0x2404
      b2:	0001                	.2byte	0x1
      b4:	0100                	.2byte	0x100
      b6:	0310                	.2byte	0x310
      b8:	00000017          	auipc	zero,0x0
      bc:	2001                	.2byte	0x2001
      be:	00011703          	lh	a4,0(sp)
      c2:	0600                	.2byte	0x600
      c4:	0085                	.2byte	0x85
      c6:	0000                	.2byte	0x0
      c8:	000000d3          	fadd.s	ft1,ft0,ft0,rne
      cc:	00002d07          	flw	fs10,0(zero) # 0 <tls_var>
      d0:	ff00                	.2byte	0xff00
      d2:	0300                	.2byte	0x300
      d4:	000000c3          	fmadd.s	ft1,ft0,ft0,ft0,rne
      d8:	0d08                	.2byte	0xd08
      da:	0001                	.2byte	0x1
      dc:	0200                	.2byte	0x200
      de:	0202                	.2byte	0x202
      e0:	d316                	.2byte	0xd316
      e2:	0000                	.2byte	0x0
      e4:	0900                	.2byte	0x900
      e6:	000e                	.2byte	0xe
      e8:	0000                	.2byte	0x0
      ea:	ae01                	.2byte	0xae01
      ec:	0102                	.2byte	0x102
      ee:	0026                	.2byte	0x26
      f0:	0000                	.2byte	0x0
      f2:	30b8                	.2byte	0x30b8
      f4:	8000                	.2byte	0x8000
      f6:	004c                	.2byte	0x4c
      f8:	0000                	.2byte	0x0
      fa:	9c01                	.2byte	0x9c01
      fc:	780a                	.2byte	0x780a
      fe:	0100                	.2byte	0x100
     100:	02ae                	.2byte	0x2ae
     102:	9512                	.2byte	0x9512
     104:	0000                	.2byte	0x0
     106:	0c00                	.2byte	0xc00
     108:	0000                	.2byte	0x0
     10a:	0b00                	.2byte	0xb00
     10c:	6572                	.2byte	0x6572
     10e:	0074                	.2byte	0x74
     110:	b001                	.2byte	0xb001
     112:	0902                	.2byte	0x902
     114:	008a                	.2byte	0x8a
     116:	0000                	.2byte	0x0
     118:	0c0c                	.2byte	0xc0c
     11a:	0000                	.2byte	0x0
     11c:	0d00                	.2byte	0xd00
     11e:	0026                	.2byte	0x26
     120:	0000                	.2byte	0x0
     122:	b201                	.2byte	0xb201
     124:	0302                	.2byte	0x302
     126:	0095                	.2byte	0x95
     128:	0000                	.2byte	0x0
     12a:	0031                	.2byte	0x31
     12c:	0000                	.2byte	0x0
     12e:	5f0e                	.2byte	0x5f0e
     130:	615f 0100 02b2      	.byte	0x5f, 0x61, 0x00, 0x01, 0xb2, 0x02
     136:	00009503          	lh	a0,0(ra)
     13a:	5600                	.2byte	0x5600
     13c:	0000                	.2byte	0x0
     13e:	0000                	.2byte	0x0
     140:	0000                	.2byte	0x0
     142:	075d                	.2byte	0x75d
     144:	0000                	.2byte	0x0
     146:	0005                	.2byte	0x5
     148:	0401                	.2byte	0x401
     14a:	00ca                	.2byte	0xca
     14c:	0000                	.2byte	0x0
     14e:	9111                	.2byte	0x9111
     150:	0001                	.2byte	0x1
     152:	1d00                	.2byte	0x1d00
     154:	0000                	.2byte	0x0
     156:	0000                	.2byte	0x0
     158:	0021                	.2byte	0x21
     15a:	0000                	.2byte	0x0
     15c:	3104                	.2byte	0x3104
     15e:	8000                	.2byte	0x8000
     160:	0430                	.2byte	0x430
     162:	0000                	.2byte	0x0
     164:	000000cb          	fnmsub.s	ft1,ft0,ft0,ft0,rne
     168:	0804                	.2byte	0x804
     16a:	0000e807          	.4byte	0xe807
     16e:	1200                	.2byte	0x1200
     170:	0504                	.2byte	0x504
     172:	6e69                	.2byte	0x6e69
     174:	0074                	.2byte	0x74
     176:	0404                	.2byte	0x404
     178:	0000f207          	.4byte	0xf207
     17c:	0400                	.2byte	0x400
     17e:	0508                	.2byte	0x508
     180:	0000                	.2byte	0x0
     182:	0000                	.2byte	0x0
     184:	1004                	.2byte	0x1004
     186:	1f04                	.2byte	0x1f04
     188:	0001                	.2byte	0x1
     18a:	0400                	.2byte	0x400
     18c:	0601                	.2byte	0x601
     18e:	0101                	.2byte	0x101
     190:	0000                	.2byte	0x0
     192:	0104                	.2byte	0x104
     194:	ff08                	.2byte	0xff08
     196:	0000                	.2byte	0x0
     198:	0400                	.2byte	0x400
     19a:	0502                	.2byte	0x502
     19c:	015c                	.2byte	0x15c
     19e:	0000                	.2byte	0x0
     1a0:	0204                	.2byte	0x204
     1a2:	00012b07          	flw	fs6,0(sp)
     1a6:	0400                	.2byte	0x400
     1a8:	0504                	.2byte	0x504
     1aa:	0005                	.2byte	0x5
     1ac:	0000                	.2byte	0x0
     1ae:	0404                	.2byte	0x404
     1b0:	0000ed07          	.4byte	0xed07
     1b4:	0400                	.2byte	0x400
     1b6:	0801                	.2byte	0x801
     1b8:	0108                	.2byte	0x108
     1ba:	0000                	.2byte	0x0
     1bc:	4c06                	.2byte	0x4c06
     1be:	0001                	.2byte	0x1
     1c0:	7b00                	.2byte	0x7b00
     1c2:	5016                	.2byte	0x5016
     1c4:	0000                	.2byte	0x0
     1c6:	0900                	.2byte	0x900
     1c8:	007a                	.2byte	0x7a
     1ca:	0000                	.2byte	0x0
     1cc:	5506                	.2byte	0x5506
     1ce:	0001                	.2byte	0x1
     1d0:	8000                	.2byte	0x8000
     1d2:	00002d0f          	.4byte	0x2d0f
     1d6:	0600                	.2byte	0x600
     1d8:	0154                	.2byte	0x154
     1da:	0000                	.2byte	0x0
     1dc:	1681                	.2byte	0x1681
     1de:	0034                	.2byte	0x34
     1e0:	0000                	.2byte	0x0
     1e2:	8906                	.2byte	0x8906
     1e4:	0002                	.2byte	0x2
     1e6:	8400                	.2byte	0x8400
     1e8:	00003b0f          	.4byte	0x3b0f
     1ec:	0600                	.2byte	0x600
     1ee:	0288                	.2byte	0x288
     1f0:	0000                	.2byte	0x0
     1f2:	1685                	.2byte	0x1685
     1f4:	0026                	.2byte	0x26
     1f6:	0000                	.2byte	0x0
     1f8:	0404                	.2byte	0x404
     1fa:	4604                	.2byte	0x4604
     1fc:	0001                	.2byte	0x1
     1fe:	0400                	.2byte	0x400
     200:	0308                	.2byte	0x308
     202:	013e                	.2byte	0x13e
     204:	0000                	.2byte	0x0
     206:	0804                	.2byte	0x804
     208:	2404                	.2byte	0x2404
     20a:	0001                	.2byte	0x1
     20c:	0400                	.2byte	0x400
     20e:	0310                	.2byte	0x310
     210:	00000017          	auipc	zero,0x0
     214:	2004                	.2byte	0x2004
     216:	00011703          	lh	a4,0(sp)
     21a:	1300                	.2byte	0x1300
     21c:	027f 0000 0208 01ed 	.byte	0x7f, 0x02, 0x00, 0x00, 0x08, 0x02, 0xed, 0x01, 0x0a, 0x04
     224:	040a 
     226:	0001                	.2byte	0x1
     228:	1400                	.2byte	0x1400
     22a:	6f6c                	.2byte	0x6f6c
     22c:	ed020077          	.4byte	0xed020077
     230:	1a01                	.2byte	0x1a01
     232:	008a                	.2byte	0x8a
     234:	0000                	.2byte	0x0
     236:	1500                	.2byte	0x1500
     238:	018c                	.2byte	0x18c
     23a:	0000                	.2byte	0x0
     23c:	ed02                	.2byte	0xed02
     23e:	1f01                	.2byte	0x1f01
     240:	008a                	.2byte	0x8a
     242:	0000                	.2byte	0x0
     244:	0004                	.2byte	0x4
     246:	0816                	.2byte	0x816
     248:	f402                	.2byte	0xf402
     24a:	0901                	.2byte	0x901
     24c:	0124                	.2byte	0x124
     24e:	0000                	.2byte	0x0
     250:	730c                	.2byte	0x730c
     252:	f600                	.2byte	0xf600
     254:	1301                	.2byte	0x1301
     256:	00d9                	.2byte	0xd9
     258:	0000                	.2byte	0x0
     25a:	6c0c                	.2byte	0x6c0c
     25c:	006c                	.2byte	0x6c
     25e:	a00a01f7          	.4byte	0xa00a01f7
     262:	0000                	.2byte	0x0
     264:	0000                	.2byte	0x0
     266:	00016617          	auipc	a2,0x16
     26a:	0200                	.2byte	0x200
     26c:	01f8                	.2byte	0x1f8
     26e:	00010403          	lb	s0,0(sp)
     272:	0900                	.2byte	0x900
     274:	0124                	.2byte	0x124
     276:	0000                	.2byte	0x0
     278:	8518                	.2byte	0x8518
     27a:	0000                	.2byte	0x0
     27c:	4600                	.2byte	0x4600
     27e:	0001                	.2byte	0x1
     280:	1900                	.2byte	0x1900
     282:	0034                	.2byte	0x34
     284:	0000                	.2byte	0x0
     286:	00ff 3609 0001 1a00 	.byte	0xff, 0x00, 0x09, 0x36, 0x01, 0x00, 0x00, 0x1a, 0x0d, 0x01
     28e:	010d 
     290:	0000                	.2byte	0x0
     292:	0202                	.2byte	0x202
     294:	1602                	.2byte	0x1602
     296:	0146                	.2byte	0x146
     298:	0000                	.2byte	0x0
     29a:	00016e1b          	.4byte	0x16e1b
     29e:	0100                	.2byte	0x100
     2a0:	0512                	.2byte	0x512
     2a2:	ab01                	.2byte	0xab01
     2a4:	0000                	.2byte	0x0
     2a6:	0400                	.2byte	0x400
     2a8:	0031                	.2byte	0x31
     2aa:	3080                	.2byte	0x3080
     2ac:	0004                	.2byte	0x4
     2ae:	0100                	.2byte	0x100
     2b0:	2e9c                	.2byte	0x2e9c
     2b2:	0004                	.2byte	0x4
     2b4:	0d00                	.2byte	0xd00
     2b6:	006e                	.2byte	0x6e
     2b8:	ab14                	.2byte	0xab14
     2ba:	0000                	.2byte	0x0
     2bc:	6e00                	.2byte	0x6e00
     2be:	0000                	.2byte	0x0
     2c0:	0d00                	.2byte	0xd00
     2c2:	0064                	.2byte	0x64
     2c4:	ab1f 0000 4f00      	.byte	0x1f, 0xab, 0x00, 0x00, 0x00, 0x4f
     2ca:	0001                	.2byte	0x1
     2cc:	1c00                	.2byte	0x1c00
     2ce:	042e                	.2byte	0x42e
     2d0:	0000                	.2byte	0x0
     2d2:	3104                	.2byte	0x3104
     2d4:	8000                	.2byte	0x8000
     2d6:	0034                	.2byte	0x34
     2d8:	0000                	.2byte	0x0
     2da:	1401                	.2byte	0x1401
     2dc:	0a05                	.2byte	0xa05
     2de:	500a                	.2byte	0x500a
     2e0:	0004                	.2byte	0x4
     2e2:	e000                	.2byte	0xe000
     2e4:	0001                	.2byte	0x1
     2e6:	0a00                	.2byte	0xa00
     2e8:	0448                	.2byte	0x448
     2ea:	0000                	.2byte	0x0
     2ec:	01f9                	.2byte	0x1f9
     2ee:	0000                	.2byte	0x0
     2f0:	400a                	.2byte	0x400a
     2f2:	0004                	.2byte	0x4
     2f4:	3a00                	.2byte	0x3a00
     2f6:	0002                	.2byte	0x2
     2f8:	1d00                	.2byte	0x1d00
     2fa:	0050                	.2byte	0x50
     2fc:	0000                	.2byte	0x0
     2fe:	5908                	.2byte	0x5908
     300:	0004                	.2byte	0x4
     302:	0800                	.2byte	0x800
     304:	0464                	.2byte	0x464
     306:	0000                	.2byte	0x0
     308:	6f08                	.2byte	0x6f08
     30a:	0004                	.2byte	0x4
     30c:	0100                	.2byte	0x100
     30e:	047a                	.2byte	0x47a
     310:	0000                	.2byte	0x0
     312:	0000031b          	.4byte	0x31b
     316:	8501                	.2byte	0x8501
     318:	0004                	.2byte	0x4
     31a:	8700                	.2byte	0x8700
     31c:	01000003          	lb	zero,16(zero) # 10 <__tbss_size+0xc>
     320:	0490                	.2byte	0x490
     322:	0000                	.2byte	0x0
     324:	000003bf 00049b01 	.8byte	0x49b01000003bf
     32c:	6f00                	.2byte	0x6f00
     32e:	0004                	.2byte	0x4
     330:	0100                	.2byte	0x100
     332:	04a6                	.2byte	0x4a6
     334:	0000                	.2byte	0x0
     336:	04f4                	.2byte	0x4f4
     338:	0000                	.2byte	0x0
     33a:	b101                	.2byte	0xb101
     33c:	0004                	.2byte	0x4
     33e:	0b00                	.2byte	0xb00
     340:	0005                	.2byte	0x5
     342:	0100                	.2byte	0x100
     344:	04bc                	.2byte	0x4bc
     346:	0000                	.2byte	0x0
     348:	052d                	.2byte	0x52d
     34a:	0000                	.2byte	0x0
     34c:	c701                	.2byte	0xc701
     34e:	0004                	.2byte	0x4
     350:	5000                	.2byte	0x5000
     352:	0005                	.2byte	0x5
     354:	0100                	.2byte	0x100
     356:	04d1                	.2byte	0x4d1
     358:	0000                	.2byte	0x0
     35a:	00000567          	jalr	a0,zero # 0 <tls_var>
     35e:	dc08                	.2byte	0xdc08
     360:	0004                	.2byte	0x4
     362:	0700                	.2byte	0x700
     364:	000004e7          	jalr	s1,zero # 0 <tls_var>
     368:	0075                	.2byte	0x75
     36a:	0000                	.2byte	0x0
     36c:	0241                	.2byte	0x241
     36e:	0000                	.2byte	0x0
     370:	ec01                	.2byte	0xec01
     372:	0004                	.2byte	0x4
     374:	9f00                	.2byte	0x9f00
     376:	0005                	.2byte	0x5
     378:	0100                	.2byte	0x100
     37a:	04f8                	.2byte	0x4f8
     37c:	0000                	.2byte	0x0
     37e:	05d4                	.2byte	0x5d4
     380:	0000                	.2byte	0x0
     382:	0e00                	.2byte	0xe00
     384:	0505                	.2byte	0x505
     386:	0000                	.2byte	0x0
     388:	316c                	.2byte	0x316c
     38a:	8000                	.2byte	0x8000
     38c:	0088                	.2byte	0x88
     38e:	0000                	.2byte	0x0
     390:	0292                	.2byte	0x292
     392:	0000                	.2byte	0x0
     394:	0a01                	.2byte	0xa01
     396:	0005                	.2byte	0x5
     398:	e000                	.2byte	0xe000
     39a:	0005                	.2byte	0x5
     39c:	0100                	.2byte	0x100
     39e:	0516                	.2byte	0x516
     3a0:	0000                	.2byte	0x0
     3a2:	05ec                	.2byte	0x5ec
     3a4:	0000                	.2byte	0x0
     3a6:	2201                	.2byte	0x2201
     3a8:	0005                	.2byte	0x5
     3aa:	f800                	.2byte	0xf800
     3ac:	0005                	.2byte	0x5
     3ae:	0100                	.2byte	0x100
     3b0:	052e                	.2byte	0x52e
     3b2:	0000                	.2byte	0x0
     3b4:	0000060f          	.4byte	0x60f
     3b8:	3a01                	.2byte	0x3a01
     3ba:	0005                	.2byte	0x5
     3bc:	2600                	.2byte	0x2600
     3be:	0006                	.2byte	0x6
     3c0:	0100                	.2byte	0x100
     3c2:	0546                	.2byte	0x546
     3c4:	0000                	.2byte	0x0
     3c6:	066a                	.2byte	0x66a
     3c8:	0000                	.2byte	0x0
     3ca:	5201                	.2byte	0x5201
     3cc:	0005                	.2byte	0x5
     3ce:	9100                	.2byte	0x9100
     3d0:	0006                	.2byte	0x6
     3d2:	0000                	.2byte	0x0
     3d4:	00066107          	.4byte	0x66107
     3d8:	8800                	.2byte	0x8800
     3da:	0000                	.2byte	0x0
     3dc:	5100                	.2byte	0x5100
     3de:	01000003          	lb	zero,16(zero) # 10 <__tbss_size+0xc>
     3e2:	0662                	.2byte	0x662
     3e4:	0000                	.2byte	0x0
     3e6:	06b8                	.2byte	0x6b8
     3e8:	0000                	.2byte	0x0
     3ea:	6d01                	.2byte	0x6d01
     3ec:	0006                	.2byte	0x6
     3ee:	c400                	.2byte	0xc400
     3f0:	0006                	.2byte	0x6
     3f2:	0700                	.2byte	0x700
     3f4:	0678                	.2byte	0x678
     3f6:	0000                	.2byte	0x0
     3f8:	0000009b          	.4byte	0x9b
     3fc:	02fe                	.2byte	0x2fe
     3fe:	0000                	.2byte	0x0
     400:	7d01                	.2byte	0x7d01
     402:	0006                	.2byte	0x6
     404:	fe00                	.2byte	0xfe00
     406:	0006                	.2byte	0x6
     408:	0100                	.2byte	0x100
     40a:	0689                	.2byte	0x689
     40c:	0000                	.2byte	0x0
     40e:	070a                	.2byte	0x70a
     410:	0000                	.2byte	0x0
     412:	9501                	.2byte	0x9501
     414:	0006                	.2byte	0x6
     416:	2700                	.2byte	0x2700
     418:	01000007          	.4byte	0x1000007
     41c:	06a1                	.2byte	0x6a1
     41e:	0000                	.2byte	0x0
     420:	073e                	.2byte	0x73e
     422:	0000                	.2byte	0x0
     424:	ad01                	.2byte	0xad01
     426:	0006                	.2byte	0x6
     428:	5500                	.2byte	0x5500
     42a:	01000007          	.4byte	0x1000007
     42e:	06b9                	.2byte	0x6b9
     430:	0000                	.2byte	0x0
     432:	00000787          	.4byte	0x787
     436:	c501                	.2byte	0xc501
     438:	0006                	.2byte	0x6
     43a:	b900                	.2byte	0xb900
     43c:	00000007          	.4byte	0x7
     440:	0006d20f          	.4byte	0x6d20f
     444:	c000                	.2byte	0xc000
     446:	0000                	.2byte	0x0
     448:	0100                	.2byte	0x100
     44a:	000006d7          	.4byte	0x6d7
     44e:	07e0                	.2byte	0x7e0
     450:	0000                	.2byte	0x0
     452:	e301                	.2byte	0xe301
     454:	0006                	.2byte	0x6
     456:	ec00                	.2byte	0xec00
     458:	01000007          	.4byte	0x1000007
     45c:	000006ef          	jal	a3,45c <__tcb_aligned_size+0x41c>
     460:	0825                	.2byte	0x825
     462:	0000                	.2byte	0x0
     464:	fb01                	.2byte	0xfb01
     466:	0006                	.2byte	0x6
     468:	3100                	.2byte	0x3100
     46a:	0008                	.2byte	0x8
     46c:	0100                	.2byte	0x100
     46e:	00000707          	.4byte	0x707
     472:	083d                	.2byte	0x83d
     474:	0000                	.2byte	0x0
     476:	1301                	.2byte	0x1301
     478:	89000007          	.4byte	0x89000007
     47c:	0008                	.2byte	0x8
     47e:	0100                	.2byte	0x100
     480:	071f 0000 0895      	.byte	0x1f, 0x07, 0x00, 0x00, 0x95, 0x08
     486:	0000                	.2byte	0x0
     488:	2b01                	.2byte	0x2b01
     48a:	bf000007          	.4byte	0xbf000007
     48e:	0008                	.2byte	0x8
     490:	0000                	.2byte	0x0
     492:	0700                	.2byte	0x700
     494:	055f 0000 00ee      	.byte	0x5f, 0x05, 0x00, 0x00, 0xee, 0x00
     49a:	0000                	.2byte	0x0
     49c:	0371                	.2byte	0x371
     49e:	0000                	.2byte	0x0
     4a0:	6401                	.2byte	0x6401
     4a2:	0005                	.2byte	0x5
     4a4:	cb00                	.2byte	0xcb00
     4a6:	0008                	.2byte	0x8
     4a8:	0100                	.2byte	0x100
     4aa:	0570                	.2byte	0x570
     4ac:	0000                	.2byte	0x0
     4ae:	08e2                	.2byte	0x8e2
     4b0:	0000                	.2byte	0x0
     4b2:	0e00                	.2byte	0xe00
     4b4:	000005d7          	.4byte	0x5d7
     4b8:	3250                	.2byte	0x3250
     4ba:	8000                	.2byte	0x8000
     4bc:	008c                	.2byte	0x8c
     4be:	0000                	.2byte	0x0
     4c0:	03c2                	.2byte	0x3c2
     4c2:	0000                	.2byte	0x0
     4c4:	dc01                	.2byte	0xdc01
     4c6:	0005                	.2byte	0x5
     4c8:	ee00                	.2byte	0xee00
     4ca:	0008                	.2byte	0x8
     4cc:	0100                	.2byte	0x100
     4ce:	05e8                	.2byte	0x5e8
     4d0:	0000                	.2byte	0x0
     4d2:	08fa                	.2byte	0x8fa
     4d4:	0000                	.2byte	0x0
     4d6:	f401                	.2byte	0xf401
     4d8:	0005                	.2byte	0x5
     4da:	0600                	.2byte	0x600
     4dc:	0009                	.2byte	0x9
     4de:	0100                	.2byte	0x100
     4e0:	0600                	.2byte	0x600
     4e2:	0000                	.2byte	0x0
     4e4:	091d                	.2byte	0x91d
     4e6:	0000                	.2byte	0x0
     4e8:	0c01                	.2byte	0xc01
     4ea:	0006                	.2byte	0x6
     4ec:	3400                	.2byte	0x3400
     4ee:	0009                	.2byte	0x9
     4f0:	0100                	.2byte	0x100
     4f2:	0618                	.2byte	0x618
     4f4:	0000                	.2byte	0x0
     4f6:	0966                	.2byte	0x966
     4f8:	0000                	.2byte	0x0
     4fa:	2401                	.2byte	0x2401
     4fc:	0006                	.2byte	0x6
     4fe:	8d00                	.2byte	0x8d00
     500:	0009                	.2byte	0x9
     502:	0000                	.2byte	0x0
     504:	00057d07          	.4byte	0x57d07
     508:	0a00                	.2byte	0xa00
     50a:	0001                	.2byte	0x1
     50c:	0f00                	.2byte	0xf00
     50e:	0004                	.2byte	0x4
     510:	0100                	.2byte	0x100
     512:	0582                	.2byte	0x582
     514:	0000                	.2byte	0x0
     516:	09b4                	.2byte	0x9b4
     518:	0000                	.2byte	0x0
     51a:	8e01                	.2byte	0x8e01
     51c:	0005                	.2byte	0x5
     51e:	c000                	.2byte	0xc000
     520:	0009                	.2byte	0x9
     522:	0100                	.2byte	0x100
     524:	059a                	.2byte	0x59a
     526:	0000                	.2byte	0x0
     528:	09dd                	.2byte	0x9dd
     52a:	0000                	.2byte	0x0
     52c:	a601                	.2byte	0xa601
     52e:	0005                	.2byte	0x5
     530:	f400                	.2byte	0xf400
     532:	0009                	.2byte	0x9
     534:	0100                	.2byte	0x100
     536:	05b2                	.2byte	0x5b2
     538:	0000                	.2byte	0x0
     53a:	00000a0b          	.4byte	0xa0b
     53e:	be01                	.2byte	0xbe01
     540:	0005                	.2byte	0x5
     542:	3d00                	.2byte	0x3d00
     544:	000a                	.2byte	0xa
     546:	0100                	.2byte	0x100
     548:	05ca                	.2byte	0x5ca
     54a:	0000                	.2byte	0x0
     54c:	00000a6f          	jal	s4,54c <__tcb_aligned_size+0x50c>
     550:	0f00                	.2byte	0xf00
     552:	0631                	.2byte	0x631
     554:	0000                	.2byte	0x0
     556:	0126                	.2byte	0x126
     558:	0000                	.2byte	0x0
     55a:	3601                	.2byte	0x3601
     55c:	0006                	.2byte	0x6
     55e:	9600                	.2byte	0x9600
     560:	000a                	.2byte	0xa
     562:	0100                	.2byte	0x100
     564:	0642                	.2byte	0x642
     566:	0000                	.2byte	0x0
     568:	0aa2                	.2byte	0xaa2
     56a:	0000                	.2byte	0x0
     56c:	0000                	.2byte	0x0
     56e:	0000                	.2byte	0x0
     570:	9a1e                	.2byte	0x9a1e
     572:	0002                	.2byte	0x2
     574:	0100                	.2byte	0x100
     576:	ab0103e3          	beq	sp,a6,1c <__tbss_size+0x18>
     57a:	0000                	.2byte	0x0
     57c:	0300                	.2byte	0x300
     57e:	075a                	.2byte	0x75a
     580:	0000                	.2byte	0x0
     582:	17006e0b          	.4byte	0x17006e0b
     586:	000000ab          	.4byte	0xab
     58a:	2200640b          	.4byte	0x2200640b
     58e:	000000ab          	.4byte	0xab
     592:	0070720b          	.4byte	0x70720b
     596:	5a2e                	.2byte	0x5a2e
     598:	03000007          	.4byte	0x3000007
     59c:	6e6e                	.2byte	0x6e6e
     59e:	e500                	.2byte	0xe500
     5a0:	01311103          	lh	sp,19(sp)
     5a4:	0000                	.2byte	0x0
     5a6:	00646403          	.4byte	0x646403
     5aa:	03e6                	.2byte	0x3e6
     5ac:	3111                	.2byte	0x3111
     5ae:	0001                	.2byte	0x1
     5b0:	0300                	.2byte	0x300
     5b2:	7272                	.2byte	0x7272
     5b4:	e700                	.2byte	0xe700
     5b6:	01240b03          	lb	s6,18(s0)
     5ba:	0000                	.2byte	0x0
     5bc:	00306403          	.4byte	0x306403
     5c0:	03e8                	.2byte	0x3e8
     5c2:	950a                	.2byte	0x950a
     5c4:	0000                	.2byte	0x0
     5c6:	0300                	.2byte	0x300
     5c8:	3164                	.2byte	0x3164
     5ca:	e800                	.2byte	0xe800
     5cc:	00950e03          	lb	t3,9(a0)
     5d0:	0000                	.2byte	0x0
     5d2:	00306e03          	.4byte	0x306e03
     5d6:	03e8                	.2byte	0x3e8
     5d8:	9512                	.2byte	0x9512
     5da:	0000                	.2byte	0x0
     5dc:	0300                	.2byte	0x300
     5de:	316e                	.2byte	0x316e
     5e0:	e800                	.2byte	0xe800
     5e2:	00951603          	lh	a2,9(a0)
     5e6:	0000                	.2byte	0x0
     5e8:	00326e03          	.4byte	0x326e03
     5ec:	03e8                	.2byte	0x3e8
     5ee:	951a                	.2byte	0x951a
     5f0:	0000                	.2byte	0x0
     5f2:	0300                	.2byte	0x300
     5f4:	3071                	.2byte	0x3071
     5f6:	e900                	.2byte	0xe900
     5f8:	00950a03          	lb	s4,9(a0)
     5fc:	0000                	.2byte	0x0
     5fe:	00317103          	.4byte	0x317103
     602:	03e9                	.2byte	0x3e9
     604:	950e                	.2byte	0x950e
     606:	0000                	.2byte	0x0
     608:	0300                	.2byte	0x300
     60a:	0062                	.2byte	0x62
     60c:	03ea                	.2byte	0x3ea
     60e:	950a                	.2byte	0x950a
     610:	0000                	.2byte	0x0
     612:	0300                	.2byte	0x300
     614:	6d62                	.2byte	0x6d62
     616:	ea00                	.2byte	0xea00
     618:	00950d03          	lb	s10,9(a0)
     61c:	0000                	.2byte	0x0
     61e:	00777703          	.4byte	0x777703
     622:	311104b3          	.4byte	0x311104b3
     626:	0001                	.2byte	0x1
     628:	0500                	.2byte	0x500
     62a:	0505                	.2byte	0x505
     62c:	0000                	.2byte	0x0
     62e:	2602                	.2byte	0x2602
     630:	0000                	.2byte	0x0
     632:	1a00                	.2byte	0x1a00
     634:	0404                	.2byte	0x404
     636:	0095                	.2byte	0x95
     638:	0000                	.2byte	0x0
     63a:	615f5f03          	lhu	t5,1557(t5)
     63e:	1a00                	.2byte	0x1a00
     640:	0404                	.2byte	0x404
     642:	0095                	.2byte	0x95
     644:	0000                	.2byte	0x0
     646:	0500                	.2byte	0x500
     648:	055f 0000 7d02      	.byte	0x5f, 0x05, 0x00, 0x00, 0x02, 0x7d
     64e:	0001                	.2byte	0x1
     650:	2600                	.2byte	0x2600
     652:	0404                	.2byte	0x404
     654:	0095                	.2byte	0x95
     656:	0000                	.2byte	0x0
     658:	7802                	.2byte	0x7802
     65a:	0001                	.2byte	0x1
     65c:	2600                	.2byte	0x2600
     65e:	0404                	.2byte	0x404
     660:	0095                	.2byte	0x95
     662:	0000                	.2byte	0x0
     664:	9502                	.2byte	0x9502
     666:	0002                	.2byte	0x2
     668:	2600                	.2byte	0x2600
     66a:	0404                	.2byte	0x404
     66c:	0095                	.2byte	0x95
     66e:	0000                	.2byte	0x0
     670:	9002                	.2byte	0x9002
     672:	0002                	.2byte	0x2
     674:	2600                	.2byte	0x2600
     676:	0404                	.2byte	0x404
     678:	0095                	.2byte	0x95
     67a:	0000                	.2byte	0x0
     67c:	ac02                	.2byte	0xac02
     67e:	0002                	.2byte	0x2
     680:	2600                	.2byte	0x2600
     682:	0404                	.2byte	0x404
     684:	0095                	.2byte	0x95
     686:	0000                	.2byte	0x0
     688:	a702                	.2byte	0xa702
     68a:	0002                	.2byte	0x2
     68c:	2600                	.2byte	0x2600
     68e:	0404                	.2byte	0x404
     690:	0095                	.2byte	0x95
     692:	0000                	.2byte	0x0
     694:	6d5f5f03          	lhu	t5,1749(t5)
     698:	2600                	.2byte	0x2600
     69a:	0404                	.2byte	0x404
     69c:	0095                	.2byte	0x95
     69e:	0000                	.2byte	0x0
     6a0:	0500                	.2byte	0x500
     6a2:	057d                	.2byte	0x57d
     6a4:	0000                	.2byte	0x0
     6a6:	2602                	.2byte	0x2602
     6a8:	0000                	.2byte	0x0
     6aa:	3200                	.2byte	0x3200
     6ac:	0404                	.2byte	0x404
     6ae:	0095                	.2byte	0x95
     6b0:	0000                	.2byte	0x0
     6b2:	615f5f03          	lhu	t5,1557(t5)
     6b6:	3200                	.2byte	0x3200
     6b8:	0404                	.2byte	0x404
     6ba:	0095                	.2byte	0x95
     6bc:	0000                	.2byte	0x0
     6be:	0500                	.2byte	0x500
     6c0:	000005d7          	.4byte	0x5d7
     6c4:	7d02                	.2byte	0x7d02
     6c6:	0001                	.2byte	0x1
     6c8:	4b00                	.2byte	0x4b00
     6ca:	0804                	.2byte	0x804
     6cc:	0095                	.2byte	0x95
     6ce:	0000                	.2byte	0x0
     6d0:	7802                	.2byte	0x7802
     6d2:	0001                	.2byte	0x1
     6d4:	4b00                	.2byte	0x4b00
     6d6:	0804                	.2byte	0x804
     6d8:	0095                	.2byte	0x95
     6da:	0000                	.2byte	0x0
     6dc:	9502                	.2byte	0x9502
     6de:	0002                	.2byte	0x2
     6e0:	4b00                	.2byte	0x4b00
     6e2:	0804                	.2byte	0x804
     6e4:	0095                	.2byte	0x95
     6e6:	0000                	.2byte	0x0
     6e8:	9002                	.2byte	0x9002
     6ea:	0002                	.2byte	0x2
     6ec:	4b00                	.2byte	0x4b00
     6ee:	0804                	.2byte	0x804
     6f0:	0095                	.2byte	0x95
     6f2:	0000                	.2byte	0x0
     6f4:	ac02                	.2byte	0xac02
     6f6:	0002                	.2byte	0x2
     6f8:	4b00                	.2byte	0x4b00
     6fa:	0804                	.2byte	0x804
     6fc:	0095                	.2byte	0x95
     6fe:	0000                	.2byte	0x0
     700:	a702                	.2byte	0xa702
     702:	0002                	.2byte	0x2
     704:	4b00                	.2byte	0x4b00
     706:	0804                	.2byte	0x804
     708:	0095                	.2byte	0x95
     70a:	0000                	.2byte	0x0
     70c:	6d5f5f03          	lhu	t5,1749(t5)
     710:	4b00                	.2byte	0x4b00
     712:	0804                	.2byte	0x804
     714:	0095                	.2byte	0x95
     716:	0000                	.2byte	0x0
     718:	0500                	.2byte	0x500
     71a:	0631                	.2byte	0x631
     71c:	0000                	.2byte	0x0
     71e:	7d02                	.2byte	0x7d02
     720:	0001                	.2byte	0x1
     722:	5000                	.2byte	0x5000
     724:	0404                	.2byte	0x404
     726:	0095                	.2byte	0x95
     728:	0000                	.2byte	0x0
     72a:	7802                	.2byte	0x7802
     72c:	0001                	.2byte	0x1
     72e:	5000                	.2byte	0x5000
     730:	0404                	.2byte	0x404
     732:	0095                	.2byte	0x95
     734:	0000                	.2byte	0x0
     736:	9502                	.2byte	0x9502
     738:	0002                	.2byte	0x2
     73a:	5000                	.2byte	0x5000
     73c:	0404                	.2byte	0x404
     73e:	0095                	.2byte	0x95
     740:	0000                	.2byte	0x0
     742:	9002                	.2byte	0x9002
     744:	0002                	.2byte	0x2
     746:	5000                	.2byte	0x5000
     748:	0404                	.2byte	0x404
     74a:	0095                	.2byte	0x95
     74c:	0000                	.2byte	0x0
     74e:	ac02                	.2byte	0xac02
     750:	0002                	.2byte	0x2
     752:	5000                	.2byte	0x5000
     754:	0404                	.2byte	0x404
     756:	0095                	.2byte	0x95
     758:	0000                	.2byte	0x0
     75a:	a702                	.2byte	0xa702
     75c:	0002                	.2byte	0x2
     75e:	5000                	.2byte	0x5000
     760:	0404                	.2byte	0x404
     762:	0095                	.2byte	0x95
     764:	0000                	.2byte	0x0
     766:	6d5f5f03          	lhu	t5,1749(t5)
     76a:	5000                	.2byte	0x5000
     76c:	0404                	.2byte	0x404
     76e:	0095                	.2byte	0x95
     770:	0000                	.2byte	0x0
     772:	0500                	.2byte	0x500
     774:	0000064f          	fnmadd.s	fa2,ft0,ft0,ft0,rne
     778:	2602                	.2byte	0x2602
     77a:	0000                	.2byte	0x0
     77c:	7300                	.2byte	0x7300
     77e:	0404                	.2byte	0x404
     780:	0095                	.2byte	0x95
     782:	0000                	.2byte	0x0
     784:	615f5f03          	lhu	t5,1557(t5)
     788:	7300                	.2byte	0x7300
     78a:	0404                	.2byte	0x404
     78c:	0095                	.2byte	0x95
     78e:	0000                	.2byte	0x0
     790:	0500                	.2byte	0x500
     792:	0661                	.2byte	0x661
     794:	0000                	.2byte	0x0
     796:	785f5f03          	lhu	t5,1925(t5)
     79a:	8100                	.2byte	0x8100
     79c:	0504                	.2byte	0x504
     79e:	0095                	.2byte	0x95
     7a0:	0000                	.2byte	0x0
     7a2:	1000                	.2byte	0x1000
     7a4:	00316d03          	.4byte	0x316d03
     7a8:	0491                	.2byte	0x491
     7aa:	0000950f          	.4byte	0x950f
     7ae:	0300                	.2byte	0x300
     7b0:	306d                	.2byte	0x306d
     7b2:	9100                	.2byte	0x9100
     7b4:	1304                	.2byte	0x1304
     7b6:	0095                	.2byte	0x95
     7b8:	0000                	.2byte	0x0
     7ba:	d205                	.2byte	0xd205
     7bc:	0006                	.2byte	0x6
     7be:	0200                	.2byte	0x200
     7c0:	017d                	.2byte	0x17d
     7c2:	0000                	.2byte	0x0
     7c4:	049c                	.2byte	0x49c
     7c6:	9508                	.2byte	0x9508
     7c8:	0000                	.2byte	0x0
     7ca:	0200                	.2byte	0x200
     7cc:	0178                	.2byte	0x178
     7ce:	0000                	.2byte	0x0
     7d0:	049c                	.2byte	0x49c
     7d2:	9508                	.2byte	0x9508
     7d4:	0000                	.2byte	0x0
     7d6:	0200                	.2byte	0x200
     7d8:	0295                	.2byte	0x295
     7da:	0000                	.2byte	0x0
     7dc:	049c                	.2byte	0x49c
     7de:	9508                	.2byte	0x9508
     7e0:	0000                	.2byte	0x0
     7e2:	0200                	.2byte	0x200
     7e4:	0290                	.2byte	0x290
     7e6:	0000                	.2byte	0x0
     7e8:	049c                	.2byte	0x49c
     7ea:	9508                	.2byte	0x9508
     7ec:	0000                	.2byte	0x0
     7ee:	0200                	.2byte	0x200
     7f0:	02ac                	.2byte	0x2ac
     7f2:	0000                	.2byte	0x0
     7f4:	049c                	.2byte	0x49c
     7f6:	9508                	.2byte	0x9508
     7f8:	0000                	.2byte	0x0
     7fa:	0200                	.2byte	0x200
     7fc:	000002a7          	.4byte	0x2a7
     800:	049c                	.2byte	0x49c
     802:	9508                	.2byte	0x9508
     804:	0000                	.2byte	0x0
     806:	0300                	.2byte	0x300
     808:	5f5f 006d 049c      	.byte	0x5f, 0x5f, 0x6d, 0x00, 0x9c, 0x04
     80e:	9508                	.2byte	0x9508
     810:	0000                	.2byte	0x0
     812:	0000                	.2byte	0x0
     814:	3805                	.2byte	0x3805
     816:	02000007          	.4byte	0x2000007
     81a:	0000026b          	.4byte	0x26b
     81e:	049d                	.2byte	0x49d
     820:	9508                	.2byte	0x9508
     822:	0000                	.2byte	0x0
     824:	0200                	.2byte	0x200
     826:	0270                	.2byte	0x270
     828:	0000                	.2byte	0x0
     82a:	049d                	.2byte	0x49d
     82c:	9508                	.2byte	0x9508
     82e:	0000                	.2byte	0x0
     830:	0200                	.2byte	0x200
     832:	0275                	.2byte	0x275
     834:	0000                	.2byte	0x0
     836:	049d                	.2byte	0x49d
     838:	9508                	.2byte	0x9508
     83a:	0000                	.2byte	0x0
     83c:	0200                	.2byte	0x200
     83e:	027a                	.2byte	0x27a
     840:	0000                	.2byte	0x0
     842:	049d                	.2byte	0x49d
     844:	9508                	.2byte	0x9508
     846:	0000                	.2byte	0x0
     848:	0200                	.2byte	0x200
     84a:	02b6                	.2byte	0x2b6
     84c:	0000                	.2byte	0x0
     84e:	049d                	.2byte	0x49d
     850:	9508                	.2byte	0x9508
     852:	0000                	.2byte	0x0
     854:	0200                	.2byte	0x200
     856:	00000187          	.4byte	0x187
     85a:	049d                	.2byte	0x49d
     85c:	9508                	.2byte	0x9508
     85e:	0000                	.2byte	0x0
     860:	0200                	.2byte	0x200
     862:	02b1                	.2byte	0x2b1
     864:	0000                	.2byte	0x0
     866:	049d                	.2byte	0x49d
     868:	9508                	.2byte	0x9508
     86a:	0000                	.2byte	0x0
     86c:	0200                	.2byte	0x200
     86e:	0182                	.2byte	0x182
     870:	0000                	.2byte	0x0
     872:	049d                	.2byte	0x49d
     874:	9508                	.2byte	0x9508
     876:	0000                	.2byte	0x0
     878:	0000                	.2byte	0x0
     87a:	4a05                	.2byte	0x4a05
     87c:	03000007          	.4byte	0x3000007
     880:	5f5f 0078 04a2      	.byte	0x5f, 0x5f, 0x78, 0x00, 0xa2, 0x04
     886:	9505                	.2byte	0x9505
     888:	0000                	.2byte	0x0
     88a:	0000                	.2byte	0x0
     88c:	0310                	.2byte	0x310
     88e:	5f5f 0078 04aa      	.byte	0x5f, 0x5f, 0x78, 0x00, 0xaa, 0x04
     894:	9505                	.2byte	0x9505
     896:	0000                	.2byte	0x0
     898:	0000                	.2byte	0x0
     89a:	0000                	.2byte	0x0
     89c:	041f 00ab 0000      	.byte	0x1f, 0x04, 0xab, 0x00, 0x00, 0x00
     8a2:	b000                	.2byte	0xb000
     8a4:	05000007          	.4byte	0x5000007
     8a8:	0100                	.2byte	0x100
     8aa:	7004                	.2byte	0x7004
     8ac:	0002                	.2byte	0x2
     8ae:	1100                	.2byte	0x1100
     8b0:	0191                	.2byte	0x191
     8b2:	0000                	.2byte	0x0
     8b4:	001d                	.2byte	0x1d
     8b6:	0000                	.2byte	0x0
     8b8:	2100                	.2byte	0x2100
     8ba:	0000                	.2byte	0x0
     8bc:	3400                	.2byte	0x3400
     8be:	0035                	.2byte	0x35
     8c0:	e480                	.2byte	0xe480
     8c2:	de000003          	lb	zero,-544(zero) # fffffde0 <__BSS_END__+0x7fff6620>
     8c6:	04000007          	.4byte	0x4000007
     8ca:	0708                	.2byte	0x708
     8cc:	00e8                	.2byte	0xe8
     8ce:	0000                	.2byte	0x0
     8d0:	0404                	.2byte	0x404
     8d2:	0000f207          	.4byte	0xf207
     8d6:	1200                	.2byte	0x1200
     8d8:	0504                	.2byte	0x504
     8da:	6e69                	.2byte	0x6e69
     8dc:	0074                	.2byte	0x74
     8de:	0804                	.2byte	0x804
     8e0:	0005                	.2byte	0x5
     8e2:	0000                	.2byte	0x0
     8e4:	0400                	.2byte	0x400
     8e6:	0410                	.2byte	0x410
     8e8:	011f 0000 0104      	.byte	0x1f, 0x01, 0x00, 0x00, 0x04, 0x01
     8ee:	0106                	.2byte	0x106
     8f0:	0001                	.2byte	0x1
     8f2:	0400                	.2byte	0x400
     8f4:	0801                	.2byte	0x801
     8f6:	00ff 0000 0204 5c05 	.byte	0xff, 0x00, 0x00, 0x00, 0x04, 0x02, 0x05, 0x5c, 0x01, 0x00
     8fe:	0001 
     900:	0400                	.2byte	0x400
     902:	0702                	.2byte	0x702
     904:	0000012b          	.4byte	0x12b
     908:	0404                	.2byte	0x404
     90a:	0505                	.2byte	0x505
     90c:	0000                	.2byte	0x0
     90e:	0400                	.2byte	0x400
     910:	0704                	.2byte	0x704
     912:	00ed                	.2byte	0xed
     914:	0000                	.2byte	0x0
     916:	0104                	.2byte	0x104
     918:	0808                	.2byte	0x808
     91a:	0001                	.2byte	0x1
     91c:	0700                	.2byte	0x700
     91e:	014c                	.2byte	0x14c
     920:	0000                	.2byte	0x0
     922:	0050167b          	.4byte	0x50167b
     926:	0000                	.2byte	0x0
     928:	7a09                	.2byte	0x7a09
     92a:	0000                	.2byte	0x0
     92c:	0700                	.2byte	0x700
     92e:	0155                	.2byte	0x155
     930:	0000                	.2byte	0x0
     932:	0f80                	.2byte	0xf80
     934:	0034                	.2byte	0x34
     936:	0000                	.2byte	0x0
     938:	00015407          	.4byte	0x15407
     93c:	8100                	.2byte	0x8100
     93e:	2d16                	.2byte	0x2d16
     940:	0000                	.2byte	0x0
     942:	0700                	.2byte	0x700
     944:	0289                	.2byte	0x289
     946:	0000                	.2byte	0x0
     948:	0f84                	.2byte	0xf84
     94a:	0000003b          	.4byte	0x3b
     94e:	00028807          	.4byte	0x28807
     952:	8500                	.2byte	0x8500
     954:	2616                	.2byte	0x2616
     956:	0000                	.2byte	0x0
     958:	0400                	.2byte	0x400
     95a:	0404                	.2byte	0x404
     95c:	0146                	.2byte	0x146
     95e:	0000                	.2byte	0x0
     960:	0804                	.2byte	0x804
     962:	00013e03          	.4byte	0x13e03
     966:	0400                	.2byte	0x400
     968:	0408                	.2byte	0x408
     96a:	0124                	.2byte	0x124
     96c:	0000                	.2byte	0x0
     96e:	1004                	.2byte	0x1004
     970:	00001703          	lh	a4,0(zero) # 0 <tls_var>
     974:	0400                	.2byte	0x400
     976:	0320                	.2byte	0x320
     978:	00000117          	auipc	sp,0x0
     97c:	00027f13          	and	t5,tp,0
     980:	0800                	.2byte	0x800
     982:	ed02                	.2byte	0xed02
     984:	0a01                	.2byte	0xa01
     986:	0104                	.2byte	0x104
     988:	0000                	.2byte	0x0
     98a:	6c14                	.2byte	0x6c14
     98c:	0200776f          	jal	a4,79ac <__tcb_aligned_size+0x796c>
     990:	01ed                	.2byte	0x1ed
     992:	8a1a                	.2byte	0x8a1a
     994:	0000                	.2byte	0x0
     996:	0000                	.2byte	0x0
     998:	8c15                	.2byte	0x8c15
     99a:	0001                	.2byte	0x1
     99c:	0200                	.2byte	0x200
     99e:	01ed                	.2byte	0x1ed
     9a0:	8a1f 0000 0400      	.byte	0x1f, 0x8a, 0x00, 0x00, 0x00, 0x04
     9a6:	1600                	.2byte	0x1600
     9a8:	0208                	.2byte	0x208
     9aa:	01f4                	.2byte	0x1f4
     9ac:	2409                	.2byte	0x2409
     9ae:	0001                	.2byte	0x1
     9b0:	0d00                	.2byte	0xd00
     9b2:	01f60073          	.4byte	0x1f60073
     9b6:	0000d913          	srl	s2,ra,0x0
     9ba:	0d00                	.2byte	0xd00
     9bc:	6c6c                	.2byte	0x6c6c
     9be:	f700                	.2byte	0xf700
     9c0:	0a01                	.2byte	0xa01
     9c2:	00a0                	.2byte	0xa0
     9c4:	0000                	.2byte	0x0
     9c6:	1700                	.2byte	0x1700
     9c8:	0166                	.2byte	0x166
     9ca:	0000                	.2byte	0x0
     9cc:	f802                	.2byte	0xf802
     9ce:	0301                	.2byte	0x301
     9d0:	0104                	.2byte	0x104
     9d2:	0000                	.2byte	0x0
     9d4:	2409                	.2byte	0x2409
     9d6:	0001                	.2byte	0x1
     9d8:	1800                	.2byte	0x1800
     9da:	0085                	.2byte	0x85
     9dc:	0000                	.2byte	0x0
     9de:	0146                	.2byte	0x146
     9e0:	0000                	.2byte	0x0
     9e2:	2d19                	.2byte	0x2d19
     9e4:	0000                	.2byte	0x0
     9e6:	ff00                	.2byte	0xff00
     9e8:	0900                	.2byte	0x900
     9ea:	0136                	.2byte	0x136
     9ec:	0000                	.2byte	0x0
     9ee:	0d1a                	.2byte	0xd1a
     9f0:	0001                	.2byte	0x1
     9f2:	0200                	.2byte	0x200
     9f4:	0202                	.2byte	0x202
     9f6:	4616                	.2byte	0x4616
     9f8:	0001                	.2byte	0x1
     9fa:	1b00                	.2byte	0x1b00
     9fc:	000002bb          	.4byte	0x2bb
     a00:	0601                	.2byte	0x601
     a02:	0105                	.2byte	0x105
     a04:	000000ab          	.4byte	0xab
     a08:	3534                	.2byte	0x3534
     a0a:	8000                	.2byte	0x8000
     a0c:	03e4                	.2byte	0x3e4
     a0e:	0000                	.2byte	0x0
     a10:	9c01                	.2byte	0x9c01
     a12:	0481                	.2byte	0x481
     a14:	0000                	.2byte	0x0
     a16:	750e                	.2byte	0x750e
     a18:	1400                	.2byte	0x1400
     a1a:	000000ab          	.4byte	0xab
     a1e:	0aba                	.2byte	0xaba
     a20:	0000                	.2byte	0x0
     a22:	760e                	.2byte	0x760e
     a24:	1f00                	.2byte	0x1f00
     a26:	000000ab          	.4byte	0xab
     a2a:	00000b5b          	.4byte	0xb5b
     a2e:	08007703          	.4byte	0x8007703
     a32:	0b05                	.2byte	0xb05
     a34:	000000ab          	.4byte	0xab
     a38:	811c                	.2byte	0x811c
     a3a:	0004                	.2byte	0x4
     a3c:	3400                	.2byte	0x3400
     a3e:	0035                	.2byte	0x35
     a40:	e080                	.2byte	0xe080
     a42:	01000003          	lb	zero,16(zero) # 10 <__tbss_size+0xc>
     a46:	050a                	.2byte	0x50a
     a48:	0a0a                	.2byte	0xa0a
     a4a:	000004a3          	sb	zero,9(zero) # 9 <__tbss_size+0x5>
     a4e:	0bfc                	.2byte	0xbfc
     a50:	0000                	.2byte	0x0
     a52:	9b0a                	.2byte	0x9b0a
     a54:	0004                	.2byte	0x4
     a56:	0d00                	.2byte	0xd00
     a58:	000c                	.2byte	0xc
     a5a:	0a00                	.2byte	0xa00
     a5c:	00000493          	li	s1,0
     a60:	0c4e                	.2byte	0xc4e
     a62:	0000                	.2byte	0x0
     a64:	ac08                	.2byte	0xac08
     a66:	0004                	.2byte	0x4
     a68:	0800                	.2byte	0x800
     a6a:	000004b7          	lui	s1,0x0
     a6e:	c208                	.2byte	0xc208
     a70:	0004                	.2byte	0x4
     a72:	0100                	.2byte	0x100
     a74:	04cd                	.2byte	0x4cd
     a76:	0000                	.2byte	0x0
     a78:	0c9f 0000 d801      	.byte	0x9f, 0x0c, 0x00, 0x00, 0x01, 0xd8
     a7e:	0004                	.2byte	0x4
     a80:	f800                	.2byte	0xf800
     a82:	000c                	.2byte	0xc
     a84:	0100                	.2byte	0x100
     a86:	000004e3          	beqz	zero,128e <__tcb_aligned_size+0x124e>
     a8a:	0d30                	.2byte	0xd30
     a8c:	0000                	.2byte	0x0
     a8e:	ee01                	.2byte	0xee01
     a90:	0004                	.2byte	0x4
     a92:	8900                	.2byte	0x8900
     a94:	000d                	.2byte	0xd
     a96:	0100                	.2byte	0x100
     a98:	04f9                	.2byte	0x4f9
     a9a:	0000                	.2byte	0x0
     a9c:	0e19                	.2byte	0xe19
     a9e:	0000                	.2byte	0x0
     aa0:	0401                	.2byte	0x401
     aa2:	0005                	.2byte	0x5
     aa4:	3000                	.2byte	0x3000
     aa6:	000e                	.2byte	0xe
     aa8:	0100                	.2byte	0x100
     aaa:	0000050f          	.4byte	0x50f
     aae:	0e3d                	.2byte	0xe3d
     ab0:	0000                	.2byte	0x0
     ab2:	1a01                	.2byte	0x1a01
     ab4:	0005                	.2byte	0x5
     ab6:	5600                	.2byte	0x5600
     ab8:	000e                	.2byte	0xe
     aba:	0100                	.2byte	0x100
     abc:	0524                	.2byte	0x524
     abe:	0000                	.2byte	0x0
     ac0:	0e6d                	.2byte	0xe6d
     ac2:	0000                	.2byte	0x0
     ac4:	2f08                	.2byte	0x2f08
     ac6:	0005                	.2byte	0x5
     ac8:	0600                	.2byte	0x600
     aca:	053a                	.2byte	0x53a
     acc:	0000                	.2byte	0x0
     ace:	0145                	.2byte	0x145
     ad0:	0000                	.2byte	0x0
     ad2:	0246                	.2byte	0x246
     ad4:	0000                	.2byte	0x0
     ad6:	3f01                	.2byte	0x3f01
     ad8:	0005                	.2byte	0x5
     ada:	a500                	.2byte	0xa500
     adc:	000e                	.2byte	0xe
     ade:	0100                	.2byte	0x100
     ae0:	0000054b          	fnmsub.s	fa0,ft0,ft0,ft0,rne
     ae4:	0ebc                	.2byte	0xebc
     ae6:	0000                	.2byte	0x0
     ae8:	0b00                	.2byte	0xb00
     aea:	0558                	.2byte	0x558
     aec:	0000                	.2byte	0x0
     aee:	3594                	.2byte	0x3594
     af0:	8000                	.2byte	0x8000
     af2:	0048                	.2byte	0x48
     af4:	0000                	.2byte	0x0
     af6:	00000297          	auipc	t0,0x0
     afa:	5d01                	.2byte	0x5d01
     afc:	0005                	.2byte	0x5
     afe:	c800                	.2byte	0xc800
     b00:	000e                	.2byte	0xe
     b02:	0100                	.2byte	0x100
     b04:	0569                	.2byte	0x569
     b06:	0000                	.2byte	0x0
     b08:	0ed4                	.2byte	0xed4
     b0a:	0000                	.2byte	0x0
     b0c:	7501                	.2byte	0x7501
     b0e:	0005                	.2byte	0x5
     b10:	e000                	.2byte	0xe000
     b12:	000e                	.2byte	0xe
     b14:	0100                	.2byte	0x100
     b16:	0581                	.2byte	0x581
     b18:	0000                	.2byte	0x0
     b1a:	00000ef7          	.4byte	0xef7
     b1e:	8d01                	.2byte	0x8d01
     b20:	0005                	.2byte	0x5
     b22:	1900                	.2byte	0x1900
     b24:	0100000f          	fence	w,unknown
     b28:	0599                	.2byte	0x599
     b2a:	0000                	.2byte	0x0
     b2c:	0f35                	.2byte	0xf35
     b2e:	0000                	.2byte	0x0
     b30:	a501                	.2byte	0xa501
     b32:	0005                	.2byte	0x5
     b34:	5100                	.2byte	0x5100
     b36:	0000000f          	fence	unknown,unknown
     b3a:	2a06                	.2byte	0x2a06
     b3c:	0006                	.2byte	0x6
     b3e:	5800                	.2byte	0x5800
     b40:	0001                	.2byte	0x1
     b42:	e400                	.2byte	0xe400
     b44:	0002                	.2byte	0x2
     b46:	0100                	.2byte	0x100
     b48:	0000062f          	.4byte	0x62f
     b4c:	0f5d                	.2byte	0xf5d
     b4e:	0000                	.2byte	0x0
     b50:	3b01                	.2byte	0x3b01
     b52:	0006                	.2byte	0x6
     b54:	6900                	.2byte	0x6900
     b56:	0100000f          	fence	w,unknown
     b5a:	00000647          	fmsub.s	fa2,ft0,ft0,ft0,rne
     b5e:	0f75                	.2byte	0xf75
     b60:	0000                	.2byte	0x0
     b62:	5301                	.2byte	0x5301
     b64:	0006                	.2byte	0x6
     b66:	8100                	.2byte	0x8100
     b68:	0100000f          	fence	w,unknown
     b6c:	065f 0000 0fa3      	.byte	0x5f, 0x06, 0x00, 0x00, 0xa3, 0x0f
     b72:	0000                	.2byte	0x0
     b74:	6b01                	.2byte	0x6b01
     b76:	0006                	.2byte	0x6
     b78:	ca00                	.2byte	0xca00
     b7a:	0100000f          	fence	w,unknown
     b7e:	00000677          	.4byte	0x677
     b82:	0ff1                	.2byte	0xff1
     b84:	0000                	.2byte	0x0
     b86:	0600                	.2byte	0x600
     b88:	05b2                	.2byte	0x5b2
     b8a:	0000                	.2byte	0x0
     b8c:	0000016b          	.4byte	0x16b
     b90:	0304                	.2byte	0x304
     b92:	0000                	.2byte	0x0
     b94:	b701                	.2byte	0xb701
     b96:	0005                	.2byte	0x5
     b98:	0800                	.2byte	0x800
     b9a:	0010                	.2byte	0x10
     b9c:	0100                	.2byte	0x100
     b9e:	000005c3          	fmadd.s	fa1,ft0,ft0,ft0,rne
     ba2:	101f 0000 0600      	.byte	0x1f, 0x10, 0x00, 0x00, 0x00, 0x06
     ba8:	05d0                	.2byte	0x5d0
     baa:	0000                	.2byte	0x0
     bac:	00000187          	.4byte	0x187
     bb0:	0351                	.2byte	0x351
     bb2:	0000                	.2byte	0x0
     bb4:	d501                	.2byte	0xd501
     bb6:	0005                	.2byte	0x5
     bb8:	2b00                	.2byte	0x2b00
     bba:	0010                	.2byte	0x10
     bbc:	0100                	.2byte	0x100
     bbe:	05e1                	.2byte	0x5e1
     bc0:	0000                	.2byte	0x0
     bc2:	00001037          	lui	zero,0x1
     bc6:	ed01                	.2byte	0xed01
     bc8:	0005                	.2byte	0x5
     bca:	4300                	.2byte	0x4300
     bcc:	0010                	.2byte	0x10
     bce:	0100                	.2byte	0x100
     bd0:	05f9                	.2byte	0x5f9
     bd2:	0000                	.2byte	0x0
     bd4:	0000104f          	fnmadd.s	ft0,ft0,ft0,ft0,rtz
     bd8:	0501                	.2byte	0x501
     bda:	0006                	.2byte	0x6
     bdc:	7100                	.2byte	0x7100
     bde:	0010                	.2byte	0x10
     be0:	0100                	.2byte	0x100
     be2:	0611                	.2byte	0x611
     be4:	0000                	.2byte	0x0
     be6:	1098                	.2byte	0x1098
     be8:	0000                	.2byte	0x0
     bea:	1d01                	.2byte	0x1d01
     bec:	0006                	.2byte	0x6
     bee:	bf00                	.2byte	0xbf00
     bf0:	0010                	.2byte	0x10
     bf2:	0000                	.2byte	0x0
     bf4:	8406                	.2byte	0x8406
     bf6:	0006                	.2byte	0x6
     bf8:	9a00                	.2byte	0x9a00
     bfa:	0001                	.2byte	0x1
     bfc:	7100                	.2byte	0x7100
     bfe:	01000003          	lb	zero,16(zero) # 10 <__tbss_size+0xc>
     c02:	0689                	.2byte	0x689
     c04:	0000                	.2byte	0x0
     c06:	10d6                	.2byte	0x10d6
     c08:	0000                	.2byte	0x0
     c0a:	9501                	.2byte	0x9501
     c0c:	0006                	.2byte	0x6
     c0e:	ed00                	.2byte	0xed00
     c10:	0010                	.2byte	0x10
     c12:	0000                	.2byte	0x0
     c14:	0006a20b          	.4byte	0x6a20b
     c18:	9000                	.2byte	0x9000
     c1a:	14800037          	lui	zero,0x14800
     c1e:	0000                	.2byte	0x0
     c20:	8c00                	.2byte	0x8c00
     c22:	01000003          	lb	zero,16(zero) # 10 <__tbss_size+0xc>
     c26:	000006a7          	.4byte	0x6a7
     c2a:	10f9                	.2byte	0x10f9
     c2c:	0000                	.2byte	0x0
     c2e:	0f00                	.2byte	0xf00
     c30:	06b4                	.2byte	0x6b4
     c32:	0000                	.2byte	0x0
     c34:	37c4                	.2byte	0x37c4
     c36:	8000                	.2byte	0x8000
     c38:	0150                	.2byte	0x150
     c3a:	0000                	.2byte	0x0
     c3c:	b501                	.2byte	0xb501
     c3e:	0006                	.2byte	0x6
     c40:	0500                	.2byte	0x500
     c42:	0011                	.2byte	0x11
     c44:	0100                	.2byte	0x100
     c46:	06c0                	.2byte	0x6c0
     c48:	0000                	.2byte	0x0
     c4a:	1111                	.2byte	0x1111
     c4c:	0000                	.2byte	0x0
     c4e:	cb06                	.2byte	0xcb06
     c50:	0006                	.2byte	0x6
     c52:	ad00                	.2byte	0xad00
     c54:	0001                	.2byte	0x1
     c56:	f800                	.2byte	0xf800
     c58:	01000003          	lb	zero,16(zero) # 10 <__tbss_size+0xc>
     c5c:	06d0                	.2byte	0x6d0
     c5e:	0000                	.2byte	0x0
     c60:	1128                	.2byte	0x1128
     c62:	0000                	.2byte	0x0
     c64:	dc01                	.2byte	0xdc01
     c66:	0006                	.2byte	0x6
     c68:	4300                	.2byte	0x4300
     c6a:	0011                	.2byte	0x11
     c6c:	0100                	.2byte	0x100
     c6e:	06e8                	.2byte	0x6e8
     c70:	0000                	.2byte	0x0
     c72:	1160                	.2byte	0x1160
     c74:	0000                	.2byte	0x0
     c76:	f401                	.2byte	0xf401
     c78:	0006                	.2byte	0x6
     c7a:	7700                	.2byte	0x7700
     c7c:	0011                	.2byte	0x11
     c7e:	0100                	.2byte	0x100
     c80:	0700                	.2byte	0x700
     c82:	0000                	.2byte	0x0
     c84:	118e                	.2byte	0x118e
     c86:	0000                	.2byte	0x0
     c88:	0c01                	.2byte	0xc01
     c8a:	c0000007          	.4byte	0xc0000007
     c8e:	0011                	.2byte	0x11
     c90:	0100                	.2byte	0x100
     c92:	0718                	.2byte	0x718
     c94:	0000                	.2byte	0x0
     c96:	11f2                	.2byte	0x11f2
     c98:	0000                	.2byte	0x0
     c9a:	0600                	.2byte	0x600
     c9c:	0725                	.2byte	0x725
     c9e:	0000                	.2byte	0x0
     ca0:	01d2                	.2byte	0x1d2
     ca2:	0000                	.2byte	0x0
     ca4:	044c                	.2byte	0x44c
     ca6:	0000                	.2byte	0x0
     ca8:	2a01                	.2byte	0x2a01
     caa:	2d000007          	.4byte	0x2d000007
     cae:	0012                	.2byte	0x12
     cb0:	0100                	.2byte	0x100
     cb2:	0736                	.2byte	0x736
     cb4:	0000                	.2byte	0x0
     cb6:	1239                	.2byte	0x1239
     cb8:	0000                	.2byte	0x0
     cba:	4201                	.2byte	0x4201
     cbc:	57000007          	.4byte	0x57000007
     cc0:	0012                	.2byte	0x12
     cc2:	0100                	.2byte	0x100
     cc4:	074e                	.2byte	0x74e
     cc6:	0000                	.2byte	0x0
     cc8:	00001263          	bnez	zero,ccc <__tcb_aligned_size+0xc8c>
     ccc:	5a01                	.2byte	0x5a01
     cce:	6f000007          	.4byte	0x6f000007
     cd2:	0012                	.2byte	0x12
     cd4:	0100                	.2byte	0x100
     cd6:	0766                	.2byte	0x766
     cd8:	0000                	.2byte	0x0
     cda:	0000127b          	.4byte	0x127b
     cde:	7201                	.2byte	0x7201
     ce0:	a7000007          	.4byte	0xa7000007
     ce4:	0012                	.2byte	0x12
     ce6:	1d00                	.2byte	0x1d00
     ce8:	077e                	.2byte	0x77e
     cea:	0000                	.2byte	0x0
     cec:	6c01                	.2byte	0x6c01
     cee:	0b00                	.2byte	0xb00
     cf0:	0000078b          	.4byte	0x78b
     cf4:	38e0                	.2byte	0x38e0
     cf6:	8000                	.2byte	0x8000
     cf8:	0014                	.2byte	0x14
     cfa:	0000                	.2byte	0x0
     cfc:	00000467          	jalr	s0,zero # 0 <tls_var>
     d00:	9001                	.2byte	0x9001
     d02:	b3000007          	.4byte	0xb3000007
     d06:	0012                	.2byte	0x12
     d08:	0000                	.2byte	0x0
     d0a:	00079d0f          	.4byte	0x79d0f
     d0e:	f400                	.2byte	0xf400
     d10:	0038                	.2byte	0x38
     d12:	1080                	.2byte	0x1080
     d14:	0000                	.2byte	0x0
     d16:	0100                	.2byte	0x100
     d18:	079e                	.2byte	0x79e
     d1a:	0000                	.2byte	0x0
     d1c:	000012bf 00000000 	.8byte	0x12bf
     d24:	9a1e                	.2byte	0x9a1e
     d26:	0002                	.2byte	0x2
     d28:	0100                	.2byte	0x100
     d2a:	ab0103e3          	beq	sp,a6,7d0 <__tcb_aligned_size+0x790>
     d2e:	0000                	.2byte	0x0
     d30:	0300                	.2byte	0x300
     d32:	07ad                	.2byte	0x7ad
     d34:	0000                	.2byte	0x0
     d36:	6e0c                	.2byte	0x6e0c
     d38:	1700                	.2byte	0x1700
     d3a:	000000ab          	.4byte	0xab
     d3e:	640c                	.2byte	0x640c
     d40:	2200                	.2byte	0x2200
     d42:	000000ab          	.4byte	0xab
     d46:	720c                	.2byte	0x720c
     d48:	0070                	.2byte	0x70
     d4a:	ad2e                	.2byte	0xad2e
     d4c:	03000007          	.4byte	0x3000007
     d50:	6e6e                	.2byte	0x6e6e
     d52:	e500                	.2byte	0xe500
     d54:	01311103          	lh	sp,19(sp) # 98b <__tcb_aligned_size+0x94b>
     d58:	0000                	.2byte	0x0
     d5a:	00646403          	.4byte	0x646403
     d5e:	03e6                	.2byte	0x3e6
     d60:	3111                	.2byte	0x3111
     d62:	0001                	.2byte	0x1
     d64:	0300                	.2byte	0x300
     d66:	7272                	.2byte	0x7272
     d68:	e700                	.2byte	0xe700
     d6a:	01240b03          	lb	s6,18(s0)
     d6e:	0000                	.2byte	0x0
     d70:	00306403          	.4byte	0x306403
     d74:	03e8                	.2byte	0x3e8
     d76:	950a                	.2byte	0x950a
     d78:	0000                	.2byte	0x0
     d7a:	0300                	.2byte	0x300
     d7c:	3164                	.2byte	0x3164
     d7e:	e800                	.2byte	0xe800
     d80:	00950e03          	lb	t3,9(a0)
     d84:	0000                	.2byte	0x0
     d86:	00306e03          	.4byte	0x306e03
     d8a:	03e8                	.2byte	0x3e8
     d8c:	9512                	.2byte	0x9512
     d8e:	0000                	.2byte	0x0
     d90:	0300                	.2byte	0x300
     d92:	316e                	.2byte	0x316e
     d94:	e800                	.2byte	0xe800
     d96:	00951603          	lh	a2,9(a0)
     d9a:	0000                	.2byte	0x0
     d9c:	00326e03          	.4byte	0x326e03
     da0:	03e8                	.2byte	0x3e8
     da2:	951a                	.2byte	0x951a
     da4:	0000                	.2byte	0x0
     da6:	0300                	.2byte	0x300
     da8:	3071                	.2byte	0x3071
     daa:	e900                	.2byte	0xe900
     dac:	00950a03          	lb	s4,9(a0)
     db0:	0000                	.2byte	0x0
     db2:	00317103          	.4byte	0x317103
     db6:	03e9                	.2byte	0x3e9
     db8:	950e                	.2byte	0x950e
     dba:	0000                	.2byte	0x0
     dbc:	0300                	.2byte	0x300
     dbe:	0062                	.2byte	0x62
     dc0:	03ea                	.2byte	0x3ea
     dc2:	950a                	.2byte	0x950a
     dc4:	0000                	.2byte	0x0
     dc6:	0300                	.2byte	0x300
     dc8:	6d62                	.2byte	0x6d62
     dca:	ea00                	.2byte	0xea00
     dcc:	00950d03          	lb	s10,9(a0)
     dd0:	0000                	.2byte	0x0
     dd2:	00777703          	.4byte	0x777703
     dd6:	311104b3          	.4byte	0x311104b3
     dda:	0001                	.2byte	0x1
     ddc:	0500                	.2byte	0x500
     dde:	0558                	.2byte	0x558
     de0:	0000                	.2byte	0x0
     de2:	2602                	.2byte	0x2602
     de4:	0000                	.2byte	0x0
     de6:	1a00                	.2byte	0x1a00
     de8:	0404                	.2byte	0x404
     dea:	0095                	.2byte	0x95
     dec:	0000                	.2byte	0x0
     dee:	615f5f03          	lhu	t5,1557(t5)
     df2:	1a00                	.2byte	0x1a00
     df4:	0404                	.2byte	0x404
     df6:	0095                	.2byte	0x95
     df8:	0000                	.2byte	0x0
     dfa:	0500                	.2byte	0x500
     dfc:	05b2                	.2byte	0x5b2
     dfe:	0000                	.2byte	0x0
     e00:	7d02                	.2byte	0x7d02
     e02:	0001                	.2byte	0x1
     e04:	2600                	.2byte	0x2600
     e06:	0404                	.2byte	0x404
     e08:	0095                	.2byte	0x95
     e0a:	0000                	.2byte	0x0
     e0c:	7802                	.2byte	0x7802
     e0e:	0001                	.2byte	0x1
     e10:	2600                	.2byte	0x2600
     e12:	0404                	.2byte	0x404
     e14:	0095                	.2byte	0x95
     e16:	0000                	.2byte	0x0
     e18:	9502                	.2byte	0x9502
     e1a:	0002                	.2byte	0x2
     e1c:	2600                	.2byte	0x2600
     e1e:	0404                	.2byte	0x404
     e20:	0095                	.2byte	0x95
     e22:	0000                	.2byte	0x0
     e24:	9002                	.2byte	0x9002
     e26:	0002                	.2byte	0x2
     e28:	2600                	.2byte	0x2600
     e2a:	0404                	.2byte	0x404
     e2c:	0095                	.2byte	0x95
     e2e:	0000                	.2byte	0x0
     e30:	ac02                	.2byte	0xac02
     e32:	0002                	.2byte	0x2
     e34:	2600                	.2byte	0x2600
     e36:	0404                	.2byte	0x404
     e38:	0095                	.2byte	0x95
     e3a:	0000                	.2byte	0x0
     e3c:	a702                	.2byte	0xa702
     e3e:	0002                	.2byte	0x2
     e40:	2600                	.2byte	0x2600
     e42:	0404                	.2byte	0x404
     e44:	0095                	.2byte	0x95
     e46:	0000                	.2byte	0x0
     e48:	6d5f5f03          	lhu	t5,1749(t5)
     e4c:	2600                	.2byte	0x2600
     e4e:	0404                	.2byte	0x404
     e50:	0095                	.2byte	0x95
     e52:	0000                	.2byte	0x0
     e54:	0500                	.2byte	0x500
     e56:	05d0                	.2byte	0x5d0
     e58:	0000                	.2byte	0x0
     e5a:	2602                	.2byte	0x2602
     e5c:	0000                	.2byte	0x0
     e5e:	3200                	.2byte	0x3200
     e60:	0404                	.2byte	0x404
     e62:	0095                	.2byte	0x95
     e64:	0000                	.2byte	0x0
     e66:	615f5f03          	lhu	t5,1557(t5)
     e6a:	3200                	.2byte	0x3200
     e6c:	0404                	.2byte	0x404
     e6e:	0095                	.2byte	0x95
     e70:	0000                	.2byte	0x0
     e72:	0500                	.2byte	0x500
     e74:	062a                	.2byte	0x62a
     e76:	0000                	.2byte	0x0
     e78:	7d02                	.2byte	0x7d02
     e7a:	0001                	.2byte	0x1
     e7c:	4b00                	.2byte	0x4b00
     e7e:	0804                	.2byte	0x804
     e80:	0095                	.2byte	0x95
     e82:	0000                	.2byte	0x0
     e84:	7802                	.2byte	0x7802
     e86:	0001                	.2byte	0x1
     e88:	4b00                	.2byte	0x4b00
     e8a:	0804                	.2byte	0x804
     e8c:	0095                	.2byte	0x95
     e8e:	0000                	.2byte	0x0
     e90:	9502                	.2byte	0x9502
     e92:	0002                	.2byte	0x2
     e94:	4b00                	.2byte	0x4b00
     e96:	0804                	.2byte	0x804
     e98:	0095                	.2byte	0x95
     e9a:	0000                	.2byte	0x0
     e9c:	9002                	.2byte	0x9002
     e9e:	0002                	.2byte	0x2
     ea0:	4b00                	.2byte	0x4b00
     ea2:	0804                	.2byte	0x804
     ea4:	0095                	.2byte	0x95
     ea6:	0000                	.2byte	0x0
     ea8:	ac02                	.2byte	0xac02
     eaa:	0002                	.2byte	0x2
     eac:	4b00                	.2byte	0x4b00
     eae:	0804                	.2byte	0x804
     eb0:	0095                	.2byte	0x95
     eb2:	0000                	.2byte	0x0
     eb4:	a702                	.2byte	0xa702
     eb6:	0002                	.2byte	0x2
     eb8:	4b00                	.2byte	0x4b00
     eba:	0804                	.2byte	0x804
     ebc:	0095                	.2byte	0x95
     ebe:	0000                	.2byte	0x0
     ec0:	6d5f5f03          	lhu	t5,1749(t5)
     ec4:	4b00                	.2byte	0x4b00
     ec6:	0804                	.2byte	0x804
     ec8:	0095                	.2byte	0x95
     eca:	0000                	.2byte	0x0
     ecc:	0500                	.2byte	0x500
     ece:	0684                	.2byte	0x684
     ed0:	0000                	.2byte	0x0
     ed2:	7d02                	.2byte	0x7d02
     ed4:	0001                	.2byte	0x1
     ed6:	5000                	.2byte	0x5000
     ed8:	0404                	.2byte	0x404
     eda:	0095                	.2byte	0x95
     edc:	0000                	.2byte	0x0
     ede:	7802                	.2byte	0x7802
     ee0:	0001                	.2byte	0x1
     ee2:	5000                	.2byte	0x5000
     ee4:	0404                	.2byte	0x404
     ee6:	0095                	.2byte	0x95
     ee8:	0000                	.2byte	0x0
     eea:	9502                	.2byte	0x9502
     eec:	0002                	.2byte	0x2
     eee:	5000                	.2byte	0x5000
     ef0:	0404                	.2byte	0x404
     ef2:	0095                	.2byte	0x95
     ef4:	0000                	.2byte	0x0
     ef6:	9002                	.2byte	0x9002
     ef8:	0002                	.2byte	0x2
     efa:	5000                	.2byte	0x5000
     efc:	0404                	.2byte	0x404
     efe:	0095                	.2byte	0x95
     f00:	0000                	.2byte	0x0
     f02:	ac02                	.2byte	0xac02
     f04:	0002                	.2byte	0x2
     f06:	5000                	.2byte	0x5000
     f08:	0404                	.2byte	0x404
     f0a:	0095                	.2byte	0x95
     f0c:	0000                	.2byte	0x0
     f0e:	a702                	.2byte	0xa702
     f10:	0002                	.2byte	0x2
     f12:	5000                	.2byte	0x5000
     f14:	0404                	.2byte	0x404
     f16:	0095                	.2byte	0x95
     f18:	0000                	.2byte	0x0
     f1a:	6d5f5f03          	lhu	t5,1749(t5)
     f1e:	5000                	.2byte	0x5000
     f20:	0404                	.2byte	0x404
     f22:	0095                	.2byte	0x95
     f24:	0000                	.2byte	0x0
     f26:	0500                	.2byte	0x500
     f28:	06a2                	.2byte	0x6a2
     f2a:	0000                	.2byte	0x0
     f2c:	2602                	.2byte	0x2602
     f2e:	0000                	.2byte	0x0
     f30:	7300                	.2byte	0x7300
     f32:	0404                	.2byte	0x404
     f34:	0095                	.2byte	0x95
     f36:	0000                	.2byte	0x0
     f38:	615f5f03          	lhu	t5,1557(t5)
     f3c:	7300                	.2byte	0x7300
     f3e:	0404                	.2byte	0x404
     f40:	0095                	.2byte	0x95
     f42:	0000                	.2byte	0x0
     f44:	0500                	.2byte	0x500
     f46:	06b4                	.2byte	0x6b4
     f48:	0000                	.2byte	0x0
     f4a:	785f5f03          	lhu	t5,1925(t5)
     f4e:	8100                	.2byte	0x8100
     f50:	0504                	.2byte	0x504
     f52:	0095                	.2byte	0x95
     f54:	0000                	.2byte	0x0
     f56:	1000                	.2byte	0x1000
     f58:	00316d03          	.4byte	0x316d03
     f5c:	0491                	.2byte	0x491
     f5e:	0000950f          	.4byte	0x950f
     f62:	0300                	.2byte	0x300
     f64:	306d                	.2byte	0x306d
     f66:	9100                	.2byte	0x9100
     f68:	1304                	.2byte	0x1304
     f6a:	0095                	.2byte	0x95
     f6c:	0000                	.2byte	0x0
     f6e:	2505                	.2byte	0x2505
     f70:	02000007          	.4byte	0x2000007
     f74:	017d                	.2byte	0x17d
     f76:	0000                	.2byte	0x0
     f78:	049c                	.2byte	0x49c
     f7a:	9508                	.2byte	0x9508
     f7c:	0000                	.2byte	0x0
     f7e:	0200                	.2byte	0x200
     f80:	0178                	.2byte	0x178
     f82:	0000                	.2byte	0x0
     f84:	049c                	.2byte	0x49c
     f86:	9508                	.2byte	0x9508
     f88:	0000                	.2byte	0x0
     f8a:	0200                	.2byte	0x200
     f8c:	0295                	.2byte	0x295
     f8e:	0000                	.2byte	0x0
     f90:	049c                	.2byte	0x49c
     f92:	9508                	.2byte	0x9508
     f94:	0000                	.2byte	0x0
     f96:	0200                	.2byte	0x200
     f98:	0290                	.2byte	0x290
     f9a:	0000                	.2byte	0x0
     f9c:	049c                	.2byte	0x49c
     f9e:	9508                	.2byte	0x9508
     fa0:	0000                	.2byte	0x0
     fa2:	0200                	.2byte	0x200
     fa4:	02ac                	.2byte	0x2ac
     fa6:	0000                	.2byte	0x0
     fa8:	049c                	.2byte	0x49c
     faa:	9508                	.2byte	0x9508
     fac:	0000                	.2byte	0x0
     fae:	0200                	.2byte	0x200
     fb0:	000002a7          	.4byte	0x2a7
     fb4:	049c                	.2byte	0x49c
     fb6:	9508                	.2byte	0x9508
     fb8:	0000                	.2byte	0x0
     fba:	0300                	.2byte	0x300
     fbc:	5f5f 006d 049c      	.byte	0x5f, 0x5f, 0x6d, 0x00, 0x9c, 0x04
     fc2:	9508                	.2byte	0x9508
     fc4:	0000                	.2byte	0x0
     fc6:	0000                	.2byte	0x0
     fc8:	8b05                	.2byte	0x8b05
     fca:	02000007          	.4byte	0x2000007
     fce:	0000026b          	.4byte	0x26b
     fd2:	049d                	.2byte	0x49d
     fd4:	9508                	.2byte	0x9508
     fd6:	0000                	.2byte	0x0
     fd8:	0200                	.2byte	0x200
     fda:	0270                	.2byte	0x270
     fdc:	0000                	.2byte	0x0
     fde:	049d                	.2byte	0x49d
     fe0:	9508                	.2byte	0x9508
     fe2:	0000                	.2byte	0x0
     fe4:	0200                	.2byte	0x200
     fe6:	0275                	.2byte	0x275
     fe8:	0000                	.2byte	0x0
     fea:	049d                	.2byte	0x49d
     fec:	9508                	.2byte	0x9508
     fee:	0000                	.2byte	0x0
     ff0:	0200                	.2byte	0x200
     ff2:	027a                	.2byte	0x27a
     ff4:	0000                	.2byte	0x0
     ff6:	049d                	.2byte	0x49d
     ff8:	9508                	.2byte	0x9508
     ffa:	0000                	.2byte	0x0
     ffc:	0200                	.2byte	0x200
     ffe:	02b6                	.2byte	0x2b6
    1000:	0000                	.2byte	0x0
    1002:	049d                	.2byte	0x49d
    1004:	9508                	.2byte	0x9508
    1006:	0000                	.2byte	0x0
    1008:	0200                	.2byte	0x200
    100a:	00000187          	.4byte	0x187
    100e:	049d                	.2byte	0x49d
    1010:	9508                	.2byte	0x9508
    1012:	0000                	.2byte	0x0
    1014:	0200                	.2byte	0x200
    1016:	02b1                	.2byte	0x2b1
    1018:	0000                	.2byte	0x0
    101a:	049d                	.2byte	0x49d
    101c:	9508                	.2byte	0x9508
    101e:	0000                	.2byte	0x0
    1020:	0200                	.2byte	0x200
    1022:	0182                	.2byte	0x182
    1024:	0000                	.2byte	0x0
    1026:	049d                	.2byte	0x49d
    1028:	9508                	.2byte	0x9508
    102a:	0000                	.2byte	0x0
    102c:	0000                	.2byte	0x0
    102e:	9d05                	.2byte	0x9d05
    1030:	03000007          	.4byte	0x3000007
    1034:	5f5f 0078 04a2      	.byte	0x5f, 0x5f, 0x78, 0x00, 0xa2, 0x04
    103a:	9505                	.2byte	0x9505
    103c:	0000                	.2byte	0x0
    103e:	0000                	.2byte	0x0
    1040:	0310                	.2byte	0x310
    1042:	5f5f 0078 04aa      	.byte	0x5f, 0x5f, 0x78, 0x00, 0xaa, 0x04
    1048:	9505                	.2byte	0x9505
    104a:	0000                	.2byte	0x0
    104c:	0000                	.2byte	0x0
    104e:	0000                	.2byte	0x0
    1050:	041f 00ab 0000      	.byte	0x1f, 0x04, 0xab, 0x00, 0x00, 0x00
    1056:	3b00                	.2byte	0x3b00
    1058:	0005                	.2byte	0x5
    105a:	0500                	.2byte	0x500
    105c:	0100                	.2byte	0x100
    105e:	1a04                	.2byte	0x1a04
    1060:	0004                	.2byte	0x4
    1062:	0d00                	.2byte	0xd00
    1064:	0000002b          	.4byte	0x2b
    1068:	a21d                	.2byte	0xa21d
    106a:	0000                	.2byte	0x0
    106c:	2100                	.2byte	0x2100
    106e:	0000                	.2byte	0x0
    1070:	1800                	.2byte	0x1800
    1072:	0039                	.2byte	0x39
    1074:	a480                	.2byte	0xa480
    1076:	000c                	.2byte	0xc
    1078:	6b00                	.2byte	0x6b00
    107a:	0500000f          	fence	ow,unknown
    107e:	0408                	.2byte	0x408
    1080:	0124                	.2byte	0x124
    1082:	0000                	.2byte	0x0
    1084:	040e                	.2byte	0x40e
    1086:	6905                	.2byte	0x6905
    1088:	746e                	.2byte	0x746e
    108a:	0500                	.2byte	0x500
    108c:	0601                	.2byte	0x601
    108e:	0101                	.2byte	0x101
    1090:	0000                	.2byte	0x0
    1092:	0805                	.2byte	0x805
    1094:	0005                	.2byte	0x5
    1096:	0000                	.2byte	0x0
    1098:	0500                	.2byte	0x500
    109a:	0801                	.2byte	0x801
    109c:	00ff 0000 0405 f207 	.byte	0xff, 0x00, 0x00, 0x00, 0x05, 0x04, 0x07, 0xf2, 0x00, 0x00
    10a4:	0000 
    10a6:	0500                	.2byte	0x500
    10a8:	0708                	.2byte	0x708
    10aa:	00e8                	.2byte	0xe8
    10ac:	0000                	.2byte	0x0
    10ae:	0205                	.2byte	0x205
    10b0:	00012b07          	flw	fs6,0(sp)
    10b4:	0f00                	.2byte	0xf00
    10b6:	02f2                	.2byte	0x2f2
    10b8:	0000                	.2byte	0x0
    10ba:	4802                	.2byte	0x4802
    10bc:	0000260f          	.4byte	0x260f
    10c0:	1000                	.2byte	0x1000
    10c2:	0208                	.2byte	0x208
    10c4:	00a6034f          	fnmadd.s	ft6,fa2,fa0,ft0,rne
    10c8:	0000                	.2byte	0x0
    10ca:	d30a                	.2byte	0xd30a
    10cc:	0002                	.2byte	0x2
    10ce:	5700                	.2byte	0x5700
    10d0:	0049                	.2byte	0x49
    10d2:	0000                	.2byte	0x0
    10d4:	0020                	.2byte	0x20
    10d6:	d90a                	.2byte	0xd90a
    10d8:	0002                	.2byte	0x2
    10da:	5800                	.2byte	0x5800
    10dc:	0049                	.2byte	0x49
    10de:	0000                	.2byte	0x0
    10e0:	2014                	.2byte	0x2014
    10e2:	6511                	.2byte	0x6511
    10e4:	7078                	.2byte	0x7078
    10e6:	0200                	.2byte	0x200
    10e8:	0e59                	.2byte	0xe59
    10ea:	0049                	.2byte	0x49
    10ec:	0000                	.2byte	0x0
    10ee:	310a340b          	.4byte	0x310a340b
    10f2:	5a000003          	lb	zero,1440(zero) # 5a0 <__tcb_aligned_size+0x560>
    10f6:	0049                	.2byte	0x49
    10f8:	0000                	.2byte	0x0
    10fa:	3f01                	.2byte	0x3f01
    10fc:	1200                	.2byte	0x1200
    10fe:	03e5                	.2byte	0x3e5
    1100:	0000                	.2byte	0x0
    1102:	0208                	.2byte	0x208
    1104:	074c                	.2byte	0x74c
    1106:	00cc                	.2byte	0xcc
    1108:	0000                	.2byte	0x0
    110a:	746c6613          	or	a2,s8,1862
    110e:	0200                	.2byte	0x200
    1110:	0a4e                	.2byte	0xa4e
    1112:	005e                	.2byte	0x5e
    1114:	0000                	.2byte	0x0
    1116:	1e14                	.2byte	0x1e14
    1118:	0004                	.2byte	0x4
    111a:	0200                	.2byte	0x200
    111c:	055c                	.2byte	0x55c
    111e:	006a                	.2byte	0x6a
    1120:	0000                	.2byte	0x0
    1122:	1500                	.2byte	0x1500
    1124:	02ca                	.2byte	0x2ca
    1126:	0000                	.2byte	0x0
    1128:	2301                	.2byte	0x2301
    112a:	5e01                	.2byte	0x5e01
    112c:	0000                	.2byte	0x0
    112e:	1800                	.2byte	0x1800
    1130:	0039                	.2byte	0x39
    1132:	a480                	.2byte	0xa480
    1134:	000c                	.2byte	0xc
    1136:	0100                	.2byte	0x100
    1138:	279c                	.2byte	0x279c
    113a:	0005                	.2byte	0x5
    113c:	0b00                	.2byte	0xb00
    113e:	0061                	.2byte	0x61
    1140:	5e12                	.2byte	0x5e12
    1142:	0000                	.2byte	0x0
    1144:	d700                	.2byte	0xd700
    1146:	0012                	.2byte	0x12
    1148:	0b00                	.2byte	0xb00
    114a:	0062                	.2byte	0x62
    114c:	5e1c                	.2byte	0x5e1c
    114e:	0000                	.2byte	0x0
    1150:	f800                	.2byte	0xf800
    1152:	0012                	.2byte	0x12
    1154:	0200                	.2byte	0x200
    1156:	0340                	.2byte	0x340
    1158:	0000                	.2byte	0x0
    115a:	2d25                	.2byte	0x2d25
    115c:	0000                	.2byte	0x0
    115e:	1900                	.2byte	0x1900
    1160:	02000013          	li	zero,32
    1164:	00000423          	sb	zero,8(zero) # 8 <__tbss_size+0x4>
    1168:	2d25                	.2byte	0x2d25
    116a:	0000                	.2byte	0x0
    116c:	ca00                	.2byte	0xca00
    116e:	0014                	.2byte	0x14
    1170:	0700                	.2byte	0x700
    1172:	5f41                	.2byte	0x5f41
    1174:	03260063          	beq	a2,s2,1194 <__tcb_aligned_size+0x1154>
    1178:	00000527          	.4byte	0x527
    117c:	4101                	.2byte	0x4101
    117e:	735f 2600 0527      	.byte	0x5f, 0x73, 0x00, 0x26, 0x27, 0x05
    1184:	0000                	.2byte	0x0
    1186:	14e1                	.2byte	0x14e1
    1188:	0000                	.2byte	0x0
    118a:	4101                	.2byte	0x4101
    118c:	655f 2600 0527      	.byte	0x5f, 0x65, 0x00, 0x26, 0x27, 0x05
    1192:	0000                	.2byte	0x0
    1194:	15df 0000 6402      	.byte	0xdf, 0x15, 0x00, 0x00, 0x02, 0x64
    119a:	26000003          	lb	zero,608(zero) # 260 <__tcb_aligned_size+0x220>
    119e:	052e                	.2byte	0x52e
    11a0:	0000                	.2byte	0x0
    11a2:	1709                	.2byte	0x1709
    11a4:	0000                	.2byte	0x0
    11a6:	3602                	.2byte	0x3602
    11a8:	26000003          	lb	zero,608(zero) # 260 <__tcb_aligned_size+0x220>
    11ac:	052e                	.2byte	0x52e
    11ae:	0000                	.2byte	0x0
    11b0:	1880                	.2byte	0x1880
    11b2:	0000                	.2byte	0x0
    11b4:	635f4207          	.4byte	0x635f4207
    11b8:	2700                	.2byte	0x2700
    11ba:	00052703          	lw	a4,0(a0)
    11be:	0100                	.2byte	0x100
    11c0:	5f42                	.2byte	0x5f42
    11c2:	27270073          	.4byte	0x27270073
    11c6:	0005                	.2byte	0x5
    11c8:	6a00                	.2byte	0x6a00
    11ca:	001a                	.2byte	0x1a
    11cc:	0100                	.2byte	0x100
    11ce:	5f42                	.2byte	0x5f42
    11d0:	0065                	.2byte	0x65
    11d2:	00052727          	fsw	ft0,14(a0)
    11d6:	0500                	.2byte	0x500
    11d8:	0200001b          	.4byte	0x200001b
    11dc:	0369                	.2byte	0x369
    11de:	0000                	.2byte	0x0
    11e0:	00052e27          	fsw	ft0,28(a0)
    11e4:	2f00                	.2byte	0x2f00
    11e6:	001c                	.2byte	0x1c
    11e8:	0200                	.2byte	0x200
    11ea:	036e                	.2byte	0x36e
    11ec:	0000                	.2byte	0x0
    11ee:	00052e27          	fsw	ft0,28(a0)
    11f2:	9b00                	.2byte	0x9b00
    11f4:	001d                	.2byte	0x1d
    11f6:	0700                	.2byte	0x700
    11f8:	5f52                	.2byte	0x5f52
    11fa:	03280063          	beq	a6,s2,121a <__tcb_aligned_size+0x11da>
    11fe:	00000527          	.4byte	0x527
    1202:	5201                	.2byte	0x5201
    1204:	735f 2800 0527      	.byte	0x5f, 0x73, 0x00, 0x28, 0x27, 0x05
    120a:	0000                	.2byte	0x0
    120c:	1f62                	.2byte	0x1f62
    120e:	0000                	.2byte	0x0
    1210:	5201                	.2byte	0x5201
    1212:	655f 2800 0527      	.byte	0x5f, 0x65, 0x00, 0x28, 0x27, 0x05
    1218:	0000                	.2byte	0x0
    121a:	2081                	.2byte	0x2081
    121c:	0000                	.2byte	0x0
    121e:	0202                	.2byte	0x202
    1220:	28000003          	lb	zero,640(zero) # 280 <__tcb_aligned_size+0x240>
    1224:	052e                	.2byte	0x52e
    1226:	0000                	.2byte	0x0
    1228:	00002277          	.4byte	0x2277
    122c:	2802                	.2byte	0x2802
    122e:	0004                	.2byte	0x4
    1230:	2800                	.2byte	0x2800
    1232:	052e                	.2byte	0x52e
    1234:	0000                	.2byte	0x0
    1236:	24df 0000 7207      	.byte	0xdf, 0x24, 0x00, 0x00, 0x07, 0x72
    123c:	2900                	.2byte	0x2900
    123e:	5e0a                	.2byte	0x5e0a
    1240:	0000                	.2byte	0x0
    1242:	0300                	.2byte	0x300
    1244:	01f1                	.2byte	0x1f1
    1246:	0000                	.2byte	0x0
    1248:	0200                	.2byte	0x200
    124a:	0000                	.2byte	0x0
    124c:	0708                	.2byte	0x708
    124e:	2c000003          	lb	zero,704(zero) # 2c0 <__tcb_aligned_size+0x280>
    1252:	00a6                	.2byte	0xa6
    1254:	0000                	.2byte	0x0
    1256:	0300                	.2byte	0x300
    1258:	0216                	.2byte	0x216
    125a:	0000                	.2byte	0x0
    125c:	0214                	.2byte	0x214
    125e:	0000                	.2byte	0x0
    1260:	0708                	.2byte	0x708
    1262:	2d000003          	lb	zero,720(zero) # 2d0 <__tcb_aligned_size+0x290>
    1266:	00a6                	.2byte	0xa6
    1268:	0000                	.2byte	0x0
    126a:	0300                	.2byte	0x300
    126c:	0244                	.2byte	0x244
    126e:	0000                	.2byte	0x0
    1270:	02e1                	.2byte	0x2e1
    1272:	0000                	.2byte	0x0
    1274:	0f06                	.2byte	0xf06
    1276:	0004                	.2byte	0x4
    1278:	e400                	.2byte	0xe400
    127a:	003a                	.2byte	0x3a
    127c:	0680                	.2byte	0x680
    127e:	0414                	.2byte	0x414
    1280:	0000                	.2byte	0x0
    1282:	3b7c                	.2byte	0x3b7c
    1284:	8000                	.2byte	0x8000
    1286:	1906                	.2byte	0x1906
    1288:	0004                	.2byte	0x4
    128a:	b400                	.2byte	0xb400
    128c:	003a                	.2byte	0x3a
    128e:	0680                	.2byte	0x680
    1290:	02f9                	.2byte	0x2f9
    1292:	0000                	.2byte	0x0
    1294:	4314                	.2byte	0x4314
    1296:	8000                	.2byte	0x8000
    1298:	ce02                	.2byte	0xce02
    129a:	2e000003          	lb	zero,736(zero) # 2e0 <__tcb_aligned_size+0x2a0>
    129e:	002d                	.2byte	0x2d
    12a0:	0000                	.2byte	0x0
    12a2:	2788                	.2byte	0x2788
    12a4:	0000                	.2byte	0x0
    12a6:	6016                	.2byte	0x6016
    12a8:	0002                	.2byte	0x2
    12aa:	0700                	.2byte	0x700
    12ac:	5f5f 0078 032e      	.byte	0x5f, 0x5f, 0x78, 0x00, 0x2e, 0x03
    12b2:	052e                	.2byte	0x52e
    12b4:	0000                	.2byte	0x0
    12b6:	0400                	.2byte	0x400
    12b8:	3aa0                	.2byte	0x3aa0
    12ba:	8000                	.2byte	0x8000
    12bc:	0010                	.2byte	0x10
    12be:	0000                	.2byte	0x0
    12c0:	027c                	.2byte	0x27c
    12c2:	0000                	.2byte	0x0
    12c4:	5f01                	.2byte	0x5f01
    12c6:	785f 2e00 052e      	.byte	0x5f, 0x78, 0x00, 0x2e, 0x2e, 0x05
    12cc:	0000                	.2byte	0x0
    12ce:	00002927          	fsw	ft0,18(zero) # 12 <__tbss_size+0xe>
    12d2:	0400                	.2byte	0x400
    12d4:	39c0                	.2byte	0x39c0
    12d6:	8000                	.2byte	0x8000
    12d8:	0010                	.2byte	0x10
    12da:	0000                	.2byte	0x0
    12dc:	0298                	.2byte	0x298
    12de:	0000                	.2byte	0x0
    12e0:	5f01                	.2byte	0x5f01
    12e2:	785f 2e00 052e      	.byte	0x5f, 0x78, 0x00, 0x2e, 0x2e, 0x05
    12e8:	0000                	.2byte	0x0
    12ea:	00002943          	fmadd.s	fs2,ft0,ft0,ft0,rdn
    12ee:	0400                	.2byte	0x400
    12f0:	3be8                	.2byte	0x3be8
    12f2:	8000                	.2byte	0x8000
    12f4:	0010                	.2byte	0x10
    12f6:	0000                	.2byte	0x0
    12f8:	02b4                	.2byte	0x2b4
    12fa:	0000                	.2byte	0x0
    12fc:	5f01                	.2byte	0x5f01
    12fe:	785f 2e00 052e      	.byte	0x5f, 0x78, 0x00, 0x2e, 0x2e, 0x05
    1304:	0000                	.2byte	0x0
    1306:	296a                	.2byte	0x296a
    1308:	0000                	.2byte	0x0
    130a:	0300                	.2byte	0x300
    130c:	02f9                	.2byte	0x2f9
    130e:	0000                	.2byte	0x0
    1310:	02cc                	.2byte	0x2cc
    1312:	0000                	.2byte	0x0
    1314:	5f01                	.2byte	0x5f01
    1316:	785f 2e00 052e      	.byte	0x5f, 0x78, 0x00, 0x2e, 0x2e, 0x05
    131c:	0000                	.2byte	0x0
    131e:	2986                	.2byte	0x2986
    1320:	0000                	.2byte	0x0
    1322:	0900                	.2byte	0x900
    1324:	030c                	.2byte	0x30c
    1326:	0000                	.2byte	0x0
    1328:	5f01                	.2byte	0x5f01
    132a:	785f 2e00 052e      	.byte	0x5f, 0x78, 0x00, 0x2e, 0x2e, 0x05
    1330:	0000                	.2byte	0x0
    1332:	2992                	.2byte	0x2992
    1334:	0000                	.2byte	0x0
    1336:	0000                	.2byte	0x0
    1338:	00031f03          	lh	t5,0(t1)
    133c:	2400                	.2byte	0x2400
    133e:	0004                	.2byte	0x4
    1340:	0600                	.2byte	0x600
    1342:	0000033b          	.4byte	0x33b
    1346:	3e78                	.2byte	0x3e78
    1348:	8000                	.2byte	0x8000
    134a:	c506                	.2byte	0xc506
    134c:	0002                	.2byte	0x2
    134e:	ac00                	.2byte	0xac00
    1350:	0680003f 00000345 	.8byte	0x3450680003f
    1358:	3eec                	.2byte	0x3eec
    135a:	8000                	.2byte	0x8000
    135c:	5f06                	.2byte	0x5f06
    135e:	e8000003          	lb	zero,-384(zero) # fffffe80 <__BSS_END__+0x7fff66c0>
    1362:	0041                	.2byte	0x41
    1364:	0680                	.2byte	0x680
    1366:	0406                	.2byte	0x406
    1368:	0000                	.2byte	0x0
    136a:	4314                	.2byte	0x4314
    136c:	8000                	.2byte	0x8000
    136e:	ce02                	.2byte	0xce02
    1370:	2e000003          	lb	zero,736(zero) # 2e0 <__tcb_aligned_size+0x2a0>
    1374:	002d                	.2byte	0x2d
    1376:	0000                	.2byte	0x0
    1378:	29de                	.2byte	0x29de
    137a:	0000                	.2byte	0x0
    137c:	5804                	.2byte	0x5804
    137e:	003e                	.2byte	0x3e
    1380:	1080                	.2byte	0x1080
    1382:	0000                	.2byte	0x0
    1384:	4100                	.2byte	0x4100
    1386:	01000003          	lb	zero,16(zero) # 10 <__tbss_size+0xc>
    138a:	5f5f 0078 2e2e      	.byte	0x5f, 0x5f, 0x78, 0x00, 0x2e, 0x2e
    1390:	0005                	.2byte	0x5
    1392:	8700                	.2byte	0x8700
    1394:	0000002b          	.4byte	0x2b
    1398:	d404                	.2byte	0xd404
    139a:	003e                	.2byte	0x3e
    139c:	1480                	.2byte	0x1480
    139e:	0000                	.2byte	0x0
    13a0:	5d00                	.2byte	0x5d00
    13a2:	01000003          	lb	zero,16(zero) # 10 <__tbss_size+0xc>
    13a6:	5f5f 0078 2e2e      	.byte	0x5f, 0x5f, 0x78, 0x00, 0x2e, 0x2e
    13ac:	0005                	.2byte	0x5
    13ae:	a300                	.2byte	0xa300
    13b0:	0000002b          	.4byte	0x2b
    13b4:	8804                	.2byte	0x8804
    13b6:	1480003f 79000000 	.8byte	0x790000001480003f
    13be:	01000003          	lb	zero,16(zero) # 10 <__tbss_size+0xc>
    13c2:	5f5f 0078 2e2e      	.byte	0x5f, 0x5f, 0x78, 0x00, 0x2e, 0x2e
    13c8:	0005                	.2byte	0x5
    13ca:	af00                	.2byte	0xaf00
    13cc:	0000002b          	.4byte	0x2b
    13d0:	2404                	.2byte	0x2404
    13d2:	0040                	.2byte	0x40
    13d4:	1480                	.2byte	0x1480
    13d6:	0000                	.2byte	0x0
    13d8:	9500                	.2byte	0x9500
    13da:	01000003          	lb	zero,16(zero) # 10 <__tbss_size+0xc>
    13de:	5f5f 0078 2e2e      	.byte	0x5f, 0x5f, 0x78, 0x00, 0x2e, 0x2e
    13e4:	0005                	.2byte	0x5
    13e6:	bb00                	.2byte	0xbb00
    13e8:	0000002b          	.4byte	0x2b
    13ec:	00042f03          	lw	t5,0(s0)
    13f0:	ad00                	.2byte	0xad00
    13f2:	01000003          	lb	zero,16(zero) # 10 <__tbss_size+0xc>
    13f6:	5f5f 0078 2e2e      	.byte	0x5f, 0x5f, 0x78, 0x00, 0x2e, 0x2e
    13fc:	0005                	.2byte	0x5
    13fe:	c700                	.2byte	0xc700
    1400:	0000002b          	.4byte	0x2b
    1404:	d004                	.2byte	0xd004
    1406:	0040                	.2byte	0x40
    1408:	1080                	.2byte	0x1080
    140a:	0000                	.2byte	0x0
    140c:	c900                	.2byte	0xc900
    140e:	01000003          	lb	zero,16(zero) # 10 <__tbss_size+0xc>
    1412:	5f5f 0078 2e2e      	.byte	0x5f, 0x5f, 0x78, 0x00, 0x2e, 0x2e
    1418:	0005                	.2byte	0x5
    141a:	de00                	.2byte	0xde00
    141c:	0000002b          	.4byte	0x2b
    1420:	00044203          	lbu	tp,0(s0)
    1424:	e100                	.2byte	0xe100
    1426:	01000003          	lb	zero,16(zero) # 10 <__tbss_size+0xc>
    142a:	5f5f 0078 2e2e      	.byte	0x5f, 0x5f, 0x78, 0x00, 0x2e, 0x2e
    1430:	0005                	.2byte	0x5
    1432:	fa00                	.2byte	0xfa00
    1434:	0000002b          	.4byte	0x2b
    1438:	d404                	.2byte	0xd404
    143a:	0041                	.2byte	0x41
    143c:	1080                	.2byte	0x1080
    143e:	0000                	.2byte	0x0
    1440:	fd00                	.2byte	0xfd00
    1442:	01000003          	lb	zero,16(zero) # 10 <__tbss_size+0xc>
    1446:	5f5f 0078 2e2e      	.byte	0x5f, 0x5f, 0x78, 0x00, 0x2e, 0x2e
    144c:	0005                	.2byte	0x5
    144e:	1c00                	.2byte	0x1c00
    1450:	002c                	.2byte	0x2c
    1452:	0000                	.2byte	0x0
    1454:	0109                	.2byte	0x109
    1456:	0004                	.2byte	0x4
    1458:	0200                	.2byte	0x200
    145a:	00000373          	.4byte	0x373
    145e:	2d2e                	.2byte	0x2d2e
    1460:	0000                	.2byte	0x0
    1462:	3800                	.2byte	0x3800
    1464:	002c                	.2byte	0x2c
    1466:	0c00                	.2byte	0xc00
    1468:	41f4                	.2byte	0x41f4
    146a:	8000                	.2byte	0x8000
    146c:	0535                	.2byte	0x535
    146e:	0000                	.2byte	0x0
    1470:	b00c                	.2byte	0xb00c
    1472:	0042                	.2byte	0x42
    1474:	3580                	.2byte	0x3580
    1476:	0005                	.2byte	0x5
    1478:	0000                	.2byte	0x0
    147a:	0300                	.2byte	0x300
    147c:	0455                	.2byte	0x455
    147e:	0000                	.2byte	0x0
    1480:	0512                	.2byte	0x512
    1482:	0000                	.2byte	0x0
    1484:	8902                	.2byte	0x8902
    1486:	2f000003          	lb	zero,752(zero) # 2f0 <__tcb_aligned_size+0x2b0>
    148a:	002d                	.2byte	0x2d
    148c:	0000                	.2byte	0x0
    148e:	2c95                	.2byte	0x2c95
    1490:	0000                	.2byte	0x0
    1492:	0004e803          	.4byte	0x4e803
    1496:	cc00                	.2byte	0xcc00
    1498:	0004                	.2byte	0x4
    149a:	0800                	.2byte	0x800
    149c:	03f1                	.2byte	0x3f1
    149e:	0000                	.2byte	0x0
    14a0:	0005272f          	.4byte	0x5272f
    14a4:	0200                	.2byte	0x200
    14a6:	031c                	.2byte	0x31c
    14a8:	0000                	.2byte	0x0
    14aa:	0005272f          	.4byte	0x5272f
    14ae:	ea00                	.2byte	0xea00
    14b0:	002c                	.2byte	0x2c
    14b2:	0200                	.2byte	0x200
    14b4:	034a                	.2byte	0x34a
    14b6:	0000                	.2byte	0x0
    14b8:	0005272f          	.4byte	0x5272f
    14bc:	1700                	.2byte	0x1700
    14be:	002d                	.2byte	0x2d
    14c0:	0200                	.2byte	0x200
    14c2:	03a2                	.2byte	0x3a2
    14c4:	0000                	.2byte	0x0
    14c6:	00052e2f          	.4byte	0x52e2f
    14ca:	4800                	.2byte	0x4800
    14cc:	002d                	.2byte	0x2d
    14ce:	0200                	.2byte	0x200
    14d0:	03b8                	.2byte	0x3b8
    14d2:	0000                	.2byte	0x0
    14d4:	00052e2f          	.4byte	0x52e2f
    14d8:	1000                	.2byte	0x1000
    14da:	002e                	.2byte	0x2e
    14dc:	0400                	.2byte	0x400
    14de:	4280                	.2byte	0x4280
    14e0:	8000                	.2byte	0x8000
    14e2:	0004                	.2byte	0x4
    14e4:	0000                	.2byte	0x0
    14e6:	049f 0000 5f07      	.byte	0x9f, 0x04, 0x00, 0x00, 0x07, 0x5f
    14ec:	785f 2f00 2e03      	.byte	0x5f, 0x78, 0x00, 0x2f, 0x03, 0x2e
    14f2:	0005                	.2byte	0x5
    14f4:	0000                	.2byte	0x0
    14f6:	00054303          	lbu	t1,0(a0)
    14fa:	b700                	.2byte	0xb700
    14fc:	0004                	.2byte	0x4
    14fe:	0100                	.2byte	0x100
    1500:	5f5f 0078 2e2f      	.byte	0x5f, 0x5f, 0x78, 0x00, 0x2f, 0x2e
    1506:	0005                	.2byte	0x5
    1508:	4a00                	.2byte	0x4a00
    150a:	0000002f          	.4byte	0x2f
    150e:	5609                	.2byte	0x5609
    1510:	0005                	.2byte	0x5
    1512:	0100                	.2byte	0x100
    1514:	5f5f 0078 2e2f      	.byte	0x5f, 0x5f, 0x78, 0x00, 0x2f, 0x2e
    151a:	0005                	.2byte	0x5
    151c:	5800                	.2byte	0x5800
    151e:	0000002f          	.4byte	0x2f
    1522:	0400                	.2byte	0x400
    1524:	3dc0                	.2byte	0x3dc0
    1526:	8000                	.2byte	0x8000
    1528:	0008                	.2byte	0x8
    152a:	0000                	.2byte	0x0
    152c:	04e8                	.2byte	0x4e8
    152e:	0000                	.2byte	0x0
    1530:	785f5f17          	auipc	t5,0x785f5
    1534:	0100                	.2byte	0x100
    1536:	052e032f          	.4byte	0x52e032f
    153a:	0000                	.2byte	0x0
    153c:	5a01                	.2byte	0x5a01
    153e:	0300                	.2byte	0x300
    1540:	04d5                	.2byte	0x4d5
    1542:	0000                	.2byte	0x0
    1544:	04fd                	.2byte	0x4fd
    1546:	0000                	.2byte	0x0
    1548:	785f5f07          	.4byte	0x785f5f07
    154c:	2f00                	.2byte	0x2f00
    154e:	00052e03          	lw	t3,0(a0)
    1552:	0000                	.2byte	0x0
    1554:	c209                	.2byte	0xc209
    1556:	0004                	.2byte	0x4
    1558:	0100                	.2byte	0x100
    155a:	5f5f 0078 2e2f      	.byte	0x5f, 0x5f, 0x78, 0x00, 0x2f, 0x2e
    1560:	0005                	.2byte	0x5
    1562:	7700                	.2byte	0x7700
    1564:	0000002f          	.4byte	0x2f
    1568:	1800                	.2byte	0x1800
    156a:	443c                	.2byte	0x443c
    156c:	8000                	.2byte	0x8000
    156e:	0028                	.2byte	0x28
    1570:	0000                	.2byte	0x0
    1572:	df08                	.2byte	0xdf08
    1574:	0002                	.2byte	0x2
    1576:	2f00                	.2byte	0x2f00
    1578:	00a6                	.2byte	0xa6
    157a:	0000                	.2byte	0x0
    157c:	0000                	.2byte	0x0
    157e:	0405                	.2byte	0x405
    1580:	0505                	.2byte	0x505
    1582:	0000                	.2byte	0x0
    1584:	0500                	.2byte	0x500
    1586:	0704                	.2byte	0x704
    1588:	00ed                	.2byte	0xed
    158a:	0000                	.2byte	0x0
    158c:	0e19                	.2byte	0xe19
    158e:	0000                	.2byte	0x0
    1590:	0e00                	.2byte	0xe00
    1592:	0000                	.2byte	0x0
    1594:	0000                	.2byte	0x0
    1596:	06ca                	.2byte	0x6ca
    1598:	0000                	.2byte	0x0
    159a:	0005                	.2byte	0x5
    159c:	0401                	.2byte	0x401
    159e:	0594                	.2byte	0x594
    15a0:	0000                	.2byte	0x0
    15a2:	2b0e                	.2byte	0x2b0e
    15a4:	0000                	.2byte	0x0
    15a6:	1d00                	.2byte	0x1d00
    15a8:	00f2                	.2byte	0xf2
    15aa:	0000                	.2byte	0x0
    15ac:	0021                	.2byte	0x21
    15ae:	0000                	.2byte	0x0
    15b0:	45bc                	.2byte	0x45bc
    15b2:	8000                	.2byte	0x8000
    15b4:	0898                	.2byte	0x898
    15b6:	0000                	.2byte	0x0
    15b8:	261a                	.2byte	0x261a
    15ba:	0000                	.2byte	0x0
    15bc:	0806                	.2byte	0x806
    15be:	2404                	.2byte	0x2404
    15c0:	0001                	.2byte	0x1
    15c2:	0f00                	.2byte	0xf00
    15c4:	0504                	.2byte	0x504
    15c6:	6e69                	.2byte	0x6e69
    15c8:	0074                	.2byte	0x74
    15ca:	0106                	.2byte	0x106
    15cc:	0106                	.2byte	0x106
    15ce:	0001                	.2byte	0x1
    15d0:	0600                	.2byte	0x600
    15d2:	0508                	.2byte	0x508
    15d4:	0000                	.2byte	0x0
    15d6:	0000                	.2byte	0x0
    15d8:	0106                	.2byte	0x106
    15da:	ff08                	.2byte	0xff08
    15dc:	0000                	.2byte	0x0
    15de:	0600                	.2byte	0x600
    15e0:	0704                	.2byte	0x704
    15e2:	00f2                	.2byte	0xf2
    15e4:	0000                	.2byte	0x0
    15e6:	0806                	.2byte	0x806
    15e8:	0000e807          	.4byte	0xe807
    15ec:	1000                	.2byte	0x1000
    15ee:	047f 0000 4e02 1601 	.byte	0x7f, 0x04, 0x00, 0x00, 0x02, 0x4e, 0x01, 0x16, 0x64, 0x00
    15f6:	0064 
    15f8:	0000                	.2byte	0x0
    15fa:	0206                	.2byte	0x206
    15fc:	00012b07          	flw	fs6,0(sp)
    1600:	1100                	.2byte	0x1100
    1602:	02f2                	.2byte	0x2f2
    1604:	0000                	.2byte	0x0
    1606:	260f4803          	lbu	a6,608(t5) # 785f6790 <__tcb_aligned_size+0x785f6750>
    160a:	0000                	.2byte	0x0
    160c:	1200                	.2byte	0x1200
    160e:	0308                	.2byte	0x308
    1610:	00b3034f          	fnmadd.s	ft6,ft6,fa1,ft0,rne
    1614:	0000                	.2byte	0x0
    1616:	d30a                	.2byte	0xd30a
    1618:	0002                	.2byte	0x2
    161a:	5700                	.2byte	0x5700
    161c:	0049                	.2byte	0x49
    161e:	0000                	.2byte	0x0
    1620:	0020                	.2byte	0x20
    1622:	d90a                	.2byte	0xd90a
    1624:	0002                	.2byte	0x2
    1626:	5800                	.2byte	0x5800
    1628:	0049                	.2byte	0x49
    162a:	0000                	.2byte	0x0
    162c:	2014                	.2byte	0x2014
    162e:	70786513          	or	a0,a6,1799
    1632:	0300                	.2byte	0x300
    1634:	0e59                	.2byte	0xe59
    1636:	0049                	.2byte	0x49
    1638:	0000                	.2byte	0x0
    163a:	310a340b          	.4byte	0x310a340b
    163e:	5a000003          	lb	zero,1440(zero) # 5a0 <__tcb_aligned_size+0x560>
    1642:	0049                	.2byte	0x49
    1644:	0000                	.2byte	0x0
    1646:	3f01                	.2byte	0x3f01
    1648:	1400                	.2byte	0x1400
    164a:	03e5                	.2byte	0x3e5
    164c:	0000                	.2byte	0x0
    164e:	0308                	.2byte	0x308
    1650:	074c                	.2byte	0x74c
    1652:	00d9                	.2byte	0xd9
    1654:	0000                	.2byte	0x0
    1656:	6615                	.2byte	0x6615
    1658:	746c                	.2byte	0x746c
    165a:	0300                	.2byte	0x300
    165c:	0a4e                	.2byte	0xa4e
    165e:	0000006b          	.4byte	0x6b
    1662:	1e16                	.2byte	0x1e16
    1664:	0004                	.2byte	0x4
    1666:	0300                	.2byte	0x300
    1668:	055c                	.2byte	0x55c
    166a:	00000077          	.4byte	0x77
    166e:	1700                	.2byte	0x1700
    1670:	0476                	.2byte	0x476
    1672:	0000                	.2byte	0x0
    1674:	2301                	.2byte	0x2301
    1676:	6b01                	.2byte	0x6b01
    1678:	0000                	.2byte	0x0
    167a:	bc00                	.2byte	0xbc00
    167c:	0045                	.2byte	0x45
    167e:	9880                	.2byte	0x9880
    1680:	0008                	.2byte	0x8
    1682:	0100                	.2byte	0x100
    1684:	b69c                	.2byte	0xb69c
    1686:	0006                	.2byte	0x6
    1688:	0c00                	.2byte	0xc00
    168a:	0061                	.2byte	0x61
    168c:	6b12                	.2byte	0x6b12
    168e:	0000                	.2byte	0x0
    1690:	8f00                	.2byte	0x8f00
    1692:	0c00002f          	.4byte	0xc00002f
    1696:	0062                	.2byte	0x62
    1698:	6b1c                	.2byte	0x6b1c
    169a:	0000                	.2byte	0x0
    169c:	3000                	.2byte	0x3000
    169e:	0030                	.2byte	0x30
    16a0:	0100                	.2byte	0x100
    16a2:	0340                	.2byte	0x340
    16a4:	0000                	.2byte	0x0
    16a6:	2d25                	.2byte	0x2d25
    16a8:	0000                	.2byte	0x0
    16aa:	d100                	.2byte	0xd100
    16ac:	0030                	.2byte	0x30
    16ae:	0100                	.2byte	0x100
    16b0:	00000423          	sb	zero,8(zero) # 8 <__tbss_size+0x4>
    16b4:	2d25                	.2byte	0x2d25
    16b6:	0000                	.2byte	0x0
    16b8:	5c00                	.2byte	0x5c00
    16ba:	0031                	.2byte	0x31
    16bc:	0200                	.2byte	0x200
    16be:	5f41                	.2byte	0x5f41
    16c0:	b6260063          	beq	a2,sp,a20 <__tcb_aligned_size+0x9e0>
    16c4:	0006                	.2byte	0x6
    16c6:	7300                	.2byte	0x7300
    16c8:	0031                	.2byte	0x31
    16ca:	0200                	.2byte	0x200
    16cc:	5f41                	.2byte	0x5f41
    16ce:	b6260073          	.4byte	0xb6260073
    16d2:	0006                	.2byte	0x6
    16d4:	da00                	.2byte	0xda00
    16d6:	0031                	.2byte	0x31
    16d8:	0200                	.2byte	0x200
    16da:	5f41                	.2byte	0x5f41
    16dc:	0065                	.2byte	0x65
    16de:	b626                	.2byte	0xb626
    16e0:	0006                	.2byte	0x6
    16e2:	fb00                	.2byte	0xfb00
    16e4:	0031                	.2byte	0x31
    16e6:	0100                	.2byte	0x100
    16e8:	0364                	.2byte	0x364
    16ea:	0000                	.2byte	0x0
    16ec:	bd26                	.2byte	0xbd26
    16ee:	0006                	.2byte	0x6
    16f0:	8800                	.2byte	0x8800
    16f2:	0032                	.2byte	0x32
    16f4:	0100                	.2byte	0x100
    16f6:	0336                	.2byte	0x336
    16f8:	0000                	.2byte	0x0
    16fa:	bd26                	.2byte	0xbd26
    16fc:	0006                	.2byte	0x6
    16fe:	2400                	.2byte	0x2400
    1700:	02000033          	mul	zero,zero,zero
    1704:	5f42                	.2byte	0x5f42
    1706:	b6270063          	beq	a4,sp,a66 <__tcb_aligned_size+0xa26>
    170a:	0006                	.2byte	0x6
    170c:	da00                	.2byte	0xda00
    170e:	02000033          	mul	zero,zero,zero
    1712:	5f42                	.2byte	0x5f42
    1714:	b6270073          	.4byte	0xb6270073
    1718:	0006                	.2byte	0x6
    171a:	3600                	.2byte	0x3600
    171c:	0034                	.2byte	0x34
    171e:	0200                	.2byte	0x200
    1720:	5f42                	.2byte	0x5f42
    1722:	0065                	.2byte	0x65
    1724:	0006b627          	.4byte	0x6b627
    1728:	6700                	.2byte	0x6700
    172a:	0034                	.2byte	0x34
    172c:	0100                	.2byte	0x100
    172e:	0369                	.2byte	0x369
    1730:	0000                	.2byte	0x0
    1732:	0006bd27          	.4byte	0x6bd27
    1736:	d300                	.2byte	0xd300
    1738:	0034                	.2byte	0x34
    173a:	0100                	.2byte	0x100
    173c:	036e                	.2byte	0x36e
    173e:	0000                	.2byte	0x0
    1740:	0006bd27          	.4byte	0x6bd27
    1744:	a600                	.2byte	0xa600
    1746:	0035                	.2byte	0x35
    1748:	0200                	.2byte	0x200
    174a:	5f52                	.2byte	0x5f52
    174c:	b6280063          	beq	a6,sp,aac <__tcb_aligned_size+0xa6c>
    1750:	0006                	.2byte	0x6
    1752:	5200                	.2byte	0x5200
    1754:	0036                	.2byte	0x36
    1756:	0200                	.2byte	0x200
    1758:	5f52                	.2byte	0x5f52
    175a:	b6280073          	.4byte	0xb6280073
    175e:	0006                	.2byte	0x6
    1760:	8100                	.2byte	0x8100
    1762:	0036                	.2byte	0x36
    1764:	0200                	.2byte	0x200
    1766:	5f52                	.2byte	0x5f52
    1768:	0065                	.2byte	0x65
    176a:	b628                	.2byte	0xb628
    176c:	0006                	.2byte	0x6
    176e:	1b00                	.2byte	0x1b00
    1770:	01000037          	lui	zero,0x1000
    1774:	0302                	.2byte	0x302
    1776:	0000                	.2byte	0x0
    1778:	bd28                	.2byte	0xbd28
    177a:	0006                	.2byte	0x6
    177c:	9600                	.2byte	0x9600
    177e:	01000037          	lui	zero,0x1000
    1782:	0428                	.2byte	0x428
    1784:	0000                	.2byte	0x0
    1786:	bd28                	.2byte	0xbd28
    1788:	0006                	.2byte	0x6
    178a:	7a00                	.2byte	0x7a00
    178c:	0038                	.2byte	0x38
    178e:	0400                	.2byte	0x400
    1790:	0072                	.2byte	0x72
    1792:	0a29                	.2byte	0xa29
    1794:	0000006b          	.4byte	0x6b
    1798:	00057503          	.4byte	0x57503
    179c:	1600                	.2byte	0x1600
    179e:	0002                	.2byte	0x2
    17a0:	0700                	.2byte	0x700
    17a2:	00000307          	.4byte	0x307
    17a6:	b32c                	.2byte	0xb32c
    17a8:	0000                	.2byte	0x0
    17aa:	0000                	.2byte	0x0
    17ac:	0005a303          	lw	t1,0(a1)
    17b0:	4000                	.2byte	0x4000
    17b2:	0002                	.2byte	0x2
    17b4:	0100                	.2byte	0x100
    17b6:	04a0                	.2byte	0x4a0
    17b8:	0000                	.2byte	0x0
    17ba:	b62c                	.2byte	0xb62c
    17bc:	0006                	.2byte	0x6
    17be:	5c00                	.2byte	0x5c00
    17c0:	0039                	.2byte	0x39
    17c2:	0800                	.2byte	0x800
    17c4:	4658                	.2byte	0x4658
    17c6:	8000                	.2byte	0x8000
    17c8:	06c4                	.2byte	0x6c4
    17ca:	0000                	.2byte	0x0
    17cc:	8c08                	.2byte	0x8c08
    17ce:	0046                	.2byte	0x46
    17d0:	c480                	.2byte	0xc480
    17d2:	0006                	.2byte	0x6
    17d4:	0000                	.2byte	0x0
    17d6:	0005b603          	.4byte	0x5b603
    17da:	5400                	.2byte	0x5400
    17dc:	0002                	.2byte	0x2
    17de:	0700                	.2byte	0x700
    17e0:	00000307          	.4byte	0x307
    17e4:	b32d                	.2byte	0xb32d
    17e6:	0000                	.2byte	0x0
    17e8:	0000                	.2byte	0x0
    17ea:	0005e403          	.4byte	0x5e403
    17ee:	7e00                	.2byte	0x7e00
    17f0:	0002                	.2byte	0x2
    17f2:	0100                	.2byte	0x100
    17f4:	04a0                	.2byte	0x4a0
    17f6:	0000                	.2byte	0x0
    17f8:	b62d                	.2byte	0xb62d
    17fa:	0006                	.2byte	0x6
    17fc:	8900                	.2byte	0x8900
    17fe:	0039                	.2byte	0x39
    1800:	0800                	.2byte	0x800
    1802:	4780                	.2byte	0x4780
    1804:	8000                	.2byte	0x8000
    1806:	06c4                	.2byte	0x6c4
    1808:	0000                	.2byte	0x0
    180a:	bc08                	.2byte	0xbc08
    180c:	c4800047          	.4byte	0xc4800047
    1810:	0006                	.2byte	0x6
    1812:	0000                	.2byte	0x0
    1814:	0005f703          	.4byte	0x5f703
    1818:	3f00                	.2byte	0x3f00
    181a:	0005                	.2byte	0x5
    181c:	0100                	.2byte	0x100
    181e:	051f 0000 bd2e      	.byte	0x1f, 0x05, 0x00, 0x00, 0x2e, 0xbd
    1824:	0006                	.2byte	0x6
    1826:	b600                	.2byte	0xb600
    1828:	0039                	.2byte	0x39
    182a:	0100                	.2byte	0x100
    182c:	0506                	.2byte	0x506
    182e:	0000                	.2byte	0x0
    1830:	bd2e                	.2byte	0xbd2e
    1832:	0006                	.2byte	0x6
    1834:	dc00                	.2byte	0xdc00
    1836:	0039                	.2byte	0x39
    1838:	0100                	.2byte	0x100
    183a:	04ed                	.2byte	0x4ed
    183c:	0000                	.2byte	0x0
    183e:	bd2e                	.2byte	0xbd2e
    1840:	0006                	.2byte	0x6
    1842:	0300                	.2byte	0x300
    1844:	003a                	.2byte	0x3a
    1846:	0100                	.2byte	0x100
    1848:	04d4                	.2byte	0x4d4
    184a:	0000                	.2byte	0x0
    184c:	bd2e                	.2byte	0xbd2e
    184e:	0006                	.2byte	0x6
    1850:	1b00                	.2byte	0x1b00
    1852:	003a                	.2byte	0x3a
    1854:	0100                	.2byte	0x100
    1856:	000004bb          	.4byte	0x4bb
    185a:	bd2e                	.2byte	0xbd2e
    185c:	0006                	.2byte	0x6
    185e:	5e00                	.2byte	0x5e00
    1860:	003a                	.2byte	0x3a
    1862:	0100                	.2byte	0x100
    1864:	00000487          	.4byte	0x487
    1868:	bd2e                	.2byte	0xbd2e
    186a:	0006                	.2byte	0x6
    186c:	c300                	.2byte	0xc300
    186e:	003a                	.2byte	0x3a
    1870:	0100                	.2byte	0x100
    1872:	045d                	.2byte	0x45d
    1874:	0000                	.2byte	0x0
    1876:	bd2e                	.2byte	0xbd2e
    1878:	0006                	.2byte	0x6
    187a:	da00                	.2byte	0xda00
    187c:	003a                	.2byte	0x3a
    187e:	0300                	.2byte	0x300
    1880:	060a                	.2byte	0x60a
    1882:	0000                	.2byte	0x0
    1884:	0355                	.2byte	0x355
    1886:	0000                	.2byte	0x0
    1888:	7d01                	.2byte	0x7d01
    188a:	0001                	.2byte	0x1
    188c:	2e00                	.2byte	0x2e00
    188e:	06bd                	.2byte	0x6bd
    1890:	0000                	.2byte	0x0
    1892:	3af1                	.2byte	0x3af1
    1894:	0000                	.2byte	0x0
    1896:	7801                	.2byte	0x7801
    1898:	0001                	.2byte	0x1
    189a:	2e00                	.2byte	0x2e00
    189c:	06bd                	.2byte	0x6bd
    189e:	0000                	.2byte	0x0
    18a0:	3afd                	.2byte	0x3afd
    18a2:	0000                	.2byte	0x0
    18a4:	9501                	.2byte	0x9501
    18a6:	0002                	.2byte	0x2
    18a8:	2e00                	.2byte	0x2e00
    18aa:	06bd                	.2byte	0x6bd
    18ac:	0000                	.2byte	0x0
    18ae:	3b1a                	.2byte	0x3b1a
    18b0:	0000                	.2byte	0x0
    18b2:	9001                	.2byte	0x9001
    18b4:	0002                	.2byte	0x2
    18b6:	2e00                	.2byte	0x2e00
    18b8:	06bd                	.2byte	0x6bd
    18ba:	0000                	.2byte	0x0
    18bc:	3b31                	.2byte	0x3b31
    18be:	0000                	.2byte	0x0
    18c0:	ac01                	.2byte	0xac01
    18c2:	0002                	.2byte	0x2
    18c4:	2e00                	.2byte	0x2e00
    18c6:	06bd                	.2byte	0x6bd
    18c8:	0000                	.2byte	0x0
    18ca:	3b48                	.2byte	0x3b48
    18cc:	0000                	.2byte	0x0
    18ce:	a701                	.2byte	0xa701
    18d0:	0002                	.2byte	0x2
    18d2:	2e00                	.2byte	0x2e00
    18d4:	06bd                	.2byte	0x6bd
    18d6:	0000                	.2byte	0x0
    18d8:	3b8c                	.2byte	0x3b8c
    18da:	0000                	.2byte	0x0
    18dc:	5f02                	.2byte	0x5f02
    18de:	6d5f 2e00 06bd      	.byte	0x5f, 0x6d, 0x00, 0x2e, 0xbd, 0x06
    18e4:	0000                	.2byte	0x0
    18e6:	3bbe                	.2byte	0x3bbe
    18e8:	0000                	.2byte	0x0
    18ea:	0500                	.2byte	0x500
    18ec:	48e8                	.2byte	0x48e8
    18ee:	8000                	.2byte	0x8000
    18f0:	0058                	.2byte	0x58
    18f2:	0000                	.2byte	0x0
    18f4:	000003d3          	fadd.s	ft7,ft0,ft0,rne
    18f8:	6b01                	.2byte	0x6b01
    18fa:	0002                	.2byte	0x2
    18fc:	2e00                	.2byte	0x2e00
    18fe:	06bd                	.2byte	0x6bd
    1900:	0000                	.2byte	0x0
    1902:	3bf5                	.2byte	0x3bf5
    1904:	0000                	.2byte	0x0
    1906:	7001                	.2byte	0x7001
    1908:	0002                	.2byte	0x2
    190a:	2e00                	.2byte	0x2e00
    190c:	06bd                	.2byte	0x6bd
    190e:	0000                	.2byte	0x0
    1910:	3c62                	.2byte	0x3c62
    1912:	0000                	.2byte	0x0
    1914:	7501                	.2byte	0x7501
    1916:	0002                	.2byte	0x2
    1918:	2e00                	.2byte	0x2e00
    191a:	06bd                	.2byte	0x6bd
    191c:	0000                	.2byte	0x0
    191e:	3d8d                	.2byte	0x3d8d
    1920:	0000                	.2byte	0x0
    1922:	7a01                	.2byte	0x7a01
    1924:	0002                	.2byte	0x2
    1926:	2e00                	.2byte	0x2e00
    1928:	06bd                	.2byte	0x6bd
    192a:	0000                	.2byte	0x0
    192c:	3dbd                	.2byte	0x3dbd
    192e:	0000                	.2byte	0x0
    1930:	b601                	.2byte	0xb601
    1932:	0002                	.2byte	0x2
    1934:	2e00                	.2byte	0x2e00
    1936:	00000057          	.4byte	0x57
    193a:	3dc9                	.2byte	0x3dc9
    193c:	0000                	.2byte	0x0
    193e:	8701                	.2byte	0x8701
    1940:	0001                	.2byte	0x1
    1942:	2e00                	.2byte	0x2e00
    1944:	00000057          	.4byte	0x57
    1948:	3de2                	.2byte	0x3de2
    194a:	0000                	.2byte	0x0
    194c:	b101                	.2byte	0xb101
    194e:	0002                	.2byte	0x2
    1950:	2e00                	.2byte	0x2e00
    1952:	00000057          	.4byte	0x57
    1956:	3dee                	.2byte	0x3dee
    1958:	0000                	.2byte	0x0
    195a:	8201                	.2byte	0x8201
    195c:	0001                	.2byte	0x1
    195e:	2e00                	.2byte	0x2e00
    1960:	00000057          	.4byte	0x57
    1964:	3e36                	.2byte	0x3e36
    1966:	0000                	.2byte	0x0
    1968:	0300                	.2byte	0x300
    196a:	0626                	.2byte	0x626
    196c:	0000                	.2byte	0x0
    196e:	000003eb          	.4byte	0x3eb
    1972:	5f02                	.2byte	0x5f02
    1974:	785f 2e00 06bd      	.byte	0x5f, 0x78, 0x00, 0x2e, 0xbd, 0x06
    197a:	0000                	.2byte	0x0
    197c:	3e51                	.2byte	0x3e51
    197e:	0000                	.2byte	0x0
    1980:	0500                	.2byte	0x500
    1982:	4988                	.2byte	0x4988
    1984:	8000                	.2byte	0x8000
    1986:	0010                	.2byte	0x10
    1988:	0000                	.2byte	0x0
    198a:	0404                	.2byte	0x404
    198c:	0000                	.2byte	0x0
    198e:	5f04                	.2byte	0x5f04
    1990:	785f 2e00 bd03      	.byte	0x5f, 0x78, 0x00, 0x2e, 0x03, 0xbd
    1996:	0006                	.2byte	0x6
    1998:	0000                	.2byte	0x0
    199a:	9805                	.2byte	0x9805
    199c:	0049                	.2byte	0x49
    199e:	1080                	.2byte	0x1080
    19a0:	0000                	.2byte	0x0
    19a2:	2000                	.2byte	0x2000
    19a4:	0004                	.2byte	0x4
    19a6:	0200                	.2byte	0x200
    19a8:	5f5f 0078 bd2e      	.byte	0x5f, 0x5f, 0x78, 0x00, 0x2e, 0xbd
    19ae:	0006                	.2byte	0x6
    19b0:	6800                	.2byte	0x6800
    19b2:	003e                	.2byte	0x3e
    19b4:	0000                	.2byte	0x0
    19b6:	00063903          	.4byte	0x63903
    19ba:	8c00                	.2byte	0x8c00
    19bc:	0004                	.2byte	0x4
    19be:	0100                	.2byte	0x100
    19c0:	017d                	.2byte	0x17d
    19c2:	0000                	.2byte	0x0
    19c4:	bd2e                	.2byte	0xbd2e
    19c6:	0006                	.2byte	0x6
    19c8:	7400                	.2byte	0x7400
    19ca:	003e                	.2byte	0x3e
    19cc:	0100                	.2byte	0x100
    19ce:	0178                	.2byte	0x178
    19d0:	0000                	.2byte	0x0
    19d2:	bd2e                	.2byte	0xbd2e
    19d4:	0006                	.2byte	0x6
    19d6:	8000                	.2byte	0x8000
    19d8:	003e                	.2byte	0x3e
    19da:	0100                	.2byte	0x100
    19dc:	0295                	.2byte	0x295
    19de:	0000                	.2byte	0x0
    19e0:	bd2e                	.2byte	0xbd2e
    19e2:	0006                	.2byte	0x6
    19e4:	9d00                	.2byte	0x9d00
    19e6:	003e                	.2byte	0x3e
    19e8:	0100                	.2byte	0x100
    19ea:	0290                	.2byte	0x290
    19ec:	0000                	.2byte	0x0
    19ee:	bd2e                	.2byte	0xbd2e
    19f0:	0006                	.2byte	0x6
    19f2:	b400                	.2byte	0xb400
    19f4:	003e                	.2byte	0x3e
    19f6:	0100                	.2byte	0x100
    19f8:	02ac                	.2byte	0x2ac
    19fa:	0000                	.2byte	0x0
    19fc:	bd2e                	.2byte	0xbd2e
    19fe:	0006                	.2byte	0x6
    1a00:	cb00                	.2byte	0xcb00
    1a02:	003e                	.2byte	0x3e
    1a04:	0100                	.2byte	0x100
    1a06:	000002a7          	.4byte	0x2a7
    1a0a:	bd2e                	.2byte	0xbd2e
    1a0c:	0006                	.2byte	0x6
    1a0e:	0f00                	.2byte	0xf00
    1a10:	0200003f 006d5f5f 	.8byte	0x6d5f5f0200003f
    1a18:	bd2e                	.2byte	0xbd2e
    1a1a:	0006                	.2byte	0x6
    1a1c:	4c00                	.2byte	0x4c00
    1a1e:	0000003f 004a3c05 	.8byte	0x4a3c050000003f
    1a26:	4c80                	.2byte	0x4c80
    1a28:	0000                	.2byte	0x0
    1a2a:	0a00                	.2byte	0xa00
    1a2c:	0005                	.2byte	0x5
    1a2e:	0100                	.2byte	0x100
    1a30:	0000026b          	.4byte	0x26b
    1a34:	bd2e                	.2byte	0xbd2e
    1a36:	0006                	.2byte	0x6
    1a38:	8700                	.2byte	0x8700
    1a3a:	0100003f 00000270 	.8byte	0x2700100003f
    1a42:	bd2e                	.2byte	0xbd2e
    1a44:	0006                	.2byte	0x6
    1a46:	da00                	.2byte	0xda00
    1a48:	0100003f 00000275 	.8byte	0x2750100003f
    1a50:	bd2e                	.2byte	0xbd2e
    1a52:	0006                	.2byte	0x6
    1a54:	cb00                	.2byte	0xcb00
    1a56:	0040                	.2byte	0x40
    1a58:	0100                	.2byte	0x100
    1a5a:	027a                	.2byte	0x27a
    1a5c:	0000                	.2byte	0x0
    1a5e:	bd2e                	.2byte	0xbd2e
    1a60:	0006                	.2byte	0x6
    1a62:	5800                	.2byte	0x5800
    1a64:	0041                	.2byte	0x41
    1a66:	0100                	.2byte	0x100
    1a68:	02b6                	.2byte	0x2b6
    1a6a:	0000                	.2byte	0x0
    1a6c:	572e                	.2byte	0x572e
    1a6e:	0000                	.2byte	0x0
    1a70:	6400                	.2byte	0x6400
    1a72:	0041                	.2byte	0x41
    1a74:	0100                	.2byte	0x100
    1a76:	00000187          	.4byte	0x187
    1a7a:	572e                	.2byte	0x572e
    1a7c:	0000                	.2byte	0x0
    1a7e:	7d00                	.2byte	0x7d00
    1a80:	0041                	.2byte	0x41
    1a82:	0100                	.2byte	0x100
    1a84:	02b1                	.2byte	0x2b1
    1a86:	0000                	.2byte	0x0
    1a88:	572e                	.2byte	0x572e
    1a8a:	0000                	.2byte	0x0
    1a8c:	8900                	.2byte	0x8900
    1a8e:	0041                	.2byte	0x41
    1a90:	0100                	.2byte	0x100
    1a92:	0182                	.2byte	0x182
    1a94:	0000                	.2byte	0x0
    1a96:	572e                	.2byte	0x572e
    1a98:	0000                	.2byte	0x0
    1a9a:	b300                	.2byte	0xb300
    1a9c:	0041                	.2byte	0x41
    1a9e:	0000                	.2byte	0x0
    1aa0:	a005                	.2byte	0xa005
    1aa2:	004a                	.2byte	0x4a
    1aa4:	0480                	.2byte	0x480
    1aa6:	0000                	.2byte	0x0
    1aa8:	2600                	.2byte	0x2600
    1aaa:	0005                	.2byte	0x5
    1aac:	0200                	.2byte	0x200
    1aae:	5f5f 0078 bd2e      	.byte	0x5f, 0x5f, 0x78, 0x00, 0x2e, 0xbd
    1ab4:	0006                	.2byte	0x6
    1ab6:	ce00                	.2byte	0xce00
    1ab8:	0041                	.2byte	0x41
    1aba:	0000                	.2byte	0x0
    1abc:	004ab80b          	.4byte	0x4ab80b
    1ac0:	1480                	.2byte	0x1480
    1ac2:	0000                	.2byte	0x0
    1ac4:	0200                	.2byte	0x200
    1ac6:	5f5f 0078 bd2e      	.byte	0x5f, 0x5f, 0x78, 0x00, 0x2e, 0xbd
    1acc:	0006                	.2byte	0x6
    1ace:	da00                	.2byte	0xda00
    1ad0:	0041                	.2byte	0x41
    1ad2:	0000                	.2byte	0x0
    1ad4:	0500                	.2byte	0x500
    1ad6:	4b0c                	.2byte	0x4b0c
    1ad8:	8000                	.2byte	0x8000
    1ada:	0008                	.2byte	0x8
    1adc:	0000                	.2byte	0x0
    1ade:	0558                	.2byte	0x558
    1ae0:	0000                	.2byte	0x0
    1ae2:	5f0d                	.2byte	0x5f0d
    1ae4:	785f bd00 0006      	.byte	0x5f, 0x78, 0x00, 0xbd, 0x06, 0x00
    1aea:	0100                	.2byte	0x100
    1aec:	005f 6909 0005      	.byte	0x5f, 0x00, 0x09, 0x69, 0x05, 0x00
    1af2:	0400                	.2byte	0x400
    1af4:	5f5f 0078 032f      	.byte	0x5f, 0x5f, 0x78, 0x00, 0x2f, 0x03
    1afa:	06bd                	.2byte	0x6bd
    1afc:	0000                	.2byte	0x0
    1afe:	0300                	.2byte	0x300
    1b00:	064c                	.2byte	0x64c
    1b02:	0000                	.2byte	0x0
    1b04:	057e                	.2byte	0x57e
    1b06:	0000                	.2byte	0x0
    1b08:	5f04                	.2byte	0x5f04
    1b0a:	785f 2f00 bd03      	.byte	0x5f, 0x78, 0x00, 0x2f, 0x03, 0xbd
    1b10:	0006                	.2byte	0x6
    1b12:	0000                	.2byte	0x0
    1b14:	00065f03          	lhu	t5,0(a2) # 16266 <__tcb_aligned_size+0x16226>
    1b18:	a100                	.2byte	0xa100
    1b1a:	0006                	.2byte	0x6
    1b1c:	0100                	.2byte	0x100
    1b1e:	0000054f          	fnmadd.s	fa0,ft0,ft0,ft0,rne
    1b22:	00002d2f          	.4byte	0x2d2f
    1b26:	e600                	.2byte	0xe600
    1b28:	0041                	.2byte	0x41
    1b2a:	0500                	.2byte	0x500
    1b2c:	4c64                	.2byte	0x4c64
    1b2e:	8000                	.2byte	0x8000
    1b30:	0060                	.2byte	0x60
    1b32:	0000                	.2byte	0x0
    1b34:	0622                	.2byte	0x622
    1b36:	0000                	.2byte	0x0
    1b38:	00056a07          	.4byte	0x56a07
    1b3c:	2f00                	.2byte	0x2f00
    1b3e:	06b6                	.2byte	0x6b6
