
rv64ui-p-sll:     file format elf64-littleriscv


Disassembly of section .text.init:

0000000080000000 <_start>:
    80000000:	0480006f          	j	80000048 <reset_vector>

0000000080000004 <trap_vector>:
    80000004:	34202f73          	csrr	t5,mcause
    80000008:	00800f93          	li	t6,8
    8000000c:	03ff0863          	beq	t5,t6,8000003c <write_tohost>
    80000010:	00900f93          	li	t6,9
    80000014:	03ff0463          	beq	t5,t6,8000003c <write_tohost>
    80000018:	00b00f93          	li	t6,11
    8000001c:	03ff0063          	beq	t5,t6,8000003c <write_tohost>
    80000020:	00000f13          	li	t5,0
    80000024:	000f0463          	beqz	t5,8000002c <trap_vector+0x28>
    80000028:	000f0067          	jr	t5
    8000002c:	34202f73          	csrr	t5,mcause
    80000030:	000f5463          	bgez	t5,80000038 <handle_exception>
    80000034:	0040006f          	j	80000038 <handle_exception>

0000000080000038 <handle_exception>:
    80000038:	5391e193          	ori	gp,gp,1337

000000008000003c <write_tohost>:
    8000003c:	00001f17          	auipc	t5,0x1
    80000040:	fc3f2223          	sw	gp,-60(t5) # 80001000 <tohost>
    80000044:	ff9ff06f          	j	8000003c <write_tohost>

0000000080000048 <reset_vector>:
    80000048:	00000093          	li	ra,0
    8000004c:	00000113          	li	sp,0
    80000050:	00000193          	li	gp,0
    80000054:	00000213          	li	tp,0
    80000058:	00000293          	li	t0,0
    8000005c:	00000313          	li	t1,0
    80000060:	00000393          	li	t2,0
    80000064:	00000413          	li	s0,0
    80000068:	00000493          	li	s1,0
    8000006c:	00000513          	li	a0,0
    80000070:	00000593          	li	a1,0
    80000074:	00000613          	li	a2,0
    80000078:	00000693          	li	a3,0
    8000007c:	00000713          	li	a4,0
    80000080:	00000793          	li	a5,0
    80000084:	00000813          	li	a6,0
    80000088:	00000893          	li	a7,0
    8000008c:	00000913          	li	s2,0
    80000090:	00000993          	li	s3,0
    80000094:	00000a13          	li	s4,0
    80000098:	00000a93          	li	s5,0
    8000009c:	00000b13          	li	s6,0
    800000a0:	00000b93          	li	s7,0
    800000a4:	00000c13          	li	s8,0
    800000a8:	00000c93          	li	s9,0
    800000ac:	00000d13          	li	s10,0
    800000b0:	00000d93          	li	s11,0
    800000b4:	00000e13          	li	t3,0
    800000b8:	00000e93          	li	t4,0
    800000bc:	00000f13          	li	t5,0
    800000c0:	00000f93          	li	t6,0
    800000c4:	f1402573          	csrr	a0,mhartid
    800000c8:	00051063          	bnez	a0,800000c8 <reset_vector+0x80>
    800000cc:	00000297          	auipc	t0,0x0
    800000d0:	01028293          	addi	t0,t0,16 # 800000dc <reset_vector+0x94>
    800000d4:	30529073          	csrw	mtvec,t0
    800000d8:	18005073          	csrwi	satp,0
    800000dc:	00000297          	auipc	t0,0x0
    800000e0:	02428293          	addi	t0,t0,36 # 80000100 <reset_vector+0xb8>
    800000e4:	30529073          	csrw	mtvec,t0
    800000e8:	0010029b          	addiw	t0,zero,1
    800000ec:	03529293          	slli	t0,t0,0x35
    800000f0:	fff28293          	addi	t0,t0,-1
    800000f4:	3b029073          	csrw	pmpaddr0,t0
    800000f8:	01f00293          	li	t0,31
    800000fc:	3a029073          	csrw	pmpcfg0,t0
    80000100:	30405073          	csrwi	mie,0
    80000104:	00000297          	auipc	t0,0x0
    80000108:	01428293          	addi	t0,t0,20 # 80000118 <reset_vector+0xd0>
    8000010c:	30529073          	csrw	mtvec,t0
    80000110:	30205073          	csrwi	medeleg,0
    80000114:	30305073          	csrwi	mideleg,0
    80000118:	00000193          	li	gp,0
    8000011c:	00000297          	auipc	t0,0x0
    80000120:	ee828293          	addi	t0,t0,-280 # 80000004 <trap_vector>
    80000124:	30529073          	csrw	mtvec,t0
    80000128:	00100513          	li	a0,1
    8000012c:	01f51513          	slli	a0,a0,0x1f
    80000130:	00055c63          	bgez	a0,80000148 <reset_vector+0x100>
    80000134:	0ff0000f          	fence
    80000138:	00100193          	li	gp,1
    8000013c:	05d00893          	li	a7,93
    80000140:	00000513          	li	a0,0
    80000144:	00000073          	ecall
    80000148:	00000293          	li	t0,0
    8000014c:	00028a63          	beqz	t0,80000160 <reset_vector+0x118>
    80000150:	10529073          	csrw	stvec,t0
    80000154:	0000b2b7          	lui	t0,0xb
    80000158:	1092829b          	addiw	t0,t0,265
    8000015c:	30229073          	csrw	medeleg,t0
    80000160:	30005073          	csrwi	mstatus,0
    80000164:	00000297          	auipc	t0,0x0
    80000168:	01428293          	addi	t0,t0,20 # 80000178 <test_2>
    8000016c:	34129073          	csrw	mepc,t0
    80000170:	f1402573          	csrr	a0,mhartid
    80000174:	30200073          	mret

0000000080000178 <test_2>:
    80000178:	00100093          	li	ra,1
    8000017c:	00000113          	li	sp,0
    80000180:	00209733          	sll	a4,ra,sp
    80000184:	00100393          	li	t2,1
    80000188:	00200193          	li	gp,2
    8000018c:	5e771c63          	bne	a4,t2,80000784 <fail>

0000000080000190 <test_3>:
    80000190:	00100093          	li	ra,1
    80000194:	00100113          	li	sp,1
    80000198:	00209733          	sll	a4,ra,sp
    8000019c:	00200393          	li	t2,2
    800001a0:	00300193          	li	gp,3
    800001a4:	5e771063          	bne	a4,t2,80000784 <fail>

00000000800001a8 <test_4>:
    800001a8:	00100093          	li	ra,1
    800001ac:	00700113          	li	sp,7
    800001b0:	00209733          	sll	a4,ra,sp
    800001b4:	08000393          	li	t2,128
    800001b8:	00400193          	li	gp,4
    800001bc:	5c771463          	bne	a4,t2,80000784 <fail>

00000000800001c0 <test_5>:
    800001c0:	00100093          	li	ra,1
    800001c4:	00e00113          	li	sp,14
    800001c8:	00209733          	sll	a4,ra,sp
    800001cc:	000043b7          	lui	t2,0x4
    800001d0:	00500193          	li	gp,5
    800001d4:	5a771863          	bne	a4,t2,80000784 <fail>

00000000800001d8 <test_6>:
    800001d8:	00100093          	li	ra,1
    800001dc:	01f00113          	li	sp,31
    800001e0:	00209733          	sll	a4,ra,sp
    800001e4:	0010039b          	addiw	t2,zero,1
    800001e8:	01f39393          	slli	t2,t2,0x1f
    800001ec:	00600193          	li	gp,6
    800001f0:	58771a63          	bne	a4,t2,80000784 <fail>

00000000800001f4 <test_7>:
    800001f4:	fff00093          	li	ra,-1
    800001f8:	00000113          	li	sp,0
    800001fc:	00209733          	sll	a4,ra,sp
    80000200:	fff00393          	li	t2,-1
    80000204:	00700193          	li	gp,7
    80000208:	56771e63          	bne	a4,t2,80000784 <fail>

000000008000020c <test_8>:
    8000020c:	fff00093          	li	ra,-1
    80000210:	00100113          	li	sp,1
    80000214:	00209733          	sll	a4,ra,sp
    80000218:	ffe00393          	li	t2,-2
    8000021c:	00800193          	li	gp,8
    80000220:	56771263          	bne	a4,t2,80000784 <fail>

0000000080000224 <test_9>:
    80000224:	fff00093          	li	ra,-1
    80000228:	00700113          	li	sp,7
    8000022c:	00209733          	sll	a4,ra,sp
    80000230:	f8000393          	li	t2,-128
    80000234:	00900193          	li	gp,9
    80000238:	54771663          	bne	a4,t2,80000784 <fail>

000000008000023c <test_10>:
    8000023c:	fff00093          	li	ra,-1
    80000240:	00e00113          	li	sp,14
    80000244:	00209733          	sll	a4,ra,sp
    80000248:	ffffc3b7          	lui	t2,0xffffc
    8000024c:	00a00193          	li	gp,10
    80000250:	52771a63          	bne	a4,t2,80000784 <fail>

0000000080000254 <test_11>:
    80000254:	fff00093          	li	ra,-1
    80000258:	01f00113          	li	sp,31
    8000025c:	00209733          	sll	a4,ra,sp
    80000260:	800003b7          	lui	t2,0x80000
    80000264:	00b00193          	li	gp,11
    80000268:	50771e63          	bne	a4,t2,80000784 <fail>

000000008000026c <test_12>:
    8000026c:	212120b7          	lui	ra,0x21212
    80000270:	1210809b          	addiw	ra,ra,289
    80000274:	00000113          	li	sp,0
    80000278:	00209733          	sll	a4,ra,sp
    8000027c:	212123b7          	lui	t2,0x21212
    80000280:	1213839b          	addiw	t2,t2,289
    80000284:	00c00193          	li	gp,12
    80000288:	4e771e63          	bne	a4,t2,80000784 <fail>

000000008000028c <test_13>:
    8000028c:	212120b7          	lui	ra,0x21212
    80000290:	1210809b          	addiw	ra,ra,289
    80000294:	00100113          	li	sp,1
    80000298:	00209733          	sll	a4,ra,sp
    8000029c:	424243b7          	lui	t2,0x42424
    800002a0:	2423839b          	addiw	t2,t2,578
    800002a4:	00d00193          	li	gp,13
    800002a8:	4c771e63          	bne	a4,t2,80000784 <fail>

00000000800002ac <test_14>:
    800002ac:	212120b7          	lui	ra,0x21212
    800002b0:	1210809b          	addiw	ra,ra,289
    800002b4:	00700113          	li	sp,7
    800002b8:	00209733          	sll	a4,ra,sp
    800002bc:	010913b7          	lui	t2,0x1091
    800002c0:	9093839b          	addiw	t2,t2,-1783
    800002c4:	00c39393          	slli	t2,t2,0xc
    800002c8:	08038393          	addi	t2,t2,128 # 1091080 <_start-0x7ef6ef80>
    800002cc:	00e00193          	li	gp,14
    800002d0:	4a771a63          	bne	a4,t2,80000784 <fail>

00000000800002d4 <test_15>:
    800002d4:	212120b7          	lui	ra,0x21212
    800002d8:	1210809b          	addiw	ra,ra,289
    800002dc:	00e00113          	li	sp,14
    800002e0:	00209733          	sll	a4,ra,sp
    800002e4:	212123b7          	lui	t2,0x21212
    800002e8:	1213839b          	addiw	t2,t2,289
    800002ec:	00e39393          	slli	t2,t2,0xe
    800002f0:	00f00193          	li	gp,15
    800002f4:	48771863          	bne	a4,t2,80000784 <fail>

00000000800002f8 <test_16>:
    800002f8:	212120b7          	lui	ra,0x21212
    800002fc:	1210809b          	addiw	ra,ra,289
    80000300:	01f00113          	li	sp,31
    80000304:	00209733          	sll	a4,ra,sp
    80000308:	212123b7          	lui	t2,0x21212
    8000030c:	1213839b          	addiw	t2,t2,289
    80000310:	01f39393          	slli	t2,t2,0x1f
    80000314:	01000193          	li	gp,16
    80000318:	46771663          	bne	a4,t2,80000784 <fail>

000000008000031c <test_17>:
    8000031c:	212120b7          	lui	ra,0x21212
    80000320:	1210809b          	addiw	ra,ra,289
    80000324:	fc000113          	li	sp,-64
    80000328:	00209733          	sll	a4,ra,sp
    8000032c:	212123b7          	lui	t2,0x21212
    80000330:	1213839b          	addiw	t2,t2,289
    80000334:	01100193          	li	gp,17
    80000338:	44771663          	bne	a4,t2,80000784 <fail>

000000008000033c <test_18>:
    8000033c:	212120b7          	lui	ra,0x21212
    80000340:	1210809b          	addiw	ra,ra,289
    80000344:	fc100113          	li	sp,-63
    80000348:	00209733          	sll	a4,ra,sp
    8000034c:	424243b7          	lui	t2,0x42424
    80000350:	2423839b          	addiw	t2,t2,578
    80000354:	01200193          	li	gp,18
    80000358:	42771663          	bne	a4,t2,80000784 <fail>

000000008000035c <test_19>:
    8000035c:	212120b7          	lui	ra,0x21212
    80000360:	1210809b          	addiw	ra,ra,289
    80000364:	fc700113          	li	sp,-57
    80000368:	00209733          	sll	a4,ra,sp
    8000036c:	010913b7          	lui	t2,0x1091
    80000370:	9093839b          	addiw	t2,t2,-1783
    80000374:	00c39393          	slli	t2,t2,0xc
    80000378:	08038393          	addi	t2,t2,128 # 1091080 <_start-0x7ef6ef80>
    8000037c:	01300193          	li	gp,19
    80000380:	40771263          	bne	a4,t2,80000784 <fail>

0000000080000384 <test_20>:
    80000384:	212120b7          	lui	ra,0x21212
    80000388:	1210809b          	addiw	ra,ra,289
    8000038c:	fce00113          	li	sp,-50
    80000390:	00209733          	sll	a4,ra,sp
    80000394:	212123b7          	lui	t2,0x21212
    80000398:	1213839b          	addiw	t2,t2,289
    8000039c:	00e39393          	slli	t2,t2,0xe
    800003a0:	01400193          	li	gp,20
    800003a4:	3e771063          	bne	a4,t2,80000784 <fail>

00000000800003a8 <test_21>:
    800003a8:	212120b7          	lui	ra,0x21212
    800003ac:	1210809b          	addiw	ra,ra,289
    800003b0:	fff00113          	li	sp,-1
    800003b4:	00209733          	sll	a4,ra,sp
    800003b8:	fff0039b          	addiw	t2,zero,-1
    800003bc:	03f39393          	slli	t2,t2,0x3f
    800003c0:	01500193          	li	gp,21
    800003c4:	3c771063          	bne	a4,t2,80000784 <fail>

00000000800003c8 <test_50>:
    800003c8:	00100093          	li	ra,1
    800003cc:	03f00113          	li	sp,63
    800003d0:	00209733          	sll	a4,ra,sp
    800003d4:	fff0039b          	addiw	t2,zero,-1
    800003d8:	03f39393          	slli	t2,t2,0x3f
    800003dc:	03200193          	li	gp,50
    800003e0:	3a771263          	bne	a4,t2,80000784 <fail>

00000000800003e4 <test_51>:
    800003e4:	fff00093          	li	ra,-1
    800003e8:	02700113          	li	sp,39
    800003ec:	00209733          	sll	a4,ra,sp
    800003f0:	fff0039b          	addiw	t2,zero,-1
    800003f4:	02739393          	slli	t2,t2,0x27
    800003f8:	03300193          	li	gp,51
    800003fc:	38771463          	bne	a4,t2,80000784 <fail>

0000000080000400 <test_52>:
    80000400:	212120b7          	lui	ra,0x21212
    80000404:	1210809b          	addiw	ra,ra,289
    80000408:	02b00113          	li	sp,43
    8000040c:	00209733          	sll	a4,ra,sp
    80000410:	000123b7          	lui	t2,0x12
    80000414:	1213839b          	addiw	t2,t2,289
    80000418:	02b39393          	slli	t2,t2,0x2b
    8000041c:	03400193          	li	gp,52
    80000420:	36771263          	bne	a4,t2,80000784 <fail>

0000000080000424 <test_22>:
    80000424:	00100093          	li	ra,1
    80000428:	00700113          	li	sp,7
    8000042c:	002090b3          	sll	ra,ra,sp
    80000430:	08000393          	li	t2,128
    80000434:	01600193          	li	gp,22
    80000438:	34709663          	bne	ra,t2,80000784 <fail>

000000008000043c <test_23>:
    8000043c:	00100093          	li	ra,1
    80000440:	00e00113          	li	sp,14
    80000444:	00209133          	sll	sp,ra,sp
    80000448:	000043b7          	lui	t2,0x4
    8000044c:	01700193          	li	gp,23
    80000450:	32711a63          	bne	sp,t2,80000784 <fail>

0000000080000454 <test_24>:
    80000454:	00300093          	li	ra,3
    80000458:	001090b3          	sll	ra,ra,ra
    8000045c:	01800393          	li	t2,24
    80000460:	01800193          	li	gp,24
    80000464:	32709063          	bne	ra,t2,80000784 <fail>

0000000080000468 <test_25>:
    80000468:	00000213          	li	tp,0
    8000046c:	00100093          	li	ra,1
    80000470:	00700113          	li	sp,7
    80000474:	00209733          	sll	a4,ra,sp
    80000478:	00070313          	mv	t1,a4
    8000047c:	00120213          	addi	tp,tp,1 # 1 <_start-0x7fffffff>
    80000480:	00200293          	li	t0,2
    80000484:	fe5214e3          	bne	tp,t0,8000046c <test_25+0x4>
    80000488:	08000393          	li	t2,128
    8000048c:	01900193          	li	gp,25
    80000490:	2e731a63          	bne	t1,t2,80000784 <fail>

0000000080000494 <test_26>:
    80000494:	00000213          	li	tp,0
    80000498:	00100093          	li	ra,1
    8000049c:	00e00113          	li	sp,14
    800004a0:	00209733          	sll	a4,ra,sp
    800004a4:	00000013          	nop
    800004a8:	00070313          	mv	t1,a4
    800004ac:	00120213          	addi	tp,tp,1 # 1 <_start-0x7fffffff>
    800004b0:	00200293          	li	t0,2
    800004b4:	fe5212e3          	bne	tp,t0,80000498 <test_26+0x4>
    800004b8:	000043b7          	lui	t2,0x4
    800004bc:	01a00193          	li	gp,26
    800004c0:	2c731263          	bne	t1,t2,80000784 <fail>

00000000800004c4 <test_27>:
    800004c4:	00000213          	li	tp,0
    800004c8:	00100093          	li	ra,1
    800004cc:	01f00113          	li	sp,31
    800004d0:	00209733          	sll	a4,ra,sp
    800004d4:	00000013          	nop
    800004d8:	00000013          	nop
    800004dc:	00070313          	mv	t1,a4
    800004e0:	00120213          	addi	tp,tp,1 # 1 <_start-0x7fffffff>
    800004e4:	00200293          	li	t0,2
    800004e8:	fe5210e3          	bne	tp,t0,800004c8 <test_27+0x4>
    800004ec:	0010039b          	addiw	t2,zero,1
    800004f0:	01f39393          	slli	t2,t2,0x1f
    800004f4:	01b00193          	li	gp,27
    800004f8:	28731663          	bne	t1,t2,80000784 <fail>

00000000800004fc <test_28>:
    800004fc:	00000213          	li	tp,0
    80000500:	00100093          	li	ra,1
    80000504:	00700113          	li	sp,7
    80000508:	00209733          	sll	a4,ra,sp
    8000050c:	00120213          	addi	tp,tp,1 # 1 <_start-0x7fffffff>
    80000510:	00200293          	li	t0,2
    80000514:	fe5216e3          	bne	tp,t0,80000500 <test_28+0x4>
    80000518:	08000393          	li	t2,128
    8000051c:	01c00193          	li	gp,28
    80000520:	26771263          	bne	a4,t2,80000784 <fail>

0000000080000524 <test_29>:
    80000524:	00000213          	li	tp,0
    80000528:	00100093          	li	ra,1
    8000052c:	00e00113          	li	sp,14
    80000530:	00000013          	nop
    80000534:	00209733          	sll	a4,ra,sp
    80000538:	00120213          	addi	tp,tp,1 # 1 <_start-0x7fffffff>
    8000053c:	00200293          	li	t0,2
    80000540:	fe5214e3          	bne	tp,t0,80000528 <test_29+0x4>
    80000544:	000043b7          	lui	t2,0x4
    80000548:	01d00193          	li	gp,29
    8000054c:	22771c63          	bne	a4,t2,80000784 <fail>

0000000080000550 <test_30>:
    80000550:	00000213          	li	tp,0
    80000554:	00100093          	li	ra,1
    80000558:	01f00113          	li	sp,31
    8000055c:	00000013          	nop
    80000560:	00000013          	nop
    80000564:	00209733          	sll	a4,ra,sp
    80000568:	00120213          	addi	tp,tp,1 # 1 <_start-0x7fffffff>
    8000056c:	00200293          	li	t0,2
    80000570:	fe5212e3          	bne	tp,t0,80000554 <test_30+0x4>
    80000574:	0010039b          	addiw	t2,zero,1
    80000578:	01f39393          	slli	t2,t2,0x1f
    8000057c:	01e00193          	li	gp,30
    80000580:	20771263          	bne	a4,t2,80000784 <fail>

0000000080000584 <test_31>:
    80000584:	00000213          	li	tp,0
    80000588:	00100093          	li	ra,1
    8000058c:	00000013          	nop
    80000590:	00700113          	li	sp,7
    80000594:	00209733          	sll	a4,ra,sp
    80000598:	00120213          	addi	tp,tp,1 # 1 <_start-0x7fffffff>
    8000059c:	00200293          	li	t0,2
    800005a0:	fe5214e3          	bne	tp,t0,80000588 <test_31+0x4>
    800005a4:	08000393          	li	t2,128
    800005a8:	01f00193          	li	gp,31
    800005ac:	1c771c63          	bne	a4,t2,80000784 <fail>

00000000800005b0 <test_32>:
    800005b0:	00000213          	li	tp,0
    800005b4:	00100093          	li	ra,1
    800005b8:	00000013          	nop
    800005bc:	00e00113          	li	sp,14
    800005c0:	00000013          	nop
    800005c4:	00209733          	sll	a4,ra,sp
    800005c8:	00120213          	addi	tp,tp,1 # 1 <_start-0x7fffffff>
    800005cc:	00200293          	li	t0,2
    800005d0:	fe5212e3          	bne	tp,t0,800005b4 <test_32+0x4>
    800005d4:	000043b7          	lui	t2,0x4
    800005d8:	02000193          	li	gp,32
    800005dc:	1a771463          	bne	a4,t2,80000784 <fail>

00000000800005e0 <test_33>:
    800005e0:	00000213          	li	tp,0
    800005e4:	00100093          	li	ra,1
    800005e8:	00000013          	nop
    800005ec:	00000013          	nop
    800005f0:	01f00113          	li	sp,31
    800005f4:	00209733          	sll	a4,ra,sp
    800005f8:	00120213          	addi	tp,tp,1 # 1 <_start-0x7fffffff>
    800005fc:	00200293          	li	t0,2
    80000600:	fe5212e3          	bne	tp,t0,800005e4 <test_33+0x4>
    80000604:	0010039b          	addiw	t2,zero,1
    80000608:	01f39393          	slli	t2,t2,0x1f
    8000060c:	02100193          	li	gp,33
    80000610:	16771a63          	bne	a4,t2,80000784 <fail>

0000000080000614 <test_34>:
    80000614:	00000213          	li	tp,0
    80000618:	00700113          	li	sp,7
    8000061c:	00100093          	li	ra,1
    80000620:	00209733          	sll	a4,ra,sp
    80000624:	00120213          	addi	tp,tp,1 # 1 <_start-0x7fffffff>
    80000628:	00200293          	li	t0,2
    8000062c:	fe5216e3          	bne	tp,t0,80000618 <test_34+0x4>
    80000630:	08000393          	li	t2,128
    80000634:	02200193          	li	gp,34
    80000638:	14771663          	bne	a4,t2,80000784 <fail>

000000008000063c <test_35>:
    8000063c:	00000213          	li	tp,0
    80000640:	00e00113          	li	sp,14
    80000644:	00100093          	li	ra,1
    80000648:	00000013          	nop
    8000064c:	00209733          	sll	a4,ra,sp
    80000650:	00120213          	addi	tp,tp,1 # 1 <_start-0x7fffffff>
    80000654:	00200293          	li	t0,2
    80000658:	fe5214e3          	bne	tp,t0,80000640 <test_35+0x4>
    8000065c:	000043b7          	lui	t2,0x4
    80000660:	02300193          	li	gp,35
    80000664:	12771063          	bne	a4,t2,80000784 <fail>

0000000080000668 <test_36>:
    80000668:	00000213          	li	tp,0
    8000066c:	01f00113          	li	sp,31
    80000670:	00100093          	li	ra,1
    80000674:	00000013          	nop
    80000678:	00000013          	nop
    8000067c:	00209733          	sll	a4,ra,sp
    80000680:	00120213          	addi	tp,tp,1 # 1 <_start-0x7fffffff>
    80000684:	00200293          	li	t0,2
    80000688:	fe5212e3          	bne	tp,t0,8000066c <test_36+0x4>
    8000068c:	0010039b          	addiw	t2,zero,1
    80000690:	01f39393          	slli	t2,t2,0x1f
    80000694:	02400193          	li	gp,36
    80000698:	0e771663          	bne	a4,t2,80000784 <fail>

000000008000069c <test_37>:
    8000069c:	00000213          	li	tp,0
    800006a0:	00700113          	li	sp,7
    800006a4:	00000013          	nop
    800006a8:	00100093          	li	ra,1
    800006ac:	00209733          	sll	a4,ra,sp
    800006b0:	00120213          	addi	tp,tp,1 # 1 <_start-0x7fffffff>
    800006b4:	00200293          	li	t0,2
    800006b8:	fe5214e3          	bne	tp,t0,800006a0 <test_37+0x4>
    800006bc:	08000393          	li	t2,128
    800006c0:	02500193          	li	gp,37
    800006c4:	0c771063          	bne	a4,t2,80000784 <fail>

00000000800006c8 <test_38>:
    800006c8:	00000213          	li	tp,0
    800006cc:	00e00113          	li	sp,14
    800006d0:	00000013          	nop
    800006d4:	00100093          	li	ra,1
    800006d8:	00000013          	nop
    800006dc:	00209733          	sll	a4,ra,sp
    800006e0:	00120213          	addi	tp,tp,1 # 1 <_start-0x7fffffff>
    800006e4:	00200293          	li	t0,2
    800006e8:	fe5212e3          	bne	tp,t0,800006cc <test_38+0x4>
    800006ec:	000043b7          	lui	t2,0x4
    800006f0:	02600193          	li	gp,38
    800006f4:	08771863          	bne	a4,t2,80000784 <fail>

00000000800006f8 <test_39>:
    800006f8:	00000213          	li	tp,0
    800006fc:	01f00113          	li	sp,31
    80000700:	00000013          	nop
    80000704:	00000013          	nop
    80000708:	00100093          	li	ra,1
    8000070c:	00209733          	sll	a4,ra,sp
    80000710:	00120213          	addi	tp,tp,1 # 1 <_start-0x7fffffff>
    80000714:	00200293          	li	t0,2
    80000718:	fe5212e3          	bne	tp,t0,800006fc <test_39+0x4>
    8000071c:	0010039b          	addiw	t2,zero,1
    80000720:	01f39393          	slli	t2,t2,0x1f
    80000724:	02700193          	li	gp,39
    80000728:	04771e63          	bne	a4,t2,80000784 <fail>

000000008000072c <test_40>:
    8000072c:	00f00093          	li	ra,15
    80000730:	00101133          	sll	sp,zero,ra
    80000734:	00000393          	li	t2,0
    80000738:	02800193          	li	gp,40
    8000073c:	04711463          	bne	sp,t2,80000784 <fail>

0000000080000740 <test_41>:
    80000740:	02000093          	li	ra,32
    80000744:	00009133          	sll	sp,ra,zero
    80000748:	02000393          	li	t2,32
    8000074c:	02900193          	li	gp,41
    80000750:	02711a63          	bne	sp,t2,80000784 <fail>

0000000080000754 <test_42>:
    80000754:	000010b3          	sll	ra,zero,zero
    80000758:	00000393          	li	t2,0
    8000075c:	02a00193          	li	gp,42
    80000760:	02709263          	bne	ra,t2,80000784 <fail>

0000000080000764 <test_43>:
    80000764:	40000093          	li	ra,1024
    80000768:	00001137          	lui	sp,0x1
    8000076c:	8001011b          	addiw	sp,sp,-2048
    80000770:	00209033          	sll	zero,ra,sp
    80000774:	00000393          	li	t2,0
    80000778:	02b00193          	li	gp,43
    8000077c:	00701463          	bne	zero,t2,80000784 <fail>
    80000780:	02301063          	bne	zero,gp,800007a0 <pass>

0000000080000784 <fail>:
    80000784:	0ff0000f          	fence
    80000788:	00018063          	beqz	gp,80000788 <fail+0x4>
    8000078c:	00119193          	slli	gp,gp,0x1
    80000790:	0011e193          	ori	gp,gp,1
    80000794:	05d00893          	li	a7,93
    80000798:	00018513          	mv	a0,gp
    8000079c:	00000073          	ecall

00000000800007a0 <pass>:
    800007a0:	0ff0000f          	fence
    800007a4:	00100193          	li	gp,1
    800007a8:	05d00893          	li	a7,93
    800007ac:	00000513          	li	a0,0
    800007b0:	00000073          	ecall
    800007b4:	c0001073          	unimp
    800007b8:	0000                	unimp
    800007ba:	0000                	unimp
