
queue.elf:     file format elf32-littleriscv


Disassembly of section .text:

80000000 <main>:
80000000:	fd010113          	addi	sp,sp,-48
80000004:	02112623          	sw	ra,44(sp)
80000008:	02812423          	sw	s0,40(sp)
8000000c:	03010413          	addi	s0,sp,48
80000010:	800007b7          	lui	a5,0x80000
80000014:	5e078793          	addi	a5,a5,1504 # 800005e0 <y+0xff0004b4>
80000018:	fef42023          	sw	a5,-32(s0)
8000001c:	810007b7          	lui	a5,0x81000
80000020:	0ec78793          	addi	a5,a5,236 # 810000ec <y+0xffffffc0>
80000024:	fef42223          	sw	a5,-28(s0)
80000028:	810007b7          	lui	a5,0x81000
8000002c:	12c78793          	addi	a5,a5,300 # 8100012c <y+0x0>
80000030:	fef42423          	sw	a5,-24(s0)
80000034:	810007b7          	lui	a5,0x81000
80000038:	00078793          	mv	a5,a5
8000003c:	fef42623          	sw	a5,-20(s0)
80000040:	fe042603          	lw	a2,-32(s0)
80000044:	fe442683          	lw	a3,-28(s0)
80000048:	fe842703          	lw	a4,-24(s0)
8000004c:	fec42783          	lw	a5,-20(s0)
80000050:	fcc42823          	sw	a2,-48(s0)
80000054:	fcd42a23          	sw	a3,-44(s0)
80000058:	fce42c23          	sw	a4,-40(s0)
8000005c:	fcf42e23          	sw	a5,-36(s0)
80000060:	fd040793          	addi	a5,s0,-48
80000064:	00078513          	mv	a0,a5
80000068:	390000ef          	jal	ra,800003f8 <enqueue>
8000006c:	fe042603          	lw	a2,-32(s0)
80000070:	fe442683          	lw	a3,-28(s0)
80000074:	fe842703          	lw	a4,-24(s0)
80000078:	fec42783          	lw	a5,-20(s0)
8000007c:	fcc42823          	sw	a2,-48(s0)
80000080:	fcd42a23          	sw	a3,-44(s0)
80000084:	fce42c23          	sw	a4,-40(s0)
80000088:	fcf42e23          	sw	a5,-36(s0)
8000008c:	fd040793          	addi	a5,s0,-48
80000090:	00078513          	mv	a0,a5
80000094:	364000ef          	jal	ra,800003f8 <enqueue>
80000098:	fe042603          	lw	a2,-32(s0)
8000009c:	fe442683          	lw	a3,-28(s0)
800000a0:	fe842703          	lw	a4,-24(s0)
800000a4:	fec42783          	lw	a5,-20(s0)
800000a8:	fcc42823          	sw	a2,-48(s0)
800000ac:	fcd42a23          	sw	a3,-44(s0)
800000b0:	fce42c23          	sw	a4,-40(s0)
800000b4:	fcf42e23          	sw	a5,-36(s0)
800000b8:	fd040793          	addi	a5,s0,-48
800000bc:	00078513          	mv	a0,a5
800000c0:	338000ef          	jal	ra,800003f8 <enqueue>
800000c4:	fe042603          	lw	a2,-32(s0)
800000c8:	fe442683          	lw	a3,-28(s0)
800000cc:	fe842703          	lw	a4,-24(s0)
800000d0:	fec42783          	lw	a5,-20(s0)
800000d4:	fcc42823          	sw	a2,-48(s0)
800000d8:	fcd42a23          	sw	a3,-44(s0)
800000dc:	fce42c23          	sw	a4,-40(s0)
800000e0:	fcf42e23          	sw	a5,-36(s0)
800000e4:	fd040793          	addi	a5,s0,-48
800000e8:	00078513          	mv	a0,a5
800000ec:	30c000ef          	jal	ra,800003f8 <enqueue>
800000f0:	fe042603          	lw	a2,-32(s0)
800000f4:	fe442683          	lw	a3,-28(s0)
800000f8:	fe842703          	lw	a4,-24(s0)
800000fc:	fec42783          	lw	a5,-20(s0)
80000100:	fcc42823          	sw	a2,-48(s0)
80000104:	fcd42a23          	sw	a3,-44(s0)
80000108:	fce42c23          	sw	a4,-40(s0)
8000010c:	fcf42e23          	sw	a5,-36(s0)
80000110:	fd040793          	addi	a5,s0,-48
80000114:	00078513          	mv	a0,a5
80000118:	2e0000ef          	jal	ra,800003f8 <enqueue>
8000011c:	fe042603          	lw	a2,-32(s0)
80000120:	fe442683          	lw	a3,-28(s0)
80000124:	fe842703          	lw	a4,-24(s0)
80000128:	fec42783          	lw	a5,-20(s0)
8000012c:	fcc42823          	sw	a2,-48(s0)
80000130:	fcd42a23          	sw	a3,-44(s0)
80000134:	fce42c23          	sw	a4,-40(s0)
80000138:	fcf42e23          	sw	a5,-36(s0)
8000013c:	fd040793          	addi	a5,s0,-48
80000140:	00078513          	mv	a0,a5
80000144:	2b4000ef          	jal	ra,800003f8 <enqueue>
80000148:	fe040793          	addi	a5,s0,-32
8000014c:	00078513          	mv	a0,a5
80000150:	36c000ef          	jal	ra,800004bc <dequeue>
80000154:	fd040793          	addi	a5,s0,-48
80000158:	00078513          	mv	a0,a5
8000015c:	360000ef          	jal	ra,800004bc <dequeue>
80000160:	fd042603          	lw	a2,-48(s0)
80000164:	fd442683          	lw	a3,-44(s0)
80000168:	fd842703          	lw	a4,-40(s0)
8000016c:	fdc42783          	lw	a5,-36(s0)
80000170:	fec42023          	sw	a2,-32(s0)
80000174:	fed42223          	sw	a3,-28(s0)
80000178:	fee42423          	sw	a4,-24(s0)
8000017c:	fef42623          	sw	a5,-20(s0)
80000180:	fe042603          	lw	a2,-32(s0)
80000184:	fe442683          	lw	a3,-28(s0)
80000188:	fe842703          	lw	a4,-24(s0)
8000018c:	fec42783          	lw	a5,-20(s0)
80000190:	fcc42823          	sw	a2,-48(s0)
80000194:	fcd42a23          	sw	a3,-44(s0)
80000198:	fce42c23          	sw	a4,-40(s0)
8000019c:	fcf42e23          	sw	a5,-36(s0)
800001a0:	fd040793          	addi	a5,s0,-48
800001a4:	00078513          	mv	a0,a5
800001a8:	250000ef          	jal	ra,800003f8 <enqueue>
800001ac:	fe042603          	lw	a2,-32(s0)
800001b0:	fe442683          	lw	a3,-28(s0)
800001b4:	fe842703          	lw	a4,-24(s0)
800001b8:	fec42783          	lw	a5,-20(s0)
800001bc:	fcc42823          	sw	a2,-48(s0)
800001c0:	fcd42a23          	sw	a3,-44(s0)
800001c4:	fce42c23          	sw	a4,-40(s0)
800001c8:	fcf42e23          	sw	a5,-36(s0)
800001cc:	fd040793          	addi	a5,s0,-48
800001d0:	00078513          	mv	a0,a5
800001d4:	224000ef          	jal	ra,800003f8 <enqueue>
800001d8:	3a4000ef          	jal	ra,8000057c <isFull>
800001dc:	00050793          	mv	a5,a0
800001e0:	02079863          	bnez	a5,80000210 <main+0x210>
800001e4:	fe042603          	lw	a2,-32(s0)
800001e8:	fe442683          	lw	a3,-28(s0)
800001ec:	fe842703          	lw	a4,-24(s0)
800001f0:	fec42783          	lw	a5,-20(s0)
800001f4:	fcc42823          	sw	a2,-48(s0)
800001f8:	fcd42a23          	sw	a3,-44(s0)
800001fc:	fce42c23          	sw	a4,-40(s0)
80000200:	fcf42e23          	sw	a5,-36(s0)
80000204:	fd040793          	addi	a5,s0,-48
80000208:	00078513          	mv	a0,a5
8000020c:	1ec000ef          	jal	ra,800003f8 <enqueue>
80000210:	36c000ef          	jal	ra,8000057c <isFull>
80000214:	00050793          	mv	a5,a0
80000218:	02079863          	bnez	a5,80000248 <main+0x248>
8000021c:	fe042603          	lw	a2,-32(s0)
80000220:	fe442683          	lw	a3,-28(s0)
80000224:	fe842703          	lw	a4,-24(s0)
80000228:	fec42783          	lw	a5,-20(s0)
8000022c:	fcc42823          	sw	a2,-48(s0)
80000230:	fcd42a23          	sw	a3,-44(s0)
80000234:	fce42c23          	sw	a4,-40(s0)
80000238:	fcf42e23          	sw	a5,-36(s0)
8000023c:	fd040793          	addi	a5,s0,-48
80000240:	00078513          	mv	a0,a5
80000244:	1b4000ef          	jal	ra,800003f8 <enqueue>
80000248:	334000ef          	jal	ra,8000057c <isFull>
8000024c:	00050793          	mv	a5,a0
80000250:	02079863          	bnez	a5,80000280 <main+0x280>
80000254:	fe042603          	lw	a2,-32(s0)
80000258:	fe442683          	lw	a3,-28(s0)
8000025c:	fe842703          	lw	a4,-24(s0)
80000260:	fec42783          	lw	a5,-20(s0)
80000264:	fcc42823          	sw	a2,-48(s0)
80000268:	fcd42a23          	sw	a3,-44(s0)
8000026c:	fce42c23          	sw	a4,-40(s0)
80000270:	fcf42e23          	sw	a5,-36(s0)
80000274:	fd040793          	addi	a5,s0,-48
80000278:	00078513          	mv	a0,a5
8000027c:	17c000ef          	jal	ra,800003f8 <enqueue>
80000280:	2fc000ef          	jal	ra,8000057c <isFull>
80000284:	00050793          	mv	a5,a0
80000288:	02079863          	bnez	a5,800002b8 <main+0x2b8>
8000028c:	fe042603          	lw	a2,-32(s0)
80000290:	fe442683          	lw	a3,-28(s0)
80000294:	fe842703          	lw	a4,-24(s0)
80000298:	fec42783          	lw	a5,-20(s0)
8000029c:	fcc42823          	sw	a2,-48(s0)
800002a0:	fcd42a23          	sw	a3,-44(s0)
800002a4:	fce42c23          	sw	a4,-40(s0)
800002a8:	fcf42e23          	sw	a5,-36(s0)
800002ac:	fd040793          	addi	a5,s0,-48
800002b0:	00078513          	mv	a0,a5
800002b4:	144000ef          	jal	ra,800003f8 <enqueue>
800002b8:	2c4000ef          	jal	ra,8000057c <isFull>
800002bc:	00050793          	mv	a5,a0
800002c0:	02079863          	bnez	a5,800002f0 <main+0x2f0>
800002c4:	fe042603          	lw	a2,-32(s0)
800002c8:	fe442683          	lw	a3,-28(s0)
800002cc:	fe842703          	lw	a4,-24(s0)
800002d0:	fec42783          	lw	a5,-20(s0)
800002d4:	fcc42823          	sw	a2,-48(s0)
800002d8:	fcd42a23          	sw	a3,-44(s0)
800002dc:	fce42c23          	sw	a4,-40(s0)
800002e0:	fcf42e23          	sw	a5,-36(s0)
800002e4:	fd040793          	addi	a5,s0,-48
800002e8:	00078513          	mv	a0,a5
800002ec:	10c000ef          	jal	ra,800003f8 <enqueue>
800002f0:	28c000ef          	jal	ra,8000057c <isFull>
800002f4:	00050793          	mv	a5,a0
800002f8:	02079863          	bnez	a5,80000328 <main+0x328>
800002fc:	fe042603          	lw	a2,-32(s0)
80000300:	fe442683          	lw	a3,-28(s0)
80000304:	fe842703          	lw	a4,-24(s0)
80000308:	fec42783          	lw	a5,-20(s0)
8000030c:	fcc42823          	sw	a2,-48(s0)
80000310:	fcd42a23          	sw	a3,-44(s0)
80000314:	fce42c23          	sw	a4,-40(s0)
80000318:	fcf42e23          	sw	a5,-36(s0)
8000031c:	fd040793          	addi	a5,s0,-48
80000320:	00078513          	mv	a0,a5
80000324:	0d4000ef          	jal	ra,800003f8 <enqueue>
80000328:	fd040793          	addi	a5,s0,-48
8000032c:	00078513          	mv	a0,a5
80000330:	18c000ef          	jal	ra,800004bc <dequeue>
80000334:	fd040793          	addi	a5,s0,-48
80000338:	00078513          	mv	a0,a5
8000033c:	180000ef          	jal	ra,800004bc <dequeue>
80000340:	fd040793          	addi	a5,s0,-48
80000344:	00078513          	mv	a0,a5
80000348:	174000ef          	jal	ra,800004bc <dequeue>
8000034c:	fd040793          	addi	a5,s0,-48
80000350:	00078513          	mv	a0,a5
80000354:	168000ef          	jal	ra,800004bc <dequeue>
80000358:	fd040793          	addi	a5,s0,-48
8000035c:	00078513          	mv	a0,a5
80000360:	15c000ef          	jal	ra,800004bc <dequeue>
80000364:	fd040793          	addi	a5,s0,-48
80000368:	00078513          	mv	a0,a5
8000036c:	150000ef          	jal	ra,800004bc <dequeue>
80000370:	fd040793          	addi	a5,s0,-48
80000374:	00078513          	mv	a0,a5
80000378:	144000ef          	jal	ra,800004bc <dequeue>
8000037c:	fd040793          	addi	a5,s0,-48
80000380:	00078513          	mv	a0,a5
80000384:	138000ef          	jal	ra,800004bc <dequeue>
80000388:	fd040793          	addi	a5,s0,-48
8000038c:	00078513          	mv	a0,a5
80000390:	12c000ef          	jal	ra,800004bc <dequeue>
80000394:	fd040793          	addi	a5,s0,-48
80000398:	00078513          	mv	a0,a5
8000039c:	120000ef          	jal	ra,800004bc <dequeue>
800003a0:	00000793          	li	a5,0
800003a4:	00078513          	mv	a0,a5
800003a8:	02c12083          	lw	ra,44(sp)
800003ac:	02812403          	lw	s0,40(sp)
800003b0:	03010113          	addi	sp,sp,48
800003b4:	00008067          	ret

800003b8 <initialize_queue>:
800003b8:	ff010113          	addi	sp,sp,-16
800003bc:	00812623          	sw	s0,12(sp)
800003c0:	01010413          	addi	s0,sp,16
800003c4:	810007b7          	lui	a5,0x81000
800003c8:	04078793          	addi	a5,a5,64 # 81000040 <y+0xffffff14>
800003cc:	0a07a023          	sw	zero,160(a5)
800003d0:	810007b7          	lui	a5,0x81000
800003d4:	04078793          	addi	a5,a5,64 # 81000040 <y+0xffffff14>
800003d8:	0a07a223          	sw	zero,164(a5)
800003dc:	810007b7          	lui	a5,0x81000
800003e0:	04078793          	addi	a5,a5,64 # 81000040 <y+0xffffff14>
800003e4:	0a07a423          	sw	zero,168(a5)
800003e8:	00000013          	nop
800003ec:	00c12403          	lw	s0,12(sp)
800003f0:	01010113          	addi	sp,sp,16
800003f4:	00008067          	ret

800003f8 <enqueue>:
800003f8:	ff010113          	addi	sp,sp,-16
800003fc:	00812623          	sw	s0,12(sp)
80000400:	00912423          	sw	s1,8(sp)
80000404:	01010413          	addi	s0,sp,16
80000408:	00050493          	mv	s1,a0
8000040c:	810007b7          	lui	a5,0x81000
80000410:	04078793          	addi	a5,a5,64 # 81000040 <y+0xffffff14>
80000414:	0a87a783          	lw	a5,168(a5)
80000418:	00178713          	addi	a4,a5,1
8000041c:	810007b7          	lui	a5,0x81000
80000420:	04078793          	addi	a5,a5,64 # 81000040 <y+0xffffff14>
80000424:	0ae7a423          	sw	a4,168(a5)
80000428:	810007b7          	lui	a5,0x81000
8000042c:	04078793          	addi	a5,a5,64 # 81000040 <y+0xffffff14>
80000430:	0a47a703          	lw	a4,164(a5)
80000434:	810007b7          	lui	a5,0x81000
80000438:	00471713          	slli	a4,a4,0x4
8000043c:	04078793          	addi	a5,a5,64 # 81000040 <y+0xffffff14>
80000440:	00f707b3          	add	a5,a4,a5
80000444:	0004a583          	lw	a1,0(s1)
80000448:	0044a603          	lw	a2,4(s1)
8000044c:	0084a683          	lw	a3,8(s1)
80000450:	00c4a703          	lw	a4,12(s1)
80000454:	00b7a023          	sw	a1,0(a5)
80000458:	00c7a223          	sw	a2,4(a5)
8000045c:	00d7a423          	sw	a3,8(a5)
80000460:	00e7a623          	sw	a4,12(a5)
80000464:	810007b7          	lui	a5,0x81000
80000468:	04078793          	addi	a5,a5,64 # 81000040 <y+0xffffff14>
8000046c:	0a47a783          	lw	a5,164(a5)
80000470:	00178713          	addi	a4,a5,1
80000474:	00900793          	li	a5,9
80000478:	02e7e263          	bltu	a5,a4,8000049c <enqueue+0xa4>
8000047c:	810007b7          	lui	a5,0x81000
80000480:	04078793          	addi	a5,a5,64 # 81000040 <y+0xffffff14>
80000484:	0a47a783          	lw	a5,164(a5)
80000488:	00178713          	addi	a4,a5,1
8000048c:	810007b7          	lui	a5,0x81000
80000490:	04078793          	addi	a5,a5,64 # 81000040 <y+0xffffff14>
80000494:	0ae7a223          	sw	a4,164(a5)
80000498:	0100006f          	j	800004a8 <enqueue+0xb0>
8000049c:	810007b7          	lui	a5,0x81000
800004a0:	04078793          	addi	a5,a5,64 # 81000040 <y+0xffffff14>
800004a4:	0a07a223          	sw	zero,164(a5)
800004a8:	00000013          	nop
800004ac:	00c12403          	lw	s0,12(sp)
800004b0:	00812483          	lw	s1,8(sp)
800004b4:	01010113          	addi	sp,sp,16
800004b8:	00008067          	ret

800004bc <dequeue>:
800004bc:	fd010113          	addi	sp,sp,-48
800004c0:	02812623          	sw	s0,44(sp)
800004c4:	03010413          	addi	s0,sp,48
800004c8:	fca42e23          	sw	a0,-36(s0)
800004cc:	810007b7          	lui	a5,0x81000
800004d0:	04078793          	addi	a5,a5,64 # 81000040 <y+0xffffff14>
800004d4:	0a87a783          	lw	a5,168(a5)
800004d8:	fff78713          	addi	a4,a5,-1
800004dc:	810007b7          	lui	a5,0x81000
800004e0:	04078793          	addi	a5,a5,64 # 81000040 <y+0xffffff14>
800004e4:	0ae7a423          	sw	a4,168(a5)
800004e8:	810007b7          	lui	a5,0x81000
800004ec:	04078793          	addi	a5,a5,64 # 81000040 <y+0xffffff14>
800004f0:	0a07a703          	lw	a4,160(a5)
800004f4:	810007b7          	lui	a5,0x81000
800004f8:	00471713          	slli	a4,a4,0x4
800004fc:	04078793          	addi	a5,a5,64 # 81000040 <y+0xffffff14>
80000500:	00f707b3          	add	a5,a4,a5
80000504:	0007a603          	lw	a2,0(a5)
80000508:	0047a683          	lw	a3,4(a5)
8000050c:	0087a703          	lw	a4,8(a5)
80000510:	00c7a783          	lw	a5,12(a5)
80000514:	fec42023          	sw	a2,-32(s0)
80000518:	fed42223          	sw	a3,-28(s0)
8000051c:	fee42423          	sw	a4,-24(s0)
80000520:	fef42623          	sw	a5,-20(s0)
80000524:	810007b7          	lui	a5,0x81000
80000528:	04078793          	addi	a5,a5,64 # 81000040 <y+0xffffff14>
8000052c:	0a07a783          	lw	a5,160(a5)
80000530:	00178713          	addi	a4,a5,1
80000534:	00900793          	li	a5,9
80000538:	02e7e263          	bltu	a5,a4,8000055c <dequeue+0xa0>
8000053c:	810007b7          	lui	a5,0x81000
80000540:	04078793          	addi	a5,a5,64 # 81000040 <y+0xffffff14>
80000544:	0a07a783          	lw	a5,160(a5)
80000548:	00178713          	addi	a4,a5,1
8000054c:	810007b7          	lui	a5,0x81000
80000550:	04078793          	addi	a5,a5,64 # 81000040 <y+0xffffff14>
80000554:	0ae7a023          	sw	a4,160(a5)
80000558:	0100006f          	j	80000568 <dequeue+0xac>
8000055c:	810007b7          	lui	a5,0x81000
80000560:	04078793          	addi	a5,a5,64 # 81000040 <y+0xffffff14>
80000564:	0a07a023          	sw	zero,160(a5)
80000568:	00000013          	nop
8000056c:	fdc42503          	lw	a0,-36(s0)
80000570:	02c12403          	lw	s0,44(sp)
80000574:	03010113          	addi	sp,sp,48
80000578:	00008067          	ret

8000057c <isFull>:
8000057c:	ff010113          	addi	sp,sp,-16
80000580:	00812623          	sw	s0,12(sp)
80000584:	01010413          	addi	s0,sp,16
80000588:	810007b7          	lui	a5,0x81000
8000058c:	04078793          	addi	a5,a5,64 # 81000040 <y+0xffffff14>
80000590:	0a87a783          	lw	a5,168(a5)
80000594:	ff678793          	addi	a5,a5,-10
80000598:	0017b793          	seqz	a5,a5
8000059c:	0ff7f793          	andi	a5,a5,255
800005a0:	00078513          	mv	a0,a5
800005a4:	00c12403          	lw	s0,12(sp)
800005a8:	01010113          	addi	sp,sp,16
800005ac:	00008067          	ret

800005b0 <isEmpty>:
800005b0:	ff010113          	addi	sp,sp,-16
800005b4:	00812623          	sw	s0,12(sp)
800005b8:	01010413          	addi	s0,sp,16
800005bc:	810007b7          	lui	a5,0x81000
800005c0:	04078793          	addi	a5,a5,64 # 81000040 <y+0xffffff14>
800005c4:	0a87a783          	lw	a5,168(a5)
800005c8:	0017b793          	seqz	a5,a5
800005cc:	0ff7f793          	andi	a5,a5,255
800005d0:	00078513          	mv	a0,a5
800005d4:	00c12403          	lw	s0,12(sp)
800005d8:	01010113          	addi	sp,sp,16
800005dc:	00008067          	ret

800005e0 <func>:
800005e0:	ff010113          	addi	sp,sp,-16
800005e4:	00812623          	sw	s0,12(sp)
800005e8:	01010413          	addi	s0,sp,16
800005ec:	00000013          	nop
800005f0:	00c12403          	lw	s0,12(sp)
800005f4:	01010113          	addi	sp,sp,16
800005f8:	00008067          	ret

Disassembly of section .bss:

81000000 <z>:
	...

81000040 <q>:
	...

Disassembly of section .data:

810000ec <x>:
810000ec:	0001                	nop
810000ee:	0000                	unimp
810000f0:	0001                	nop
810000f2:	0000                	unimp
810000f4:	0006                	c.slli	zero,0x1
810000f6:	0000                	unimp
810000f8:	0000                	unimp
810000fa:	0000                	unimp
810000fc:	00000003          	lb	zero,0(zero) # 0 <main-0x80000000>
81000100:	0001                	nop
81000102:	0000                	unimp
81000104:	0001                	nop
81000106:	0000                	unimp
81000108:	0002                	c.slli64	zero
8100010a:	0000                	unimp
8100010c:	0000                	unimp
8100010e:	0000                	unimp
81000110:	00000003          	lb	zero,0(zero) # 0 <main-0x80000000>
81000114:	0006                	c.slli	zero,0x1
81000116:	0000                	unimp
81000118:	00000007          	0x7
8100011c:	0005                	c.nop	1
8100011e:	0000                	unimp
81000120:	00000007          	0x7
81000124:	00000007          	0x7
81000128:	0009                	c.nop	2
	...

8100012c <y>:
8100012c:	0000                	unimp
8100012e:	0000                	unimp
81000130:	0002                	c.slli64	zero
81000132:	0000                	unimp
81000134:	0002                	c.slli64	zero
81000136:	0000                	unimp
81000138:	0000                	unimp
8100013a:	0000                	unimp
8100013c:	0005                	c.nop	1
8100013e:	0000                	unimp
81000140:	0000                	unimp
81000142:	0000                	unimp
81000144:	0001                	nop
81000146:	0000                	unimp
81000148:	0001                	nop
8100014a:	0000                	unimp
8100014c:	0004                	0x4
8100014e:	0000                	unimp
81000150:	0002                	c.slli64	zero
	...
8100015a:	0000                	unimp
8100015c:	00000003          	lb	zero,0(zero) # 0 <main-0x80000000>
81000160:	0002                	c.slli64	zero
81000162:	0000                	unimp
81000164:	00000003          	lb	zero,0(zero) # 0 <main-0x80000000>
81000168:	0002                	c.slli64	zero
	...

Disassembly of section .comment:

82000000 <.comment>:
82000000:	3a434347          	fmsub.d	ft6,ft6,ft4,ft7,rmm
82000004:	2820                	fld	fs0,80(s0)
82000006:	29554e47          	fmsub.s	ft8,fa0,fs5,ft5,rmm
8200000a:	3820                	fld	fs0,112(s0)
8200000c:	322e                	fld	ft4,232(sp)
8200000e:	302e                	fld	ft0,232(sp)
	...
