
rv32ui-p-addi:     file format elf32-littleriscv


Disassembly of section .text.init:

80000000 <_start>:
80000000:	04c0006f          	j	8000004c <reset_vector>

80000004 <trap_vector>:
80000004:	34202f73          	csrr	t5,mcause
80000008:	00800f93          	li	t6,8
8000000c:	03ff0a63          	beq	t5,t6,80000040 <write_tohost>
80000010:	00900f93          	li	t6,9
80000014:	03ff0663          	beq	t5,t6,80000040 <write_tohost>
80000018:	00b00f93          	li	t6,11
8000001c:	03ff0263          	beq	t5,t6,80000040 <write_tohost>
80000020:	80000f17          	auipc	t5,0x80000
80000024:	fe0f0f13          	addi	t5,t5,-32 # 0 <_start-0x80000000>
80000028:	000f0463          	beqz	t5,80000030 <trap_vector+0x2c>
8000002c:	000f0067          	jr	t5
80000030:	34202f73          	csrr	t5,mcause
80000034:	000f5463          	bgez	t5,8000003c <handle_exception>
80000038:	0040006f          	j	8000003c <handle_exception>

8000003c <handle_exception>:
8000003c:	5391e193          	ori	gp,gp,1337

80000040 <write_tohost>:
80000040:	00001f17          	auipc	t5,0x1
80000044:	fc3f2023          	sw	gp,-64(t5) # 80001000 <tohost>
80000048:	ff9ff06f          	j	80000040 <write_tohost>

8000004c <reset_vector>:
8000004c:	f1402573          	csrr	a0,mhartid
80000050:	00051063          	bnez	a0,80000050 <reset_vector+0x4>
80000054:	00000297          	auipc	t0,0x0
80000058:	01028293          	addi	t0,t0,16 # 80000064 <reset_vector+0x18>
8000005c:	30529073          	csrw	mtvec,t0
80000060:	18005073          	csrwi	satp,0
80000064:	00000297          	auipc	t0,0x0
80000068:	02028293          	addi	t0,t0,32 # 80000084 <reset_vector+0x38>
8000006c:	30529073          	csrw	mtvec,t0
80000070:	800002b7          	lui	t0,0x80000
80000074:	fff28293          	addi	t0,t0,-1 # 7fffffff <_end+0xffffdfff>
80000078:	3b029073          	csrw	pmpaddr0,t0
8000007c:	01f00293          	li	t0,31
80000080:	3a029073          	csrw	pmpcfg0,t0
80000084:	00000297          	auipc	t0,0x0
80000088:	01828293          	addi	t0,t0,24 # 8000009c <reset_vector+0x50>
8000008c:	30529073          	csrw	mtvec,t0
80000090:	30205073          	csrwi	medeleg,0
80000094:	30305073          	csrwi	mideleg,0
80000098:	30405073          	csrwi	mie,0
8000009c:	00000193          	li	gp,0
800000a0:	00000297          	auipc	t0,0x0
800000a4:	f6428293          	addi	t0,t0,-156 # 80000004 <trap_vector>
800000a8:	30529073          	csrw	mtvec,t0
800000ac:	00100513          	li	a0,1
800000b0:	01f51513          	slli	a0,a0,0x1f
800000b4:	00054c63          	bltz	a0,800000cc <reset_vector+0x80>
800000b8:	0ff0000f          	fence
800000bc:	00100193          	li	gp,1
800000c0:	05d00893          	li	a7,93
800000c4:	00000513          	li	a0,0
800000c8:	00000073          	ecall
800000cc:	80000297          	auipc	t0,0x80000
800000d0:	f3428293          	addi	t0,t0,-204 # 0 <_start-0x80000000>
800000d4:	00028e63          	beqz	t0,800000f0 <reset_vector+0xa4>
800000d8:	10529073          	csrw	stvec,t0
800000dc:	0000b2b7          	lui	t0,0xb
800000e0:	10928293          	addi	t0,t0,265 # b109 <_start-0x7fff4ef7>
800000e4:	30229073          	csrw	medeleg,t0
800000e8:	30202373          	csrr	t1,medeleg
800000ec:	f46298e3          	bne	t0,t1,8000003c <handle_exception>
800000f0:	30005073          	csrwi	mstatus,0
800000f4:	00000297          	auipc	t0,0x0
800000f8:	01428293          	addi	t0,t0,20 # 80000108 <test_2>
800000fc:	34129073          	csrw	mepc,t0
80000100:	f1402573          	csrr	a0,mhartid
80000104:	30200073          	mret

80000108 <test_2>:
80000108:	00000093          	li	ra,0
8000010c:	00008713          	mv	a4,ra
80000110:	00000e93          	li	t4,0
80000114:	00200193          	li	gp,2
80000118:	27d71c63          	bne	a4,t4,80000390 <fail>

8000011c <test_3>:
8000011c:	00100093          	li	ra,1
80000120:	00108713          	addi	a4,ra,1
80000124:	00200e93          	li	t4,2
80000128:	00300193          	li	gp,3
8000012c:	27d71263          	bne	a4,t4,80000390 <fail>

80000130 <test_4>:
80000130:	00300093          	li	ra,3
80000134:	00708713          	addi	a4,ra,7
80000138:	00a00e93          	li	t4,10
8000013c:	00400193          	li	gp,4
80000140:	25d71863          	bne	a4,t4,80000390 <fail>

80000144 <test_5>:
80000144:	00000093          	li	ra,0
80000148:	80008713          	addi	a4,ra,-2048
8000014c:	80000e93          	li	t4,-2048
80000150:	00500193          	li	gp,5
80000154:	23d71e63          	bne	a4,t4,80000390 <fail>

80000158 <test_6>:
80000158:	800000b7          	lui	ra,0x80000
8000015c:	00008713          	mv	a4,ra
80000160:	80000eb7          	lui	t4,0x80000
80000164:	00600193          	li	gp,6
80000168:	23d71463          	bne	a4,t4,80000390 <fail>

8000016c <test_7>:
8000016c:	800000b7          	lui	ra,0x80000
80000170:	80008713          	addi	a4,ra,-2048 # 7ffff800 <_end+0xffffd800>
80000174:	80000eb7          	lui	t4,0x80000
80000178:	800e8e93          	addi	t4,t4,-2048 # 7ffff800 <_end+0xffffd800>
8000017c:	00700193          	li	gp,7
80000180:	21d71863          	bne	a4,t4,80000390 <fail>

80000184 <test_8>:
80000184:	00000093          	li	ra,0
80000188:	7ff08713          	addi	a4,ra,2047
8000018c:	7ff00e93          	li	t4,2047
80000190:	00800193          	li	gp,8
80000194:	1fd71e63          	bne	a4,t4,80000390 <fail>

80000198 <test_9>:
80000198:	800000b7          	lui	ra,0x80000
8000019c:	fff08093          	addi	ra,ra,-1 # 7fffffff <_end+0xffffdfff>
800001a0:	00008713          	mv	a4,ra
800001a4:	80000eb7          	lui	t4,0x80000
800001a8:	fffe8e93          	addi	t4,t4,-1 # 7fffffff <_end+0xffffdfff>
800001ac:	00900193          	li	gp,9
800001b0:	1fd71063          	bne	a4,t4,80000390 <fail>

800001b4 <test_10>:
800001b4:	800000b7          	lui	ra,0x80000
800001b8:	fff08093          	addi	ra,ra,-1 # 7fffffff <_end+0xffffdfff>
800001bc:	7ff08713          	addi	a4,ra,2047
800001c0:	80000eb7          	lui	t4,0x80000
800001c4:	7fee8e93          	addi	t4,t4,2046 # 800007fe <_end+0xffffe7fe>
800001c8:	00a00193          	li	gp,10
800001cc:	1dd71263          	bne	a4,t4,80000390 <fail>

800001d0 <test_11>:
800001d0:	800000b7          	lui	ra,0x80000
800001d4:	7ff08713          	addi	a4,ra,2047 # 800007ff <_end+0xffffe7ff>
800001d8:	80000eb7          	lui	t4,0x80000
800001dc:	7ffe8e93          	addi	t4,t4,2047 # 800007ff <_end+0xffffe7ff>
800001e0:	00b00193          	li	gp,11
800001e4:	1bd71663          	bne	a4,t4,80000390 <fail>

800001e8 <test_12>:
800001e8:	800000b7          	lui	ra,0x80000
800001ec:	fff08093          	addi	ra,ra,-1 # 7fffffff <_end+0xffffdfff>
800001f0:	80008713          	addi	a4,ra,-2048
800001f4:	7ffffeb7          	lui	t4,0x7ffff
800001f8:	7ffe8e93          	addi	t4,t4,2047 # 7ffff7ff <_start-0x801>
800001fc:	00c00193          	li	gp,12
80000200:	19d71863          	bne	a4,t4,80000390 <fail>

80000204 <test_13>:
80000204:	00000093          	li	ra,0
80000208:	fff08713          	addi	a4,ra,-1
8000020c:	fff00e93          	li	t4,-1
80000210:	00d00193          	li	gp,13
80000214:	17d71e63          	bne	a4,t4,80000390 <fail>

80000218 <test_14>:
80000218:	fff00093          	li	ra,-1
8000021c:	00108713          	addi	a4,ra,1
80000220:	00000e93          	li	t4,0
80000224:	00e00193          	li	gp,14
80000228:	17d71463          	bne	a4,t4,80000390 <fail>

8000022c <test_15>:
8000022c:	fff00093          	li	ra,-1
80000230:	fff08713          	addi	a4,ra,-1
80000234:	ffe00e93          	li	t4,-2
80000238:	00f00193          	li	gp,15
8000023c:	15d71a63          	bne	a4,t4,80000390 <fail>

80000240 <test_16>:
80000240:	800000b7          	lui	ra,0x80000
80000244:	fff08093          	addi	ra,ra,-1 # 7fffffff <_end+0xffffdfff>
80000248:	00108713          	addi	a4,ra,1
8000024c:	80000eb7          	lui	t4,0x80000
80000250:	01000193          	li	gp,16
80000254:	13d71e63          	bne	a4,t4,80000390 <fail>

80000258 <test_17>:
80000258:	00d00093          	li	ra,13
8000025c:	00b08093          	addi	ra,ra,11
80000260:	01800e93          	li	t4,24
80000264:	01100193          	li	gp,17
80000268:	13d09463          	bne	ra,t4,80000390 <fail>

8000026c <test_18>:
8000026c:	00000213          	li	tp,0
80000270:	00d00093          	li	ra,13
80000274:	00b08713          	addi	a4,ra,11
80000278:	00070313          	mv	t1,a4
8000027c:	00120213          	addi	tp,tp,1 # 1 <_start-0x7fffffff>
80000280:	00200293          	li	t0,2
80000284:	fe5216e3          	bne	tp,t0,80000270 <test_18+0x4>
80000288:	01800e93          	li	t4,24
8000028c:	01200193          	li	gp,18
80000290:	11d31063          	bne	t1,t4,80000390 <fail>

80000294 <test_19>:
80000294:	00000213          	li	tp,0
80000298:	00d00093          	li	ra,13
8000029c:	00a08713          	addi	a4,ra,10
800002a0:	00000013          	nop
800002a4:	00070313          	mv	t1,a4
800002a8:	00120213          	addi	tp,tp,1 # 1 <_start-0x7fffffff>
800002ac:	00200293          	li	t0,2
800002b0:	fe5214e3          	bne	tp,t0,80000298 <test_19+0x4>
800002b4:	01700e93          	li	t4,23
800002b8:	01300193          	li	gp,19
800002bc:	0dd31a63          	bne	t1,t4,80000390 <fail>

800002c0 <test_20>:
800002c0:	00000213          	li	tp,0
800002c4:	00d00093          	li	ra,13
800002c8:	00908713          	addi	a4,ra,9
800002cc:	00000013          	nop
800002d0:	00000013          	nop
800002d4:	00070313          	mv	t1,a4
800002d8:	00120213          	addi	tp,tp,1 # 1 <_start-0x7fffffff>
800002dc:	00200293          	li	t0,2
800002e0:	fe5212e3          	bne	tp,t0,800002c4 <test_20+0x4>
800002e4:	01600e93          	li	t4,22
800002e8:	01400193          	li	gp,20
800002ec:	0bd31263          	bne	t1,t4,80000390 <fail>

800002f0 <test_21>:
800002f0:	00000213          	li	tp,0
800002f4:	00d00093          	li	ra,13
800002f8:	00b08713          	addi	a4,ra,11
800002fc:	00120213          	addi	tp,tp,1 # 1 <_start-0x7fffffff>
80000300:	00200293          	li	t0,2
80000304:	fe5218e3          	bne	tp,t0,800002f4 <test_21+0x4>
80000308:	01800e93          	li	t4,24
8000030c:	01500193          	li	gp,21
80000310:	09d71063          	bne	a4,t4,80000390 <fail>

80000314 <test_22>:
80000314:	00000213          	li	tp,0
80000318:	00d00093          	li	ra,13
8000031c:	00000013          	nop
80000320:	00a08713          	addi	a4,ra,10
80000324:	00120213          	addi	tp,tp,1 # 1 <_start-0x7fffffff>
80000328:	00200293          	li	t0,2
8000032c:	fe5216e3          	bne	tp,t0,80000318 <test_22+0x4>
80000330:	01700e93          	li	t4,23
80000334:	01600193          	li	gp,22
80000338:	05d71c63          	bne	a4,t4,80000390 <fail>

8000033c <test_23>:
8000033c:	00000213          	li	tp,0
80000340:	00d00093          	li	ra,13
80000344:	00000013          	nop
80000348:	00000013          	nop
8000034c:	00908713          	addi	a4,ra,9
80000350:	00120213          	addi	tp,tp,1 # 1 <_start-0x7fffffff>
80000354:	00200293          	li	t0,2
80000358:	fe5214e3          	bne	tp,t0,80000340 <test_23+0x4>
8000035c:	01600e93          	li	t4,22
80000360:	01700193          	li	gp,23
80000364:	03d71663          	bne	a4,t4,80000390 <fail>

80000368 <test_24>:
80000368:	02000093          	li	ra,32
8000036c:	02000e93          	li	t4,32
80000370:	01800193          	li	gp,24
80000374:	01d09e63          	bne	ra,t4,80000390 <fail>

80000378 <test_25>:
80000378:	02100093          	li	ra,33
8000037c:	03208013          	addi	zero,ra,50
80000380:	00000e93          	li	t4,0
80000384:	01900193          	li	gp,25
80000388:	01d01463          	bne	zero,t4,80000390 <fail>
8000038c:	02301063          	bne	zero,gp,800003ac <pass>

80000390 <fail>:
80000390:	0ff0000f          	fence
80000394:	00018063          	beqz	gp,80000394 <fail+0x4>
80000398:	00119193          	slli	gp,gp,0x1
8000039c:	0011e193          	ori	gp,gp,1
800003a0:	05d00893          	li	a7,93
800003a4:	00018513          	mv	a0,gp
800003a8:	00000073          	ecall

800003ac <pass>:
800003ac:	0ff0000f          	fence
800003b0:	00100193          	li	gp,1
800003b4:	05d00893          	li	a7,93
800003b8:	00000513          	li	a0,0
800003bc:	00000073          	ecall
800003c0:	c0001073          	unimp
