
rv32um-p-mulhu:     file format elf32-littleriscv


Disassembly of section .text.init:

80000000 <_start>:
80000000:	04c0006f          	j	8000004c <reset_vector>

80000004 <trap_vector>:
80000004:	34202f73          	csrr	t5,mcause
80000008:	00800f93          	li	t6,8
8000000c:	03ff0a63          	beq	t5,t6,80000040 <write_tohost>
80000010:	00900f93          	li	t6,9
80000014:	03ff0663          	beq	t5,t6,80000040 <write_tohost>
80000018:	00b00f93          	li	t6,11
8000001c:	03ff0263          	beq	t5,t6,80000040 <write_tohost>
80000020:	80000f17          	auipc	t5,0x80000
80000024:	fe0f0f13          	addi	t5,t5,-32 # 0 <_start-0x80000000>
80000028:	000f0463          	beqz	t5,80000030 <trap_vector+0x2c>
8000002c:	000f0067          	jr	t5
80000030:	34202f73          	csrr	t5,mcause
80000034:	000f5463          	bgez	t5,8000003c <handle_exception>
80000038:	0040006f          	j	8000003c <handle_exception>

8000003c <handle_exception>:
8000003c:	5391e193          	ori	gp,gp,1337

80000040 <write_tohost>:
80000040:	00001f17          	auipc	t5,0x1
80000044:	fc3f2023          	sw	gp,-64(t5) # 80001000 <tohost>
80000048:	ff9ff06f          	j	80000040 <write_tohost>

8000004c <reset_vector>:
8000004c:	f1402573          	csrr	a0,mhartid
80000050:	00051063          	bnez	a0,80000050 <reset_vector+0x4>
80000054:	00000297          	auipc	t0,0x0
80000058:	01028293          	addi	t0,t0,16 # 80000064 <reset_vector+0x18>
8000005c:	30529073          	csrw	mtvec,t0
80000060:	18005073          	csrwi	satp,0
80000064:	00000297          	auipc	t0,0x0
80000068:	02028293          	addi	t0,t0,32 # 80000084 <reset_vector+0x38>
8000006c:	30529073          	csrw	mtvec,t0
80000070:	800002b7          	lui	t0,0x80000
80000074:	fff28293          	addi	t0,t0,-1 # 7fffffff <_end+0xffffdfff>
80000078:	3b029073          	csrw	pmpaddr0,t0
8000007c:	01f00293          	li	t0,31
80000080:	3a029073          	csrw	pmpcfg0,t0
80000084:	00000297          	auipc	t0,0x0
80000088:	01828293          	addi	t0,t0,24 # 8000009c <reset_vector+0x50>
8000008c:	30529073          	csrw	mtvec,t0
80000090:	30205073          	csrwi	medeleg,0
80000094:	30305073          	csrwi	mideleg,0
80000098:	30405073          	csrwi	mie,0
8000009c:	00000193          	li	gp,0
800000a0:	00000297          	auipc	t0,0x0
800000a4:	f6428293          	addi	t0,t0,-156 # 80000004 <trap_vector>
800000a8:	30529073          	csrw	mtvec,t0
800000ac:	00100513          	li	a0,1
800000b0:	01f51513          	slli	a0,a0,0x1f
800000b4:	00054863          	bltz	a0,800000c4 <reset_vector+0x78>
800000b8:	0ff0000f          	fence
800000bc:	00100193          	li	gp,1
800000c0:	00000073          	ecall
800000c4:	80000297          	auipc	t0,0x80000
800000c8:	f3c28293          	addi	t0,t0,-196 # 0 <_start-0x80000000>
800000cc:	00028e63          	beqz	t0,800000e8 <reset_vector+0x9c>
800000d0:	10529073          	csrw	stvec,t0
800000d4:	0000b2b7          	lui	t0,0xb
800000d8:	10928293          	addi	t0,t0,265 # b109 <_start-0x7fff4ef7>
800000dc:	30229073          	csrw	medeleg,t0
800000e0:	30202373          	csrr	t1,medeleg
800000e4:	f4629ce3          	bne	t0,t1,8000003c <handle_exception>
800000e8:	30005073          	csrwi	mstatus,0
800000ec:	00000297          	auipc	t0,0x0
800000f0:	01428293          	addi	t0,t0,20 # 80000100 <test_2>
800000f4:	34129073          	csrw	mepc,t0
800000f8:	f1402573          	csrr	a0,mhartid
800000fc:	30200073          	mret

80000100 <test_2>:
80000100:	00000093          	li	ra,0
80000104:	00000113          	li	sp,0
80000108:	0220bf33          	mulhu	t5,ra,sp
8000010c:	00000e93          	li	t4,0
80000110:	00200193          	li	gp,2
80000114:	4bdf1a63          	bne	t5,t4,800005c8 <fail>

80000118 <test_3>:
80000118:	00100093          	li	ra,1
8000011c:	00100113          	li	sp,1
80000120:	0220bf33          	mulhu	t5,ra,sp
80000124:	00000e93          	li	t4,0
80000128:	00300193          	li	gp,3
8000012c:	49df1e63          	bne	t5,t4,800005c8 <fail>

80000130 <test_4>:
80000130:	00300093          	li	ra,3
80000134:	00700113          	li	sp,7
80000138:	0220bf33          	mulhu	t5,ra,sp
8000013c:	00000e93          	li	t4,0
80000140:	00400193          	li	gp,4
80000144:	49df1263          	bne	t5,t4,800005c8 <fail>

80000148 <test_5>:
80000148:	00000093          	li	ra,0
8000014c:	ffff8137          	lui	sp,0xffff8
80000150:	0220bf33          	mulhu	t5,ra,sp
80000154:	00000e93          	li	t4,0
80000158:	00500193          	li	gp,5
8000015c:	47df1663          	bne	t5,t4,800005c8 <fail>

80000160 <test_6>:
80000160:	800000b7          	lui	ra,0x80000
80000164:	00000113          	li	sp,0
80000168:	0220bf33          	mulhu	t5,ra,sp
8000016c:	00000e93          	li	t4,0
80000170:	00600193          	li	gp,6
80000174:	45df1a63          	bne	t5,t4,800005c8 <fail>

80000178 <test_7>:
80000178:	800000b7          	lui	ra,0x80000
8000017c:	ffff8137          	lui	sp,0xffff8
80000180:	0220bf33          	mulhu	t5,ra,sp
80000184:	7fffceb7          	lui	t4,0x7fffc
80000188:	00700193          	li	gp,7
8000018c:	43df1e63          	bne	t5,t4,800005c8 <fail>

80000190 <test_30>:
80000190:	aaaab0b7          	lui	ra,0xaaaab
80000194:	aab08093          	addi	ra,ra,-1365 # aaaaaaab <_end+0x2aaa8aab>
80000198:	00030137          	lui	sp,0x30
8000019c:	e7d10113          	addi	sp,sp,-387 # 2fe7d <_start-0x7ffd0183>
800001a0:	0220bf33          	mulhu	t5,ra,sp
800001a4:	00020eb7          	lui	t4,0x20
800001a8:	efee8e93          	addi	t4,t4,-258 # 1fefe <_start-0x7ffe0102>
800001ac:	01e00193          	li	gp,30
800001b0:	41df1c63          	bne	t5,t4,800005c8 <fail>

800001b4 <test_31>:
800001b4:	000300b7          	lui	ra,0x30
800001b8:	e7d08093          	addi	ra,ra,-387 # 2fe7d <_start-0x7ffd0183>
800001bc:	aaaab137          	lui	sp,0xaaaab
800001c0:	aab10113          	addi	sp,sp,-1365 # aaaaaaab <_end+0x2aaa8aab>
800001c4:	0220bf33          	mulhu	t5,ra,sp
800001c8:	00020eb7          	lui	t4,0x20
800001cc:	efee8e93          	addi	t4,t4,-258 # 1fefe <_start-0x7ffe0102>
800001d0:	01f00193          	li	gp,31
800001d4:	3fdf1a63          	bne	t5,t4,800005c8 <fail>

800001d8 <test_32>:
800001d8:	ff0000b7          	lui	ra,0xff000
800001dc:	ff000137          	lui	sp,0xff000
800001e0:	0220bf33          	mulhu	t5,ra,sp
800001e4:	fe010eb7          	lui	t4,0xfe010
800001e8:	02000193          	li	gp,32
800001ec:	3ddf1e63          	bne	t5,t4,800005c8 <fail>

800001f0 <test_33>:
800001f0:	fff00093          	li	ra,-1
800001f4:	fff00113          	li	sp,-1
800001f8:	0220bf33          	mulhu	t5,ra,sp
800001fc:	ffe00e93          	li	t4,-2
80000200:	02100193          	li	gp,33
80000204:	3ddf1263          	bne	t5,t4,800005c8 <fail>

80000208 <test_34>:
80000208:	fff00093          	li	ra,-1
8000020c:	00100113          	li	sp,1
80000210:	0220bf33          	mulhu	t5,ra,sp
80000214:	00000e93          	li	t4,0
80000218:	02200193          	li	gp,34
8000021c:	3bdf1663          	bne	t5,t4,800005c8 <fail>

80000220 <test_35>:
80000220:	00100093          	li	ra,1
80000224:	fff00113          	li	sp,-1
80000228:	0220bf33          	mulhu	t5,ra,sp
8000022c:	00000e93          	li	t4,0
80000230:	02300193          	li	gp,35
80000234:	39df1a63          	bne	t5,t4,800005c8 <fail>

80000238 <test_8>:
80000238:	00d000b7          	lui	ra,0xd00
8000023c:	00b00137          	lui	sp,0xb00
80000240:	0220b0b3          	mulhu	ra,ra,sp
80000244:	00009eb7          	lui	t4,0x9
80000248:	f00e8e93          	addi	t4,t4,-256 # 8f00 <_start-0x7fff7100>
8000024c:	00800193          	li	gp,8
80000250:	37d09c63          	bne	ra,t4,800005c8 <fail>

80000254 <test_9>:
80000254:	00e000b7          	lui	ra,0xe00
80000258:	00b00137          	lui	sp,0xb00
8000025c:	0220b133          	mulhu	sp,ra,sp
80000260:	0000aeb7          	lui	t4,0xa
80000264:	a00e8e93          	addi	t4,t4,-1536 # 9a00 <_start-0x7fff6600>
80000268:	00900193          	li	gp,9
8000026c:	35d11e63          	bne	sp,t4,800005c8 <fail>

80000270 <test_10>:
80000270:	00d000b7          	lui	ra,0xd00
80000274:	0210b0b3          	mulhu	ra,ra,ra
80000278:	0000beb7          	lui	t4,0xb
8000027c:	900e8e93          	addi	t4,t4,-1792 # a900 <_start-0x7fff5700>
80000280:	00a00193          	li	gp,10
80000284:	35d09263          	bne	ra,t4,800005c8 <fail>

80000288 <test_11>:
80000288:	00000213          	li	tp,0
8000028c:	00d000b7          	lui	ra,0xd00
80000290:	00b00137          	lui	sp,0xb00
80000294:	0220bf33          	mulhu	t5,ra,sp
80000298:	000f0313          	mv	t1,t5
8000029c:	00120213          	addi	tp,tp,1 # 1 <_start-0x7fffffff>
800002a0:	00200293          	li	t0,2
800002a4:	fe5214e3          	bne	tp,t0,8000028c <test_11+0x4>
800002a8:	00009eb7          	lui	t4,0x9
800002ac:	f00e8e93          	addi	t4,t4,-256 # 8f00 <_start-0x7fff7100>
800002b0:	00b00193          	li	gp,11
800002b4:	31d31a63          	bne	t1,t4,800005c8 <fail>

800002b8 <test_12>:
800002b8:	00000213          	li	tp,0
800002bc:	00e000b7          	lui	ra,0xe00
800002c0:	00b00137          	lui	sp,0xb00
800002c4:	0220bf33          	mulhu	t5,ra,sp
800002c8:	00000013          	nop
800002cc:	000f0313          	mv	t1,t5
800002d0:	00120213          	addi	tp,tp,1 # 1 <_start-0x7fffffff>
800002d4:	00200293          	li	t0,2
800002d8:	fe5212e3          	bne	tp,t0,800002bc <test_12+0x4>
800002dc:	0000aeb7          	lui	t4,0xa
800002e0:	a00e8e93          	addi	t4,t4,-1536 # 9a00 <_start-0x7fff6600>
800002e4:	00c00193          	li	gp,12
800002e8:	2fd31063          	bne	t1,t4,800005c8 <fail>

800002ec <test_13>:
800002ec:	00000213          	li	tp,0
800002f0:	00f000b7          	lui	ra,0xf00
800002f4:	00b00137          	lui	sp,0xb00
800002f8:	0220bf33          	mulhu	t5,ra,sp
800002fc:	00000013          	nop
80000300:	00000013          	nop
80000304:	000f0313          	mv	t1,t5
80000308:	00120213          	addi	tp,tp,1 # 1 <_start-0x7fffffff>
8000030c:	00200293          	li	t0,2
80000310:	fe5210e3          	bne	tp,t0,800002f0 <test_13+0x4>
80000314:	0000aeb7          	lui	t4,0xa
80000318:	500e8e93          	addi	t4,t4,1280 # a500 <_start-0x7fff5b00>
8000031c:	00d00193          	li	gp,13
80000320:	2bd31463          	bne	t1,t4,800005c8 <fail>

80000324 <test_14>:
80000324:	00000213          	li	tp,0
80000328:	00d000b7          	lui	ra,0xd00
8000032c:	00b00137          	lui	sp,0xb00
80000330:	0220bf33          	mulhu	t5,ra,sp
80000334:	00120213          	addi	tp,tp,1 # 1 <_start-0x7fffffff>
80000338:	00200293          	li	t0,2
8000033c:	fe5216e3          	bne	tp,t0,80000328 <test_14+0x4>
80000340:	00009eb7          	lui	t4,0x9
80000344:	f00e8e93          	addi	t4,t4,-256 # 8f00 <_start-0x7fff7100>
80000348:	00e00193          	li	gp,14
8000034c:	27df1e63          	bne	t5,t4,800005c8 <fail>

80000350 <test_15>:
80000350:	00000213          	li	tp,0
80000354:	00e000b7          	lui	ra,0xe00
80000358:	00b00137          	lui	sp,0xb00
8000035c:	00000013          	nop
80000360:	0220bf33          	mulhu	t5,ra,sp
80000364:	00120213          	addi	tp,tp,1 # 1 <_start-0x7fffffff>
80000368:	00200293          	li	t0,2
8000036c:	fe5214e3          	bne	tp,t0,80000354 <test_15+0x4>
80000370:	0000aeb7          	lui	t4,0xa
80000374:	a00e8e93          	addi	t4,t4,-1536 # 9a00 <_start-0x7fff6600>
80000378:	00f00193          	li	gp,15
8000037c:	25df1663          	bne	t5,t4,800005c8 <fail>

80000380 <test_16>:
80000380:	00000213          	li	tp,0
80000384:	00f000b7          	lui	ra,0xf00
80000388:	00b00137          	lui	sp,0xb00
8000038c:	00000013          	nop
80000390:	00000013          	nop
80000394:	0220bf33          	mulhu	t5,ra,sp
80000398:	00120213          	addi	tp,tp,1 # 1 <_start-0x7fffffff>
8000039c:	00200293          	li	t0,2
800003a0:	fe5212e3          	bne	tp,t0,80000384 <test_16+0x4>
800003a4:	0000aeb7          	lui	t4,0xa
800003a8:	500e8e93          	addi	t4,t4,1280 # a500 <_start-0x7fff5b00>
800003ac:	01000193          	li	gp,16
800003b0:	21df1c63          	bne	t5,t4,800005c8 <fail>

800003b4 <test_17>:
800003b4:	00000213          	li	tp,0
800003b8:	00d000b7          	lui	ra,0xd00
800003bc:	00000013          	nop
800003c0:	00b00137          	lui	sp,0xb00
800003c4:	0220bf33          	mulhu	t5,ra,sp
800003c8:	00120213          	addi	tp,tp,1 # 1 <_start-0x7fffffff>
800003cc:	00200293          	li	t0,2
800003d0:	fe5214e3          	bne	tp,t0,800003b8 <test_17+0x4>
800003d4:	00009eb7          	lui	t4,0x9
800003d8:	f00e8e93          	addi	t4,t4,-256 # 8f00 <_start-0x7fff7100>
800003dc:	01100193          	li	gp,17
800003e0:	1fdf1463          	bne	t5,t4,800005c8 <fail>

800003e4 <test_18>:
800003e4:	00000213          	li	tp,0
800003e8:	00e000b7          	lui	ra,0xe00
800003ec:	00000013          	nop
800003f0:	00b00137          	lui	sp,0xb00
800003f4:	00000013          	nop
800003f8:	0220bf33          	mulhu	t5,ra,sp
800003fc:	00120213          	addi	tp,tp,1 # 1 <_start-0x7fffffff>
80000400:	00200293          	li	t0,2
80000404:	fe5212e3          	bne	tp,t0,800003e8 <test_18+0x4>
80000408:	0000aeb7          	lui	t4,0xa
8000040c:	a00e8e93          	addi	t4,t4,-1536 # 9a00 <_start-0x7fff6600>
80000410:	01200193          	li	gp,18
80000414:	1bdf1a63          	bne	t5,t4,800005c8 <fail>

80000418 <test_19>:
80000418:	00000213          	li	tp,0
8000041c:	00f000b7          	lui	ra,0xf00
80000420:	00000013          	nop
80000424:	00000013          	nop
80000428:	00b00137          	lui	sp,0xb00
8000042c:	0220bf33          	mulhu	t5,ra,sp
80000430:	00120213          	addi	tp,tp,1 # 1 <_start-0x7fffffff>
80000434:	00200293          	li	t0,2
80000438:	fe5212e3          	bne	tp,t0,8000041c <test_19+0x4>
8000043c:	0000aeb7          	lui	t4,0xa
80000440:	500e8e93          	addi	t4,t4,1280 # a500 <_start-0x7fff5b00>
80000444:	01300193          	li	gp,19
80000448:	19df1063          	bne	t5,t4,800005c8 <fail>

8000044c <test_20>:
8000044c:	00000213          	li	tp,0
80000450:	00b00137          	lui	sp,0xb00
80000454:	00d000b7          	lui	ra,0xd00
80000458:	0220bf33          	mulhu	t5,ra,sp
8000045c:	00120213          	addi	tp,tp,1 # 1 <_start-0x7fffffff>
80000460:	00200293          	li	t0,2
80000464:	fe5216e3          	bne	tp,t0,80000450 <test_20+0x4>
80000468:	00009eb7          	lui	t4,0x9
8000046c:	f00e8e93          	addi	t4,t4,-256 # 8f00 <_start-0x7fff7100>
80000470:	01400193          	li	gp,20
80000474:	15df1a63          	bne	t5,t4,800005c8 <fail>

80000478 <test_21>:
80000478:	00000213          	li	tp,0
8000047c:	00b00137          	lui	sp,0xb00
80000480:	00e000b7          	lui	ra,0xe00
80000484:	00000013          	nop
80000488:	0220bf33          	mulhu	t5,ra,sp
8000048c:	00120213          	addi	tp,tp,1 # 1 <_start-0x7fffffff>
80000490:	00200293          	li	t0,2
80000494:	fe5214e3          	bne	tp,t0,8000047c <test_21+0x4>
80000498:	0000aeb7          	lui	t4,0xa
8000049c:	a00e8e93          	addi	t4,t4,-1536 # 9a00 <_start-0x7fff6600>
800004a0:	01500193          	li	gp,21
800004a4:	13df1263          	bne	t5,t4,800005c8 <fail>

800004a8 <test_22>:
800004a8:	00000213          	li	tp,0
800004ac:	00b00137          	lui	sp,0xb00
800004b0:	00f000b7          	lui	ra,0xf00
800004b4:	00000013          	nop
800004b8:	00000013          	nop
800004bc:	0220bf33          	mulhu	t5,ra,sp
800004c0:	00120213          	addi	tp,tp,1 # 1 <_start-0x7fffffff>
800004c4:	00200293          	li	t0,2
800004c8:	fe5212e3          	bne	tp,t0,800004ac <test_22+0x4>
800004cc:	0000aeb7          	lui	t4,0xa
800004d0:	500e8e93          	addi	t4,t4,1280 # a500 <_start-0x7fff5b00>
800004d4:	01600193          	li	gp,22
800004d8:	0fdf1863          	bne	t5,t4,800005c8 <fail>

800004dc <test_23>:
800004dc:	00000213          	li	tp,0
800004e0:	00b00137          	lui	sp,0xb00
800004e4:	00000013          	nop
800004e8:	00d000b7          	lui	ra,0xd00
800004ec:	0220bf33          	mulhu	t5,ra,sp
800004f0:	00120213          	addi	tp,tp,1 # 1 <_start-0x7fffffff>
800004f4:	00200293          	li	t0,2
800004f8:	fe5214e3          	bne	tp,t0,800004e0 <test_23+0x4>
800004fc:	00009eb7          	lui	t4,0x9
80000500:	f00e8e93          	addi	t4,t4,-256 # 8f00 <_start-0x7fff7100>
80000504:	01700193          	li	gp,23
80000508:	0ddf1063          	bne	t5,t4,800005c8 <fail>

8000050c <test_24>:
8000050c:	00000213          	li	tp,0
80000510:	00b00137          	lui	sp,0xb00
80000514:	00000013          	nop
80000518:	00e000b7          	lui	ra,0xe00
8000051c:	00000013          	nop
80000520:	0220bf33          	mulhu	t5,ra,sp
80000524:	00120213          	addi	tp,tp,1 # 1 <_start-0x7fffffff>
80000528:	00200293          	li	t0,2
8000052c:	fe5212e3          	bne	tp,t0,80000510 <test_24+0x4>
80000530:	0000aeb7          	lui	t4,0xa
80000534:	a00e8e93          	addi	t4,t4,-1536 # 9a00 <_start-0x7fff6600>
80000538:	01800193          	li	gp,24
8000053c:	09df1663          	bne	t5,t4,800005c8 <fail>

80000540 <test_25>:
80000540:	00000213          	li	tp,0
80000544:	00b00137          	lui	sp,0xb00
80000548:	00000013          	nop
8000054c:	00000013          	nop
80000550:	00f000b7          	lui	ra,0xf00
80000554:	0220bf33          	mulhu	t5,ra,sp
80000558:	00120213          	addi	tp,tp,1 # 1 <_start-0x7fffffff>
8000055c:	00200293          	li	t0,2
80000560:	fe5212e3          	bne	tp,t0,80000544 <test_25+0x4>
80000564:	0000aeb7          	lui	t4,0xa
80000568:	500e8e93          	addi	t4,t4,1280 # a500 <_start-0x7fff5b00>
8000056c:	01900193          	li	gp,25
80000570:	05df1c63          	bne	t5,t4,800005c8 <fail>

80000574 <test_26>:
80000574:	7c0000b7          	lui	ra,0x7c000
80000578:	02103133          	mulhu	sp,zero,ra
8000057c:	00000e93          	li	t4,0
80000580:	01a00193          	li	gp,26
80000584:	05d11263          	bne	sp,t4,800005c8 <fail>

80000588 <test_27>:
80000588:	800000b7          	lui	ra,0x80000
8000058c:	0200b133          	mulhu	sp,ra,zero
80000590:	00000e93          	li	t4,0
80000594:	01b00193          	li	gp,27
80000598:	03d11863          	bne	sp,t4,800005c8 <fail>

8000059c <test_28>:
8000059c:	020030b3          	mulhu	ra,zero,zero
800005a0:	00000e93          	li	t4,0
800005a4:	01c00193          	li	gp,28
800005a8:	03d09063          	bne	ra,t4,800005c8 <fail>

800005ac <test_29>:
800005ac:	021000b7          	lui	ra,0x2100
800005b0:	02200137          	lui	sp,0x2200
800005b4:	0220b033          	mulhu	zero,ra,sp
800005b8:	00000e93          	li	t4,0
800005bc:	01d00193          	li	gp,29
800005c0:	01d01463          	bne	zero,t4,800005c8 <fail>
800005c4:	00301c63          	bne	zero,gp,800005dc <pass>

800005c8 <fail>:
800005c8:	0ff0000f          	fence
800005cc:	00018063          	beqz	gp,800005cc <fail+0x4>
800005d0:	00119193          	slli	gp,gp,0x1
800005d4:	0011e193          	ori	gp,gp,1
800005d8:	00000073          	ecall

800005dc <pass>:
800005dc:	0ff0000f          	fence
800005e0:	00100193          	li	gp,1
800005e4:	00000073          	ecall
800005e8:	c0001073          	unimp
800005ec:	0000                	unimp
800005ee:	0000                	unimp
800005f0:	0000                	unimp
800005f2:	0000                	unimp
800005f4:	0000                	unimp
800005f6:	0000                	unimp
800005f8:	0000                	unimp
800005fa:	0000                	unimp
800005fc:	0000                	unimp
800005fe:	0000                	unimp
80000600:	0000                	unimp
80000602:	0000                	unimp
