
gpgpu_test.elf:     file format elf32-littleriscv


Disassembly of section .text:

80000000 <main>:
80000000:	ff010113          	addi	sp,sp,-16
80000004:	00112623          	sw	ra,12(sp)
80000008:	00812423          	sw	s0,8(sp)
8000000c:	01010413          	addi	s0,sp,16
80000010:	468000ef          	jal	ra,80000478 <initiate_stack>
80000014:	484000ef          	jal	ra,80000498 <queue_initialize>
80000018:	810007b7          	lui	a5,0x81000
8000001c:	00078793          	mv	a5,a5
80000020:	81000737          	lui	a4,0x81000
80000024:	19c70713          	addi	a4,a4,412 # 8100019c <y+0x0>
80000028:	810006b7          	lui	a3,0x81000
8000002c:	16468693          	addi	a3,a3,356 # 81000164 <y+0xffffffc8>
80000030:	80000637          	lui	a2,0x80000
80000034:	07060613          	addi	a2,a2,112 # 80000070 <y+0xfefffed4>
80000038:	00200593          	li	a1,2
8000003c:	00700513          	li	a0,7
80000040:	2e0000ef          	jal	ra,80000320 <createWarps>
80000044:	00000013          	nop
80000048:	7e8000ef          	jal	ra,80000830 <queue_isEmpty>
8000004c:	00050793          	mv	a5,a0
80000050:	fe078ce3          	beqz	a5,80000048 <main+0x48>
80000054:	00000073          	ecall
80000058:	00000793          	li	a5,0
8000005c:	00078513          	mv	a0,a5
80000060:	00c12083          	lw	ra,12(sp)
80000064:	00812403          	lw	s0,8(sp)
80000068:	01010113          	addi	sp,sp,16
8000006c:	00008067          	ret

80000070 <matAddition>:
80000070:	fd010113          	addi	sp,sp,-48
80000074:	02112623          	sw	ra,44(sp)
80000078:	02812423          	sw	s0,40(sp)
8000007c:	03010413          	addi	s0,sp,48
80000080:	fca42e23          	sw	a0,-36(s0)
80000084:	fcb42c23          	sw	a1,-40(s0)
80000088:	378000ef          	jal	ra,80000400 <get_1st_arg>
8000008c:	fea42623          	sw	a0,-20(s0)
80000090:	398000ef          	jal	ra,80000428 <get_2nd_arg>
80000094:	fea42423          	sw	a0,-24(s0)
80000098:	3b8000ef          	jal	ra,80000450 <get_3rd_arg>
8000009c:	fea42223          	sw	a0,-28(s0)
800000a0:	fd842783          	lw	a5,-40(s0)
800000a4:	00179793          	slli	a5,a5,0x1
800000a8:	fdc42703          	lw	a4,-36(s0)
800000ac:	00f707b3          	add	a5,a4,a5
800000b0:	fef42023          	sw	a5,-32(s0)
800000b4:	fe042783          	lw	a5,-32(s0)
800000b8:	00279793          	slli	a5,a5,0x2
800000bc:	fec42703          	lw	a4,-20(s0)
800000c0:	00f707b3          	add	a5,a4,a5
800000c4:	0007a683          	lw	a3,0(a5) # 81000000 <y+0xfffffe64>
800000c8:	fe042783          	lw	a5,-32(s0)
800000cc:	00279793          	slli	a5,a5,0x2
800000d0:	fe842703          	lw	a4,-24(s0)
800000d4:	00f707b3          	add	a5,a4,a5
800000d8:	0007a703          	lw	a4,0(a5)
800000dc:	fe042783          	lw	a5,-32(s0)
800000e0:	00279793          	slli	a5,a5,0x2
800000e4:	fe442603          	lw	a2,-28(s0)
800000e8:	00f607b3          	add	a5,a2,a5
800000ec:	00e68733          	add	a4,a3,a4
800000f0:	00e7a023          	sw	a4,0(a5)
800000f4:	00000013          	nop
800000f8:	02c12083          	lw	ra,44(sp)
800000fc:	02812403          	lw	s0,40(sp)
80000100:	03010113          	addi	sp,sp,48
80000104:	00008067          	ret

80000108 <createThreads>:
80000108:	fc010113          	addi	sp,sp,-64
8000010c:	02812e23          	sw	s0,60(sp)
80000110:	03a12c23          	sw	s10,56(sp)
80000114:	03b12a23          	sw	s11,52(sp)
80000118:	04010413          	addi	s0,sp,64
8000011c:	fca42e23          	sw	a0,-36(s0)
80000120:	fcb42c23          	sw	a1,-40(s0)
80000124:	fcc42a23          	sw	a2,-44(s0)
80000128:	fcd42823          	sw	a3,-48(s0)
8000012c:	fce42623          	sw	a4,-52(s0)
80000130:	fcf42423          	sw	a5,-56(s0)
80000134:	00050f93          	mv	t6,a0
80000138:	00058593          	mv	a1,a1
8000013c:	00068b93          	mv	s7,a3
80000140:	00070c13          	mv	s8,a4
80000144:	00078c93          	mv	s9,a5
80000148:	00010f13          	mv	t5,sp
8000014c:	00100793          	li	a5,1
80000150:	fef42623          	sw	a5,-20(s0)
80000154:	0200006f          	j	80000174 <createThreads+0x6c>
80000158:	fec42503          	lw	a0,-20(s0)
8000015c:	fec42303          	lw	t1,-20(s0)
80000160:	80010113          	addi	sp,sp,-2048
80000164:	0003506b          	0x3506b
80000168:	fec42783          	lw	a5,-20(s0)
8000016c:	00178793          	addi	a5,a5,1
80000170:	fef42623          	sw	a5,-20(s0)
80000174:	000f8713          	mv	a4,t6
80000178:	fec42783          	lw	a5,-20(s0)
8000017c:	fce7eee3          	bltu	a5,a4,80000158 <createThreads+0x50>
80000180:	000f0113          	mv	sp,t5
80000184:	00000513          	li	a0,0
80000188:	fd442f83          	lw	t6,-44(s0)
8000018c:	fdc42d83          	lw	s11,-36(s0)
80000190:	01bfe0eb          	0x1bfe0eb
80000194:	800007b7          	lui	a5,0x80000
80000198:	20478793          	addi	a5,a5,516 # 80000204 <y+0xff000068>
8000019c:	00078513          	mv	a0,a5
800001a0:	0005406b          	0x5406b
800001a4:	00000013          	nop
800001a8:	03c12403          	lw	s0,60(sp)
800001ac:	03812d03          	lw	s10,56(sp)
800001b0:	03412d83          	lw	s11,52(sp)
800001b4:	04010113          	addi	sp,sp,64
800001b8:	00008067          	ret

800001bc <wspawn>:
800001bc:	fd010113          	addi	sp,sp,-48
800001c0:	02812623          	sw	s0,44(sp)
800001c4:	03010413          	addi	s0,sp,48
800001c8:	fea42623          	sw	a0,-20(s0)
800001cc:	feb42423          	sw	a1,-24(s0)
800001d0:	fec42223          	sw	a2,-28(s0)
800001d4:	fed42023          	sw	a3,-32(s0)
800001d8:	fce42e23          	sw	a4,-36(s0)
800001dc:	fcf42c23          	sw	a5,-40(s0)
800001e0:	00078393          	mv	t2,a5
800001e4:	800007b7          	lui	a5,0x80000
800001e8:	10878793          	addi	a5,a5,264 # 80000108 <y+0xfeffff6c>
800001ec:	00078313          	mv	t1,a5
800001f0:	0003006b          	0x3006b
800001f4:	00000013          	nop
800001f8:	02c12403          	lw	s0,44(sp)
800001fc:	03010113          	addi	sp,sp,48
80000200:	00008067          	ret

80000204 <reschedule_warps>:
80000204:	fd010113          	addi	sp,sp,-48
80000208:	02112623          	sw	ra,44(sp)
8000020c:	02812423          	sw	s0,40(sp)
80000210:	03010413          	addi	s0,sp,48
80000214:	61c000ef          	jal	ra,80000830 <queue_isEmpty>
80000218:	00050793          	mv	a5,a0
8000021c:	00078463          	beqz	a5,80000224 <reschedule_warps+0x20>
80000220:	00000073          	ecall
80000224:	fd440793          	addi	a5,s0,-44
80000228:	00078513          	mv	a0,a5
8000022c:	4b4000ef          	jal	ra,800006e0 <queue_dequeue>
80000230:	fdc42783          	lw	a5,-36(s0)
80000234:	00078113          	mv	sp,a5
80000238:	fd842503          	lw	a0,-40(s0)
8000023c:	fd442583          	lw	a1,-44(s0)
80000240:	fe042603          	lw	a2,-32(s0)
80000244:	fe442683          	lw	a3,-28(s0)
80000248:	fe842703          	lw	a4,-24(s0)
8000024c:	fec42783          	lw	a5,-20(s0)
80000250:	f6dff0ef          	jal	ra,800001bc <wspawn>
80000254:	00000013          	nop
80000258:	02c12083          	lw	ra,44(sp)
8000025c:	02812403          	lw	s0,40(sp)
80000260:	03010113          	addi	sp,sp,48
80000264:	00008067          	ret

80000268 <schedule_warps>:
80000268:	fd010113          	addi	sp,sp,-48
8000026c:	02112623          	sw	ra,44(sp)
80000270:	02812423          	sw	s0,40(sp)
80000274:	03010413          	addi	s0,sp,48
80000278:	00010f13          	mv	t5,sp
8000027c:	0340006f          	j	800002b0 <schedule_warps+0x48>
80000280:	fd440793          	addi	a5,s0,-44
80000284:	00078513          	mv	a0,a5
80000288:	458000ef          	jal	ra,800006e0 <queue_dequeue>
8000028c:	fdc42783          	lw	a5,-36(s0)
80000290:	00078113          	mv	sp,a5
80000294:	fd842503          	lw	a0,-40(s0)
80000298:	fd442583          	lw	a1,-44(s0)
8000029c:	fe042603          	lw	a2,-32(s0)
800002a0:	fe442683          	lw	a3,-28(s0)
800002a4:	fe842703          	lw	a4,-24(s0)
800002a8:	fec42783          	lw	a5,-20(s0)
800002ac:	f11ff0ef          	jal	ra,800001bc <wspawn>
800002b0:	580000ef          	jal	ra,80000830 <queue_isEmpty>
800002b4:	00050793          	mv	a5,a0
800002b8:	00079863          	bnez	a5,800002c8 <schedule_warps+0x60>
800002bc:	5a4000ef          	jal	ra,80000860 <queue_availableWarps>
800002c0:	00050793          	mv	a5,a0
800002c4:	fa079ee3          	bnez	a5,80000280 <schedule_warps+0x18>
800002c8:	000f0113          	mv	sp,t5
800002cc:	00000013          	nop
800002d0:	02c12083          	lw	ra,44(sp)
800002d4:	02812403          	lw	s0,40(sp)
800002d8:	03010113          	addi	sp,sp,48
800002dc:	00008067          	ret

800002e0 <sleep>:
800002e0:	fe010113          	addi	sp,sp,-32
800002e4:	00812e23          	sw	s0,28(sp)
800002e8:	02010413          	addi	s0,sp,32
800002ec:	fe042623          	sw	zero,-20(s0)
800002f0:	0100006f          	j	80000300 <sleep+0x20>
800002f4:	fec42783          	lw	a5,-20(s0)
800002f8:	00178793          	addi	a5,a5,1
800002fc:	fef42623          	sw	a5,-20(s0)
80000300:	fec42703          	lw	a4,-20(s0)
80000304:	000027b7          	lui	a5,0x2
80000308:	70f78793          	addi	a5,a5,1807 # 270f <main-0x7fffd8f1>
8000030c:	fee7d4e3          	bge	a5,a4,800002f4 <sleep+0x14>
80000310:	00000013          	nop
80000314:	01c12403          	lw	s0,28(sp)
80000318:	02010113          	addi	sp,sp,32
8000031c:	00008067          	ret

80000320 <createWarps>:
80000320:	fb010113          	addi	sp,sp,-80
80000324:	04112623          	sw	ra,76(sp)
80000328:	04812423          	sw	s0,72(sp)
8000032c:	05010413          	addi	s0,sp,80
80000330:	fca42623          	sw	a0,-52(s0)
80000334:	fcb42423          	sw	a1,-56(s0)
80000338:	fcc42223          	sw	a2,-60(s0)
8000033c:	fcd42023          	sw	a3,-64(s0)
80000340:	fae42e23          	sw	a4,-68(s0)
80000344:	faf42c23          	sw	a5,-72(s0)
80000348:	00010f13          	mv	t5,sp
8000034c:	fe042623          	sw	zero,-20(s0)
80000350:	05c0006f          	j	800003ac <createWarps+0x8c>
80000354:	ffff0fb7          	lui	t6,0xffff0
80000358:	01f10133          	add	sp,sp,t6
8000035c:	fec42783          	lw	a5,-20(s0)
80000360:	fcf42823          	sw	a5,-48(s0)
80000364:	fc842783          	lw	a5,-56(s0)
80000368:	fcf42a23          	sw	a5,-44(s0)
8000036c:	00010793          	mv	a5,sp
80000370:	fcf42c23          	sw	a5,-40(s0)
80000374:	fc442783          	lw	a5,-60(s0)
80000378:	fcf42e23          	sw	a5,-36(s0)
8000037c:	fc042783          	lw	a5,-64(s0)
80000380:	fef42023          	sw	a5,-32(s0)
80000384:	fbc42783          	lw	a5,-68(s0)
80000388:	fef42223          	sw	a5,-28(s0)
8000038c:	fb842783          	lw	a5,-72(s0)
80000390:	fef42423          	sw	a5,-24(s0)
80000394:	fd040793          	addi	a5,s0,-48
80000398:	00078513          	mv	a0,a5
8000039c:	158000ef          	jal	ra,800004f4 <queue_enqueue>
800003a0:	fec42783          	lw	a5,-20(s0)
800003a4:	00178793          	addi	a5,a5,1
800003a8:	fef42623          	sw	a5,-20(s0)
800003ac:	fec42703          	lw	a4,-20(s0)
800003b0:	fcc42783          	lw	a5,-52(s0)
800003b4:	faf760e3          	bltu	a4,a5,80000354 <createWarps+0x34>
800003b8:	000f0113          	mv	sp,t5
800003bc:	eadff0ef          	jal	ra,80000268 <schedule_warps>
800003c0:	f21ff0ef          	jal	ra,800002e0 <sleep>
800003c4:	00000013          	nop
800003c8:	04c12083          	lw	ra,76(sp)
800003cc:	04812403          	lw	s0,72(sp)
800003d0:	05010113          	addi	sp,sp,80
800003d4:	00008067          	ret

800003d8 <get_wid>:
800003d8:	ff010113          	addi	sp,sp,-16
800003dc:	00812623          	sw	s0,12(sp)
800003e0:	01712423          	sw	s7,8(sp)
800003e4:	01010413          	addi	s0,sp,16
800003e8:	000b8793          	mv	a5,s7
800003ec:	00078513          	mv	a0,a5
800003f0:	00c12403          	lw	s0,12(sp)
800003f4:	00812b83          	lw	s7,8(sp)
800003f8:	01010113          	addi	sp,sp,16
800003fc:	00008067          	ret

80000400 <get_1st_arg>:
80000400:	ff010113          	addi	sp,sp,-16
80000404:	00812623          	sw	s0,12(sp)
80000408:	01712423          	sw	s7,8(sp)
8000040c:	01010413          	addi	s0,sp,16
80000410:	000b8793          	mv	a5,s7
80000414:	00078513          	mv	a0,a5
80000418:	00c12403          	lw	s0,12(sp)
8000041c:	00812b83          	lw	s7,8(sp)
80000420:	01010113          	addi	sp,sp,16
80000424:	00008067          	ret

80000428 <get_2nd_arg>:
80000428:	ff010113          	addi	sp,sp,-16
8000042c:	00812623          	sw	s0,12(sp)
80000430:	01812423          	sw	s8,8(sp)
80000434:	01010413          	addi	s0,sp,16
80000438:	000c0793          	mv	a5,s8
8000043c:	00078513          	mv	a0,a5
80000440:	00c12403          	lw	s0,12(sp)
80000444:	00812c03          	lw	s8,8(sp)
80000448:	01010113          	addi	sp,sp,16
8000044c:	00008067          	ret

80000450 <get_3rd_arg>:
80000450:	ff010113          	addi	sp,sp,-16
80000454:	00812623          	sw	s0,12(sp)
80000458:	01912423          	sw	s9,8(sp)
8000045c:	01010413          	addi	s0,sp,16
80000460:	000c8793          	mv	a5,s9
80000464:	00078513          	mv	a0,a5
80000468:	00c12403          	lw	s0,12(sp)
8000046c:	00812c83          	lw	s9,8(sp)
80000470:	01010113          	addi	sp,sp,16
80000474:	00008067          	ret

80000478 <initiate_stack>:
80000478:	ff010113          	addi	sp,sp,-16
8000047c:	00812623          	sw	s0,12(sp)
80000480:	01010413          	addi	s0,sp,16
80000484:	7ffff137          	lui	sp,0x7ffff
80000488:	00000013          	nop
8000048c:	00c12403          	lw	s0,12(sp) # 7ffff00c <main-0xff4>
80000490:	01010113          	addi	sp,sp,16
80000494:	00008067          	ret

80000498 <queue_initialize>:
80000498:	ff010113          	addi	sp,sp,-16
8000049c:	00812623          	sw	s0,12(sp)
800004a0:	01010413          	addi	s0,sp,16
800004a4:	810007b7          	lui	a5,0x81000
800004a8:	03878793          	addi	a5,a5,56 # 81000038 <y+0xfffffe9c>
800004ac:	1007ac23          	sw	zero,280(a5)
800004b0:	810007b7          	lui	a5,0x81000
800004b4:	03878793          	addi	a5,a5,56 # 81000038 <y+0xfffffe9c>
800004b8:	1007ae23          	sw	zero,284(a5)
800004bc:	810007b7          	lui	a5,0x81000
800004c0:	03878793          	addi	a5,a5,56 # 81000038 <y+0xfffffe9c>
800004c4:	1207a023          	sw	zero,288(a5)
800004c8:	810007b7          	lui	a5,0x81000
800004cc:	03878793          	addi	a5,a5,56 # 81000038 <y+0xfffffe9c>
800004d0:	00700713          	li	a4,7
800004d4:	12e7a223          	sw	a4,292(a5)
800004d8:	810007b7          	lui	a5,0x81000
800004dc:	03878793          	addi	a5,a5,56 # 81000038 <y+0xfffffe9c>
800004e0:	1207a423          	sw	zero,296(a5)
800004e4:	00000013          	nop
800004e8:	00c12403          	lw	s0,12(sp)
800004ec:	01010113          	addi	sp,sp,16
800004f0:	00008067          	ret

800004f4 <queue_enqueue>:
800004f4:	fe010113          	addi	sp,sp,-32
800004f8:	00812e23          	sw	s0,28(sp)
800004fc:	02010413          	addi	s0,sp,32
80000500:	fea42623          	sw	a0,-20(s0)
80000504:	810007b7          	lui	a5,0x81000
80000508:	03878793          	addi	a5,a5,56 # 81000038 <y+0xfffffe9c>
8000050c:	1207a783          	lw	a5,288(a5)
80000510:	00178713          	addi	a4,a5,1
80000514:	810007b7          	lui	a5,0x81000
80000518:	03878793          	addi	a5,a5,56 # 81000038 <y+0xfffffe9c>
8000051c:	12e7a023          	sw	a4,288(a5)
80000520:	810007b7          	lui	a5,0x81000
80000524:	03878793          	addi	a5,a5,56 # 81000038 <y+0xfffffe9c>
80000528:	11c7a703          	lw	a4,284(a5)
8000052c:	fec42783          	lw	a5,-20(s0)
80000530:	0007a683          	lw	a3,0(a5)
80000534:	81000637          	lui	a2,0x81000
80000538:	00070793          	mv	a5,a4
8000053c:	00379793          	slli	a5,a5,0x3
80000540:	40e787b3          	sub	a5,a5,a4
80000544:	00279793          	slli	a5,a5,0x2
80000548:	03860713          	addi	a4,a2,56 # 81000038 <y+0xfffffe9c>
8000054c:	00e787b3          	add	a5,a5,a4
80000550:	00d7a023          	sw	a3,0(a5)
80000554:	810007b7          	lui	a5,0x81000
80000558:	03878793          	addi	a5,a5,56 # 81000038 <y+0xfffffe9c>
8000055c:	11c7a703          	lw	a4,284(a5)
80000560:	fec42783          	lw	a5,-20(s0)
80000564:	0047a683          	lw	a3,4(a5)
80000568:	810007b7          	lui	a5,0x81000
8000056c:	03878613          	addi	a2,a5,56 # 81000038 <y+0xfffffe9c>
80000570:	00070793          	mv	a5,a4
80000574:	00379793          	slli	a5,a5,0x3
80000578:	40e787b3          	sub	a5,a5,a4
8000057c:	00279793          	slli	a5,a5,0x2
80000580:	00f607b3          	add	a5,a2,a5
80000584:	00d7a223          	sw	a3,4(a5)
80000588:	810007b7          	lui	a5,0x81000
8000058c:	03878793          	addi	a5,a5,56 # 81000038 <y+0xfffffe9c>
80000590:	11c7a703          	lw	a4,284(a5)
80000594:	fec42783          	lw	a5,-20(s0)
80000598:	0087a683          	lw	a3,8(a5)
8000059c:	810007b7          	lui	a5,0x81000
800005a0:	03878613          	addi	a2,a5,56 # 81000038 <y+0xfffffe9c>
800005a4:	00070793          	mv	a5,a4
800005a8:	00379793          	slli	a5,a5,0x3
800005ac:	40e787b3          	sub	a5,a5,a4
800005b0:	00279793          	slli	a5,a5,0x2
800005b4:	00f607b3          	add	a5,a2,a5
800005b8:	00d7a423          	sw	a3,8(a5)
800005bc:	810007b7          	lui	a5,0x81000
800005c0:	03878793          	addi	a5,a5,56 # 81000038 <y+0xfffffe9c>
800005c4:	11c7a703          	lw	a4,284(a5)
800005c8:	fec42783          	lw	a5,-20(s0)
800005cc:	00c7a683          	lw	a3,12(a5)
800005d0:	810007b7          	lui	a5,0x81000
800005d4:	03878613          	addi	a2,a5,56 # 81000038 <y+0xfffffe9c>
800005d8:	00070793          	mv	a5,a4
800005dc:	00379793          	slli	a5,a5,0x3
800005e0:	40e787b3          	sub	a5,a5,a4
800005e4:	00279793          	slli	a5,a5,0x2
800005e8:	00f607b3          	add	a5,a2,a5
800005ec:	00d7a623          	sw	a3,12(a5)
800005f0:	810007b7          	lui	a5,0x81000
800005f4:	03878793          	addi	a5,a5,56 # 81000038 <y+0xfffffe9c>
800005f8:	11c7a703          	lw	a4,284(a5)
800005fc:	fec42783          	lw	a5,-20(s0)
80000600:	0107a683          	lw	a3,16(a5)
80000604:	81000637          	lui	a2,0x81000
80000608:	00070793          	mv	a5,a4
8000060c:	00379793          	slli	a5,a5,0x3
80000610:	40e787b3          	sub	a5,a5,a4
80000614:	00279793          	slli	a5,a5,0x2
80000618:	03860713          	addi	a4,a2,56 # 81000038 <y+0xfffffe9c>
8000061c:	00e787b3          	add	a5,a5,a4
80000620:	00d7a823          	sw	a3,16(a5)
80000624:	810007b7          	lui	a5,0x81000
80000628:	03878793          	addi	a5,a5,56 # 81000038 <y+0xfffffe9c>
8000062c:	11c7a703          	lw	a4,284(a5)
80000630:	fec42783          	lw	a5,-20(s0)
80000634:	0147a683          	lw	a3,20(a5)
80000638:	810007b7          	lui	a5,0x81000
8000063c:	03878613          	addi	a2,a5,56 # 81000038 <y+0xfffffe9c>
80000640:	00070793          	mv	a5,a4
80000644:	00379793          	slli	a5,a5,0x3
80000648:	40e787b3          	sub	a5,a5,a4
8000064c:	00279793          	slli	a5,a5,0x2
80000650:	00f607b3          	add	a5,a2,a5
80000654:	00d7aa23          	sw	a3,20(a5)
80000658:	810007b7          	lui	a5,0x81000
8000065c:	03878793          	addi	a5,a5,56 # 81000038 <y+0xfffffe9c>
80000660:	11c7a703          	lw	a4,284(a5)
80000664:	fec42783          	lw	a5,-20(s0)
80000668:	0187a683          	lw	a3,24(a5)
8000066c:	810007b7          	lui	a5,0x81000
80000670:	03878613          	addi	a2,a5,56 # 81000038 <y+0xfffffe9c>
80000674:	00070793          	mv	a5,a4
80000678:	00379793          	slli	a5,a5,0x3
8000067c:	40e787b3          	sub	a5,a5,a4
80000680:	00279793          	slli	a5,a5,0x2
80000684:	00f607b3          	add	a5,a2,a5
80000688:	00d7ac23          	sw	a3,24(a5)
8000068c:	810007b7          	lui	a5,0x81000
80000690:	03878793          	addi	a5,a5,56 # 81000038 <y+0xfffffe9c>
80000694:	11c7a783          	lw	a5,284(a5)
80000698:	00178713          	addi	a4,a5,1
8000069c:	00900793          	li	a5,9
800006a0:	02e7e263          	bltu	a5,a4,800006c4 <queue_enqueue+0x1d0>
800006a4:	810007b7          	lui	a5,0x81000
800006a8:	03878793          	addi	a5,a5,56 # 81000038 <y+0xfffffe9c>
800006ac:	11c7a783          	lw	a5,284(a5)
800006b0:	00178713          	addi	a4,a5,1
800006b4:	810007b7          	lui	a5,0x81000
800006b8:	03878793          	addi	a5,a5,56 # 81000038 <y+0xfffffe9c>
800006bc:	10e7ae23          	sw	a4,284(a5)
800006c0:	0100006f          	j	800006d0 <queue_enqueue+0x1dc>
800006c4:	810007b7          	lui	a5,0x81000
800006c8:	03878793          	addi	a5,a5,56 # 81000038 <y+0xfffffe9c>
800006cc:	1007ae23          	sw	zero,284(a5)
800006d0:	00000013          	nop
800006d4:	01c12403          	lw	s0,28(sp)
800006d8:	02010113          	addi	sp,sp,32
800006dc:	00008067          	ret

800006e0 <queue_dequeue>:
800006e0:	fd010113          	addi	sp,sp,-48
800006e4:	02812623          	sw	s0,44(sp)
800006e8:	03010413          	addi	s0,sp,48
800006ec:	fca42e23          	sw	a0,-36(s0)
800006f0:	810007b7          	lui	a5,0x81000
800006f4:	03878793          	addi	a5,a5,56 # 81000038 <y+0xfffffe9c>
800006f8:	1207a783          	lw	a5,288(a5)
800006fc:	fff78713          	addi	a4,a5,-1
80000700:	810007b7          	lui	a5,0x81000
80000704:	03878793          	addi	a5,a5,56 # 81000038 <y+0xfffffe9c>
80000708:	12e7a023          	sw	a4,288(a5)
8000070c:	810007b7          	lui	a5,0x81000
80000710:	03878793          	addi	a5,a5,56 # 81000038 <y+0xfffffe9c>
80000714:	1187a703          	lw	a4,280(a5)
80000718:	00070793          	mv	a5,a4
8000071c:	00379793          	slli	a5,a5,0x3
80000720:	40e787b3          	sub	a5,a5,a4
80000724:	00279793          	slli	a5,a5,0x2
80000728:	81000737          	lui	a4,0x81000
8000072c:	03870713          	addi	a4,a4,56 # 81000038 <y+0xfffffe9c>
80000730:	00e787b3          	add	a5,a5,a4
80000734:	fef42623          	sw	a5,-20(s0)
80000738:	810007b7          	lui	a5,0x81000
8000073c:	03878793          	addi	a5,a5,56 # 81000038 <y+0xfffffe9c>
80000740:	1187a783          	lw	a5,280(a5)
80000744:	00178713          	addi	a4,a5,1
80000748:	00900793          	li	a5,9
8000074c:	02e7e263          	bltu	a5,a4,80000770 <queue_dequeue+0x90>
80000750:	810007b7          	lui	a5,0x81000
80000754:	03878793          	addi	a5,a5,56 # 81000038 <y+0xfffffe9c>
80000758:	1187a783          	lw	a5,280(a5)
8000075c:	00178713          	addi	a4,a5,1
80000760:	810007b7          	lui	a5,0x81000
80000764:	03878793          	addi	a5,a5,56 # 81000038 <y+0xfffffe9c>
80000768:	10e7ac23          	sw	a4,280(a5)
8000076c:	0100006f          	j	8000077c <queue_dequeue+0x9c>
80000770:	810007b7          	lui	a5,0x81000
80000774:	03878793          	addi	a5,a5,56 # 81000038 <y+0xfffffe9c>
80000778:	1007ac23          	sw	zero,280(a5)
8000077c:	fec42783          	lw	a5,-20(s0)
80000780:	0007a703          	lw	a4,0(a5)
80000784:	fdc42783          	lw	a5,-36(s0)
80000788:	00e7a023          	sw	a4,0(a5)
8000078c:	fec42783          	lw	a5,-20(s0)
80000790:	0047a703          	lw	a4,4(a5)
80000794:	fdc42783          	lw	a5,-36(s0)
80000798:	00e7a223          	sw	a4,4(a5)
8000079c:	fec42783          	lw	a5,-20(s0)
800007a0:	0087a703          	lw	a4,8(a5)
800007a4:	fdc42783          	lw	a5,-36(s0)
800007a8:	00e7a423          	sw	a4,8(a5)
800007ac:	fec42783          	lw	a5,-20(s0)
800007b0:	00c7a703          	lw	a4,12(a5)
800007b4:	fdc42783          	lw	a5,-36(s0)
800007b8:	00e7a623          	sw	a4,12(a5)
800007bc:	fec42783          	lw	a5,-20(s0)
800007c0:	0107a703          	lw	a4,16(a5)
800007c4:	fdc42783          	lw	a5,-36(s0)
800007c8:	00e7a823          	sw	a4,16(a5)
800007cc:	fec42783          	lw	a5,-20(s0)
800007d0:	0147a703          	lw	a4,20(a5)
800007d4:	fdc42783          	lw	a5,-36(s0)
800007d8:	00e7aa23          	sw	a4,20(a5)
800007dc:	fec42783          	lw	a5,-20(s0)
800007e0:	0187a703          	lw	a4,24(a5)
800007e4:	fdc42783          	lw	a5,-36(s0)
800007e8:	00e7ac23          	sw	a4,24(a5)
800007ec:	00000013          	nop
800007f0:	02c12403          	lw	s0,44(sp)
800007f4:	03010113          	addi	sp,sp,48
800007f8:	00008067          	ret

800007fc <queue_isFull>:
800007fc:	ff010113          	addi	sp,sp,-16
80000800:	00812623          	sw	s0,12(sp)
80000804:	01010413          	addi	s0,sp,16
80000808:	810007b7          	lui	a5,0x81000
8000080c:	03878793          	addi	a5,a5,56 # 81000038 <y+0xfffffe9c>
80000810:	1207a783          	lw	a5,288(a5)
80000814:	ff678793          	addi	a5,a5,-10
80000818:	0017b793          	seqz	a5,a5
8000081c:	0ff7f793          	andi	a5,a5,255
80000820:	00078513          	mv	a0,a5
80000824:	00c12403          	lw	s0,12(sp)
80000828:	01010113          	addi	sp,sp,16
8000082c:	00008067          	ret

80000830 <queue_isEmpty>:
80000830:	ff010113          	addi	sp,sp,-16
80000834:	00812623          	sw	s0,12(sp)
80000838:	01010413          	addi	s0,sp,16
8000083c:	810007b7          	lui	a5,0x81000
80000840:	03878793          	addi	a5,a5,56 # 81000038 <y+0xfffffe9c>
80000844:	1207a783          	lw	a5,288(a5)
80000848:	0017b793          	seqz	a5,a5
8000084c:	0ff7f793          	andi	a5,a5,255
80000850:	00078513          	mv	a0,a5
80000854:	00c12403          	lw	s0,12(sp)
80000858:	01010113          	addi	sp,sp,16
8000085c:	00008067          	ret

80000860 <queue_availableWarps>:
80000860:	ff010113          	addi	sp,sp,-16
80000864:	00812623          	sw	s0,12(sp)
80000868:	01010413          	addi	s0,sp,16
8000086c:	810007b7          	lui	a5,0x81000
80000870:	03878793          	addi	a5,a5,56 # 81000038 <y+0xfffffe9c>
80000874:	1287a703          	lw	a4,296(a5)
80000878:	810007b7          	lui	a5,0x81000
8000087c:	03878793          	addi	a5,a5,56 # 81000038 <y+0xfffffe9c>
80000880:	1247a783          	lw	a5,292(a5)
80000884:	00f737b3          	sltu	a5,a4,a5
80000888:	0ff7f793          	andi	a5,a5,255
8000088c:	00078513          	mv	a0,a5
80000890:	00c12403          	lw	s0,12(sp)
80000894:	01010113          	addi	sp,sp,16
80000898:	00008067          	ret

Disassembly of section .bss:

81000000 <z>:
	...

81000038 <q>:
	...

Disassembly of section .data:

81000164 <x>:
81000164:	0001                	nop
81000166:	0000                	unimp
81000168:	0001                	nop
8100016a:	0000                	unimp
8100016c:	0006                	c.slli	zero,0x1
8100016e:	0000                	unimp
81000170:	0000                	unimp
81000172:	0000                	unimp
81000174:	00000003          	lb	zero,0(zero) # 0 <main-0x80000000>
81000178:	0001                	nop
8100017a:	0000                	unimp
8100017c:	0001                	nop
8100017e:	0000                	unimp
81000180:	0002                	c.slli64	zero
81000182:	0000                	unimp
81000184:	0000                	unimp
81000186:	0000                	unimp
81000188:	00000003          	lb	zero,0(zero) # 0 <main-0x80000000>
8100018c:	0006                	c.slli	zero,0x1
8100018e:	0000                	unimp
81000190:	00000007          	0x7
81000194:	0005                	c.nop	1
81000196:	0000                	unimp
81000198:	00000007          	0x7

8100019c <y>:
8100019c:	0000                	unimp
8100019e:	0000                	unimp
810001a0:	0002                	c.slli64	zero
810001a2:	0000                	unimp
810001a4:	0002                	c.slli64	zero
810001a6:	0000                	unimp
810001a8:	0000                	unimp
810001aa:	0000                	unimp
810001ac:	0005                	c.nop	1
810001ae:	0000                	unimp
810001b0:	0000                	unimp
810001b2:	0000                	unimp
810001b4:	0001                	nop
810001b6:	0000                	unimp
810001b8:	0001                	nop
810001ba:	0000                	unimp
810001bc:	0004                	0x4
810001be:	0000                	unimp
810001c0:	0002                	c.slli64	zero
	...
810001ca:	0000                	unimp
810001cc:	00000003          	lb	zero,0(zero) # 0 <main-0x80000000>
810001d0:	0002                	c.slli64	zero
	...

Disassembly of section .comment:

82000000 <.comment>:
82000000:	3a434347          	fmsub.d	ft6,ft6,ft4,ft7,rmm
82000004:	2820                	fld	fs0,80(s0)
82000006:	29554e47          	fmsub.s	ft8,fa0,fs5,ft5,rmm
8200000a:	3820                	fld	fs0,112(s0)
8200000c:	322e                	fld	ft4,232(sp)
8200000e:	302e                	fld	ft0,232(sp)
	...
