
gpgpu_test.elf:     file format elf32-littleriscv


Disassembly of section .text:

80000000 <_start>:
80000000:	7ffff137          	lui	sp,0x7ffff
80000004:	0cc000ef          	jal	ra,800000d0 <main>
80000008:	00000073          	ecall

8000000c <createThreads>:
8000000c:	00068b93          	mv	s7,a3
80000010:	00070c13          	mv	s8,a4
80000014:	00078c93          	mv	s9,a5
80000018:	00080d13          	mv	s10,a6
8000001c:	00010f13          	mv	t5,sp
80000020:	00050393          	mv	t2,a0

80000024 <loop_init>:
80000024:	00100513          	li	a0,1

80000028 <loop_cond>:
80000028:	00755c63          	bge	a0,t2,80000040 <loop_done>

8000002c <loop_body>:
8000002c:	80010113          	addi	sp,sp,-2048 # 7fffe800 <SIZE+0x7fffe7ce>
80000030:	00050313          	mv	t1,a0
80000034:	0003506b          	0x3506b

80000038 <loop_inc>:
80000038:	00150513          	addi	a0,a0,1
8000003c:	fedff06f          	j	80000028 <loop_cond>

80000040 <loop_done>:
80000040:	000f0113          	mv	sp,t5
80000044:	00000513          	li	a0,0
80000048:	00060f93          	mv	t6,a2
8000004c:	00038d93          	mv	s11,t2
80000050:	01bfe0eb          	0x1bfe0eb
80000054:	00000517          	auipc	a0,0x0
80000058:	51450513          	addi	a0,a0,1300 # 80000568 <reschedule_warps>
8000005c:	0005406b          	0x5406b

80000060 <printc>:
80000060:	000108b7          	lui	a7,0x10
80000064:	00b8a023          	sw	a1,0(a7) # 10000 <SIZE+0xffce>
80000068:	00008067          	ret

8000006c <wspawn>:
8000006c:	00000317          	auipc	t1,0x0
80000070:	fa030313          	addi	t1,t1,-96 # 8000000c <createThreads>
80000074:	0003006b          	0x3006b
80000078:	00008067          	ret

8000007c <print_consol>:
8000007c:	ff410113          	addi	sp,sp,-12
80000080:	00112023          	sw	ra,0(sp)
80000084:	00b12223          	sw	a1,4(sp)

80000088 <bl>:
80000088:	00054583          	lbu	a1,0(a0)
8000008c:	00058863          	beqz	a1,8000009c <be>
80000090:	fd1ff0ef          	jal	ra,80000060 <printc>
80000094:	00150513          	addi	a0,a0,1
80000098:	ff1ff06f          	j	80000088 <bl>

8000009c <be>:
8000009c:	00012083          	lw	ra,0(sp)
800000a0:	00412583          	lw	a1,4(sp)
800000a4:	00c10113          	addi	sp,sp,12
800000a8:	00008067          	ret

800000ac <print_int>:
800000ac:	ff410113          	addi	sp,sp,-12
800000b0:	00112023          	sw	ra,0(sp)
800000b4:	00b12223          	sw	a1,4(sp)
800000b8:	03050593          	addi	a1,a0,48
800000bc:	fa5ff0ef          	jal	ra,80000060 <printc>
800000c0:	00012083          	lw	ra,0(sp)
800000c4:	00412583          	lw	a1,4(sp)
800000c8:	00c10113          	addi	sp,sp,12
800000cc:	00008067          	ret

800000d0 <main>:
800000d0:	fe010113          	addi	sp,sp,-32
800000d4:	00112e23          	sw	ra,28(sp)
800000d8:	00812c23          	sw	s0,24(sp)
800000dc:	02010413          	addi	s0,sp,32
800000e0:	fe042623          	sw	zero,-20(s0)
800000e4:	0300006f          	j	80000114 <main+0x44>
800000e8:	fec42703          	lw	a4,-20(s0)
800000ec:	65400793          	li	a5,1620
800000f0:	02f70733          	mul	a4,a4,a5
800000f4:	810007b7          	lui	a5,0x81000
800000f8:	46078793          	addi	a5,a5,1120 # 81000460 <main_sp+0xffffcd58>
800000fc:	00f707b3          	add	a5,a4,a5
80000100:	00078513          	mv	a0,a5
80000104:	23c000ef          	jal	ra,80000340 <queue_initialize>
80000108:	fec42783          	lw	a5,-20(s0)
8000010c:	00178793          	addi	a5,a5,1
80000110:	fef42623          	sw	a5,-20(s0)
80000114:	fec42703          	lw	a4,-20(s0)
80000118:	00700793          	li	a5,7
8000011c:	fce7d6e3          	bge	a5,a4,800000e8 <main+0x18>
80000120:	fe042423          	sw	zero,-24(s0)
80000124:	0480006f          	j	8000016c <main+0x9c>
80000128:	810007b7          	lui	a5,0x81000
8000012c:	fe842703          	lw	a4,-24(s0)
80000130:	00271713          	slli	a4,a4,0x2
80000134:	15478793          	addi	a5,a5,340 # 81000154 <main_sp+0xffffca4c>
80000138:	00f707b3          	add	a5,a4,a5
8000013c:	00300713          	li	a4,3
80000140:	00e7a023          	sw	a4,0(a5)
80000144:	810007b7          	lui	a5,0x81000
80000148:	fe842703          	lw	a4,-24(s0)
8000014c:	00271713          	slli	a4,a4,0x2
80000150:	25478793          	addi	a5,a5,596 # 81000254 <main_sp+0xffffcb4c>
80000154:	00f707b3          	add	a5,a4,a5
80000158:	00200713          	li	a4,2
8000015c:	00e7a023          	sw	a4,0(a5)
80000160:	fe842783          	lw	a5,-24(s0)
80000164:	00178793          	addi	a5,a5,1
80000168:	fef42423          	sw	a5,-24(s0)
8000016c:	fe842703          	lw	a4,-24(s0)
80000170:	03f00793          	li	a5,63
80000174:	fae7dae3          	bge	a5,a4,80000128 <main+0x58>
80000178:	810007b7          	lui	a5,0x81000
8000017c:	35478793          	addi	a5,a5,852 # 81000354 <main_sp+0xffffcc4c>
80000180:	81000737          	lui	a4,0x81000
80000184:	25470713          	addi	a4,a4,596 # 81000254 <main_sp+0xffffcb4c>
80000188:	810006b7          	lui	a3,0x81000
8000018c:	15468693          	addi	a3,a3,340 # 81000154 <main_sp+0xffffca4c>
80000190:	80000637          	lui	a2,0x80000
80000194:	24c60613          	addi	a2,a2,588 # 8000024c <main_sp+0xfeffcb44>
80000198:	00800593          	li	a1,8
8000019c:	00800513          	li	a0,8
800001a0:	590000ef          	jal	ra,80000730 <createWarps>
800001a4:	00800513          	li	a0,8
800001a8:	680000ef          	jal	ra,80000828 <wait_for_done>
800001ac:	810007b7          	lui	a5,0x81000
800001b0:	04078513          	addi	a0,a5,64 # 81000040 <main_sp+0xffffc938>
800001b4:	ec9ff0ef          	jal	ra,8000007c <print_consol>
800001b8:	810007b7          	lui	a5,0x81000
800001bc:	05c78513          	addi	a0,a5,92 # 8100005c <main_sp+0xffffc954>
800001c0:	ebdff0ef          	jal	ra,8000007c <print_consol>
800001c4:	fe042223          	sw	zero,-28(s0)
800001c8:	0540006f          	j	8000021c <main+0x14c>
800001cc:	fe442783          	lw	a5,-28(s0)
800001d0:	0077f793          	andi	a5,a5,7
800001d4:	00079863          	bnez	a5,800001e4 <main+0x114>
800001d8:	810007b7          	lui	a5,0x81000
800001dc:	06878513          	addi	a0,a5,104 # 81000068 <main_sp+0xffffc960>
800001e0:	e9dff0ef          	jal	ra,8000007c <print_consol>
800001e4:	810007b7          	lui	a5,0x81000
800001e8:	fe442703          	lw	a4,-28(s0)
800001ec:	00271713          	slli	a4,a4,0x2
800001f0:	35478793          	addi	a5,a5,852 # 81000354 <main_sp+0xffffcc4c>
800001f4:	00f707b3          	add	a5,a4,a5
800001f8:	0007a783          	lw	a5,0(a5)
800001fc:	00078513          	mv	a0,a5
80000200:	2a4000ef          	jal	ra,800004a4 <int_print>
80000204:	810007b7          	lui	a5,0x81000
80000208:	06c78513          	addi	a0,a5,108 # 8100006c <main_sp+0xffffc964>
8000020c:	e71ff0ef          	jal	ra,8000007c <print_consol>
80000210:	fe442783          	lw	a5,-28(s0)
80000214:	00178793          	addi	a5,a5,1
80000218:	fef42223          	sw	a5,-28(s0)
8000021c:	fe442703          	lw	a4,-28(s0)
80000220:	03f00793          	li	a5,63
80000224:	fae7d4e3          	bge	a5,a4,800001cc <main+0xfc>
80000228:	810007b7          	lui	a5,0x81000
8000022c:	07078513          	addi	a0,a5,112 # 81000070 <main_sp+0xffffc968>
80000230:	e4dff0ef          	jal	ra,8000007c <print_consol>
80000234:	00000793          	li	a5,0
80000238:	00078513          	mv	a0,a5
8000023c:	01c12083          	lw	ra,28(sp)
80000240:	01812403          	lw	s0,24(sp)
80000244:	02010113          	addi	sp,sp,32
80000248:	00008067          	ret

8000024c <matAddition>:
8000024c:	fc010113          	addi	sp,sp,-64
80000250:	02112e23          	sw	ra,60(sp)
80000254:	02812c23          	sw	s0,56(sp)
80000258:	04010413          	addi	s0,sp,64
8000025c:	fca42623          	sw	a0,-52(s0)
80000260:	fcb42423          	sw	a1,-56(s0)
80000264:	648000ef          	jal	ra,800008ac <get_1st_arg>
80000268:	fea42223          	sw	a0,-28(s0)
8000026c:	668000ef          	jal	ra,800008d4 <get_2nd_arg>
80000270:	fea42023          	sw	a0,-32(s0)
80000274:	688000ef          	jal	ra,800008fc <get_3rd_arg>
80000278:	fca42e23          	sw	a0,-36(s0)
8000027c:	fe042623          	sw	zero,-20(s0)
80000280:	fe042423          	sw	zero,-24(s0)
80000284:	0700006f          	j	800002f4 <matAddition+0xa8>
80000288:	fc842783          	lw	a5,-56(s0)
8000028c:	00379793          	slli	a5,a5,0x3
80000290:	fe842703          	lw	a4,-24(s0)
80000294:	00f707b3          	add	a5,a4,a5
80000298:	fcf42c23          	sw	a5,-40(s0)
8000029c:	fe842783          	lw	a5,-24(s0)
800002a0:	00379793          	slli	a5,a5,0x3
800002a4:	fcc42703          	lw	a4,-52(s0)
800002a8:	00f707b3          	add	a5,a4,a5
800002ac:	fcf42a23          	sw	a5,-44(s0)
800002b0:	fd842783          	lw	a5,-40(s0)
800002b4:	00279793          	slli	a5,a5,0x2
800002b8:	fe442703          	lw	a4,-28(s0)
800002bc:	00f707b3          	add	a5,a4,a5
800002c0:	0007a703          	lw	a4,0(a5)
800002c4:	fd442783          	lw	a5,-44(s0)
800002c8:	00279793          	slli	a5,a5,0x2
800002cc:	fe042683          	lw	a3,-32(s0)
800002d0:	00f687b3          	add	a5,a3,a5
800002d4:	0007a783          	lw	a5,0(a5)
800002d8:	02f707b3          	mul	a5,a4,a5
800002dc:	fec42703          	lw	a4,-20(s0)
800002e0:	00f707b3          	add	a5,a4,a5
800002e4:	fef42623          	sw	a5,-20(s0)
800002e8:	fe842783          	lw	a5,-24(s0)
800002ec:	00178793          	addi	a5,a5,1
800002f0:	fef42423          	sw	a5,-24(s0)
800002f4:	fe842703          	lw	a4,-24(s0)
800002f8:	00700793          	li	a5,7
800002fc:	f8e7f6e3          	bgeu	a5,a4,80000288 <matAddition+0x3c>
80000300:	fc842783          	lw	a5,-56(s0)
80000304:	00379713          	slli	a4,a5,0x3
80000308:	fcc42783          	lw	a5,-52(s0)
8000030c:	00f707b3          	add	a5,a4,a5
80000310:	fcf42823          	sw	a5,-48(s0)
80000314:	fd042783          	lw	a5,-48(s0)
80000318:	00279793          	slli	a5,a5,0x2
8000031c:	fdc42703          	lw	a4,-36(s0)
80000320:	00f707b3          	add	a5,a4,a5
80000324:	fec42703          	lw	a4,-20(s0)
80000328:	00e7a023          	sw	a4,0(a5)
8000032c:	00000013          	nop
80000330:	03c12083          	lw	ra,60(sp)
80000334:	03812403          	lw	s0,56(sp)
80000338:	04010113          	addi	sp,sp,64
8000033c:	00008067          	ret

80000340 <queue_initialize>:
80000340:	00050293          	mv	t0,a0
80000344:	00000313          	li	t1,0
80000348:	00700393          	li	t2,7
8000034c:	0062a023          	sw	t1,0(t0)
80000350:	0062a223          	sw	t1,4(t0)
80000354:	0062a423          	sw	t1,8(t0)
80000358:	0072a623          	sw	t2,12(t0)
8000035c:	0062a823          	sw	t1,16(t0)
80000360:	00008067          	ret

80000364 <queue_enqueue>:
80000364:	00050293          	mv	t0,a0
80000368:	0082a303          	lw	t1,8(t0)
8000036c:	00130313          	addi	t1,t1,1
80000370:	0062a423          	sw	t1,8(t0)
80000374:	01428313          	addi	t1,t0,20
80000378:	0042ae83          	lw	t4,4(t0)
8000037c:	005e9393          	slli	t2,t4,0x5
80000380:	00730333          	add	t1,t1,t2
80000384:	0005ae03          	lw	t3,0(a1)
80000388:	01c32023          	sw	t3,0(t1)
8000038c:	0045ae03          	lw	t3,4(a1)
80000390:	01c32223          	sw	t3,4(t1)
80000394:	0085ae03          	lw	t3,8(a1)
80000398:	01c32423          	sw	t3,8(t1)
8000039c:	00c5ae03          	lw	t3,12(a1)
800003a0:	01c32623          	sw	t3,12(t1)
800003a4:	0105ae03          	lw	t3,16(a1)
800003a8:	01c32823          	sw	t3,16(t1)
800003ac:	0145ae03          	lw	t3,20(a1)
800003b0:	01c32a23          	sw	t3,20(t1)
800003b4:	0185ae03          	lw	t3,24(a1)
800003b8:	01c32c23          	sw	t3,24(t1)
800003bc:	01c5ae03          	lw	t3,28(a1)
800003c0:	01c32e23          	sw	t3,28(t1)
800003c4:	001e8e93          	addi	t4,t4,1
800003c8:	03200f13          	li	t5,50
800003cc:	01ee9463          	bne	t4,t5,800003d4 <ec>
800003d0:	00000e93          	li	t4,0

800003d4 <ec>:
800003d4:	01d2a223          	sw	t4,4(t0)
800003d8:	00008067          	ret

800003dc <queue_dequeue>:
800003dc:	00050293          	mv	t0,a0
800003e0:	0082a303          	lw	t1,8(t0)
800003e4:	fff30313          	addi	t1,t1,-1
800003e8:	0062a423          	sw	t1,8(t0)
800003ec:	01428313          	addi	t1,t0,20
800003f0:	0002ae83          	lw	t4,0(t0)
800003f4:	03200f93          	li	t6,50
800003f8:	000e8f13          	mv	t5,t4
800003fc:	001f0f13          	addi	t5,t5,1
80000400:	01ff1463          	bne	t5,t6,80000408 <dc>
80000404:	00000f13          	li	t5,0

80000408 <dc>:
80000408:	01e2a023          	sw	t5,0(t0)
8000040c:	005e9393          	slli	t2,t4,0x5
80000410:	00730333          	add	t1,t1,t2
80000414:	00032e03          	lw	t3,0(t1)
80000418:	01c5a023          	sw	t3,0(a1)
8000041c:	00432e03          	lw	t3,4(t1)
80000420:	01c5a223          	sw	t3,4(a1)
80000424:	00832e03          	lw	t3,8(t1)
80000428:	01c5a423          	sw	t3,8(a1)
8000042c:	00c32e03          	lw	t3,12(t1)
80000430:	01c5a623          	sw	t3,12(a1)
80000434:	01032e03          	lw	t3,16(t1)
80000438:	01c5a823          	sw	t3,16(a1)
8000043c:	01432e03          	lw	t3,20(t1)
80000440:	01c5aa23          	sw	t3,20(a1)
80000444:	01832e03          	lw	t3,24(t1)
80000448:	01c5ac23          	sw	t3,24(a1)
8000044c:	01c32e03          	lw	t3,28(t1)
80000450:	01c5ae23          	sw	t3,28(a1)
80000454:	00008067          	ret

80000458 <queue_isFull>:
80000458:	00050293          	mv	t0,a0
8000045c:	0082a303          	lw	t1,8(t0)
80000460:	00000513          	li	a0,0
80000464:	03200e13          	li	t3,50
80000468:	006e1463          	bne	t3,t1,80000470 <qf>
8000046c:	00150513          	addi	a0,a0,1

80000470 <qf>:
80000470:	00008067          	ret

80000474 <queue_isEmpty>:
80000474:	00050293          	mv	t0,a0
80000478:	0082a303          	lw	t1,8(t0)
8000047c:	00000513          	li	a0,0
80000480:	00000e13          	li	t3,0
80000484:	006e1463          	bne	t3,t1,8000048c <qe>
80000488:	00150513          	addi	a0,a0,1

8000048c <qe>:
8000048c:	00008067          	ret

80000490 <queue_availableWarps>:
80000490:	00050293          	mv	t0,a0
80000494:	00c2a303          	lw	t1,12(t0)
80000498:	0102a383          	lw	t2,16(t0)
8000049c:	0063b533          	sltu	a0,t2,t1
800004a0:	00008067          	ret

800004a4 <int_print>:
800004a4:	fd010113          	addi	sp,sp,-48
800004a8:	02112623          	sw	ra,44(sp)
800004ac:	02812423          	sw	s0,40(sp)
800004b0:	03010413          	addi	s0,sp,48
800004b4:	fca42e23          	sw	a0,-36(s0)
800004b8:	fdc42703          	lw	a4,-36(s0)
800004bc:	00f00793          	li	a5,15
800004c0:	02e7e463          	bltu	a5,a4,800004e8 <int_print+0x44>
800004c4:	810007b7          	lui	a5,0x81000
800004c8:	fdc42703          	lw	a4,-36(s0)
800004cc:	00271713          	slli	a4,a4,0x2
800004d0:	11478793          	addi	a5,a5,276 # 81000114 <main_sp+0xffffca0c>
800004d4:	00f707b3          	add	a5,a4,a5
800004d8:	0007a783          	lw	a5,0(a5)
800004dc:	00078513          	mv	a0,a5
800004e0:	b9dff0ef          	jal	ra,8000007c <print_consol>
800004e4:	0740006f          	j	80000558 <int_print+0xb4>
800004e8:	02000793          	li	a5,32
800004ec:	fef42623          	sw	a5,-20(s0)
800004f0:	fe0405a3          	sb	zero,-21(s0)
800004f4:	fec42783          	lw	a5,-20(s0)
800004f8:	ffc78793          	addi	a5,a5,-4
800004fc:	fdc42703          	lw	a4,-36(s0)
80000500:	00f757b3          	srl	a5,a4,a5
80000504:	00f7f793          	andi	a5,a5,15
80000508:	fef42223          	sw	a5,-28(s0)
8000050c:	fe442783          	lw	a5,-28(s0)
80000510:	00078663          	beqz	a5,8000051c <int_print+0x78>
80000514:	00100793          	li	a5,1
80000518:	fef405a3          	sb	a5,-21(s0)
8000051c:	feb44783          	lbu	a5,-21(s0)
80000520:	02078263          	beqz	a5,80000544 <int_print+0xa0>
80000524:	810007b7          	lui	a5,0x81000
80000528:	fe442703          	lw	a4,-28(s0)
8000052c:	00271713          	slli	a4,a4,0x2
80000530:	11478793          	addi	a5,a5,276 # 81000114 <main_sp+0xffffca0c>
80000534:	00f707b3          	add	a5,a4,a5
80000538:	0007a783          	lw	a5,0(a5)
8000053c:	00078513          	mv	a0,a5
80000540:	b3dff0ef          	jal	ra,8000007c <print_consol>
80000544:	fec42783          	lw	a5,-20(s0)
80000548:	ffc78793          	addi	a5,a5,-4
8000054c:	fef42623          	sw	a5,-20(s0)
80000550:	fec42783          	lw	a5,-20(s0)
80000554:	faf040e3          	bgtz	a5,800004f4 <int_print+0x50>
80000558:	02c12083          	lw	ra,44(sp)
8000055c:	02812403          	lw	s0,40(sp)
80000560:	03010113          	addi	sp,sp,48
80000564:	00008067          	ret

80000568 <reschedule_warps>:
80000568:	fd010113          	addi	sp,sp,-48
8000056c:	02112623          	sw	ra,44(sp)
80000570:	02812423          	sw	s0,40(sp)
80000574:	03a12223          	sw	s10,36(sp)
80000578:	03010413          	addi	s0,sp,48
8000057c:	000d0713          	mv	a4,s10
80000580:	65400793          	li	a5,1620
80000584:	02f70733          	mul	a4,a4,a5
80000588:	810007b7          	lui	a5,0x81000
8000058c:	46078793          	addi	a5,a5,1120 # 81000460 <main_sp+0xffffcd58>
80000590:	00f707b3          	add	a5,a4,a5
80000594:	00078513          	mv	a0,a5
80000598:	eddff0ef          	jal	ra,80000474 <queue_isEmpty>
8000059c:	00050793          	mv	a5,a0
800005a0:	02078063          	beqz	a5,800005c0 <reschedule_warps+0x58>
800005a4:	000d0713          	mv	a4,s10
800005a8:	810037b7          	lui	a5,0x81003
800005ac:	70078793          	addi	a5,a5,1792 # 81003700 <main_sp+0xfffffff8>
800005b0:	00f707b3          	add	a5,a4,a5
800005b4:	00100713          	li	a4,1
800005b8:	00e78023          	sb	a4,0(a5)
800005bc:	00000073          	ecall
800005c0:	000d0713          	mv	a4,s10
800005c4:	65400793          	li	a5,1620
800005c8:	02f70733          	mul	a4,a4,a5
800005cc:	810007b7          	lui	a5,0x81000
800005d0:	46078793          	addi	a5,a5,1120 # 81000460 <main_sp+0xffffcd58>
800005d4:	00f707b3          	add	a5,a4,a5
800005d8:	fd040713          	addi	a4,s0,-48
800005dc:	00070593          	mv	a1,a4
800005e0:	00078513          	mv	a0,a5
800005e4:	df9ff0ef          	jal	ra,800003dc <queue_dequeue>
800005e8:	fd842783          	lw	a5,-40(s0)
800005ec:	00078113          	mv	sp,a5
800005f0:	fd442503          	lw	a0,-44(s0)
800005f4:	fd042583          	lw	a1,-48(s0)
800005f8:	fdc42603          	lw	a2,-36(s0)
800005fc:	fe042683          	lw	a3,-32(s0)
80000600:	fe442703          	lw	a4,-28(s0)
80000604:	fe842783          	lw	a5,-24(s0)
80000608:	fec42803          	lw	a6,-20(s0)
8000060c:	a01ff0ef          	jal	ra,8000000c <createThreads>
80000610:	00000073          	ecall
80000614:	00000013          	nop
80000618:	02c12083          	lw	ra,44(sp)
8000061c:	02812403          	lw	s0,40(sp)
80000620:	02412d03          	lw	s10,36(sp)
80000624:	03010113          	addi	sp,sp,48
80000628:	00008067          	ret

8000062c <schedule_warps>:
8000062c:	fc010113          	addi	sp,sp,-64
80000630:	02112e23          	sw	ra,60(sp)
80000634:	02812c23          	sw	s0,56(sp)
80000638:	04010413          	addi	s0,sp,64
8000063c:	00010993          	mv	s3,sp
80000640:	fe042623          	sw	zero,-20(s0)
80000644:	0880006f          	j	800006cc <schedule_warps+0xa0>
80000648:	fec42703          	lw	a4,-20(s0)
8000064c:	65400793          	li	a5,1620
80000650:	02f70733          	mul	a4,a4,a5
80000654:	810007b7          	lui	a5,0x81000
80000658:	46078793          	addi	a5,a5,1120 # 81000460 <main_sp+0xffffcd58>
8000065c:	00f707b3          	add	a5,a4,a5
80000660:	00078513          	mv	a0,a5
80000664:	e11ff0ef          	jal	ra,80000474 <queue_isEmpty>
80000668:	00050793          	mv	a5,a0
8000066c:	04079a63          	bnez	a5,800006c0 <schedule_warps+0x94>
80000670:	fec42703          	lw	a4,-20(s0)
80000674:	65400793          	li	a5,1620
80000678:	02f70733          	mul	a4,a4,a5
8000067c:	810007b7          	lui	a5,0x81000
80000680:	46078793          	addi	a5,a5,1120 # 81000460 <main_sp+0xffffcd58>
80000684:	00f707b3          	add	a5,a4,a5
80000688:	fcc40713          	addi	a4,s0,-52
8000068c:	00070593          	mv	a1,a4
80000690:	00078513          	mv	a0,a5
80000694:	d49ff0ef          	jal	ra,800003dc <queue_dequeue>
80000698:	fd442783          	lw	a5,-44(s0)
8000069c:	00078113          	mv	sp,a5
800006a0:	fd042503          	lw	a0,-48(s0)
800006a4:	fcc42583          	lw	a1,-52(s0)
800006a8:	fd842603          	lw	a2,-40(s0)
800006ac:	fdc42683          	lw	a3,-36(s0)
800006b0:	fe042703          	lw	a4,-32(s0)
800006b4:	fe442783          	lw	a5,-28(s0)
800006b8:	fe842803          	lw	a6,-24(s0)
800006bc:	9b1ff0ef          	jal	ra,8000006c <wspawn>
800006c0:	fec42783          	lw	a5,-20(s0)
800006c4:	00178793          	addi	a5,a5,1
800006c8:	fef42623          	sw	a5,-20(s0)
800006cc:	fec42703          	lw	a4,-20(s0)
800006d0:	00600793          	li	a5,6
800006d4:	f6e7dae3          	bge	a5,a4,80000648 <schedule_warps+0x1c>
800006d8:	00098113          	mv	sp,s3
800006dc:	00000013          	nop
800006e0:	03c12083          	lw	ra,60(sp)
800006e4:	03812403          	lw	s0,56(sp)
800006e8:	04010113          	addi	sp,sp,64
800006ec:	00008067          	ret

800006f0 <sleep>:
800006f0:	fd010113          	addi	sp,sp,-48
800006f4:	02812623          	sw	s0,44(sp)
800006f8:	03010413          	addi	s0,sp,48
800006fc:	fca42e23          	sw	a0,-36(s0)
80000700:	fe042623          	sw	zero,-20(s0)
80000704:	0100006f          	j	80000714 <sleep+0x24>
80000708:	fec42783          	lw	a5,-20(s0)
8000070c:	00178793          	addi	a5,a5,1
80000710:	fef42623          	sw	a5,-20(s0)
80000714:	fec42703          	lw	a4,-20(s0)
80000718:	fdc42783          	lw	a5,-36(s0)
8000071c:	fef746e3          	blt	a4,a5,80000708 <sleep+0x18>
80000720:	00000013          	nop
80000724:	02c12403          	lw	s0,44(sp)
80000728:	03010113          	addi	sp,sp,48
8000072c:	00008067          	ret

80000730 <createWarps>:
80000730:	fa010113          	addi	sp,sp,-96
80000734:	04112e23          	sw	ra,92(sp)
80000738:	04812c23          	sw	s0,88(sp)
8000073c:	06010413          	addi	s0,sp,96
80000740:	faa42e23          	sw	a0,-68(s0)
80000744:	fab42c23          	sw	a1,-72(s0)
80000748:	fac42a23          	sw	a2,-76(s0)
8000074c:	fad42823          	sw	a3,-80(s0)
80000750:	fae42623          	sw	a4,-84(s0)
80000754:	faf42423          	sw	a5,-88(s0)
80000758:	00010913          	mv	s2,sp
8000075c:	fe042623          	sw	zero,-20(s0)
80000760:	fe042423          	sw	zero,-24(s0)
80000764:	09c0006f          	j	80000800 <createWarps+0xd0>
80000768:	ffff09b7          	lui	s3,0xffff0
8000076c:	01310133          	add	sp,sp,s3
80000770:	fe842783          	lw	a5,-24(s0)
80000774:	fcf42423          	sw	a5,-56(s0)
80000778:	fb842783          	lw	a5,-72(s0)
8000077c:	fcf42623          	sw	a5,-52(s0)
80000780:	00010793          	mv	a5,sp
80000784:	fcf42823          	sw	a5,-48(s0)
80000788:	fb442783          	lw	a5,-76(s0)
8000078c:	fcf42a23          	sw	a5,-44(s0)
80000790:	fb042783          	lw	a5,-80(s0)
80000794:	fcf42c23          	sw	a5,-40(s0)
80000798:	fac42783          	lw	a5,-84(s0)
8000079c:	fcf42e23          	sw	a5,-36(s0)
800007a0:	fa842783          	lw	a5,-88(s0)
800007a4:	fef42023          	sw	a5,-32(s0)
800007a8:	fec42783          	lw	a5,-20(s0)
800007ac:	fef42223          	sw	a5,-28(s0)
800007b0:	fec42703          	lw	a4,-20(s0)
800007b4:	65400793          	li	a5,1620
800007b8:	02f70733          	mul	a4,a4,a5
800007bc:	810007b7          	lui	a5,0x81000
800007c0:	46078793          	addi	a5,a5,1120 # 81000460 <main_sp+0xffffcd58>
800007c4:	00f707b3          	add	a5,a4,a5
800007c8:	fc840713          	addi	a4,s0,-56
800007cc:	00070593          	mv	a1,a4
800007d0:	00078513          	mv	a0,a5
800007d4:	b91ff0ef          	jal	ra,80000364 <queue_enqueue>
800007d8:	fec42783          	lw	a5,-20(s0)
800007dc:	00178793          	addi	a5,a5,1
800007e0:	fef42623          	sw	a5,-20(s0)
800007e4:	fec42703          	lw	a4,-20(s0)
800007e8:	00600793          	li	a5,6
800007ec:	00e7d463          	bge	a5,a4,800007f4 <createWarps+0xc4>
800007f0:	fe042623          	sw	zero,-20(s0)
800007f4:	fe842783          	lw	a5,-24(s0)
800007f8:	00178793          	addi	a5,a5,1
800007fc:	fef42423          	sw	a5,-24(s0)
80000800:	fe842703          	lw	a4,-24(s0)
80000804:	fbc42783          	lw	a5,-68(s0)
80000808:	f6f760e3          	bltu	a4,a5,80000768 <createWarps+0x38>
8000080c:	00090113          	mv	sp,s2
80000810:	e1dff0ef          	jal	ra,8000062c <schedule_warps>
80000814:	00000013          	nop
80000818:	05c12083          	lw	ra,92(sp)
8000081c:	05812403          	lw	s0,88(sp)
80000820:	06010113          	addi	sp,sp,96
80000824:	00008067          	ret

80000828 <wait_for_done>:
80000828:	fd010113          	addi	sp,sp,-48
8000082c:	02812623          	sw	s0,44(sp)
80000830:	03010413          	addi	s0,sp,48
80000834:	fca42e23          	sw	a0,-36(s0)
80000838:	fe0407a3          	sb	zero,-17(s0)
8000083c:	0500006f          	j	8000088c <wait_for_done+0x64>
80000840:	00100793          	li	a5,1
80000844:	fef407a3          	sb	a5,-17(s0)
80000848:	fe042423          	sw	zero,-24(s0)
8000084c:	0340006f          	j	80000880 <wait_for_done+0x58>
80000850:	fef44783          	lbu	a5,-17(s0)
80000854:	81003737          	lui	a4,0x81003
80000858:	70070693          	addi	a3,a4,1792 # 81003700 <main_sp+0xfffffff8>
8000085c:	fe842703          	lw	a4,-24(s0)
80000860:	00e68733          	add	a4,a3,a4
80000864:	00074703          	lbu	a4,0(a4)
80000868:	00e7f7b3          	and	a5,a5,a4
8000086c:	00f037b3          	snez	a5,a5
80000870:	fef407a3          	sb	a5,-17(s0)
80000874:	fe842783          	lw	a5,-24(s0)
80000878:	00178793          	addi	a5,a5,1
8000087c:	fef42423          	sw	a5,-24(s0)
80000880:	fe842783          	lw	a5,-24(s0)
80000884:	fdc42703          	lw	a4,-36(s0)
80000888:	fce7e4e3          	bltu	a5,a4,80000850 <wait_for_done+0x28>
8000088c:	fef44783          	lbu	a5,-17(s0)
80000890:	0017c793          	xori	a5,a5,1
80000894:	0ff7f793          	andi	a5,a5,255
80000898:	fa0794e3          	bnez	a5,80000840 <wait_for_done+0x18>
8000089c:	00000013          	nop
800008a0:	02c12403          	lw	s0,44(sp)
800008a4:	03010113          	addi	sp,sp,48
800008a8:	00008067          	ret

800008ac <get_1st_arg>:
800008ac:	ff010113          	addi	sp,sp,-16
800008b0:	00812623          	sw	s0,12(sp)
800008b4:	01712423          	sw	s7,8(sp)
800008b8:	01010413          	addi	s0,sp,16
800008bc:	000b8793          	mv	a5,s7
800008c0:	00078513          	mv	a0,a5
800008c4:	00c12403          	lw	s0,12(sp)
800008c8:	00812b83          	lw	s7,8(sp)
800008cc:	01010113          	addi	sp,sp,16
800008d0:	00008067          	ret

800008d4 <get_2nd_arg>:
800008d4:	ff010113          	addi	sp,sp,-16
800008d8:	00812623          	sw	s0,12(sp)
800008dc:	01812423          	sw	s8,8(sp)
800008e0:	01010413          	addi	s0,sp,16
800008e4:	000c0793          	mv	a5,s8
800008e8:	00078513          	mv	a0,a5
800008ec:	00c12403          	lw	s0,12(sp)
800008f0:	00812c03          	lw	s8,8(sp)
800008f4:	01010113          	addi	sp,sp,16
800008f8:	00008067          	ret

800008fc <get_3rd_arg>:
800008fc:	ff010113          	addi	sp,sp,-16
80000900:	00812623          	sw	s0,12(sp)
80000904:	01912423          	sw	s9,8(sp)
80000908:	01010413          	addi	s0,sp,16
8000090c:	000c8793          	mv	a5,s9
80000910:	00078513          	mv	a0,a5
80000914:	00c12403          	lw	s0,12(sp)
80000918:	00812c83          	lw	s9,8(sp)
8000091c:	01010113          	addi	sp,sp,16
80000920:	00008067          	ret

Disassembly of section .rodata:

81000000 <.rodata>:
81000000:	0030                	addi	a2,sp,8
81000002:	0000                	unimp
81000004:	0031                	c.nop	12
81000006:	0000                	unimp
81000008:	0032                	c.slli	zero,0xc
8100000a:	0000                	unimp
8100000c:	00000033          	add	zero,zero,zero
81000010:	0034                	addi	a3,sp,8
81000012:	0000                	unimp
81000014:	0035                	c.nop	13
81000016:	0000                	unimp
81000018:	0036                	c.slli	zero,0xd
8100001a:	0000                	unimp
8100001c:	00000037          	lui	zero,0x0
81000020:	0038                	addi	a4,sp,8
81000022:	0000                	unimp
81000024:	0039                	c.nop	14
81000026:	0000                	unimp
81000028:	0061                	c.nop	24
8100002a:	0000                	unimp
8100002c:	0062                	c.slli	zero,0x18
8100002e:	0000                	unimp
81000030:	00000063          	beqz	zero,81000030 <get_3rd_arg+0xfff734>
81000034:	0064                	addi	s1,sp,12
81000036:	0000                	unimp
81000038:	0065                	c.nop	25
8100003a:	0000                	unimp
8100003c:	0066                	c.slli	zero,0x19
8100003e:	0000                	unimp
81000040:	2d2d                	jal	8100067a <q+0x21a>
81000042:	2d2d                	jal	8100067c <q+0x21c>
81000044:	2d2d                	jal	8100067e <q+0x21e>
81000046:	2d2d                	jal	81000680 <q+0x220>
81000048:	2d2d                	jal	81000682 <q+0x222>
8100004a:	2d2d                	jal	81000684 <q+0x224>
8100004c:	2d2d                	jal	81000686 <q+0x226>
8100004e:	2d2d                	jal	81000688 <q+0x228>
81000050:	2d2d                	jal	8100068a <q+0x22a>
81000052:	2d2d                	jal	8100068c <q+0x22c>
81000054:	2d2d                	jal	8100068e <q+0x22e>
81000056:	2d2d                	jal	81000690 <q+0x230>
81000058:	0a2d                	addi	s4,s4,11
8100005a:	0000                	unimp
8100005c:	4946                	lw	s2,80(sp)
8100005e:	414e                	lw	sp,208(sp)
81000060:	204c                	fld	fa1,128(s0)
81000062:	0a5a                	slli	s4,s4,0x16
81000064:	0000                	unimp
81000066:	0000                	unimp
81000068:	000a                	c.slli	zero,0x2
8100006a:	0000                	unimp
8100006c:	0020                	addi	s0,sp,8
8100006e:	0000                	unimp
81000070:	2d0a                	fld	fs10,128(sp)
81000072:	2d2d                	jal	810006ac <q+0x24c>
81000074:	2d2d                	jal	810006ae <q+0x24e>
81000076:	2d2d                	jal	810006b0 <q+0x250>
81000078:	2d2d                	jal	810006b2 <q+0x252>
8100007a:	2d2d                	jal	810006b4 <q+0x254>
8100007c:	2d2d                	jal	810006b6 <q+0x256>
8100007e:	2d2d                	jal	810006b8 <q+0x258>
81000080:	2d2d                	jal	810006ba <q+0x25a>
81000082:	2d2d                	jal	810006bc <q+0x25c>
81000084:	2d2d                	jal	810006be <q+0x25e>
81000086:	2d2d                	jal	810006c0 <q+0x260>
81000088:	2d2d                	jal	810006c2 <q+0x262>
8100008a:	2d2d                	jal	810006c4 <q+0x264>
8100008c:	2d2d                	jal	810006c6 <q+0x266>
8100008e:	2d2d                	jal	810006c8 <q+0x268>
81000090:	000a                	c.slli	zero,0x2
81000092:	0000                	unimp
81000094:	0030                	addi	a2,sp,8
81000096:	0000                	unimp
81000098:	0031                	c.nop	12
8100009a:	0000                	unimp
8100009c:	0032                	c.slli	zero,0xc
8100009e:	0000                	unimp
810000a0:	00000033          	add	zero,zero,zero
810000a4:	0034                	addi	a3,sp,8
810000a6:	0000                	unimp
810000a8:	0035                	c.nop	13
810000aa:	0000                	unimp
810000ac:	0036                	c.slli	zero,0xd
810000ae:	0000                	unimp
810000b0:	00000037          	lui	zero,0x0
810000b4:	0038                	addi	a4,sp,8
810000b6:	0000                	unimp
810000b8:	0039                	c.nop	14
810000ba:	0000                	unimp
810000bc:	0061                	c.nop	24
810000be:	0000                	unimp
810000c0:	0062                	c.slli	zero,0x18
810000c2:	0000                	unimp
810000c4:	00000063          	beqz	zero,810000c4 <get_3rd_arg+0xfff7c8>
810000c8:	0064                	addi	s1,sp,12
810000ca:	0000                	unimp
810000cc:	0065                	c.nop	25
810000ce:	0000                	unimp
810000d0:	0066                	c.slli	zero,0x19

Disassembly of section .data:

810000d4 <hextoa>:
810000d4:	0000                	unimp
810000d6:	8100                	0x8100
810000d8:	0004                	0x4
810000da:	8100                	0x8100
810000dc:	0008                	0x8
810000de:	8100                	0x8100
810000e0:	000c                	0xc
810000e2:	8100                	0x8100
810000e4:	0010                	0x10
810000e6:	8100                	0x8100
810000e8:	0014                	0x14
810000ea:	8100                	0x8100
810000ec:	0018                	0x18
810000ee:	8100                	0x8100
810000f0:	001c                	0x1c
810000f2:	8100                	0x8100
810000f4:	0020                	addi	s0,sp,8
810000f6:	8100                	0x8100
810000f8:	0024                	addi	s1,sp,8
810000fa:	8100                	0x8100
810000fc:	0028                	addi	a0,sp,8
810000fe:	8100                	0x8100
81000100:	002c                	addi	a1,sp,8
81000102:	8100                	0x8100
81000104:	0030                	addi	a2,sp,8
81000106:	8100                	0x8100
81000108:	0034                	addi	a3,sp,8
8100010a:	8100                	0x8100
8100010c:	0038                	addi	a4,sp,8
8100010e:	8100                	0x8100
81000110:	003c                	addi	a5,sp,8
81000112:	8100                	0x8100

81000114 <hextoa>:
81000114:	0094                	addi	a3,sp,64
81000116:	8100                	0x8100
81000118:	0098                	addi	a4,sp,64
8100011a:	8100                	0x8100
8100011c:	009c                	addi	a5,sp,64
8100011e:	8100                	0x8100
81000120:	00a0                	addi	s0,sp,72
81000122:	8100                	0x8100
81000124:	00a4                	addi	s1,sp,72
81000126:	8100                	0x8100
81000128:	00a8                	addi	a0,sp,72
8100012a:	8100                	0x8100
8100012c:	00ac                	addi	a1,sp,72
8100012e:	8100                	0x8100
81000130:	00b0                	addi	a2,sp,72
81000132:	8100                	0x8100
81000134:	00b4                	addi	a3,sp,72
81000136:	8100                	0x8100
81000138:	00b8                	addi	a4,sp,72
8100013a:	8100                	0x8100
8100013c:	00bc                	addi	a5,sp,72
8100013e:	8100                	0x8100
81000140:	00c0                	addi	s0,sp,68
81000142:	8100                	0x8100
81000144:	00c4                	addi	s1,sp,68
81000146:	8100                	0x8100
81000148:	00c8                	addi	a0,sp,68
8100014a:	8100                	0x8100
8100014c:	00cc                	addi	a1,sp,68
8100014e:	8100                	0x8100
81000150:	00d0                	addi	a2,sp,68
81000152:	8100                	0x8100

Disassembly of section .bss:

81000154 <x>:
	...

81000254 <y>:
	...

81000354 <z>:
	...

81000454 <done>:
	...

8100045c <main_sp>:
8100045c:	0000                	unimp
	...

81000460 <q>:
	...

81003700 <done>:
	...

81003708 <main_sp>:
81003708:	0000                	unimp
	...

Disassembly of section .comment:

82000000 <.comment>:
82000000:	3a434347          	fmsub.d	ft6,ft6,ft4,ft7,rmm
82000004:	2820                	fld	fs0,80(s0)
82000006:	29554e47          	fmsub.s	ft8,fa0,fs5,ft5,rmm
8200000a:	3820                	fld	fs0,112(s0)
8200000c:	322e                	fld	ft4,232(sp)
8200000e:	302e                	fld	ft0,232(sp)
	...
