
gpgpu_test.elf:     file format elf32-littleriscv


Disassembly of section .text:

80000000 <_start>:
80000000:	7ffff137          	lui	sp,0x7ffff
80000004:	18c000ef          	jal	ra,80000190 <queue_initialize>
80000008:	068000ef          	jal	ra,80000070 <main>
8000000c:	00000073          	ecall

80000010 <createThreads>:
80000010:	00068b93          	mv	s7,a3
80000014:	00070c13          	mv	s8,a4
80000018:	00078c93          	mv	s9,a5
8000001c:	00010f13          	mv	t5,sp
80000020:	00050393          	mv	t2,a0

80000024 <loop_init>:
80000024:	00100513          	li	a0,1

80000028 <loop_cond>:
80000028:	00755c63          	bge	a0,t2,80000040 <loop_done>

8000002c <loop_body>:
8000002c:	80010113          	addi	sp,sp,-2048 # 7fffe800 <SIZE+0x7fffe7ce>
80000030:	00050313          	mv	t1,a0
80000034:	0003506b          	0x3506b

80000038 <loop_inc>:
80000038:	00150513          	addi	a0,a0,1
8000003c:	fedff06f          	j	80000028 <loop_cond>

80000040 <loop_done>:
80000040:	000f0113          	mv	sp,t5
80000044:	00000513          	li	a0,0
80000048:	00060f93          	mv	t6,a2
8000004c:	00038d93          	mv	s11,t2
80000050:	01bfe0eb          	0x1bfe0eb
80000054:	00000517          	auipc	a0,0x0
80000058:	2a850513          	addi	a0,a0,680 # 800002fc <reschedule_warps>
8000005c:	0005406b          	0x5406b

80000060 <wspawn>:
80000060:	00000317          	auipc	t1,0x0
80000064:	fb030313          	addi	t1,t1,-80 # 80000010 <createThreads>
80000068:	0003006b          	0x3006b
8000006c:	00008067          	ret

80000070 <main>:
80000070:	ff010113          	addi	sp,sp,-16
80000074:	00112623          	sw	ra,12(sp)
80000078:	00812423          	sw	s0,8(sp)
8000007c:	01010413          	addi	s0,sp,16
80000080:	810007b7          	lui	a5,0x81000
80000084:	00078793          	mv	a5,a5
80000088:	81000737          	lui	a4,0x81000
8000008c:	60c70713          	addi	a4,a4,1548 # 8100060c <y+0x0>
80000090:	810006b7          	lui	a3,0x81000
80000094:	5cc68693          	addi	a3,a3,1484 # 810005cc <y+0xffffffc0>
80000098:	80000637          	lui	a2,0x80000
8000009c:	0d460613          	addi	a2,a2,212 # 800000d4 <y+0xfefffac8>
800000a0:	00100593          	li	a1,1
800000a4:	01000513          	li	a0,16
800000a8:	390000ef          	jal	ra,80000438 <createWarps>
800000ac:	00000013          	nop
800000b0:	214000ef          	jal	ra,800002c4 <queue_isEmpty>
800000b4:	00050793          	mv	a5,a0
800000b8:	fe078ce3          	beqz	a5,800000b0 <main+0x40>
800000bc:	00000793          	li	a5,0
800000c0:	00078513          	mv	a0,a5
800000c4:	00c12083          	lw	ra,12(sp)
800000c8:	00812403          	lw	s0,8(sp)
800000cc:	01010113          	addi	sp,sp,16
800000d0:	00008067          	ret

800000d4 <matAddition>:
800000d4:	fd010113          	addi	sp,sp,-48
800000d8:	02112623          	sw	ra,44(sp)
800000dc:	02812423          	sw	s0,40(sp)
800000e0:	03010413          	addi	s0,sp,48
800000e4:	fca42e23          	sw	a0,-36(s0)
800000e8:	fcb42c23          	sw	a1,-40(s0)
800000ec:	408000ef          	jal	ra,800004f4 <get_1st_arg>
800000f0:	fea42623          	sw	a0,-20(s0)
800000f4:	428000ef          	jal	ra,8000051c <get_2nd_arg>
800000f8:	fea42423          	sw	a0,-24(s0)
800000fc:	448000ef          	jal	ra,80000544 <get_3rd_arg>
80000100:	fea42223          	sw	a0,-28(s0)
80000104:	fd842703          	lw	a4,-40(s0)
80000108:	fdc42783          	lw	a5,-36(s0)
8000010c:	00f707b3          	add	a5,a4,a5
80000110:	fef42023          	sw	a5,-32(s0)
80000114:	fe042783          	lw	a5,-32(s0)
80000118:	00279793          	slli	a5,a5,0x2
8000011c:	fec42703          	lw	a4,-20(s0)
80000120:	00f707b3          	add	a5,a4,a5
80000124:	0007a683          	lw	a3,0(a5) # 81000000 <y+0xfffff9f4>
80000128:	fe042783          	lw	a5,-32(s0)
8000012c:	00279793          	slli	a5,a5,0x2
80000130:	fe842703          	lw	a4,-24(s0)
80000134:	00f707b3          	add	a5,a4,a5
80000138:	0007a703          	lw	a4,0(a5)
8000013c:	fe042783          	lw	a5,-32(s0)
80000140:	00279793          	slli	a5,a5,0x2
80000144:	fe442603          	lw	a2,-28(s0)
80000148:	00f607b3          	add	a5,a2,a5
8000014c:	00e68733          	add	a4,a3,a4
80000150:	00e7a023          	sw	a4,0(a5)
80000154:	fd842783          	lw	a5,-40(s0)
80000158:	00178713          	addi	a4,a5,1
8000015c:	00070793          	mv	a5,a4
80000160:	00179793          	slli	a5,a5,0x1
80000164:	00e787b3          	add	a5,a5,a4
80000168:	00379793          	slli	a5,a5,0x3
8000016c:	00e787b3          	add	a5,a5,a4
80000170:	00279793          	slli	a5,a5,0x2
80000174:	00078513          	mv	a0,a5
80000178:	280000ef          	jal	ra,800003f8 <sleep>
8000017c:	00000013          	nop
80000180:	02c12083          	lw	ra,44(sp)
80000184:	02812403          	lw	s0,40(sp)
80000188:	03010113          	addi	sp,sp,48
8000018c:	00008067          	ret

80000190 <queue_initialize>:
80000190:	01000297          	auipc	t0,0x1000
80000194:	eb028293          	addi	t0,t0,-336 # 81000040 <q>
80000198:	00000313          	li	t1,0
8000019c:	00700393          	li	t2,7
800001a0:	0062a023          	sw	t1,0(t0)
800001a4:	0062a223          	sw	t1,4(t0)
800001a8:	0062a423          	sw	t1,8(t0)
800001ac:	0072a623          	sw	t2,12(t0)
800001b0:	0062a823          	sw	t1,16(t0)
800001b4:	00008067          	ret

800001b8 <queue_enqueue>:
800001b8:	01000297          	auipc	t0,0x1000
800001bc:	e8828293          	addi	t0,t0,-376 # 81000040 <q>
800001c0:	0082a303          	lw	t1,8(t0)
800001c4:	00130313          	addi	t1,t1,1
800001c8:	0062a423          	sw	t1,8(t0)
800001cc:	01428313          	addi	t1,t0,20
800001d0:	0042ae83          	lw	t4,4(t0)
800001d4:	005e9393          	slli	t2,t4,0x5
800001d8:	00730333          	add	t1,t1,t2
800001dc:	00052e03          	lw	t3,0(a0)
800001e0:	01c32023          	sw	t3,0(t1)
800001e4:	00452e03          	lw	t3,4(a0)
800001e8:	01c32223          	sw	t3,4(t1)
800001ec:	00852e03          	lw	t3,8(a0)
800001f0:	01c32423          	sw	t3,8(t1)
800001f4:	00c52e03          	lw	t3,12(a0)
800001f8:	01c32623          	sw	t3,12(t1)
800001fc:	01052e03          	lw	t3,16(a0)
80000200:	01c32823          	sw	t3,16(t1)
80000204:	01452e03          	lw	t3,20(a0)
80000208:	01c32a23          	sw	t3,20(t1)
8000020c:	01852e03          	lw	t3,24(a0)
80000210:	01c32c23          	sw	t3,24(t1)
80000214:	001e8e93          	addi	t4,t4,1
80000218:	03200f13          	li	t5,50
8000021c:	01ee9463          	bne	t4,t5,80000224 <ec>
80000220:	00000e93          	li	t4,0

80000224 <ec>:
80000224:	01d2a223          	sw	t4,4(t0)
80000228:	00008067          	ret

8000022c <queue_dequeue>:
8000022c:	01000297          	auipc	t0,0x1000
80000230:	e1428293          	addi	t0,t0,-492 # 81000040 <q>
80000234:	0082a303          	lw	t1,8(t0)
80000238:	fff30313          	addi	t1,t1,-1
8000023c:	0062a423          	sw	t1,8(t0)
80000240:	01428313          	addi	t1,t0,20
80000244:	0002ae83          	lw	t4,0(t0)
80000248:	03200f93          	li	t6,50
8000024c:	000e8f13          	mv	t5,t4
80000250:	001f0f13          	addi	t5,t5,1
80000254:	01ff1463          	bne	t5,t6,8000025c <dc>
80000258:	00000f13          	li	t5,0

8000025c <dc>:
8000025c:	01e2a023          	sw	t5,0(t0)
80000260:	005e9393          	slli	t2,t4,0x5
80000264:	00730333          	add	t1,t1,t2
80000268:	00032e03          	lw	t3,0(t1)
8000026c:	01c52023          	sw	t3,0(a0)
80000270:	00432e03          	lw	t3,4(t1)
80000274:	01c52223          	sw	t3,4(a0)
80000278:	00832e03          	lw	t3,8(t1)
8000027c:	01c52423          	sw	t3,8(a0)
80000280:	00c32e03          	lw	t3,12(t1)
80000284:	01c52623          	sw	t3,12(a0)
80000288:	01032e03          	lw	t3,16(t1)
8000028c:	01c52823          	sw	t3,16(a0)
80000290:	01432e03          	lw	t3,20(t1)
80000294:	01c52a23          	sw	t3,20(a0)
80000298:	01832e03          	lw	t3,24(t1)
8000029c:	01c52c23          	sw	t3,24(a0)
800002a0:	00008067          	ret

800002a4 <queue_isFull>:
800002a4:	01000297          	auipc	t0,0x1000
800002a8:	d9c28293          	addi	t0,t0,-612 # 81000040 <q>
800002ac:	0082a303          	lw	t1,8(t0)
800002b0:	00000513          	li	a0,0
800002b4:	03200e13          	li	t3,50
800002b8:	006e1463          	bne	t3,t1,800002c0 <qf>
800002bc:	00150513          	addi	a0,a0,1

800002c0 <qf>:
800002c0:	00008067          	ret

800002c4 <queue_isEmpty>:
800002c4:	01000297          	auipc	t0,0x1000
800002c8:	d7c28293          	addi	t0,t0,-644 # 81000040 <q>
800002cc:	0082a303          	lw	t1,8(t0)
800002d0:	00000513          	li	a0,0
800002d4:	00000e13          	li	t3,0
800002d8:	006e1463          	bne	t3,t1,800002e0 <qe>
800002dc:	00150513          	addi	a0,a0,1

800002e0 <qe>:
800002e0:	00008067          	ret

800002e4 <queue_availableWarps>:
800002e4:	01000297          	auipc	t0,0x1000
800002e8:	d5c28293          	addi	t0,t0,-676 # 81000040 <q>
800002ec:	00c2a303          	lw	t1,12(t0)
800002f0:	0102a383          	lw	t2,16(t0)
800002f4:	0063b533          	sltu	a0,t2,t1
800002f8:	00008067          	ret

800002fc <reschedule_warps>:
800002fc:	fd010113          	addi	sp,sp,-48
80000300:	02112623          	sw	ra,44(sp)
80000304:	02812423          	sw	s0,40(sp)
80000308:	03010413          	addi	s0,sp,48
8000030c:	fb9ff0ef          	jal	ra,800002c4 <queue_isEmpty>
80000310:	00050793          	mv	a5,a0
80000314:	00078463          	beqz	a5,8000031c <reschedule_warps+0x20>
80000318:	00000073          	ecall
8000031c:	fd440793          	addi	a5,s0,-44
80000320:	00078513          	mv	a0,a5
80000324:	f09ff0ef          	jal	ra,8000022c <queue_dequeue>
80000328:	fdc42783          	lw	a5,-36(s0)
8000032c:	00078113          	mv	sp,a5
80000330:	fd842503          	lw	a0,-40(s0)
80000334:	fd442583          	lw	a1,-44(s0)
80000338:	fe042603          	lw	a2,-32(s0)
8000033c:	fe442683          	lw	a3,-28(s0)
80000340:	fe842703          	lw	a4,-24(s0)
80000344:	fec42783          	lw	a5,-20(s0)
80000348:	cc9ff0ef          	jal	ra,80000010 <createThreads>
8000034c:	00000073          	ecall
80000350:	00000013          	nop
80000354:	02c12083          	lw	ra,44(sp)
80000358:	02812403          	lw	s0,40(sp)
8000035c:	03010113          	addi	sp,sp,48
80000360:	00008067          	ret

80000364 <schedule_warps>:
80000364:	fd010113          	addi	sp,sp,-48
80000368:	02112623          	sw	ra,44(sp)
8000036c:	02812423          	sw	s0,40(sp)
80000370:	03010413          	addi	s0,sp,48
80000374:	00010993          	mv	s3,sp
80000378:	0500006f          	j	800003c8 <schedule_warps+0x64>
8000037c:	810007b7          	lui	a5,0x81000
80000380:	04078793          	addi	a5,a5,64 # 81000040 <y+0xfffffa34>
80000384:	0107a783          	lw	a5,16(a5)
80000388:	00178713          	addi	a4,a5,1
8000038c:	810007b7          	lui	a5,0x81000
80000390:	04078793          	addi	a5,a5,64 # 81000040 <y+0xfffffa34>
80000394:	00e7a823          	sw	a4,16(a5)
80000398:	fd440793          	addi	a5,s0,-44
8000039c:	00078513          	mv	a0,a5
800003a0:	e8dff0ef          	jal	ra,8000022c <queue_dequeue>
800003a4:	fdc42783          	lw	a5,-36(s0)
800003a8:	00078113          	mv	sp,a5
800003ac:	fd842503          	lw	a0,-40(s0)
800003b0:	fd442583          	lw	a1,-44(s0)
800003b4:	fe042603          	lw	a2,-32(s0)
800003b8:	fe442683          	lw	a3,-28(s0)
800003bc:	fe842703          	lw	a4,-24(s0)
800003c0:	fec42783          	lw	a5,-20(s0)
800003c4:	c9dff0ef          	jal	ra,80000060 <wspawn>
800003c8:	efdff0ef          	jal	ra,800002c4 <queue_isEmpty>
800003cc:	00050793          	mv	a5,a0
800003d0:	00079863          	bnez	a5,800003e0 <schedule_warps+0x7c>
800003d4:	f11ff0ef          	jal	ra,800002e4 <queue_availableWarps>
800003d8:	00050793          	mv	a5,a0
800003dc:	fa0790e3          	bnez	a5,8000037c <schedule_warps+0x18>
800003e0:	00098113          	mv	sp,s3
800003e4:	00000013          	nop
800003e8:	02c12083          	lw	ra,44(sp)
800003ec:	02812403          	lw	s0,40(sp)
800003f0:	03010113          	addi	sp,sp,48
800003f4:	00008067          	ret

800003f8 <sleep>:
800003f8:	fd010113          	addi	sp,sp,-48
800003fc:	02812623          	sw	s0,44(sp)
80000400:	03010413          	addi	s0,sp,48
80000404:	fca42e23          	sw	a0,-36(s0)
80000408:	fe042623          	sw	zero,-20(s0)
8000040c:	0100006f          	j	8000041c <sleep+0x24>
80000410:	fec42783          	lw	a5,-20(s0)
80000414:	00178793          	addi	a5,a5,1
80000418:	fef42623          	sw	a5,-20(s0)
8000041c:	fec42703          	lw	a4,-20(s0)
80000420:	fdc42783          	lw	a5,-36(s0)
80000424:	fef746e3          	blt	a4,a5,80000410 <sleep+0x18>
80000428:	00000013          	nop
8000042c:	02c12403          	lw	s0,44(sp)
80000430:	03010113          	addi	sp,sp,48
80000434:	00008067          	ret

80000438 <createWarps>:
80000438:	fb010113          	addi	sp,sp,-80
8000043c:	04112623          	sw	ra,76(sp)
80000440:	04812423          	sw	s0,72(sp)
80000444:	05010413          	addi	s0,sp,80
80000448:	fca42623          	sw	a0,-52(s0)
8000044c:	fcb42423          	sw	a1,-56(s0)
80000450:	fcc42223          	sw	a2,-60(s0)
80000454:	fcd42023          	sw	a3,-64(s0)
80000458:	fae42e23          	sw	a4,-68(s0)
8000045c:	faf42c23          	sw	a5,-72(s0)
80000460:	00010913          	mv	s2,sp
80000464:	fe042623          	sw	zero,-20(s0)
80000468:	05c0006f          	j	800004c4 <createWarps+0x8c>
8000046c:	ffff09b7          	lui	s3,0xffff0
80000470:	01310133          	add	sp,sp,s3
80000474:	fec42783          	lw	a5,-20(s0)
80000478:	fcf42823          	sw	a5,-48(s0)
8000047c:	fc842783          	lw	a5,-56(s0)
80000480:	fcf42a23          	sw	a5,-44(s0)
80000484:	00010793          	mv	a5,sp
80000488:	fcf42c23          	sw	a5,-40(s0)
8000048c:	fc442783          	lw	a5,-60(s0)
80000490:	fcf42e23          	sw	a5,-36(s0)
80000494:	fc042783          	lw	a5,-64(s0)
80000498:	fef42023          	sw	a5,-32(s0)
8000049c:	fbc42783          	lw	a5,-68(s0)
800004a0:	fef42223          	sw	a5,-28(s0)
800004a4:	fb842783          	lw	a5,-72(s0)
800004a8:	fef42423          	sw	a5,-24(s0)
800004ac:	fd040793          	addi	a5,s0,-48
800004b0:	00078513          	mv	a0,a5
800004b4:	d05ff0ef          	jal	ra,800001b8 <queue_enqueue>
800004b8:	fec42783          	lw	a5,-20(s0)
800004bc:	00178793          	addi	a5,a5,1
800004c0:	fef42623          	sw	a5,-20(s0)
800004c4:	fec42703          	lw	a4,-20(s0)
800004c8:	fcc42783          	lw	a5,-52(s0)
800004cc:	faf760e3          	bltu	a4,a5,8000046c <createWarps+0x34>
800004d0:	00090113          	mv	sp,s2
800004d4:	e91ff0ef          	jal	ra,80000364 <schedule_warps>
800004d8:	06400513          	li	a0,100
800004dc:	f1dff0ef          	jal	ra,800003f8 <sleep>
800004e0:	00000013          	nop
800004e4:	04c12083          	lw	ra,76(sp)
800004e8:	04812403          	lw	s0,72(sp)
800004ec:	05010113          	addi	sp,sp,80
800004f0:	00008067          	ret

800004f4 <get_1st_arg>:
800004f4:	ff010113          	addi	sp,sp,-16
800004f8:	00812623          	sw	s0,12(sp)
800004fc:	01712423          	sw	s7,8(sp)
80000500:	01010413          	addi	s0,sp,16
80000504:	000b8793          	mv	a5,s7
80000508:	00078513          	mv	a0,a5
8000050c:	00c12403          	lw	s0,12(sp)
80000510:	00812b83          	lw	s7,8(sp)
80000514:	01010113          	addi	sp,sp,16
80000518:	00008067          	ret

8000051c <get_2nd_arg>:
8000051c:	ff010113          	addi	sp,sp,-16
80000520:	00812623          	sw	s0,12(sp)
80000524:	01812423          	sw	s8,8(sp)
80000528:	01010413          	addi	s0,sp,16
8000052c:	000c0793          	mv	a5,s8
80000530:	00078513          	mv	a0,a5
80000534:	00c12403          	lw	s0,12(sp)
80000538:	00812c03          	lw	s8,8(sp)
8000053c:	01010113          	addi	sp,sp,16
80000540:	00008067          	ret

80000544 <get_3rd_arg>:
80000544:	ff010113          	addi	sp,sp,-16
80000548:	00812623          	sw	s0,12(sp)
8000054c:	01912423          	sw	s9,8(sp)
80000550:	01010413          	addi	s0,sp,16
80000554:	000c8793          	mv	a5,s9
80000558:	00078513          	mv	a0,a5
8000055c:	00c12403          	lw	s0,12(sp)
80000560:	00812c83          	lw	s9,8(sp)
80000564:	01010113          	addi	sp,sp,16
80000568:	00008067          	ret

Disassembly of section .bss:

81000000 <z>:
	...

81000040 <q>:
	...

Disassembly of section .data:

810005cc <x>:
810005cc:	0001                	nop
810005ce:	0000                	unimp
810005d0:	0001                	nop
810005d2:	0000                	unimp
810005d4:	0006                	c.slli	zero,0x1
810005d6:	0000                	unimp
810005d8:	0000                	unimp
810005da:	0000                	unimp
810005dc:	00000003          	lb	zero,0(zero) # 0 <A_WARPS-0x7>
810005e0:	0001                	nop
810005e2:	0000                	unimp
810005e4:	0001                	nop
810005e6:	0000                	unimp
810005e8:	0002                	c.slli64	zero
810005ea:	0000                	unimp
810005ec:	0000                	unimp
810005ee:	0000                	unimp
810005f0:	00000003          	lb	zero,0(zero) # 0 <A_WARPS-0x7>
810005f4:	0006                	c.slli	zero,0x1
810005f6:	0000                	unimp
810005f8:	00000007          	0x7
810005fc:	0005                	c.nop	1
810005fe:	0000                	unimp
81000600:	00000007          	0x7
81000604:	00000007          	0x7
81000608:	0009                	c.nop	2
	...

8100060c <y>:
8100060c:	0000                	unimp
8100060e:	0000                	unimp
81000610:	0002                	c.slli64	zero
81000612:	0000                	unimp
81000614:	0002                	c.slli64	zero
81000616:	0000                	unimp
81000618:	0000                	unimp
8100061a:	0000                	unimp
8100061c:	0005                	c.nop	1
8100061e:	0000                	unimp
81000620:	0000                	unimp
81000622:	0000                	unimp
81000624:	0001                	nop
81000626:	0000                	unimp
81000628:	0001                	nop
8100062a:	0000                	unimp
8100062c:	0004                	0x4
8100062e:	0000                	unimp
81000630:	0002                	c.slli64	zero
	...
8100063a:	0000                	unimp
8100063c:	00000003          	lb	zero,0(zero) # 0 <A_WARPS-0x7>
81000640:	0002                	c.slli64	zero
81000642:	0000                	unimp
81000644:	00000003          	lb	zero,0(zero) # 0 <A_WARPS-0x7>
81000648:	0002                	c.slli64	zero
	...

Disassembly of section .comment:

82000000 <.comment>:
82000000:	3a434347          	fmsub.d	ft6,ft6,ft4,ft7,rmm
82000004:	2820                	fld	fs0,80(s0)
82000006:	29554e47          	fmsub.s	ft8,fa0,fs5,ft5,rmm
8200000a:	3820                	fld	fs0,112(s0)
8200000c:	322e                	fld	ft4,232(sp)
8200000e:	302e                	fld	ft0,232(sp)
	...
