
gpgpu_test.elf:     file format elf32-littleriscv


Disassembly of section .text:

80000000 <_start>:
80000000:	7ffff137          	lui	sp,0x7ffff
80000004:	086000ef          	jal	ra,8000008a <main>
80000008:	00000073          	ecall

8000000c <createThreads>:
8000000c:	8bb6                	mv	s7,a3
8000000e:	8c3a                	mv	s8,a4
80000010:	8cbe                	mv	s9,a5
80000012:	8d42                	mv	s10,a6
80000014:	8f0a                	mv	t5,sp
80000016:	83aa                	mv	t2,a0

80000018 <loop_init>:
80000018:	4505                	li	a0,1

8000001a <loop_cond>:
8000001a:	00755963          	bge	a0,t2,8000002c <loop_done>

8000001e <loop_body>:
8000001e:	80010113          	addi	sp,sp,-2048 # 7fffe800 <SIZE+0x7fffe7ce>
80000022:	832a                	mv	t1,a0
80000024:	0003506b          	0x3506b

80000028 <loop_inc>:
80000028:	0505                	addi	a0,a0,1
8000002a:	bfc5                	j	8000001a <loop_cond>

8000002c <loop_done>:
8000002c:	817a                	mv	sp,t5
8000002e:	4501                	li	a0,0
80000030:	8fb2                	mv	t6,a2
80000032:	8d9e                	mv	s11,t2
80000034:	01bfe0eb          	0x1bfe0eb
80000038:	00000517          	auipc	a0,0x0
8000003c:	3a050513          	addi	a0,a0,928 # 800003d8 <reschedule_warps>
80000040:	0005406b          	0x5406b

80000044 <printc>:
80000044:	000108b7          	lui	a7,0x10
80000048:	00b8a023          	sw	a1,0(a7) # 10000 <SIZE+0xffce>
8000004c:	8082                	ret

8000004e <wspawn>:
8000004e:	00000317          	auipc	t1,0x0
80000052:	fbe30313          	addi	t1,t1,-66 # 8000000c <createThreads>
80000056:	0003006b          	0x3006b
8000005a:	8082                	ret

8000005c <print_consol>:
8000005c:	1151                	addi	sp,sp,-12
8000005e:	c006                	sw	ra,0(sp)
80000060:	c22e                	sw	a1,4(sp)

80000062 <bl>:
80000062:	00054583          	lbu	a1,0(a0)
80000066:	c581                	beqz	a1,8000006e <be>
80000068:	3ff1                	jal	80000044 <printc>
8000006a:	0505                	addi	a0,a0,1
8000006c:	bfdd                	j	80000062 <bl>

8000006e <be>:
8000006e:	4082                	lw	ra,0(sp)
80000070:	4592                	lw	a1,4(sp)
80000072:	0131                	addi	sp,sp,12
80000074:	8082                	ret

80000076 <print_int>:
80000076:	1151                	addi	sp,sp,-12
80000078:	c006                	sw	ra,0(sp)
8000007a:	c22e                	sw	a1,4(sp)
8000007c:	03050593          	addi	a1,a0,48
80000080:	37d1                	jal	80000044 <printc>
80000082:	4082                	lw	ra,0(sp)
80000084:	4592                	lw	a1,4(sp)
80000086:	0131                	addi	sp,sp,12
80000088:	8082                	ret

8000008a <main>:
8000008a:	1101                	addi	sp,sp,-32
8000008c:	ce06                	sw	ra,28(sp)
8000008e:	cc22                	sw	s0,24(sp)
80000090:	1000                	addi	s0,sp,32
80000092:	fe042623          	sw	zero,-20(s0)
80000096:	a815                	j	800000ca <main+0x40>
80000098:	fec42703          	lw	a4,-20(s0)
8000009c:	87ba                	mv	a5,a4
8000009e:	078e                	slli	a5,a5,0x3
800000a0:	8f99                	sub	a5,a5,a4
800000a2:	078a                	slli	a5,a5,0x2
800000a4:	8f99                	sub	a5,a5,a4
800000a6:	00479713          	slli	a4,a5,0x4
800000aa:	8f1d                	sub	a4,a4,a5
800000ac:	00271793          	slli	a5,a4,0x2
800000b0:	873e                	mv	a4,a5
800000b2:	810007b7          	lui	a5,0x81000
800000b6:	24478793          	addi	a5,a5,580 # 81000244 <main_sp+0xffffcd58>
800000ba:	97ba                	add	a5,a5,a4
800000bc:	853e                	mv	a0,a5
800000be:	2a91                	jal	80000212 <queue_initialize>
800000c0:	fec42783          	lw	a5,-20(s0)
800000c4:	0785                	addi	a5,a5,1
800000c6:	fef42623          	sw	a5,-20(s0)
800000ca:	fec42703          	lw	a4,-20(s0)
800000ce:	479d                	li	a5,7
800000d0:	fce7d4e3          	bge	a5,a4,80000098 <main+0xe>
800000d4:	810007b7          	lui	a5,0x81000
800000d8:	1f878793          	addi	a5,a5,504 # 810001f8 <main_sp+0xffffcd0c>
800000dc:	81000737          	lui	a4,0x81000
800000e0:	17870713          	addi	a4,a4,376 # 81000178 <main_sp+0xffffcc8c>
800000e4:	810006b7          	lui	a3,0x81000
800000e8:	13868693          	addi	a3,a3,312 # 81000138 <main_sp+0xffffcc4c>
800000ec:	80000637          	lui	a2,0x80000
800000f0:	17460613          	addi	a2,a2,372 # 80000174 <main_sp+0xfeffcc88>
800000f4:	45a1                	li	a1,8
800000f6:	4509                	li	a0,2
800000f8:	2141                	jal	80000578 <createWarps>
800000fa:	4509                	li	a0,2
800000fc:	2ba1                	jal	80000654 <wait_for_done>
800000fe:	810007b7          	lui	a5,0x81000
80000102:	04078513          	addi	a0,a5,64 # 81000040 <main_sp+0xffffcb54>
80000106:	3f99                	jal	8000005c <print_consol>
80000108:	810007b7          	lui	a5,0x81000
8000010c:	05c78513          	addi	a0,a5,92 # 8100005c <main_sp+0xffffcb70>
80000110:	37b1                	jal	8000005c <print_consol>
80000112:	fe042423          	sw	zero,-24(s0)
80000116:	a83d                	j	80000154 <main+0xca>
80000118:	fe842783          	lw	a5,-24(s0)
8000011c:	853e                	mv	a0,a5
8000011e:	242d                	jal	80000348 <int_print>
80000120:	810007b7          	lui	a5,0x81000
80000124:	06878513          	addi	a0,a5,104 # 81000068 <main_sp+0xffffcb7c>
80000128:	3f15                	jal	8000005c <print_consol>
8000012a:	810007b7          	lui	a5,0x81000
8000012e:	fe842703          	lw	a4,-24(s0)
80000132:	070a                	slli	a4,a4,0x2
80000134:	1f878793          	addi	a5,a5,504 # 810001f8 <main_sp+0xffffcd0c>
80000138:	97ba                	add	a5,a5,a4
8000013a:	439c                	lw	a5,0(a5)
8000013c:	853e                	mv	a0,a5
8000013e:	2429                	jal	80000348 <int_print>
80000140:	810007b7          	lui	a5,0x81000
80000144:	06c78513          	addi	a0,a5,108 # 8100006c <main_sp+0xffffcb80>
80000148:	3f11                	jal	8000005c <print_consol>
8000014a:	fe842783          	lw	a5,-24(s0)
8000014e:	0785                	addi	a5,a5,1
80000150:	fef42423          	sw	a5,-24(s0)
80000154:	fe842703          	lw	a4,-24(s0)
80000158:	47bd                	li	a5,15
8000015a:	fae7dfe3          	bge	a5,a4,80000118 <main+0x8e>
8000015e:	810007b7          	lui	a5,0x81000
80000162:	07078513          	addi	a0,a5,112 # 81000070 <main_sp+0xffffcb84>
80000166:	3ddd                	jal	8000005c <print_consol>
80000168:	4781                	li	a5,0
8000016a:	853e                	mv	a0,a5
8000016c:	40f2                	lw	ra,28(sp)
8000016e:	4462                	lw	s0,24(sp)
80000170:	6105                	addi	sp,sp,32
80000172:	8082                	ret

80000174 <matAddition>:
80000174:	7139                	addi	sp,sp,-64
80000176:	de06                	sw	ra,60(sp)
80000178:	dc22                	sw	s0,56(sp)
8000017a:	0080                	addi	s0,sp,64
8000017c:	fca42623          	sw	a0,-52(s0)
80000180:	fcb42423          	sw	a1,-56(s0)
80000184:	2399                	jal	800006ca <get_1st_arg>
80000186:	fea42623          	sw	a0,-20(s0)
8000018a:	2b91                	jal	800006de <get_2nd_arg>
8000018c:	fea42423          	sw	a0,-24(s0)
80000190:	238d                	jal	800006f2 <get_3rd_arg>
80000192:	fea42223          	sw	a0,-28(s0)
80000196:	fc842783          	lw	a5,-56(s0)
8000019a:	078e                	slli	a5,a5,0x3
8000019c:	fcc42703          	lw	a4,-52(s0)
800001a0:	97ba                	add	a5,a5,a4
800001a2:	fef42023          	sw	a5,-32(s0)
800001a6:	fe042783          	lw	a5,-32(s0)
800001aa:	00b7b793          	sltiu	a5,a5,11
800001ae:	0017c793          	xori	a5,a5,1
800001b2:	fcf40fa3          	sb	a5,-33(s0)
800001b6:	fdf44783          	lbu	a5,-33(s0)
800001ba:	8f3e                	mv	t5,a5
800001bc:	800007b7          	lui	a5,0x80000
800001c0:	20278f93          	addi	t6,a5,514 # 80000202 <main_sp+0xfeffcd16>
800001c4:	000f206b          	0xf206b
800001c8:	01ff707b          	0x1ff707b
800001cc:	fe042783          	lw	a5,-32(s0)
800001d0:	078a                	slli	a5,a5,0x2
800001d2:	fec42703          	lw	a4,-20(s0)
800001d6:	97ba                	add	a5,a5,a4
800001d8:	4394                	lw	a3,0(a5)
800001da:	fe042783          	lw	a5,-32(s0)
800001de:	078a                	slli	a5,a5,0x2
800001e0:	fe842703          	lw	a4,-24(s0)
800001e4:	97ba                	add	a5,a5,a4
800001e6:	4398                	lw	a4,0(a5)
800001e8:	fe042783          	lw	a5,-32(s0)
800001ec:	078a                	slli	a5,a5,0x2
800001ee:	fe442603          	lw	a2,-28(s0)
800001f2:	97b2                	add	a5,a5,a2
800001f4:	9736                	add	a4,a4,a3
800001f6:	c398                	sw	a4,0(a5)
800001f8:	800007b7          	lui	a5,0x80000
800001fc:	20478e13          	addi	t3,a5,516 # 80000204 <main_sp+0xfeffcd18>
80000200:	8e02                	jr	t3
80000202:	0001                	nop
80000204:	0000306b          	0x306b
80000208:	0001                	nop
8000020a:	50f2                	lw	ra,60(sp)
8000020c:	5462                	lw	s0,56(sp)
8000020e:	6121                	addi	sp,sp,64
80000210:	8082                	ret

80000212 <queue_initialize>:
80000212:	82aa                	mv	t0,a0
80000214:	4301                	li	t1,0
80000216:	439d                	li	t2,7
80000218:	0062a023          	sw	t1,0(t0)
8000021c:	0062a223          	sw	t1,4(t0)
80000220:	0062a423          	sw	t1,8(t0)
80000224:	0072a623          	sw	t2,12(t0)
80000228:	0062a823          	sw	t1,16(t0)
8000022c:	8082                	ret

8000022e <queue_enqueue>:
8000022e:	82aa                	mv	t0,a0
80000230:	0082a303          	lw	t1,8(t0)
80000234:	0305                	addi	t1,t1,1
80000236:	0062a423          	sw	t1,8(t0)
8000023a:	01428313          	addi	t1,t0,20
8000023e:	0042ae83          	lw	t4,4(t0)
80000242:	005e9393          	slli	t2,t4,0x5
80000246:	931e                	add	t1,t1,t2
80000248:	0005ae03          	lw	t3,0(a1)
8000024c:	01c32023          	sw	t3,0(t1)
80000250:	0045ae03          	lw	t3,4(a1)
80000254:	01c32223          	sw	t3,4(t1)
80000258:	0085ae03          	lw	t3,8(a1)
8000025c:	01c32423          	sw	t3,8(t1)
80000260:	00c5ae03          	lw	t3,12(a1)
80000264:	01c32623          	sw	t3,12(t1)
80000268:	0105ae03          	lw	t3,16(a1)
8000026c:	01c32823          	sw	t3,16(t1)
80000270:	0145ae03          	lw	t3,20(a1)
80000274:	01c32a23          	sw	t3,20(t1)
80000278:	0185ae03          	lw	t3,24(a1)
8000027c:	01c32c23          	sw	t3,24(t1)
80000280:	01c5ae03          	lw	t3,28(a1)
80000284:	01c32e23          	sw	t3,28(t1)
80000288:	0e85                	addi	t4,t4,1
8000028a:	03200f13          	li	t5,50
8000028e:	01ee9463          	bne	t4,t5,80000296 <ec>
80000292:	00000e93          	li	t4,0

80000296 <ec>:
80000296:	01d2a223          	sw	t4,4(t0)
8000029a:	8082                	ret

8000029c <queue_dequeue>:
8000029c:	82aa                	mv	t0,a0
8000029e:	0082a303          	lw	t1,8(t0)
800002a2:	137d                	addi	t1,t1,-1
800002a4:	0062a423          	sw	t1,8(t0)
800002a8:	01428313          	addi	t1,t0,20
800002ac:	0002ae83          	lw	t4,0(t0)
800002b0:	03200f93          	li	t6,50
800002b4:	8f76                	mv	t5,t4
800002b6:	0f05                	addi	t5,t5,1
800002b8:	01ff1463          	bne	t5,t6,800002c0 <dc>
800002bc:	00000f13          	li	t5,0

800002c0 <dc>:
800002c0:	01e2a023          	sw	t5,0(t0)
800002c4:	005e9393          	slli	t2,t4,0x5
800002c8:	931e                	add	t1,t1,t2
800002ca:	00032e03          	lw	t3,0(t1)
800002ce:	01c5a023          	sw	t3,0(a1)
800002d2:	00432e03          	lw	t3,4(t1)
800002d6:	01c5a223          	sw	t3,4(a1)
800002da:	00832e03          	lw	t3,8(t1)
800002de:	01c5a423          	sw	t3,8(a1)
800002e2:	00c32e03          	lw	t3,12(t1)
800002e6:	01c5a623          	sw	t3,12(a1)
800002ea:	01032e03          	lw	t3,16(t1)
800002ee:	01c5a823          	sw	t3,16(a1)
800002f2:	01432e03          	lw	t3,20(t1)
800002f6:	01c5aa23          	sw	t3,20(a1)
800002fa:	01832e03          	lw	t3,24(t1)
800002fe:	01c5ac23          	sw	t3,24(a1)
80000302:	01c32e03          	lw	t3,28(t1)
80000306:	01c5ae23          	sw	t3,28(a1)
8000030a:	8082                	ret

8000030c <queue_isFull>:
8000030c:	82aa                	mv	t0,a0
8000030e:	0082a303          	lw	t1,8(t0)
80000312:	00000513          	li	a0,0
80000316:	03200e13          	li	t3,50
8000031a:	006e1363          	bne	t3,t1,80000320 <qf>
8000031e:	0505                	addi	a0,a0,1

80000320 <qf>:
80000320:	8082                	ret

80000322 <queue_isEmpty>:
80000322:	82aa                	mv	t0,a0
80000324:	0082a303          	lw	t1,8(t0)
80000328:	00000513          	li	a0,0
8000032c:	00000e13          	li	t3,0
80000330:	006e1363          	bne	t3,t1,80000336 <qe>
80000334:	0505                	addi	a0,a0,1

80000336 <qe>:
80000336:	8082                	ret

80000338 <queue_availableWarps>:
80000338:	82aa                	mv	t0,a0
8000033a:	00c2a303          	lw	t1,12(t0)
8000033e:	0102a383          	lw	t2,16(t0)
80000342:	0063b533          	sltu	a0,t2,t1
80000346:	8082                	ret

80000348 <int_print>:
80000348:	7179                	addi	sp,sp,-48
8000034a:	d606                	sw	ra,44(sp)
8000034c:	d422                	sw	s0,40(sp)
8000034e:	1800                	addi	s0,sp,48
80000350:	fca42e23          	sw	a0,-36(s0)
80000354:	fdc42703          	lw	a4,-36(s0)
80000358:	47bd                	li	a5,15
8000035a:	00e7ee63          	bltu	a5,a4,80000376 <int_print+0x2e>
8000035e:	810007b7          	lui	a5,0x81000
80000362:	fdc42703          	lw	a4,-36(s0)
80000366:	070a                	slli	a4,a4,0x2
80000368:	1b878793          	addi	a5,a5,440 # 810001b8 <main_sp+0xffffcccc>
8000036c:	97ba                	add	a5,a5,a4
8000036e:	439c                	lw	a5,0(a5)
80000370:	853e                	mv	a0,a5
80000372:	31ed                	jal	8000005c <print_consol>
80000374:	a8b1                	j	800003d0 <int_print+0x88>
80000376:	02000793          	li	a5,32
8000037a:	fef42623          	sw	a5,-20(s0)
8000037e:	fe0405a3          	sb	zero,-21(s0)
80000382:	fec42783          	lw	a5,-20(s0)
80000386:	17f1                	addi	a5,a5,-4
80000388:	fdc42703          	lw	a4,-36(s0)
8000038c:	00f757b3          	srl	a5,a4,a5
80000390:	8bbd                	andi	a5,a5,15
80000392:	fef42223          	sw	a5,-28(s0)
80000396:	fe442783          	lw	a5,-28(s0)
8000039a:	c781                	beqz	a5,800003a2 <int_print+0x5a>
8000039c:	4785                	li	a5,1
8000039e:	fef405a3          	sb	a5,-21(s0)
800003a2:	feb44783          	lbu	a5,-21(s0)
800003a6:	cf81                	beqz	a5,800003be <int_print+0x76>
800003a8:	810007b7          	lui	a5,0x81000
800003ac:	fe442703          	lw	a4,-28(s0)
800003b0:	070a                	slli	a4,a4,0x2
800003b2:	1b878793          	addi	a5,a5,440 # 810001b8 <main_sp+0xffffcccc>
800003b6:	97ba                	add	a5,a5,a4
800003b8:	439c                	lw	a5,0(a5)
800003ba:	853e                	mv	a0,a5
800003bc:	3145                	jal	8000005c <print_consol>
800003be:	fec42783          	lw	a5,-20(s0)
800003c2:	17f1                	addi	a5,a5,-4
800003c4:	fef42623          	sw	a5,-20(s0)
800003c8:	fec42783          	lw	a5,-20(s0)
800003cc:	faf04be3          	bgtz	a5,80000382 <int_print+0x3a>
800003d0:	50b2                	lw	ra,44(sp)
800003d2:	5422                	lw	s0,40(sp)
800003d4:	6145                	addi	sp,sp,48
800003d6:	8082                	ret

800003d8 <reschedule_warps>:
800003d8:	7179                	addi	sp,sp,-48
800003da:	d606                	sw	ra,44(sp)
800003dc:	d422                	sw	s0,40(sp)
800003de:	d26a                	sw	s10,36(sp)
800003e0:	1800                	addi	s0,sp,48
800003e2:	876a                	mv	a4,s10
800003e4:	87ba                	mv	a5,a4
800003e6:	078e                	slli	a5,a5,0x3
800003e8:	8f99                	sub	a5,a5,a4
800003ea:	078a                	slli	a5,a5,0x2
800003ec:	8f99                	sub	a5,a5,a4
800003ee:	00479713          	slli	a4,a5,0x4
800003f2:	8f1d                	sub	a4,a4,a5
800003f4:	00271793          	slli	a5,a4,0x2
800003f8:	873e                	mv	a4,a5
800003fa:	810007b7          	lui	a5,0x81000
800003fe:	24478793          	addi	a5,a5,580 # 81000244 <main_sp+0xffffcd58>
80000402:	97ba                	add	a5,a5,a4
80000404:	853e                	mv	a0,a5
80000406:	3f31                	jal	80000322 <queue_isEmpty>
80000408:	87aa                	mv	a5,a0
8000040a:	cb8d                	beqz	a5,8000043c <reschedule_warps+0x64>
8000040c:	810007b7          	lui	a5,0x81000
80000410:	0d478513          	addi	a0,a5,212 # 810000d4 <main_sp+0xffffcbe8>
80000414:	31a1                	jal	8000005c <print_consol>
80000416:	87ea                	mv	a5,s10
80000418:	853e                	mv	a0,a5
8000041a:	373d                	jal	80000348 <int_print>
8000041c:	810007b7          	lui	a5,0x81000
80000420:	0dc78513          	addi	a0,a5,220 # 810000dc <main_sp+0xffffcbf0>
80000424:	3925                	jal	8000005c <print_consol>
80000426:	876a                	mv	a4,s10
80000428:	810037b7          	lui	a5,0x81003
8000042c:	4e478793          	addi	a5,a5,1252 # 810034e4 <main_sp+0xfffffff8>
80000430:	97ba                	add	a5,a5,a4
80000432:	4705                	li	a4,1
80000434:	00e78023          	sb	a4,0(a5)
80000438:	00000073          	ecall
8000043c:	876a                	mv	a4,s10
8000043e:	87ba                	mv	a5,a4
80000440:	078e                	slli	a5,a5,0x3
80000442:	8f99                	sub	a5,a5,a4
80000444:	078a                	slli	a5,a5,0x2
80000446:	8f99                	sub	a5,a5,a4
80000448:	00479713          	slli	a4,a5,0x4
8000044c:	8f1d                	sub	a4,a4,a5
8000044e:	00271793          	slli	a5,a4,0x2
80000452:	873e                	mv	a4,a5
80000454:	810007b7          	lui	a5,0x81000
80000458:	24478793          	addi	a5,a5,580 # 81000244 <main_sp+0xffffcd58>
8000045c:	97ba                	add	a5,a5,a4
8000045e:	fd040713          	addi	a4,s0,-48
80000462:	85ba                	mv	a1,a4
80000464:	853e                	mv	a0,a5
80000466:	3d1d                	jal	8000029c <queue_dequeue>
80000468:	fd842783          	lw	a5,-40(s0)
8000046c:	813e                	mv	sp,a5
8000046e:	fd442503          	lw	a0,-44(s0)
80000472:	fd042583          	lw	a1,-48(s0)
80000476:	fdc42603          	lw	a2,-36(s0)
8000047a:	fe042683          	lw	a3,-32(s0)
8000047e:	fe442703          	lw	a4,-28(s0)
80000482:	fe842783          	lw	a5,-24(s0)
80000486:	fec42803          	lw	a6,-20(s0)
8000048a:	3649                	jal	8000000c <createThreads>
8000048c:	00000073          	ecall
80000490:	0001                	nop
80000492:	50b2                	lw	ra,44(sp)
80000494:	5422                	lw	s0,40(sp)
80000496:	5d12                	lw	s10,36(sp)
80000498:	6145                	addi	sp,sp,48
8000049a:	8082                	ret

8000049c <schedule_warps>:
8000049c:	7139                	addi	sp,sp,-64
8000049e:	de06                	sw	ra,60(sp)
800004a0:	dc22                	sw	s0,56(sp)
800004a2:	0080                	addi	s0,sp,64
800004a4:	898a                	mv	s3,sp
800004a6:	fe042623          	sw	zero,-20(s0)
800004aa:	a069                	j	80000534 <schedule_warps+0x98>
800004ac:	fec42703          	lw	a4,-20(s0)
800004b0:	87ba                	mv	a5,a4
800004b2:	078e                	slli	a5,a5,0x3
800004b4:	8f99                	sub	a5,a5,a4
800004b6:	078a                	slli	a5,a5,0x2
800004b8:	8f99                	sub	a5,a5,a4
800004ba:	00479713          	slli	a4,a5,0x4
800004be:	8f1d                	sub	a4,a4,a5
800004c0:	00271793          	slli	a5,a4,0x2
800004c4:	873e                	mv	a4,a5
800004c6:	810007b7          	lui	a5,0x81000
800004ca:	24478793          	addi	a5,a5,580 # 81000244 <main_sp+0xffffcd58>
800004ce:	97ba                	add	a5,a5,a4
800004d0:	853e                	mv	a0,a5
800004d2:	3d81                	jal	80000322 <queue_isEmpty>
800004d4:	87aa                	mv	a5,a0
800004d6:	ebb1                	bnez	a5,8000052a <schedule_warps+0x8e>
800004d8:	fec42703          	lw	a4,-20(s0)
800004dc:	87ba                	mv	a5,a4
800004de:	078e                	slli	a5,a5,0x3
800004e0:	8f99                	sub	a5,a5,a4
800004e2:	078a                	slli	a5,a5,0x2
800004e4:	8f99                	sub	a5,a5,a4
800004e6:	00479713          	slli	a4,a5,0x4
800004ea:	8f1d                	sub	a4,a4,a5
800004ec:	00271793          	slli	a5,a4,0x2
800004f0:	873e                	mv	a4,a5
800004f2:	810007b7          	lui	a5,0x81000
800004f6:	24478793          	addi	a5,a5,580 # 81000244 <main_sp+0xffffcd58>
800004fa:	97ba                	add	a5,a5,a4
800004fc:	fcc40713          	addi	a4,s0,-52
80000500:	85ba                	mv	a1,a4
80000502:	853e                	mv	a0,a5
80000504:	3b61                	jal	8000029c <queue_dequeue>
80000506:	fd442783          	lw	a5,-44(s0)
8000050a:	813e                	mv	sp,a5
8000050c:	fd042503          	lw	a0,-48(s0)
80000510:	fcc42583          	lw	a1,-52(s0)
80000514:	fd842603          	lw	a2,-40(s0)
80000518:	fdc42683          	lw	a3,-36(s0)
8000051c:	fe042703          	lw	a4,-32(s0)
80000520:	fe442783          	lw	a5,-28(s0)
80000524:	fe842803          	lw	a6,-24(s0)
80000528:	361d                	jal	8000004e <wspawn>
8000052a:	fec42783          	lw	a5,-20(s0)
8000052e:	0785                	addi	a5,a5,1
80000530:	fef42623          	sw	a5,-20(s0)
80000534:	fec42703          	lw	a4,-20(s0)
80000538:	4799                	li	a5,6
8000053a:	f6e7d9e3          	bge	a5,a4,800004ac <schedule_warps+0x10>
8000053e:	814e                	mv	sp,s3
80000540:	0001                	nop
80000542:	50f2                	lw	ra,60(sp)
80000544:	5462                	lw	s0,56(sp)
80000546:	6121                	addi	sp,sp,64
80000548:	8082                	ret

8000054a <sleep>:
8000054a:	7179                	addi	sp,sp,-48
8000054c:	d622                	sw	s0,44(sp)
8000054e:	1800                	addi	s0,sp,48
80000550:	fca42e23          	sw	a0,-36(s0)
80000554:	fe042623          	sw	zero,-20(s0)
80000558:	a031                	j	80000564 <sleep+0x1a>
8000055a:	fec42783          	lw	a5,-20(s0)
8000055e:	0785                	addi	a5,a5,1
80000560:	fef42623          	sw	a5,-20(s0)
80000564:	fec42703          	lw	a4,-20(s0)
80000568:	fdc42783          	lw	a5,-36(s0)
8000056c:	fef747e3          	blt	a4,a5,8000055a <sleep+0x10>
80000570:	0001                	nop
80000572:	5432                	lw	s0,44(sp)
80000574:	6145                	addi	sp,sp,48
80000576:	8082                	ret

80000578 <createWarps>:
80000578:	711d                	addi	sp,sp,-96
8000057a:	ce86                	sw	ra,92(sp)
8000057c:	cca2                	sw	s0,88(sp)
8000057e:	1080                	addi	s0,sp,96
80000580:	faa42e23          	sw	a0,-68(s0)
80000584:	fab42c23          	sw	a1,-72(s0)
80000588:	fac42a23          	sw	a2,-76(s0)
8000058c:	fad42823          	sw	a3,-80(s0)
80000590:	fae42623          	sw	a4,-84(s0)
80000594:	faf42423          	sw	a5,-88(s0)
80000598:	00010913          	mv	s2,sp
8000059c:	fe042623          	sw	zero,-20(s0)
800005a0:	fe042423          	sw	zero,-24(s0)
800005a4:	a851                	j	80000638 <createWarps+0xc0>
800005a6:	79c1                	lui	s3,0xffff0
800005a8:	914e                	add	sp,sp,s3
800005aa:	fe842783          	lw	a5,-24(s0)
800005ae:	fcf42423          	sw	a5,-56(s0)
800005b2:	fb842783          	lw	a5,-72(s0)
800005b6:	fcf42623          	sw	a5,-52(s0)
800005ba:	878a                	mv	a5,sp
800005bc:	fcf42823          	sw	a5,-48(s0)
800005c0:	fb442783          	lw	a5,-76(s0)
800005c4:	fcf42a23          	sw	a5,-44(s0)
800005c8:	fb042783          	lw	a5,-80(s0)
800005cc:	fcf42c23          	sw	a5,-40(s0)
800005d0:	fac42783          	lw	a5,-84(s0)
800005d4:	fcf42e23          	sw	a5,-36(s0)
800005d8:	fa842783          	lw	a5,-88(s0)
800005dc:	fef42023          	sw	a5,-32(s0)
800005e0:	fec42783          	lw	a5,-20(s0)
800005e4:	fef42223          	sw	a5,-28(s0)
800005e8:	fec42703          	lw	a4,-20(s0)
800005ec:	87ba                	mv	a5,a4
800005ee:	078e                	slli	a5,a5,0x3
800005f0:	8f99                	sub	a5,a5,a4
800005f2:	078a                	slli	a5,a5,0x2
800005f4:	8f99                	sub	a5,a5,a4
800005f6:	00479713          	slli	a4,a5,0x4
800005fa:	8f1d                	sub	a4,a4,a5
800005fc:	00271793          	slli	a5,a4,0x2
80000600:	873e                	mv	a4,a5
80000602:	810007b7          	lui	a5,0x81000
80000606:	24478793          	addi	a5,a5,580 # 81000244 <main_sp+0xffffcd58>
8000060a:	97ba                	add	a5,a5,a4
8000060c:	fc840713          	addi	a4,s0,-56
80000610:	85ba                	mv	a1,a4
80000612:	853e                	mv	a0,a5
80000614:	3929                	jal	8000022e <queue_enqueue>
80000616:	fec42783          	lw	a5,-20(s0)
8000061a:	0785                	addi	a5,a5,1
8000061c:	fef42623          	sw	a5,-20(s0)
80000620:	fec42703          	lw	a4,-20(s0)
80000624:	4799                	li	a5,6
80000626:	00e7d463          	bge	a5,a4,8000062e <createWarps+0xb6>
8000062a:	fe042623          	sw	zero,-20(s0)
8000062e:	fe842783          	lw	a5,-24(s0)
80000632:	0785                	addi	a5,a5,1
80000634:	fef42423          	sw	a5,-24(s0)
80000638:	fe842703          	lw	a4,-24(s0)
8000063c:	fbc42783          	lw	a5,-68(s0)
80000640:	f6f763e3          	bltu	a4,a5,800005a6 <createWarps+0x2e>
80000644:	00090113          	mv	sp,s2
80000648:	3d91                	jal	8000049c <schedule_warps>
8000064a:	0001                	nop
8000064c:	40f6                	lw	ra,92(sp)
8000064e:	4466                	lw	s0,88(sp)
80000650:	6125                	addi	sp,sp,96
80000652:	8082                	ret

80000654 <wait_for_done>:
80000654:	7179                	addi	sp,sp,-48
80000656:	d606                	sw	ra,44(sp)
80000658:	d422                	sw	s0,40(sp)
8000065a:	1800                	addi	s0,sp,48
8000065c:	fca42e23          	sw	a0,-36(s0)
80000660:	810007b7          	lui	a5,0x81000
80000664:	0e078513          	addi	a0,a5,224 # 810000e0 <main_sp+0xffffcbf4>
80000668:	3ad5                	jal	8000005c <print_consol>
8000066a:	fe0407a3          	sb	zero,-17(s0)
8000066e:	a091                	j	800006b2 <wait_for_done+0x5e>
80000670:	4785                	li	a5,1
80000672:	fef407a3          	sb	a5,-17(s0)
80000676:	fe042423          	sw	zero,-24(s0)
8000067a:	a035                	j	800006a6 <wait_for_done+0x52>
8000067c:	fef44783          	lbu	a5,-17(s0)
80000680:	81003737          	lui	a4,0x81003
80000684:	4e470693          	addi	a3,a4,1252 # 810034e4 <main_sp+0xfffffff8>
80000688:	fe842703          	lw	a4,-24(s0)
8000068c:	9736                	add	a4,a4,a3
8000068e:	00074703          	lbu	a4,0(a4)
80000692:	8ff9                	and	a5,a5,a4
80000694:	00f037b3          	snez	a5,a5
80000698:	fef407a3          	sb	a5,-17(s0)
8000069c:	fe842783          	lw	a5,-24(s0)
800006a0:	0785                	addi	a5,a5,1
800006a2:	fef42423          	sw	a5,-24(s0)
800006a6:	fe842783          	lw	a5,-24(s0)
800006aa:	fdc42703          	lw	a4,-36(s0)
800006ae:	fce7e7e3          	bltu	a5,a4,8000067c <wait_for_done+0x28>
800006b2:	fef44783          	lbu	a5,-17(s0)
800006b6:	0017c793          	xori	a5,a5,1
800006ba:	0ff7f793          	andi	a5,a5,255
800006be:	fbcd                	bnez	a5,80000670 <wait_for_done+0x1c>
800006c0:	0001                	nop
800006c2:	50b2                	lw	ra,44(sp)
800006c4:	5422                	lw	s0,40(sp)
800006c6:	6145                	addi	sp,sp,48
800006c8:	8082                	ret

800006ca <get_1st_arg>:
800006ca:	1141                	addi	sp,sp,-16
800006cc:	c622                	sw	s0,12(sp)
800006ce:	c45e                	sw	s7,8(sp)
800006d0:	0800                	addi	s0,sp,16
800006d2:	87de                	mv	a5,s7
800006d4:	853e                	mv	a0,a5
800006d6:	4432                	lw	s0,12(sp)
800006d8:	4ba2                	lw	s7,8(sp)
800006da:	0141                	addi	sp,sp,16
800006dc:	8082                	ret

800006de <get_2nd_arg>:
800006de:	1141                	addi	sp,sp,-16
800006e0:	c622                	sw	s0,12(sp)
800006e2:	c462                	sw	s8,8(sp)
800006e4:	0800                	addi	s0,sp,16
800006e6:	87e2                	mv	a5,s8
800006e8:	853e                	mv	a0,a5
800006ea:	4432                	lw	s0,12(sp)
800006ec:	4c22                	lw	s8,8(sp)
800006ee:	0141                	addi	sp,sp,16
800006f0:	8082                	ret

800006f2 <get_3rd_arg>:
800006f2:	1141                	addi	sp,sp,-16
800006f4:	c622                	sw	s0,12(sp)
800006f6:	c466                	sw	s9,8(sp)
800006f8:	0800                	addi	s0,sp,16
800006fa:	87e6                	mv	a5,s9
800006fc:	853e                	mv	a0,a5
800006fe:	4432                	lw	s0,12(sp)
80000700:	4ca2                	lw	s9,8(sp)
80000702:	0141                	addi	sp,sp,16
80000704:	8082                	ret

Disassembly of section .rodata:

81000000 <.rodata>:
81000000:	0030                	addi	a2,sp,8
81000002:	0000                	unimp
81000004:	0031                	c.nop	12
81000006:	0000                	unimp
81000008:	0032                	c.slli	zero,0xc
8100000a:	0000                	unimp
8100000c:	00000033          	add	zero,zero,zero
81000010:	0034                	addi	a3,sp,8
81000012:	0000                	unimp
81000014:	0035                	c.nop	13
81000016:	0000                	unimp
81000018:	0036                	c.slli	zero,0xd
8100001a:	0000                	unimp
8100001c:	00000037          	lui	zero,0x0
81000020:	0038                	addi	a4,sp,8
81000022:	0000                	unimp
81000024:	0039                	c.nop	14
81000026:	0000                	unimp
81000028:	0061                	c.nop	24
8100002a:	0000                	unimp
8100002c:	0062                	c.slli	zero,0x18
8100002e:	0000                	unimp
81000030:	00000063          	beqz	zero,81000030 <get_3rd_arg+0xfff93e>
81000034:	0064                	addi	s1,sp,12
81000036:	0000                	unimp
81000038:	0065                	c.nop	25
8100003a:	0000                	unimp
8100003c:	0066                	c.slli	zero,0x19
8100003e:	0000                	unimp
81000040:	2d2d                	jal	8100067a <q+0x436>
81000042:	2d2d                	jal	8100067c <q+0x438>
81000044:	2d2d                	jal	8100067e <q+0x43a>
81000046:	2d2d                	jal	81000680 <q+0x43c>
81000048:	2d2d                	jal	81000682 <q+0x43e>
8100004a:	2d2d                	jal	81000684 <q+0x440>
8100004c:	2d2d                	jal	81000686 <q+0x442>
8100004e:	2d2d                	jal	81000688 <q+0x444>
81000050:	2d2d                	jal	8100068a <q+0x446>
81000052:	2d2d                	jal	8100068c <q+0x448>
81000054:	2d2d                	jal	8100068e <q+0x44a>
81000056:	2d2d                	jal	81000690 <q+0x44c>
81000058:	0a2d                	addi	s4,s4,11
8100005a:	0000                	unimp
8100005c:	4946                	lw	s2,80(sp)
8100005e:	414e                	lw	sp,208(sp)
81000060:	204c                	fld	fa1,128(s0)
81000062:	0a5a                	slli	s4,s4,0x16
81000064:	0000                	unimp
81000066:	0000                	unimp
81000068:	203a                	fld	ft0,392(sp)
8100006a:	0000                	unimp
8100006c:	000a                	c.slli	zero,0x2
8100006e:	0000                	unimp
81000070:	2d2d                	jal	810006aa <q+0x466>
81000072:	2d2d                	jal	810006ac <q+0x468>
81000074:	2d2d                	jal	810006ae <q+0x46a>
81000076:	2d2d                	jal	810006b0 <q+0x46c>
81000078:	2d2d                	jal	810006b2 <q+0x46e>
8100007a:	2d2d                	jal	810006b4 <q+0x470>
8100007c:	2d2d                	jal	810006b6 <q+0x472>
8100007e:	2d2d                	jal	810006b8 <q+0x474>
81000080:	2d2d                	jal	810006ba <q+0x476>
81000082:	2d2d                	jal	810006bc <q+0x478>
81000084:	2d2d                	jal	810006be <q+0x47a>
81000086:	2d2d                	jal	810006c0 <q+0x47c>
81000088:	2d2d                	jal	810006c2 <q+0x47e>
8100008a:	2d2d                	jal	810006c4 <q+0x480>
8100008c:	2d2d                	jal	810006c6 <q+0x482>
8100008e:	0a2d                	addi	s4,s4,11
81000090:	0000                	unimp
81000092:	0000                	unimp
81000094:	0030                	addi	a2,sp,8
81000096:	0000                	unimp
81000098:	0031                	c.nop	12
8100009a:	0000                	unimp
8100009c:	0032                	c.slli	zero,0xc
8100009e:	0000                	unimp
810000a0:	00000033          	add	zero,zero,zero
810000a4:	0034                	addi	a3,sp,8
810000a6:	0000                	unimp
810000a8:	0035                	c.nop	13
810000aa:	0000                	unimp
810000ac:	0036                	c.slli	zero,0xd
810000ae:	0000                	unimp
810000b0:	00000037          	lui	zero,0x0
810000b4:	0038                	addi	a4,sp,8
810000b6:	0000                	unimp
810000b8:	0039                	c.nop	14
810000ba:	0000                	unimp
810000bc:	0061                	c.nop	24
810000be:	0000                	unimp
810000c0:	0062                	c.slli	zero,0x18
810000c2:	0000                	unimp
810000c4:	00000063          	beqz	zero,810000c4 <get_3rd_arg+0xfff9d2>
810000c8:	0064                	addi	s1,sp,12
810000ca:	0000                	unimp
810000cc:	0065                	c.nop	25
810000ce:	0000                	unimp
810000d0:	0066                	c.slli	zero,0x19
810000d2:	0000                	unimp
810000d4:	6f64                	flw	fs1,92(a4)
810000d6:	656e                	flw	fa0,216(sp)
810000d8:	203a                	fld	ft0,392(sp)
810000da:	0000                	unimp
810000dc:	000a                	c.slli	zero,0x2
810000de:	0000                	unimp
810000e0:	6261                	lui	tp,0x18
810000e2:	2074756f          	jal	a0,81047ae8 <main_sp+0x445fc>
810000e6:	6f74                	flw	fa3,92(a4)
810000e8:	7720                	flw	fs0,104(a4)
810000ea:	6961                	lui	s2,0x18
810000ec:	2074                	fld	fa3,192(s0)
810000ee:	6f66                	flw	ft10,88(sp)
810000f0:	2072                	fld	ft0,280(sp)
810000f2:	6f64                	flw	fs1,92(a4)
810000f4:	656e                	flw	fa0,216(sp)
810000f6:	000a                	c.slli	zero,0x2

Disassembly of section .data:

810000f8 <hextoa>:
810000f8:	0000                	unimp
810000fa:	8100                	0x8100
810000fc:	0004                	0x4
810000fe:	8100                	0x8100
81000100:	0008                	0x8
81000102:	8100                	0x8100
81000104:	000c                	0xc
81000106:	8100                	0x8100
81000108:	0010                	0x10
8100010a:	8100                	0x8100
8100010c:	0014                	0x14
8100010e:	8100                	0x8100
81000110:	0018                	0x18
81000112:	8100                	0x8100
81000114:	001c                	0x1c
81000116:	8100                	0x8100
81000118:	0020                	addi	s0,sp,8
8100011a:	8100                	0x8100
8100011c:	0024                	addi	s1,sp,8
8100011e:	8100                	0x8100
81000120:	0028                	addi	a0,sp,8
81000122:	8100                	0x8100
81000124:	002c                	addi	a1,sp,8
81000126:	8100                	0x8100
81000128:	0030                	addi	a2,sp,8
8100012a:	8100                	0x8100
8100012c:	0034                	addi	a3,sp,8
8100012e:	8100                	0x8100
81000130:	0038                	addi	a4,sp,8
81000132:	8100                	0x8100
81000134:	003c                	addi	a5,sp,8
81000136:	8100                	0x8100

81000138 <x>:
81000138:	0001                	nop
8100013a:	0000                	unimp
8100013c:	0001                	nop
8100013e:	0000                	unimp
81000140:	0001                	nop
81000142:	0000                	unimp
81000144:	0001                	nop
81000146:	0000                	unimp
81000148:	0001                	nop
8100014a:	0000                	unimp
8100014c:	0001                	nop
8100014e:	0000                	unimp
81000150:	0001                	nop
81000152:	0000                	unimp
81000154:	0001                	nop
81000156:	0000                	unimp
81000158:	0001                	nop
8100015a:	0000                	unimp
8100015c:	0001                	nop
8100015e:	0000                	unimp
81000160:	0001                	nop
81000162:	0000                	unimp
81000164:	0001                	nop
81000166:	0000                	unimp
81000168:	0001                	nop
8100016a:	0000                	unimp
8100016c:	0001                	nop
8100016e:	0000                	unimp
81000170:	0001                	nop
81000172:	0000                	unimp
81000174:	0001                	nop
	...

81000178 <y>:
81000178:	0000                	unimp
8100017a:	0000                	unimp
8100017c:	0001                	nop
8100017e:	0000                	unimp
81000180:	0002                	c.slli64	zero
81000182:	0000                	unimp
81000184:	00000003          	lb	zero,0(zero) # 0 <A_WARPS-0x7>
81000188:	0004                	0x4
8100018a:	0000                	unimp
8100018c:	0005                	c.nop	1
8100018e:	0000                	unimp
81000190:	0006                	c.slli	zero,0x1
81000192:	0000                	unimp
81000194:	00000007          	0x7
81000198:	0008                	0x8
8100019a:	0000                	unimp
8100019c:	0009                	c.nop	2
8100019e:	0000                	unimp
810001a0:	000a                	c.slli	zero,0x2
810001a2:	0000                	unimp
810001a4:	0000000b          	0xb
810001a8:	000c                	0xc
810001aa:	0000                	unimp
810001ac:	000d                	c.nop	3
810001ae:	0000                	unimp
810001b0:	000e                	c.slli	zero,0x3
810001b2:	0000                	unimp
810001b4:	0000000f          	fence	unknown,unknown

810001b8 <hextoa>:
810001b8:	0094                	addi	a3,sp,64
810001ba:	8100                	0x8100
810001bc:	0098                	addi	a4,sp,64
810001be:	8100                	0x8100
810001c0:	009c                	addi	a5,sp,64
810001c2:	8100                	0x8100
810001c4:	00a0                	addi	s0,sp,72
810001c6:	8100                	0x8100
810001c8:	00a4                	addi	s1,sp,72
810001ca:	8100                	0x8100
810001cc:	00a8                	addi	a0,sp,72
810001ce:	8100                	0x8100
810001d0:	00ac                	addi	a1,sp,72
810001d2:	8100                	0x8100
810001d4:	00b0                	addi	a2,sp,72
810001d6:	8100                	0x8100
810001d8:	00b4                	addi	a3,sp,72
810001da:	8100                	0x8100
810001dc:	00b8                	addi	a4,sp,72
810001de:	8100                	0x8100
810001e0:	00bc                	addi	a5,sp,72
810001e2:	8100                	0x8100
810001e4:	00c0                	addi	s0,sp,68
810001e6:	8100                	0x8100
810001e8:	00c4                	addi	s1,sp,68
810001ea:	8100                	0x8100
810001ec:	00c8                	addi	a0,sp,68
810001ee:	8100                	0x8100
810001f0:	00cc                	addi	a1,sp,68
810001f2:	8100                	0x8100
810001f4:	00d0                	addi	a2,sp,68
810001f6:	8100                	0x8100

Disassembly of section .bss:

810001f8 <z>:
	...

81000238 <done>:
	...

81000240 <main_sp>:
81000240:	0000                	unimp
	...

81000244 <q>:
	...

810034e4 <done>:
	...

810034ec <main_sp>:
810034ec:	0000                	unimp
	...

Disassembly of section .comment:

82000000 <.comment>:
82000000:	3a434347          	fmsub.d	ft6,ft6,ft4,ft7,rmm
82000004:	2820                	fld	fs0,80(s0)
82000006:	29554e47          	fmsub.s	ft8,fa0,fs5,ft5,rmm
8200000a:	3820                	fld	fs0,112(s0)
8200000c:	322e                	fld	ft4,232(sp)
8200000e:	302e                	fld	ft0,232(sp)
	...
