
gpgpu_test.elf:     file format elf32-littleriscv


Disassembly of section .text:

80000000 <main>:
80000000:	ff010113          	addi	sp,sp,-16
80000004:	00112623          	sw	ra,12(sp)
80000008:	00812423          	sw	s0,8(sp)
8000000c:	01010413          	addi	s0,sp,16
80000010:	348000ef          	jal	ra,80000358 <initiate_stack>
80000014:	810007b7          	lui	a5,0x81000
80000018:	00078793          	mv	a5,a5
8000001c:	81000737          	lui	a4,0x81000
80000020:	08070713          	addi	a4,a4,128 # 81000080 <y+0x0>
80000024:	810006b7          	lui	a3,0x81000
80000028:	04068693          	addi	a3,a3,64 # 81000040 <y+0xffffffc0>
8000002c:	80000637          	lui	a2,0x80000
80000030:	05860613          	addi	a2,a2,88 # 80000058 <y+0xfeffffd8>
80000034:	00200593          	li	a1,2
80000038:	00800513          	li	a0,8
8000003c:	1d4000ef          	jal	ra,80000210 <createWarps>
80000040:	00000793          	li	a5,0
80000044:	00078513          	mv	a0,a5
80000048:	00c12083          	lw	ra,12(sp)
8000004c:	00812403          	lw	s0,8(sp)
80000050:	01010113          	addi	sp,sp,16
80000054:	00008067          	ret

80000058 <matAddition>:
80000058:	fd010113          	addi	sp,sp,-48
8000005c:	02112623          	sw	ra,44(sp)
80000060:	02812423          	sw	s0,40(sp)
80000064:	03010413          	addi	s0,sp,48
80000068:	fca42e23          	sw	a0,-36(s0)
8000006c:	fcb42c23          	sw	a1,-40(s0)
80000070:	270000ef          	jal	ra,800002e0 <get_1st_arg>
80000074:	fea42623          	sw	a0,-20(s0)
80000078:	290000ef          	jal	ra,80000308 <get_2nd_arg>
8000007c:	fea42423          	sw	a0,-24(s0)
80000080:	2b0000ef          	jal	ra,80000330 <get_3rd_arg>
80000084:	fea42223          	sw	a0,-28(s0)
80000088:	fd842783          	lw	a5,-40(s0)
8000008c:	00179793          	slli	a5,a5,0x1
80000090:	fdc42703          	lw	a4,-36(s0)
80000094:	00f707b3          	add	a5,a4,a5
80000098:	fef42023          	sw	a5,-32(s0)
8000009c:	fe042783          	lw	a5,-32(s0)
800000a0:	00279793          	slli	a5,a5,0x2
800000a4:	fec42703          	lw	a4,-20(s0)
800000a8:	00f707b3          	add	a5,a4,a5
800000ac:	0007a683          	lw	a3,0(a5) # 81000000 <y+0xffffff80>
800000b0:	fe042783          	lw	a5,-32(s0)
800000b4:	00279793          	slli	a5,a5,0x2
800000b8:	fe842703          	lw	a4,-24(s0)
800000bc:	00f707b3          	add	a5,a4,a5
800000c0:	0007a703          	lw	a4,0(a5)
800000c4:	fe042783          	lw	a5,-32(s0)
800000c8:	00279793          	slli	a5,a5,0x2
800000cc:	fe442603          	lw	a2,-28(s0)
800000d0:	00f607b3          	add	a5,a2,a5
800000d4:	00e68733          	add	a4,a3,a4
800000d8:	00e7a023          	sw	a4,0(a5)
800000dc:	00000013          	nop
800000e0:	02c12083          	lw	ra,44(sp)
800000e4:	02812403          	lw	s0,40(sp)
800000e8:	03010113          	addi	sp,sp,48
800000ec:	00008067          	ret

800000f0 <createThreads>:
800000f0:	fb010113          	addi	sp,sp,-80
800000f4:	04812623          	sw	s0,76(sp)
800000f8:	05212423          	sw	s2,72(sp)
800000fc:	05312223          	sw	s3,68(sp)
80000100:	05412023          	sw	s4,64(sp)
80000104:	03a12e23          	sw	s10,60(sp)
80000108:	03b12c23          	sw	s11,56(sp)
8000010c:	05010413          	addi	s0,sp,80
80000110:	fca42623          	sw	a0,-52(s0)
80000114:	fcb42423          	sw	a1,-56(s0)
80000118:	fcc42223          	sw	a2,-60(s0)
8000011c:	fcd42023          	sw	a3,-64(s0)
80000120:	fae42e23          	sw	a4,-68(s0)
80000124:	faf42c23          	sw	a5,-72(s0)
80000128:	fc042903          	lw	s2,-64(s0)
8000012c:	fbc42983          	lw	s3,-68(s0)
80000130:	fb842a03          	lw	s4,-72(s0)
80000134:	fc842583          	lw	a1,-56(s0)
80000138:	00010f13          	mv	t5,sp
8000013c:	00100793          	li	a5,1
80000140:	fcf42e23          	sw	a5,-36(s0)
80000144:	0200006f          	j	80000164 <createThreads+0x74>
80000148:	fdc42503          	lw	a0,-36(s0)
8000014c:	fdc42303          	lw	t1,-36(s0)
80000150:	f0010113          	addi	sp,sp,-256
80000154:	0003506b          	0x3506b
80000158:	fdc42783          	lw	a5,-36(s0)
8000015c:	00178793          	addi	a5,a5,1
80000160:	fcf42e23          	sw	a5,-36(s0)
80000164:	fdc42703          	lw	a4,-36(s0)
80000168:	fcc42783          	lw	a5,-52(s0)
8000016c:	fcf76ee3          	bltu	a4,a5,80000148 <createThreads+0x58>
80000170:	000f0113          	mv	sp,t5
80000174:	00000513          	li	a0,0
80000178:	fc442f83          	lw	t6,-60(s0)
8000017c:	fcc42d83          	lw	s11,-52(s0)
80000180:	01bfe0eb          	0x1bfe0eb
80000184:	00000073          	ecall
80000188:	00000013          	nop
8000018c:	04c12403          	lw	s0,76(sp)
80000190:	04812903          	lw	s2,72(sp)
80000194:	04412983          	lw	s3,68(sp)
80000198:	04012a03          	lw	s4,64(sp)
8000019c:	03c12d03          	lw	s10,60(sp)
800001a0:	03812d83          	lw	s11,56(sp)
800001a4:	05010113          	addi	sp,sp,80
800001a8:	00008067          	ret

800001ac <wspawn>:
800001ac:	fd010113          	addi	sp,sp,-48
800001b0:	02812623          	sw	s0,44(sp)
800001b4:	03010413          	addi	s0,sp,48
800001b8:	fea42623          	sw	a0,-20(s0)
800001bc:	feb42423          	sw	a1,-24(s0)
800001c0:	fec42223          	sw	a2,-28(s0)
800001c4:	fed42023          	sw	a3,-32(s0)
800001c8:	fce42e23          	sw	a4,-36(s0)
800001cc:	fcf42c23          	sw	a5,-40(s0)
800001d0:	fd842383          	lw	t2,-40(s0)
800001d4:	800007b7          	lui	a5,0x80000
800001d8:	0f078793          	addi	a5,a5,240 # 800000f0 <y+0xff000070>
800001dc:	00078313          	mv	t1,a5
800001e0:	fec42503          	lw	a0,-20(s0)
800001e4:	fe842583          	lw	a1,-24(s0)
800001e8:	fe442783          	lw	a5,-28(s0)
800001ec:	00078613          	mv	a2,a5
800001f0:	fe042683          	lw	a3,-32(s0)
800001f4:	fdc42703          	lw	a4,-36(s0)
800001f8:	00038793          	mv	a5,t2
800001fc:	0003006b          	0x3006b
80000200:	00000013          	nop
80000204:	02c12403          	lw	s0,44(sp)
80000208:	03010113          	addi	sp,sp,48
8000020c:	00008067          	ret

80000210 <createWarps>:
80000210:	fc010113          	addi	sp,sp,-64
80000214:	02112e23          	sw	ra,60(sp)
80000218:	02812c23          	sw	s0,56(sp)
8000021c:	04010413          	addi	s0,sp,64
80000220:	fca42e23          	sw	a0,-36(s0)
80000224:	fcb42c23          	sw	a1,-40(s0)
80000228:	fcc42a23          	sw	a2,-44(s0)
8000022c:	fcd42823          	sw	a3,-48(s0)
80000230:	fce42623          	sw	a4,-52(s0)
80000234:	fcf42423          	sw	a5,-56(s0)
80000238:	00010f13          	mv	t5,sp
8000023c:	00100793          	li	a5,1
80000240:	fef42623          	sw	a5,-20(s0)
80000244:	0300006f          	j	80000274 <createWarps+0x64>
80000248:	80010113          	addi	sp,sp,-2048
8000024c:	fc842783          	lw	a5,-56(s0)
80000250:	fcc42703          	lw	a4,-52(s0)
80000254:	fd042683          	lw	a3,-48(s0)
80000258:	fd442603          	lw	a2,-44(s0)
8000025c:	fec42583          	lw	a1,-20(s0)
80000260:	fd842503          	lw	a0,-40(s0)
80000264:	f49ff0ef          	jal	ra,800001ac <wspawn>
80000268:	fec42783          	lw	a5,-20(s0)
8000026c:	00178793          	addi	a5,a5,1
80000270:	fef42623          	sw	a5,-20(s0)
80000274:	fec42703          	lw	a4,-20(s0)
80000278:	fdc42783          	lw	a5,-36(s0)
8000027c:	fcf766e3          	bltu	a4,a5,80000248 <createWarps+0x38>
80000280:	000f0113          	mv	sp,t5
80000284:	fd442603          	lw	a2,-44(s0)
80000288:	fc842783          	lw	a5,-56(s0)
8000028c:	fcc42703          	lw	a4,-52(s0)
80000290:	fd042683          	lw	a3,-48(s0)
80000294:	00000593          	li	a1,0
80000298:	fd842503          	lw	a0,-40(s0)
8000029c:	e55ff0ef          	jal	ra,800000f0 <createThreads>
800002a0:	00000073          	ecall
800002a4:	00000013          	nop
800002a8:	03c12083          	lw	ra,60(sp)
800002ac:	03812403          	lw	s0,56(sp)
800002b0:	04010113          	addi	sp,sp,64
800002b4:	00008067          	ret

800002b8 <get_wid>:
800002b8:	ff010113          	addi	sp,sp,-16
800002bc:	00812623          	sw	s0,12(sp)
800002c0:	00912423          	sw	s1,8(sp)
800002c4:	01010413          	addi	s0,sp,16
800002c8:	00048793          	mv	a5,s1
800002cc:	00078513          	mv	a0,a5
800002d0:	00c12403          	lw	s0,12(sp)
800002d4:	00812483          	lw	s1,8(sp)
800002d8:	01010113          	addi	sp,sp,16
800002dc:	00008067          	ret

800002e0 <get_1st_arg>:
800002e0:	ff010113          	addi	sp,sp,-16
800002e4:	00812623          	sw	s0,12(sp)
800002e8:	01212423          	sw	s2,8(sp)
800002ec:	01010413          	addi	s0,sp,16
800002f0:	00090793          	mv	a5,s2
800002f4:	00078513          	mv	a0,a5
800002f8:	00c12403          	lw	s0,12(sp)
800002fc:	00812903          	lw	s2,8(sp)
80000300:	01010113          	addi	sp,sp,16
80000304:	00008067          	ret

80000308 <get_2nd_arg>:
80000308:	ff010113          	addi	sp,sp,-16
8000030c:	00812623          	sw	s0,12(sp)
80000310:	01312423          	sw	s3,8(sp)
80000314:	01010413          	addi	s0,sp,16
80000318:	00098793          	mv	a5,s3
8000031c:	00078513          	mv	a0,a5
80000320:	00c12403          	lw	s0,12(sp)
80000324:	00812983          	lw	s3,8(sp)
80000328:	01010113          	addi	sp,sp,16
8000032c:	00008067          	ret

80000330 <get_3rd_arg>:
80000330:	ff010113          	addi	sp,sp,-16
80000334:	00812623          	sw	s0,12(sp)
80000338:	01412423          	sw	s4,8(sp)
8000033c:	01010413          	addi	s0,sp,16
80000340:	000a0793          	mv	a5,s4
80000344:	00078513          	mv	a0,a5
80000348:	00c12403          	lw	s0,12(sp)
8000034c:	00812a03          	lw	s4,8(sp)
80000350:	01010113          	addi	sp,sp,16
80000354:	00008067          	ret

80000358 <initiate_stack>:
80000358:	ff010113          	addi	sp,sp,-16
8000035c:	00812623          	sw	s0,12(sp)
80000360:	01010413          	addi	s0,sp,16
80000364:	7ffff137          	lui	sp,0x7ffff
80000368:	00000013          	nop
8000036c:	00c12403          	lw	s0,12(sp) # 7ffff00c <main-0xff4>
80000370:	01010113          	addi	sp,sp,16
80000374:	00008067          	ret

Disassembly of section .bss:

81000000 <z>:
	...

Disassembly of section .data:

81000040 <x>:
81000040:	0001                	nop
81000042:	0000                	unimp
81000044:	0001                	nop
81000046:	0000                	unimp
81000048:	0006                	c.slli	zero,0x1
8100004a:	0000                	unimp
8100004c:	0000                	unimp
8100004e:	0000                	unimp
81000050:	00000003          	lb	zero,0(zero) # 0 <main-0x80000000>
81000054:	0001                	nop
81000056:	0000                	unimp
81000058:	0001                	nop
8100005a:	0000                	unimp
8100005c:	0002                	c.slli64	zero
8100005e:	0000                	unimp
81000060:	0000                	unimp
81000062:	0000                	unimp
81000064:	00000003          	lb	zero,0(zero) # 0 <main-0x80000000>
81000068:	0006                	c.slli	zero,0x1
8100006a:	0000                	unimp
8100006c:	00000007          	0x7
81000070:	0005                	c.nop	1
81000072:	0000                	unimp
81000074:	00000007          	0x7
81000078:	00000007          	0x7
8100007c:	0009                	c.nop	2
	...

81000080 <y>:
81000080:	0000                	unimp
81000082:	0000                	unimp
81000084:	0002                	c.slli64	zero
81000086:	0000                	unimp
81000088:	0002                	c.slli64	zero
8100008a:	0000                	unimp
8100008c:	0000                	unimp
8100008e:	0000                	unimp
81000090:	0005                	c.nop	1
81000092:	0000                	unimp
81000094:	0000                	unimp
81000096:	0000                	unimp
81000098:	0001                	nop
8100009a:	0000                	unimp
8100009c:	0001                	nop
8100009e:	0000                	unimp
810000a0:	0004                	0x4
810000a2:	0000                	unimp
810000a4:	0002                	c.slli64	zero
	...
810000ae:	0000                	unimp
810000b0:	00000003          	lb	zero,0(zero) # 0 <main-0x80000000>
810000b4:	0002                	c.slli64	zero
810000b6:	0000                	unimp
810000b8:	00000003          	lb	zero,0(zero) # 0 <main-0x80000000>
810000bc:	0002                	c.slli64	zero
	...

Disassembly of section .comment:

82000000 <.comment>:
82000000:	3a434347          	fmsub.d	ft6,ft6,ft4,ft7,rmm
82000004:	2820                	fld	fs0,80(s0)
82000006:	29554e47          	fmsub.s	ft8,fa0,fs5,ft5,rmm
8200000a:	3820                	fld	fs0,112(s0)
8200000c:	322e                	fld	ft4,232(sp)
8200000e:	302e                	fld	ft0,232(sp)
	...
