
firmware.elf:     file format elf32-littleriscv


Disassembly of section .text:

80000000 <main>:
80000000:	fb010113          	addi	sp,sp,-80
80000004:	04112623          	sw	ra,76(sp)
80000008:	04812423          	sw	s0,72(sp)
8000000c:	05010413          	addi	s0,sp,80
80000010:	fe0406a3          	sb	zero,-19(s0)
80000014:	810007b7          	lui	a5,0x81000
80000018:	00078513          	mv	a0,a5
8000001c:	25c000ef          	jal	ra,80000278 <print>
80000020:	00000013          	nop
80000024:	810007b7          	lui	a5,0x81000
80000028:	01078513          	addi	a0,a5,16 # 81000010 <getsent_prompt+0xfffcb4>
8000002c:	29c000ef          	jal	ra,800002c8 <getchar_prompt>
80000030:	00050793          	mv	a5,a0
80000034:	fef407a3          	sb	a5,-17(s0)
80000038:	fef44703          	lbu	a4,-17(s0)
8000003c:	00a00793          	li	a5,10
80000040:	fef712e3          	bne	a4,a5,80000024 <main+0x24>
80000044:	810007b7          	lui	a5,0x81000
80000048:	03078513          	addi	a0,a5,48 # 81000030 <getsent_prompt+0xfffcd4>
8000004c:	22c000ef          	jal	ra,80000278 <print>
80000050:	810007b7          	lui	a5,0x81000
80000054:	03878513          	addi	a0,a5,56 # 81000038 <getsent_prompt+0xfffcdc>
80000058:	220000ef          	jal	ra,80000278 <print>
8000005c:	810007b7          	lui	a5,0x81000
80000060:	0a478513          	addi	a0,a5,164 # 810000a4 <getsent_prompt+0xfffd48>
80000064:	214000ef          	jal	ra,80000278 <print>
80000068:	810007b7          	lui	a5,0x81000
8000006c:	11078513          	addi	a0,a5,272 # 81000110 <getsent_prompt+0xfffdb4>
80000070:	208000ef          	jal	ra,80000278 <print>
80000074:	810007b7          	lui	a5,0x81000
80000078:	17c78513          	addi	a0,a5,380 # 8100017c <getsent_prompt+0xfffe20>
8000007c:	1fc000ef          	jal	ra,80000278 <print>
80000080:	810007b7          	lui	a5,0x81000
80000084:	1e878513          	addi	a0,a5,488 # 810001e8 <getsent_prompt+0xfffe8c>
80000088:	1f0000ef          	jal	ra,80000278 <print>
8000008c:	810007b7          	lui	a5,0x81000
80000090:	25478513          	addi	a0,a5,596 # 81000254 <getsent_prompt+0xfffef8>
80000094:	1e4000ef          	jal	ra,80000278 <print>
80000098:	810007b7          	lui	a5,0x81000
8000009c:	2c078513          	addi	a0,a5,704 # 810002c0 <getsent_prompt+0xffff64>
800000a0:	1d8000ef          	jal	ra,80000278 <print>
800000a4:	810007b7          	lui	a5,0x81000
800000a8:	32c78513          	addi	a0,a5,812 # 8100032c <getsent_prompt+0xffffd0>
800000ac:	1cc000ef          	jal	ra,80000278 <print>
800000b0:	810007b7          	lui	a5,0x81000
800000b4:	39878513          	addi	a0,a5,920 # 81000398 <getsent_prompt+0x100003c>
800000b8:	1c0000ef          	jal	ra,80000278 <print>
800000bc:	810007b7          	lui	a5,0x81000
800000c0:	40478513          	addi	a0,a5,1028 # 81000404 <getsent_prompt+0x10000a8>
800000c4:	1b4000ef          	jal	ra,80000278 <print>
800000c8:	810007b7          	lui	a5,0x81000
800000cc:	40478513          	addi	a0,a5,1028 # 81000404 <getsent_prompt+0x10000a8>
800000d0:	1a8000ef          	jal	ra,80000278 <print>
800000d4:	810007b7          	lui	a5,0x81000
800000d8:	47078513          	addi	a0,a5,1136 # 81000470 <getsent_prompt+0x1000114>
800000dc:	19c000ef          	jal	ra,80000278 <print>
800000e0:	810007b7          	lui	a5,0x81000
800000e4:	4dc78513          	addi	a0,a5,1244 # 810004dc <getsent_prompt+0x1000180>
800000e8:	190000ef          	jal	ra,80000278 <print>
800000ec:	fb840793          	addi	a5,s0,-72
800000f0:	00078593          	mv	a1,a5
800000f4:	810007b7          	lui	a5,0x81000
800000f8:	4e078513          	addi	a0,a5,1248 # 810004e0 <getsent_prompt+0x1000184>
800000fc:	260000ef          	jal	ra,8000035c <getsent_prompt>
80000100:	fb844783          	lbu	a5,-72(s0)
80000104:	fef407a3          	sb	a5,-17(s0)
80000108:	fef44703          	lbu	a4,-17(s0)
8000010c:	07900793          	li	a5,121
80000110:	02f70463          	beq	a4,a5,80000138 <main+0x138>
80000114:	fef44703          	lbu	a4,-17(s0)
80000118:	06e00793          	li	a5,110
8000011c:	00f71663          	bne	a4,a5,80000128 <main+0x128>
80000120:	00000793          	li	a5,0
80000124:	0f40006f          	j	80000218 <main+0x218>
80000128:	810007b7          	lui	a5,0x81000
8000012c:	51078513          	addi	a0,a5,1296 # 81000510 <getsent_prompt+0x10001b4>
80000130:	148000ef          	jal	ra,80000278 <print>
80000134:	fb9ff06f          	j	800000ec <main+0xec>
80000138:	00000013          	nop
8000013c:	03500793          	li	a5,53
80000140:	fef40723          	sb	a5,-18(s0)
80000144:	fb840793          	addi	a5,s0,-72
80000148:	00078593          	mv	a1,a5
8000014c:	810007b7          	lui	a5,0x81000
80000150:	53478513          	addi	a0,a5,1332 # 81000534 <getsent_prompt+0x10001d8>
80000154:	208000ef          	jal	ra,8000035c <getsent_prompt>
80000158:	fb844783          	lbu	a5,-72(s0)
8000015c:	fef407a3          	sb	a5,-17(s0)
80000160:	fef44703          	lbu	a4,-17(s0)
80000164:	fee44783          	lbu	a5,-18(s0)
80000168:	00f77a63          	bgeu	a4,a5,8000017c <main+0x17c>
8000016c:	810007b7          	lui	a5,0x81000
80000170:	55878513          	addi	a0,a5,1368 # 81000558 <getsent_prompt+0x10001fc>
80000174:	104000ef          	jal	ra,80000278 <print>
80000178:	fcdff06f          	j	80000144 <main+0x144>
8000017c:	fef44703          	lbu	a4,-17(s0)
80000180:	fee44783          	lbu	a5,-18(s0)
80000184:	00e7fa63          	bgeu	a5,a4,80000198 <main+0x198>
80000188:	810007b7          	lui	a5,0x81000
8000018c:	57478513          	addi	a0,a5,1396 # 81000574 <getsent_prompt+0x1000218>
80000190:	0e8000ef          	jal	ra,80000278 <print>
80000194:	fb1ff06f          	j	80000144 <main+0x144>
80000198:	810007b7          	lui	a5,0x81000
8000019c:	59078513          	addi	a0,a5,1424 # 81000590 <getsent_prompt+0x1000234>
800001a0:	0d8000ef          	jal	ra,80000278 <print>
800001a4:	810007b7          	lui	a5,0x81000
800001a8:	5e078513          	addi	a0,a5,1504 # 810005e0 <getsent_prompt+0x1000284>
800001ac:	0cc000ef          	jal	ra,80000278 <print>
800001b0:	810007b7          	lui	a5,0x81000
800001b4:	63078513          	addi	a0,a5,1584 # 81000630 <getsent_prompt+0x10002d4>
800001b8:	0c0000ef          	jal	ra,80000278 <print>
800001bc:	810007b7          	lui	a5,0x81000
800001c0:	68078513          	addi	a0,a5,1664 # 81000680 <getsent_prompt+0x1000324>
800001c4:	0b4000ef          	jal	ra,80000278 <print>
800001c8:	810007b7          	lui	a5,0x81000
800001cc:	6d078513          	addi	a0,a5,1744 # 810006d0 <getsent_prompt+0x1000374>
800001d0:	0a8000ef          	jal	ra,80000278 <print>
800001d4:	810007b7          	lui	a5,0x81000
800001d8:	72078513          	addi	a0,a5,1824 # 81000720 <getsent_prompt+0x10003c4>
800001dc:	09c000ef          	jal	ra,80000278 <print>
800001e0:	810007b7          	lui	a5,0x81000
800001e4:	77078513          	addi	a0,a5,1904 # 81000770 <getsent_prompt+0x1000414>
800001e8:	090000ef          	jal	ra,80000278 <print>
800001ec:	810007b7          	lui	a5,0x81000
800001f0:	7c078513          	addi	a0,a5,1984 # 810007c0 <getsent_prompt+0x1000464>
800001f4:	084000ef          	jal	ra,80000278 <print>
800001f8:	810007b7          	lui	a5,0x81000
800001fc:	4dc78513          	addi	a0,a5,1244 # 810004dc <getsent_prompt+0x1000180>
80000200:	078000ef          	jal	ra,80000278 <print>
80000204:	00000013          	nop
80000208:	810017b7          	lui	a5,0x81001
8000020c:	81078513          	addi	a0,a5,-2032 # 81000810 <getsent_prompt+0x10004b4>
80000210:	068000ef          	jal	ra,80000278 <print>
80000214:	00000793          	li	a5,0
80000218:	00078513          	mv	a0,a5
8000021c:	04c12083          	lw	ra,76(sp)
80000220:	04812403          	lw	s0,72(sp)
80000224:	05010113          	addi	sp,sp,80
80000228:	00008067          	ret

8000022c <putchar>:
8000022c:	fe010113          	addi	sp,sp,-32
80000230:	00112e23          	sw	ra,28(sp)
80000234:	00812c23          	sw	s0,24(sp)
80000238:	02010413          	addi	s0,sp,32
8000023c:	00050793          	mv	a5,a0
80000240:	fef407a3          	sb	a5,-17(s0)
80000244:	fef44703          	lbu	a4,-17(s0)
80000248:	00a00793          	li	a5,10
8000024c:	00f71663          	bne	a4,a5,80000258 <putchar+0x2c>
80000250:	00d00513          	li	a0,13
80000254:	fd9ff0ef          	jal	ra,8000022c <putchar>
80000258:	ff0007b7          	lui	a5,0xff000
8000025c:	fef44703          	lbu	a4,-17(s0)
80000260:	00e7a023          	sw	a4,0(a5) # ff000000 <getsent_prompt+0x7efffca4>
80000264:	00000013          	nop
80000268:	01c12083          	lw	ra,28(sp)
8000026c:	01812403          	lw	s0,24(sp)
80000270:	02010113          	addi	sp,sp,32
80000274:	00008067          	ret

80000278 <print>:
80000278:	fe010113          	addi	sp,sp,-32
8000027c:	00112e23          	sw	ra,28(sp)
80000280:	00812c23          	sw	s0,24(sp)
80000284:	02010413          	addi	s0,sp,32
80000288:	fea42623          	sw	a0,-20(s0)
8000028c:	01c0006f          	j	800002a8 <print+0x30>
80000290:	fec42783          	lw	a5,-20(s0)
80000294:	00178713          	addi	a4,a5,1
80000298:	fee42623          	sw	a4,-20(s0)
8000029c:	0007c783          	lbu	a5,0(a5)
800002a0:	00078513          	mv	a0,a5
800002a4:	f89ff0ef          	jal	ra,8000022c <putchar>
800002a8:	fec42783          	lw	a5,-20(s0)
800002ac:	0007c783          	lbu	a5,0(a5)
800002b0:	fe0790e3          	bnez	a5,80000290 <print+0x18>
800002b4:	00000013          	nop
800002b8:	01c12083          	lw	ra,28(sp)
800002bc:	01812403          	lw	s0,24(sp)
800002c0:	02010113          	addi	sp,sp,32
800002c4:	00008067          	ret

800002c8 <getchar_prompt>:
800002c8:	fd010113          	addi	sp,sp,-48
800002cc:	02112623          	sw	ra,44(sp)
800002d0:	02812423          	sw	s0,40(sp)
800002d4:	03010413          	addi	s0,sp,48
800002d8:	fca42e23          	sw	a0,-36(s0)
800002dc:	fff00793          	li	a5,-1
800002e0:	fef42623          	sw	a5,-20(s0)
800002e4:	c00027f3          	rdcycle	a5
800002e8:	fef42423          	sw	a5,-24(s0)
800002ec:	fe042223          	sw	zero,-28(s0)
800002f0:	fdc42783          	lw	a5,-36(s0)
800002f4:	02078a63          	beqz	a5,80000328 <getchar_prompt+0x60>
800002f8:	fdc42503          	lw	a0,-36(s0)
800002fc:	f7dff0ef          	jal	ra,80000278 <print>
80000300:	0280006f          	j	80000328 <getchar_prompt+0x60>
80000304:	c00027f3          	rdcycle	a5
80000308:	fef42023          	sw	a5,-32(s0)
8000030c:	fe042703          	lw	a4,-32(s0)
80000310:	fe842783          	lw	a5,-24(s0)
80000314:	40f707b3          	sub	a5,a4,a5
80000318:	fef42223          	sw	a5,-28(s0)
8000031c:	ff0007b7          	lui	a5,0xff000
80000320:	0007a783          	lw	a5,0(a5) # ff000000 <getsent_prompt+0x7efffca4>
80000324:	fef42623          	sw	a5,-20(s0)
80000328:	fec42703          	lw	a4,-20(s0)
8000032c:	fff00793          	li	a5,-1
80000330:	fcf70ae3          	beq	a4,a5,80000304 <getchar_prompt+0x3c>
80000334:	810007b7          	lui	a5,0x81000
80000338:	4dc78513          	addi	a0,a5,1244 # 810004dc <getsent_prompt+0x1000180>
8000033c:	f3dff0ef          	jal	ra,80000278 <print>
80000340:	fec42783          	lw	a5,-20(s0)
80000344:	0ff7f793          	andi	a5,a5,255
80000348:	00078513          	mv	a0,a5
8000034c:	02c12083          	lw	ra,44(sp)
80000350:	02812403          	lw	s0,40(sp)
80000354:	03010113          	addi	sp,sp,48
80000358:	00008067          	ret

8000035c <getsent_prompt>:
8000035c:	fc010113          	addi	sp,sp,-64
80000360:	02112e23          	sw	ra,60(sp)
80000364:	02812c23          	sw	s0,56(sp)
80000368:	04010413          	addi	s0,sp,64
8000036c:	fca42623          	sw	a0,-52(s0)
80000370:	fcb42423          	sw	a1,-56(s0)
80000374:	fff00793          	li	a5,-1
80000378:	fef42623          	sw	a5,-20(s0)
8000037c:	c00027f3          	rdcycle	a5
80000380:	fef42223          	sw	a5,-28(s0)
80000384:	fe042023          	sw	zero,-32(s0)
80000388:	fcc42783          	lw	a5,-52(s0)
8000038c:	00078663          	beqz	a5,80000398 <getsent_prompt+0x3c>
80000390:	fcc42503          	lw	a0,-52(s0)
80000394:	ee5ff0ef          	jal	ra,80000278 <print>
80000398:	fe042423          	sw	zero,-24(s0)
8000039c:	0580006f          	j	800003f4 <getsent_prompt+0x98>
800003a0:	c00027f3          	rdcycle	a5
800003a4:	fcf42e23          	sw	a5,-36(s0)
800003a8:	fdc42703          	lw	a4,-36(s0)
800003ac:	fe442783          	lw	a5,-28(s0)
800003b0:	40f707b3          	sub	a5,a4,a5
800003b4:	fef42023          	sw	a5,-32(s0)
800003b8:	ff0007b7          	lui	a5,0xff000
800003bc:	0007a783          	lw	a5,0(a5) # ff000000 <getsent_prompt+0x7efffca4>
800003c0:	fef42623          	sw	a5,-20(s0)
800003c4:	fec42703          	lw	a4,-20(s0)
800003c8:	fff00793          	li	a5,-1
800003cc:	02f70463          	beq	a4,a5,800003f4 <getsent_prompt+0x98>
800003d0:	fe842783          	lw	a5,-24(s0)
800003d4:	fc842703          	lw	a4,-56(s0)
800003d8:	00f707b3          	add	a5,a4,a5
800003dc:	fec42703          	lw	a4,-20(s0)
800003e0:	0ff77713          	andi	a4,a4,255
800003e4:	00e78023          	sb	a4,0(a5)
800003e8:	fe842783          	lw	a5,-24(s0)
800003ec:	00178793          	addi	a5,a5,1
800003f0:	fef42423          	sw	a5,-24(s0)
800003f4:	fec42703          	lw	a4,-20(s0)
800003f8:	00a00793          	li	a5,10
800003fc:	faf712e3          	bne	a4,a5,800003a0 <getsent_prompt+0x44>
80000400:	00000013          	nop
80000404:	03c12083          	lw	ra,60(sp)
80000408:	03812403          	lw	s0,56(sp)
8000040c:	04010113          	addi	sp,sp,64
80000410:	00008067          	ret

Disassembly of section .rodata:

81000000 <.rodata>:
81000000:	2024                	fld	fs1,64(s0)
81000002:	4220                	lw	s0,64(a2)
81000004:	69746f6f          	jal	t5,81046e9a <getsent_prompt+0x1046b3e>
81000008:	676e                	flw	fa4,216(sp)
8100000a:	2e2e                	fld	ft8,200(sp)
8100000c:	000a                	c.slli	zero,0x2
8100000e:	0000                	unimp
81000010:	2024                	fld	fs1,64(s0)
81000012:	5020                	lw	s0,96(s0)
81000014:	6572                	flw	fa0,28(sp)
81000016:	45207373          	csrrci	t1,0x452,0
8100001a:	544e                	lw	s0,240(sp)
8100001c:	5245                	li	tp,-15
8100001e:	7420                	flw	fs0,104(s0)
81000020:	6f63206f          	j	81032716 <getsent_prompt+0x10323ba>
81000024:	746e                	flw	fs0,248(sp)
81000026:	6e69                	lui	t3,0x1a
81000028:	6575                	lui	a0,0x1d
8100002a:	2e2e                	fld	ft8,200(sp)
8100002c:	0020                	addi	s0,sp,8
8100002e:	0000                	unimp
81000030:	2024                	fld	fs1,64(s0)
81000032:	0a20                	addi	s0,sp,280
81000034:	0000                	unimp
81000036:	0000                	unimp
81000038:	2020                	fld	fs0,64(s0)
8100003a:	5f5f 5f5f 5f5f      	0x5f5f5f5f5f5f
81000040:	2020                	fld	fs0,64(s0)
81000042:	2020                	fld	fs0,64(s0)
81000044:	2020                	fld	fs0,64(s0)
81000046:	2020                	fld	fs0,64(s0)
81000048:	2020                	fld	fs0,64(s0)
8100004a:	5f20                	lw	s0,120(a4)
8100004c:	205f 2020 2020      	0x20202020205f
81000052:	2020                	fld	fs0,64(s0)
81000054:	5f5f 2020 2020      	0x202020205f5f
8100005a:	2020                	fld	fs0,64(s0)
8100005c:	2020                	fld	fs0,64(s0)
8100005e:	2020                	fld	fs0,64(s0)
81000060:	2020                	fld	fs0,64(s0)
81000062:	2020                	fld	fs0,64(s0)
81000064:	2020                	fld	fs0,64(s0)
81000066:	2020                	fld	fs0,64(s0)
81000068:	2020                	fld	fs0,64(s0)
8100006a:	2020                	fld	fs0,64(s0)
8100006c:	2020                	fld	fs0,64(s0)
8100006e:	2020                	fld	fs0,64(s0)
81000070:	5f5f 5f5f 5f5f      	0x5f5f5f5f5f5f
81000076:	205f 5f20 5f5f      	0x5f5f5f20205f
8100007c:	5f5f 205f 5f20      	0x5f20205f5f5f
81000082:	5f5f 5f5f 205f      	0x205f5f5f5f5f
81000088:	2020                	fld	fs0,64(s0)
8100008a:	5f5f 5f5f 5f5f      	0x5f5f5f5f5f5f
81000090:	2020                	fld	fs0,64(s0)
81000092:	2020                	fld	fs0,64(s0)
81000094:	2020                	fld	fs0,64(s0)
81000096:	5f20                	lw	s0,120(a4)
81000098:	205f 2020 2020      	0x20202020205f
8100009e:	5f5f 0a20 0000      	0xa205f5f
810000a4:	2f20                	fld	fs0,88(a4)
810000a6:	2020                	fld	fs0,64(s0)
810000a8:	2020                	fld	fs0,64(s0)
810000aa:	2020                	fld	fs0,64(s0)
810000ac:	205c                	fld	fa5,128(s0)
810000ae:	2020                	fld	fs0,64(s0)
810000b0:	2020                	fld	fs0,64(s0)
810000b2:	2020                	fld	fs0,64(s0)
810000b4:	2020                	fld	fs0,64(s0)
810000b6:	207c                	fld	fa5,192(s0)
810000b8:	5c20                	lw	s0,120(s0)
810000ba:	2020                	fld	fs0,64(s0)
810000bc:	2020                	fld	fs0,64(s0)
810000be:	7c20                	flw	fs0,120(s0)
810000c0:	2020                	fld	fs0,64(s0)
810000c2:	205c                	fld	fa5,128(s0)
810000c4:	2020                	fld	fs0,64(s0)
810000c6:	2020                	fld	fs0,64(s0)
810000c8:	2020                	fld	fs0,64(s0)
810000ca:	2020                	fld	fs0,64(s0)
810000cc:	2020                	fld	fs0,64(s0)
810000ce:	2020                	fld	fs0,64(s0)
810000d0:	2020                	fld	fs0,64(s0)
810000d2:	2020                	fld	fs0,64(s0)
810000d4:	2020                	fld	fs0,64(s0)
810000d6:	2020                	fld	fs0,64(s0)
810000d8:	2020                	fld	fs0,64(s0)
810000da:	7c20                	flw	fs0,120(s0)
810000dc:	2020                	fld	fs0,64(s0)
810000de:	2020                	fld	fs0,64(s0)
810000e0:	2020                	fld	fs0,64(s0)
810000e2:	5c20                	lw	s0,120(s0)
810000e4:	207c                	fld	fa5,192(s0)
810000e6:	2020                	fld	fs0,64(s0)
810000e8:	2020                	fld	fs0,64(s0)
810000ea:	5c20                	lw	s0,120(s0)
810000ec:	2020202f          	amoxor.w	zero,sp,(zero)
810000f0:	2020                	fld	fs0,64(s0)
810000f2:	5c20                	lw	s0,120(s0)
810000f4:	2f20                	fld	fs0,88(a4)
810000f6:	2020                	fld	fs0,64(s0)
810000f8:	2020                	fld	fs0,64(s0)
810000fa:	2020                	fld	fs0,64(s0)
810000fc:	205c                	fld	fa5,128(s0)
810000fe:	2020                	fld	fs0,64(s0)
81000100:	2020                	fld	fs0,64(s0)
81000102:	207c                	fld	fa5,192(s0)
81000104:	5c20                	lw	s0,120(s0)
81000106:	2020                	fld	fs0,64(s0)
81000108:	7c20                	flw	fs0,120(s0)
8100010a:	2020                	fld	fs0,64(s0)
8100010c:	0a5c                	addi	a5,sp,276
8100010e:	0000                	unimp
81000110:	207c                	fld	fa5,192(s0)
81000112:	2420                	fld	fs0,72(s0)
81000114:	2424                	fld	fs1,72(s0)
81000116:	2424                	fld	fs1,72(s0)
81000118:	5c24                	lw	s1,120(s0)
8100011a:	5f20                	lw	s0,120(a4)
8100011c:	5f5f 5f5f 205f      	0x205f5f5f5f5f
81000122:	207c                	fld	fa5,192(s0)
81000124:	2424                	fld	fs1,72(s0)
81000126:	5f5f 5f5f 2020      	0x20205f5f5f5f
8100012c:	245c                	fld	fa5,136(s0)
8100012e:	5f24                	lw	s1,120(a4)
81000130:	5f5f 5f5f 5f5f      	0x5f5f5f5f5f5f
81000136:	2020                	fld	fs0,64(s0)
81000138:	5f5f 2020 2020      	0x202020205f5f
8100013e:	5f5f 2020 2020      	0x202020205f5f
81000144:	2020                	fld	fs0,64(s0)
81000146:	7c20                	flw	fs0,120(s0)
81000148:	2420                	fld	fs0,72(s0)
8100014a:	2424                	fld	fs1,72(s0)
8100014c:	2424                	fld	fs1,72(s0)
8100014e:	2424                	fld	fs1,72(s0)
81000150:	5c5c                	lw	a5,60(s0)
81000152:	2424                	fld	fs1,72(s0)
81000154:	2424                	fld	fs1,72(s0)
81000156:	7c24                	flw	fs1,120(s0)
81000158:	2020                	fld	fs0,64(s0)
8100015a:	2424                	fld	fs1,72(s0)
8100015c:	2424                	fld	fs1,72(s0)
8100015e:	2424                	fld	fs1,72(s0)
81000160:	207c                	fld	fa5,192(s0)
81000162:	2420                	fld	fs0,72(s0)
81000164:	2424                	fld	fs1,72(s0)
81000166:	2424                	fld	fs1,72(s0)
81000168:	5c24                	lw	s1,120(s0)
8100016a:	2020                	fld	fs0,64(s0)
8100016c:	2020                	fld	fs0,64(s0)
8100016e:	207c                	fld	fa5,192(s0)
81000170:	2424                	fld	fs1,72(s0)
81000172:	2020                	fld	fs0,64(s0)
81000174:	7c20                	flw	fs0,120(s0)
81000176:	2420                	fld	fs0,72(s0)
81000178:	0a24                	addi	s1,sp,280
8100017a:	0000                	unimp
8100017c:	207c                	fld	fa5,192(s0)
8100017e:	2424                	fld	fs1,72(s0)
81000180:	5f5f 5c5f 2424      	0x24245c5f5f5f
81000186:	2020202f          	amoxor.w	zero,sp,(zero)
8100018a:	2020                	fld	fs0,64(s0)
8100018c:	5c20                	lw	s0,120(s0)
8100018e:	207c                	fld	fa5,192(s0)
81000190:	2424                	fld	fs1,72(s0)
81000192:	2020                	fld	fs0,64(s0)
81000194:	2020                	fld	fs0,64(s0)
81000196:	7c5c                	flw	fa5,60(s0)
81000198:	2020                	fld	fs0,64(s0)
8100019a:	207c                	fld	fa5,192(s0)
8100019c:	2020                	fld	fs0,64(s0)
8100019e:	2020                	fld	fs0,64(s0)
810001a0:	2020                	fld	fs0,64(s0)
810001a2:	7c5c                	flw	fa5,60(s0)
810001a4:	2020                	fld	fs0,64(s0)
810001a6:	205c                	fld	fa5,128(s0)
810001a8:	2f20                	fld	fs0,88(a4)
810001aa:	2020                	fld	fs0,64(s0)
810001ac:	205c                	fld	fa5,128(s0)
810001ae:	2020                	fld	fs0,64(s0)
810001b0:	2020                	fld	fs0,64(s0)
810001b2:	7c20                	flw	fs0,120(s0)
810001b4:	2420                	fld	fs0,72(s0)
810001b6:	5f24                	lw	s1,120(a4)
810001b8:	7c5f 2420 2024      	0x202424207c5f
810001be:	207c                	fld	fa5,192(s0)
810001c0:	2424                	fld	fs1,72(s0)
810001c2:	7c20                	flw	fs0,120(s0)
810001c4:	2420                	fld	fs0,72(s0)
810001c6:	5f24                	lw	s1,120(a4)
810001c8:	5f5f 245c 207c      	0x207c245c5f5f
810001ce:	2424                	fld	fs1,72(s0)
810001d0:	2020                	fld	fs0,64(s0)
810001d2:	5c20                	lw	s0,120(s0)
810001d4:	5f24                	lw	s1,120(a4)
810001d6:	5f5f 5f5f 207c      	0x207c5f5f5f5f
810001dc:	2424                	fld	fs1,72(s0)
810001de:	2020                	fld	fs0,64(s0)
810001e0:	7c20                	flw	fs0,120(s0)
810001e2:	2420                	fld	fs0,72(s0)
810001e4:	0a24                	addi	s1,sp,280
810001e6:	0000                	unimp
810001e8:	5c20                	lw	s0,120(s0)
810001ea:	2424                	fld	fs1,72(s0)
810001ec:	2020                	fld	fs0,64(s0)
810001ee:	2020                	fld	fs0,64(s0)
810001f0:	7c5c                	flw	fa5,60(s0)
810001f2:	2020                	fld	fs0,64(s0)
810001f4:	2424                	fld	fs1,72(s0)
810001f6:	2424                	fld	fs1,72(s0)
810001f8:	2424                	fld	fs1,72(s0)
810001fa:	207c                	fld	fa5,192(s0)
810001fc:	2424                	fld	fs1,72(s0)
810001fe:	2424                	fld	fs1,72(s0)
81000200:	2424                	fld	fs1,72(s0)
81000202:	7c24                	flw	fs1,120(s0)
81000204:	2420                	fld	fs0,72(s0)
81000206:	207c                	fld	fa5,192(s0)
81000208:	2424                	fld	fs1,72(s0)
8100020a:	2424                	fld	fs1,72(s0)
8100020c:	2424                	fld	fs1,72(s0)
8100020e:	5c24                	lw	s1,120(s0)
81000210:	245c                	fld	fa5,136(s0)
81000212:	5c24                	lw	s1,120(s0)
81000214:	2420202f          	amoxor.w.aq	zero,sp,(zero)
81000218:	2024                	fld	fs1,64(s0)
8100021a:	2020                	fld	fs0,64(s0)
8100021c:	2020                	fld	fs0,64(s0)
8100021e:	7c20                	flw	fs0,120(s0)
81000220:	2420                	fld	fs0,72(s0)
81000222:	2024                	fld	fs1,64(s0)
81000224:	2020                	fld	fs0,64(s0)
81000226:	2420                	fld	fs0,72(s0)
81000228:	2024                	fld	fs1,64(s0)
8100022a:	207c                	fld	fa5,192(s0)
8100022c:	2424                	fld	fs1,72(s0)
8100022e:	2020                	fld	fs0,64(s0)
81000230:	245c                	fld	fa5,136(s0)
81000232:	2024                	fld	fs1,64(s0)
81000234:	2020                	fld	fs0,64(s0)
81000236:	5c20                	lw	s0,120(s0)
81000238:	207c                	fld	fa5,192(s0)
8100023a:	2424                	fld	fs1,72(s0)
8100023c:	2020                	fld	fs0,64(s0)
8100023e:	2020                	fld	fs0,64(s0)
81000240:	207c                	fld	fa5,192(s0)
81000242:	2020                	fld	fs0,64(s0)
81000244:	2020                	fld	fs0,64(s0)
81000246:	5c20                	lw	s0,120(s0)
81000248:	2424                	fld	fs1,72(s0)
8100024a:	205c                	fld	fa5,128(s0)
8100024c:	2420202f          	amoxor.w.aq	zero,sp,(zero)
81000250:	0a24                	addi	s1,sp,280
81000252:	0000                	unimp
81000254:	5f20                	lw	s0,120(a4)
81000256:	245c                	fld	fa5,136(s0)
81000258:	2424                	fld	fs1,72(s0)
8100025a:	2424                	fld	fs1,72(s0)
8100025c:	7c24                	flw	fs1,120(s0)
8100025e:	2420                	fld	fs0,72(s0)
81000260:	2024                	fld	fs1,64(s0)
81000262:	7c20                	flw	fs0,120(s0)
81000264:	2420                	fld	fs0,72(s0)
81000266:	207c                	fld	fa5,192(s0)
81000268:	2424                	fld	fs1,72(s0)
8100026a:	2020                	fld	fs0,64(s0)
8100026c:	207c                	fld	fa5,192(s0)
8100026e:	7c24                	flw	fs1,120(s0)
81000270:	2420                	fld	fs0,72(s0)
81000272:	207c                	fld	fa5,192(s0)
81000274:	2424                	fld	fs1,72(s0)
81000276:	2020                	fld	fs0,64(s0)
81000278:	207c                	fld	fa5,192(s0)
8100027a:	2424                	fld	fs1,72(s0)
8100027c:	3e20                	fld	fs0,120(a2)
8100027e:	2424                	fld	fs1,72(s0)
81000280:	2020                	fld	fs0,64(s0)
81000282:	2424                	fld	fs1,72(s0)
81000284:	2020                	fld	fs0,64(s0)
81000286:	2020                	fld	fs0,64(s0)
81000288:	2020                	fld	fs0,64(s0)
8100028a:	7c20                	flw	fs0,120(s0)
8100028c:	2420                	fld	fs0,72(s0)
8100028e:	2424                	fld	fs1,72(s0)
81000290:	2424                	fld	fs1,72(s0)
81000292:	2424                	fld	fs1,72(s0)
81000294:	205c                	fld	fa5,128(s0)
81000296:	207c                	fld	fa5,192(s0)
81000298:	2424                	fld	fs1,72(s0)
8100029a:	2020                	fld	fs0,64(s0)
8100029c:	5c5f 2424 2424      	0x242424245c5f
810002a2:	2424                	fld	fs1,72(s0)
810002a4:	207c                	fld	fa5,192(s0)
810002a6:	2424                	fld	fs1,72(s0)
810002a8:	2020                	fld	fs0,64(s0)
810002aa:	5f20                	lw	s0,120(a4)
810002ac:	5c5f 2424 2424      	0x242424245c5f
810002b2:	2424                	fld	fs1,72(s0)
810002b4:	245c                	fld	fa5,136(s0)
810002b6:	5c24                	lw	s1,120(s0)
810002b8:	2020                	fld	fs0,64(s0)
810002ba:	2424                	fld	fs1,72(s0)
810002bc:	0a20                	addi	s0,sp,280
810002be:	0000                	unimp
810002c0:	207c                	fld	fa5,192(s0)
810002c2:	5c20                	lw	s0,120(s0)
810002c4:	5f5f 207c 7c24      	0x7c24207c5f5f
810002ca:	2420                	fld	fs0,72(s0)
810002cc:	5f24                	lw	s1,120(a4)
810002ce:	2f5f 2420 207c      	0x207c24202f5f
810002d4:	2424                	fld	fs1,72(s0)
810002d6:	2020                	fld	fs0,64(s0)
810002d8:	207c                	fld	fa5,192(s0)
810002da:	7c24                	flw	fs1,120(s0)
810002dc:	2420                	fld	fs0,72(s0)
810002de:	207c                	fld	fa5,192(s0)
810002e0:	2424                	fld	fs1,72(s0)
810002e2:	2020                	fld	fs0,64(s0)
810002e4:	207c                	fld	fa5,192(s0)
810002e6:	2424                	fld	fs1,72(s0)
810002e8:	2420202f          	amoxor.w.aq	zero,sp,(zero)
810002ec:	2424                	fld	fs1,72(s0)
810002ee:	5c24                	lw	s1,120(s0)
810002f0:	2020                	fld	fs0,64(s0)
810002f2:	2020                	fld	fs0,64(s0)
810002f4:	2020                	fld	fs0,64(s0)
810002f6:	7c20                	flw	fs0,120(s0)
810002f8:	2420                	fld	fs0,72(s0)
810002fa:	2024                	fld	fs1,64(s0)
810002fc:	7c20                	flw	fs0,120(s0)
810002fe:	2420                	fld	fs0,72(s0)
81000300:	5f24                	lw	s1,120(a4)
81000302:	207c                	fld	fa5,192(s0)
81000304:	2424                	fld	fs1,72(s0)
81000306:	7c5f 2020 5f5c      	0x5f5c20207c5f
8100030c:	7c5f 2420 207c      	0x207c24207c5f
81000312:	2424                	fld	fs1,72(s0)
81000314:	5f5f 202f 5c20      	0x5c20202f5f5f
8100031a:	2020                	fld	fs0,64(s0)
8100031c:	2020                	fld	fs0,64(s0)
8100031e:	2020                	fld	fs0,64(s0)
81000320:	5c20                	lw	s0,120(s0)
81000322:	2424                	fld	fs1,72(s0)
81000324:	2420                	fld	fs0,72(s0)
81000326:	2024                	fld	fs1,64(s0)
81000328:	0a20                	addi	s0,sp,280
8100032a:	0000                	unimp
8100032c:	5c20                	lw	s0,120(s0)
8100032e:	2424                	fld	fs1,72(s0)
81000330:	2020                	fld	fs0,64(s0)
81000332:	2020                	fld	fs0,64(s0)
81000334:	7c24                	flw	fs1,120(s0)
81000336:	2420                	fld	fs0,72(s0)
81000338:	2024                	fld	fs1,64(s0)
8100033a:	2020                	fld	fs0,64(s0)
8100033c:	2420                	fld	fs0,72(s0)
8100033e:	207c                	fld	fa5,192(s0)
81000340:	2424                	fld	fs1,72(s0)
81000342:	2020                	fld	fs0,64(s0)
81000344:	207c                	fld	fa5,192(s0)
81000346:	7c24                	flw	fs1,120(s0)
81000348:	2420                	fld	fs0,72(s0)
8100034a:	207c                	fld	fa5,192(s0)
8100034c:	2424                	fld	fs1,72(s0)
8100034e:	2020                	fld	fs0,64(s0)
81000350:	207c                	fld	fa5,192(s0)
81000352:	7c24                	flw	fs1,120(s0)
81000354:	2020                	fld	fs0,64(s0)
81000356:	2424                	fld	fs1,72(s0)
81000358:	5c20                	lw	s0,120(s0)
8100035a:	2424                	fld	fs1,72(s0)
8100035c:	205c                	fld	fa5,128(s0)
8100035e:	2020                	fld	fs0,64(s0)
81000360:	2020                	fld	fs0,64(s0)
81000362:	7c20                	flw	fs0,120(s0)
81000364:	2420                	fld	fs0,72(s0)
81000366:	2024                	fld	fs1,64(s0)
81000368:	7c20                	flw	fs0,120(s0)
8100036a:	2420                	fld	fs0,72(s0)
8100036c:	207c                	fld	fa5,192(s0)
8100036e:	2020                	fld	fs0,64(s0)
81000370:	2424                	fld	fs1,72(s0)
81000372:	5c20                	lw	s0,120(s0)
81000374:	245c                	fld	fa5,136(s0)
81000376:	2024                	fld	fs1,64(s0)
81000378:	2020                	fld	fs0,64(s0)
8100037a:	2420                	fld	fs0,72(s0)
8100037c:	5c24                	lw	s1,120(s0)
8100037e:	2424                	fld	fs1,72(s0)
81000380:	2020                	fld	fs0,64(s0)
81000382:	2020                	fld	fs0,64(s0)
81000384:	2424                	fld	fs1,72(s0)
81000386:	2020                	fld	fs0,64(s0)
81000388:	2020                	fld	fs0,64(s0)
8100038a:	2020                	fld	fs0,64(s0)
8100038c:	2020                	fld	fs0,64(s0)
8100038e:	245c                	fld	fa5,136(s0)
81000390:	2424                	fld	fs1,72(s0)
81000392:	2020                	fld	fs0,64(s0)
81000394:	0a20                	addi	s0,sp,280
81000396:	0000                	unimp
81000398:	2020                	fld	fs0,64(s0)
8100039a:	245c                	fld	fa5,136(s0)
8100039c:	2424                	fld	fs1,72(s0)
8100039e:	2424                	fld	fs1,72(s0)
810003a0:	7c24                	flw	fs1,120(s0)
810003a2:	2420                	fld	fs0,72(s0)
810003a4:	2424                	fld	fs1,72(s0)
810003a6:	2424                	fld	fs1,72(s0)
810003a8:	2424                	fld	fs1,72(s0)
810003aa:	5c20                	lw	s0,120(s0)
810003ac:	2424                	fld	fs1,72(s0)
810003ae:	2020                	fld	fs0,64(s0)
810003b0:	5c20                	lw	s0,120(s0)
810003b2:	2424                	fld	fs1,72(s0)
810003b4:	245c                	fld	fa5,136(s0)
810003b6:	5c24                	lw	s1,120(s0)
810003b8:	2424                	fld	fs1,72(s0)
810003ba:	2020                	fld	fs0,64(s0)
810003bc:	5c20                	lw	s0,120(s0)
810003be:	2424                	fld	fs1,72(s0)
810003c0:	245c                	fld	fa5,136(s0)
810003c2:	2024                	fld	fs1,64(s0)
810003c4:	2020                	fld	fs0,64(s0)
810003c6:	245c                	fld	fa5,136(s0)
810003c8:	2024                	fld	fs1,64(s0)
810003ca:	2020                	fld	fs0,64(s0)
810003cc:	2020                	fld	fs0,64(s0)
810003ce:	2020                	fld	fs0,64(s0)
810003d0:	245c                	fld	fa5,136(s0)
810003d2:	2024                	fld	fs1,64(s0)
810003d4:	2020                	fld	fs0,64(s0)
810003d6:	245c                	fld	fa5,136(s0)
810003d8:	5c24                	lw	s1,120(s0)
810003da:	2424                	fld	fs1,72(s0)
810003dc:	2424                	fld	fs1,72(s0)
810003de:	2424                	fld	fs1,72(s0)
810003e0:	5c20                	lw	s0,120(s0)
810003e2:	2424                	fld	fs1,72(s0)
810003e4:	2424                	fld	fs1,72(s0)
810003e6:	2424                	fld	fs1,72(s0)
810003e8:	2020                	fld	fs0,64(s0)
810003ea:	245c                	fld	fa5,136(s0)
810003ec:	2424                	fld	fs1,72(s0)
810003ee:	2424                	fld	fs1,72(s0)
810003f0:	2024                	fld	fs1,64(s0)
810003f2:	2020                	fld	fs0,64(s0)
810003f4:	2020                	fld	fs0,64(s0)
810003f6:	2020                	fld	fs0,64(s0)
810003f8:	2020                	fld	fs0,64(s0)
810003fa:	5c20                	lw	s0,120(s0)
810003fc:	2024                	fld	fs1,64(s0)
810003fe:	2020                	fld	fs0,64(s0)
81000400:	0a20                	addi	s0,sp,280
81000402:	0000                	unimp
81000404:	2020                	fld	fs0,64(s0)
81000406:	2020                	fld	fs0,64(s0)
81000408:	2020                	fld	fs0,64(s0)
8100040a:	2020                	fld	fs0,64(s0)
8100040c:	7c20                	flw	fs0,120(s0)
8100040e:	2420                	fld	fs0,72(s0)
81000410:	2024                	fld	fs1,64(s0)
81000412:	2020                	fld	fs0,64(s0)
81000414:	2020                	fld	fs0,64(s0)
81000416:	2020                	fld	fs0,64(s0)
81000418:	2020                	fld	fs0,64(s0)
8100041a:	2020                	fld	fs0,64(s0)
8100041c:	2020                	fld	fs0,64(s0)
8100041e:	2020                	fld	fs0,64(s0)
81000420:	2020                	fld	fs0,64(s0)
81000422:	2020                	fld	fs0,64(s0)
81000424:	2020                	fld	fs0,64(s0)
81000426:	2020                	fld	fs0,64(s0)
81000428:	2020                	fld	fs0,64(s0)
8100042a:	2020                	fld	fs0,64(s0)
8100042c:	2020                	fld	fs0,64(s0)
8100042e:	2020                	fld	fs0,64(s0)
81000430:	2020                	fld	fs0,64(s0)
81000432:	2020                	fld	fs0,64(s0)
81000434:	2020                	fld	fs0,64(s0)
81000436:	2020                	fld	fs0,64(s0)
81000438:	2020                	fld	fs0,64(s0)
8100043a:	2020                	fld	fs0,64(s0)
8100043c:	2020                	fld	fs0,64(s0)
8100043e:	2020                	fld	fs0,64(s0)
81000440:	2020                	fld	fs0,64(s0)
81000442:	2020                	fld	fs0,64(s0)
81000444:	2020                	fld	fs0,64(s0)
81000446:	2020                	fld	fs0,64(s0)
81000448:	2020                	fld	fs0,64(s0)
8100044a:	2020                	fld	fs0,64(s0)
8100044c:	2020                	fld	fs0,64(s0)
8100044e:	2020                	fld	fs0,64(s0)
81000450:	2020                	fld	fs0,64(s0)
81000452:	2020                	fld	fs0,64(s0)
81000454:	2020                	fld	fs0,64(s0)
81000456:	2020                	fld	fs0,64(s0)
81000458:	2020                	fld	fs0,64(s0)
8100045a:	2020                	fld	fs0,64(s0)
8100045c:	2020                	fld	fs0,64(s0)
8100045e:	2020                	fld	fs0,64(s0)
81000460:	2020                	fld	fs0,64(s0)
81000462:	2020                	fld	fs0,64(s0)
81000464:	2020                	fld	fs0,64(s0)
81000466:	2020                	fld	fs0,64(s0)
81000468:	2020                	fld	fs0,64(s0)
8100046a:	2020                	fld	fs0,64(s0)
8100046c:	0a20                	addi	s0,sp,280
8100046e:	0000                	unimp
81000470:	2020                	fld	fs0,64(s0)
81000472:	2020                	fld	fs0,64(s0)
81000474:	2020                	fld	fs0,64(s0)
81000476:	2020                	fld	fs0,64(s0)
81000478:	2020                	fld	fs0,64(s0)
8100047a:	245c                	fld	fa5,136(s0)
8100047c:	2024                	fld	fs1,64(s0)
8100047e:	2020                	fld	fs0,64(s0)
81000480:	2020                	fld	fs0,64(s0)
81000482:	2020                	fld	fs0,64(s0)
81000484:	2020                	fld	fs0,64(s0)
81000486:	2020                	fld	fs0,64(s0)
81000488:	2020                	fld	fs0,64(s0)
8100048a:	2020                	fld	fs0,64(s0)
8100048c:	2020                	fld	fs0,64(s0)
8100048e:	2020                	fld	fs0,64(s0)
81000490:	2020                	fld	fs0,64(s0)
81000492:	2020                	fld	fs0,64(s0)
81000494:	2020                	fld	fs0,64(s0)
81000496:	2020                	fld	fs0,64(s0)
81000498:	2020                	fld	fs0,64(s0)
8100049a:	2020                	fld	fs0,64(s0)
8100049c:	2020                	fld	fs0,64(s0)
8100049e:	2020                	fld	fs0,64(s0)
810004a0:	2020                	fld	fs0,64(s0)
810004a2:	2020                	fld	fs0,64(s0)
810004a4:	2020                	fld	fs0,64(s0)
810004a6:	2020                	fld	fs0,64(s0)
810004a8:	2020                	fld	fs0,64(s0)
810004aa:	2020                	fld	fs0,64(s0)
810004ac:	2020                	fld	fs0,64(s0)
810004ae:	2020                	fld	fs0,64(s0)
810004b0:	2020                	fld	fs0,64(s0)
810004b2:	2020                	fld	fs0,64(s0)
810004b4:	2020                	fld	fs0,64(s0)
810004b6:	2020                	fld	fs0,64(s0)
810004b8:	2020                	fld	fs0,64(s0)
810004ba:	2020                	fld	fs0,64(s0)
810004bc:	2020                	fld	fs0,64(s0)
810004be:	2020                	fld	fs0,64(s0)
810004c0:	2020                	fld	fs0,64(s0)
810004c2:	2020                	fld	fs0,64(s0)
810004c4:	2020                	fld	fs0,64(s0)
810004c6:	2020                	fld	fs0,64(s0)
810004c8:	2020                	fld	fs0,64(s0)
810004ca:	2020                	fld	fs0,64(s0)
810004cc:	2020                	fld	fs0,64(s0)
810004ce:	2020                	fld	fs0,64(s0)
810004d0:	2020                	fld	fs0,64(s0)
810004d2:	2020                	fld	fs0,64(s0)
810004d4:	2020                	fld	fs0,64(s0)
810004d6:	2020                	fld	fs0,64(s0)
810004d8:	0a20                	addi	s0,sp,280
810004da:	0000                	unimp
810004dc:	000a                	c.slli	zero,0x2
810004de:	0000                	unimp
810004e0:	2024                	fld	fs1,64(s0)
810004e2:	4420                	lw	s0,72(s0)
810004e4:	6f79206f          	j	810933da <getsent_prompt+0x109307e>
810004e8:	2075                	jal	81000594 <getsent_prompt+0x1000238>
810004ea:	746e6177          	0x746e6177
810004ee:	7420                	flw	fs0,104(s0)
810004f0:	6c70206f          	j	810033b6 <getsent_prompt+0x100305a>
810004f4:	7961                	lui	s2,0xffff8
810004f6:	6120                	flw	fs0,64(a0)
810004f8:	6720                	flw	fs0,72(a4)
810004fa:	6575                	lui	a0,0x1d
810004fc:	6e697373          	csrrci	t1,0x6e6,18
81000500:	61672067          	0x61672067
81000504:	656d                	lui	a0,0x1b
81000506:	795b203f 205d6e2f 	0x205d6e2f795b203f
8100050e:	0000                	unimp
81000510:	240a                	fld	fs0,128(sp)
81000512:	2020                	fld	fs0,64(s0)
81000514:	6e6f7257          	0x6e6f7257
81000518:	6e692067          	0x6e692067
8100051c:	7570                	flw	fa2,108(a0)
8100051e:	2c74                	fld	fa3,216(s0)
81000520:	7020                	flw	fs0,96(s0)
81000522:	656c                	flw	fa1,76(a0)
81000524:	7361                	lui	t1,0xffff8
81000526:	2065                	jal	810005ce <getsent_prompt+0x1000272>
81000528:	7274                	flw	fa3,100(a2)
8100052a:	2079                	jal	810005b8 <getsent_prompt+0x100025c>
8100052c:	6761                	lui	a4,0x18
8100052e:	6961                	lui	s2,0x18
81000530:	0a6e                	slli	s4,s4,0x1b
81000532:	0000                	unimp
81000534:	203e                	fld	ft0,456(sp)
81000536:	4720                	lw	s0,72(a4)
81000538:	6575                	lui	a0,0x1d
8100053a:	61207373          	csrrci	t1,0x612,0
8100053e:	6e20                	flw	fs0,88(a2)
81000540:	6d75                	lui	s10,0x1d
81000542:	6562                	flw	fa0,24(sp)
81000544:	2072                	fld	ft0,280(sp)
81000546:	6562                	flw	fa0,24(sp)
81000548:	7774                	flw	fa3,108(a4)
8100054a:	6565                	lui	a0,0x19
8100054c:	206e                	fld	ft0,216(sp)
8100054e:	2030                	fld	fa2,64(s0)
81000550:	6e61                	lui	t3,0x18
81000552:	2064                	fld	fs1,192(s0)
81000554:	3a39                	jal	80fffe72 <getsent_prompt+0xfffb16>
81000556:	0020                	addi	s0,sp,8
81000558:	203e                	fld	ft0,456(sp)
8100055a:	5420                	lw	s0,104(s0)
8100055c:	6568                	flw	fa0,76(a0)
8100055e:	6e20                	flw	fs0,88(a2)
81000560:	6d75                	lui	s10,0x1d
81000562:	6562                	flw	fa0,24(sp)
81000564:	2072                	fld	ft0,280(sp)
81000566:	7369                	lui	t1,0xffffa
81000568:	6c20                	flw	fs0,88(s0)
8100056a:	7261                	lui	tp,0xffff8
8100056c:	0a726567          	0xa726567
81000570:	0000                	unimp
81000572:	0000                	unimp
81000574:	203e                	fld	ft0,456(sp)
81000576:	5420                	lw	s0,104(s0)
81000578:	6568                	flw	fa0,76(a0)
8100057a:	6e20                	flw	fs0,88(a2)
8100057c:	6d75                	lui	s10,0x1d
8100057e:	6562                	flw	fa0,24(sp)
81000580:	2072                	fld	ft0,280(sp)
81000582:	7369                	lui	t1,0xffffa
81000584:	7320                	flw	fs0,96(a4)
81000586:	616d                	addi	sp,sp,240
81000588:	6c6c                	flw	fa1,92(s0)
8100058a:	7265                	lui	tp,0xffff9
8100058c:	000a                	c.slli	zero,0x2
8100058e:	0000                	unimp
81000590:	2020                	fld	fs0,64(s0)
81000592:	2020                	fld	fs0,64(s0)
81000594:	2020                	fld	fs0,64(s0)
81000596:	2020                	fld	fs0,64(s0)
81000598:	2020                	fld	fs0,64(s0)
8100059a:	2020                	fld	fs0,64(s0)
8100059c:	2020                	fld	fs0,64(s0)
8100059e:	2020                	fld	fs0,64(s0)
810005a0:	2020                	fld	fs0,64(s0)
810005a2:	2020                	fld	fs0,64(s0)
810005a4:	2020                	fld	fs0,64(s0)
810005a6:	2020                	fld	fs0,64(s0)
810005a8:	2020                	fld	fs0,64(s0)
810005aa:	2020                	fld	fs0,64(s0)
810005ac:	2020                	fld	fs0,64(s0)
810005ae:	2020                	fld	fs0,64(s0)
810005b0:	2020                	fld	fs0,64(s0)
810005b2:	205f 2020 2020      	0x20202020205f
810005b8:	2020                	fld	fs0,64(s0)
810005ba:	2020                	fld	fs0,64(s0)
810005bc:	205f 2020 2020      	0x20202020205f
810005c2:	2020                	fld	fs0,64(s0)
810005c4:	205f 2020 205f      	0x205f2020205f
810005ca:	2020                	fld	fs0,64(s0)
810005cc:	2020                	fld	fs0,64(s0)
810005ce:	2020                	fld	fs0,64(s0)
810005d0:	2020                	fld	fs0,64(s0)
810005d2:	2020                	fld	fs0,64(s0)
810005d4:	2020                	fld	fs0,64(s0)
810005d6:	2020                	fld	fs0,64(s0)
810005d8:	2020                	fld	fs0,64(s0)
810005da:	205f 205f 000a      	0xa205f205f
810005e0:	2020                	fld	fs0,64(s0)
810005e2:	2020                	fld	fs0,64(s0)
810005e4:	2020                	fld	fs0,64(s0)
810005e6:	2020                	fld	fs0,64(s0)
810005e8:	2020                	fld	fs0,64(s0)
810005ea:	2020                	fld	fs0,64(s0)
810005ec:	2020                	fld	fs0,64(s0)
810005ee:	2020                	fld	fs0,64(s0)
810005f0:	2020                	fld	fs0,64(s0)
810005f2:	2020                	fld	fs0,64(s0)
810005f4:	2020                	fld	fs0,64(s0)
810005f6:	2020                	fld	fs0,64(s0)
810005f8:	2020                	fld	fs0,64(s0)
810005fa:	2020                	fld	fs0,64(s0)
810005fc:	2020                	fld	fs0,64(s0)
810005fe:	2020                	fld	fs0,64(s0)
81000600:	7c20                	flw	fs0,120(s0)
81000602:	7c20                	flw	fs0,120(s0)
81000604:	2020                	fld	fs0,64(s0)
81000606:	2020                	fld	fs0,64(s0)
81000608:	2020                	fld	fs0,64(s0)
8100060a:	7c20                	flw	fs0,120(s0)
8100060c:	7c20                	flw	fs0,120(s0)
8100060e:	2020                	fld	fs0,64(s0)
81000610:	2020                	fld	fs0,64(s0)
81000612:	7c20                	flw	fs0,120(s0)
81000614:	7c20                	flw	fs0,120(s0)
81000616:	2820                	fld	fs0,80(s0)
81000618:	295f 2020 2020      	0x20202020295f
8100061e:	2020                	fld	fs0,64(s0)
81000620:	2020                	fld	fs0,64(s0)
81000622:	2020                	fld	fs0,64(s0)
81000624:	2020                	fld	fs0,64(s0)
81000626:	2020                	fld	fs0,64(s0)
81000628:	7c20                	flw	fs0,120(s0)
8100062a:	7c20                	flw	fs0,120(s0)
8100062c:	7c20                	flw	fs0,120(s0)
8100062e:	000a                	c.slli	zero,0x2
81000630:	2020                	fld	fs0,64(s0)
81000632:	5f20                	lw	s0,120(a4)
81000634:	5f5f 5f20 5f5f      	0x5f5f5f205f5f
8100063a:	2020                	fld	fs0,64(s0)
8100063c:	205f 5f5f 2020      	0x20205f5f205f
81000642:	5f20                	lw	s0,120(a4)
81000644:	205f 205f 205f      	0x205f205f205f
8100064a:	5f5f 5f20 205f      	0x205f5f205f5f
81000650:	7c5f 7c20 205f      	0x205f7c207c5f
81000656:	205f 2020 7c5f      	0x7c5f2020205f
8100065c:	7c20                	flw	fs0,120(s0)
8100065e:	5f20                	lw	s0,120(a4)
81000660:	205f 7c5f 7c20      	0x7c207c5f205f
81000666:	205f 205f 5f20      	0x5f20205f205f
8100066c:	5f5f 2020 205f      	0x205f20205f5f
81000672:	5f5f 2020 5f5f      	0x5f5f20205f5f
81000678:	7c5f 7c20 7c20      	0x7c207c207c5f
8100067e:	000a                	c.slli	zero,0x2
81000680:	2020                	fld	fs0,64(s0)
81000682:	5f5f202f          	0x5f5f202f
81000686:	205f202f          	amoxor.w	zero,t0,(t5)
8100068a:	7c5c                	flw	fa5,60(s0)
8100068c:	2720                	fld	fs0,72(a4)
8100068e:	205f 205c 202f      	0x202f205c205f
81000694:	605f 7c20 2720      	0x27207c20605f
8100069a:	5f5f 202f 605f      	0x605f202f5f5f
810006a0:	7c20                	flw	fs0,120(s0)
810006a2:	5f20                	lw	s0,120(a4)
810006a4:	7c5f 7c20 7c20      	0x7c207c207c5f
810006aa:	7c20                	flw	fs0,120(s0)
810006ac:	7c20                	flw	fs0,120(s0)
810006ae:	605f202f          	amoand.w	zero,t0,(t5)
810006b2:	7c20                	flw	fs0,120(s0)
810006b4:	5f20                	lw	s0,120(a4)
810006b6:	7c5f 7c20 202f      	0x202f7c207c5f
810006bc:	205f 7c5c 2720      	0x27207c5c205f
810006c2:	205f 2f5c 5f20      	0x5f202f5c205f
810006c8:	7c5f 7c20 7c20      	0x7c207c207c5f
810006ce:	000a                	c.slli	zero,0x2
810006d0:	7c20                	flw	fs0,120(s0)
810006d2:	2820                	fld	fs0,80(s0)
810006d4:	7c5f 2820 295f      	0x295f28207c5f
810006da:	7c20                	flw	fs0,120(s0)
810006dc:	7c20                	flw	fs0,120(s0)
810006de:	7c20                	flw	fs0,120(s0)
810006e0:	7c20                	flw	fs0,120(s0)
810006e2:	2820                	fld	fs0,80(s0)
810006e4:	7c5f 7c20 7c20      	0x7c207c207c5f
810006ea:	7c20                	flw	fs0,120(s0)
810006ec:	2820                	fld	fs0,80(s0)
810006ee:	7c5f 7c20 7c20      	0x7c207c207c5f
810006f4:	7c5f 7c20 7c5f      	0x7c5f7c207c5f
810006fa:	7c20                	flw	fs0,120(s0)
810006fc:	7c20                	flw	fs0,120(s0)
810006fe:	2820                	fld	fs0,80(s0)
81000700:	7c5f 7c20 7c20      	0x7c207c207c5f
81000706:	7c5f 7c20 2820      	0x28207c207c5f
8100070c:	295f 7c20 7c20      	0x7c207c20295f
81000712:	7c20                	flw	fs0,120(s0)
81000714:	5c20                	lw	s0,120(s0)
81000716:	5f5f 5c20 7c5f      	0x7c5f5c205f5f
8100071c:	7c5f 000a 2020      	0x2020000a7c5f
81000722:	5f5c                	lw	a5,60(a4)
81000724:	5f5f 5f5c 5f5f      	0x5f5f5f5c5f5f
8100072a:	7c5f7c2f          	0x7c5f7c2f
8100072e:	7c20                	flw	fs0,120(s0)
81000730:	7c5f 5f5c 2c5f      	0x2c5f5f5c7c5f
81000736:	7c20                	flw	fs0,120(s0)
81000738:	7c5f 2020 5f5c      	0x5f5c20207c5f
8100073e:	2c5f 7c5f 5f5c      	0x5f5c7c5f2c5f
81000744:	7c5f 5f5c 2c5f      	0x2c5f5f5c7c5f
8100074a:	7c5f 7c5f 5f5c      	0x5f5c7c5f7c5f
81000750:	2c5f 7c5f 5f5c      	0x5f5c7c5f2c5f
81000756:	7c5f 7c5f 5f5c      	0x5f5c7c5f7c5f
8100075c:	5f5f 7c2f 7c5f      	0x7c5f7c2f5f5f
81000762:	7c20                	flw	fs0,120(s0)
81000764:	7c5f 5f5f 285f      	0x285f5f5f7c5f
8100076a:	7c5f 295f 000a      	0xa295f7c5f
81000770:	2020                	fld	fs0,64(s0)
81000772:	2020                	fld	fs0,64(s0)
81000774:	2020                	fld	fs0,64(s0)
81000776:	2020                	fld	fs0,64(s0)
81000778:	2020                	fld	fs0,64(s0)
8100077a:	2020                	fld	fs0,64(s0)
8100077c:	2020                	fld	fs0,64(s0)
8100077e:	2020                	fld	fs0,64(s0)
81000780:	2020                	fld	fs0,64(s0)
81000782:	5f20                	lw	s0,120(a4)
81000784:	2f5f 7c20 2020      	0x20207c202f5f
8100078a:	2020                	fld	fs0,64(s0)
8100078c:	2020                	fld	fs0,64(s0)
8100078e:	2020                	fld	fs0,64(s0)
81000790:	2020                	fld	fs0,64(s0)
81000792:	2020                	fld	fs0,64(s0)
81000794:	2020                	fld	fs0,64(s0)
81000796:	2020                	fld	fs0,64(s0)
81000798:	2020                	fld	fs0,64(s0)
8100079a:	2020                	fld	fs0,64(s0)
8100079c:	2020                	fld	fs0,64(s0)
8100079e:	2020                	fld	fs0,64(s0)
810007a0:	2020                	fld	fs0,64(s0)
810007a2:	2020                	fld	fs0,64(s0)
810007a4:	2020                	fld	fs0,64(s0)
810007a6:	2020                	fld	fs0,64(s0)
810007a8:	2020                	fld	fs0,64(s0)
810007aa:	2020                	fld	fs0,64(s0)
810007ac:	2020                	fld	fs0,64(s0)
810007ae:	2020                	fld	fs0,64(s0)
810007b0:	2020                	fld	fs0,64(s0)
810007b2:	2020                	fld	fs0,64(s0)
810007b4:	2020                	fld	fs0,64(s0)
810007b6:	2020                	fld	fs0,64(s0)
810007b8:	2020                	fld	fs0,64(s0)
810007ba:	2020                	fld	fs0,64(s0)
810007bc:	2020                	fld	fs0,64(s0)
810007be:	000a                	c.slli	zero,0x2
810007c0:	2020                	fld	fs0,64(s0)
810007c2:	2020                	fld	fs0,64(s0)
810007c4:	2020                	fld	fs0,64(s0)
810007c6:	2020                	fld	fs0,64(s0)
810007c8:	2020                	fld	fs0,64(s0)
810007ca:	2020                	fld	fs0,64(s0)
810007cc:	2020                	fld	fs0,64(s0)
810007ce:	2020                	fld	fs0,64(s0)
810007d0:	2020                	fld	fs0,64(s0)
810007d2:	5f7c                	lw	a5,124(a4)
810007d4:	5f5f 202f 2020      	0x2020202f5f5f
810007da:	2020                	fld	fs0,64(s0)
810007dc:	2020                	fld	fs0,64(s0)
810007de:	2020                	fld	fs0,64(s0)
810007e0:	2020                	fld	fs0,64(s0)
810007e2:	2020                	fld	fs0,64(s0)
810007e4:	2020                	fld	fs0,64(s0)
810007e6:	2020                	fld	fs0,64(s0)
810007e8:	2020                	fld	fs0,64(s0)
810007ea:	2020                	fld	fs0,64(s0)
810007ec:	2020                	fld	fs0,64(s0)
810007ee:	2020                	fld	fs0,64(s0)
810007f0:	2020                	fld	fs0,64(s0)
810007f2:	2020                	fld	fs0,64(s0)
810007f4:	2020                	fld	fs0,64(s0)
810007f6:	2020                	fld	fs0,64(s0)
810007f8:	2020                	fld	fs0,64(s0)
810007fa:	2020                	fld	fs0,64(s0)
810007fc:	2020                	fld	fs0,64(s0)
810007fe:	2020                	fld	fs0,64(s0)
81000800:	2020                	fld	fs0,64(s0)
81000802:	2020                	fld	fs0,64(s0)
81000804:	2020                	fld	fs0,64(s0)
81000806:	2020                	fld	fs0,64(s0)
81000808:	2020                	fld	fs0,64(s0)
8100080a:	2020                	fld	fs0,64(s0)
8100080c:	2020                	fld	fs0,64(s0)
8100080e:	000a                	c.slli	zero,0x2
81000810:	2024                	fld	fs1,64(s0)
81000812:	5020                	lw	s0,96(s0)
81000814:	6572                	flw	fa0,28(sp)
81000816:	43207373          	csrrci	t1,0x432,0
8100081a:	544e                	lw	s0,240(sp)
8100081c:	2d52                	fld	fs10,272(sp)
8100081e:	6f742043          	fmadd.q	ft0,fs0,fs7,fa3,rdn
81000822:	6520                	flw	fs0,72(a0)
81000824:	6978                	flw	fa4,84(a0)
81000826:	2074                	fld	fa3,192(s0)
	...

Disassembly of section .comment:

82000000 <.comment>:
82000000:	3a434347          	fmsub.d	ft6,ft6,ft4,ft7,rmm
82000004:	2820                	fld	fs0,80(s0)
82000006:	29554e47          	fmsub.s	ft8,fa0,fs5,ft5,rmm
8200000a:	3820                	fld	fs0,112(s0)
8200000c:	322e                	fld	ft4,232(sp)
8200000e:	302e                	fld	ft0,232(sp)
	...
