In archive libvortexrt.a:

vx_start.S.o:     file format elf32-littleriscv


Disassembly of section .text:

00000000 <_exit>:
   0:	00050413          	mv	s0,a0
   4:	00000097          	auipc	ra,0x0
   8:	000080e7          	jalr	ra # 4 <_exit+0x4>
   c:	00040193          	mv	gp,s0
  10:	00000513          	li	a0,0
  14:	0005006b          	0x5006b

00000018 <init_regs>:
  18:	fff00513          	li	a0,-1
  1c:	0005006b          	0x5006b
  20:	00000197          	auipc	gp,0x0
  24:	00018193          	mv	gp,gp
  28:	ff000137          	lui	sp,0xff000
  2c:	cc102573          	csrr	a0,0xcc1
  30:	00a51593          	slli	a1,a0,0xa
  34:	40b10133          	sub	sp,sp,a1
  38:	00000597          	auipc	a1,0x0
  3c:	00058593          	mv	a1,a1
  40:	02b50533          	mul	a0,a0,a1
  44:	00000217          	auipc	tp,0x0
  48:	00020213          	mv	tp,tp
  4c:	00a20233          	add	tp,tp,a0
  50:	fc027213          	andi	tp,tp,-64
  54:	cc3026f3          	csrr	a3,0xcc3
  58:	00068663          	beqz	a3,64 <RETURN>
  5c:	00000513          	li	a0,0
  60:	0005006b          	0x5006b

00000064 <RETURN>:
  64:	00008067          	ret

Disassembly of section .data:

00000000 <__dso_handle>:
   0:	0000                	unimp
	...

Disassembly of section .init:

00000000 <_start>:
   0:	fc102573          	csrr	a0,0xfc1
   4:	00000597          	auipc	a1,0x0
   8:	00058593          	mv	a1,a1
   c:	00b5106b          	0xb5106b
  10:	008000ef          	jal	ra,18 <_start+0x18>
  14:	00100513          	li	a0,1
  18:	0005006b          	0x5006b
  1c:	fc102573          	csrr	a0,0xfc1
  20:	00000597          	auipc	a1,0x0
  24:	00058593          	mv	a1,a1
  28:	00b5106b          	0xb5106b
  2c:	00000097          	auipc	ra,0x0
  30:	000080e7          	jalr	ra # 2c <_start+0x2c>
  34:	00100513          	li	a0,1
  38:	0005006b          	0x5006b
  3c:	00000517          	auipc	a0,0x0
  40:	00050513          	mv	a0,a0
  44:	00000617          	auipc	a2,0x0
  48:	00060613          	mv	a2,a2
  4c:	40a60633          	sub	a2,a2,a0
  50:	00000593          	li	a1,0
  54:	00000097          	auipc	ra,0x0
  58:	000080e7          	jalr	ra # 54 <_start+0x54>
  5c:	00000517          	auipc	a0,0x0
  60:	00050513          	mv	a0,a0
  64:	00000097          	auipc	ra,0x0
  68:	000080e7          	jalr	ra # 64 <_start+0x64>
  6c:	00000097          	auipc	ra,0x0
  70:	000080e7          	jalr	ra # 6c <_start+0x6c>
  74:	00000097          	auipc	ra,0x0
  78:	000080e7          	jalr	ra # 74 <_start+0x74>
  7c:	00000317          	auipc	t1,0x0
  80:	00030067          	jr	t1 # 7c <_start+0x7c>

Disassembly of section .riscv.attributes:

00000000 <.riscv.attributes>:
   0:	2341                	jal	580 <RETURN+0x51c>
   2:	0000                	unimp
   4:	7200                	flw	fs0,32(a2)
   6:	7369                	lui	t1,0xffffa
   8:	01007663          	bgeu	zero,a6,14 <.riscv.attributes+0x14>
   c:	0019                	c.nop	6
   e:	0000                	unimp
  10:	7205                	lui	tp,0xfffe1
  12:	3376                	fld	ft6,376(sp)
  14:	6932                	flw	fs2,12(sp)
  16:	7032                	flw	ft0,44(sp)
  18:	5f30                	lw	a2,120(a4)
  1a:	326d                	jal	fffff9c4 <RETURN+0xfffff960>
  1c:	3070                	fld	fa2,224(s0)
  1e:	665f 7032 0030      	0x307032665f

vx_syscalls.c.o:     file format elf32-littleriscv


Disassembly of section .text._close:

00000000 <_close>:
   0:	fff00513          	li	a0,-1
   4:	00008067          	ret

Disassembly of section .text._fstat:

00000000 <_fstat>:
   0:	fff00513          	li	a0,-1
   4:	00008067          	ret

Disassembly of section .text._isatty:

00000000 <_isatty>:
   0:	00000513          	li	a0,0
   4:	00008067          	ret

Disassembly of section .text._lseek:

00000000 <_lseek>:
   0:	00000513          	li	a0,0
   4:	00008067          	ret

Disassembly of section .text._open:

00000000 <_open>:
   0:	fff00513          	li	a0,-1
   4:	00008067          	ret

Disassembly of section .text._read:

00000000 <_read>:
   0:	fff00513          	li	a0,-1
   4:	00008067          	ret

Disassembly of section .text._sbrk:

00000000 <_sbrk>:
   0:	00100073          	ebreak
   4:	00000513          	li	a0,0
   8:	00008067          	ret

Disassembly of section .text._write:

00000000 <_write>:
   0:	ff010113          	addi	sp,sp,-16
   4:	01212023          	sw	s2,0(sp)
   8:	00112623          	sw	ra,12(sp)
   c:	00812423          	sw	s0,8(sp)
  10:	00912223          	sw	s1,4(sp)
  14:	00060913          	mv	s2,a2
  18:	02c05063          	blez	a2,38 <.L10>
  1c:	00058413          	mv	s0,a1
  20:	00c584b3          	add	s1,a1,a2

00000024 <.L11>:
  24:	00044503          	lbu	a0,0(s0)
  28:	00140413          	addi	s0,s0,1
  2c:	00000097          	auipc	ra,0x0
  30:	000080e7          	jalr	ra # 2c <.L11+0x8>
  34:	fe9418e3          	bne	s0,s1,24 <.L11>

00000038 <.L10>:
  38:	00c12083          	lw	ra,12(sp)
  3c:	00812403          	lw	s0,8(sp)
  40:	00412483          	lw	s1,4(sp)
  44:	00090513          	mv	a0,s2
  48:	00012903          	lw	s2,0(sp)
  4c:	01010113          	addi	sp,sp,16
  50:	00008067          	ret

Disassembly of section .text._kill:

00000000 <_kill>:
   0:	fff00513          	li	a0,-1
   4:	00008067          	ret

Disassembly of section .text._getpid:

00000000 <_getpid>:
   0:	f1402573          	csrr	a0,mhartid
   4:	00008067          	ret

Disassembly of section .text.__init_tls:

00000000 <__init_tls>:
   0:	ff010113          	addi	sp,sp,-16
   4:	00112623          	sw	ra,12(sp)
   8:	00812423          	sw	s0,8(sp)
   c:	fff00793          	li	a5,-1
  10:	0007806b          	0x7806b
  14:	00000617          	auipc	a2,0x0
  18:	00060613          	mv	a2,a2
  1c:	00020513          	mv	a0,tp
  20:	00000597          	auipc	a1,0x0
  24:	00058593          	mv	a1,a1
  28:	00020413          	mv	s0,tp
  2c:	00000097          	auipc	ra,0x0
  30:	000080e7          	jalr	ra # 2c <__init_tls+0x2c>
  34:	00000517          	auipc	a0,0x0
  38:	00050513          	mv	a0,a0
  3c:	00000617          	auipc	a2,0x0
  40:	00060613          	mv	a2,a2
  44:	00000593          	li	a1,0
  48:	00a40533          	add	a0,s0,a0
  4c:	00000097          	auipc	ra,0x0
  50:	000080e7          	jalr	ra # 4c <__init_tls+0x4c>
  54:	cc3027f3          	csrr	a5,0xcc3
  58:	0017b793          	seqz	a5,a5
  5c:	0007806b          	0x7806b
  60:	00c12083          	lw	ra,12(sp)
  64:	00812403          	lw	s0,8(sp)
  68:	01010113          	addi	sp,sp,16
  6c:	00008067          	ret

Disassembly of section .text.__libc_init_array:

00000000 <__libc_init_array>:
   0:	ff010113          	addi	sp,sp,-16
   4:	00812423          	sw	s0,8(sp)
   8:	01212023          	sw	s2,0(sp)
   c:	00000417          	auipc	s0,0x0
  10:	00040413          	mv	s0,s0
  14:	00000917          	auipc	s2,0x0
  18:	00090913          	mv	s2,s2
  1c:	40890933          	sub	s2,s2,s0
  20:	00112623          	sw	ra,12(sp)
  24:	00912223          	sw	s1,4(sp)
  28:	40295913          	srai	s2,s2,0x2
  2c:	00090e63          	beqz	s2,48 <.L19>
  30:	00000493          	li	s1,0

00000034 <.L20>:
  34:	00042783          	lw	a5,0(s0) # c <__libc_init_array+0xc>
  38:	00148493          	addi	s1,s1,1
  3c:	00440413          	addi	s0,s0,4
  40:	000780e7          	jalr	a5
  44:	fe9918e3          	bne	s2,s1,34 <.L20>

00000048 <.L19>:
  48:	00000417          	auipc	s0,0x0
  4c:	00040413          	mv	s0,s0
  50:	00000917          	auipc	s2,0x0
  54:	00090913          	mv	s2,s2
  58:	40890933          	sub	s2,s2,s0
  5c:	40295913          	srai	s2,s2,0x2
  60:	00090e63          	beqz	s2,7c <.L18>
  64:	00000493          	li	s1,0

00000068 <.L22>:
  68:	00042783          	lw	a5,0(s0) # 48 <.L19>
  6c:	00148493          	addi	s1,s1,1
  70:	00440413          	addi	s0,s0,4
  74:	000780e7          	jalr	a5
  78:	fe9918e3          	bne	s2,s1,68 <.L22>

0000007c <.L18>:
  7c:	00c12083          	lw	ra,12(sp)
  80:	00812403          	lw	s0,8(sp)
  84:	00412483          	lw	s1,4(sp)
  88:	00012903          	lw	s2,0(sp)
  8c:	01010113          	addi	sp,sp,16
  90:	00008067          	ret

Disassembly of section .text.__libc_fini_array:

00000000 <__libc_fini_array>:
   0:	ff010113          	addi	sp,sp,-16
   4:	00812423          	sw	s0,8(sp)
   8:	00000797          	auipc	a5,0x0
   c:	00078793          	mv	a5,a5
  10:	00000417          	auipc	s0,0x0
  14:	00040413          	mv	s0,s0
  18:	408787b3          	sub	a5,a5,s0
  1c:	00912223          	sw	s1,4(sp)
  20:	00112623          	sw	ra,12(sp)
  24:	4027d493          	srai	s1,a5,0x2
  28:	02048063          	beqz	s1,48 <.L32>
  2c:	ffc78793          	addi	a5,a5,-4 # 4 <__libc_fini_array+0x4>
  30:	00878433          	add	s0,a5,s0

00000034 <.L34>:
  34:	00042783          	lw	a5,0(s0) # 10 <__libc_fini_array+0x10>
  38:	fff48493          	addi	s1,s1,-1
  3c:	ffc40413          	addi	s0,s0,-4
  40:	000780e7          	jalr	a5
  44:	fe0498e3          	bnez	s1,34 <.L34>

00000048 <.L32>:
  48:	00c12083          	lw	ra,12(sp)
  4c:	00812403          	lw	s0,8(sp)
  50:	00412483          	lw	s1,4(sp)
  54:	01010113          	addi	sp,sp,16
  58:	00008067          	ret

Disassembly of section .comment:

00000000 <.comment>:
   0:	4700                	lw	s0,8(a4)
   2:	203a4343          	fmadd.s	ft6,fs4,ft3,ft4,rmm
   6:	4728                	lw	a0,72(a4)
   8:	554e                	lw	a0,240(sp)
   a:	2029                	jal	14 <__libc_init_array+0x14>
   c:	2e39                	jal	32a <.L18+0x2ae>
   e:	2e32                	fld	ft8,264(sp)
  10:	0030                	addi	a2,sp,8

Disassembly of section .riscv.attributes:

00000000 <.riscv.attributes>:
   0:	2541                	jal	680 <.L18+0x604>
   2:	0000                	unimp
   4:	7200                	flw	fs0,32(a2)
   6:	7369                	lui	t1,0xffffa
   8:	01007663          	bgeu	zero,a6,14 <.riscv.attributes+0x14>
   c:	0000001b          	0x1b
  10:	1004                	addi	s1,sp,32
  12:	7205                	lui	tp,0xfffe1
  14:	3376                	fld	ft6,376(sp)
  16:	6932                	flw	fs2,12(sp)
  18:	7032                	flw	ft0,44(sp)
  1a:	5f30                	lw	a2,120(a4)
  1c:	326d                	jal	fffff9c6 <.L18+0xfffff94a>
  1e:	3070                	fld	fa2,224(s0)
  20:	665f 7032 0030      	0x307032665f

vx_print.S.o:     file format elf32-littleriscv


Disassembly of section .text:

00000000 <vx_putchar>:
   0:	cc2022f3          	csrr	t0,0xcc2
   4:	03f2f293          	andi	t0,t0,63
   8:	fc000313          	li	t1,-64
   c:	006282b3          	add	t0,t0,t1
  10:	00a28023          	sb	a0,0(t0)
  14:	00008067          	ret

Disassembly of section .riscv.attributes:

00000000 <.riscv.attributes>:
   0:	2341                	jal	580 <vx_putchar+0x580>
   2:	0000                	unimp
   4:	7200                	flw	fs0,32(a2)
   6:	7369                	lui	t1,0xffffa
   8:	01007663          	bgeu	zero,a6,14 <vx_putchar+0x14>
   c:	0019                	c.nop	6
   e:	0000                	unimp
  10:	7205                	lui	tp,0xfffe1
  12:	3376                	fld	ft6,376(sp)
  14:	6932                	flw	fs2,12(sp)
  16:	7032                	flw	ft0,44(sp)
  18:	5f30                	lw	a2,120(a4)
  1a:	326d                	jal	fffff9c4 <vx_putchar+0xfffff9c4>
  1c:	3070                	fld	fa2,224(s0)
  1e:	665f 7032 0030      	0x307032665f

tinyprintf.c.o:     file format elf32-littleriscv


Disassembly of section .text._out_buffer:

00000000 <_out_buffer>:
   0:	00d67663          	bgeu	a2,a3,c <.L1>
   4:	00c585b3          	add	a1,a1,a2
   8:	00a58023          	sb	a0,0(a1)

0000000c <.L1>:
   c:	00008067          	ret

Disassembly of section .text._out_null:

00000000 <_out_null>:
   0:	00008067          	ret

Disassembly of section .text._out_rev:

00000000 <_out_rev>:
   0:	fd010113          	addi	sp,sp,-48
   4:	02912223          	sw	s1,36(sp)
   8:	03212023          	sw	s2,32(sp)
   c:	01312e23          	sw	s3,28(sp)
  10:	01412c23          	sw	s4,24(sp)
  14:	01512a23          	sw	s5,20(sp)
  18:	01612823          	sw	s6,16(sp)
  1c:	01712623          	sw	s7,12(sp)
  20:	00060b13          	mv	s6,a2
  24:	01912223          	sw	s9,4(sp)
  28:	01a12023          	sw	s10,0(sp)
  2c:	02112623          	sw	ra,44(sp)
  30:	02812423          	sw	s0,40(sp)
  34:	01812423          	sw	s8,8(sp)
  38:	0038f613          	andi	a2,a7,3
  3c:	00088c93          	mv	s9,a7
  40:	00050493          	mv	s1,a0
  44:	00058913          	mv	s2,a1
  48:	00068993          	mv	s3,a3
  4c:	00070a93          	mv	s5,a4
  50:	00078d13          	mv	s10,a5
  54:	00080b93          	mv	s7,a6
  58:	000b0a13          	mv	s4,s6
  5c:	02061863          	bnez	a2,8c <.L6>
  60:	0307f663          	bgeu	a5,a6,8c <.L6>
  64:	40f80a33          	sub	s4,a6,a5
  68:	016a0a33          	add	s4,s4,s6
  6c:	000b0413          	mv	s0,s6

00000070 <.L7>:
  70:	00040613          	mv	a2,s0
  74:	00098693          	mv	a3,s3
  78:	00140413          	addi	s0,s0,1
  7c:	00090593          	mv	a1,s2
  80:	02000513          	li	a0,32
  84:	000480e7          	jalr	s1
  88:	ff4414e3          	bne	s0,s4,70 <.L7>

0000008c <.L6>:
  8c:	020d0663          	beqz	s10,b8 <.L8>
  90:	01aa8433          	add	s0,s5,s10
  94:	008a0c33          	add	s8,s4,s0

00000098 <.L9>:
  98:	fff44503          	lbu	a0,-1(s0)
  9c:	408c0633          	sub	a2,s8,s0
  a0:	00098693          	mv	a3,s3
  a4:	fff40413          	addi	s0,s0,-1
  a8:	00090593          	mv	a1,s2
  ac:	000480e7          	jalr	s1
  b0:	fe8a94e3          	bne	s5,s0,98 <.L9>
  b4:	01aa0a33          	add	s4,s4,s10

000000b8 <.L8>:
  b8:	002cfc93          	andi	s9,s9,2
  bc:	040c8663          	beqz	s9,108 <.L5>
  c0:	416a0433          	sub	s0,s4,s6
  c4:	05747263          	bgeu	s0,s7,108 <.L5>

000000c8 <.L11>:
  c8:	01640633          	add	a2,s0,s6
  cc:	00098693          	mv	a3,s3
  d0:	00140413          	addi	s0,s0,1
  d4:	00090593          	mv	a1,s2
  d8:	02000513          	li	a0,32
  dc:	000480e7          	jalr	s1
  e0:	ff7464e3          	bltu	s0,s7,c8 <.L11>
  e4:	416a07b3          	sub	a5,s4,s6
  e8:	00178793          	addi	a5,a5,1
  ec:	00000713          	li	a4,0
  f0:	00fbe863          	bltu	s7,a5,100 <.L13>
  f4:	fffb8b93          	addi	s7,s7,-1
  f8:	016b8b33          	add	s6,s7,s6
  fc:	414b0733          	sub	a4,s6,s4

00000100 <.L13>:
 100:	001a0a13          	addi	s4,s4,1
 104:	00ea0a33          	add	s4,s4,a4

00000108 <.L5>:
 108:	02c12083          	lw	ra,44(sp)
 10c:	02812403          	lw	s0,40(sp)
 110:	02412483          	lw	s1,36(sp)
 114:	02012903          	lw	s2,32(sp)
 118:	01c12983          	lw	s3,28(sp)
 11c:	01412a83          	lw	s5,20(sp)
 120:	01012b03          	lw	s6,16(sp)
 124:	00c12b83          	lw	s7,12(sp)
 128:	00812c03          	lw	s8,8(sp)
 12c:	00412c83          	lw	s9,4(sp)
 130:	00012d03          	lw	s10,0(sp)
 134:	000a0513          	mv	a0,s4
 138:	01812a03          	lw	s4,24(sp)
 13c:	03010113          	addi	sp,sp,48
 140:	00008067          	ret

Disassembly of section .text._ntoa_format:

00000000 <_ntoa_format>:
   0:	00812383          	lw	t2,8(sp)
   4:	00012283          	lw	t0,0(sp)
   8:	00412f83          	lw	t6,4(sp)
   c:	0023f313          	andi	t1,t2,2
  10:	00080f13          	mv	t5,a6
  14:	06031463          	bnez	t1,7c <.L27>
  18:	0013f813          	andi	a6,t2,1
  1c:	100f9e63          	bnez	t6,138 <.L88>
  20:	0257f663          	bgeu	a5,t0,4c <.L33>
  24:	01f00313          	li	t1,31
  28:	22f36863          	bltu	t1,a5,258 <.L89>

0000002c <.L34>:
  2c:	03000e13          	li	t3,48
  30:	02000e93          	li	t4,32
  34:	0080006f          	j	3c <.L35>

00000038 <.L32>:
  38:	01d78a63          	beq	a5,t4,4c <.L33>

0000003c <.L35>:
  3c:	00178793          	addi	a5,a5,1
  40:	00f70333          	add	t1,a4,a5
  44:	ffc30fa3          	sb	t3,-1(t1)
  48:	fe57e8e3          	bltu	a5,t0,38 <.L32>

0000004c <.L33>:
  4c:	02080863          	beqz	a6,7c <.L27>

00000050 <.L66>:
  50:	03f7f663          	bgeu	a5,t6,7c <.L27>
  54:	01f00813          	li	a6,31
  58:	10f86263          	bltu	a6,a5,15c <.L39>
  5c:	03000e13          	li	t3,48
  60:	02000e93          	li	t4,32
  64:	0080006f          	j	6c <.L38>

00000068 <.L90>:
  68:	0fd78a63          	beq	a5,t4,15c <.L39>

0000006c <.L38>:
  6c:	00178793          	addi	a5,a5,1
  70:	00f70333          	add	t1,a4,a5
  74:	ffc30fa3          	sb	t3,-1(t1)
  78:	fff798e3          	bne	a5,t6,68 <.L90>

0000007c <.L27>:
  7c:	0103f813          	andi	a6,t2,16
  80:	08080463          	beqz	a6,108 <.L40>
  84:	4003f813          	andi	a6,t2,1024
  88:	0e081863          	bnez	a6,178 <.L44>
  8c:	14079463          	bnez	a5,1d4 <.L69>

00000090 <.L45>:
  90:	01000793          	li	a5,16
  94:	16f88863          	beq	a7,a5,204 <.L91>
  98:	00200793          	li	a5,2
  9c:	1af88663          	beq	a7,a5,248 <.L92>
  a0:	03000793          	li	a5,48
  a4:	00f70023          	sb	a5,0(a4)
  a8:	00100793          	li	a5,1
  ac:	060f0463          	beqz	t5,114 <.L60>

000000b0 <.L93>:
  b0:	00f70833          	add	a6,a4,a5
  b4:	02d00893          	li	a7,45
  b8:	01180023          	sb	a7,0(a6)
  bc:	00178793          	addi	a5,a5,1

000000c0 <.L57>:
  c0:	00038893          	mv	a7,t2
  c4:	000f8813          	mv	a6,t6
  c8:	00000317          	auipc	t1,0x0
  cc:	00030067          	jr	t1 # c8 <.L57+0x8>

000000d0 <.L95>:
  d0:	0203f813          	andi	a6,t2,32
  d4:	14081463          	bnez	a6,21c <.L56>
  d8:	02000813          	li	a6,32
  dc:	ff0782e3          	beq	a5,a6,c0 <.L57>
  e0:	00f708b3          	add	a7,a4,a5
  e4:	00178793          	addi	a5,a5,1

000000e8 <.L48>:
  e8:	07800813          	li	a6,120
  ec:	01088023          	sb	a6,0(a7)

000000f0 <.L58>:
  f0:	02000813          	li	a6,32
  f4:	fd0786e3          	beq	a5,a6,c0 <.L57>

000000f8 <.L51>:
  f8:	00f70833          	add	a6,a4,a5
  fc:	03000893          	li	a7,48
 100:	01180023          	sb	a7,0(a6)
 104:	00178793          	addi	a5,a5,1

00000108 <.L40>:
 108:	02000813          	li	a6,32
 10c:	fb078ae3          	beq	a5,a6,c0 <.L57>
 110:	fa0f10e3          	bnez	t5,b0 <.L93>

00000114 <.L60>:
 114:	0043f813          	andi	a6,t2,4
 118:	08081c63          	bnez	a6,1b0 <.L94>
 11c:	0083f813          	andi	a6,t2,8
 120:	fa0800e3          	beqz	a6,c0 <.L57>
 124:	00f70833          	add	a6,a4,a5
 128:	02000893          	li	a7,32
 12c:	01180023          	sb	a7,0(a6)
 130:	00178793          	addi	a5,a5,1
 134:	f8dff06f          	j	c0 <.L57>

00000138 <.L88>:
 138:	06080263          	beqz	a6,19c <.L29>
 13c:	0c0f1063          	bnez	t5,1fc <.L30>
 140:	00c3f313          	andi	t1,t2,12
 144:	0a031c63          	bnez	t1,1fc <.L30>

00000148 <.L31>:
 148:	f057f4e3          	bgeu	a5,t0,50 <.L66>
 14c:	01f00313          	li	t1,31
 150:	ecf37ee3          	bgeu	t1,a5,2c <.L34>
 154:	02000793          	li	a5,32
 158:	f3f7f2e3          	bgeu	a5,t6,7c <.L27>

0000015c <.L39>:
 15c:	0103f793          	andi	a5,t2,16
 160:	00079663          	bnez	a5,16c <.L63>
 164:	02000793          	li	a5,32
 168:	f59ff06f          	j	c0 <.L57>

0000016c <.L63>:
 16c:	4003f793          	andi	a5,t2,1024
 170:	06078063          	beqz	a5,1d0 <.L72>
 174:	02000793          	li	a5,32

00000178 <.L44>:
 178:	01000813          	li	a6,16
 17c:	f5088ae3          	beq	a7,a6,d0 <.L95>
 180:	00200813          	li	a6,2
 184:	f70896e3          	bne	a7,a6,f0 <.L58>
 188:	02000813          	li	a6,32
 18c:	f3078ae3          	beq	a5,a6,c0 <.L57>
 190:	00f70833          	add	a6,a4,a5
 194:	00178793          	addi	a5,a5,1
 198:	0e80006f          	j	280 <.L62>

0000019c <.L29>:
 19c:	ee57f0e3          	bgeu	a5,t0,7c <.L27>
 1a0:	01f00313          	li	t1,31
 1a4:	e8f374e3          	bgeu	t1,a5,2c <.L34>
 1a8:	02000793          	li	a5,32
 1ac:	ed1ff06f          	j	7c <.L27>

000001b0 <.L94>:
 1b0:	00f70833          	add	a6,a4,a5
 1b4:	02b00893          	li	a7,43
 1b8:	01180023          	sb	a7,0(a6)
 1bc:	00178793          	addi	a5,a5,1
 1c0:	00038893          	mv	a7,t2
 1c4:	000f8813          	mv	a6,t6
 1c8:	00000317          	auipc	t1,0x0
 1cc:	00030067          	jr	t1 # 1c8 <.L94+0x18>

000001d0 <.L72>:
 1d0:	02000793          	li	a5,32

000001d4 <.L69>:
 1d4:	00f28463          	beq	t0,a5,1dc <.L43>
 1d8:	faff90e3          	bne	t6,a5,178 <.L44>

000001dc <.L43>:
 1dc:	fff78813          	addi	a6,a5,-1
 1e0:	ea0808e3          	beqz	a6,90 <.L45>
 1e4:	01000313          	li	t1,16
 1e8:	06688e63          	beq	a7,t1,264 <.L96>
 1ec:	00200313          	li	t1,2
 1f0:	08688663          	beq	a7,t1,27c <.L97>
 1f4:	00080793          	mv	a5,a6
 1f8:	f01ff06f          	j	f8 <.L51>

000001fc <.L30>:
 1fc:	ffff8f93          	addi	t6,t6,-1
 200:	f49ff06f          	j	148 <.L31>

00000204 <.L91>:
 204:	0203f793          	andi	a5,t2,32
 208:	02079863          	bnez	a5,238 <.L50>
 20c:	07800793          	li	a5,120
 210:	00f70023          	sb	a5,0(a4)
 214:	00100793          	li	a5,1
 218:	ee1ff06f          	j	f8 <.L51>

0000021c <.L56>:
 21c:	02000813          	li	a6,32
 220:	eb0780e3          	beq	a5,a6,c0 <.L57>

00000224 <.L47>:
 224:	00f70833          	add	a6,a4,a5
 228:	05800893          	li	a7,88
 22c:	01180023          	sb	a7,0(a6)
 230:	00178793          	addi	a5,a5,1
 234:	ebdff06f          	j	f0 <.L58>

00000238 <.L50>:
 238:	05800793          	li	a5,88
 23c:	00f70023          	sb	a5,0(a4)
 240:	00100793          	li	a5,1
 244:	eb5ff06f          	j	f8 <.L51>

00000248 <.L92>:
 248:	06200793          	li	a5,98
 24c:	00f70023          	sb	a5,0(a4)
 250:	00100793          	li	a5,1
 254:	ea5ff06f          	j	f8 <.L51>

00000258 <.L89>:
 258:	02000793          	li	a5,32
 25c:	de081ae3          	bnez	a6,50 <.L66>
 260:	e1dff06f          	j	7c <.L27>

00000264 <.L96>:
 264:	0203f893          	andi	a7,t2,32
 268:	ffe78793          	addi	a5,a5,-2
 26c:	fa089ce3          	bnez	a7,224 <.L47>
 270:	00f708b3          	add	a7,a4,a5
 274:	00080793          	mv	a5,a6
 278:	e71ff06f          	j	e8 <.L48>

0000027c <.L97>:
 27c:	01070833          	add	a6,a4,a6

00000280 <.L62>:
 280:	06200893          	li	a7,98
 284:	01180023          	sb	a7,0(a6)
 288:	e69ff06f          	j	f0 <.L58>

Disassembly of section .text._out_char:

00000000 <_out_char>:
   0:	00051463          	bnez	a0,8 <.L100>
   4:	00008067          	ret

00000008 <.L100>:
   8:	00000317          	auipc	t1,0x0
   c:	00030067          	jr	t1 # 8 <.L100>

Disassembly of section .text._etoa:

00000000 <_etoa>:
   0:	f7010113          	addi	sp,sp,-144
   4:	07312e23          	sw	s3,124(sp)
   8:	07412c23          	sw	s4,120(sp)
   c:	07512a23          	sw	s5,116(sp)
  10:	07612823          	sw	s6,112(sp)
  14:	00050a13          	mv	s4,a0
  18:	00058a93          	mv	s5,a1
  1c:	00060993          	mv	s3,a2
  20:	00068b13          	mv	s6,a3
  24:	00070613          	mv	a2,a4
  28:	00078693          	mv	a3,a5
  2c:	00070513          	mv	a0,a4
  30:	00078593          	mv	a1,a5
  34:	08812423          	sw	s0,136(sp)
  38:	08912223          	sw	s1,132(sp)
  3c:	09212023          	sw	s2,128(sp)
  40:	07812423          	sw	s8,104(sp)
  44:	08112623          	sw	ra,140(sp)
  48:	07712623          	sw	s7,108(sp)
  4c:	07912223          	sw	s9,100(sp)
  50:	07a12023          	sw	s10,96(sp)
  54:	05b12e23          	sw	s11,92(sp)
  58:	00070413          	mv	s0,a4
  5c:	00078493          	mv	s1,a5
  60:	00080c13          	mv	s8,a6
  64:	00088913          	mv	s2,a7
  68:	00000097          	auipc	ra,0x0
  6c:	000080e7          	jalr	ra # 68 <_etoa+0x68>
  70:	5e051063          	bnez	a0,650 <.L102>
  74:	00000797          	auipc	a5,0x0
  78:	00078793          	mv	a5,a5
  7c:	0007a603          	lw	a2,0(a5) # 74 <_etoa+0x74>
  80:	0047a683          	lw	a3,4(a5)
  84:	00040513          	mv	a0,s0
  88:	00048593          	mv	a1,s1
  8c:	00000097          	auipc	ra,0x0
  90:	000080e7          	jalr	ra # 8c <_etoa+0x8c>
  94:	5aa04e63          	bgtz	a0,650 <.L102>
  98:	00000797          	auipc	a5,0x0
  9c:	00078793          	mv	a5,a5
  a0:	0007a603          	lw	a2,0(a5) # 98 <_etoa+0x98>
  a4:	0047a683          	lw	a3,4(a5)
  a8:	00040513          	mv	a0,s0
  ac:	00048593          	mv	a1,s1
  b0:	00000097          	auipc	ra,0x0
  b4:	000080e7          	jalr	ra # b0 <_etoa+0xb0>
  b8:	58054c63          	bltz	a0,650 <.L102>
  bc:	00040513          	mv	a0,s0
  c0:	00048593          	mv	a1,s1
  c4:	00000613          	li	a2,0
  c8:	00000693          	li	a3,0
  cc:	00000097          	auipc	ra,0x0
  d0:	000080e7          	jalr	ra # cc <_etoa+0xcc>
  d4:	80000bb7          	lui	s7,0x80000
  d8:	00812a23          	sw	s0,20(sp)
  dc:	009bcbb3          	xor	s7,s7,s1
  e0:	00054463          	bltz	a0,e8 <.L106>
  e4:	00048b93          	mv	s7,s1

000000e8 <.L106>:
  e8:	09012783          	lw	a5,144(sp)
  ec:	4007f793          	andi	a5,a5,1024
  f0:	02f12623          	sw	a5,44(sp)
  f4:	00079463          	bnez	a5,fc <.L108>
  f8:	00600c13          	li	s8,6

000000fc <.L108>:
  fc:	014bd513          	srli	a0,s7,0x14
 100:	7ff57513          	andi	a0,a0,2047
 104:	c0150513          	addi	a0,a0,-1023
 108:	00000097          	auipc	ra,0x0
 10c:	000080e7          	jalr	ra # 108 <.L108+0xc>
 110:	00000797          	auipc	a5,0x0
 114:	00078793          	mv	a5,a5
 118:	0007a603          	lw	a2,0(a5) # 110 <.L108+0x14>
 11c:	0047a683          	lw	a3,4(a5)
 120:	00000097          	auipc	ra,0x0
 124:	000080e7          	jalr	ra # 120 <.L108+0x24>
 128:	00000797          	auipc	a5,0x0
 12c:	00078793          	mv	a5,a5
 130:	0007a603          	lw	a2,0(a5) # 128 <.L108+0x2c>
 134:	0047a683          	lw	a3,4(a5)
 138:	00000097          	auipc	ra,0x0
 13c:	000080e7          	jalr	ra # 138 <.L108+0x3c>
 140:	00cb9793          	slli	a5,s7,0xc
 144:	00c7d713          	srli	a4,a5,0xc
 148:	00000797          	auipc	a5,0x0
 14c:	00078793          	mv	a5,a5
 150:	0007a603          	lw	a2,0(a5) # 148 <.L108+0x4c>
 154:	0047a683          	lw	a3,4(a5)
 158:	3ff007b7          	lui	a5,0x3ff00
 15c:	00e7e7b3          	or	a5,a5,a4
 160:	00050d13          	mv	s10,a0
 164:	00058c93          	mv	s9,a1
 168:	00040513          	mv	a0,s0
 16c:	00078593          	mv	a1,a5
 170:	00000097          	auipc	ra,0x0
 174:	000080e7          	jalr	ra # 170 <.L108+0x74>
 178:	00000797          	auipc	a5,0x0
 17c:	00078793          	mv	a5,a5
 180:	0007a603          	lw	a2,0(a5) # 178 <.L108+0x7c>
 184:	0047a683          	lw	a3,4(a5)
 188:	00000097          	auipc	ra,0x0
 18c:	000080e7          	jalr	ra # 188 <.L108+0x8c>
 190:	00050613          	mv	a2,a0
 194:	00058693          	mv	a3,a1
 198:	000d0513          	mv	a0,s10
 19c:	000c8593          	mv	a1,s9
 1a0:	00000097          	auipc	ra,0x0
 1a4:	000080e7          	jalr	ra # 1a0 <.L108+0xa4>
 1a8:	00000097          	auipc	ra,0x0
 1ac:	000080e7          	jalr	ra # 1a8 <.L108+0xac>
 1b0:	00050c93          	mv	s9,a0
 1b4:	00000097          	auipc	ra,0x0
 1b8:	000080e7          	jalr	ra # 1b4 <.L108+0xb8>
 1bc:	00000797          	auipc	a5,0x0
 1c0:	00078793          	mv	a5,a5
 1c4:	0007a603          	lw	a2,0(a5) # 1bc <.L108+0xc0>
 1c8:	0047a683          	lw	a3,4(a5)
 1cc:	00050d93          	mv	s11,a0
 1d0:	00058d13          	mv	s10,a1
 1d4:	00000097          	auipc	ra,0x0
 1d8:	000080e7          	jalr	ra # 1d4 <.L108+0xd8>
 1dc:	00000797          	auipc	a5,0x0
 1e0:	00078793          	mv	a5,a5
 1e4:	0007a603          	lw	a2,0(a5) # 1dc <.L108+0xe0>
 1e8:	0047a683          	lw	a3,4(a5)
 1ec:	00000097          	auipc	ra,0x0
 1f0:	000080e7          	jalr	ra # 1ec <.L108+0xf0>
 1f4:	00000097          	auipc	ra,0x0
 1f8:	000080e7          	jalr	ra # 1f4 <.L108+0xf8>
 1fc:	00000717          	auipc	a4,0x0
 200:	00070713          	mv	a4,a4
 204:	00072603          	lw	a2,0(a4) # 1fc <.L108+0x100>
 208:	00472683          	lw	a3,4(a4)
 20c:	00050793          	mv	a5,a0
 210:	000d0593          	mv	a1,s10
 214:	000d8513          	mv	a0,s11
 218:	00078d13          	mv	s10,a5
 21c:	00000097          	auipc	ra,0x0
 220:	000080e7          	jalr	ra # 21c <.L108+0x120>
 224:	00050d93          	mv	s11,a0
 228:	000d0513          	mv	a0,s10
 22c:	01a12c23          	sw	s10,24(sp)
 230:	00058d13          	mv	s10,a1
 234:	00000097          	auipc	ra,0x0
 238:	000080e7          	jalr	ra # 234 <.L108+0x138>
 23c:	00000797          	auipc	a5,0x0
 240:	00078793          	mv	a5,a5
 244:	0007a603          	lw	a2,0(a5) # 23c <.L108+0x140>
 248:	0047a683          	lw	a3,4(a5)
 24c:	00000097          	auipc	ra,0x0
 250:	000080e7          	jalr	ra # 24c <.L108+0x150>
 254:	00050613          	mv	a2,a0
 258:	00058693          	mv	a3,a1
 25c:	000d8513          	mv	a0,s11
 260:	000d0593          	mv	a1,s10
 264:	00000097          	auipc	ra,0x0
 268:	000080e7          	jalr	ra # 264 <.L108+0x168>
 26c:	00050613          	mv	a2,a0
 270:	02a12023          	sw	a0,32(sp)
 274:	00058693          	mv	a3,a1
 278:	00b12e23          	sw	a1,28(sp)
 27c:	00000097          	auipc	ra,0x0
 280:	000080e7          	jalr	ra # 27c <.L108+0x180>
 284:	01c12783          	lw	a5,28(sp)
 288:	02012703          	lw	a4,32(sp)
 28c:	00050d93          	mv	s11,a0
 290:	00078693          	mv	a3,a5
 294:	00058d13          	mv	s10,a1
 298:	00070613          	mv	a2,a4
 29c:	00078593          	mv	a1,a5
 2a0:	00070513          	mv	a0,a4
 2a4:	02f12223          	sw	a5,36(sp)
 2a8:	02e12423          	sw	a4,40(sp)
 2ac:	00000097          	auipc	ra,0x0
 2b0:	000080e7          	jalr	ra # 2ac <.L108+0x1b0>
 2b4:	00000697          	auipc	a3,0x0
 2b8:	00068693          	mv	a3,a3
 2bc:	0006a603          	lw	a2,0(a3) # 2b4 <.L108+0x1b8>
 2c0:	0046a683          	lw	a3,4(a3)
 2c4:	00050893          	mv	a7,a0
 2c8:	00058813          	mv	a6,a1
 2cc:	000d8513          	mv	a0,s11
 2d0:	000d0593          	mv	a1,s10
 2d4:	03112023          	sw	a7,32(sp)
 2d8:	01012e23          	sw	a6,28(sp)
 2dc:	00000097          	auipc	ra,0x0
 2e0:	000080e7          	jalr	ra # 2dc <.L108+0x1e0>
 2e4:	00000717          	auipc	a4,0x0
 2e8:	00070713          	mv	a4,a4
 2ec:	00072603          	lw	a2,0(a4) # 2e4 <.L108+0x1e8>
 2f0:	00472683          	lw	a3,4(a4)
 2f4:	00000097          	auipc	ra,0x0
 2f8:	000080e7          	jalr	ra # 2f4 <.L108+0x1f8>
 2fc:	00050613          	mv	a2,a0
 300:	00058693          	mv	a3,a1
 304:	000d8513          	mv	a0,s11
 308:	000d0593          	mv	a1,s10
 30c:	00000097          	auipc	ra,0x0
 310:	000080e7          	jalr	ra # 30c <.L108+0x210>
 314:	00000697          	auipc	a3,0x0
 318:	00068693          	mv	a3,a3
 31c:	0006a603          	lw	a2,0(a3) # 314 <.L108+0x218>
 320:	0046a683          	lw	a3,4(a3)
 324:	00000097          	auipc	ra,0x0
 328:	000080e7          	jalr	ra # 324 <.L108+0x228>
 32c:	00050613          	mv	a2,a0
 330:	00058693          	mv	a3,a1
 334:	000d8513          	mv	a0,s11
 338:	000d0593          	mv	a1,s10
 33c:	00000097          	auipc	ra,0x0
 340:	000080e7          	jalr	ra # 33c <.L108+0x240>
 344:	02812703          	lw	a4,40(sp)
 348:	02412783          	lw	a5,36(sp)
 34c:	00000697          	auipc	a3,0x0
 350:	00068693          	mv	a3,a3
 354:	00050d93          	mv	s11,a0
 358:	00058d13          	mv	s10,a1
 35c:	0006a503          	lw	a0,0(a3) # 34c <.L108+0x250>
 360:	0046a583          	lw	a1,4(a3)
 364:	00070613          	mv	a2,a4
 368:	00078693          	mv	a3,a5
 36c:	00000097          	auipc	ra,0x0
 370:	000080e7          	jalr	ra # 36c <.L108+0x270>
 374:	00050613          	mv	a2,a0
 378:	00058693          	mv	a3,a1
 37c:	000d8513          	mv	a0,s11
 380:	000d0593          	mv	a1,s10
 384:	00000097          	auipc	ra,0x0
 388:	000080e7          	jalr	ra # 384 <.L108+0x288>
 38c:	02012883          	lw	a7,32(sp)
 390:	01c12803          	lw	a6,28(sp)
 394:	00050613          	mv	a2,a0
 398:	00058693          	mv	a3,a1
 39c:	00088513          	mv	a0,a7
 3a0:	00080593          	mv	a1,a6
 3a4:	00000097          	auipc	ra,0x0
 3a8:	000080e7          	jalr	ra # 3a4 <.L108+0x2a8>
 3ac:	00000797          	auipc	a5,0x0
 3b0:	00078793          	mv	a5,a5
 3b4:	0007a603          	lw	a2,0(a5) # 3ac <.L108+0x2b0>
 3b8:	0047a683          	lw	a3,4(a5)
 3bc:	00000097          	auipc	ra,0x0
 3c0:	000080e7          	jalr	ra # 3bc <.L108+0x2c0>
 3c4:	01812783          	lw	a5,24(sp)
 3c8:	00000613          	li	a2,0
 3cc:	3ff78793          	addi	a5,a5,1023
 3d0:	01479793          	slli	a5,a5,0x14
 3d4:	00078693          	mv	a3,a5
 3d8:	00000097          	auipc	ra,0x0
 3dc:	000080e7          	jalr	ra # 3d8 <.L108+0x2dc>
 3e0:	00050613          	mv	a2,a0
 3e4:	00a12c23          	sw	a0,24(sp)
 3e8:	00058693          	mv	a3,a1
 3ec:	00058d93          	mv	s11,a1
 3f0:	00040513          	mv	a0,s0
 3f4:	000b8593          	mv	a1,s7
 3f8:	00000097          	auipc	ra,0x0
 3fc:	000080e7          	jalr	ra # 3f8 <.L108+0x2fc>
 400:	01812703          	lw	a4,24(sp)
 404:	02055863          	bgez	a0,434 <.L109>
 408:	00000797          	auipc	a5,0x0
 40c:	00078793          	mv	a5,a5
 410:	0007a603          	lw	a2,0(a5) # 408 <.L108+0x30c>
 414:	0047a683          	lw	a3,4(a5)
 418:	00070513          	mv	a0,a4
 41c:	000d8593          	mv	a1,s11
 420:	00000097          	auipc	ra,0x0
 424:	000080e7          	jalr	ra # 420 <.L108+0x324>
 428:	fffc8c93          	addi	s9,s9,-1
 42c:	00050713          	mv	a4,a0
 430:	00058d93          	mv	s11,a1

00000434 <.L109>:
 434:	09012783          	lw	a5,144(sp)
 438:	0c600693          	li	a3,198
 43c:	063c8d13          	addi	s10,s9,99
 440:	01a6bd33          	sltu	s10,a3,s10
 444:	01479693          	slli	a3,a5,0x14
 448:	004d0d13          	addi	s10,s10,4
 44c:	0606dc63          	bgez	a3,4c4 <.L112>
 450:	00000697          	auipc	a3,0x0
 454:	00068693          	mv	a3,a3
 458:	0006a603          	lw	a2,0(a3) # 450 <.L109+0x1c>
 45c:	0046a683          	lw	a3,4(a3)
 460:	00040513          	mv	a0,s0
 464:	000b8593          	mv	a1,s7
 468:	00e12c23          	sw	a4,24(sp)
 46c:	00000097          	auipc	ra,0x0
 470:	000080e7          	jalr	ra # 46c <.L109+0x38>
 474:	01812703          	lw	a4,24(sp)
 478:	26054c63          	bltz	a0,6f0 <.L113>
 47c:	00000697          	auipc	a3,0x0
 480:	00068693          	mv	a3,a3
 484:	0006a603          	lw	a2,0(a3) # 47c <.L109+0x48>
 488:	0046a683          	lw	a3,4(a3)
 48c:	00040513          	mv	a0,s0
 490:	000b8593          	mv	a1,s7
 494:	00000097          	auipc	ra,0x0
 498:	000080e7          	jalr	ra # 494 <.L109+0x60>
 49c:	01812703          	lw	a4,24(sp)
 4a0:	24055863          	bgez	a0,6f0 <.L113>
 4a4:	278cd863          	bge	s9,s8,714 <.L130>
 4a8:	419c0c33          	sub	s8,s8,s9
 4ac:	fffc0c13          	addi	s8,s8,-1

000004b0 <.L116>:
 4b0:	09012783          	lw	a5,144(sp)
 4b4:	00000d13          	li	s10,0
 4b8:	00000c93          	li	s9,0
 4bc:	4007e793          	ori	a5,a5,1024
 4c0:	08f12823          	sw	a5,144(sp)

000004c4 <.L112>:
 4c4:	00000893          	li	a7,0
 4c8:	012d7463          	bgeu	s10,s2,4d0 <.L117>
 4cc:	41a908b3          	sub	a7,s2,s10

000004d0 <.L117>:
 4d0:	09012783          	lw	a5,144(sp)
 4d4:	0027f793          	andi	a5,a5,2
 4d8:	00f12e23          	sw	a5,28(sp)
 4dc:	00078863          	beqz	a5,4ec <.L118>
 4e0:	001d3693          	seqz	a3,s10
 4e4:	40d006b3          	neg	a3,a3
 4e8:	00d8f8b3          	and	a7,a7,a3

000004ec <.L118>:
 4ec:	1c0c9c63          	bnez	s9,6c4 <.L165>

000004f0 <.L119>:
 4f0:	00040513          	mv	a0,s0
 4f4:	00048593          	mv	a1,s1
 4f8:	00000613          	li	a2,0
 4fc:	00000693          	li	a3,0
 500:	01112c23          	sw	a7,24(sp)
 504:	00000097          	auipc	ra,0x0
 508:	000080e7          	jalr	ra # 504 <.L119+0x14>
 50c:	01812883          	lw	a7,24(sp)
 510:	00055663          	bgez	a0,51c <.L120>
 514:	800007b7          	lui	a5,0x80000
 518:	0177cbb3          	xor	s7,a5,s7

0000051c <.L120>:
 51c:	09012703          	lw	a4,144(sp)
 520:	01412503          	lw	a0,20(sp)
 524:	fffff7b7          	lui	a5,0xfffff
 528:	7ff78793          	addi	a5,a5,2047 # fffff7ff <.L506+0xffffead3>
 52c:	00f777b3          	and	a5,a4,a5
 530:	00f12023          	sw	a5,0(sp)
 534:	00050713          	mv	a4,a0
 538:	000c0813          	mv	a6,s8
 53c:	000b8793          	mv	a5,s7
 540:	000b0693          	mv	a3,s6
 544:	00098613          	mv	a2,s3
 548:	000a8593          	mv	a1,s5
 54c:	000a0513          	mv	a0,s4
 550:	00000097          	auipc	ra,0x0
 554:	000080e7          	jalr	ra # 550 <.L120+0x34>
 558:	00050413          	mv	s0,a0
 55c:	120d0463          	beqz	s10,684 <.L101>
 560:	09012783          	lw	a5,144(sp)
 564:	00040613          	mv	a2,s0
 568:	000a8593          	mv	a1,s5
 56c:	01a79513          	slli	a0,a5,0x1a
 570:	41f55513          	srai	a0,a0,0x1f
 574:	fe057513          	andi	a0,a0,-32
 578:	000b0693          	mv	a3,s6
 57c:	06550513          	addi	a0,a0,101
 580:	000a00e7          	jalr	s4
 584:	41fcd793          	srai	a5,s9,0x1f
 588:	0197c733          	xor	a4,a5,s9
 58c:	40f70733          	sub	a4,a4,a5
 590:	00140613          	addi	a2,s0,1
 594:	01fcd813          	srli	a6,s9,0x1f
 598:	fffd0d13          	addi	s10,s10,-1
 59c:	00000793          	li	a5,0
 5a0:	00a00593          	li	a1,10
 5a4:	00900e13          	li	t3,9
 5a8:	02000313          	li	t1,32
 5ac:	0080006f          	j	5b4 <.L124>

000005b0 <.L166>:
 5b0:	02678463          	beq	a5,t1,5d8 <.L123>

000005b4 <.L124>:
 5b4:	02b776b3          	remu	a3,a4,a1
 5b8:	03010513          	addi	a0,sp,48
 5bc:	00178793          	addi	a5,a5,1
 5c0:	00f508b3          	add	a7,a0,a5
 5c4:	00070513          	mv	a0,a4
 5c8:	03068693          	addi	a3,a3,48
 5cc:	fed88fa3          	sb	a3,-1(a7)
 5d0:	02b75733          	divu	a4,a4,a1
 5d4:	fcae6ee3          	bltu	t3,a0,5b0 <.L166>

000005d8 <.L123>:
 5d8:	00500713          	li	a4,5
 5dc:	00e12423          	sw	a4,8(sp)
 5e0:	01a12223          	sw	s10,4(sp)
 5e4:	00012023          	sw	zero,0(sp)
 5e8:	00a00893          	li	a7,10
 5ec:	03010713          	addi	a4,sp,48
 5f0:	000b0693          	mv	a3,s6
 5f4:	000a8593          	mv	a1,s5
 5f8:	000a0513          	mv	a0,s4
 5fc:	00000097          	auipc	ra,0x0
 600:	000080e7          	jalr	ra # 5fc <.L123+0x24>
 604:	01c12783          	lw	a5,28(sp)
 608:	00050413          	mv	s0,a0
 60c:	06078c63          	beqz	a5,684 <.L101>
 610:	413504b3          	sub	s1,a0,s3
 614:	0724f863          	bgeu	s1,s2,684 <.L101>

00000618 <.L125>:
 618:	00998633          	add	a2,s3,s1
 61c:	000b0693          	mv	a3,s6
 620:	00148493          	addi	s1,s1,1
 624:	000a8593          	mv	a1,s5
 628:	02000513          	li	a0,32
 62c:	000a00e7          	jalr	s4
 630:	ff24e4e3          	bltu	s1,s2,618 <.L125>
 634:	413407b3          	sub	a5,s0,s3
 638:	00178793          	addi	a5,a5,1
 63c:	00000713          	li	a4,0
 640:	0cf97263          	bgeu	s2,a5,704 <.L167>

00000644 <.L127>:
 644:	00140413          	addi	s0,s0,1
 648:	00870433          	add	s0,a4,s0
 64c:	0380006f          	j	684 <.L101>

00000650 <.L102>:
 650:	09012683          	lw	a3,144(sp)
 654:	00040713          	mv	a4,s0
 658:	00048793          	mv	a5,s1
 65c:	00d12023          	sw	a3,0(sp)
 660:	00090893          	mv	a7,s2
 664:	000c0813          	mv	a6,s8
 668:	000b0693          	mv	a3,s6
 66c:	00098613          	mv	a2,s3
 670:	000a8593          	mv	a1,s5
 674:	000a0513          	mv	a0,s4
 678:	00000097          	auipc	ra,0x0
 67c:	000080e7          	jalr	ra # 678 <.L102+0x28>
 680:	00050413          	mv	s0,a0

00000684 <.L101>:
 684:	08c12083          	lw	ra,140(sp)
 688:	00040513          	mv	a0,s0
 68c:	08812403          	lw	s0,136(sp)
 690:	08412483          	lw	s1,132(sp)
 694:	08012903          	lw	s2,128(sp)
 698:	07c12983          	lw	s3,124(sp)
 69c:	07812a03          	lw	s4,120(sp)
 6a0:	07412a83          	lw	s5,116(sp)
 6a4:	07012b03          	lw	s6,112(sp)
 6a8:	06c12b83          	lw	s7,108(sp)
 6ac:	06812c03          	lw	s8,104(sp)
 6b0:	06412c83          	lw	s9,100(sp)
 6b4:	06012d03          	lw	s10,96(sp)
 6b8:	05c12d83          	lw	s11,92(sp)
 6bc:	09010113          	addi	sp,sp,144
 6c0:	00008067          	ret

000006c4 <.L165>:
 6c4:	000b8593          	mv	a1,s7
 6c8:	00070613          	mv	a2,a4
 6cc:	00040513          	mv	a0,s0
 6d0:	000d8693          	mv	a3,s11
 6d4:	01112c23          	sw	a7,24(sp)
 6d8:	00000097          	auipc	ra,0x0
 6dc:	000080e7          	jalr	ra # 6d8 <.L165+0x14>
 6e0:	01812883          	lw	a7,24(sp)
 6e4:	00a12a23          	sw	a0,20(sp)
 6e8:	00058b93          	mv	s7,a1
 6ec:	e05ff06f          	j	4f0 <.L119>

000006f0 <.L113>:
 6f0:	dc0c0ae3          	beqz	s8,4c4 <.L112>
 6f4:	02c12783          	lw	a5,44(sp)
 6f8:	00f036b3          	snez	a3,a5
 6fc:	40dc0c33          	sub	s8,s8,a3
 700:	dc5ff06f          	j	4c4 <.L112>

00000704 <.L167>:
 704:	fff98993          	addi	s3,s3,-1
 708:	01298933          	add	s2,s3,s2
 70c:	40890733          	sub	a4,s2,s0
 710:	f35ff06f          	j	644 <.L127>

00000714 <.L130>:
 714:	00000c13          	li	s8,0
 718:	d99ff06f          	j	4b0 <.L116>

Disassembly of section .rodata._ftoa.str1.4:

00000000 <.LC17>:
   0:	6e66                	flw	ft8,88(sp)
   2:	0069                	c.nop	26

00000004 <.LC18>:
   4:	6e66                	flw	ft8,88(sp)
   6:	2b69                	jal	5a0 <.L205+0x8>
   8:	0000                	unimp
	...

0000000c <.LC19>:
   c:	616e                	flw	ft2,216(sp)
   e:	006e                	c.slli	zero,0x1b

00000010 <.LC20>:
  10:	6e66                	flw	ft8,88(sp)
  12:	2d69                	jal	6ac <.L320>
	...

Disassembly of section .text._ftoa:

00000000 <_ftoa>:
   0:	f7010113          	addi	sp,sp,-144
   4:	07312e23          	sw	s3,124(sp)
   8:	07412c23          	sw	s4,120(sp)
   c:	07512a23          	sw	s5,116(sp)
  10:	07812423          	sw	s8,104(sp)
  14:	00050993          	mv	s3,a0
  18:	00058a13          	mv	s4,a1
  1c:	00060a93          	mv	s5,a2
  20:	00068c13          	mv	s8,a3
  24:	00070613          	mv	a2,a4
  28:	00078693          	mv	a3,a5
  2c:	00070513          	mv	a0,a4
  30:	00078593          	mv	a1,a5
  34:	08812423          	sw	s0,136(sp)
  38:	08912223          	sw	s1,132(sp)
  3c:	09212023          	sw	s2,128(sp)
  40:	07612823          	sw	s6,112(sp)
  44:	07912223          	sw	s9,100(sp)
  48:	08112623          	sw	ra,140(sp)
  4c:	07712623          	sw	s7,108(sp)
  50:	07a12023          	sw	s10,96(sp)
  54:	05b12e23          	sw	s11,92(sp)
  58:	00070493          	mv	s1,a4
  5c:	00078413          	mv	s0,a5
  60:	00080b13          	mv	s6,a6
  64:	00088913          	mv	s2,a7
  68:	00000097          	auipc	ra,0x0
  6c:	000080e7          	jalr	ra # 68 <_ftoa+0x68>
  70:	09012c83          	lw	s9,144(sp)
  74:	26051263          	bnez	a0,2d8 <.L265>
  78:	00000797          	auipc	a5,0x0
  7c:	00078793          	mv	a5,a5
  80:	0007a603          	lw	a2,0(a5) # 78 <_ftoa+0x78>
  84:	0047a683          	lw	a3,4(a5)
  88:	00048513          	mv	a0,s1
  8c:	00040593          	mv	a1,s0
  90:	00000097          	auipc	ra,0x0
  94:	000080e7          	jalr	ra # 90 <_ftoa+0x90>
  98:	30054a63          	bltz	a0,3ac <.L266>
  9c:	00000797          	auipc	a5,0x0
  a0:	00078793          	mv	a5,a5
  a4:	0007a603          	lw	a2,0(a5) # 9c <_ftoa+0x9c>
  a8:	0047a683          	lw	a3,4(a5)
  ac:	00048513          	mv	a0,s1
  b0:	00040593          	mv	a1,s0
  b4:	00000097          	auipc	ra,0x0
  b8:	000080e7          	jalr	ra # b4 <_ftoa+0xb4>
  bc:	1ea04e63          	bgtz	a0,2b8 <.L267>
  c0:	00000797          	auipc	a5,0x0
  c4:	00078793          	mv	a5,a5
  c8:	0007a603          	lw	a2,0(a5) # c0 <_ftoa+0xc0>
  cc:	0047a683          	lw	a3,4(a5)
  d0:	00048513          	mv	a0,s1
  d4:	00040593          	mv	a1,s0
  d8:	00000097          	auipc	ra,0x0
  dc:	000080e7          	jalr	ra # d8 <_ftoa+0xd8>
  e0:	28a04e63          	bgtz	a0,37c <.L178>
  e4:	00000797          	auipc	a5,0x0
  e8:	00078793          	mv	a5,a5
  ec:	0007a603          	lw	a2,0(a5) # e4 <_ftoa+0xe4>
  f0:	0047a683          	lw	a3,4(a5)
  f4:	00048513          	mv	a0,s1
  f8:	00040593          	mv	a1,s0
  fc:	00000097          	auipc	ra,0x0
 100:	000080e7          	jalr	ra # fc <_ftoa+0xfc>
 104:	26054c63          	bltz	a0,37c <.L178>
 108:	00048513          	mv	a0,s1
 10c:	00040593          	mv	a1,s0
 110:	00000613          	li	a2,0
 114:	00000693          	li	a3,0
 118:	00000097          	auipc	ra,0x0
 11c:	000080e7          	jalr	ra # 118 <_ftoa+0x118>
 120:	22054863          	bltz	a0,350 <.L268>
 124:	02012423          	sw	zero,40(sp)

00000128 <.L181>:
 128:	400cf793          	andi	a5,s9,1024
 12c:	00079463          	bnez	a5,134 <.L184>
 130:	00600b13          	li	s6,6

00000134 <.L184>:
 134:	03010693          	addi	a3,sp,48
 138:	fe0b0513          	addi	a0,s6,-32
 13c:	000b0b93          	mv	s7,s6
 140:	00900613          	li	a2,9
 144:	03000593          	li	a1,48
 148:	0140006f          	j	15c <.L185>

0000014c <.L187>:
 14c:	00b68023          	sb	a1,0(a3)
 150:	fffb8b93          	addi	s7,s7,-1 # 7fffffff <.L506+0x7ffff2d3>
 154:	00168693          	addi	a3,a3,1
 158:	38ab8463          	beq	s7,a0,4e0 <.L269>

0000015c <.L185>:
 15c:	417b0db3          	sub	s11,s6,s7
 160:	ff7666e3          	bltu	a2,s7,14c <.L187>

00000164 <.L186>:
 164:	00040593          	mv	a1,s0
 168:	00048513          	mv	a0,s1
 16c:	00000097          	auipc	ra,0x0
 170:	000080e7          	jalr	ra # 16c <.L186+0x8>
 174:	003b9613          	slli	a2,s7,0x3
 178:	00000697          	auipc	a3,0x0
 17c:	00068693          	mv	a3,a3
 180:	00c686b3          	add	a3,a3,a2
 184:	0046a803          	lw	a6,4(a3) # 17c <.L186+0x18>
 188:	0006a783          	lw	a5,0(a3)
 18c:	00050d13          	mv	s10,a0
 190:	01012a23          	sw	a6,20(sp)
 194:	00f12823          	sw	a5,16(sp)
 198:	00000097          	auipc	ra,0x0
 19c:	000080e7          	jalr	ra # 198 <.L186+0x34>
 1a0:	00050613          	mv	a2,a0
 1a4:	00058693          	mv	a3,a1
 1a8:	00048513          	mv	a0,s1
 1ac:	00040593          	mv	a1,s0
 1b0:	00000097          	auipc	ra,0x0
 1b4:	000080e7          	jalr	ra # 1b0 <.L186+0x4c>
 1b8:	01012603          	lw	a2,16(sp)
 1bc:	01412683          	lw	a3,20(sp)
 1c0:	00000097          	auipc	ra,0x0
 1c4:	000080e7          	jalr	ra # 1c0 <.L186+0x5c>
 1c8:	00b12c23          	sw	a1,24(sp)
 1cc:	02a12223          	sw	a0,36(sp)
 1d0:	00000097          	auipc	ra,0x0
 1d4:	000080e7          	jalr	ra # 1d0 <.L186+0x6c>
 1d8:	00050b13          	mv	s6,a0
 1dc:	00000097          	auipc	ra,0x0
 1e0:	000080e7          	jalr	ra # 1dc <.L186+0x78>
 1e4:	02412303          	lw	t1,36(sp)
 1e8:	01812783          	lw	a5,24(sp)
 1ec:	00050613          	mv	a2,a0
 1f0:	00058693          	mv	a3,a1
 1f4:	00030513          	mv	a0,t1
 1f8:	00078593          	mv	a1,a5
 1fc:	00000097          	auipc	ra,0x0
 200:	000080e7          	jalr	ra # 1fc <.L186+0x98>
 204:	00000717          	auipc	a4,0x0
 208:	00070713          	mv	a4,a4
 20c:	00072303          	lw	t1,0(a4) # 204 <.L186+0xa0>
 210:	00472383          	lw	t2,4(a4)
 214:	02a12223          	sw	a0,36(sp)
 218:	00030613          	mv	a2,t1
 21c:	00038693          	mv	a3,t2
 220:	00612c23          	sw	t1,24(sp)
 224:	00712e23          	sw	t2,28(sp)
 228:	02b12623          	sw	a1,44(sp)
 22c:	00000097          	auipc	ra,0x0
 230:	000080e7          	jalr	ra # 22c <.L186+0xc8>
 234:	01812303          	lw	t1,24(sp)
 238:	01c12383          	lw	t2,28(sp)
 23c:	26a05e63          	blez	a0,4b8 <.L259>
 240:	001b0b13          	addi	s6,s6,1
 244:	000b0513          	mv	a0,s6
 248:	00000097          	auipc	ra,0x0
 24c:	000080e7          	jalr	ra # 248 <.L186+0xe4>
 250:	00050613          	mv	a2,a0
 254:	00058693          	mv	a3,a1
 258:	01012503          	lw	a0,16(sp)
 25c:	01412583          	lw	a1,20(sp)
 260:	00000097          	auipc	ra,0x0
 264:	000080e7          	jalr	ra # 260 <.L186+0xfc>
 268:	00a04663          	bgtz	a0,274 <.L190>
 26c:	001d0d13          	addi	s10,s10,1
 270:	00000b13          	li	s6,0

00000274 <.L190>:
 274:	160b8863          	beqz	s7,3e4 <.L260>
 278:	02000313          	li	t1,32
 27c:	00a00613          	li	a2,10
 280:	00900e13          	li	t3,9

00000284 <.L193>:
 284:	146d8063          	beq	s11,t1,3c4 <.L264>
 288:	02cb76b3          	remu	a3,s6,a2
 28c:	001d8d93          	addi	s11,s11,1
 290:	03010793          	addi	a5,sp,48
 294:	01b78533          	add	a0,a5,s11
 298:	fffb8593          	addi	a1,s7,-1
 29c:	03068693          	addi	a3,a3,48
 2a0:	fed50fa3          	sb	a3,-1(a0)
 2a4:	02cb56b3          	divu	a3,s6,a2
 2a8:	276e7263          	bgeu	t3,s6,50c <.L270>
 2ac:	00058b93          	mv	s7,a1
 2b0:	00068b13          	mv	s6,a3
 2b4:	fd1ff06f          	j	284 <.L193>

000002b8 <.L267>:
 2b8:	004cf793          	andi	a5,s9,4
 2bc:	08079263          	bnez	a5,340 <.L271>
 2c0:	00000717          	auipc	a4,0x0
 2c4:	00070713          	mv	a4,a4
 2c8:	00300793          	li	a5,3

000002cc <.L176>:
 2cc:	000c8893          	mv	a7,s9
 2d0:	00090813          	mv	a6,s2
 2d4:	0180006f          	j	2ec <.L262>

000002d8 <.L265>:
 2d8:	000c8893          	mv	a7,s9
 2dc:	00090813          	mv	a6,s2
 2e0:	00300793          	li	a5,3
 2e4:	00000717          	auipc	a4,0x0
 2e8:	00070713          	mv	a4,a4

000002ec <.L262>:
 2ec:	000c0693          	mv	a3,s8
 2f0:	000a8613          	mv	a2,s5
 2f4:	000a0593          	mv	a1,s4
 2f8:	00098513          	mv	a0,s3
 2fc:	00000097          	auipc	ra,0x0
 300:	000080e7          	jalr	ra # 2fc <.L262+0x10>

00000304 <.L168>:
 304:	08c12083          	lw	ra,140(sp)
 308:	08812403          	lw	s0,136(sp)
 30c:	08412483          	lw	s1,132(sp)
 310:	08012903          	lw	s2,128(sp)
 314:	07c12983          	lw	s3,124(sp)
 318:	07812a03          	lw	s4,120(sp)
 31c:	07412a83          	lw	s5,116(sp)
 320:	07012b03          	lw	s6,112(sp)
 324:	06c12b83          	lw	s7,108(sp)
 328:	06812c03          	lw	s8,104(sp)
 32c:	06412c83          	lw	s9,100(sp)
 330:	06012d03          	lw	s10,96(sp)
 334:	05c12d83          	lw	s11,92(sp)
 338:	09010113          	addi	sp,sp,144
 33c:	00008067          	ret

00000340 <.L271>:
 340:	00000717          	auipc	a4,0x0
 344:	00070713          	mv	a4,a4
 348:	00400793          	li	a5,4
 34c:	f81ff06f          	j	2cc <.L176>

00000350 <.L268>:
 350:	00048613          	mv	a2,s1
 354:	00040693          	mv	a3,s0
 358:	00000513          	li	a0,0
 35c:	00000593          	li	a1,0
 360:	00000097          	auipc	ra,0x0
 364:	000080e7          	jalr	ra # 360 <.L268+0x10>
 368:	00100793          	li	a5,1
 36c:	00050493          	mv	s1,a0
 370:	00058413          	mv	s0,a1
 374:	02f12423          	sw	a5,40(sp)
 378:	db1ff06f          	j	128 <.L181>

0000037c <.L178>:
 37c:	00048713          	mv	a4,s1
 380:	00040793          	mv	a5,s0
 384:	01912023          	sw	s9,0(sp)
 388:	00090893          	mv	a7,s2
 38c:	000b0813          	mv	a6,s6
 390:	000c0693          	mv	a3,s8
 394:	000a8613          	mv	a2,s5
 398:	000a0593          	mv	a1,s4
 39c:	00098513          	mv	a0,s3
 3a0:	00000097          	auipc	ra,0x0
 3a4:	000080e7          	jalr	ra # 3a0 <.L178+0x24>
 3a8:	f5dff06f          	j	304 <.L168>

000003ac <.L266>:
 3ac:	000c8893          	mv	a7,s9
 3b0:	00090813          	mv	a6,s2
 3b4:	00400793          	li	a5,4
 3b8:	00000717          	auipc	a4,0x0
 3bc:	00070713          	mv	a4,a4
 3c0:	f2dff06f          	j	2ec <.L262>

000003c4 <.L264>:
 3c4:	003cf693          	andi	a3,s9,3
 3c8:	00100713          	li	a4,1
 3cc:	1ce68463          	beq	a3,a4,594 <.L202>

000003d0 <.L203>:
 3d0:	000c8893          	mv	a7,s9
 3d4:	00090813          	mv	a6,s2
 3d8:	000d8793          	mv	a5,s11
 3dc:	03010713          	addi	a4,sp,48
 3e0:	f0dff06f          	j	2ec <.L262>

000003e4 <.L260>:
 3e4:	000d0513          	mv	a0,s10
 3e8:	00000097          	auipc	ra,0x0
 3ec:	000080e7          	jalr	ra # 3e8 <.L260+0x4>
 3f0:	00050613          	mv	a2,a0
 3f4:	00058693          	mv	a3,a1
 3f8:	00048513          	mv	a0,s1
 3fc:	00040593          	mv	a1,s0
 400:	00000097          	auipc	ra,0x0
 404:	000080e7          	jalr	ra # 400 <.L260+0x1c>
 408:	00000797          	auipc	a5,0x0
 40c:	00078793          	mv	a5,a5
 410:	0007ab03          	lw	s6,0(a5) # 408 <.L260+0x24>
 414:	0047ab83          	lw	s7,4(a5)
 418:	00050493          	mv	s1,a0
 41c:	000b0613          	mv	a2,s6
 420:	000b8693          	mv	a3,s7
 424:	00058413          	mv	s0,a1
 428:	00000097          	auipc	ra,0x0
 42c:	000080e7          	jalr	ra # 428 <.L260+0x44>
 430:	02055063          	bgez	a0,450 <.L194>
 434:	00048513          	mv	a0,s1
 438:	00040593          	mv	a1,s0
 43c:	000b0613          	mv	a2,s6
 440:	000b8693          	mv	a3,s7
 444:	00000097          	auipc	ra,0x0
 448:	000080e7          	jalr	ra # 444 <.L260+0x60>
 44c:	00a05663          	blez	a0,458 <.L196>

00000450 <.L194>:
 450:	001d7713          	andi	a4,s10,1
 454:	00ed0d33          	add	s10,s10,a4

00000458 <.L196>:
 458:	02000593          	li	a1,32
 45c:	00a00693          	li	a3,10

00000460 <.L207>:
 460:	f6bd82e3          	beq	s11,a1,3c4 <.L264>
 464:	02dd6733          	rem	a4,s10,a3
 468:	001d8d93          	addi	s11,s11,1
 46c:	03010793          	addi	a5,sp,48
 470:	01b78633          	add	a2,a5,s11
 474:	02dd4d33          	div	s10,s10,a3
 478:	03070713          	addi	a4,a4,48 # 3e8 <.L260+0x4>
 47c:	fee60fa3          	sb	a4,-1(a2)
 480:	fe0d10e3          	bnez	s10,460 <.L207>
 484:	003cf693          	andi	a3,s9,3
 488:	00100713          	li	a4,1
 48c:	16e68263          	beq	a3,a4,5f0 <.L209>

00000490 <.L210>:
 490:	02000713          	li	a4,32
 494:	f2ed8ee3          	beq	s11,a4,3d0 <.L203>
 498:	02812783          	lw	a5,40(sp)
 49c:	04078663          	beqz	a5,4e8 <.L216>
 4a0:	05010793          	addi	a5,sp,80
 4a4:	01b78733          	add	a4,a5,s11
 4a8:	02d00693          	li	a3,45
 4ac:	fed70023          	sb	a3,-32(a4)
 4b0:	001d8d93          	addi	s11,s11,1
 4b4:	f1dff06f          	j	3d0 <.L203>

000004b8 <.L259>:
 4b8:	02412503          	lw	a0,36(sp)
 4bc:	02c12583          	lw	a1,44(sp)
 4c0:	00030613          	mv	a2,t1
 4c4:	00038693          	mv	a3,t2
 4c8:	00000097          	auipc	ra,0x0
 4cc:	000080e7          	jalr	ra # 4c8 <.L259+0x10>
 4d0:	da0542e3          	bltz	a0,274 <.L190>
 4d4:	0a0b1063          	bnez	s6,574 <.L272>
 4d8:	001b0b13          	addi	s6,s6,1
 4dc:	d99ff06f          	j	274 <.L190>

000004e0 <.L269>:
 4e0:	02000d93          	li	s11,32
 4e4:	c81ff06f          	j	164 <.L186>

000004e8 <.L216>:
 4e8:	004cf693          	andi	a3,s9,4
 4ec:	06069863          	bnez	a3,55c <.L273>
 4f0:	008cf693          	andi	a3,s9,8
 4f4:	ec068ee3          	beqz	a3,3d0 <.L203>
 4f8:	05010793          	addi	a5,sp,80
 4fc:	01b786b3          	add	a3,a5,s11
 500:	fee68023          	sb	a4,-32(a3)
 504:	001d8d93          	addi	s11,s11,1
 508:	ec9ff06f          	j	3d0 <.L203>

0000050c <.L270>:
 50c:	0c6d8c63          	beq	s11,t1,5e4 <.L198>
 510:	000d8613          	mv	a2,s11
 514:	03000893          	li	a7,48
 518:	02000513          	li	a0,32
 51c:	02058463          	beqz	a1,544 <.L200>

00000520 <.L199>:
 520:	00160613          	addi	a2,a2,1
 524:	03010793          	addi	a5,sp,48
 528:	fff64693          	not	a3,a2
 52c:	00c785b3          	add	a1,a5,a2
 530:	01b686b3          	add	a3,a3,s11
 534:	ff158fa3          	sb	a7,-1(a1)
 538:	017686b3          	add	a3,a3,s7
 53c:	04a60463          	beq	a2,a0,584 <.L274>
 540:	fe0690e3          	bnez	a3,520 <.L199>

00000544 <.L200>:
 544:	05010793          	addi	a5,sp,80
 548:	00c78733          	add	a4,a5,a2
 54c:	02e00693          	li	a3,46
 550:	00160d93          	addi	s11,a2,1
 554:	fed70023          	sb	a3,-32(a4)
 558:	f01ff06f          	j	458 <.L196>

0000055c <.L273>:
 55c:	05010793          	addi	a5,sp,80
 560:	01b78733          	add	a4,a5,s11
 564:	02b00693          	li	a3,43
 568:	fed70023          	sb	a3,-32(a4)
 56c:	001d8d93          	addi	s11,s11,1
 570:	e61ff06f          	j	3d0 <.L203>

00000574 <.L272>:
 574:	001b7693          	andi	a3,s6,1
 578:	ce068ee3          	beqz	a3,274 <.L190>
 57c:	001b0b13          	addi	s6,s6,1
 580:	cf5ff06f          	j	274 <.L190>

00000584 <.L274>:
 584:	003cf693          	andi	a3,s9,3
 588:	00100713          	li	a4,1
 58c:	02000d93          	li	s11,32
 590:	e4e690e3          	bne	a3,a4,3d0 <.L203>

00000594 <.L202>:
 594:	e2090ee3          	beqz	s2,3d0 <.L203>

00000598 <.L205>:
 598:	02812783          	lw	a5,40(sp)
 59c:	04079063          	bnez	a5,5dc <.L211>
 5a0:	00ccf713          	andi	a4,s9,12
 5a4:	02071c63          	bnez	a4,5dc <.L211>

000005a8 <.L212>:
 5a8:	ef2df4e3          	bgeu	s11,s2,490 <.L210>
 5ac:	02000713          	li	a4,32
 5b0:	03000613          	li	a2,48
 5b4:	02000693          	li	a3,32
 5b8:	00ed8e63          	beq	s11,a4,5d4 <.L215>

000005bc <.L214>:
 5bc:	001d8d93          	addi	s11,s11,1
 5c0:	03010793          	addi	a5,sp,48
 5c4:	01b78733          	add	a4,a5,s11
 5c8:	fec70fa3          	sb	a2,-1(a4)
 5cc:	ed2d82e3          	beq	s11,s2,490 <.L210>
 5d0:	fedd96e3          	bne	s11,a3,5bc <.L214>

000005d4 <.L215>:
 5d4:	02000d93          	li	s11,32
 5d8:	df9ff06f          	j	3d0 <.L203>

000005dc <.L211>:
 5dc:	fff90913          	addi	s2,s2,-1
 5e0:	fc9ff06f          	j	5a8 <.L212>

000005e4 <.L198>:
 5e4:	003cf693          	andi	a3,s9,3
 5e8:	00100713          	li	a4,1
 5ec:	dee692e3          	bne	a3,a4,3d0 <.L203>

000005f0 <.L209>:
 5f0:	ea0900e3          	beqz	s2,490 <.L210>
 5f4:	fa5ff06f          	j	598 <.L205>

Disassembly of section .text._vsnprintf:

00000000 <_vsnprintf>:
   0:	f7010113          	addi	sp,sp,-144
   4:	08912223          	sw	s1,132(sp)
   8:	09212023          	sw	s2,128(sp)
   c:	07312e23          	sw	s3,124(sp)
  10:	07412c23          	sw	s4,120(sp)
  14:	07612823          	sw	s6,112(sp)
  18:	08112623          	sw	ra,140(sp)
  1c:	08812423          	sw	s0,136(sp)
  20:	07512a23          	sw	s5,116(sp)
  24:	07712623          	sw	s7,108(sp)
  28:	07812423          	sw	s8,104(sp)
  2c:	07912223          	sw	s9,100(sp)
  30:	07a12023          	sw	s10,96(sp)
  34:	05b12e23          	sw	s11,92(sp)
  38:	00058913          	mv	s2,a1
  3c:	00060493          	mv	s1,a2
  40:	00068b13          	mv	s6,a3
  44:	00070a13          	mv	s4,a4
  48:	00000997          	auipc	s3,0x0
  4c:	00098993          	mv	s3,s3
  50:	00058463          	beqz	a1,58 <.L276>
  54:	00050993          	mv	s3,a0

00000058 <.L276>:
  58:	000b4503          	lbu	a0,0(s6)
  5c:	00000b93          	li	s7,0
  60:	78050663          	beqz	a0,7ec <.L479>
  64:	000017b7          	lui	a5,0x1
  68:	80078793          	addi	a5,a5,-2048 # 800 <.L315+0xc>
  6c:	00f12c23          	sw	a5,24(sp)
  70:	000107b7          	lui	a5,0x10
  74:	fff78793          	addi	a5,a5,-1 # ffff <.L506+0xf2d3>
  78:	00000417          	auipc	s0,0x0
  7c:	00040413          	mv	s0,s0
  80:	00f12e23          	sw	a5,28(sp)
  84:	0200006f          	j	a4 <.L405>

00000088 <.L305>:
  88:	000b8613          	mv	a2,s7
  8c:	00048693          	mv	a3,s1
  90:	00090593          	mv	a1,s2
  94:	001b8b93          	addi	s7,s7,1
  98:	000980e7          	jalr	s3 # 48 <_vsnprintf+0x48>

0000009c <.L278>:
  9c:	000b4503          	lbu	a0,0(s6)
  a0:	1a050463          	beqz	a0,248 <.L490>

000000a4 <.L405>:
  a4:	02500793          	li	a5,37
  a8:	001b0b13          	addi	s6,s6,1
  ac:	fcf51ee3          	bne	a0,a5,88 <.L305>
  b0:	00000693          	li	a3,0
  b4:	01000593          	li	a1,16

000000b8 <.L277>:
  b8:	000b4503          	lbu	a0,0(s6)
  bc:	001b0713          	addi	a4,s6,1
  c0:	00070613          	mv	a2,a4
  c4:	fe050793          	addi	a5,a0,-32
  c8:	0ff7f793          	andi	a5,a5,255
  cc:	00f5ec63          	bltu	a1,a5,e4 <.L279>
  d0:	00279793          	slli	a5,a5,0x2
  d4:	008787b3          	add	a5,a5,s0
  d8:	0007a783          	lw	a5,0(a5)
  dc:	008787b3          	add	a5,a5,s0
  e0:	00078067          	jr	a5

000000e4 <.L279>:
  e4:	fd050793          	addi	a5,a0,-48
  e8:	0ff7f793          	andi	a5,a5,255
  ec:	00900593          	li	a1,9
  f0:	0cf5fe63          	bgeu	a1,a5,1cc <.L491>
  f4:	02a00793          	li	a5,42
  f8:	1ef50463          	beq	a0,a5,2e0 <.L492>
  fc:	000b0613          	mv	a2,s6
 100:	00000a93          	li	s5,0
 104:	00070b13          	mv	s6,a4

00000108 <.L289>:
 108:	02e00793          	li	a5,46
 10c:	00000d93          	li	s11,0
 110:	10f50663          	beq	a0,a5,21c <.L493>

00000114 <.L292>:
 114:	f9850793          	addi	a5,a0,-104
 118:	0ff7f793          	andi	a5,a5,255
 11c:	01200713          	li	a4,18
 120:	06f76863          	bltu	a4,a5,190 <.L297>
 124:	00000717          	auipc	a4,0x0
 128:	00070713          	mv	a4,a4
 12c:	00279793          	slli	a5,a5,0x2
 130:	00e787b3          	add	a5,a5,a4
 134:	0007a783          	lw	a5,0(a5)
 138:	00e787b3          	add	a5,a5,a4
 13c:	00078067          	jr	a5

00000140 <.L280>:
 140:	0016e693          	ori	a3,a3,1
 144:	00070b13          	mv	s6,a4
 148:	f71ff06f          	j	b8 <.L277>

0000014c <.L282>:
 14c:	0026e693          	ori	a3,a3,2
 150:	00070b13          	mv	s6,a4
 154:	f65ff06f          	j	b8 <.L277>

00000158 <.L283>:
 158:	0046e693          	ori	a3,a3,4
 15c:	00070b13          	mv	s6,a4
 160:	f59ff06f          	j	b8 <.L277>

00000164 <.L284>:
 164:	0106e693          	ori	a3,a3,16
 168:	00070b13          	mv	s6,a4
 16c:	f4dff06f          	j	b8 <.L277>

00000170 <.L285>:
 170:	0086e693          	ori	a3,a3,8
 174:	00070b13          	mv	s6,a4
 178:	f41ff06f          	j	b8 <.L277>

0000017c <.L302>:
 17c:	00164503          	lbu	a0,1(a2)
 180:	06800793          	li	a5,104
 184:	64f50c63          	beq	a0,a5,7dc <.L304>
 188:	0806e693          	ori	a3,a3,128
 18c:	001b0b13          	addi	s6,s6,1

00000190 <.L297>:
 190:	fdb50793          	addi	a5,a0,-37
 194:	0ff7f793          	andi	a5,a5,255
 198:	05300713          	li	a4,83
 19c:	eef766e3          	bltu	a4,a5,88 <.L305>
 1a0:	00000717          	auipc	a4,0x0
 1a4:	00070713          	mv	a4,a4
 1a8:	00279793          	slli	a5,a5,0x2
 1ac:	00e787b3          	add	a5,a5,a4
 1b0:	0007a783          	lw	a5,0(a5)
 1b4:	00e787b3          	add	a5,a5,a4
 1b8:	00078067          	jr	a5

000001bc <.L298>:
 1bc:	00164503          	lbu	a0,1(a2)

000001c0 <.L484>:
 1c0:	1006e693          	ori	a3,a3,256
 1c4:	001b0b13          	addi	s6,s6,1
 1c8:	fc9ff06f          	j	190 <.L297>

000001cc <.L491>:
 1cc:	00000a93          	li	s5,0
 1d0:	00900613          	li	a2,9
 1d4:	0080006f          	j	1dc <.L286>

000001d8 <.L494>:
 1d8:	00170713          	addi	a4,a4,1 # 1a1 <.L297+0x11>

000001dc <.L286>:
 1dc:	002a9793          	slli	a5,s5,0x2
 1e0:	015788b3          	add	a7,a5,s5
 1e4:	00189893          	slli	a7,a7,0x1
 1e8:	00a888b3          	add	a7,a7,a0
 1ec:	00074503          	lbu	a0,0(a4)
 1f0:	000b0593          	mv	a1,s6
 1f4:	fd088a93          	addi	s5,a7,-48
 1f8:	fd050793          	addi	a5,a0,-48
 1fc:	0ff7f793          	andi	a5,a5,255
 200:	00070b13          	mv	s6,a4
 204:	fcf67ae3          	bgeu	a2,a5,1d8 <.L494>
 208:	02e00793          	li	a5,46
 20c:	00070613          	mv	a2,a4
 210:	00258b13          	addi	s6,a1,2
 214:	00000d93          	li	s11,0
 218:	eef51ee3          	bne	a0,a5,114 <.L292>

0000021c <.L493>:
 21c:	00164503          	lbu	a0,1(a2)
 220:	00900713          	li	a4,9
 224:	4006e693          	ori	a3,a3,1024
 228:	fd050793          	addi	a5,a0,-48
 22c:	0ff7f793          	andi	a5,a5,255
 230:	06f77c63          	bgeu	a4,a5,2a8 <.L294>
 234:	02a00793          	li	a5,42
 238:	3af50a63          	beq	a0,a5,5ec <.L295>
 23c:	000b0613          	mv	a2,s6
 240:	001b0b13          	addi	s6,s6,1
 244:	ed1ff06f          	j	114 <.L292>

00000248 <.L490>:
 248:	000b8413          	mv	s0,s7

0000024c <.L406>:
 24c:	009be463          	bltu	s7,s1,254 <.L407>
 250:	fff48b93          	addi	s7,s1,-1

00000254 <.L407>:
 254:	00048693          	mv	a3,s1
 258:	000b8613          	mv	a2,s7
 25c:	00090593          	mv	a1,s2
 260:	00000513          	li	a0,0
 264:	000980e7          	jalr	s3
 268:	08c12083          	lw	ra,140(sp)
 26c:	00040513          	mv	a0,s0
 270:	08812403          	lw	s0,136(sp)
 274:	08412483          	lw	s1,132(sp)
 278:	08012903          	lw	s2,128(sp)
 27c:	07c12983          	lw	s3,124(sp)
 280:	07812a03          	lw	s4,120(sp)
 284:	07412a83          	lw	s5,116(sp)
 288:	07012b03          	lw	s6,112(sp)
 28c:	06c12b83          	lw	s7,108(sp)
 290:	06812c03          	lw	s8,104(sp)
 294:	06412c83          	lw	s9,100(sp)
 298:	06012d03          	lw	s10,96(sp)
 29c:	05c12d83          	lw	s11,92(sp)
 2a0:	09010113          	addi	sp,sp,144
 2a4:	00008067          	ret

000002a8 <.L294>:
 2a8:	002d9c93          	slli	s9,s11,0x2
 2ac:	01bc8cb3          	add	s9,s9,s11
 2b0:	000b0593          	mv	a1,s6
 2b4:	001c9c93          	slli	s9,s9,0x1
 2b8:	001b0b13          	addi	s6,s6,1
 2bc:	00ac8cb3          	add	s9,s9,a0
 2c0:	000b4503          	lbu	a0,0(s6)
 2c4:	fd0c8d93          	addi	s11,s9,-48
 2c8:	fd050793          	addi	a5,a0,-48
 2cc:	0ff7f793          	andi	a5,a5,255
 2d0:	fcf77ce3          	bgeu	a4,a5,2a8 <.L294>
 2d4:	000b0613          	mv	a2,s6
 2d8:	00258b13          	addi	s6,a1,2
 2dc:	e39ff06f          	j	114 <.L292>

000002e0 <.L492>:
 2e0:	000a2a83          	lw	s5,0(s4)
 2e4:	004a0a13          	addi	s4,s4,4
 2e8:	000ac863          	bltz	s5,2f8 <.L495>
 2ec:	001b4503          	lbu	a0,1(s6)
 2f0:	002b0b13          	addi	s6,s6,2
 2f4:	e15ff06f          	j	108 <.L289>

000002f8 <.L495>:
 2f8:	001b4503          	lbu	a0,1(s6)
 2fc:	0026e693          	ori	a3,a3,2
 300:	41500ab3          	neg	s5,s5
 304:	002b0b13          	addi	s6,s6,2
 308:	e01ff06f          	j	108 <.L289>

0000030c <.L306>:
 30c:	07800793          	li	a5,120
 310:	6af50263          	beq	a0,a5,9b4 <.L314>
 314:	05800793          	li	a5,88
 318:	4cf50e63          	beq	a0,a5,7f4 <.L315>
 31c:	06f00793          	li	a5,111
 320:	70f50c63          	beq	a0,a5,a38 <.L421>
 324:	06200793          	li	a5,98
 328:	36f50463          	beq	a0,a5,690 <.L422>
 32c:	06900713          	li	a4,105
 330:	fef6fc13          	andi	s8,a3,-17
 334:	4006f793          	andi	a5,a3,1024
 338:	00a00d13          	li	s10,10
 33c:	34e51e63          	bne	a0,a4,698 <.L416>
 340:	2006f693          	andi	a3,a3,512
 344:	36078463          	beqz	a5,6ac <.L320>

00000348 <.L411>:
 348:	ffec7c13          	andi	s8,s8,-2

0000034c <.L319>:
 34c:	06900793          	li	a5,105
 350:	200c7693          	andi	a3,s8,512
 354:	34f50c63          	beq	a0,a5,6ac <.L320>
 358:	06400793          	li	a5,100
 35c:	34f50863          	beq	a0,a5,6ac <.L320>

00000360 <.L321>:
 360:	6e069263          	bnez	a3,a44 <.L496>
 364:	100c7793          	andi	a5,s8,256
 368:	004a0c93          	addi	s9,s4,4
 36c:	0e0796e3          	bnez	a5,c58 <.L497>
 370:	040c7693          	andi	a3,s8,64
 374:	66069463          	bnez	a3,9dc <.L498>
 378:	080c7693          	andi	a3,s8,128
 37c:	000a2603          	lw	a2,0(s4)
 380:	00068663          	beqz	a3,38c <.L368>
 384:	01c12703          	lw	a4,28(sp)
 388:	00e67633          	and	a2,a2,a4

0000038c <.L368>:
 38c:	7c061463          	bnez	a2,b54 <.L370>
 390:	400c7693          	andi	a3,s8,1024
 394:	fefc7c13          	andi	s8,s8,-17
 398:	7a068e63          	beqz	a3,b54 <.L370>
 39c:	00000793          	li	a5,0

000003a0 <.L371>:
 3a0:	000b8613          	mv	a2,s7
 3a4:	01812423          	sw	s8,8(sp)
 3a8:	01512223          	sw	s5,4(sp)
 3ac:	01b12023          	sw	s11,0(sp)
 3b0:	000d0893          	mv	a7,s10
 3b4:	00000813          	li	a6,0

000003b8 <.L488>:
 3b8:	03010713          	addi	a4,sp,48
 3bc:	00048693          	mv	a3,s1
 3c0:	00090593          	mv	a1,s2
 3c4:	00098513          	mv	a0,s3
 3c8:	00000097          	auipc	ra,0x0
 3cc:	000080e7          	jalr	ra # 3c8 <.L488+0x10>
 3d0:	00050b93          	mv	s7,a0
 3d4:	000c8a13          	mv	s4,s9
 3d8:	cc5ff06f          	j	9c <.L278>

000003dc <.L300>:
 3dc:	00164503          	lbu	a0,1(a2)
 3e0:	06c00793          	li	a5,108
 3e4:	dcf51ee3          	bne	a0,a5,1c0 <.L484>
 3e8:	00264503          	lbu	a0,2(a2)
 3ec:	3006e693          	ori	a3,a3,768
 3f0:	00360b13          	addi	s6,a2,3
 3f4:	d9dff06f          	j	190 <.L297>

000003f8 <.L301>:
 3f8:	00164503          	lbu	a0,1(a2)
 3fc:	2006e693          	ori	a3,a3,512
 400:	001b0b13          	addi	s6,s6,1
 404:	d8dff06f          	j	190 <.L297>

00000408 <.L311>:
 408:	04600793          	li	a5,70
 40c:	26f50e63          	beq	a0,a5,688 <.L499>

00000410 <.L377>:
 410:	007a0a13          	addi	s4,s4,7
 414:	ff8a7a13          	andi	s4,s4,-8
 418:	000a2703          	lw	a4,0(s4)
 41c:	004a2783          	lw	a5,4(s4)
 420:	000b8613          	mv	a2,s7
 424:	00d12023          	sw	a3,0(sp)
 428:	000a8893          	mv	a7,s5
 42c:	000d8813          	mv	a6,s11
 430:	00048693          	mv	a3,s1
 434:	00090593          	mv	a1,s2
 438:	00098513          	mv	a0,s3
 43c:	00000097          	auipc	ra,0x0
 440:	000080e7          	jalr	ra # 43c <.L377+0x2c>
 444:	008a0a13          	addi	s4,s4,8
 448:	00050b93          	mv	s7,a0
 44c:	c51ff06f          	j	9c <.L278>

00000450 <.L308>:
 450:	000a2d03          	lw	s10,0(s4)
 454:	004a0793          	addi	a5,s4,4
 458:	02f12023          	sw	a5,32(sp)
 45c:	000d4503          	lbu	a0,0(s10)
 460:	1c0d9463          	bnez	s11,628 <.L384>
 464:	ffe00793          	li	a5,-2
 468:	0a0502e3          	beqz	a0,d0c <.L437>

0000046c <.L385>:
 46c:	00178a13          	addi	s4,a5,1
 470:	014d0633          	add	a2,s10,s4
 474:	000d0793          	mv	a5,s10
 478:	0080006f          	j	480 <.L388>

0000047c <.L387>:
 47c:	00c78a63          	beq	a5,a2,490 <.L386>

00000480 <.L388>:
 480:	0017c703          	lbu	a4,1(a5)
 484:	00178793          	addi	a5,a5,1
 488:	fe071ae3          	bnez	a4,47c <.L387>
 48c:	41a78a33          	sub	s4,a5,s10

00000490 <.L386>:
 490:	4006fc93          	andi	s9,a3,1024
 494:	000c8663          	beqz	s9,4a0 <.L389>
 498:	014df463          	bgeu	s11,s4,4a0 <.L389>
 49c:	000d8a13          	mv	s4,s11

000004a0 <.L389>:
 4a0:	0026fc13          	andi	s8,a3,2
 4a4:	360c0c63          	beqz	s8,81c <.L500>
 4a8:	2e050263          	beqz	a0,78c <.L486>

000004ac <.L413>:
 4ac:	2a0c8863          	beqz	s9,75c <.L439>
 4b0:	017d8db3          	add	s11,s11,s7
 4b4:	000b8613          	mv	a2,s7

000004b8 <.L396>:
 4b8:	34cd8c63          	beq	s11,a2,810 <.L440>
 4bc:	00048693          	mv	a3,s1
 4c0:	00090593          	mv	a1,s2
 4c4:	00160c93          	addi	s9,a2,1
 4c8:	000980e7          	jalr	s3
 4cc:	417c87b3          	sub	a5,s9,s7
 4d0:	00fd07b3          	add	a5,s10,a5
 4d4:	0007c503          	lbu	a0,0(a5)
 4d8:	2a050663          	beqz	a0,784 <.L485>
 4dc:	000c8613          	mv	a2,s9
 4e0:	fd9ff06f          	j	4b8 <.L396>

000004e4 <.L313>:
 4e4:	000b8613          	mv	a2,s7
 4e8:	00048693          	mv	a3,s1
 4ec:	00090593          	mv	a1,s2
 4f0:	02500513          	li	a0,37
 4f4:	001b8b93          	addi	s7,s7,1
 4f8:	000980e7          	jalr	s3
 4fc:	ba1ff06f          	j	9c <.L278>

00000500 <.L309>:
 500:	000a2703          	lw	a4,0(s4)
 504:	0216ef13          	ori	t5,a3,33
 508:	004a0a13          	addi	s4,s4,4
 50c:	10070263          	beqz	a4,610 <.L501>

00000510 <.L400>:
 510:	00000793          	li	a5,0
 514:	00900893          	li	a7,9
 518:	00f00513          	li	a0,15
 51c:	02000e93          	li	t4,32
 520:	00c0006f          	j	52c <.L404>

00000524 <.L502>:
 524:	03d78863          	beq	a5,t4,554 <.L401>
 528:	00068713          	mv	a4,a3

0000052c <.L404>:
 52c:	00f77593          	andi	a1,a4,15
 530:	03758613          	addi	a2,a1,55
 534:	00b8e463          	bltu	a7,a1,53c <.L403>
 538:	03058613          	addi	a2,a1,48

0000053c <.L403>:
 53c:	00178793          	addi	a5,a5,1
 540:	03010693          	addi	a3,sp,48
 544:	00f686b3          	add	a3,a3,a5
 548:	fec68fa3          	sb	a2,-1(a3)
 54c:	00475693          	srli	a3,a4,0x4
 550:	fce56ae3          	bltu	a0,a4,524 <.L502>

00000554 <.L401>:
 554:	00800713          	li	a4,8
 558:	000b8613          	mv	a2,s7
 55c:	01e12423          	sw	t5,8(sp)
 560:	00e12223          	sw	a4,4(sp)
 564:	01b12023          	sw	s11,0(sp)
 568:	01000893          	li	a7,16
 56c:	00000813          	li	a6,0

00000570 <.L487>:
 570:	03010713          	addi	a4,sp,48
 574:	00048693          	mv	a3,s1
 578:	00090593          	mv	a1,s2
 57c:	00098513          	mv	a0,s3
 580:	00000097          	auipc	ra,0x0
 584:	000080e7          	jalr	ra # 580 <.L487+0x10>
 588:	00050b93          	mv	s7,a0
 58c:	b11ff06f          	j	9c <.L278>

00000590 <.L312>:
 590:	001b8d93          	addi	s11,s7,1
 594:	0026f693          	andi	a3,a3,2
 598:	004a0c93          	addi	s9,s4,4
 59c:	000d8d13          	mv	s10,s11
 5a0:	2a068e63          	beqz	a3,85c <.L503>
 5a4:	000a4503          	lbu	a0,0(s4)
 5a8:	000b8613          	mv	a2,s7
 5ac:	00048693          	mv	a3,s1
 5b0:	00090593          	mv	a1,s2
 5b4:	000980e7          	jalr	s3
 5b8:	00100793          	li	a5,1
 5bc:	017a8bb3          	add	s7,s5,s7
 5c0:	4557fa63          	bgeu	a5,s5,a14 <.L504>

000005c4 <.L383>:
 5c4:	000d0613          	mv	a2,s10
 5c8:	00048693          	mv	a3,s1
 5cc:	001d0d13          	addi	s10,s10,1
 5d0:	00090593          	mv	a1,s2
 5d4:	02000513          	li	a0,32
 5d8:	000980e7          	jalr	s3
 5dc:	ff7d14e3          	bne	s10,s7,5c4 <.L383>
 5e0:	000d0b93          	mv	s7,s10
 5e4:	000c8a13          	mv	s4,s9
 5e8:	ab5ff06f          	j	9c <.L278>

000005ec <.L295>:
 5ec:	000a2d83          	lw	s11,0(s4)
 5f0:	00264503          	lbu	a0,2(a2)
 5f4:	00360b13          	addi	s6,a2,3
 5f8:	fffdc793          	not	a5,s11
 5fc:	41f7d793          	srai	a5,a5,0x1f
 600:	00fdfdb3          	and	s11,s11,a5
 604:	004a0a13          	addi	s4,s4,4
 608:	00260613          	addi	a2,a2,2
 60c:	b09ff06f          	j	114 <.L292>

00000610 <.L501>:
 610:	fef6ff13          	andi	t5,a3,-17
 614:	4006f693          	andi	a3,a3,1024
 618:	021f6f13          	ori	t5,t5,33
 61c:	00000793          	li	a5,0
 620:	ee0688e3          	beqz	a3,510 <.L400>
 624:	f31ff06f          	j	554 <.L401>

00000628 <.L384>:
 628:	6e050263          	beqz	a0,d0c <.L437>
 62c:	fffd8793          	addi	a5,s11,-1
 630:	e3dff06f          	j	46c <.L385>

00000634 <.L310>:
 634:	0df57793          	andi	a5,a0,223
 638:	04700713          	li	a4,71
 63c:	18e78263          	beq	a5,a4,7c0 <.L505>
 640:	04500793          	li	a5,69
 644:	18f50863          	beq	a0,a5,7d4 <.L410>

00000648 <.L379>:
 648:	007a0a13          	addi	s4,s4,7
 64c:	ff8a7a13          	andi	s4,s4,-8
 650:	000a2703          	lw	a4,0(s4)
 654:	004a2783          	lw	a5,4(s4)
 658:	000b8613          	mv	a2,s7
 65c:	00d12023          	sw	a3,0(sp)
 660:	000a8893          	mv	a7,s5
 664:	000d8813          	mv	a6,s11
 668:	00048693          	mv	a3,s1
 66c:	00090593          	mv	a1,s2
 670:	00098513          	mv	a0,s3
 674:	00000097          	auipc	ra,0x0
 678:	000080e7          	jalr	ra # 674 <.L379+0x2c>
 67c:	008a0a13          	addi	s4,s4,8
 680:	00050b93          	mv	s7,a0
 684:	a19ff06f          	j	9c <.L278>

00000688 <.L499>:
 688:	0206e693          	ori	a3,a3,32
 68c:	d85ff06f          	j	410 <.L377>

00000690 <.L422>:
 690:	00200d13          	li	s10,2
 694:	00068c13          	mv	s8,a3

00000698 <.L416>:
 698:	06400693          	li	a3,100
 69c:	400c7793          	andi	a5,s8,1024
 6a0:	68d51663          	bne	a0,a3,d2c <.L506>
 6a4:	200c7693          	andi	a3,s8,512
 6a8:	ca0790e3          	bnez	a5,348 <.L411>

000006ac <.L320>:
 6ac:	20069263          	bnez	a3,8b0 <.L507>
 6b0:	100c7793          	andi	a5,s8,256
 6b4:	004a0c93          	addi	s9,s4,4
 6b8:	4e079e63          	bnez	a5,bb4 <.L508>
 6bc:	040c7693          	andi	a3,s8,64
 6c0:	30069863          	bnez	a3,9d0 <.L509>
 6c4:	080c7693          	andi	a3,s8,128
 6c8:	62068863          	beqz	a3,cf8 <.L342>
 6cc:	000a1683          	lh	a3,0(s4)
 6d0:	40f6d593          	srai	a1,a3,0xf
 6d4:	00b6c633          	xor	a2,a3,a1
 6d8:	40b60633          	sub	a2,a2,a1
 6dc:	01061613          	slli	a2,a2,0x10
 6e0:	01065613          	srli	a2,a2,0x10

000006e4 <.L341>:
 6e4:	01f6d813          	srli	a6,a3,0x1f
 6e8:	00069a63          	bnez	a3,6fc <.L343>
 6ec:	fefc7693          	andi	a3,s8,-17
 6f0:	400c7593          	andi	a1,s8,1024
 6f4:	00068c13          	mv	s8,a3
 6f8:	32059463          	bnez	a1,a20 <.L344>

000006fc <.L343>:
 6fc:	020c7593          	andi	a1,s8,32
 700:	06100693          	li	a3,97
 704:	00058463          	beqz	a1,70c <.L346>
 708:	04100693          	li	a3,65

0000070c <.L346>:
 70c:	00900513          	li	a0,9
 710:	ff668f93          	addi	t6,a3,-10
 714:	02000e93          	li	t4,32
 718:	02c0006f          	j	744 <.L349>

0000071c <.L510>:
 71c:	03068693          	addi	a3,a3,48
 720:	0ff6f693          	andi	a3,a3,255

00000724 <.L348>:
 724:	00178793          	addi	a5,a5,1
 728:	03010713          	addi	a4,sp,48
 72c:	00f705b3          	add	a1,a4,a5
 730:	fed58fa3          	sb	a3,-1(a1)
 734:	03a656b3          	divu	a3,a2,s10
 738:	2fa66463          	bltu	a2,s10,a20 <.L344>
 73c:	2fd78263          	beq	a5,t4,a20 <.L344>
 740:	00068613          	mv	a2,a3

00000744 <.L349>:
 744:	03a675b3          	remu	a1,a2,s10
 748:	0ff5f693          	andi	a3,a1,255
 74c:	fcb578e3          	bgeu	a0,a1,71c <.L510>
 750:	01f686b3          	add	a3,a3,t6
 754:	0ff6f693          	andi	a3,a3,255
 758:	fcdff06f          	j	724 <.L348>

0000075c <.L439>:
 75c:	000b8c93          	mv	s9,s7

00000760 <.L394>:
 760:	000c8613          	mv	a2,s9
 764:	00048693          	mv	a3,s1
 768:	00090593          	mv	a1,s2
 76c:	000980e7          	jalr	s3
 770:	001c8c93          	addi	s9,s9,1
 774:	417c87b3          	sub	a5,s9,s7
 778:	00fd07b3          	add	a5,s10,a5
 77c:	0007c503          	lbu	a0,0(a5)
 780:	fe0510e3          	bnez	a0,760 <.L394>

00000784 <.L485>:
 784:	000c8b93          	mv	s7,s9
 788:	020c0863          	beqz	s8,7b8 <.L397>

0000078c <.L486>:
 78c:	000b8c13          	mv	s8,s7
 790:	035a7463          	bgeu	s4,s5,7b8 <.L397>
 794:	017a8533          	add	a0,s5,s7
 798:	41450bb3          	sub	s7,a0,s4

0000079c <.L398>:
 79c:	000c0613          	mv	a2,s8
 7a0:	00048693          	mv	a3,s1
 7a4:	001c0c13          	addi	s8,s8,1
 7a8:	00090593          	mv	a1,s2
 7ac:	02000513          	li	a0,32
 7b0:	000980e7          	jalr	s3
 7b4:	ff7c14e3          	bne	s8,s7,79c <.L398>

000007b8 <.L397>:
 7b8:	02012a03          	lw	s4,32(sp)
 7bc:	8e1ff06f          	j	9c <.L278>

000007c0 <.L505>:
 7c0:	01812703          	lw	a4,24(sp)
 7c4:	0fd57513          	andi	a0,a0,253
 7c8:	04500793          	li	a5,69
 7cc:	00e6e6b3          	or	a3,a3,a4
 7d0:	e6f51ce3          	bne	a0,a5,648 <.L379>

000007d4 <.L410>:
 7d4:	0206e693          	ori	a3,a3,32
 7d8:	e71ff06f          	j	648 <.L379>

000007dc <.L304>:
 7dc:	00264503          	lbu	a0,2(a2)
 7e0:	0c06e693          	ori	a3,a3,192
 7e4:	00360b13          	addi	s6,a2,3
 7e8:	9a9ff06f          	j	190 <.L297>

000007ec <.L479>:
 7ec:	00000413          	li	s0,0
 7f0:	a5dff06f          	j	24c <.L406>

000007f4 <.L315>:
 7f4:	ff36fc13          	andi	s8,a3,-13
 7f8:	4006f793          	andi	a5,a3,1024
 7fc:	020c6c13          	ori	s8,s8,32
 800:	1c079463          	bnez	a5,9c8 <.L511>
 804:	2006f693          	andi	a3,a3,512
 808:	01000d13          	li	s10,16
 80c:	b55ff06f          	j	360 <.L321>

00000810 <.L440>:
 810:	000d8b93          	mv	s7,s11
 814:	fa0c02e3          	beqz	s8,7b8 <.L397>
 818:	f75ff06f          	j	78c <.L486>

0000081c <.L500>:
 81c:	001a0793          	addi	a5,s4,1
 820:	515a7063          	bgeu	s4,s5,d20 <.L438>
 824:	017a87b3          	add	a5,s5,s7
 828:	41478a33          	sub	s4,a5,s4

0000082c <.L393>:
 82c:	000b8613          	mv	a2,s7
 830:	00048693          	mv	a3,s1
 834:	001b8b93          	addi	s7,s7,1
 838:	00090593          	mv	a1,s2
 83c:	02000513          	li	a0,32
 840:	000980e7          	jalr	s3
 844:	ff4b94e3          	bne	s7,s4,82c <.L393>
 848:	000d4503          	lbu	a0,0(s10)
 84c:	001a8a13          	addi	s4,s5,1
 850:	c4051ee3          	bnez	a0,4ac <.L413>

00000854 <.L521>:
 854:	02012a03          	lw	s4,32(sp)
 858:	845ff06f          	j	9c <.L278>

0000085c <.L503>:
 85c:	00100793          	li	a5,1
 860:	4b57fa63          	bgeu	a5,s5,d14 <.L435>
 864:	fffb8c13          	addi	s8,s7,-1
 868:	015c0c33          	add	s8,s8,s5
 86c:	0080006f          	j	874 <.L382>

00000870 <.L512>:
 870:	001d8d93          	addi	s11,s11,1

00000874 <.L382>:
 874:	000b8613          	mv	a2,s7
 878:	00048693          	mv	a3,s1
 87c:	00090593          	mv	a1,s2
 880:	02000513          	li	a0,32
 884:	000d8b93          	mv	s7,s11
 888:	000980e7          	jalr	s3
 88c:	ff8d92e3          	bne	s11,s8,870 <.L512>
 890:	001d8b93          	addi	s7,s11,1

00000894 <.L381>:
 894:	000a4503          	lbu	a0,0(s4)
 898:	00048693          	mv	a3,s1
 89c:	000c0613          	mv	a2,s8
 8a0:	00090593          	mv	a1,s2
 8a4:	000980e7          	jalr	s3
 8a8:	000c8a13          	mv	s4,s9
 8ac:	ff0ff06f          	j	9c <.L278>

000008b0 <.L507>:
 8b0:	007a0a13          	addi	s4,s4,7
 8b4:	ff8a7a13          	andi	s4,s4,-8
 8b8:	004a2603          	lw	a2,4(s4)
 8bc:	000a2683          	lw	a3,0(s4)
 8c0:	008a0a13          	addi	s4,s4,8
 8c4:	41f65793          	srai	a5,a2,0x1f
 8c8:	00d7cfb3          	xor	t6,a5,a3
 8cc:	00c7cf33          	xor	t5,a5,a2
 8d0:	40ff85b3          	sub	a1,t6,a5
 8d4:	40ff0f33          	sub	t5,t5,a5
 8d8:	01f65793          	srli	a5,a2,0x1f
 8dc:	00bfb533          	sltu	a0,t6,a1
 8e0:	00c6e6b3          	or	a3,a3,a2
 8e4:	02f12623          	sw	a5,44(sp)
 8e8:	00058f93          	mv	t6,a1
 8ec:	40af0f33          	sub	t5,t5,a0
 8f0:	0e068a63          	beqz	a3,9e4 <.L513>

000008f4 <.L323>:
 8f4:	020c7693          	andi	a3,s8,32
 8f8:	06100793          	li	a5,97
 8fc:	00068463          	beqz	a3,904 <.L326>
 900:	04100793          	li	a5,65

00000904 <.L326>:
 904:	0ff7f693          	andi	a3,a5,255
 908:	ff668793          	addi	a5,a3,-10
 90c:	00000c93          	li	s9,0
 910:	02f12423          	sw	a5,40(sp)
 914:	05c0006f          	j	970 <.L330>

00000918 <.L515>:
 918:	03050513          	addi	a0,a0,48
 91c:	0ff57e93          	andi	t4,a0,255

00000920 <.L328>:
 920:	03010793          	addi	a5,sp,48
 924:	001c8c93          	addi	s9,s9,1
 928:	019782b3          	add	t0,a5,s9
 92c:	000f8513          	mv	a0,t6
 930:	000f0593          	mv	a1,t5
 934:	000d0613          	mv	a2,s10
 938:	00000693          	li	a3,0
 93c:	ffd28fa3          	sb	t4,-1(t0)
 940:	03f12223          	sw	t6,36(sp)
 944:	03e12023          	sw	t5,32(sp)
 948:	00000097          	auipc	ra,0x0
 94c:	000080e7          	jalr	ra # 948 <.L328+0x28>
 950:	02012f03          	lw	t5,32(sp)
 954:	00000793          	li	a5,0
 958:	02412f83          	lw	t6,36(sp)
 95c:	39e78a63          	beq	a5,t5,cf0 <.L514>

00000960 <.L448>:
 960:	02000793          	li	a5,32
 964:	08fc8863          	beq	s9,a5,9f4 <.L324>
 968:	00050f93          	mv	t6,a0
 96c:	00058f13          	mv	t5,a1

00000970 <.L330>:
 970:	000f8513          	mv	a0,t6
 974:	000f0593          	mv	a1,t5
 978:	000d0613          	mv	a2,s10
 97c:	00000693          	li	a3,0
 980:	03f12223          	sw	t6,36(sp)
 984:	03e12023          	sw	t5,32(sp)
 988:	00000097          	auipc	ra,0x0
 98c:	000080e7          	jalr	ra # 988 <.L330+0x18>
 990:	0ff57513          	andi	a0,a0,255
 994:	00900793          	li	a5,9
 998:	02012f03          	lw	t5,32(sp)
 99c:	02412f83          	lw	t6,36(sp)
 9a0:	f6a7fce3          	bgeu	a5,a0,918 <.L515>
 9a4:	02812783          	lw	a5,40(sp)
 9a8:	00f50533          	add	a0,a0,a5
 9ac:	0ff57e93          	andi	t4,a0,255
 9b0:	f71ff06f          	j	920 <.L328>

000009b4 <.L314>:
 9b4:	4006f793          	andi	a5,a3,1024
 9b8:	01000d13          	li	s10,16

000009bc <.L415>:
 9bc:	ff36fc13          	andi	s8,a3,-13
 9c0:	980786e3          	beqz	a5,34c <.L319>
 9c4:	985ff06f          	j	348 <.L411>

000009c8 <.L511>:
 9c8:	01000d13          	li	s10,16
 9cc:	97dff06f          	j	348 <.L411>

000009d0 <.L509>:
 9d0:	000a4683          	lbu	a3,0(s4)
 9d4:	00068613          	mv	a2,a3
 9d8:	d0dff06f          	j	6e4 <.L341>

000009dc <.L498>:
 9dc:	000a4603          	lbu	a2,0(s4)
 9e0:	9adff06f          	j	38c <.L368>

000009e4 <.L513>:
 9e4:	400c7793          	andi	a5,s8,1024
 9e8:	00000c93          	li	s9,0
 9ec:	fefc7c13          	andi	s8,s8,-17
 9f0:	f00782e3          	beqz	a5,8f4 <.L323>

000009f4 <.L324>:
 9f4:	02c12803          	lw	a6,44(sp)
 9f8:	000b8613          	mv	a2,s7
 9fc:	01812423          	sw	s8,8(sp)
 a00:	01512223          	sw	s5,4(sp)
 a04:	01b12023          	sw	s11,0(sp)
 a08:	000d0893          	mv	a7,s10
 a0c:	000c8793          	mv	a5,s9
 a10:	b61ff06f          	j	570 <.L487>

00000a14 <.L504>:
 a14:	000d8b93          	mv	s7,s11
 a18:	000c8a13          	mv	s4,s9
 a1c:	e80ff06f          	j	9c <.L278>

00000a20 <.L344>:
 a20:	000b8613          	mv	a2,s7
 a24:	01812423          	sw	s8,8(sp)
 a28:	01512223          	sw	s5,4(sp)
 a2c:	01b12023          	sw	s11,0(sp)
 a30:	000d0893          	mv	a7,s10
 a34:	985ff06f          	j	3b8 <.L488>

00000a38 <.L421>:
 a38:	00800d13          	li	s10,8
 a3c:	00068c13          	mv	s8,a3
 a40:	c59ff06f          	j	698 <.L416>

00000a44 <.L496>:
 a44:	007a0a13          	addi	s4,s4,7
 a48:	ff8a7a13          	andi	s4,s4,-8
 a4c:	000a2f83          	lw	t6,0(s4)
 a50:	004a2f03          	lw	t5,4(s4)
 a54:	008a0a13          	addi	s4,s4,8
 a58:	01efe7b3          	or	a5,t6,t5
 a5c:	00079a63          	bnez	a5,a70 <.L351>
 a60:	400c7793          	andi	a5,s8,1024
 a64:	00000c93          	li	s9,0
 a68:	fefc7c13          	andi	s8,s8,-17
 a6c:	0c079463          	bnez	a5,b34 <.L352>

00000a70 <.L351>:
 a70:	020c7693          	andi	a3,s8,32
 a74:	06100793          	li	a5,97
 a78:	00068463          	beqz	a3,a80 <.L354>
 a7c:	04100793          	li	a5,65

00000a80 <.L354>:
 a80:	0ff7f693          	andi	a3,a5,255
 a84:	ff668793          	addi	a5,a3,-10
 a88:	00000c93          	li	s9,0
 a8c:	02f12423          	sw	a5,40(sp)
 a90:	05c0006f          	j	aec <.L358>

00000a94 <.L517>:
 a94:	03050513          	addi	a0,a0,48
 a98:	0ff57e93          	andi	t4,a0,255

00000a9c <.L356>:
 a9c:	03010793          	addi	a5,sp,48
 aa0:	001c8c93          	addi	s9,s9,1
 aa4:	019782b3          	add	t0,a5,s9
 aa8:	000f8513          	mv	a0,t6
 aac:	000f0593          	mv	a1,t5
 ab0:	000d0613          	mv	a2,s10
 ab4:	00000693          	li	a3,0
 ab8:	ffd28fa3          	sb	t4,-1(t0)
 abc:	03f12223          	sw	t6,36(sp)
 ac0:	03e12023          	sw	t5,32(sp)
 ac4:	00000097          	auipc	ra,0x0
 ac8:	000080e7          	jalr	ra # ac4 <.L356+0x28>
 acc:	02012f03          	lw	t5,32(sp)
 ad0:	00000793          	li	a5,0
 ad4:	02412f83          	lw	t6,36(sp)
 ad8:	05e78c63          	beq	a5,t5,b30 <.L516>

00000adc <.L449>:
 adc:	02000793          	li	a5,32
 ae0:	04fc8a63          	beq	s9,a5,b34 <.L352>
 ae4:	00050f93          	mv	t6,a0
 ae8:	00058f13          	mv	t5,a1

00000aec <.L358>:
 aec:	000f8513          	mv	a0,t6
 af0:	000f0593          	mv	a1,t5
 af4:	000d0613          	mv	a2,s10
 af8:	00000693          	li	a3,0
 afc:	03f12223          	sw	t6,36(sp)
 b00:	03e12023          	sw	t5,32(sp)
 b04:	00000097          	auipc	ra,0x0
 b08:	000080e7          	jalr	ra # b04 <.L358+0x18>
 b0c:	0ff57513          	andi	a0,a0,255
 b10:	00900793          	li	a5,9
 b14:	02012f03          	lw	t5,32(sp)
 b18:	02412f83          	lw	t6,36(sp)
 b1c:	f6a7fce3          	bgeu	a5,a0,a94 <.L517>
 b20:	02812783          	lw	a5,40(sp)
 b24:	00f50533          	add	a0,a0,a5
 b28:	0ff57e93          	andi	t4,a0,255
 b2c:	f71ff06f          	j	a9c <.L356>

00000b30 <.L516>:
 b30:	fbaff6e3          	bgeu	t6,s10,adc <.L449>

00000b34 <.L352>:
 b34:	000b8613          	mv	a2,s7
 b38:	01812423          	sw	s8,8(sp)
 b3c:	01512223          	sw	s5,4(sp)
 b40:	01b12023          	sw	s11,0(sp)
 b44:	000d0893          	mv	a7,s10
 b48:	00000813          	li	a6,0
 b4c:	000c8793          	mv	a5,s9
 b50:	a21ff06f          	j	570 <.L487>

00000b54 <.L370>:
 b54:	020c7593          	andi	a1,s8,32
 b58:	06100693          	li	a3,97
 b5c:	00058463          	beqz	a1,b64 <.L373>
 b60:	04100693          	li	a3,65

00000b64 <.L373>:
 b64:	00900513          	li	a0,9
 b68:	ff668f13          	addi	t5,a3,-10
 b6c:	02000e93          	li	t4,32
 b70:	02c0006f          	j	b9c <.L376>

00000b74 <.L518>:
 b74:	03068693          	addi	a3,a3,48
 b78:	0ff6f693          	andi	a3,a3,255

00000b7c <.L375>:
 b7c:	00178793          	addi	a5,a5,1
 b80:	03010713          	addi	a4,sp,48
 b84:	00f705b3          	add	a1,a4,a5
 b88:	fed58fa3          	sb	a3,-1(a1)
 b8c:	03a656b3          	divu	a3,a2,s10
 b90:	81a668e3          	bltu	a2,s10,3a0 <.L371>
 b94:	81d786e3          	beq	a5,t4,3a0 <.L371>
 b98:	00068613          	mv	a2,a3

00000b9c <.L376>:
 b9c:	03a675b3          	remu	a1,a2,s10
 ba0:	0ff5f693          	andi	a3,a1,255
 ba4:	fcb578e3          	bgeu	a0,a1,b74 <.L518>
 ba8:	01e686b3          	add	a3,a3,t5
 bac:	0ff6f693          	andi	a3,a3,255
 bb0:	fcdff06f          	j	b7c <.L375>

00000bb4 <.L508>:
 bb4:	000a2783          	lw	a5,0(s4)
 bb8:	41f7d593          	srai	a1,a5,0x1f
 bbc:	00f5c633          	xor	a2,a1,a5
 bc0:	40b60633          	sub	a2,a2,a1
 bc4:	01f7d813          	srli	a6,a5,0x1f
 bc8:	00079a63          	bnez	a5,bdc <.L333>
 bcc:	fefc7793          	andi	a5,s8,-17
 bd0:	400c7593          	andi	a1,s8,1024
 bd4:	00078c13          	mv	s8,a5
 bd8:	06059263          	bnez	a1,c3c <.L334>

00000bdc <.L333>:
 bdc:	020c7593          	andi	a1,s8,32
 be0:	06100793          	li	a5,97
 be4:	00058463          	beqz	a1,bec <.L336>
 be8:	04100793          	li	a5,65

00000bec <.L336>:
 bec:	00900513          	li	a0,9
 bf0:	ff678f93          	addi	t6,a5,-10
 bf4:	02000e93          	li	t4,32
 bf8:	02c0006f          	j	c24 <.L339>

00000bfc <.L519>:
 bfc:	03078793          	addi	a5,a5,48
 c00:	0ff7f793          	andi	a5,a5,255

00000c04 <.L338>:
 c04:	00168693          	addi	a3,a3,1
 c08:	03010713          	addi	a4,sp,48
 c0c:	00d705b3          	add	a1,a4,a3
 c10:	fef58fa3          	sb	a5,-1(a1)
 c14:	03a657b3          	divu	a5,a2,s10
 c18:	03a66263          	bltu	a2,s10,c3c <.L334>
 c1c:	03d68063          	beq	a3,t4,c3c <.L334>
 c20:	00078613          	mv	a2,a5

00000c24 <.L339>:
 c24:	03a675b3          	remu	a1,a2,s10
 c28:	0ff5f793          	andi	a5,a1,255
 c2c:	fcb578e3          	bgeu	a0,a1,bfc <.L519>
 c30:	01f787b3          	add	a5,a5,t6
 c34:	0ff7f793          	andi	a5,a5,255
 c38:	fcdff06f          	j	c04 <.L338>

00000c3c <.L334>:
 c3c:	000b8613          	mv	a2,s7
 c40:	01812423          	sw	s8,8(sp)
 c44:	01512223          	sw	s5,4(sp)
 c48:	01b12023          	sw	s11,0(sp)
 c4c:	000d0893          	mv	a7,s10
 c50:	00068793          	mv	a5,a3
 c54:	f64ff06f          	j	3b8 <.L488>

00000c58 <.L497>:
 c58:	000a2603          	lw	a2,0(s4)
 c5c:	00061a63          	bnez	a2,c70 <.L360>
 c60:	fefc7793          	andi	a5,s8,-17
 c64:	400c7593          	andi	a1,s8,1024
 c68:	00078c13          	mv	s8,a5
 c6c:	06059263          	bnez	a1,cd0 <.L361>

00000c70 <.L360>:
 c70:	020c7593          	andi	a1,s8,32
 c74:	06100793          	li	a5,97
 c78:	00058463          	beqz	a1,c80 <.L363>
 c7c:	04100793          	li	a5,65

00000c80 <.L363>:
 c80:	00900e93          	li	t4,9
 c84:	ff678f13          	addi	t5,a5,-10
 c88:	02000513          	li	a0,32
 c8c:	02c0006f          	j	cb8 <.L366>

00000c90 <.L520>:
 c90:	03078793          	addi	a5,a5,48
 c94:	0ff7f793          	andi	a5,a5,255

00000c98 <.L365>:
 c98:	00168693          	addi	a3,a3,1
 c9c:	03010713          	addi	a4,sp,48
 ca0:	00d705b3          	add	a1,a4,a3
 ca4:	fef58fa3          	sb	a5,-1(a1)
 ca8:	03a657b3          	divu	a5,a2,s10
 cac:	03a66263          	bltu	a2,s10,cd0 <.L361>
 cb0:	02a68063          	beq	a3,a0,cd0 <.L361>
 cb4:	00078613          	mv	a2,a5

00000cb8 <.L366>:
 cb8:	03a675b3          	remu	a1,a2,s10
 cbc:	0ff5f793          	andi	a5,a1,255
 cc0:	fcbef8e3          	bgeu	t4,a1,c90 <.L520>
 cc4:	01e787b3          	add	a5,a5,t5
 cc8:	0ff7f793          	andi	a5,a5,255
 ccc:	fcdff06f          	j	c98 <.L365>

00000cd0 <.L361>:
 cd0:	000b8613          	mv	a2,s7
 cd4:	01812423          	sw	s8,8(sp)
 cd8:	01512223          	sw	s5,4(sp)
 cdc:	01b12023          	sw	s11,0(sp)
 ce0:	000d0893          	mv	a7,s10
 ce4:	00000813          	li	a6,0
 ce8:	00068793          	mv	a5,a3
 cec:	eccff06f          	j	3b8 <.L488>

00000cf0 <.L514>:
 cf0:	c7aff8e3          	bgeu	t6,s10,960 <.L448>
 cf4:	d01ff06f          	j	9f4 <.L324>

00000cf8 <.L342>:
 cf8:	000a2683          	lw	a3,0(s4)
 cfc:	41f6d593          	srai	a1,a3,0x1f
 d00:	00d5c633          	xor	a2,a1,a3
 d04:	40b60633          	sub	a2,a2,a1
 d08:	9ddff06f          	j	6e4 <.L341>

00000d0c <.L437>:
 d0c:	00000a13          	li	s4,0
 d10:	f80ff06f          	j	490 <.L386>

00000d14 <.L435>:
 d14:	000b8c13          	mv	s8,s7
 d18:	000d8b93          	mv	s7,s11
 d1c:	b79ff06f          	j	894 <.L381>

00000d20 <.L438>:
 d20:	00078a13          	mv	s4,a5
 d24:	f8051463          	bnez	a0,4ac <.L413>
 d28:	b2dff06f          	j	854 <.L521>

00000d2c <.L506>:
 d2c:	000c0693          	mv	a3,s8
 d30:	c8dff06f          	j	9bc <.L415>

Disassembly of section .rodata._vsnprintf:

00000000 <.L281>:
	...

00000044 <.L299>:
	...

00000090 <.L307>:
	...

Disassembly of section .text.tiny_printf:

00000000 <tiny_printf>:
   0:	fc010113          	addi	sp,sp,-64
   4:	02410313          	addi	t1,sp,36
   8:	02b12223          	sw	a1,36(sp)
   c:	02c12423          	sw	a2,40(sp)
  10:	02d12623          	sw	a3,44(sp)
  14:	02e12823          	sw	a4,48(sp)
  18:	00050693          	mv	a3,a0
  1c:	00810593          	addi	a1,sp,8
  20:	00030713          	mv	a4,t1
  24:	fff00613          	li	a2,-1
  28:	00000517          	auipc	a0,0x0
  2c:	00050513          	mv	a0,a0
  30:	00112e23          	sw	ra,28(sp)
  34:	02f12a23          	sw	a5,52(sp)
  38:	03012c23          	sw	a6,56(sp)
  3c:	03112e23          	sw	a7,60(sp)
  40:	00612623          	sw	t1,12(sp)
  44:	00000097          	auipc	ra,0x0
  48:	000080e7          	jalr	ra # 44 <tiny_printf+0x44>
  4c:	01c12083          	lw	ra,28(sp)
  50:	04010113          	addi	sp,sp,64
  54:	00008067          	ret

Disassembly of section .text.tiny_sprintf:

00000000 <tiny_sprintf>:
   0:	fc010113          	addi	sp,sp,-64
   4:	02810313          	addi	t1,sp,40
   8:	02c12423          	sw	a2,40(sp)
   c:	02d12623          	sw	a3,44(sp)
  10:	02e12823          	sw	a4,48(sp)
  14:	00058693          	mv	a3,a1
  18:	00030713          	mv	a4,t1
  1c:	00050593          	mv	a1,a0
  20:	fff00613          	li	a2,-1
  24:	00000517          	auipc	a0,0x0
  28:	00050513          	mv	a0,a0
  2c:	00112e23          	sw	ra,28(sp)
  30:	02f12a23          	sw	a5,52(sp)
  34:	03012c23          	sw	a6,56(sp)
  38:	03112e23          	sw	a7,60(sp)
  3c:	00612623          	sw	t1,12(sp)
  40:	00000097          	auipc	ra,0x0
  44:	000080e7          	jalr	ra # 40 <tiny_sprintf+0x40>
  48:	01c12083          	lw	ra,28(sp)
  4c:	04010113          	addi	sp,sp,64
  50:	00008067          	ret

Disassembly of section .text.tiny_snprintf:

00000000 <tiny_snprintf>:
   0:	fc010113          	addi	sp,sp,-64
   4:	02c10313          	addi	t1,sp,44
   8:	02d12623          	sw	a3,44(sp)
   c:	02e12823          	sw	a4,48(sp)
  10:	00060693          	mv	a3,a2
  14:	00030713          	mv	a4,t1
  18:	00058613          	mv	a2,a1
  1c:	00050593          	mv	a1,a0
  20:	00000517          	auipc	a0,0x0
  24:	00050513          	mv	a0,a0
  28:	00112e23          	sw	ra,28(sp)
  2c:	02f12a23          	sw	a5,52(sp)
  30:	03012c23          	sw	a6,56(sp)
  34:	03112e23          	sw	a7,60(sp)
  38:	00612623          	sw	t1,12(sp)
  3c:	00000097          	auipc	ra,0x0
  40:	000080e7          	jalr	ra # 3c <tiny_snprintf+0x3c>
  44:	01c12083          	lw	ra,28(sp)
  48:	04010113          	addi	sp,sp,64
  4c:	00008067          	ret

Disassembly of section .text.tiny_vprintf:

00000000 <tiny_vprintf>:
   0:	fe010113          	addi	sp,sp,-32
   4:	00050693          	mv	a3,a0
   8:	00058713          	mv	a4,a1
   c:	fff00613          	li	a2,-1
  10:	00c10593          	addi	a1,sp,12
  14:	00000517          	auipc	a0,0x0
  18:	00050513          	mv	a0,a0
  1c:	00112e23          	sw	ra,28(sp)
  20:	00000097          	auipc	ra,0x0
  24:	000080e7          	jalr	ra # 20 <tiny_vprintf+0x20>
  28:	01c12083          	lw	ra,28(sp)
  2c:	02010113          	addi	sp,sp,32
  30:	00008067          	ret

Disassembly of section .text.tiny_vsnprintf:

00000000 <tiny_vsnprintf>:
   0:	00068713          	mv	a4,a3
   4:	00060693          	mv	a3,a2
   8:	00058613          	mv	a2,a1
   c:	00050593          	mv	a1,a0
  10:	00000517          	auipc	a0,0x0
  14:	00050513          	mv	a0,a0
  18:	00000317          	auipc	t1,0x0
  1c:	00030067          	jr	t1 # 18 <tiny_vsnprintf+0x18>

Disassembly of section .srodata.cst8:

00000000 <.LC0>:
   0:	ffff                	0xffff
   2:	ffff                	0xffff
   4:	ffff                	0xffff
   6:	          	jal	t6,ffff8004 <.L506+0xffff72d8>

00000008 <.LC1>:
   8:	ffff                	0xffff
   a:	ffff                	0xffff
   c:	ffff                	0xffff
   e:	          	jal	t6,bffac <.L506+0xbf280>

00000010 <.LC2>:
  10:	509f79fb          	0x509f79fb
  14:	3fd34413          	xori	s0,t1,1021

00000018 <.LC3>:
  18:	8b60c8b3          	0x8b60c8b3
  1c:	8a28                	0x8a28
  1e:	3fc6                	fld	ft11,112(sp)

00000020 <.LC4>:
  20:	0000                	unimp
  22:	0000                	unimp
  24:	0000                	unimp
  26:	3ff8                	fld	fa4,248(a5)

00000028 <.LC5>:
  28:	4361                	li	t1,24
  2a:	87a7636f          	jal	t1,fff760a4 <.L506+0xfff75378>
  2e:	3fd2                	fld	ft11,304(sp)

00000030 <.LC6>:
  30:	a371                	j	5bc <.L214>
  32:	0979                	addi	s2,s2,30
  34:	400a934f          	fnmadd.s	ft6,fs5,ft0,fs0,rtz

00000038 <.LC7>:
  38:	0000                	unimp
  3a:	0000                	unimp
  3c:	0000                	unimp
  3e:	3fe0                	fld	fs0,248(a5)

00000040 <.LC8>:
  40:	5516                	lw	a0,100(sp)
  42:	bbb5                	j	fffffdbe <.L506+0xfffff092>
  44:	6bb1                	lui	s7,0xc
  46:	4002                	0x4002

00000048 <.LC9>:
  48:	fefa39ef          	jal	s3,fffa4036 <.L506+0xfffa330a>
  4c:	2e42                	fld	ft8,16(sp)
  4e:	3fe6                	fld	ft11,120(sp)

00000050 <.LC10>:
  50:	0000                	unimp
  52:	0000                	unimp
  54:	0000                	unimp
  56:	402c                	lw	a1,64(s0)

00000058 <.LC11>:
  58:	0000                	unimp
  5a:	0000                	unimp
  5c:	0000                	unimp
  5e:	4024                	lw	s1,64(s0)

00000060 <.LC12>:
  60:	0000                	unimp
  62:	0000                	unimp
  64:	0000                	unimp
  66:	4018                	lw	a4,0(s0)

00000068 <.LC13>:
  68:	0000                	unimp
  6a:	0000                	unimp
  6c:	0000                	unimp
  6e:	4000                	lw	s0,0(s0)

00000070 <.LC14>:
  70:	0000                	unimp
  72:	0000                	unimp
  74:	0000                	unimp
  76:	3ff0                	fld	fa2,248(a5)

00000078 <.LC15>:
  78:	432d                	li	t1,11
  7a:	eb1c                	fsw	fa5,16(a4)
  7c:	36e2                	fld	fa3,56(sp)
  7e:	3f1a                	fld	ft10,416(sp)

00000080 <.LC16>:
  80:	0000                	unimp
  82:	0000                	unimp
  84:	8480                	0x8480
  86:	412e                	lw	sp,200(sp)

00000088 <.LC21>:
  88:	0000                	unimp
  8a:	0000                	unimp
  8c:	cd65                	beqz	a0,184 <.L302+0x8>
  8e:	41cd                	li	gp,19

00000090 <.LC22>:
  90:	0000                	unimp
  92:	0000                	unimp
  94:	cd65                	beqz	a0,18c <.L302+0x10>
  96:	c1cd                	beqz	a1,138 <.L88>

Disassembly of section .rodata.pow10.1699:

00000000 <pow10.1699>:
   0:	0000                	unimp
   2:	0000                	unimp
   4:	0000                	unimp
   6:	3ff0                	fld	fa2,248(a5)
   8:	0000                	unimp
   a:	0000                	unimp
   c:	0000                	unimp
   e:	4024                	lw	s1,64(s0)
  10:	0000                	unimp
  12:	0000                	unimp
  14:	0000                	unimp
  16:	4059                	c.li	zero,22
  18:	0000                	unimp
  1a:	0000                	unimp
  1c:	4000                	lw	s0,0(s0)
  1e:	0000408f          	0x408f
  22:	0000                	unimp
  24:	8800                	0x8800
  26:	000040c3          	fmadd.s	ft1,ft0,ft0,ft0,rmm
  2a:	0000                	unimp
  2c:	6a00                	flw	fs0,16(a2)
  2e:	40f8                	lw	a4,68(s1)
  30:	0000                	unimp
  32:	0000                	unimp
  34:	8480                	0x8480
  36:	412e                	lw	sp,200(sp)
  38:	0000                	unimp
  3a:	0000                	unimp
  3c:	12d0                	addi	a2,sp,356
  3e:	00004163          	bltz	zero,40 <pow10.1699+0x40>
  42:	0000                	unimp
  44:	d784                	sw	s1,40(a5)
  46:	00004197          	auipc	gp,0x4
  4a:	0000                	unimp
  4c:	cd65                	beqz	a0,144 <.L280+0x4>
  4e:	41cd                	li	gp,19

Disassembly of section .comment:

00000000 <.comment>:
   0:	4700                	lw	s0,8(a4)
   2:	203a4343          	fmadd.s	ft6,fs4,ft3,ft4,rmm
   6:	4728                	lw	a0,72(a4)
   8:	554e                	lw	a0,240(sp)
   a:	2029                	jal	14 <.LC2+0x4>
   c:	2e39                	jal	32a <.L306+0x1e>
   e:	2e32                	fld	ft8,264(sp)
  10:	0030                	addi	a2,sp,8

Disassembly of section .riscv.attributes:

00000000 <.riscv.attributes>:
   0:	2541                	jal	680 <.L102+0x30>
   2:	0000                	unimp
   4:	7200                	flw	fs0,32(a2)
   6:	7369                	lui	t1,0xffffa
   8:	01007663          	bgeu	zero,a6,14 <.riscv.attributes+0x14>
   c:	0000001b          	0x1b
  10:	1004                	addi	s1,sp,32
  12:	7205                	lui	tp,0xfffe1
  14:	3376                	fld	ft6,376(sp)
  16:	6932                	flw	fs2,12(sp)
  18:	7032                	flw	ft0,44(sp)
  1a:	5f30                	lw	a2,120(a4)
  1c:	326d                	jal	fffff9c6 <.L506+0xffffec9a>
  1e:	3070                	fld	fa2,224(s0)
  20:	665f 7032 0030      	0x307032665f

vx_print.c.o:     file format elf32-littleriscv


Disassembly of section .text.__putint_cb:

00000000 <__putint_cb>:
   0:	00052783          	lw	a5,0(a0)
   4:	00452603          	lw	a2,4(a0)
   8:	fc010113          	addi	sp,sp,-64
   c:	d007f7d3          	fcvt.s.w	fa5,a5
  10:	00c10593          	addi	a1,sp,12
  14:	02812c23          	sw	s0,56(sp)
  18:	c0079553          	fcvt.w.s	a0,fa5,rtz
  1c:	02912a23          	sw	s1,52(sp)
  20:	02112e23          	sw	ra,60(sp)
  24:	00058413          	mv	s0,a1
  28:	02d10493          	addi	s1,sp,45
  2c:	00000097          	auipc	ra,0x0
  30:	000080e7          	jalr	ra # 2c <__putint_cb+0x2c>
  34:	0100006f          	j	44 <.L3>

00000038 <.L10>:
  38:	00000097          	auipc	ra,0x0
  3c:	000080e7          	jalr	ra # 38 <.L10>
  40:	00940863          	beq	s0,s1,50 <.L1>

00000044 <.L3>:
  44:	00044503          	lbu	a0,0(s0)
  48:	00140413          	addi	s0,s0,1
  4c:	fe0516e3          	bnez	a0,38 <.L10>

00000050 <.L1>:
  50:	03c12083          	lw	ra,60(sp)
  54:	03812403          	lw	s0,56(sp)
  58:	03412483          	lw	s1,52(sp)
  5c:	04010113          	addi	sp,sp,64
  60:	00008067          	ret

Disassembly of section .text.__putfloat_cb:

00000000 <__putfloat_cb>:
   0:	fd010113          	addi	sp,sp,-48
   4:	00812e27          	fsw	fs0,28(sp)
   8:	00052407          	flw	fs0,0(a0)
   c:	02812423          	sw	s0,40(sp)
  10:	03212023          	sw	s2,32(sp)
  14:	c0041453          	fcvt.w.s	s0,fs0,rtz
  18:	00452903          	lw	s2,4(a0)
  1c:	02912223          	sw	s1,36(sp)
  20:	00810593          	addi	a1,sp,8
  24:	00a00493          	li	s1,10
  28:	00000517          	auipc	a0,0x0
  2c:	00050513          	mv	a0,a0
  30:	02112623          	sw	ra,44(sp)
  34:	00812423          	sw	s0,8(sp)
  38:	00912623          	sw	s1,12(sp)
  3c:	00000097          	auipc	ra,0x0
  40:	000080e7          	jalr	ra # 3c <__putfloat_cb+0x3c>
  44:	02091063          	bnez	s2,64 <.L17>
  48:	02c12083          	lw	ra,44(sp)
  4c:	02812403          	lw	s0,40(sp)
  50:	02412483          	lw	s1,36(sp)
  54:	02012903          	lw	s2,32(sp)
  58:	01c12407          	flw	fs0,28(sp)
  5c:	03010113          	addi	sp,sp,48
  60:	00008067          	ret

00000064 <.L17>:
  64:	02e00513          	li	a0,46
  68:	00000097          	auipc	ra,0x0
  6c:	000080e7          	jalr	ra # 68 <.L17+0x4>
  70:	00090513          	mv	a0,s2
  74:	00000097          	auipc	ra,0x0
  78:	000080e7          	jalr	ra # 74 <.L17+0x10>
  7c:	00000797          	auipc	a5,0x0
  80:	00078793          	mv	a5,a5
  84:	00050613          	mv	a2,a0
  88:	00058693          	mv	a3,a1
  8c:	0007a503          	lw	a0,0(a5) # 7c <.L17+0x18>
  90:	0047a583          	lw	a1,4(a5)
  94:	00000097          	auipc	ra,0x0
  98:	000080e7          	jalr	ra # 94 <.L17+0x30>
  9c:	d0047553          	fcvt.s.w	fa0,s0
  a0:	00050913          	mv	s2,a0
  a4:	00058413          	mv	s0,a1
  a8:	08a47553          	fsub.s	fa0,fs0,fa0
  ac:	00000097          	auipc	ra,0x0
  b0:	000080e7          	jalr	ra # ac <.L17+0x48>
  b4:	00090613          	mv	a2,s2
  b8:	00040693          	mv	a3,s0
  bc:	00000097          	auipc	ra,0x0
  c0:	000080e7          	jalr	ra # bc <.L17+0x58>
  c4:	00000097          	auipc	ra,0x0
  c8:	000080e7          	jalr	ra # c4 <.L17+0x60>
  cc:	c00517d3          	fcvt.w.s	a5,fa0,rtz
  d0:	00810593          	addi	a1,sp,8
  d4:	00000517          	auipc	a0,0x0
  d8:	00050513          	mv	a0,a0
  dc:	00912623          	sw	s1,12(sp)
  e0:	00f12423          	sw	a5,8(sp)
  e4:	00000097          	auipc	ra,0x0
  e8:	000080e7          	jalr	ra # e4 <.L17+0x80>
  ec:	02c12083          	lw	ra,44(sp)
  f0:	02812403          	lw	s0,40(sp)
  f4:	02412483          	lw	s1,36(sp)
  f8:	02012903          	lw	s2,32(sp)
  fc:	01c12407          	flw	fs0,28(sp)
 100:	03010113          	addi	sp,sp,48
 104:	00008067          	ret

Disassembly of section .text.__vprintf_cb:

00000000 <__vprintf_cb>:
   0:	00452783          	lw	a5,4(a0) # d8 <.L17+0x74>
   4:	ff010113          	addi	sp,sp,-16
   8:	00812423          	sw	s0,8(sp)
   c:	0007a583          	lw	a1,0(a5)
  10:	00050413          	mv	s0,a0
  14:	00052503          	lw	a0,0(a0)
  18:	00112623          	sw	ra,12(sp)
  1c:	00000097          	auipc	ra,0x0
  20:	000080e7          	jalr	ra # 1c <__vprintf_cb+0x1c>
  24:	00c12083          	lw	ra,12(sp)
  28:	00a42423          	sw	a0,8(s0)
  2c:	00812403          	lw	s0,8(sp)
  30:	01010113          	addi	sp,sp,16
  34:	00008067          	ret

Disassembly of section .text.vx_putint:

00000000 <vx_putint>:
   0:	fe010113          	addi	sp,sp,-32
   4:	00050713          	mv	a4,a0
   8:	00058793          	mv	a5,a1
   c:	00000517          	auipc	a0,0x0
  10:	00050513          	mv	a0,a0
  14:	00810593          	addi	a1,sp,8
  18:	00112e23          	sw	ra,28(sp)
  1c:	00e12423          	sw	a4,8(sp)
  20:	00f12623          	sw	a5,12(sp)
  24:	00000097          	auipc	ra,0x0
  28:	000080e7          	jalr	ra # 24 <vx_putint+0x24>
  2c:	01c12083          	lw	ra,28(sp)
  30:	02010113          	addi	sp,sp,32
  34:	00008067          	ret

Disassembly of section .text.vx_putfloat:

00000000 <vx_putfloat>:
   0:	fe010113          	addi	sp,sp,-32
   4:	00050793          	mv	a5,a0
   8:	00810593          	addi	a1,sp,8
   c:	00000517          	auipc	a0,0x0
  10:	00050513          	mv	a0,a0
  14:	00112e23          	sw	ra,28(sp)
  18:	00a12427          	fsw	fa0,8(sp)
  1c:	00f12623          	sw	a5,12(sp)
  20:	00000097          	auipc	ra,0x0
  24:	000080e7          	jalr	ra # 20 <vx_putfloat+0x20>
  28:	01c12083          	lw	ra,28(sp)
  2c:	02010113          	addi	sp,sp,32
  30:	00008067          	ret

Disassembly of section .text.vx_vprintf:

00000000 <vx_vprintf>:
   0:	fd010113          	addi	sp,sp,-48
   4:	00050793          	mv	a5,a0
   8:	00b12623          	sw	a1,12(sp)
   c:	00f12a23          	sw	a5,20(sp)
  10:	00000517          	auipc	a0,0x0
  14:	00050513          	mv	a0,a0
  18:	00c10793          	addi	a5,sp,12
  1c:	01410593          	addi	a1,sp,20
  20:	02112623          	sw	ra,44(sp)
  24:	00f12c23          	sw	a5,24(sp)
  28:	00000097          	auipc	ra,0x0
  2c:	000080e7          	jalr	ra # 28 <vx_vprintf+0x28>
  30:	02c12083          	lw	ra,44(sp)
  34:	01c12503          	lw	a0,28(sp)
  38:	03010113          	addi	sp,sp,48
  3c:	00008067          	ret

Disassembly of section .text.vx_printf:

00000000 <vx_printf>:
   0:	fb010113          	addi	sp,sp,-80
   4:	04f12223          	sw	a5,68(sp)
   8:	03410793          	addi	a5,sp,52
   c:	00050313          	mv	t1,a0
  10:	02b12a23          	sw	a1,52(sp)
  14:	00f12623          	sw	a5,12(sp)
  18:	00f12823          	sw	a5,16(sp)
  1c:	00000517          	auipc	a0,0x0
  20:	00050513          	mv	a0,a0
  24:	01010793          	addi	a5,sp,16
  28:	01410593          	addi	a1,sp,20
  2c:	02112623          	sw	ra,44(sp)
  30:	02c12c23          	sw	a2,56(sp)
  34:	02d12e23          	sw	a3,60(sp)
  38:	04e12023          	sw	a4,64(sp)
  3c:	05012423          	sw	a6,72(sp)
  40:	05112623          	sw	a7,76(sp)
  44:	00612a23          	sw	t1,20(sp)
  48:	00f12c23          	sw	a5,24(sp)
  4c:	00000097          	auipc	ra,0x0
  50:	000080e7          	jalr	ra # 4c <vx_printf+0x4c>
  54:	02c12083          	lw	ra,44(sp)
  58:	01c12503          	lw	a0,28(sp)
  5c:	05010113          	addi	sp,sp,80
  60:	00008067          	ret

Disassembly of section .srodata.cst8:

00000000 <.LC0>:
   0:	0000                	unimp
   2:	0000                	unimp
   4:	0000                	unimp
   6:	4024                	lw	s1,64(s0)

Disassembly of section .comment:

00000000 <.comment>:
   0:	4700                	lw	s0,8(a4)
   2:	203a4343          	fmadd.s	ft6,fs4,ft3,ft4,rmm
   6:	4728                	lw	a0,72(a4)
   8:	554e                	lw	a0,240(sp)
   a:	2029                	jal	14 <vx_printf+0x14>
   c:	2e39                	jal	32a <.L17+0x2c6>
   e:	2e32                	fld	ft8,264(sp)
  10:	0030                	addi	a2,sp,8

Disassembly of section .riscv.attributes:

00000000 <.riscv.attributes>:
   0:	2541                	jal	680 <.L17+0x61c>
   2:	0000                	unimp
   4:	7200                	flw	fs0,32(a2)
   6:	7369                	lui	t1,0xffffa
   8:	01007663          	bgeu	zero,a6,14 <.riscv.attributes+0x14>
   c:	0000001b          	0x1b
  10:	1004                	addi	s1,sp,32
  12:	7205                	lui	tp,0xfffe1
  14:	3376                	fld	ft6,376(sp)
  16:	6932                	flw	fs2,12(sp)
  18:	7032                	flw	ft0,44(sp)
  1a:	5f30                	lw	a2,120(a4)
  1c:	326d                	jal	fffff9c6 <.L17+0xfffff962>
  1e:	3070                	fld	fa2,224(s0)
  20:	665f 7032 0030      	0x307032665f

vx_spawn.c.o:     file format elf32-littleriscv


Disassembly of section .text.spawn_tasks_all_stub:

00000000 <spawn_tasks_all_stub>:
   0:	ff010113          	addi	sp,sp,-16
   4:	00112623          	sw	ra,12(sp)
   8:	00812423          	sw	s0,8(sp)
   c:	00912223          	sw	s1,4(sp)
  10:	01212023          	sw	s2,0(sp)
  14:	cc5027f3          	csrr	a5,0xcc5
  18:	cc302773          	csrr	a4,0xcc3
  1c:	cc0026f3          	csrr	a3,0xcc0
  20:	fc0025f3          	csrr	a1,0xfc0
  24:	00279613          	slli	a2,a5,0x2
  28:	00000797          	auipc	a5,0x0
  2c:	00078793          	mv	a5,a5
  30:	00c787b3          	add	a5,a5,a2
  34:	0007a483          	lw	s1,0(a5) # 28 <spawn_tasks_all_stub+0x28>
  38:	0104a403          	lw	s0,16(s1)
  3c:	00c4a603          	lw	a2,12(s1)
  40:	00872933          	slt	s2,a4,s0
  44:	00040793          	mv	a5,s0
  48:	00c90933          	add	s2,s2,a2
  4c:	02e60433          	mul	s0,a2,a4
  50:	00f75463          	bge	a4,a5,58 <.L2>
  54:	00070793          	mv	a5,a4

00000058 <.L2>:
  58:	00f40433          	add	s0,s0,a5
  5c:	0084a703          	lw	a4,8(s1)
  60:	02b40433          	mul	s0,s0,a1
  64:	02d907b3          	mul	a5,s2,a3
  68:	00e40433          	add	s0,s0,a4
  6c:	00f40433          	add	s0,s0,a5
  70:	00890933          	add	s2,s2,s0
  74:	01245e63          	bge	s0,s2,90 <.L3>

00000078 <.L4>:
  78:	0004a783          	lw	a5,0(s1)
  7c:	0044a583          	lw	a1,4(s1)
  80:	00040513          	mv	a0,s0
  84:	00140413          	addi	s0,s0,1
  88:	000780e7          	jalr	a5
  8c:	fe8916e3          	bne	s2,s0,78 <.L4>

00000090 <.L3>:
  90:	0144a703          	lw	a4,20(s1)
  94:	00000793          	li	a5,0
  98:	00e7c06b          	0xe7c06b
  9c:	00c12083          	lw	ra,12(sp)
  a0:	00812403          	lw	s0,8(sp)
  a4:	00412483          	lw	s1,4(sp)
  a8:	00012903          	lw	s2,0(sp)
  ac:	01010113          	addi	sp,sp,16
  b0:	00008067          	ret

Disassembly of section .text.spawn_tasks_rem_stub:

00000000 <spawn_tasks_rem_stub>:
   0:	cc5027f3          	csrr	a5,0xcc5
   4:	cc202573          	csrr	a0,0xcc2
   8:	00279713          	slli	a4,a5,0x2
   c:	00000797          	auipc	a5,0x0
  10:	00078793          	mv	a5,a5
  14:	00e787b3          	add	a5,a5,a4
  18:	0007a783          	lw	a5,0(a5) # c <spawn_tasks_rem_stub+0xc>
  1c:	0087a703          	lw	a4,8(a5)
  20:	0007a303          	lw	t1,0(a5)
  24:	0047a583          	lw	a1,4(a5)
  28:	00e50533          	add	a0,a0,a4
  2c:	00030067          	jr	t1

Disassembly of section .text.spawn_tasks_all_cb:

00000000 <spawn_tasks_all_cb>:
   0:	ff010113          	addi	sp,sp,-16
   4:	00112623          	sw	ra,12(sp)
   8:	fff00793          	li	a5,-1
   c:	0007806b          	0x7806b
  10:	00000097          	auipc	ra,0x0
  14:	000080e7          	jalr	ra # 10 <spawn_tasks_all_cb+0x10>
  18:	cc3027f3          	csrr	a5,0xcc3
  1c:	0017b793          	seqz	a5,a5
  20:	0007806b          	0x7806b
  24:	00c12083          	lw	ra,12(sp)
  28:	01010113          	addi	sp,sp,16
  2c:	00008067          	ret

Disassembly of section .text.spawn_kernel_all_stub:

00000000 <spawn_kernel_all_stub>:
   0:	fe010113          	addi	sp,sp,-32
   4:	00112e23          	sw	ra,28(sp)
   8:	00812c23          	sw	s0,24(sp)
   c:	00912a23          	sw	s1,20(sp)
  10:	01212823          	sw	s2,16(sp)
  14:	01312623          	sw	s3,12(sp)
  18:	01412423          	sw	s4,8(sp)
  1c:	cc5027f3          	csrr	a5,0xcc5
  20:	cc302773          	csrr	a4,0xcc3
  24:	cc0026f3          	csrr	a3,0xcc0
  28:	fc002573          	csrr	a0,0xfc0
  2c:	00279613          	slli	a2,a5,0x2
  30:	00000797          	auipc	a5,0x0
  34:	00078793          	mv	a5,a5
  38:	00c787b3          	add	a5,a5,a2
  3c:	0007a403          	lw	s0,0(a5) # 30 <spawn_kernel_all_stub+0x30>
  40:	01442483          	lw	s1,20(s0)
  44:	01042603          	lw	a2,16(s0)
  48:	00972a33          	slt	s4,a4,s1
  4c:	00048793          	mv	a5,s1
  50:	00ca0a33          	add	s4,s4,a2
  54:	02e604b3          	mul	s1,a2,a4
  58:	00f75463          	bge	a4,a5,60 <.L12>
  5c:	00070793          	mv	a5,a4

00000060 <.L12>:
  60:	00f484b3          	add	s1,s1,a5
  64:	00042583          	lw	a1,0(s0)
  68:	00c42703          	lw	a4,12(s0)
  6c:	0005a903          	lw	s2,0(a1)
  70:	0045a983          	lw	s3,4(a1)
  74:	02a484b3          	mul	s1,s1,a0
  78:	02da07b3          	mul	a5,s4,a3
  7c:	00e484b3          	add	s1,s1,a4
  80:	00f484b3          	add	s1,s1,a5
  84:	009a0a33          	add	s4,s4,s1
  88:	033909b3          	mul	s3,s2,s3
  8c:	0744c063          	blt	s1,s4,ec <.L18>
  90:	0800006f          	j	110 <.L13>

00000094 <.L20>:
  94:	01e44703          	lbu	a4,30(s0)
  98:	01d44683          	lbu	a3,29(s0)
  9c:	40e4d733          	sra	a4,s1,a4
  a0:	033707b3          	mul	a5,a4,s3
  a4:	40f487b3          	sub	a5,s1,a5
  a8:	06068063          	beqz	a3,108 <.L16>

000000ac <.L21>:
  ac:	01f44683          	lbu	a3,31(s0)
  b0:	40d7d6b3          	sra	a3,a5,a3

000000b4 <.L17>:
  b4:	032688b3          	mul	a7,a3,s2
  b8:	0145ae03          	lw	t3,20(a1)
  bc:	0105a303          	lw	t1,16(a1)
  c0:	00c5a603          	lw	a2,12(a1)
  c4:	00442803          	lw	a6,4(s0)
  c8:	00842503          	lw	a0,8(s0)
  cc:	00148493          	addi	s1,s1,1
  d0:	01c70733          	add	a4,a4,t3
  d4:	006686b3          	add	a3,a3,t1
  d8:	411787b3          	sub	a5,a5,a7
  dc:	00c78633          	add	a2,a5,a2
  e0:	000800e7          	jalr	a6
  e4:	029a0663          	beq	s4,s1,110 <.L13>
  e8:	00042583          	lw	a1,0(s0)

000000ec <.L18>:
  ec:	01c44783          	lbu	a5,28(s0)
  f0:	fa0792e3          	bnez	a5,94 <.L20>
  f4:	0334c733          	div	a4,s1,s3
  f8:	01d44683          	lbu	a3,29(s0)
  fc:	033707b3          	mul	a5,a4,s3
 100:	40f487b3          	sub	a5,s1,a5
 104:	fa0694e3          	bnez	a3,ac <.L21>

00000108 <.L16>:
 108:	0327c6b3          	div	a3,a5,s2
 10c:	fa9ff06f          	j	b4 <.L17>

00000110 <.L13>:
 110:	01842703          	lw	a4,24(s0)
 114:	00000793          	li	a5,0
 118:	00e7c06b          	0xe7c06b
 11c:	01c12083          	lw	ra,28(sp)
 120:	01812403          	lw	s0,24(sp)
 124:	01412483          	lw	s1,20(sp)
 128:	01012903          	lw	s2,16(sp)
 12c:	00c12983          	lw	s3,12(sp)
 130:	00812a03          	lw	s4,8(sp)
 134:	02010113          	addi	sp,sp,32
 138:	00008067          	ret

Disassembly of section .text.spawn_kernel_rem_stub:

00000000 <spawn_kernel_rem_stub>:
   0:	cc502773          	csrr	a4,0xcc5
   4:	cc2027f3          	csrr	a5,0xcc2
   8:	00271693          	slli	a3,a4,0x2
   c:	00000717          	auipc	a4,0x0
  10:	00070713          	mv	a4,a4
  14:	00d70733          	add	a4,a4,a3
  18:	00072503          	lw	a0,0(a4) # c <spawn_kernel_rem_stub+0xc>
  1c:	00052583          	lw	a1,0(a0)
  20:	00c52683          	lw	a3,12(a0)
  24:	01c54703          	lbu	a4,28(a0)
  28:	0005a883          	lw	a7,0(a1)
  2c:	0045a603          	lw	a2,4(a1)
  30:	00d787b3          	add	a5,a5,a3
  34:	02c88633          	mul	a2,a7,a2
  38:	04070863          	beqz	a4,88 <.L23>
  3c:	01e54703          	lbu	a4,30(a0)
  40:	01d54683          	lbu	a3,29(a0)
  44:	40e7d733          	sra	a4,a5,a4
  48:	02c70633          	mul	a2,a4,a2
  4c:	40c787b3          	sub	a5,a5,a2
  50:	04068663          	beqz	a3,9c <.L25>

00000054 <.L27>:
  54:	01f54683          	lbu	a3,31(a0)
  58:	40d7d833          	sra	a6,a5,a3

0000005c <.L26>:
  5c:	0105a683          	lw	a3,16(a1)
  60:	0145ae03          	lw	t3,20(a1)
  64:	00c5a603          	lw	a2,12(a1)
  68:	00d806b3          	add	a3,a6,a3
  6c:	03180833          	mul	a6,a6,a7
  70:	00452303          	lw	t1,4(a0)
  74:	00852503          	lw	a0,8(a0)
  78:	01c70733          	add	a4,a4,t3
  7c:	410787b3          	sub	a5,a5,a6
  80:	00c78633          	add	a2,a5,a2
  84:	00030067          	jr	t1

00000088 <.L23>:
  88:	02c7c733          	div	a4,a5,a2
  8c:	01d54683          	lbu	a3,29(a0)
  90:	02c70633          	mul	a2,a4,a2
  94:	40c787b3          	sub	a5,a5,a2
  98:	fa069ee3          	bnez	a3,54 <.L27>

0000009c <.L25>:
  9c:	0317c833          	div	a6,a5,a7
  a0:	fbdff06f          	j	5c <.L26>

Disassembly of section .text.spawn_kernel_all_cb:

00000000 <spawn_kernel_all_cb>:
   0:	ff010113          	addi	sp,sp,-16
   4:	00112623          	sw	ra,12(sp)
   8:	fff00793          	li	a5,-1
   c:	0007806b          	0x7806b
  10:	00000097          	auipc	ra,0x0
  14:	000080e7          	jalr	ra # 10 <spawn_kernel_all_cb+0x10>
  18:	cc3027f3          	csrr	a5,0xcc3
  1c:	0017b793          	seqz	a5,a5
  20:	0007806b          	0x7806b
  24:	00c12083          	lw	ra,12(sp)
  28:	01010113          	addi	sp,sp,16
  2c:	00008067          	ret

Disassembly of section .text.vx_spawn_tasks:

00000000 <vx_spawn_tasks>:
   0:	fd010113          	addi	sp,sp,-48
   4:	02112623          	sw	ra,44(sp)
   8:	02812423          	sw	s0,40(sp)
   c:	02912223          	sw	s1,36(sp)
  10:	03212023          	sw	s2,32(sp)
  14:	fc2026f3          	csrr	a3,0xfc2
  18:	fc1028f3          	csrr	a7,0xfc1
  1c:	fc0024f3          	csrr	s1,0xfc0
  20:	cc5027f3          	csrr	a5,0xcc5
  24:	01f00713          	li	a4,31
  28:	08f74863          	blt	a4,a5,b8 <.L30>
  2c:	03148833          	mul	a6,s1,a7
  30:	00100713          	li	a4,1
  34:	00a85463          	bge	a6,a0,3c <.L32>
  38:	03054733          	div	a4,a0,a6

0000003c <.L32>:
  3c:	08e6ca63          	blt	a3,a4,d0 <.L48>
  40:	06e7dc63          	bge	a5,a4,b8 <.L30>

00000044 <.L51>:
  44:	fff68693          	addi	a3,a3,-1
  48:	02e54333          	div	t1,a0,a4
  4c:	00030813          	mv	a6,t1
  50:	00f69663          	bne	a3,a5,5c <.L34>
  54:	02e56533          	rem	a0,a0,a4
  58:	00650833          	add	a6,a0,t1

0000005c <.L34>:
  5c:	02984933          	div	s2,a6,s1
  60:	02986433          	rem	s0,a6,s1
  64:	07194c63          	blt	s2,a7,dc <.L41>
  68:	00100513          	li	a0,1
  6c:	031946b3          	div	a3,s2,a7
  70:	00068663          	beqz	a3,7c <.L35>
  74:	00068513          	mv	a0,a3
  78:	031966b3          	rem	a3,s2,a7

0000007c <.L35>:
  7c:	00000717          	auipc	a4,0x0
  80:	00070713          	mv	a4,a4
  84:	00b12423          	sw	a1,8(sp)
  88:	00c12623          	sw	a2,12(sp)
  8c:	00a12a23          	sw	a0,20(sp)
  90:	00d12c23          	sw	a3,24(sp)
  94:	00012e23          	sw	zero,28(sp)
  98:	02f30333          	mul	t1,t1,a5
  9c:	00279793          	slli	a5,a5,0x2
  a0:	00f707b3          	add	a5,a4,a5
  a4:	00810713          	addi	a4,sp,8
  a8:	00e7a023          	sw	a4,0(a5)
  ac:	00612823          	sw	t1,16(sp)
  b0:	03204c63          	bgtz	s2,e8 <.L49>
  b4:	06041863          	bnez	s0,124 <.L50>

000000b8 <.L30>:
  b8:	02c12083          	lw	ra,44(sp)
  bc:	02812403          	lw	s0,40(sp)
  c0:	02412483          	lw	s1,36(sp)
  c4:	02012903          	lw	s2,32(sp)
  c8:	03010113          	addi	sp,sp,48
  cc:	00008067          	ret

000000d0 <.L48>:
  d0:	00068713          	mv	a4,a3
  d4:	f6e7c8e3          	blt	a5,a4,44 <.L51>
  d8:	fe1ff06f          	j	b8 <.L30>

000000dc <.L41>:
  dc:	00000693          	li	a3,0
  e0:	00100513          	li	a0,1
  e4:	f99ff06f          	j	7c <.L35>

000000e8 <.L49>:
  e8:	00090793          	mv	a5,s2
  ec:	0128d463          	bge	a7,s2,f4 <.L37>
  f0:	00088793          	mv	a5,a7

000000f4 <.L37>:
  f4:	00f12e23          	sw	a5,28(sp)
  f8:	00000717          	auipc	a4,0x0
  fc:	00070713          	mv	a4,a4
 100:	00e7906b          	0xe7906b
 104:	fff00793          	li	a5,-1
 108:	0007806b          	0x7806b
 10c:	00000097          	auipc	ra,0x0
 110:	000080e7          	jalr	ra # 10c <.L37+0x18>
 114:	cc3027f3          	csrr	a5,0xcc3
 118:	0017b793          	seqz	a5,a5
 11c:	0007806b          	0x7806b
 120:	f8040ce3          	beqz	s0,b8 <.L30>

00000124 <.L50>:
 124:	029904b3          	mul	s1,s2,s1
 128:	00100913          	li	s2,1
 12c:	00891833          	sll	a6,s2,s0
 130:	fff80813          	addi	a6,a6,-1
 134:	00912823          	sw	s1,16(sp)
 138:	0008006b          	0x8006b
 13c:	00000097          	auipc	ra,0x0
 140:	000080e7          	jalr	ra # 13c <.L50+0x18>
 144:	0009006b          	0x9006b
 148:	02c12083          	lw	ra,44(sp)
 14c:	02812403          	lw	s0,40(sp)
 150:	02412483          	lw	s1,36(sp)
 154:	02012903          	lw	s2,32(sp)
 158:	03010113          	addi	sp,sp,48
 15c:	00008067          	ret

Disassembly of section .text.vx_spawn_kernel:

00000000 <vx_spawn_kernel>:
   0:	fd010113          	addi	sp,sp,-48
   4:	02112623          	sw	ra,44(sp)
   8:	02812423          	sw	s0,40(sp)
   c:	02912223          	sw	s1,36(sp)
  10:	03212023          	sw	s2,32(sp)
  14:	fc2028f3          	csrr	a7,0xfc2
  18:	fc102373          	csrr	t1,0xfc1
  1c:	fc0024f3          	csrr	s1,0xfc0
  20:	cc5027f3          	csrr	a5,0xcc5
  24:	01f00713          	li	a4,31
  28:	0ef74663          	blt	a4,a5,114 <.L52>
  2c:	00052e03          	lw	t3,0(a0)
  30:	00452683          	lw	a3,4(a0)
  34:	00852803          	lw	a6,8(a0)
  38:	02930eb3          	mul	t4,t1,s1
  3c:	00100713          	li	a4,1
  40:	02de06b3          	mul	a3,t3,a3
  44:	03068833          	mul	a6,a3,a6
  48:	010ed463          	bge	t4,a6,50 <.L54>
  4c:	03d84733          	div	a4,a6,t4

00000050 <.L54>:
  50:	0ce8ce63          	blt	a7,a4,12c <.L70>
  54:	0ce7d063          	bge	a5,a4,114 <.L52>

00000058 <.L73>:
  58:	fff88893          	addi	a7,a7,-1
  5c:	02e84f33          	div	t5,a6,a4
  60:	000f0413          	mv	s0,t5
  64:	00f89663          	bne	a7,a5,70 <.L56>
  68:	02e86733          	rem	a4,a6,a4
  6c:	01e70433          	add	s0,a4,t5

00000070 <.L56>:
  70:	02944933          	div	s2,s0,s1
  74:	02946433          	rem	s0,s0,s1
  78:	0c694063          	blt	s2,t1,138 <.L63>
  7c:	00100293          	li	t0,1
  80:	02694fb3          	div	t6,s2,t1
  84:	000f8663          	beqz	t6,90 <.L57>
  88:	000f8293          	mv	t0,t6
  8c:	02696fb3          	rem	t6,s2,t1

00000090 <.L57>:
  90:	d006f7d3          	fcvt.s.w	fa5,a3
  94:	fffe0893          	addi	a7,t3,-1
  98:	fff68e93          	addi	t4,a3,-1
  9c:	e0078853          	fmv.x.w	a6,fa5
  a0:	d00e77d3          	fcvt.s.w	fa5,t3
  a4:	00def6b3          	and	a3,t4,a3
  a8:	01c8fe33          	and	t3,a7,t3
  ac:	e0078753          	fmv.x.w	a4,fa5
  b0:	41785813          	srai	a6,a6,0x17
  b4:	00000897          	auipc	a7,0x0
  b8:	00088893          	mv	a7,a7
  bc:	41775713          	srai	a4,a4,0x17
  c0:	0016b693          	seqz	a3,a3
  c4:	001e3e13          	seqz	t3,t3
  c8:	f8180813          	addi	a6,a6,-127
  cc:	f8170713          	addi	a4,a4,-127 # 79 <.L56+0x9>
  d0:	00a12023          	sw	a0,0(sp)
  d4:	00b12223          	sw	a1,4(sp)
  d8:	00c12423          	sw	a2,8(sp)
  dc:	00512823          	sw	t0,16(sp)
  e0:	01f12a23          	sw	t6,20(sp)
  e4:	00012c23          	sw	zero,24(sp)
  e8:	00d10e23          	sb	a3,28(sp)
  ec:	01c10ea3          	sb	t3,29(sp)
  f0:	01010f23          	sb	a6,30(sp)
  f4:	00e10fa3          	sb	a4,31(sp)
  f8:	02ff0f33          	mul	t5,t5,a5
  fc:	00279793          	slli	a5,a5,0x2
 100:	00f887b3          	add	a5,a7,a5
 104:	0027a023          	sw	sp,0(a5)
 108:	01e12623          	sw	t5,12(sp)
 10c:	03204c63          	bgtz	s2,144 <.L71>
 110:	06041863          	bnez	s0,180 <.L72>

00000114 <.L52>:
 114:	02c12083          	lw	ra,44(sp)
 118:	02812403          	lw	s0,40(sp)
 11c:	02412483          	lw	s1,36(sp)
 120:	02012903          	lw	s2,32(sp)
 124:	03010113          	addi	sp,sp,48
 128:	00008067          	ret

0000012c <.L70>:
 12c:	00088713          	mv	a4,a7
 130:	f2e7c4e3          	blt	a5,a4,58 <.L73>
 134:	fe1ff06f          	j	114 <.L52>

00000138 <.L63>:
 138:	00000f93          	li	t6,0
 13c:	00100293          	li	t0,1
 140:	f51ff06f          	j	90 <.L57>

00000144 <.L71>:
 144:	00090793          	mv	a5,s2
 148:	01235463          	bge	t1,s2,150 <.L59>
 14c:	00030793          	mv	a5,t1

00000150 <.L59>:
 150:	00f12c23          	sw	a5,24(sp)
 154:	00000717          	auipc	a4,0x0
 158:	00070713          	mv	a4,a4
 15c:	00e7906b          	0xe7906b
 160:	fff00793          	li	a5,-1
 164:	0007806b          	0x7806b
 168:	00000097          	auipc	ra,0x0
 16c:	000080e7          	jalr	ra # 168 <.L59+0x18>
 170:	cc3027f3          	csrr	a5,0xcc3
 174:	0017b793          	seqz	a5,a5
 178:	0007806b          	0x7806b
 17c:	f8040ce3          	beqz	s0,114 <.L52>

00000180 <.L72>:
 180:	029904b3          	mul	s1,s2,s1
 184:	00100913          	li	s2,1
 188:	00891433          	sll	s0,s2,s0
 18c:	fff40413          	addi	s0,s0,-1
 190:	00912623          	sw	s1,12(sp)
 194:	0004006b          	0x4006b
 198:	00000097          	auipc	ra,0x0
 19c:	000080e7          	jalr	ra # 198 <.L72+0x18>
 1a0:	0009006b          	0x9006b
 1a4:	02c12083          	lw	ra,44(sp)
 1a8:	02812403          	lw	s0,40(sp)
 1ac:	02412483          	lw	s1,36(sp)
 1b0:	02012903          	lw	s2,32(sp)
 1b4:	03010113          	addi	sp,sp,48
 1b8:	00008067          	ret

Disassembly of section .comment:

00000000 <.comment>:
   0:	4700                	lw	s0,8(a4)
   2:	203a4343          	fmadd.s	ft6,fs4,ft3,ft4,rmm
   6:	4728                	lw	a0,72(a4)
   8:	554e                	lw	a0,240(sp)
   a:	2029                	jal	14 <vx_spawn_kernel+0x14>
   c:	2e39                	jal	32a <.L72+0x1aa>
   e:	2e32                	fld	ft8,264(sp)
  10:	0030                	addi	a2,sp,8

Disassembly of section .riscv.attributes:

00000000 <.riscv.attributes>:
   0:	2541                	jal	680 <.L72+0x500>
   2:	0000                	unimp
   4:	7200                	flw	fs0,32(a2)
   6:	7369                	lui	t1,0xffffa
   8:	01007663          	bgeu	zero,a6,14 <.riscv.attributes+0x14>
   c:	0000001b          	0x1b
  10:	1004                	addi	s1,sp,32
  12:	7205                	lui	tp,0xfffe1
  14:	3376                	fld	ft6,376(sp)
  16:	6932                	flw	fs2,12(sp)
  18:	7032                	flw	ft0,44(sp)
  1a:	5f30                	lw	a2,120(a4)
  1c:	326d                	jal	fffff9c6 <.L72+0xfffff846>
  1e:	3070                	fld	fa2,224(s0)
  20:	665f 7032 0030      	0x307032665f

vx_spawn.S.o:     file format elf32-littleriscv


Disassembly of section .text:

00000000 <vx_serial>:
   0:	fe810113          	addi	sp,sp,-24
   4:	00112a23          	sw	ra,20(sp)
   8:	01412823          	sw	s4,16(sp)
   c:	01312623          	sw	s3,12(sp)
  10:	01212423          	sw	s2,8(sp)
  14:	00912223          	sw	s1,4(sp)
  18:	00812023          	sw	s0,0(sp)
  1c:	00050a13          	mv	s4,a0
  20:	00058993          	mv	s3,a1
  24:	fc002973          	csrr	s2,0xfc0
  28:	cc0024f3          	csrr	s1,0xcc0
  2c:	00000413          	li	s0,0

00000030 <label_loop>:
  30:	409402b3          	sub	t0,s0,s1
  34:	0012b313          	seqz	t1,t0
  38:	0003206b          	0x3206b
  3c:	00029663          	bnez	t0,48 <label_join>
  40:	00098513          	mv	a0,s3
  44:	000a00e7          	jalr	s4

00000048 <label_join>:
  48:	0000306b          	0x306b
  4c:	00140413          	addi	s0,s0,1
  50:	ff2440e3          	blt	s0,s2,30 <label_loop>
  54:	01412083          	lw	ra,20(sp)
  58:	01012a03          	lw	s4,16(sp)
  5c:	00c12983          	lw	s3,12(sp)
  60:	00812903          	lw	s2,8(sp)
  64:	00412483          	lw	s1,4(sp)
  68:	00012403          	lw	s0,0(sp)
  6c:	01810113          	addi	sp,sp,24
  70:	00008067          	ret

Disassembly of section .riscv.attributes:

00000000 <.riscv.attributes>:
   0:	2341                	jal	580 <label_join+0x538>
   2:	0000                	unimp
   4:	7200                	flw	fs0,32(a2)
   6:	7369                	lui	t1,0xffffa
   8:	01007663          	bgeu	zero,a6,14 <.riscv.attributes+0x14>
   c:	0019                	c.nop	6
   e:	0000                	unimp
  10:	7205                	lui	tp,0xfffe1
  12:	3376                	fld	ft6,376(sp)
  14:	6932                	flw	fs2,12(sp)
  16:	7032                	flw	ft0,44(sp)
  18:	5f30                	lw	a2,120(a4)
  1a:	326d                	jal	fffff9c4 <label_join+0xfffff97c>
  1c:	3070                	fld	fa2,224(s0)
  1e:	665f 7032 0030      	0x307032665f

vx_perf.c.o:     file format elf32-littleriscv


Disassembly of section .text.vx_perf_dump:

00000000 <vx_perf_dump>:
   0:	cc5027f3          	csrr	a5,0xcc5
   4:	00ff0737          	lui	a4,0xff0
   8:	00e787b3          	add	a5,a5,a4
   c:	00879793          	slli	a5,a5,0x8
  10:	b0002773          	csrr	a4,mcycle
  14:	00e7a023          	sw	a4,0(a5)
  18:	b0102773          	csrr	a4,0xb01
  1c:	00e7a223          	sw	a4,4(a5)
  20:	b0202773          	csrr	a4,minstret
  24:	00e7a423          	sw	a4,8(a5)
  28:	b0302773          	csrr	a4,mhpmcounter3
  2c:	00e7a623          	sw	a4,12(a5)
  30:	b0402773          	csrr	a4,mhpmcounter4
  34:	00e7a823          	sw	a4,16(a5)
  38:	b0502773          	csrr	a4,mhpmcounter5
  3c:	00e7aa23          	sw	a4,20(a5)
  40:	b0602773          	csrr	a4,mhpmcounter6
  44:	00e7ac23          	sw	a4,24(a5)
  48:	b0702773          	csrr	a4,mhpmcounter7
  4c:	00e7ae23          	sw	a4,28(a5)
  50:	b0802773          	csrr	a4,mhpmcounter8
  54:	02e7a023          	sw	a4,32(a5)
  58:	b0902773          	csrr	a4,mhpmcounter9
  5c:	02e7a223          	sw	a4,36(a5)
  60:	b0a02773          	csrr	a4,mhpmcounter10
  64:	02e7a423          	sw	a4,40(a5)
  68:	b0b02773          	csrr	a4,mhpmcounter11
  6c:	02e7a623          	sw	a4,44(a5)
  70:	b0c02773          	csrr	a4,mhpmcounter12
  74:	02e7a823          	sw	a4,48(a5)
  78:	b0d02773          	csrr	a4,mhpmcounter13
  7c:	02e7aa23          	sw	a4,52(a5)
  80:	b0e02773          	csrr	a4,mhpmcounter14
  84:	02e7ac23          	sw	a4,56(a5)
  88:	b0f02773          	csrr	a4,mhpmcounter15
  8c:	02e7ae23          	sw	a4,60(a5)
  90:	b1002773          	csrr	a4,mhpmcounter16
  94:	04e7a023          	sw	a4,64(a5)
  98:	b1102773          	csrr	a4,mhpmcounter17
  9c:	04e7a223          	sw	a4,68(a5)
  a0:	b1202773          	csrr	a4,mhpmcounter18
  a4:	04e7a423          	sw	a4,72(a5)
  a8:	b1302773          	csrr	a4,mhpmcounter19
  ac:	04e7a623          	sw	a4,76(a5)
  b0:	b1402773          	csrr	a4,mhpmcounter20
  b4:	04e7a823          	sw	a4,80(a5)
  b8:	b1502773          	csrr	a4,mhpmcounter21
  bc:	04e7aa23          	sw	a4,84(a5)
  c0:	b1602773          	csrr	a4,mhpmcounter22
  c4:	04e7ac23          	sw	a4,88(a5)
  c8:	b1702773          	csrr	a4,mhpmcounter23
  cc:	04e7ae23          	sw	a4,92(a5)
  d0:	b1802773          	csrr	a4,mhpmcounter24
  d4:	06e7a023          	sw	a4,96(a5)
  d8:	b1902773          	csrr	a4,mhpmcounter25
  dc:	06e7a223          	sw	a4,100(a5)
  e0:	b1a02773          	csrr	a4,mhpmcounter26
  e4:	06e7a423          	sw	a4,104(a5)
  e8:	b1b02773          	csrr	a4,mhpmcounter27
  ec:	06e7a623          	sw	a4,108(a5)
  f0:	b1c02773          	csrr	a4,mhpmcounter28
  f4:	06e7a823          	sw	a4,112(a5)
  f8:	b1d02773          	csrr	a4,mhpmcounter29
  fc:	06e7aa23          	sw	a4,116(a5)
 100:	b1e02773          	csrr	a4,mhpmcounter30
 104:	06e7ac23          	sw	a4,120(a5)
 108:	b1f02773          	csrr	a4,mhpmcounter31
 10c:	06e7ae23          	sw	a4,124(a5)
 110:	b8002773          	csrr	a4,mcycleh
 114:	08e7a023          	sw	a4,128(a5)
 118:	b8102773          	csrr	a4,0xb81
 11c:	08e7a223          	sw	a4,132(a5)
 120:	b8202773          	csrr	a4,minstreth
 124:	08e7a423          	sw	a4,136(a5)
 128:	b8302773          	csrr	a4,mhpmcounter3h
 12c:	08e7a623          	sw	a4,140(a5)
 130:	b8402773          	csrr	a4,mhpmcounter4h
 134:	08e7a823          	sw	a4,144(a5)
 138:	b8502773          	csrr	a4,mhpmcounter5h
 13c:	08e7aa23          	sw	a4,148(a5)
 140:	b8602773          	csrr	a4,mhpmcounter6h
 144:	08e7ac23          	sw	a4,152(a5)
 148:	b8702773          	csrr	a4,mhpmcounter7h
 14c:	08e7ae23          	sw	a4,156(a5)
 150:	b8802773          	csrr	a4,mhpmcounter8h
 154:	0ae7a023          	sw	a4,160(a5)
 158:	b8902773          	csrr	a4,mhpmcounter9h
 15c:	0ae7a223          	sw	a4,164(a5)
 160:	b8a02773          	csrr	a4,mhpmcounter10h
 164:	0ae7a423          	sw	a4,168(a5)
 168:	b8b02773          	csrr	a4,mhpmcounter11h
 16c:	0ae7a623          	sw	a4,172(a5)
 170:	b8c02773          	csrr	a4,mhpmcounter12h
 174:	0ae7a823          	sw	a4,176(a5)
 178:	b8d02773          	csrr	a4,mhpmcounter13h
 17c:	0ae7aa23          	sw	a4,180(a5)
 180:	b8e02773          	csrr	a4,mhpmcounter14h
 184:	0ae7ac23          	sw	a4,184(a5)
 188:	b8f02773          	csrr	a4,mhpmcounter15h
 18c:	0ae7ae23          	sw	a4,188(a5)
 190:	b9002773          	csrr	a4,mhpmcounter16h
 194:	0ce7a023          	sw	a4,192(a5)
 198:	b9102773          	csrr	a4,mhpmcounter17h
 19c:	0ce7a223          	sw	a4,196(a5)
 1a0:	b9202773          	csrr	a4,mhpmcounter18h
 1a4:	0ce7a423          	sw	a4,200(a5)
 1a8:	b9302773          	csrr	a4,mhpmcounter19h
 1ac:	0ce7a623          	sw	a4,204(a5)
 1b0:	b9402773          	csrr	a4,mhpmcounter20h
 1b4:	0ce7a823          	sw	a4,208(a5)
 1b8:	b9502773          	csrr	a4,mhpmcounter21h
 1bc:	0ce7aa23          	sw	a4,212(a5)
 1c0:	b9602773          	csrr	a4,mhpmcounter22h
 1c4:	0ce7ac23          	sw	a4,216(a5)
 1c8:	b9702773          	csrr	a4,mhpmcounter23h
 1cc:	0ce7ae23          	sw	a4,220(a5)
 1d0:	b9802773          	csrr	a4,mhpmcounter24h
 1d4:	0ee7a023          	sw	a4,224(a5)
 1d8:	b9902773          	csrr	a4,mhpmcounter25h
 1dc:	0ee7a223          	sw	a4,228(a5)
 1e0:	b9a02773          	csrr	a4,mhpmcounter26h
 1e4:	0ee7a423          	sw	a4,232(a5)
 1e8:	b9b02773          	csrr	a4,mhpmcounter27h
 1ec:	0ee7a623          	sw	a4,236(a5)
 1f0:	b9c02773          	csrr	a4,mhpmcounter28h
 1f4:	0ee7a823          	sw	a4,240(a5)
 1f8:	b9d02773          	csrr	a4,mhpmcounter29h
 1fc:	0ee7aa23          	sw	a4,244(a5)
 200:	b9e02773          	csrr	a4,mhpmcounter30h
 204:	0ee7ac23          	sw	a4,248(a5)
 208:	b9f02773          	csrr	a4,mhpmcounter31h
 20c:	0ee7ae23          	sw	a4,252(a5)
 210:	00008067          	ret

Disassembly of section .comment:

00000000 <.comment>:
   0:	4700                	lw	s0,8(a4)
   2:	203a4343          	fmadd.s	ft6,fs4,ft3,ft4,rmm
   6:	4728                	lw	a0,72(a4)
   8:	554e                	lw	a0,240(sp)
   a:	2029                	jal	14 <vx_perf_dump+0x14>
   c:	2e39                	jal	32a <vx_perf_dump+0x32a>
   e:	2e32                	fld	ft8,264(sp)
  10:	0030                	addi	a2,sp,8

Disassembly of section .riscv.attributes:

00000000 <.riscv.attributes>:
   0:	2541                	jal	680 <vx_perf_dump+0x680>
   2:	0000                	unimp
   4:	7200                	flw	fs0,32(a2)
   6:	7369                	lui	t1,0xffffa
   8:	01007663          	bgeu	zero,a6,14 <vx_perf_dump+0x14>
   c:	0000001b          	0x1b
  10:	1004                	addi	s1,sp,32
  12:	7205                	lui	tp,0xfffe1
  14:	3376                	fld	ft6,376(sp)
  16:	6932                	flw	fs2,12(sp)
  18:	7032                	flw	ft0,44(sp)
  1a:	5f30                	lw	a2,120(a4)
  1c:	326d                	jal	fffff9c6 <vx_perf_dump+0xfffff9c6>
  1e:	3070                	fld	fa2,224(s0)
  20:	665f 7032 0030      	0x307032665f
