
/tmp/pocl_vortex_kernel-9a-fe-0b-0c-9e.elf:	file format ELF32-riscv


Disassembly of section .init:

80000000 _start:
80000000: 97 05 00 00                  	auipc	a1, 0
80000004: 93 85 45 4c                  	addi	a1, a1, 1220
80000008: 73 25 10 fc                  	csrr	a0, 4033
8000000c: 6b 10 b5 00                  	vx_wspawn	a0, a1
80000010: ef 00 40 4b                  	jal	1204
80000014: 13 05 10 00                  	addi	a0, zero, 1
80000018: 6b 00 05 00                  	vx_tmc	a0
8000001c: 17 25 00 00                  	auipc	a0, 2
80000020: 13 05 c5 44                  	addi	a0, a0, 1100
80000024: 17 26 00 00                  	auipc	a2, 2
80000028: 13 06 86 4c                  	addi	a2, a2, 1224
8000002c: 33 06 a6 40                  	sub	a2, a2, a0
80000030: 93 05 00 00                  	mv	a1, zero
80000034: ef 00 50 56                  	jal	3428
80000038: 17 05 00 00                  	auipc	a0, 0
8000003c: 13 05 c5 55                  	addi	a0, a0, 1372
80000040: ef 00 50 50                  	jal	3332
80000044: ef 00 40 4b                  	jal	1204
80000048: ef 00 00 02                  	jal	32
8000004c: 6f 00 90 51                  	j	3352

Disassembly of section .text:

80000050 register_fini:
80000050: 93 07 00 00                  	mv	a5, zero
80000054: 63 88 07 00                  	beqz	a5, 16
80000058: 37 05 00 80                  	lui	a0, 524288
8000005c: 13 05 45 59                  	addi	a0, a0, 1428
80000060: 6f 00 50 4e                  	j	3300
80000064: 67 80 00 00                  	ret

80000068 main:
80000068: 13 01 01 ff                  	addi	sp, sp, -16
8000006c: 23 26 11 00                  	sw	ra, 12(sp)
80000070: 37 05 00 80                  	lui	a0, 524288
80000074: 93 05 05 20                  	addi	a1, a0, 512
80000078: 37 05 ff 7f                  	lui	a0, 524272
8000007c: 13 06 45 03                  	addi	a2, a0, 52
80000080: 37 05 ff 7f                  	lui	a0, 524272
80000084: ef 00 80 77                  	jal	1912
80000088: 13 05 00 00                  	mv	a0, zero
8000008c: 83 20 c1 00                  	lw	ra, 12(sp)
80000090: 13 01 01 01                  	addi	sp, sp, 16
80000094: 67 80 00 00                  	ret

80000098 _Z8_cl_sqrtf:
80000098: 13 01 01 ff                  	addi	sp, sp, -16
8000009c: 23 26 11 00                  	sw	ra, 12(sp)
800000a0: 23 24 81 00                  	sw	s0, 8(sp)
800000a4: 13 04 01 01                  	addi	s0, sp, 16
800000a8: 03 24 81 00                  	lw	s0, 8(sp)
800000ac: 83 20 c1 00                  	lw	ra, 12(sp)
800000b0: 13 01 01 01                  	addi	sp, sp, 16
800000b4: 17 13 00 00                  	auipc	t1, 1
800000b8: 67 00 03 b1                  	jr	-1264(t1)

800000bc _pocl_kernel_NearestNeighbor:
800000bc: 13 01 01 fc                  	addi	sp, sp, -64
800000c0: 23 2e 11 02                  	sw	ra, 60(sp)
800000c4: 23 2c 81 02                  	sw	s0, 56(sp)
800000c8: 23 2a 91 02                  	sw	s1, 52(sp)
800000cc: 23 28 21 03                  	sw	s2, 48(sp)
800000d0: 23 26 31 03                  	sw	s3, 44(sp)
800000d4: 23 24 41 03                  	sw	s4, 40(sp)
800000d8: 23 22 51 03                  	sw	s5, 36(sp)
800000dc: 23 20 61 03                  	sw	s6, 32(sp)
800000e0: 23 2e 71 01                  	sw	s7, 28(sp)
800000e4: 23 2c 81 01                  	sw	s8, 24(sp)
800000e8: 23 2a 91 01                  	sw	s9, 20(sp)
800000ec: 23 28 a1 01                  	sw	s10, 16(sp)
800000f0: 23 26 b1 01                  	sw	s11, 12(sp)
800000f4: 27 24 81 00                  	fsw	fs0, 8(sp)
800000f8: 27 22 91 00                  	fsw	fs1, 4(sp)
800000fc: 13 04 01 04                  	addi	s0, sp, 64
80000100: 13 71 c1 ff                  	andi	sp, sp, -4
80000104: 53 84 b5 20                  	fmv.s	fs0, fa1
80000108: d3 04 a5 20                  	fmv.s	fs1, fa0
8000010c: 93 09 06 00                  	mv	s3, a2
80000110: 13 09 00 00                  	mv	s2, zero
80000114: 03 ab 86 01                  	lw	s6, 24(a3)
80000118: 03 a6 c6 00                  	lw	a2, 12(a3)
8000011c: 03 aa c6 01                  	lw	s4, 28(a3)
80000120: 83 a6 06 02                  	lw	a3, 32(a3)
80000124: 23 20 d1 00                  	sw	a3, 0(sp)
80000128: b3 06 eb 02                  	mul	a3, s6, a4
8000012c: 33 0d d6 00                  	add	s10, a2, a3
80000130: 13 16 3d 00                  	slli	a2, s10, 3
80000134: 33 05 c5 00                  	add	a0, a0, a2
80000138: 13 16 2d 00                  	slli	a2, s10, 2
8000013c: b3 8b c5 00                  	add	s7, a1, a2
80000140: 93 0a 45 00                  	addi	s5, a0, 4
80000144: 6f 00 00 01                  	j	16
80000148: 13 09 19 00                  	addi	s2, s2, 1
8000014c: 03 25 01 00                  	lw	a0, 0(sp)
80000150: 63 74 a9 06                  	bgeu	s2, a0, 104
80000154: 93 0c 00 00                  	mv	s9, zero
80000158: 6f 00 c0 00                  	j	12
8000015c: 93 8c 1c 00                  	addi	s9, s9, 1
80000160: e3 f4 4c ff                  	bgeu	s9, s4, -24
80000164: 93 04 00 00                  	mv	s1, zero
80000168: 93 8d 0b 00                  	mv	s11, s7
8000016c: 13 8c 0a 00                  	mv	s8, s5
80000170: 6f 00 40 01                  	j	20
80000174: 93 84 14 00                  	addi	s1, s1, 1
80000178: 13 0c 8c 00                  	addi	s8, s8, 8
8000017c: 93 8d 4d 00                  	addi	s11, s11, 4
80000180: e3 fe 64 fd                  	bgeu	s1, s6, -36
80000184: 33 05 9d 00                  	add	a0, s10, s1
80000188: e3 56 35 ff                  	bge	a0, s3, -20
8000018c: 07 20 cc ff                  	flw	ft0, -4(s8)
80000190: 87 20 0c 00                  	flw	ft1, 0(s8)
80000194: 53 f0 04 08                  	fsub.s	ft0, fs1, ft0
80000198: d3 70 14 08                  	fsub.s	ft1, fs0, ft1
8000019c: d3 f0 10 10                  	fmul.s	ft1, ft1, ft1
800001a0: 53 70 00 10                  	fmul.s	ft0, ft0, ft0
800001a4: 53 75 10 00                  	fadd.s	fa0, ft0, ft1
800001a8: 97 00 00 00                  	auipc	ra, 0
800001ac: e7 80 00 ef                  	jalr	-272(ra)
800001b0: 27 a0 ad 00                  	fsw	fa0, 0(s11)
800001b4: 6f f0 1f fc                  	j	-64
800001b8: 13 01 04 fc                  	addi	sp, s0, -64
800001bc: 87 24 41 00                  	flw	fs1, 4(sp)
800001c0: 07 24 81 00                  	flw	fs0, 8(sp)
800001c4: 83 2d c1 00                  	lw	s11, 12(sp)
800001c8: 03 2d 01 01                  	lw	s10, 16(sp)
800001cc: 83 2c 41 01                  	lw	s9, 20(sp)
800001d0: 03 2c 81 01                  	lw	s8, 24(sp)
800001d4: 83 2b c1 01                  	lw	s7, 28(sp)
800001d8: 03 2b 01 02                  	lw	s6, 32(sp)
800001dc: 83 2a 41 02                  	lw	s5, 36(sp)
800001e0: 03 2a 81 02                  	lw	s4, 40(sp)
800001e4: 83 29 c1 02                  	lw	s3, 44(sp)
800001e8: 03 29 01 03                  	lw	s2, 48(sp)
800001ec: 83 24 41 03                  	lw	s1, 52(sp)
800001f0: 03 24 81 03                  	lw	s0, 56(sp)
800001f4: 83 20 c1 03                  	lw	ra, 60(sp)
800001f8: 13 01 01 04                  	addi	sp, sp, 64
800001fc: 67 80 00 00                  	ret

80000200 _pocl_kernel_NearestNeighbor_workgroup:
80000200: 13 01 01 fc                  	addi	sp, sp, -64
80000204: 23 2e 11 02                  	sw	ra, 60(sp)
80000208: 23 2c 81 02                  	sw	s0, 56(sp)
8000020c: 23 2a 91 02                  	sw	s1, 52(sp)
80000210: 23 28 21 03                  	sw	s2, 48(sp)
80000214: 23 26 31 03                  	sw	s3, 44(sp)
80000218: 23 24 41 03                  	sw	s4, 40(sp)
8000021c: 23 22 51 03                  	sw	s5, 36(sp)
80000220: 23 20 61 03                  	sw	s6, 32(sp)
80000224: 23 2e 71 01                  	sw	s7, 28(sp)
80000228: 23 2c 81 01                  	sw	s8, 24(sp)
8000022c: 23 2a 91 01                  	sw	s9, 20(sp)
80000230: 23 28 a1 01                  	sw	s10, 16(sp)
80000234: 23 26 b1 01                  	sw	s11, 12(sp)
80000238: 27 24 81 00                  	fsw	fs0, 8(sp)
8000023c: 27 22 91 00                  	fsw	fs1, 4(sp)
80000240: 83 26 05 00                  	lw	a3, 0(a0)
80000244: 13 09 00 00                  	mv	s2, zero
80000248: 83 a6 06 00                  	lw	a3, 0(a3)
8000024c: 03 27 45 00                  	lw	a4, 4(a0)
80000250: 83 27 85 00                  	lw	a5, 8(a0)
80000254: 83 24 c5 00                  	lw	s1, 12(a0)
80000258: 03 25 05 01                  	lw	a0, 16(a0)
8000025c: 03 27 07 00                  	lw	a4, 0(a4)
80000260: 83 ad 07 00                  	lw	s11, 0(a5)
80000264: 07 a4 04 00                  	flw	fs0, 0(s1)
80000268: 87 24 05 00                  	flw	fs1, 0(a0)
8000026c: 83 aa 85 01                  	lw	s5, 24(a1)
80000270: 03 a5 c5 00                  	lw	a0, 12(a1)
80000274: 83 a9 c5 01                  	lw	s3, 28(a1)
80000278: 83 a5 05 02                  	lw	a1, 32(a1)
8000027c: 23 20 b1 00                  	sw	a1, 0(sp)
80000280: b3 85 ca 02                  	mul	a1, s5, a2
80000284: 33 0d b5 00                  	add	s10, a0, a1
80000288: 13 15 3d 00                  	slli	a0, s10, 3
8000028c: 33 85 a6 00                  	add	a0, a3, a0
80000290: 93 15 2d 00                  	slli	a1, s10, 2
80000294: 33 0b b7 00                  	add	s6, a4, a1
80000298: 13 0a 45 00                  	addi	s4, a0, 4
8000029c: 6f 00 00 01                  	j	16
800002a0: 13 09 19 00                  	addi	s2, s2, 1
800002a4: 03 25 01 00                  	lw	a0, 0(sp)
800002a8: 63 7e a9 06                  	bgeu	s2, a0, 124
800002ac: 13 0c 00 00                  	mv	s8, zero
800002b0: 6f 00 00 01                  	j	16
800002b4: 6b 80 0c 00                  	vx_tmc	s9
800002b8: 13 0c 1c 00                  	addi	s8, s8, 1
800002bc: e3 72 3c ff                  	bgeu	s8, s3, -28
800002c0: 13 04 00 00                  	mv	s0, zero
800002c4: f3 2c 40 cc                  	csrr	s9, tmask
800002c8: 93 04 0b 00                  	mv	s1, s6
800002cc: 93 0b 0a 00                  	mv	s7, s4
800002d0: 6f 00 80 01                  	j	24
800002d4: 6b 30 00 00                  	vx_join	
800002d8: 13 04 14 00                  	addi	s0, s0, 1
800002dc: 93 8b 8b 00                  	addi	s7, s7, 8
800002e0: 93 84 44 00                  	addi	s1, s1, 4
800002e4: e3 78 54 fd                  	bgeu	s0, s5, -48
800002e8: 33 05 8d 00                  	add	a0, s10, s0
800002ec: b3 25 b5 01                  	slt	a1, a0, s11
800002f0: 6b a0 05 00                  	vx_split	a1
800002f4: e3 50 b5 ff                  	bge	a0, s11, -32
800002f8: 07 a0 cb ff                  	flw	ft0, -4(s7)
800002fc: 87 a0 0b 00                  	flw	ft1, 0(s7)
80000300: 53 70 04 08                  	fsub.s	ft0, fs0, ft0
80000304: d3 f0 14 08                  	fsub.s	ft1, fs1, ft1
80000308: d3 f0 10 10                  	fmul.s	ft1, ft1, ft1
8000030c: 53 70 00 10                  	fmul.s	ft0, ft0, ft0
80000310: 53 75 10 00                  	fadd.s	fa0, ft0, ft1
80000314: 97 00 00 00                  	auipc	ra, 0
80000318: e7 80 40 d8                  	jalr	-636(ra)
8000031c: 27 a0 a4 00                  	fsw	fa0, 0(s1)
80000320: 6f f0 5f fb                  	j	-76
80000324: 87 24 41 00                  	flw	fs1, 4(sp)
80000328: 07 24 81 00                  	flw	fs0, 8(sp)
8000032c: 83 2d c1 00                  	lw	s11, 12(sp)
80000330: 03 2d 01 01                  	lw	s10, 16(sp)
80000334: 83 2c 41 01                  	lw	s9, 20(sp)
80000338: 03 2c 81 01                  	lw	s8, 24(sp)
8000033c: 83 2b c1 01                  	lw	s7, 28(sp)
80000340: 03 2b 01 02                  	lw	s6, 32(sp)
80000344: 83 2a 41 02                  	lw	s5, 36(sp)
80000348: 03 2a 81 02                  	lw	s4, 40(sp)
8000034c: 83 29 c1 02                  	lw	s3, 44(sp)
80000350: 03 29 01 03                  	lw	s2, 48(sp)
80000354: 83 24 41 03                  	lw	s1, 52(sp)
80000358: 03 24 81 03                  	lw	s0, 56(sp)
8000035c: 83 20 c1 03                  	lw	ra, 60(sp)
80000360: 13 01 01 04                  	addi	sp, sp, 64
80000364: 67 80 00 00                  	ret

80000368 _pocl_kernel_NearestNeighbor_workgroup_fast:
80000368: 13 01 01 fc                  	addi	sp, sp, -64
8000036c: 23 2e 11 02                  	sw	ra, 60(sp)
80000370: 23 2c 81 02                  	sw	s0, 56(sp)
80000374: 23 2a 91 02                  	sw	s1, 52(sp)
80000378: 23 28 21 03                  	sw	s2, 48(sp)
8000037c: 23 26 31 03                  	sw	s3, 44(sp)
80000380: 23 24 41 03                  	sw	s4, 40(sp)
80000384: 23 22 51 03                  	sw	s5, 36(sp)
80000388: 23 20 61 03                  	sw	s6, 32(sp)
8000038c: 23 2e 71 01                  	sw	s7, 28(sp)
80000390: 23 2c 81 01                  	sw	s8, 24(sp)
80000394: 23 2a 91 01                  	sw	s9, 20(sp)
80000398: 23 28 a1 01                  	sw	s10, 16(sp)
8000039c: 23 26 b1 01                  	sw	s11, 12(sp)
800003a0: 27 24 81 00                  	fsw	fs0, 8(sp)
800003a4: 27 22 91 00                  	fsw	fs1, 4(sp)
800003a8: 13 09 00 00                  	mv	s2, zero
800003ac: 83 26 05 00                  	lw	a3, 0(a0)
800003b0: 03 27 85 00                  	lw	a4, 8(a0)
800003b4: 83 27 c5 00                  	lw	a5, 12(a0)
800003b8: 83 24 05 01                  	lw	s1, 16(a0)
800003bc: 03 25 45 00                  	lw	a0, 4(a0)
800003c0: 83 2a 07 00                  	lw	s5, 0(a4)
800003c4: 07 a4 07 00                  	flw	fs0, 0(a5)
800003c8: 87 a4 04 00                  	flw	fs1, 0(s1)
800003cc: 83 ac 85 01                  	lw	s9, 24(a1)
800003d0: 03 a7 c5 00                  	lw	a4, 12(a1)
800003d4: 83 a9 c5 01                  	lw	s3, 28(a1)
800003d8: 03 aa 05 02                  	lw	s4, 32(a1)
800003dc: b3 85 cc 02                  	mul	a1, s9, a2
800003e0: 33 0d b7 00                  	add	s10, a4, a1
800003e4: 93 15 3d 00                  	slli	a1, s10, 3
800003e8: b3 85 b6 00                  	add	a1, a3, a1
800003ec: 13 16 2d 00                  	slli	a2, s10, 2
800003f0: 33 0b c5 00                  	add	s6, a0, a2
800003f4: 93 8b 45 00                  	addi	s7, a1, 4
800003f8: 6f 00 c0 00                  	j	12
800003fc: 13 09 19 00                  	addi	s2, s2, 1
80000400: 63 74 49 07                  	bgeu	s2, s4, 104
80000404: 13 0c 00 00                  	mv	s8, zero
80000408: 6f 00 c0 00                  	j	12
8000040c: 13 0c 1c 00                  	addi	s8, s8, 1
80000410: e3 76 3c ff                  	bgeu	s8, s3, -20
80000414: 13 04 00 00                  	mv	s0, zero
80000418: 93 0d 0b 00                  	mv	s11, s6
8000041c: 93 84 0b 00                  	mv	s1, s7
80000420: 6f 00 40 01                  	j	20
80000424: 13 04 14 00                  	addi	s0, s0, 1
80000428: 93 84 84 00                  	addi	s1, s1, 8
8000042c: 93 8d 4d 00                  	addi	s11, s11, 4
80000430: e3 7e 94 fd                  	bgeu	s0, s9, -36
80000434: 33 05 8d 00                  	add	a0, s10, s0
80000438: e3 56 55 ff                  	bge	a0, s5, -20
8000043c: 07 a0 c4 ff                  	flw	ft0, -4(s1)
80000440: 87 a0 04 00                  	flw	ft1, 0(s1)
80000444: 53 70 04 08                  	fsub.s	ft0, fs0, ft0
80000448: d3 f0 14 08                  	fsub.s	ft1, fs1, ft1
8000044c: d3 f0 10 10                  	fmul.s	ft1, ft1, ft1
80000450: 53 70 00 10                  	fmul.s	ft0, ft0, ft0
80000454: 53 75 10 00                  	fadd.s	fa0, ft0, ft1
80000458: 97 00 00 00                  	auipc	ra, 0
8000045c: e7 80 00 c4                  	jalr	-960(ra)
80000460: 27 a0 ad 00                  	fsw	fa0, 0(s11)
80000464: 6f f0 1f fc                  	j	-64
80000468: 87 24 41 00                  	flw	fs1, 4(sp)
8000046c: 07 24 81 00                  	flw	fs0, 8(sp)
80000470: 83 2d c1 00                  	lw	s11, 12(sp)
80000474: 03 2d 01 01                  	lw	s10, 16(sp)
80000478: 83 2c 41 01                  	lw	s9, 20(sp)
8000047c: 03 2c 81 01                  	lw	s8, 24(sp)
80000480: 83 2b c1 01                  	lw	s7, 28(sp)
80000484: 03 2b 01 02                  	lw	s6, 32(sp)
80000488: 83 2a 41 02                  	lw	s5, 36(sp)
8000048c: 03 2a 81 02                  	lw	s4, 40(sp)
80000490: 83 29 c1 02                  	lw	s3, 44(sp)
80000494: 03 29 01 03                  	lw	s2, 48(sp)
80000498: 83 24 41 03                  	lw	s1, 52(sp)
8000049c: 03 24 81 03                  	lw	s0, 56(sp)
800004a0: 83 20 c1 03                  	lw	ra, 60(sp)
800004a4: 13 01 01 04                  	addi	sp, sp, 64
800004a8: 67 80 00 00                  	ret

800004ac _exit:
800004ac: 63 06 05 00                  	beqz	a0, 12
800004b0: 93 01 05 00                  	mv	gp, a0
800004b4: 73 00 00 00                  	ecall	

800004b8 label_exit_next:
800004b8: ef 00 80 4f                  	jal	1272
800004bc: 13 05 00 00                  	mv	a0, zero
800004c0: 6b 00 05 00                  	vx_tmc	a0

800004c4 vx_set_sp:
800004c4: 13 05 f0 ff                  	addi	a0, zero, -1
800004c8: 6b 00 05 00                  	vx_tmc	a0
800004cc: 97 21 00 00                  	auipc	gp, 2
800004d0: 93 81 c1 36                  	addi	gp, gp, 876
800004d4: 37 01 00 ff                  	lui	sp, 1044480
800004d8: 73 26 10 cc                  	csrr	a2, 3265
800004dc: 93 15 a6 00                  	slli	a1, a2, 10
800004e0: 33 01 b1 40                  	sub	sp, sp, a1
800004e4: f3 26 30 cc                  	csrr	a3, 3267
800004e8: 63 86 06 00                  	beqz	a3, 12
800004ec: 13 05 00 00                  	mv	a0, zero
800004f0: 6b 00 05 00                  	vx_tmc	a0

800004f4 RETURN:
800004f4: 67 80 00 00                  	ret

800004f8 __libc_init_array:
800004f8: 13 01 01 ff                  	addi	sp, sp, -16
800004fc: 23 24 81 00                  	sw	s0, 8(sp)
80000500: 23 20 21 01                  	sw	s2, 0(sp)
80000504: 37 24 00 80                  	lui	s0, 524290
80000508: 37 29 00 80                  	lui	s2, 524290
8000050c: 93 07 44 03                  	addi	a5, s0, 52
80000510: 13 09 49 03                  	addi	s2, s2, 52
80000514: 33 09 f9 40                  	sub	s2, s2, a5
80000518: 23 26 11 00                  	sw	ra, 12(sp)
8000051c: 23 22 91 00                  	sw	s1, 4(sp)
80000520: 13 59 29 40                  	srai	s2, s2, 2
80000524: 63 00 09 02                  	beqz	s2, 32
80000528: 13 04 44 03                  	addi	s0, s0, 52
8000052c: 93 04 00 00                  	mv	s1, zero
80000530: 83 27 04 00                  	lw	a5, 0(s0)
80000534: 93 84 14 00                  	addi	s1, s1, 1
80000538: 13 04 44 00                  	addi	s0, s0, 4
8000053c: e7 80 07 00                  	jalr	a5
80000540: e3 18 99 fe                  	bne	s2, s1, -16
80000544: 37 24 00 80                  	lui	s0, 524290
80000548: 37 29 00 80                  	lui	s2, 524290
8000054c: 93 07 44 03                  	addi	a5, s0, 52
80000550: 13 09 89 03                  	addi	s2, s2, 56
80000554: 33 09 f9 40                  	sub	s2, s2, a5
80000558: 13 59 29 40                  	srai	s2, s2, 2
8000055c: 63 00 09 02                  	beqz	s2, 32
80000560: 13 04 44 03                  	addi	s0, s0, 52
80000564: 93 04 00 00                  	mv	s1, zero
80000568: 83 27 04 00                  	lw	a5, 0(s0)
8000056c: 93 84 14 00                  	addi	s1, s1, 1
80000570: 13 04 44 00                  	addi	s0, s0, 4
80000574: e7 80 07 00                  	jalr	a5
80000578: e3 18 99 fe                  	bne	s2, s1, -16
8000057c: 83 20 c1 00                  	lw	ra, 12(sp)
80000580: 03 24 81 00                  	lw	s0, 8(sp)
80000584: 83 24 41 00                  	lw	s1, 4(sp)
80000588: 03 29 01 00                  	lw	s2, 0(sp)
8000058c: 13 01 01 01                  	addi	sp, sp, 16
80000590: 67 80 00 00                  	ret

80000594 __libc_fini_array:
80000594: 13 01 01 ff                  	addi	sp, sp, -16
80000598: 23 24 81 00                  	sw	s0, 8(sp)
8000059c: b7 27 00 80                  	lui	a5, 524290
800005a0: 37 24 00 80                  	lui	s0, 524290
800005a4: 13 04 84 03                  	addi	s0, s0, 56
800005a8: 93 87 87 03                  	addi	a5, a5, 56
800005ac: b3 87 87 40                  	sub	a5, a5, s0
800005b0: 23 22 91 00                  	sw	s1, 4(sp)
800005b4: 23 26 11 00                  	sw	ra, 12(sp)
800005b8: 93 d4 27 40                  	srai	s1, a5, 2
800005bc: 63 80 04 02                  	beqz	s1, 32
800005c0: 93 87 c7 ff                  	addi	a5, a5, -4
800005c4: 33 84 87 00                  	add	s0, a5, s0
800005c8: 83 27 04 00                  	lw	a5, 0(s0)
800005cc: 93 84 f4 ff                  	addi	s1, s1, -1
800005d0: 13 04 c4 ff                  	addi	s0, s0, -4
800005d4: e7 80 07 00                  	jalr	a5
800005d8: e3 98 04 fe                  	bnez	s1, -16
800005dc: 83 20 c1 00                  	lw	ra, 12(sp)
800005e0: 03 24 81 00                  	lw	s0, 8(sp)
800005e4: 83 24 41 00                  	lw	s1, 4(sp)
800005e8: 13 01 01 01                  	addi	sp, sp, 16
800005ec: 67 80 00 00                  	ret

800005f0 spawn_kernel_all_stub:
800005f0: 13 01 01 fe                  	addi	sp, sp, -32
800005f4: 23 2e 11 00                  	sw	ra, 28(sp)
800005f8: 23 2c 81 00                  	sw	s0, 24(sp)
800005fc: 23 2a 91 00                  	sw	s1, 20(sp)
80000600: 23 28 21 01                  	sw	s2, 16(sp)
80000604: 23 26 31 01                  	sw	s3, 12(sp)
80000608: 23 24 41 01                  	sw	s4, 8(sp)
8000060c: 73 26 50 cc                  	csrr	a2, 3269
80000610: 73 27 30 cc                  	csrr	a4, 3267
80000614: f3 26 00 cc                  	csrr	a3, 3264
80000618: 73 25 00 fc                  	csrr	a0, 4032
8000061c: b7 27 00 80                  	lui	a5, 524290
80000620: 13 16 26 00                  	slli	a2, a2, 2
80000624: 93 87 c7 46                  	addi	a5, a5, 1132
80000628: b3 87 c7 00                  	add	a5, a5, a2
8000062c: 03 a4 07 00                  	lw	s0, 0(a5)
80000630: 83 24 44 01                  	lw	s1, 20(s0)
80000634: 03 26 04 01                  	lw	a2, 16(s0)
80000638: 33 2a 97 00                  	slt	s4, a4, s1
8000063c: 93 87 04 00                  	mv	a5, s1
80000640: 33 0a ca 00                  	add	s4, s4, a2
80000644: b3 04 e6 02                  	mul	s1, a2, a4
80000648: 63 54 f7 00                  	bge	a4, a5, 8
8000064c: 93 07 07 00                  	mv	a5, a4
80000650: b3 84 f4 00                  	add	s1, s1, a5
80000654: 83 25 04 00                  	lw	a1, 0(s0)
80000658: 03 27 c4 00                  	lw	a4, 12(s0)
8000065c: 03 a9 05 00                  	lw	s2, 0(a1)
80000660: 83 a9 45 00                  	lw	s3, 4(a1)
80000664: b3 84 a4 02                  	mul	s1, s1, a0
80000668: b3 07 da 02                  	mul	a5, s4, a3
8000066c: b3 84 e4 00                  	add	s1, s1, a4
80000670: b3 84 f4 00                  	add	s1, s1, a5
80000674: 33 0a 9a 00                  	add	s4, s4, s1
80000678: b3 09 39 03                  	mul	s3, s2, s3
8000067c: 63 c0 44 07                  	blt	s1, s4, 96
80000680: 6f 00 00 08                  	j	128
80000684: 03 47 e4 01                  	lbu	a4, 30(s0)
80000688: 83 46 d4 01                  	lbu	a3, 29(s0)
8000068c: 33 d7 e4 40                  	sra	a4, s1, a4
80000690: b3 07 37 03                  	mul	a5, a4, s3
80000694: b3 87 f4 40                  	sub	a5, s1, a5
80000698: 63 80 06 06                  	beqz	a3, 96
8000069c: 83 46 f4 01                  	lbu	a3, 31(s0)
800006a0: b3 d6 d7 40                  	sra	a3, a5, a3
800006a4: b3 88 26 03                  	mul	a7, a3, s2
800006a8: 03 ae 45 01                  	lw	t3, 20(a1)
800006ac: 03 a3 05 01                  	lw	t1, 16(a1)
800006b0: 03 a6 c5 00                  	lw	a2, 12(a1)
800006b4: 03 28 44 00                  	lw	a6, 4(s0)
800006b8: 03 25 84 00                  	lw	a0, 8(s0)
800006bc: 93 84 14 00                  	addi	s1, s1, 1
800006c0: 33 07 c7 01                  	add	a4, a4, t3
800006c4: b3 86 66 00                  	add	a3, a3, t1
800006c8: b3 87 17 41                  	sub	a5, a5, a7
800006cc: 33 86 c7 00                  	add	a2, a5, a2
800006d0: e7 00 08 00                  	jalr	a6
800006d4: 63 06 9a 02                  	beq	s4, s1, 44
800006d8: 83 25 04 00                  	lw	a1, 0(s0)
800006dc: 83 47 c4 01                  	lbu	a5, 28(s0)
800006e0: e3 92 07 fa                  	bnez	a5, -92
800006e4: 33 c7 34 03                  	div	a4, s1, s3
800006e8: 83 46 d4 01                  	lbu	a3, 29(s0)
800006ec: b3 07 37 03                  	mul	a5, a4, s3
800006f0: b3 87 f4 40                  	sub	a5, s1, a5
800006f4: e3 94 06 fa                  	bnez	a3, -88
800006f8: b3 c6 27 03                  	div	a3, a5, s2
800006fc: 6f f0 9f fa                  	j	-88
80000700: 03 27 84 01                  	lw	a4, 24(s0)
80000704: 93 07 00 00                  	mv	a5, zero
80000708: 6b c0 e7 00                  	vx_bar	a5, a4
8000070c: 83 20 c1 01                  	lw	ra, 28(sp)
80000710: 03 24 81 01                  	lw	s0, 24(sp)
80000714: 83 24 41 01                  	lw	s1, 20(sp)
80000718: 03 29 01 01                  	lw	s2, 16(sp)
8000071c: 83 29 c1 00                  	lw	s3, 12(sp)
80000720: 03 2a 81 00                  	lw	s4, 8(sp)
80000724: 13 01 01 02                  	addi	sp, sp, 32
80000728: 67 80 00 00                  	ret

8000072c spawn_kernel_rem_stub:
8000072c: f3 26 50 cc                  	csrr	a3, 3269
80000730: f3 27 20 cc                  	csrr	a5, 3266
80000734: 37 27 00 80                  	lui	a4, 524290
80000738: 93 96 26 00                  	slli	a3, a3, 2
8000073c: 13 07 c7 46                  	addi	a4, a4, 1132
80000740: 33 07 d7 00                  	add	a4, a4, a3
80000744: 03 25 07 00                  	lw	a0, 0(a4)
80000748: 83 25 05 00                  	lw	a1, 0(a0)
8000074c: 83 26 c5 00                  	lw	a3, 12(a0)
80000750: 03 47 c5 01                  	lbu	a4, 28(a0)
80000754: 83 a8 05 00                  	lw	a7, 0(a1)
80000758: 03 a6 45 00                  	lw	a2, 4(a1)
8000075c: b3 87 d7 00                  	add	a5, a5, a3
80000760: 33 86 c8 02                  	mul	a2, a7, a2
80000764: 63 08 07 04                  	beqz	a4, 80
80000768: 03 47 e5 01                  	lbu	a4, 30(a0)
8000076c: 83 46 d5 01                  	lbu	a3, 29(a0)
80000770: 33 d7 e7 40                  	sra	a4, a5, a4
80000774: 33 06 c7 02                  	mul	a2, a4, a2
80000778: b3 87 c7 40                  	sub	a5, a5, a2
8000077c: 63 86 06 04                  	beqz	a3, 76
80000780: 83 46 f5 01                  	lbu	a3, 31(a0)
80000784: 33 d8 d7 40                  	sra	a6, a5, a3
80000788: 83 a6 05 01                  	lw	a3, 16(a1)
8000078c: 03 ae 45 01                  	lw	t3, 20(a1)
80000790: 03 a6 c5 00                  	lw	a2, 12(a1)
80000794: b3 06 d8 00                  	add	a3, a6, a3
80000798: 33 08 18 03                  	mul	a6, a6, a7
8000079c: 03 23 45 00                  	lw	t1, 4(a0)
800007a0: 03 25 85 00                  	lw	a0, 8(a0)
800007a4: 33 07 c7 01                  	add	a4, a4, t3
800007a8: b3 87 07 41                  	sub	a5, a5, a6
800007ac: 33 86 c7 00                  	add	a2, a5, a2
800007b0: 67 00 03 00                  	jr	t1
800007b4: 33 c7 c7 02                  	div	a4, a5, a2
800007b8: 83 46 d5 01                  	lbu	a3, 29(a0)
800007bc: 33 06 c7 02                  	mul	a2, a4, a2
800007c0: b3 87 c7 40                  	sub	a5, a5, a2
800007c4: e3 9e 06 fa                  	bnez	a3, -68
800007c8: 33 c8 17 03                  	div	a6, a5, a7
800007cc: 6f f0 df fb                  	j	-68

800007d0 spawn_kernel_all_cb:
800007d0: 13 01 01 ff                  	addi	sp, sp, -16
800007d4: 23 26 11 00                  	sw	ra, 12(sp)
800007d8: 93 07 f0 ff                  	addi	a5, zero, -1
800007dc: 6b 80 07 00                  	vx_tmc	a5
800007e0: ef f0 1f e1                  	jal	-496
800007e4: f3 27 30 cc                  	csrr	a5, 3267
800007e8: 93 b7 17 00                  	seqz	a5, a5
800007ec: 6b 80 07 00                  	vx_tmc	a5
800007f0: 83 20 c1 00                  	lw	ra, 12(sp)
800007f4: 13 01 01 01                  	addi	sp, sp, 16
800007f8: 67 80 00 00                  	ret

800007fc vx_spawn_kernel:
800007fc: 13 01 01 fd                  	addi	sp, sp, -48
80000800: 23 26 11 02                  	sw	ra, 44(sp)
80000804: 23 24 81 02                  	sw	s0, 40(sp)
80000808: 23 22 91 02                  	sw	s1, 36(sp)
8000080c: 23 20 21 03                  	sw	s2, 32(sp)
80000810: f3 28 20 fc                  	csrr	a7, 4034
80000814: 73 23 10 fc                  	csrr	t1, 4033
80000818: f3 24 00 fc                  	csrr	s1, 4032
8000081c: f3 27 50 cc                  	csrr	a5, 3269
80000820: 13 07 f0 01                  	addi	a4, zero, 31
80000824: 63 46 f7 0e                  	blt	a4, a5, 236
80000828: 03 2e 05 00                  	lw	t3, 0(a0)
8000082c: 83 26 45 00                  	lw	a3, 4(a0)
80000830: 03 28 85 00                  	lw	a6, 8(a0)
80000834: b3 0e 93 02                  	mul	t4, t1, s1
80000838: 13 07 10 00                  	addi	a4, zero, 1
8000083c: b3 06 de 02                  	mul	a3, t3, a3
80000840: 33 88 06 03                  	mul	a6, a3, a6
80000844: 63 d4 0e 01                  	bge	t4, a6, 8
80000848: 33 47 d8 03                  	div	a4, a6, t4
8000084c: 63 ce e8 0c                  	blt	a7, a4, 220
80000850: 63 d0 e7 0c                  	bge	a5, a4, 192
80000854: 93 88 f8 ff                  	addi	a7, a7, -1
80000858: b3 4e e8 02                  	div	t4, a6, a4
8000085c: 13 84 0e 00                  	mv	s0, t4
80000860: 63 96 f8 00                  	bne	a7, a5, 12
80000864: 33 67 e8 02                  	rem	a4, a6, a4
80000868: 33 04 d7 01                  	add	s0, a4, t4
8000086c: 33 49 94 02                  	div	s2, s0, s1
80000870: 33 64 94 02                  	rem	s0, s0, s1
80000874: 63 40 69 0c                  	blt	s2, t1, 192
80000878: 93 0f 10 00                  	addi	t6, zero, 1
8000087c: 33 4f 69 02                  	div	t5, s2, t1
80000880: 63 06 0f 00                  	beqz	t5, 12
80000884: 93 0f 0f 00                  	mv	t6, t5
80000888: 33 6f 69 02                  	rem	t5, s2, t1
8000088c: d3 f7 06 d0                  	fcvt.s.w	fa5, a3
80000890: 13 07 fe ff                  	addi	a4, t3, -1
80000894: 93 82 f6 ff                  	addi	t0, a3, -1
80000898: d3 88 07 e0                  	fmv.x.w	a7, fa5
8000089c: d3 77 0e d0                  	fcvt.s.w	fa5, t3
800008a0: 33 7e c7 01                  	and	t3, a4, t3
800008a4: 37 27 00 80                  	lui	a4, 524290
800008a8: 53 88 07 e0                  	fmv.x.w	a6, fa5
800008ac: b3 f6 d2 00                  	and	a3, t0, a3
800008b0: 93 d8 78 41                  	srai	a7, a7, 23
800008b4: 13 58 78 41                  	srai	a6, a6, 23
800008b8: 13 07 c7 46                  	addi	a4, a4, 1132
800008bc: 93 b6 16 00                  	seqz	a3, a3
800008c0: 13 3e 1e 00                  	seqz	t3, t3
800008c4: 93 88 18 f8                  	addi	a7, a7, -127
800008c8: 13 08 18 f8                  	addi	a6, a6, -127
800008cc: 23 20 a1 00                  	sw	a0, 0(sp)
800008d0: 23 22 b1 00                  	sw	a1, 4(sp)
800008d4: 23 24 c1 00                  	sw	a2, 8(sp)
800008d8: 23 28 f1 01                  	sw	t6, 16(sp)
800008dc: 23 2a e1 01                  	sw	t5, 20(sp)
800008e0: 23 2c 01 00                  	sw	zero, 24(sp)
800008e4: 23 0e d1 00                  	sb	a3, 28(sp)
800008e8: a3 0e c1 01                  	sb	t3, 29(sp)
800008ec: 23 0f 11 01                  	sb	a7, 30(sp)
800008f0: a3 0f 01 01                  	sb	a6, 31(sp)
800008f4: b3 8e fe 02                  	mul	t4, t4, a5
800008f8: 93 97 27 00                  	slli	a5, a5, 2
800008fc: b3 07 f7 00                  	add	a5, a4, a5
80000900: 23 a0 27 00                  	sw	sp, 0(a5)
80000904: 23 26 d1 01                  	sw	t4, 12(sp)
80000908: 63 4c 20 03                  	bgtz	s2, 56
8000090c: 63 16 04 06                  	bnez	s0, 108
80000910: 83 20 c1 02                  	lw	ra, 44(sp)
80000914: 03 24 81 02                  	lw	s0, 40(sp)
80000918: 83 24 41 02                  	lw	s1, 36(sp)
8000091c: 03 29 01 02                  	lw	s2, 32(sp)
80000920: 13 01 01 03                  	addi	sp, sp, 48
80000924: 67 80 00 00                  	ret
80000928: 13 87 08 00                  	mv	a4, a7
8000092c: e3 c4 e7 f2                  	blt	a5, a4, -216
80000930: 6f f0 1f fe                  	j	-32
80000934: 13 0f 00 00                  	mv	t5, zero
80000938: 93 0f 10 00                  	addi	t6, zero, 1
8000093c: 6f f0 1f f5                  	j	-176
80000940: 13 07 09 00                  	mv	a4, s2
80000944: 63 54 23 01                  	bge	t1, s2, 8
80000948: 13 07 03 00                  	mv	a4, t1
8000094c: b7 07 00 80                  	lui	a5, 524288
80000950: 23 2c e1 00                  	sw	a4, 24(sp)
80000954: 93 87 07 7d                  	addi	a5, a5, 2000
80000958: 6b 10 f7 00                  	vx_wspawn	a4, a5
8000095c: 93 07 f0 ff                  	addi	a5, zero, -1
80000960: 6b 80 07 00                  	vx_tmc	a5
80000964: ef f0 df c8                  	jal	-884
80000968: f3 27 30 cc                  	csrr	a5, 3267
8000096c: 93 b7 17 00                  	seqz	a5, a5
80000970: 6b 80 07 00                  	vx_tmc	a5
80000974: e3 0e 04 f8                  	beqz	s0, -100
80000978: b3 04 99 02                  	mul	s1, s2, s1
8000097c: 13 09 10 00                  	addi	s2, zero, 1
80000980: 33 14 89 00                  	sll	s0, s2, s0
80000984: 13 04 f4 ff                  	addi	s0, s0, -1
80000988: 23 26 91 00                  	sw	s1, 12(sp)
8000098c: 6b 00 04 00                  	vx_tmc	s0
80000990: ef f0 df d9                  	jal	-612
80000994: 6b 00 09 00                  	vx_tmc	s2
80000998: 83 20 c1 02                  	lw	ra, 44(sp)
8000099c: 03 24 81 02                  	lw	s0, 40(sp)
800009a0: 83 24 41 02                  	lw	s1, 36(sp)
800009a4: 03 29 01 02                  	lw	s2, 32(sp)
800009a8: 13 01 01 03                  	addi	sp, sp, 48
800009ac: 67 80 00 00                  	ret

800009b0 vx_perf_dump:
800009b0: f3 27 50 cc                  	csrr	a5, 3269
800009b4: 37 07 ff 00                  	lui	a4, 4080
800009b8: b3 87 e7 00                  	add	a5, a5, a4
800009bc: 93 97 87 00                  	slli	a5, a5, 8
800009c0: 73 27 00 b0                  	csrr	a4, mcycle
800009c4: 23 a0 e7 00                  	sw	a4, 0(a5)
800009c8: 73 27 10 b0                  	csrr	a4, 2817
800009cc: 23 a2 e7 00                  	sw	a4, 4(a5)
800009d0: 73 27 20 b0                  	csrr	a4, minstret
800009d4: 23 a4 e7 00                  	sw	a4, 8(a5)
800009d8: 73 27 30 b0                  	csrr	a4, mhpmcounter3
800009dc: 23 a6 e7 00                  	sw	a4, 12(a5)
800009e0: 73 27 40 b0                  	csrr	a4, mhpmcounter4
800009e4: 23 a8 e7 00                  	sw	a4, 16(a5)
800009e8: 73 27 50 b0                  	csrr	a4, mhpmcounter5
800009ec: 23 aa e7 00                  	sw	a4, 20(a5)
800009f0: 73 27 60 b0                  	csrr	a4, mhpmcounter6
800009f4: 23 ac e7 00                  	sw	a4, 24(a5)
800009f8: 73 27 70 b0                  	csrr	a4, mhpmcounter7
800009fc: 23 ae e7 00                  	sw	a4, 28(a5)
80000a00: 73 27 80 b0                  	csrr	a4, mhpmcounter8
80000a04: 23 a0 e7 02                  	sw	a4, 32(a5)
80000a08: 73 27 90 b0                  	csrr	a4, mhpmcounter9
80000a0c: 23 a2 e7 02                  	sw	a4, 36(a5)
80000a10: 73 27 a0 b0                  	csrr	a4, mhpmcounter10
80000a14: 23 a4 e7 02                  	sw	a4, 40(a5)
80000a18: 73 27 b0 b0                  	csrr	a4, mhpmcounter11
80000a1c: 23 a6 e7 02                  	sw	a4, 44(a5)
80000a20: 73 27 c0 b0                  	csrr	a4, mhpmcounter12
80000a24: 23 a8 e7 02                  	sw	a4, 48(a5)
80000a28: 73 27 d0 b0                  	csrr	a4, mhpmcounter13
80000a2c: 23 aa e7 02                  	sw	a4, 52(a5)
80000a30: 73 27 e0 b0                  	csrr	a4, mhpmcounter14
80000a34: 23 ac e7 02                  	sw	a4, 56(a5)
80000a38: 73 27 f0 b0                  	csrr	a4, mhpmcounter15
80000a3c: 23 ae e7 02                  	sw	a4, 60(a5)
80000a40: 73 27 00 b1                  	csrr	a4, mhpmcounter16
80000a44: 23 a0 e7 04                  	sw	a4, 64(a5)
80000a48: 73 27 10 b1                  	csrr	a4, mhpmcounter17
80000a4c: 23 a2 e7 04                  	sw	a4, 68(a5)
80000a50: 73 27 20 b1                  	csrr	a4, mhpmcounter18
80000a54: 23 a4 e7 04                  	sw	a4, 72(a5)
80000a58: 73 27 30 b1                  	csrr	a4, mhpmcounter19
80000a5c: 23 a6 e7 04                  	sw	a4, 76(a5)
80000a60: 73 27 40 b1                  	csrr	a4, mhpmcounter20
80000a64: 23 a8 e7 04                  	sw	a4, 80(a5)
80000a68: 73 27 50 b1                  	csrr	a4, mhpmcounter21
80000a6c: 23 aa e7 04                  	sw	a4, 84(a5)
80000a70: 73 27 60 b1                  	csrr	a4, mhpmcounter22
80000a74: 23 ac e7 04                  	sw	a4, 88(a5)
80000a78: 73 27 70 b1                  	csrr	a4, mhpmcounter23
80000a7c: 23 ae e7 04                  	sw	a4, 92(a5)
80000a80: 73 27 80 b1                  	csrr	a4, mhpmcounter24
80000a84: 23 a0 e7 06                  	sw	a4, 96(a5)
80000a88: 73 27 90 b1                  	csrr	a4, mhpmcounter25
80000a8c: 23 a2 e7 06                  	sw	a4, 100(a5)
80000a90: 73 27 a0 b1                  	csrr	a4, mhpmcounter26
80000a94: 23 a4 e7 06                  	sw	a4, 104(a5)
80000a98: 73 27 b0 b1                  	csrr	a4, mhpmcounter27
80000a9c: 23 a6 e7 06                  	sw	a4, 108(a5)
80000aa0: 73 27 c0 b1                  	csrr	a4, mhpmcounter28
80000aa4: 23 a8 e7 06                  	sw	a4, 112(a5)
80000aa8: 73 27 d0 b1                  	csrr	a4, mhpmcounter29
80000aac: 23 aa e7 06                  	sw	a4, 116(a5)
80000ab0: 73 27 e0 b1                  	csrr	a4, mhpmcounter30
80000ab4: 23 ac e7 06                  	sw	a4, 120(a5)
80000ab8: 73 27 f0 b1                  	csrr	a4, mhpmcounter31
80000abc: 23 ae e7 06                  	sw	a4, 124(a5)
80000ac0: 73 27 00 b8                  	csrr	a4, mcycleh
80000ac4: 23 a0 e7 08                  	sw	a4, 128(a5)
80000ac8: 73 27 10 b8                  	csrr	a4, 2945
80000acc: 23 a2 e7 08                  	sw	a4, 132(a5)
80000ad0: 73 27 20 b8                  	csrr	a4, minstreth
80000ad4: 23 a4 e7 08                  	sw	a4, 136(a5)
80000ad8: 73 27 30 b8                  	csrr	a4, mhpmcounter3h
80000adc: 23 a6 e7 08                  	sw	a4, 140(a5)
80000ae0: 73 27 40 b8                  	csrr	a4, mhpmcounter4h
80000ae4: 23 a8 e7 08                  	sw	a4, 144(a5)
80000ae8: 73 27 50 b8                  	csrr	a4, mhpmcounter5h
80000aec: 23 aa e7 08                  	sw	a4, 148(a5)
80000af0: 73 27 60 b8                  	csrr	a4, mhpmcounter6h
80000af4: 23 ac e7 08                  	sw	a4, 152(a5)
80000af8: 73 27 70 b8                  	csrr	a4, mhpmcounter7h
80000afc: 23 ae e7 08                  	sw	a4, 156(a5)
80000b00: 73 27 80 b8                  	csrr	a4, mhpmcounter8h
80000b04: 23 a0 e7 0a                  	sw	a4, 160(a5)
80000b08: 73 27 90 b8                  	csrr	a4, mhpmcounter9h
80000b0c: 23 a2 e7 0a                  	sw	a4, 164(a5)
80000b10: 73 27 a0 b8                  	csrr	a4, mhpmcounter10h
80000b14: 23 a4 e7 0a                  	sw	a4, 168(a5)
80000b18: 73 27 b0 b8                  	csrr	a4, mhpmcounter11h
80000b1c: 23 a6 e7 0a                  	sw	a4, 172(a5)
80000b20: 73 27 c0 b8                  	csrr	a4, mhpmcounter12h
80000b24: 23 a8 e7 0a                  	sw	a4, 176(a5)
80000b28: 73 27 d0 b8                  	csrr	a4, mhpmcounter13h
80000b2c: 23 aa e7 0a                  	sw	a4, 180(a5)
80000b30: 73 27 e0 b8                  	csrr	a4, mhpmcounter14h
80000b34: 23 ac e7 0a                  	sw	a4, 184(a5)
80000b38: 73 27 f0 b8                  	csrr	a4, mhpmcounter15h
80000b3c: 23 ae e7 0a                  	sw	a4, 188(a5)
80000b40: 73 27 00 b9                  	csrr	a4, mhpmcounter16h
80000b44: 23 a0 e7 0c                  	sw	a4, 192(a5)
80000b48: 73 27 10 b9                  	csrr	a4, mhpmcounter17h
80000b4c: 23 a2 e7 0c                  	sw	a4, 196(a5)
80000b50: 73 27 20 b9                  	csrr	a4, mhpmcounter18h
80000b54: 23 a4 e7 0c                  	sw	a4, 200(a5)
80000b58: 73 27 30 b9                  	csrr	a4, mhpmcounter19h
80000b5c: 23 a6 e7 0c                  	sw	a4, 204(a5)
80000b60: 73 27 40 b9                  	csrr	a4, mhpmcounter20h
80000b64: 23 a8 e7 0c                  	sw	a4, 208(a5)
80000b68: 73 27 50 b9                  	csrr	a4, mhpmcounter21h
80000b6c: 23 aa e7 0c                  	sw	a4, 212(a5)
80000b70: 73 27 60 b9                  	csrr	a4, mhpmcounter22h
80000b74: 23 ac e7 0c                  	sw	a4, 216(a5)
80000b78: 73 27 70 b9                  	csrr	a4, mhpmcounter23h
80000b7c: 23 ae e7 0c                  	sw	a4, 220(a5)
80000b80: 73 27 80 b9                  	csrr	a4, mhpmcounter24h
80000b84: 23 a0 e7 0e                  	sw	a4, 224(a5)
80000b88: 73 27 90 b9                  	csrr	a4, mhpmcounter25h
80000b8c: 23 a2 e7 0e                  	sw	a4, 228(a5)
80000b90: 73 27 a0 b9                  	csrr	a4, mhpmcounter26h
80000b94: 23 a4 e7 0e                  	sw	a4, 232(a5)
80000b98: 73 27 b0 b9                  	csrr	a4, mhpmcounter27h
80000b9c: 23 a6 e7 0e                  	sw	a4, 236(a5)
80000ba0: 73 27 c0 b9                  	csrr	a4, mhpmcounter28h
80000ba4: 23 a8 e7 0e                  	sw	a4, 240(a5)
80000ba8: 73 27 d0 b9                  	csrr	a4, mhpmcounter29h
80000bac: 23 aa e7 0e                  	sw	a4, 244(a5)
80000bb0: 73 27 e0 b9                  	csrr	a4, mhpmcounter30h
80000bb4: 23 ac e7 0e                  	sw	a4, 248(a5)
80000bb8: 73 27 f0 b9                  	csrr	a4, mhpmcounter31h
80000bbc: 23 ae e7 0e                  	sw	a4, 252(a5)
80000bc0: 67 80 00 00                  	ret

80000bc4 sqrtf:
80000bc4: 13 01 01 fe                  	addi	sp, sp, -32
80000bc8: 27 26 81 00                  	fsw	fs0, 12(sp)
80000bcc: 23 2e 11 00                  	sw	ra, 28(sp)
80000bd0: 53 04 a5 20                  	fmv.s	fs0, fa0
80000bd4: 27 24 91 00                  	fsw	fs1, 8(sp)
80000bd8: ef 00 00 06                  	jal	96
80000bdc: b7 27 00 80                  	lui	a5, 524290
80000be0: 03 a7 87 46                  	lw	a4, 1128(a5)
80000be4: 93 07 f0 ff                  	addi	a5, zero, -1
80000be8: 63 0c f7 00                  	beq	a4, a5, 24
80000bec: d3 27 84 a0                  	feq.s	a5, fs0, fs0
80000bf0: 63 88 07 00                  	beqz	a5, 16
80000bf4: d3 04 00 f0                  	fmv.w.x	fs1, zero
80000bf8: d3 17 94 a0                  	flt.s	a5, fs0, fs1
80000bfc: 63 9c 07 00                  	bnez	a5, 24
80000c00: 83 20 c1 01                  	lw	ra, 28(sp)
80000c04: 07 24 c1 00                  	flw	fs0, 12(sp)
80000c08: 87 24 81 00                  	flw	fs1, 8(sp)
80000c0c: 13 01 01 02                  	addi	sp, sp, 32
80000c10: 67 80 00 00                  	ret
80000c14: ef 00 40 14                  	jal	324
80000c18: 83 20 c1 01                  	lw	ra, 28(sp)
80000c1c: 93 07 10 02                  	addi	a5, zero, 33
80000c20: 23 20 f5 00                  	sw	a5, 0(a0)
80000c24: 53 f5 94 18                  	fdiv.s	fa0, fs1, fs1
80000c28: 07 24 c1 00                  	flw	fs0, 12(sp)
80000c2c: 87 24 81 00                  	flw	fs1, 8(sp)
80000c30: 13 01 01 02                  	addi	sp, sp, 32
80000c34: 67 80 00 00                  	ret

80000c38 __ieee754_sqrtf:
80000c38: d3 06 05 e0                  	fmv.x.w	a3, fa0
80000c3c: 37 07 80 7f                  	lui	a4, 522240
80000c40: 93 97 16 00                  	slli	a5, a3, 1
80000c44: 93 d7 17 00                  	srli	a5, a5, 1
80000c48: 63 f2 e7 0c                  	bgeu	a5, a4, 196
80000c4c: 53 05 05 e0                  	fmv.x.w	a0, fa0
80000c50: 63 8a 07 0a                  	beqz	a5, 180
80000c54: 93 87 06 00                  	mv	a5, a3
80000c58: 63 c6 06 0c                  	bltz	a3, 204
80000c5c: 33 76 d7 00                  	and	a2, a4, a3
80000c60: 13 d7 76 41                  	srai	a4, a3, 23
80000c64: 63 14 06 02                  	bnez	a2, 40
80000c68: 37 06 80 00                  	lui	a2, 2048
80000c6c: b3 76 d6 00                  	and	a3, a2, a3
80000c70: 63 94 06 0c                  	bnez	a3, 200
80000c74: 93 97 17 00                  	slli	a5, a5, 1
80000c78: 93 95 87 00                  	slli	a1, a5, 8
80000c7c: 13 86 06 00                  	mv	a2, a3
80000c80: 93 86 16 00                  	addi	a3, a3, 1
80000c84: e3 d8 05 fe                  	bgez	a1, -16
80000c88: 33 07 c7 40                  	sub	a4, a4, a2
80000c8c: b7 06 80 00                  	lui	a3, 2048
80000c90: 13 86 f6 ff                  	addi	a2, a3, -1
80000c94: b3 f7 c7 00                  	and	a5, a5, a2
80000c98: 13 07 17 f8                  	addi	a4, a4, -127
80000c9c: b3 e6 d7 00                  	or	a3, a5, a3
80000ca0: 13 76 17 00                  	andi	a2, a4, 1
80000ca4: 93 97 16 00                  	slli	a5, a3, 1
80000ca8: 63 1a 06 06                  	bnez	a2, 116
80000cac: 13 58 17 40                  	srai	a6, a4, 1
80000cb0: 93 06 90 01                  	addi	a3, zero, 25
80000cb4: 13 05 00 00                  	mv	a0, zero
80000cb8: 93 05 00 00                  	mv	a1, zero
80000cbc: 37 07 00 01                  	lui	a4, 4096
80000cc0: 33 86 e5 00                  	add	a2, a1, a4
80000cc4: 93 86 f6 ff                  	addi	a3, a3, -1
80000cc8: 63 c8 c7 00                  	blt	a5, a2, 16
80000ccc: b3 05 e6 00                  	add	a1, a2, a4
80000cd0: b3 87 c7 40                  	sub	a5, a5, a2
80000cd4: 33 05 e5 00                  	add	a0, a0, a4
80000cd8: 93 97 17 00                  	slli	a5, a5, 1
80000cdc: 13 57 17 00                  	srli	a4, a4, 1
80000ce0: e3 90 06 fe                  	bnez	a3, -32
80000ce4: 63 86 07 00                  	beqz	a5, 12
80000ce8: 13 05 15 00                  	addi	a0, a0, 1
80000cec: 13 75 e5 ff                  	andi	a0, a0, -2
80000cf0: 13 55 15 40                  	srai	a0, a0, 1
80000cf4: b7 07 00 3f                  	lui	a5, 258048
80000cf8: 33 05 f5 00                  	add	a0, a0, a5
80000cfc: 13 17 78 01                  	slli	a4, a6, 23
80000d00: 33 05 a7 00                  	add	a0, a4, a0
80000d04: 53 05 05 f0                  	fmv.w.x	fa0, a0
80000d08: 67 80 00 00                  	ret
80000d0c: c3 77 a5 50                  	fmadd.s	fa5, fa0, fa0, fa0
80000d10: 53 85 07 e0                  	fmv.x.w	a0, fa5
80000d14: 53 05 05 f0                  	fmv.w.x	fa0, a0
80000d18: 67 80 00 00                  	ret
80000d1c: 93 97 26 00                  	slli	a5, a3, 2
80000d20: 6f f0 df f8                  	j	-116
80000d24: d3 77 a5 08                  	fsub.s	fa5, fa0, fa0
80000d28: d3 f7 f7 18                  	fdiv.s	fa5, fa5, fa5
80000d2c: 53 85 07 e0                  	fmv.x.w	a0, fa5
80000d30: 53 05 05 f0                  	fmv.w.x	fa0, a0
80000d34: 67 80 00 00                  	ret
80000d38: 13 06 f0 ff                  	addi	a2, zero, -1
80000d3c: 33 07 c7 40                  	sub	a4, a4, a2
80000d40: 6f f0 df f4                  	j	-180

80000d44 atexit:
80000d44: 93 05 05 00                  	mv	a1, a0
80000d48: 93 06 00 00                  	mv	a3, zero
80000d4c: 13 06 00 00                  	mv	a2, zero
80000d50: 13 05 00 00                  	mv	a0, zero
80000d54: 6f 00 00 12                  	j	288

80000d58 __errno:
80000d58: b7 27 00 80                  	lui	a5, 524290
80000d5c: 03 a5 47 46                  	lw	a0, 1124(a5)
80000d60: 67 80 00 00                  	ret

80000d64 exit:
80000d64: 13 01 01 ff                  	addi	sp, sp, -16
80000d68: 93 05 00 00                  	mv	a1, zero
80000d6c: 23 24 81 00                  	sw	s0, 8(sp)
80000d70: 23 26 11 00                  	sw	ra, 12(sp)
80000d74: 13 04 05 00                  	mv	s0, a0
80000d78: ef 00 80 19                  	jal	408
80000d7c: b7 27 00 80                  	lui	a5, 524290
80000d80: 03 a5 07 46                  	lw	a0, 1120(a5)
80000d84: 83 27 c5 03                  	lw	a5, 60(a0)
80000d88: 63 84 07 00                  	beqz	a5, 8
80000d8c: e7 80 07 00                  	jalr	a5
80000d90: 13 05 04 00                  	mv	a0, s0
80000d94: ef f0 8f f1                  	jal	-2280

80000d98 memset:
80000d98: 13 03 f0 00                  	addi	t1, zero, 15
80000d9c: 13 07 05 00                  	mv	a4, a0
80000da0: 63 7e c3 02                  	bgeu	t1, a2, 60
80000da4: 93 77 f7 00                  	andi	a5, a4, 15
80000da8: 63 90 07 0a                  	bnez	a5, 160
80000dac: 63 92 05 08                  	bnez	a1, 132
80000db0: 93 76 06 ff                  	andi	a3, a2, -16
80000db4: 13 76 f6 00                  	andi	a2, a2, 15
80000db8: b3 86 e6 00                  	add	a3, a3, a4
80000dbc: 23 20 b7 00                  	sw	a1, 0(a4)
80000dc0: 23 22 b7 00                  	sw	a1, 4(a4)
80000dc4: 23 24 b7 00                  	sw	a1, 8(a4)
80000dc8: 23 26 b7 00                  	sw	a1, 12(a4)
80000dcc: 13 07 07 01                  	addi	a4, a4, 16
80000dd0: e3 66 d7 fe                  	bltu	a4, a3, -20
80000dd4: 63 14 06 00                  	bnez	a2, 8
80000dd8: 67 80 00 00                  	ret
80000ddc: b3 06 c3 40                  	sub	a3, t1, a2
80000de0: 93 96 26 00                  	slli	a3, a3, 2
80000de4: 97 02 00 00                  	auipc	t0, 0
80000de8: b3 86 56 00                  	add	a3, a3, t0
80000dec: 67 80 c6 00                  	jr	12(a3)
80000df0: 23 07 b7 00                  	sb	a1, 14(a4)
80000df4: a3 06 b7 00                  	sb	a1, 13(a4)
80000df8: 23 06 b7 00                  	sb	a1, 12(a4)
80000dfc: a3 05 b7 00                  	sb	a1, 11(a4)
80000e00: 23 05 b7 00                  	sb	a1, 10(a4)
80000e04: a3 04 b7 00                  	sb	a1, 9(a4)
80000e08: 23 04 b7 00                  	sb	a1, 8(a4)
80000e0c: a3 03 b7 00                  	sb	a1, 7(a4)
80000e10: 23 03 b7 00                  	sb	a1, 6(a4)
80000e14: a3 02 b7 00                  	sb	a1, 5(a4)
80000e18: 23 02 b7 00                  	sb	a1, 4(a4)
80000e1c: a3 01 b7 00                  	sb	a1, 3(a4)
80000e20: 23 01 b7 00                  	sb	a1, 2(a4)
80000e24: a3 00 b7 00                  	sb	a1, 1(a4)
80000e28: 23 00 b7 00                  	sb	a1, 0(a4)
80000e2c: 67 80 00 00                  	ret
80000e30: 93 f5 f5 0f                  	andi	a1, a1, 255
80000e34: 93 96 85 00                  	slli	a3, a1, 8
80000e38: b3 e5 d5 00                  	or	a1, a1, a3
80000e3c: 93 96 05 01                  	slli	a3, a1, 16
80000e40: b3 e5 d5 00                  	or	a1, a1, a3
80000e44: 6f f0 df f6                  	j	-148
80000e48: 93 96 27 00                  	slli	a3, a5, 2
80000e4c: 97 02 00 00                  	auipc	t0, 0
80000e50: b3 86 56 00                  	add	a3, a3, t0
80000e54: 93 82 00 00                  	mv	t0, ra
80000e58: e7 80 06 fa                  	jalr	-96(a3)
80000e5c: 93 80 02 00                  	mv	ra, t0
80000e60: 93 87 07 ff                  	addi	a5, a5, -16
80000e64: 33 07 f7 40                  	sub	a4, a4, a5
80000e68: 33 06 f6 00                  	add	a2, a2, a5
80000e6c: e3 78 c3 f6                  	bgeu	t1, a2, -144
80000e70: 6f f0 df f3                  	j	-196

80000e74 __register_exitproc:
80000e74: b7 27 00 80                  	lui	a5, 524290
80000e78: 03 a7 07 46                  	lw	a4, 1120(a5)
80000e7c: 83 27 87 14                  	lw	a5, 328(a4)
80000e80: 63 8c 07 04                  	beqz	a5, 88
80000e84: 03 a7 47 00                  	lw	a4, 4(a5)
80000e88: 13 08 f0 01                  	addi	a6, zero, 31
80000e8c: 63 4e e8 06                  	blt	a6, a4, 124
80000e90: 13 18 27 00                  	slli	a6, a4, 2
80000e94: 63 06 05 02                  	beqz	a0, 44
80000e98: 33 83 07 01                  	add	t1, a5, a6
80000e9c: 23 24 c3 08                  	sw	a2, 136(t1)
80000ea0: 83 a8 87 18                  	lw	a7, 392(a5)
80000ea4: 13 06 10 00                  	addi	a2, zero, 1
80000ea8: 33 16 e6 00                  	sll	a2, a2, a4
80000eac: b3 e8 c8 00                  	or	a7, a7, a2
80000eb0: 23 a4 17 19                  	sw	a7, 392(a5)
80000eb4: 23 24 d3 10                  	sw	a3, 264(t1)
80000eb8: 93 06 20 00                  	addi	a3, zero, 2
80000ebc: 63 04 d5 02                  	beq	a0, a3, 40
80000ec0: 13 07 17 00                  	addi	a4, a4, 1
80000ec4: 23 a2 e7 00                  	sw	a4, 4(a5)
80000ec8: b3 87 07 01                  	add	a5, a5, a6
80000ecc: 23 a4 b7 00                  	sw	a1, 8(a5)
80000ed0: 13 05 00 00                  	mv	a0, zero
80000ed4: 67 80 00 00                  	ret
80000ed8: 93 07 c7 14                  	addi	a5, a4, 332
80000edc: 23 24 f7 14                  	sw	a5, 328(a4)
80000ee0: 6f f0 5f fa                  	j	-92
80000ee4: 83 a6 c7 18                  	lw	a3, 396(a5)
80000ee8: 13 07 17 00                  	addi	a4, a4, 1
80000eec: 23 a2 e7 00                  	sw	a4, 4(a5)
80000ef0: 33 e6 c6 00                  	or	a2, a3, a2
80000ef4: 23 a6 c7 18                  	sw	a2, 396(a5)
80000ef8: b3 87 07 01                  	add	a5, a5, a6
80000efc: 23 a4 b7 00                  	sw	a1, 8(a5)
80000f00: 13 05 00 00                  	mv	a0, zero
80000f04: 67 80 00 00                  	ret
80000f08: 13 05 f0 ff                  	addi	a0, zero, -1
80000f0c: 67 80 00 00                  	ret

80000f10 __call_exitprocs:
80000f10: 13 01 01 fd                  	addi	sp, sp, -48
80000f14: b7 27 00 80                  	lui	a5, 524290
80000f18: 23 2c 41 01                  	sw	s4, 24(sp)
80000f1c: 03 aa 07 46                  	lw	s4, 1120(a5)
80000f20: 23 20 21 03                  	sw	s2, 32(sp)
80000f24: 23 26 11 02                  	sw	ra, 44(sp)
80000f28: 03 29 8a 14                  	lw	s2, 328(s4)
80000f2c: 23 24 81 02                  	sw	s0, 40(sp)
80000f30: 23 22 91 02                  	sw	s1, 36(sp)
80000f34: 23 2e 31 01                  	sw	s3, 28(sp)
80000f38: 23 2a 51 01                  	sw	s5, 20(sp)
80000f3c: 23 28 61 01                  	sw	s6, 16(sp)
80000f40: 23 26 71 01                  	sw	s7, 12(sp)
80000f44: 23 24 81 01                  	sw	s8, 8(sp)
80000f48: 63 00 09 04                  	beqz	s2, 64
80000f4c: 13 0b 05 00                  	mv	s6, a0
80000f50: 93 8b 05 00                  	mv	s7, a1
80000f54: 93 0a 10 00                  	addi	s5, zero, 1
80000f58: 93 09 f0 ff                  	addi	s3, zero, -1
80000f5c: 83 24 49 00                  	lw	s1, 4(s2)
80000f60: 13 84 f4 ff                  	addi	s0, s1, -1
80000f64: 63 42 04 02                  	bltz	s0, 36
80000f68: 93 94 24 00                  	slli	s1, s1, 2
80000f6c: b3 04 99 00                  	add	s1, s2, s1
80000f70: 63 84 0b 04                  	beqz	s7, 72
80000f74: 83 a7 44 10                  	lw	a5, 260(s1)
80000f78: 63 80 77 05                  	beq	a5, s7, 64
80000f7c: 13 04 f4 ff                  	addi	s0, s0, -1
80000f80: 93 84 c4 ff                  	addi	s1, s1, -4
80000f84: e3 16 34 ff                  	bne	s0, s3, -20
80000f88: 83 20 c1 02                  	lw	ra, 44(sp)
80000f8c: 03 24 81 02                  	lw	s0, 40(sp)
80000f90: 83 24 41 02                  	lw	s1, 36(sp)
80000f94: 03 29 01 02                  	lw	s2, 32(sp)
80000f98: 83 29 c1 01                  	lw	s3, 28(sp)
80000f9c: 03 2a 81 01                  	lw	s4, 24(sp)
80000fa0: 83 2a 41 01                  	lw	s5, 20(sp)
80000fa4: 03 2b 01 01                  	lw	s6, 16(sp)
80000fa8: 83 2b c1 00                  	lw	s7, 12(sp)
80000fac: 03 2c 81 00                  	lw	s8, 8(sp)
80000fb0: 13 01 01 03                  	addi	sp, sp, 48
80000fb4: 67 80 00 00                  	ret
80000fb8: 83 27 49 00                  	lw	a5, 4(s2)
80000fbc: 83 a6 44 00                  	lw	a3, 4(s1)
80000fc0: 93 87 f7 ff                  	addi	a5, a5, -1
80000fc4: 63 8e 87 04                  	beq	a5, s0, 92
80000fc8: 23 a2 04 00                  	sw	zero, 4(s1)
80000fcc: e3 88 06 fa                  	beqz	a3, -80
80000fd0: 83 27 89 18                  	lw	a5, 392(s2)
80000fd4: 33 97 8a 00                  	sll	a4, s5, s0
80000fd8: 03 2c 49 00                  	lw	s8, 4(s2)
80000fdc: b3 77 f7 00                  	and	a5, a4, a5
80000fe0: 63 92 07 02                  	bnez	a5, 36
80000fe4: e7 80 06 00                  	jalr	a3
80000fe8: 03 27 49 00                  	lw	a4, 4(s2)
80000fec: 83 27 8a 14                  	lw	a5, 328(s4)
80000ff0: 63 14 87 01                  	bne	a4, s8, 8
80000ff4: e3 04 f9 f8                  	beq	s2, a5, -120
80000ff8: e3 88 07 f8                  	beqz	a5, -112
80000ffc: 13 89 07 00                  	mv	s2, a5
80001000: 6f f0 df f5                  	j	-164
80001004: 83 27 c9 18                  	lw	a5, 396(s2)
80001008: 83 a5 44 08                  	lw	a1, 132(s1)
8000100c: 33 77 f7 00                  	and	a4, a4, a5
80001010: 63 1c 07 00                  	bnez	a4, 24
80001014: 13 05 0b 00                  	mv	a0, s6
80001018: e7 80 06 00                  	jalr	a3
8000101c: 6f f0 df fc                  	j	-52
80001020: 23 22 89 00                  	sw	s0, 4(s2)
80001024: 6f f0 9f fa                  	j	-88
80001028: 13 85 05 00                  	mv	a0, a1
8000102c: e7 80 06 00                  	jalr	a3
80001030: 6f f0 9f fb                  	j	-72

Disassembly of section .init_array:

80002034 __preinit_array_start:
80002034: 50 00                        	<unknown>
80002036: 00 80                        	<unknown>

Disassembly of section .data:

80002038 impure_data:
80002038: 00 00                        	<unknown>
8000203a: 00 00                        	<unknown>
8000203c: 24 23                        	<unknown>
8000203e: 00 80                        	<unknown>
80002040: 8c 23                        	<unknown>
80002042: 00 80                        	<unknown>
80002044: f4 23                        	<unknown>
80002046: 00 80                        	<unknown>
		...
800020e0: 01 00                        	<unknown>
800020e2: 00 00                        	<unknown>
800020e4: 00 00                        	<unknown>
800020e6: 00 00                        	<unknown>
800020e8: 0e 33                        	<unknown>
800020ea: cd ab                        	<unknown>
800020ec: 34 12                        	<unknown>
800020ee: 6d e6                        	<unknown>
800020f0: ec de                        	<unknown>
800020f2: 05 00                        	<unknown>
800020f4: 0b 00 00 00                  	<unknown>
		...

Disassembly of section .sdata:

80002460 _global_impure_ptr:
80002460: 38 20                        	<unknown>
80002462: 00 80                        	<unknown>

80002464 _impure_ptr:
80002464: 38 20                        	<unknown>
80002466: 00 80                        	<unknown>

Disassembly of section .sbss:

80002468 __fdlib_version:
...

Disassembly of section .bss:

8000246c g_wspawn_args:
...

Disassembly of section .comment:

00000000 .comment:
       0: 63 6c 61 6e                  	bltu	sp, t1, 1784
       4: 67 20 76 65                  	<unknown>
       8: 72 73                        	<unknown>
       a: 69 6f                        	<unknown>
       c: 6e 20                        	<unknown>
       e: 31 30                        	<unknown>
      10: 2e 30                        	<unknown>
      12: 2e 31                        	<unknown>
      14: 20 28                        	<unknown>
      16: 68 74                        	<unknown>
      18: 74 70                        	<unknown>
      1a: 73 3a 2f 2f                  	csrrc	s4, 754, t5
      1e: 67 69 74 68                  	<unknown>
      22: 75 62                        	<unknown>
      24: 2e 63                        	<unknown>
      26: 6f 6d 2f 6c                  	jal	s10, 1009346
      2a: 6c 76                        	<unknown>
      2c: 6d 2f                        	<unknown>
      2e: 6c 6c                        	<unknown>
      30: 76 6d                        	<unknown>
      32: 2d 70                        	<unknown>
      34: 72 6f                        	<unknown>
      36: 6a 65                        	<unknown>
      38: 63 74 2e 67                  	bgeu	t3, s2, 1640
      3c: 69 74                        	<unknown>
      3e: 20 32                        	<unknown>
      40: 61 32                        	<unknown>
      42: 33 65 66 61                  	<unknown>
      46: 63 33 35 32                  	<unknown>
      4a: 66 39                        	<unknown>
      4c: 31 39                        	<unknown>
      4e: 65 62                        	<unknown>
      50: 64 31                        	<unknown>
      52: 65 63                        	<unknown>
      54: 31 62                        	<unknown>
      56: 65 34                        	<unknown>
      58: 35 31                        	<unknown>
      5a: 34 36                        	<unknown>
      5c: 64 36                        	<unknown>
      5e: 61 39                        	<unknown>
      60: 66 61                        	<unknown>
      62: 32 31                        	<unknown>
      64: 62 35                        	<unknown>
      66: 33 29 00 47                  	<unknown>
      6a: 43 43 3a 20                  	fmadd.s	ft6, fs4, ft3, ft4, rmm
      6e: 28 47                        	<unknown>
      70: 4e 55                        	<unknown>
      72: 29 20                        	<unknown>
      74: 39 2e                        	<unknown>
      76: 32 2e                        	<unknown>
      78: 30 00                        	<unknown>

Disassembly of section .riscv.attributes:

00000000 .riscv.attributes:
       0: 41 25                        	<unknown>
       2: 00 00                        	<unknown>
       4: 00 72                        	<unknown>
       6: 69 73                        	<unknown>
       8: 63 76 00 01                  	bgeu	zero, a6, 12
       c: 1b 00 00 00                  	<unknown>
      10: 04 10                        	<unknown>
      12: 05 72                        	<unknown>
      14: 76 33                        	<unknown>
      16: 32 69                        	<unknown>
      18: 32 70                        	<unknown>
      1a: 30 5f                        	<unknown>
      1c: 6d 32                        	<unknown>
      1e: 70 30                        	<unknown>
      20: 5f 66 32 70                  	<unknown>
      24: 30 00                        	<unknown>

Disassembly of section .symtab:

00000000 .symtab:
		...
      14: 00 00                        	<unknown>
      16: 00 80                        	<unknown>
      18: 00 00                        	<unknown>
      1a: 00 00                        	<unknown>
      1c: 03 00 01 00                  	lb	zero, 0(sp)
      20: 00 00                        	<unknown>
      22: 00 00                        	<unknown>
      24: 50 00                        	<unknown>
      26: 00 80                        	<unknown>
      28: 00 00                        	<unknown>
      2a: 00 00                        	<unknown>
      2c: 03 00 02 00                  	lb	zero, 0(tp)
      30: 00 00                        	<unknown>
      32: 00 00                        	<unknown>
      34: 34 20                        	<unknown>
      36: 00 80                        	<unknown>
      38: 00 00                        	<unknown>
      3a: 00 00                        	<unknown>
      3c: 03 00 03 00                  	lb	zero, 0(t1)
      40: 00 00                        	<unknown>
      42: 00 00                        	<unknown>
      44: 38 20                        	<unknown>
      46: 00 80                        	<unknown>
      48: 00 00                        	<unknown>
      4a: 00 00                        	<unknown>
      4c: 03 00 04 00                  	lb	zero, 0(s0)
      50: 00 00                        	<unknown>
      52: 00 00                        	<unknown>
      54: 60 24                        	<unknown>
      56: 00 80                        	<unknown>
      58: 00 00                        	<unknown>
      5a: 00 00                        	<unknown>
      5c: 03 00 05 00                  	lb	zero, 0(a0)
      60: 00 00                        	<unknown>
      62: 00 00                        	<unknown>
      64: 68 24                        	<unknown>
      66: 00 80                        	<unknown>
      68: 00 00                        	<unknown>
      6a: 00 00                        	<unknown>
      6c: 03 00 06 00                  	lb	zero, 0(a2)
      70: 00 00                        	<unknown>
      72: 00 00                        	<unknown>
      74: 6c 24                        	<unknown>
      76: 00 80                        	<unknown>
      78: 00 00                        	<unknown>
      7a: 00 00                        	<unknown>
      7c: 03 00 07 00                  	lb	zero, 0(a4)
		...
      8c: 03 00 08 00                  	lb	zero, 0(a6)
		...
      9c: 03 00 09 00                  	lb	zero, 0(s2)
      a0: 01 00                        	<unknown>
		...
      aa: 00 00                        	<unknown>
      ac: 04 00                        	<unknown>
      ae: f1 ff                        	<unknown>
      b0: 0e 00                        	<unknown>
      b2: 00 00                        	<unknown>
      b4: b8 04                        	<unknown>
      b6: 00 80                        	<unknown>
      b8: 00 00                        	<unknown>
      ba: 00 00                        	<unknown>
      bc: 00 00                        	<unknown>
      be: 02 00                        	<unknown>
      c0: 1e 00                        	<unknown>
      c2: 00 00                        	<unknown>
      c4: f4 04                        	<unknown>
      c6: 00 80                        	<unknown>
      c8: 00 00                        	<unknown>
      ca: 00 00                        	<unknown>
      cc: 00 00                        	<unknown>
      ce: 02 00                        	<unknown>
      d0: 25 00                        	<unknown>
		...
      da: 00 00                        	<unknown>
      dc: 04 00                        	<unknown>
      de: f1 ff                        	<unknown>
      e0: 35 00                        	<unknown>
      e2: 00 00                        	<unknown>
      e4: 50 00                        	<unknown>
      e6: 00 80                        	<unknown>
      e8: 18 00                        	<unknown>
      ea: 00 00                        	<unknown>
      ec: 02 00                        	<unknown>
      ee: 02 00                        	<unknown>
      f0: 43 00 00 00                  	fmadd.s	ft0, ft0, ft0, ft0, rne
		...
      fc: 04 00                        	<unknown>
      fe: f1 ff                        	<unknown>
     100: 67 00 00 00                  	jr	zero
		...
     10c: 04 00                        	<unknown>
     10e: f1 ff                        	<unknown>
     110: 73 00 00 00                  	ecall	
     114: 98 00                        	<unknown>
     116: 00 80                        	<unknown>
     118: 24 00                        	<unknown>
     11a: 00 00                        	<unknown>
     11c: 02 00                        	<unknown>
     11e: 02 00                        	<unknown>
     120: 80 00                        	<unknown>
		...
     12a: 00 00                        	<unknown>
     12c: 04 00                        	<unknown>
     12e: f1 ff                        	<unknown>
     130: 8e 00                        	<unknown>
		...
     13a: 00 00                        	<unknown>
     13c: 04 00                        	<unknown>
     13e: f1 ff                        	<unknown>
     140: 99 00                        	<unknown>
     142: 00 00                        	<unknown>
     144: f0 05                        	<unknown>
     146: 00 80                        	<unknown>
     148: 3c 01                        	<unknown>
     14a: 00 00                        	<unknown>
     14c: 02 00                        	<unknown>
     14e: 02 00                        	<unknown>
     150: af 00 00 00                  	<unknown>
     154: 2c 07                        	<unknown>
     156: 00 80                        	<unknown>
     158: a4 00                        	<unknown>
     15a: 00 00                        	<unknown>
     15c: 02 00                        	<unknown>
     15e: 02 00                        	<unknown>
     160: c5 00                        	<unknown>
     162: 00 00                        	<unknown>
     164: d0 07                        	<unknown>
     166: 00 80                        	<unknown>
     168: 2c 00                        	<unknown>
     16a: 00 00                        	<unknown>
     16c: 02 00                        	<unknown>
     16e: 02 00                        	<unknown>
     170: d9 00                        	<unknown>
		...
     17a: 00 00                        	<unknown>
     17c: 04 00                        	<unknown>
     17e: f1 ff                        	<unknown>
     180: e3 00 00 00                  	beqz	zero, 2048
		...
     18c: 04 00                        	<unknown>
     18e: f1 ff                        	<unknown>
     190: ed 00                        	<unknown>
		...
     19a: 00 00                        	<unknown>
     19c: 04 00                        	<unknown>
     19e: f1 ff                        	<unknown>
     1a0: 01 01                        	<unknown>
		...
     1aa: 00 00                        	<unknown>
     1ac: 04 00                        	<unknown>
     1ae: f1 ff                        	<unknown>
     1b0: f7 00 00 00                  	<unknown>
		...
     1bc: 04 00                        	<unknown>
     1be: f1 ff                        	<unknown>
     1c0: 03 01 00 00                  	lb	sp, 0(zero)
		...
     1cc: 04 00                        	<unknown>
     1ce: f1 ff                        	<unknown>
     1d0: ff 00 00 00                  	<unknown>
		...
     1dc: 04 00                        	<unknown>
     1de: f1 ff                        	<unknown>
     1e0: 0a 01                        	<unknown>
		...
     1ea: 00 00                        	<unknown>
     1ec: 04 00                        	<unknown>
     1ee: f1 ff                        	<unknown>
     1f0: 13 01 00 00                  	mv	sp, zero
     1f4: 38 20                        	<unknown>
     1f6: 00 80                        	<unknown>
     1f8: 28 04                        	<unknown>
     1fa: 00 00                        	<unknown>
     1fc: 01 00                        	<unknown>
     1fe: 04 00                        	<unknown>
		...
     20c: 04 00                        	<unknown>
     20e: f1 ff                        	<unknown>
     210: 1f 01 00 00                  	<unknown>
     214: 38 20                        	<unknown>
     216: 00 80                        	<unknown>
     218: 00 00                        	<unknown>
     21a: 00 00                        	<unknown>
     21c: 00 00                        	<unknown>
     21e: 04 00                        	<unknown>
     220: 30 01                        	<unknown>
     222: 00 00                        	<unknown>
     224: 38 20                        	<unknown>
     226: 00 80                        	<unknown>
     228: 00 00                        	<unknown>
     22a: 00 00                        	<unknown>
     22c: 00 00                        	<unknown>
     22e: 04 00                        	<unknown>
     230: 43 01 00 00                  	fmadd.s	ft2, ft0, ft0, ft0, rne
     234: 38 20                        	<unknown>
     236: 00 80                        	<unknown>
     238: 00 00                        	<unknown>
     23a: 00 00                        	<unknown>
     23c: 00 00                        	<unknown>
     23e: 03 00 54 01                  	lb	zero, 21(s0)
     242: 00 00                        	<unknown>
     244: 34 20                        	<unknown>
     246: 00 80                        	<unknown>
     248: 00 00                        	<unknown>
     24a: 00 00                        	<unknown>
     24c: 00 00                        	<unknown>
     24e: 03 00 68 01                  	lb	zero, 22(a6)
     252: 00 00                        	<unknown>
     254: 34 20                        	<unknown>
     256: 00 80                        	<unknown>
     258: 00 00                        	<unknown>
     25a: 00 00                        	<unknown>
     25c: 00 00                        	<unknown>
     25e: 03 00 7b 01                  	lb	zero, 23(s6)
     262: 00 00                        	<unknown>
     264: 34 20                        	<unknown>
     266: 00 80                        	<unknown>
     268: 00 00                        	<unknown>
     26a: 00 00                        	<unknown>
     26c: 00 00                        	<unknown>
     26e: 03 00 91 01                  	lb	zero, 25(sp)
		...
     27a: 00 00                        	<unknown>
     27c: 10 00                        	<unknown>
     27e: f1 ff                        	<unknown>
     280: 9f 01 00 00                  	<unknown>
     284: 58 0d                        	<unknown>
     286: 00 80                        	<unknown>
     288: 0c 00                        	<unknown>
     28a: 00 00                        	<unknown>
     28c: 12 00                        	<unknown>
     28e: 02 00                        	<unknown>
     290: a7 01 00 00                  	<unknown>
     294: 00 04                        	<unknown>
     296: 00 00                        	<unknown>
     298: 00 00                        	<unknown>
     29a: 00 00                        	<unknown>
     29c: 10 00                        	<unknown>
     29e: f1 ff                        	<unknown>
     2a0: b4 01                        	<unknown>
     2a2: 00 00                        	<unknown>
     2a4: 6c 24                        	<unknown>
     2a6: 00 80                        	<unknown>
     2a8: 80 00                        	<unknown>
     2aa: 00 00                        	<unknown>
     2ac: 11 00                        	<unknown>
     2ae: 07 00 c2 01                  	<unknown>
     2b2: 00 00                        	<unknown>
     2b4: 60 24                        	<unknown>
     2b6: 00 80                        	<unknown>
     2b8: 00 00                        	<unknown>
     2ba: 00 00                        	<unknown>
     2bc: 10 00                        	<unknown>
     2be: 05 00                        	<unknown>
     2c0: 82 02                        	<unknown>
     2c2: 00 00                        	<unknown>
     2c4: c4 0b                        	<unknown>
     2c6: 00 80                        	<unknown>
     2c8: 74 00                        	<unknown>
     2ca: 00 00                        	<unknown>
     2cc: 12 00                        	<unknown>
     2ce: 02 00                        	<unknown>
     2d0: d2 01                        	<unknown>
     2d2: 00 00                        	<unknown>
     2d4: 38 28                        	<unknown>
     2d6: 00 80                        	<unknown>
     2d8: 00 00                        	<unknown>
     2da: 00 00                        	<unknown>
     2dc: 10 00                        	<unknown>
     2de: f1 ff                        	<unknown>
     2e0: e3 01 00 00                  	beqz	zero, 2050
     2e4: 68 24                        	<unknown>
     2e6: 00 80                        	<unknown>
     2e8: 04 00                        	<unknown>
     2ea: 00 00                        	<unknown>
     2ec: 11 00                        	<unknown>
     2ee: 06 00                        	<unknown>
     2f0: f3 01 00 00                  	<unknown>
     2f4: 60 24                        	<unknown>
     2f6: 00 80                        	<unknown>
     2f8: 04 00                        	<unknown>
     2fa: 00 00                        	<unknown>
     2fc: 11 00                        	<unknown>
     2fe: 05 00                        	<unknown>
     300: 06 02                        	<unknown>
     302: 00 00                        	<unknown>
     304: f8 04                        	<unknown>
     306: 00 80                        	<unknown>
     308: 9c 00                        	<unknown>
     30a: 00 00                        	<unknown>
     30c: 12 00                        	<unknown>
     30e: 02 00                        	<unknown>
     310: 18 02                        	<unknown>
     312: 00 00                        	<unknown>
     314: 94 05                        	<unknown>
     316: 00 80                        	<unknown>
     318: 5c 00                        	<unknown>
     31a: 00 00                        	<unknown>
     31c: 12 00                        	<unknown>
     31e: 02 00                        	<unknown>
     320: 2a 02                        	<unknown>
     322: 00 00                        	<unknown>
     324: c4 04                        	<unknown>
     326: 00 80                        	<unknown>
     328: 00 00                        	<unknown>
     32a: 00 00                        	<unknown>
     32c: 12 00                        	<unknown>
     32e: 02 00                        	<unknown>
     330: 34 02                        	<unknown>
     332: 00 00                        	<unknown>
     334: 10 0f                        	<unknown>
     336: 00 80                        	<unknown>
     338: 24 01                        	<unknown>
     33a: 00 00                        	<unknown>
     33c: 12 00                        	<unknown>
     33e: 02 00                        	<unknown>
     340: 6a 02                        	<unknown>
     342: 00 00                        	<unknown>
     344: 00 00                        	<unknown>
     346: 00 80                        	<unknown>
     348: 50 00                        	<unknown>
     34a: 00 00                        	<unknown>
     34c: 12 00                        	<unknown>
     34e: 01 00                        	<unknown>
     350: 45 02                        	<unknown>
     352: 00 00                        	<unknown>
     354: 74 0e                        	<unknown>
     356: 00 80                        	<unknown>
     358: 9c 00                        	<unknown>
     35a: 00 00                        	<unknown>
     35c: 12 00                        	<unknown>
     35e: 02 00                        	<unknown>
     360: 59 02                        	<unknown>
     362: 00 00                        	<unknown>
     364: ec 24                        	<unknown>
     366: 00 80                        	<unknown>
     368: 00 00                        	<unknown>
     36a: 00 00                        	<unknown>
     36c: 10 00                        	<unknown>
     36e: 07 00 65 02                  	<unknown>
     372: 00 00                        	<unknown>
     374: 68 24                        	<unknown>
     376: 00 80                        	<unknown>
     378: 00 00                        	<unknown>
     37a: 00 00                        	<unknown>
     37c: 10 00                        	<unknown>
     37e: 06 00                        	<unknown>
     380: 71 02                        	<unknown>
     382: 00 00                        	<unknown>
     384: 98 0d                        	<unknown>
     386: 00 80                        	<unknown>
     388: dc 00                        	<unknown>
     38a: 00 00                        	<unknown>
     38c: 12 00                        	<unknown>
     38e: 02 00                        	<unknown>
     390: 78 02                        	<unknown>
     392: 00 00                        	<unknown>
     394: 38 0c                        	<unknown>
     396: 00 80                        	<unknown>
     398: 0c 01                        	<unknown>
     39a: 00 00                        	<unknown>
     39c: 12 00                        	<unknown>
     39e: 02 00                        	<unknown>
     3a0: 88 02                        	<unknown>
     3a2: 00 00                        	<unknown>
     3a4: 68 00                        	<unknown>
     3a6: 00 80                        	<unknown>
     3a8: 30 00                        	<unknown>
     3aa: 00 00                        	<unknown>
     3ac: 12 00                        	<unknown>
     3ae: 02 00                        	<unknown>
     3b0: 8d 02                        	<unknown>
     3b2: 00 00                        	<unknown>
     3b4: 68 03                        	<unknown>
     3b6: 00 80                        	<unknown>
     3b8: 44 01                        	<unknown>
     3ba: 00 00                        	<unknown>
     3bc: 12 00                        	<unknown>
     3be: 02 00                        	<unknown>
     3c0: b9 02                        	<unknown>
     3c2: 00 00                        	<unknown>
     3c4: 44 0d                        	<unknown>
     3c6: 00 80                        	<unknown>
     3c8: 14 00                        	<unknown>
     3ca: 00 00                        	<unknown>
     3cc: 12 00                        	<unknown>
     3ce: 02 00                        	<unknown>
     3d0: fa 01                        	<unknown>
     3d2: 00 00                        	<unknown>
     3d4: 64 24                        	<unknown>
     3d6: 00 80                        	<unknown>
     3d8: 04 00                        	<unknown>
     3da: 00 00                        	<unknown>
     3dc: 11 00                        	<unknown>
     3de: 05 00                        	<unknown>
     3e0: c0 02                        	<unknown>
     3e2: 00 00                        	<unknown>
     3e4: 00 02                        	<unknown>
     3e6: 00 80                        	<unknown>
     3e8: 68 01                        	<unknown>
     3ea: 00 00                        	<unknown>
     3ec: 12 00                        	<unknown>
     3ee: 02 00                        	<unknown>
     3f0: e7 02 00 00                  	jalr	t0, zero
     3f4: 38 20                        	<unknown>
     3f6: 00 80                        	<unknown>
     3f8: 00 00                        	<unknown>
     3fa: 00 00                        	<unknown>
     3fc: 10 00                        	<unknown>
     3fe: 04 00                        	<unknown>
     400: f6 02                        	<unknown>
     402: 00 00                        	<unknown>
     404: 68 24                        	<unknown>
     406: 00 80                        	<unknown>
     408: 00 00                        	<unknown>
     40a: 00 00                        	<unknown>
     40c: 10 00                        	<unknown>
     40e: 05 00                        	<unknown>
     410: 2b 01 00 00                  	<unknown>
     414: ec 24                        	<unknown>
     416: 00 80                        	<unknown>
     418: 00 00                        	<unknown>
     41a: 00 00                        	<unknown>
     41c: 10 00                        	<unknown>
     41e: 07 00 fd 02                  	<unknown>
     422: 00 00                        	<unknown>
     424: bc 00                        	<unknown>
     426: 00 80                        	<unknown>
     428: 44 01                        	<unknown>
     42a: 00 00                        	<unknown>
     42c: 12 00                        	<unknown>
     42e: 02 00                        	<unknown>
     430: 28 03                        	<unknown>
     432: 00 00                        	<unknown>
     434: 64 0d                        	<unknown>
     436: 00 80                        	<unknown>
     438: 34 00                        	<unknown>
     43a: 00 00                        	<unknown>
     43c: 12 00                        	<unknown>
     43e: 02 00                        	<unknown>
     440: 1a 03                        	<unknown>
     442: 00 00                        	<unknown>
     444: b0 09                        	<unknown>
     446: 00 80                        	<unknown>
     448: 14 02                        	<unknown>
     44a: 00 00                        	<unknown>
     44c: 12 00                        	<unknown>
     44e: 02 00                        	<unknown>
     450: 27 03 00 00                  	<unknown>
     454: ac 04                        	<unknown>
     456: 00 80                        	<unknown>
     458: 00 00                        	<unknown>
     45a: 00 00                        	<unknown>
     45c: 12 00                        	<unknown>
     45e: 02 00                        	<unknown>
     460: 2d 03                        	<unknown>
     462: 00 00                        	<unknown>
     464: fc 07                        	<unknown>
     466: 00 80                        	<unknown>
     468: b4 01                        	<unknown>
     46a: 00 00                        	<unknown>
     46c: 12 00                        	<unknown>
     46e: 02 00                        	<unknown>

Disassembly of section .strtab:

00000000 .strtab:
       0: 00 76                        	<unknown>
       2: 78 5f                        	<unknown>
       4: 73 74 61 72                  	csrrci	s0, 1830, 2
       8: 74 2e                        	<unknown>
       a: 53 2e 6f 00                  	fadd.s	ft8, ft10, ft6, rdn
       e: 6c 61                        	<unknown>
      10: 62 65                        	<unknown>
      12: 6c 5f                        	<unknown>
      14: 65 78                        	<unknown>
      16: 69 74                        	<unknown>
      18: 5f 6e 65 78                  	<unknown>
      1c: 74 00                        	<unknown>
      1e: 52 45                        	<unknown>
      20: 54 55                        	<unknown>
      22: 52 4e                        	<unknown>
      24: 00 5f                        	<unknown>
      26: 5f 63 61 6c                  	<unknown>
      2a: 6c 5f                        	<unknown>
      2c: 61 74                        	<unknown>
      2e: 65 78                        	<unknown>
      30: 69 74                        	<unknown>
      32: 2e 63                        	<unknown>
      34: 00 72                        	<unknown>
      36: 65 67                        	<unknown>
      38: 69 73                        	<unknown>
      3a: 74 65                        	<unknown>
      3c: 72 5f                        	<unknown>
      3e: 66 69                        	<unknown>
      40: 6e 69                        	<unknown>
      42: 00 70                        	<unknown>
      44: 6f 63 6c 5f                  	jal	t1, 812534
      48: 76 6f                        	<unknown>
      4a: 72 74                        	<unknown>
      4c: 65 78                        	<unknown>
      4e: 5f 6b 65 72                  	<unknown>
      52: 6e 65                        	<unknown>
      54: 6c 2d                        	<unknown>
      56: 31 30                        	<unknown>
      58: 2d 66                        	<unknown>
      5a: 62 2d                        	<unknown>
      5c: 32 65                        	<unknown>
      5e: 2d 30                        	<unknown>
      60: 61 2d                        	<unknown>
      62: 61 61                        	<unknown>
      64: 2e 63                        	<unknown>
      66: 00 70                        	<unknown>
      68: 61 72                        	<unknown>
      6a: 61 6c                        	<unknown>
      6c: 6c 65                        	<unknown>
      6e: 6c 5f                        	<unknown>
      70: 62 63                        	<unknown>
      72: 00 5f                        	<unknown>
      74: 5a 38                        	<unknown>
      76: 5f 63 6c 5f                  	<unknown>
      7a: 73 71 72 74                  	csrrci	sp, 1863, 4
      7e: 66 00                        	<unknown>
      80: 76 78                        	<unknown>
      82: 5f 73 79 73                  	<unknown>
      86: 63 61 6c 6c                  	bltu	s8, t1, 1730
      8a: 73 2e 63 00                  	csrrs	t3, 6, t1
      8e: 76 78                        	<unknown>
      90: 5f 73 70 61                  	<unknown>
      94: 77 6e 2e 63                  	<unknown>
      98: 00 73                        	<unknown>
      9a: 70 61                        	<unknown>
      9c: 77 6e 5f 6b                  	<unknown>
      a0: 65 72                        	<unknown>
      a2: 6e 65                        	<unknown>
      a4: 6c 5f                        	<unknown>
      a6: 61 6c                        	<unknown>
      a8: 6c 5f                        	<unknown>
      aa: 73 74 75 62                  	csrrci	s0, 1575, 10
      ae: 00 73                        	<unknown>
      b0: 70 61                        	<unknown>
      b2: 77 6e 5f 6b                  	<unknown>
      b6: 65 72                        	<unknown>
      b8: 6e 65                        	<unknown>
      ba: 6c 5f                        	<unknown>
      bc: 72 65                        	<unknown>
      be: 6d 5f                        	<unknown>
      c0: 73 74 75 62                  	csrrci	s0, 1575, 10
      c4: 00 73                        	<unknown>
      c6: 70 61                        	<unknown>
      c8: 77 6e 5f 6b                  	<unknown>
      cc: 65 72                        	<unknown>
      ce: 6e 65                        	<unknown>
      d0: 6c 5f                        	<unknown>
      d2: 61 6c                        	<unknown>
      d4: 6c 5f                        	<unknown>
      d6: 63 62 00 76                  	bltu	zero, zero, 1892
      da: 78 5f                        	<unknown>
      dc: 70 65                        	<unknown>
      de: 72 66                        	<unknown>
      e0: 2e 63                        	<unknown>
      e2: 00 77                        	<unknown>
      e4: 66 5f                        	<unknown>
      e6: 73 71 72 74                  	csrrci	sp, 1863, 4
      ea: 2e 63                        	<unknown>
      ec: 00 65                        	<unknown>
      ee: 66 5f                        	<unknown>
      f0: 73 71 72 74                  	csrrci	sp, 1863, 4
      f4: 2e 63                        	<unknown>
      f6: 00 65                        	<unknown>
      f8: 72 72                        	<unknown>
      fa: 6e 6f                        	<unknown>
      fc: 2e 63                        	<unknown>
      fe: 00 5f                        	<unknown>
     100: 5f 61 74 65                  	<unknown>
     104: 78 69                        	<unknown>
     106: 74 2e                        	<unknown>
     108: 63 00 69 6d                  	beq	s2, s6, 1728
     10c: 70 75                        	<unknown>
     10e: 72 65                        	<unknown>
     110: 2e 63                        	<unknown>
     112: 00 69                        	<unknown>
     114: 6d 70                        	<unknown>
     116: 75 72                        	<unknown>
     118: 65 5f                        	<unknown>
     11a: 64 61                        	<unknown>
     11c: 74 61                        	<unknown>
     11e: 00 5f                        	<unknown>
     120: 5f 66 69 6e                  	<unknown>
     124: 69 5f                        	<unknown>
     126: 61 72                        	<unknown>
     128: 72 61                        	<unknown>
     12a: 79 5f                        	<unknown>
     12c: 65 6e                        	<unknown>
     12e: 64 00                        	<unknown>
     130: 5f 5f 66 69                  	<unknown>
     134: 6e 69                        	<unknown>
     136: 5f 61 72 72                  	<unknown>
     13a: 61 79                        	<unknown>
     13c: 5f 73 74 61                  	<unknown>
     140: 72 74                        	<unknown>
     142: 00 5f                        	<unknown>
     144: 5f 69 6e 69                  	<unknown>
     148: 74 5f                        	<unknown>
     14a: 61 72                        	<unknown>
     14c: 72 61                        	<unknown>
     14e: 79 5f                        	<unknown>
     150: 65 6e                        	<unknown>
     152: 64 00                        	<unknown>
     154: 5f 5f 70 72                  	<unknown>
     158: 65 69                        	<unknown>
     15a: 6e 69                        	<unknown>
     15c: 74 5f                        	<unknown>
     15e: 61 72                        	<unknown>
     160: 72 61                        	<unknown>
     162: 79 5f                        	<unknown>
     164: 65 6e                        	<unknown>
     166: 64 00                        	<unknown>
     168: 5f 5f 69 6e                  	<unknown>
     16c: 69 74                        	<unknown>
     16e: 5f 61 72 72                  	<unknown>
     172: 61 79                        	<unknown>
     174: 5f 73 74 61                  	<unknown>
     178: 72 74                        	<unknown>
     17a: 00 5f                        	<unknown>
     17c: 5f 70 72 65                  	<unknown>
     180: 69 6e                        	<unknown>
     182: 69 74                        	<unknown>
     184: 5f 61 72 72                  	<unknown>
     188: 61 79                        	<unknown>
     18a: 5f 73 74 61                  	<unknown>
     18e: 72 74                        	<unknown>
     190: 00 5f                        	<unknown>
     192: 5f 73 74 61                  	<unknown>
     196: 63 6b 5f 75                  	bltu	t5, s5, 1878
     19a: 73 61 67 65                  	csrrsi	sp, 1622, 14
     19e: 00 5f                        	<unknown>
     1a0: 5f 65 72 72                  	<unknown>
     1a4: 6e 6f                        	<unknown>
     1a6: 00 5f                        	<unknown>
     1a8: 5f 73 74 61                  	<unknown>
     1ac: 63 6b 5f 73                  	bltu	t5, s5, 1846
     1b0: 69 7a                        	<unknown>
     1b2: 65 00                        	<unknown>
     1b4: 67 5f 77 73                  	<unknown>
     1b8: 70 61                        	<unknown>
     1ba: 77 6e 5f 61                  	<unknown>
     1be: 72 67                        	<unknown>
     1c0: 73 00 5f 5f                  	<unknown>
     1c4: 53 44 41 54                  	<unknown>
     1c8: 41 5f                        	<unknown>
     1ca: 42 45                        	<unknown>
     1cc: 47 49 4e 5f                  	<unknown>
     1d0: 5f 00 5f 5f                  	<unknown>
     1d4: 67 6c 6f 62                  	<unknown>
     1d8: 61 6c                        	<unknown>
     1da: 5f 70 6f 69                  	<unknown>
     1de: 6e 74                        	<unknown>
     1e0: 65 72                        	<unknown>
     1e2: 00 5f                        	<unknown>
     1e4: 5f 66 64 6c                  	<unknown>
     1e8: 69 62                        	<unknown>
     1ea: 5f 76 65 72                  	<unknown>
     1ee: 73 69 6f 6e                  	csrrsi	s2, 1766, 30
     1f2: 00 5f                        	<unknown>
     1f4: 67 6c 6f 62                  	<unknown>
     1f8: 61 6c                        	<unknown>
     1fa: 5f 69 6d 70                  	<unknown>
     1fe: 75 72                        	<unknown>
     200: 65 5f                        	<unknown>
     202: 70 74                        	<unknown>
     204: 72 00                        	<unknown>
     206: 5f 5f 6c 69                  	<unknown>
     20a: 62 63                        	<unknown>
     20c: 5f 69 6e 69                  	<unknown>
     210: 74 5f                        	<unknown>
     212: 61 72                        	<unknown>
     214: 72 61                        	<unknown>
     216: 79 00                        	<unknown>
     218: 5f 5f 6c 69                  	<unknown>
     21c: 62 63                        	<unknown>
     21e: 5f 66 69 6e                  	<unknown>
     222: 69 5f                        	<unknown>
     224: 61 72                        	<unknown>
     226: 72 61                        	<unknown>
     228: 79 00                        	<unknown>
     22a: 76 78                        	<unknown>
     22c: 5f 73 65 74                  	<unknown>
     230: 5f 73 70 00                  	<unknown>
     234: 5f 5f 63 61                  	<unknown>
     238: 6c 6c                        	<unknown>
     23a: 5f 65 78 69                  	<unknown>
     23e: 74 70                        	<unknown>
     240: 72 6f                        	<unknown>
     242: 63 73 00 5f                  	bgeu	zero, a6, 1510
     246: 5f 72 65 67                  	<unknown>
     24a: 69 73                        	<unknown>
     24c: 74 65                        	<unknown>
     24e: 72 5f                        	<unknown>
     250: 65 78                        	<unknown>
     252: 69 74                        	<unknown>
     254: 70 72                        	<unknown>
     256: 6f 63 00 5f                  	jal	t1, 26096
     25a: 5f 42 53 53                  	<unknown>
     25e: 5f 45 4e 44                  	<unknown>
     262: 5f 5f 00 5f                  	<unknown>
     266: 5f 62 73 73                  	<unknown>
     26a: 5f 73 74 61                  	<unknown>
     26e: 72 74                        	<unknown>
     270: 00 6d                        	<unknown>
     272: 65 6d                        	<unknown>
     274: 73 65 74 00                  	csrrsi	a0, 7, 8
     278: 5f 5f 69 65                  	<unknown>
     27c: 65 65                        	<unknown>
     27e: 37 35 34 5f                  	lui	a0, 389955
     282: 73 71 72 74                  	csrrci	sp, 1863, 4
     286: 66 00                        	<unknown>
     288: 6d 61                        	<unknown>
     28a: 69 6e                        	<unknown>
     28c: 00 5f                        	<unknown>
     28e: 70 6f                        	<unknown>
     290: 63 6c 5f 6b                  	bltu	t5, s5, 1720
     294: 65 72                        	<unknown>
     296: 6e 65                        	<unknown>
     298: 6c 5f                        	<unknown>
     29a: 4e 65                        	<unknown>
     29c: 61 72                        	<unknown>
     29e: 65 73                        	<unknown>
     2a0: 74 4e                        	<unknown>
     2a2: 65 69                        	<unknown>
     2a4: 67 68 62 6f                  	<unknown>
     2a8: 72 5f                        	<unknown>
     2aa: 77 6f 72 6b                  	<unknown>
     2ae: 67 72 6f 75                  	<unknown>
     2b2: 70 5f                        	<unknown>
     2b4: 66 61                        	<unknown>
     2b6: 73 74 00 61                  	csrrci	s0, 1552, 0
     2ba: 74 65                        	<unknown>
     2bc: 78 69                        	<unknown>
     2be: 74 00                        	<unknown>
     2c0: 5f 70 6f 63                  	<unknown>
     2c4: 6c 5f                        	<unknown>
     2c6: 6b 65 72 6e                  	<unknown>
     2ca: 65 6c                        	<unknown>
     2cc: 5f 4e 65 61                  	<unknown>
     2d0: 72 65                        	<unknown>
     2d2: 73 74 4e 65                  	csrrci	s0, 1620, 28
     2d6: 69 67                        	<unknown>
     2d8: 68 62                        	<unknown>
     2da: 6f 72 5f 77                  	jal	tp, 1015668
     2de: 6f 72 6b 67                  	jal	tp, 751222
     2e2: 72 6f                        	<unknown>
     2e4: 75 70                        	<unknown>
     2e6: 00 5f                        	<unknown>
     2e8: 5f 44 41 54                  	<unknown>
     2ec: 41 5f                        	<unknown>
     2ee: 42 45                        	<unknown>
     2f0: 47 49 4e 5f                  	<unknown>
     2f4: 5f 00 5f 65                  	<unknown>
     2f8: 64 61                        	<unknown>
     2fa: 74 61                        	<unknown>
     2fc: 00 5f                        	<unknown>
     2fe: 70 6f                        	<unknown>
     300: 63 6c 5f 6b                  	bltu	t5, s5, 1720
     304: 65 72                        	<unknown>
     306: 6e 65                        	<unknown>
     308: 6c 5f                        	<unknown>
     30a: 4e 65                        	<unknown>
     30c: 61 72                        	<unknown>
     30e: 65 73                        	<unknown>
     310: 74 4e                        	<unknown>
     312: 65 69                        	<unknown>
     314: 67 68 62 6f                  	<unknown>
     318: 72 00                        	<unknown>
     31a: 76 78                        	<unknown>
     31c: 5f 70 65 72                  	<unknown>
     320: 66 5f                        	<unknown>
     322: 64 75                        	<unknown>
     324: 6d 70                        	<unknown>
     326: 00 5f                        	<unknown>
     328: 65 78                        	<unknown>
     32a: 69 74                        	<unknown>
     32c: 00 76                        	<unknown>
     32e: 78 5f                        	<unknown>
     330: 73 70 61 77                  	csrci	1910, 2
     334: 6e 5f                        	<unknown>
     336: 6b 65 72 6e                  	<unknown>
     33a: 65 6c                        	<unknown>
     33c: 00                           	<unknown>

Disassembly of section .shstrtab:

00000000 .shstrtab:
       0: 00 2e                        	<unknown>
       2: 73 79 6d 74                  	csrrci	s2, 1862, 26
       6: 61 62                        	<unknown>
       8: 00 2e                        	<unknown>
       a: 73 74 72 74                  	csrrci	s0, 1863, 4
       e: 61 62                        	<unknown>
      10: 00 2e                        	<unknown>
      12: 73 68 73 74                  	csrrsi	a6, 1863, 6
      16: 72 74                        	<unknown>
      18: 61 62                        	<unknown>
      1a: 00 2e                        	<unknown>
      1c: 69 6e                        	<unknown>
      1e: 69 74                        	<unknown>
      20: 00 2e                        	<unknown>
      22: 74 65                        	<unknown>
      24: 78 74                        	<unknown>
      26: 00 2e                        	<unknown>
      28: 69 6e                        	<unknown>
      2a: 69 74                        	<unknown>
      2c: 5f 61 72 72                  	<unknown>
      30: 61 79                        	<unknown>
      32: 00 2e                        	<unknown>
      34: 64 61                        	<unknown>
      36: 74 61                        	<unknown>
      38: 00 2e                        	<unknown>
      3a: 73 64 61 74                  	csrrsi	s0, 1862, 2
      3e: 61 00                        	<unknown>
      40: 2e 73                        	<unknown>
      42: 62 73                        	<unknown>
      44: 73 00 2e 62                  	<unknown>
      48: 73 73 00 2e                  	csrrci	t1, 736, 0
      4c: 63 6f 6d 6d                  	bltu	s10, s6, 1758
      50: 65 6e                        	<unknown>
      52: 74 00                        	<unknown>
      54: 2e 72                        	<unknown>
      56: 69 73                        	<unknown>
      58: 63 76 2e 61                  	bgeu	t3, s2, 1548
      5c: 74 74                        	<unknown>
      5e: 72 69                        	<unknown>
      60: 62 75                        	<unknown>
      62: 74 65                        	<unknown>
      64: 73                           	<unknown>
      65: 00                           	<unknown>
