
vx_simple_main.elf:     file format elf32-littleriscv


Disassembly of section .init:

80000000 <_start>:
80000000:	00000597          	auipc	a1,0x0
80000004:	0a058593          	addi	a1,a1,160 # 800000a0 <vx_set_sp>
80000008:	02602573          	csrr	a0,0x26
8000000c:	00b5106b          	0xb5106b
80000010:	090000ef          	jal	ra,800000a0 <vx_set_sp>
80000014:	00100513          	li	a0,1
80000018:	0005006b          	0x5006b
8000001c:	c4418513          	addi	a0,gp,-956 # 80001f5c <wsapwn_arr>
80000020:	c6418613          	addi	a2,gp,-924 # 80001f7c <__BSS_END__>
80000024:	40a60633          	sub	a2,a2,a0
80000028:	00000593          	li	a1,0
8000002c:	79c000ef          	jal	ra,800007c8 <memset>
80000030:	00000517          	auipc	a0,0x0
80000034:	6a050513          	addi	a0,a0,1696 # 800006d0 <__libc_fini_array>
80000038:	654000ef          	jal	ra,8000068c <atexit>
8000003c:	6f0000ef          	jal	ra,8000072c <__libc_init_array>
80000040:	008000ef          	jal	ra,80000048 <main>
80000044:	65c0006f          	j	800006a0 <exit>

Disassembly of section .text:

80000048 <main>:
80000048:	80001537          	lui	a0,0x80001
8000004c:	ff010113          	addi	sp,sp,-16
80000050:	ae050513          	addi	a0,a0,-1312 # 80000ae0 <__global_pointer$+0xffffe7c8>
80000054:	00112623          	sw	ra,12(sp)
80000058:	100000ef          	jal	ra,80000158 <vx_print_str>
8000005c:	00400513          	li	a0,4
80000060:	088000ef          	jal	ra,800000e8 <vx_tmc>
80000064:	378000ef          	jal	ra,800003dc <_Z15test_divergencev>
80000068:	00100513          	li	a0,1
8000006c:	07c000ef          	jal	ra,800000e8 <vx_tmc>
80000070:	00c12083          	lw	ra,12(sp)
80000074:	00000513          	li	a0,0
80000078:	01010113          	addi	sp,sp,16
8000007c:	00008067          	ret

80000080 <register_fini>:
80000080:	00000793          	li	a5,0
80000084:	00078863          	beqz	a5,80000094 <register_fini+0x14>
80000088:	80000537          	lui	a0,0x80000
8000008c:	6d050513          	addi	a0,a0,1744 # 800006d0 <__global_pointer$+0xffffe3b8>
80000090:	5fc0006f          	j	8000068c <atexit>
80000094:	00008067          	ret

80000098 <_exit>:
80000098:	00000513          	li	a0,0
8000009c:	0005006b          	0x5006b

800000a0 <vx_set_sp>:
800000a0:	02502573          	csrr	a0,0x25
800000a4:	0005006b          	0x5006b
800000a8:	00002197          	auipc	gp,0x2
800000ac:	27018193          	addi	gp,gp,624 # 80002318 <__global_pointer$>
800000b0:	022025f3          	csrr	a1,0x22
800000b4:	00a59593          	slli	a1,a1,0xa
800000b8:	02002673          	csrr	a2,0x20
800000bc:	00261613          	slli	a2,a2,0x2
800000c0:	6ffff137          	lui	sp,0x6ffff
800000c4:	40b10133          	sub	sp,sp,a1
800000c8:	00c10133          	add	sp,sp,a2
800000cc:	021026f3          	csrr	a3,0x21
800000d0:	00068663          	beqz	a3,800000dc <RETURN>
800000d4:	00000513          	li	a0,0
800000d8:	0005006b          	0x5006b

800000dc <RETURN>:
800000dc:	00008067          	ret

800000e0 <vx_wspawn>:
800000e0:	00b5106b          	0xb5106b
800000e4:	00008067          	ret

800000e8 <vx_tmc>:
800000e8:	0005006b          	0x5006b
800000ec:	00008067          	ret

800000f0 <vx_barrier>:
800000f0:	00b5406b          	0xb5406b
800000f4:	00008067          	ret

800000f8 <vx_split>:
800000f8:	0005206b          	0x5206b
800000fc:	00008067          	ret

80000100 <vx_join>:
80000100:	0000306b          	0x306b
80000104:	00008067          	ret

80000108 <vx_warp_id>:
80000108:	02102573          	csrr	a0,0x21
8000010c:	00008067          	ret

80000110 <vx_warp_gid>:
80000110:	02302573          	csrr	a0,0x23
80000114:	00008067          	ret

80000118 <vx_thread_id>:
80000118:	02002573          	csrr	a0,0x20
8000011c:	00008067          	ret

80000120 <vx_thread_gid>:
80000120:	02202573          	csrr	a0,0x22
80000124:	00008067          	ret

80000128 <vx_core_id>:
80000128:	02402573          	csrr	a0,0x24
8000012c:	00008067          	ret

80000130 <vx_num_threads>:
80000130:	02502573          	csrr	a0,0x25
80000134:	00008067          	ret

80000138 <vx_num_warps>:
80000138:	02602573          	csrr	a0,0x26
8000013c:	00008067          	ret

80000140 <vx_num_cores>:
80000140:	02702573          	csrr	a0,0x27
80000144:	00008067          	ret

80000148 <vx_num_cycles>:
80000148:	c0002573          	rdcycle	a0
8000014c:	00008067          	ret

80000150 <vx_num_instrs>:
80000150:	c0202573          	rdinstret	a0
80000154:	00008067          	ret

80000158 <vx_print_str>:
80000158:	ff410113          	addi	sp,sp,-12 # 6fffeff4 <_start-0x1000100c>
8000015c:	00112023          	sw	ra,0(sp)
80000160:	00b12223          	sw	a1,4(sp)

80000164 <bl>:
80000164:	00054583          	lbu	a1,0(a0)
80000168:	00058863          	beqz	a1,80000178 <be>
8000016c:	01c000ef          	jal	ra,80000188 <vx_printc>
80000170:	00150513          	addi	a0,a0,1
80000174:	ff1ff06f          	j	80000164 <bl>

80000178 <be>:
80000178:	00012083          	lw	ra,0(sp)
8000017c:	00412583          	lw	a1,4(sp)
80000180:	00c10113          	addi	sp,sp,12
80000184:	00008067          	ret

80000188 <vx_printc>:
80000188:	00002297          	auipc	t0,0x2
8000018c:	99028293          	addi	t0,t0,-1648 # 80001b18 <__DATA_BEGIN__>
80000190:	0002a283          	lw	t0,0(t0)
80000194:	00b2a023          	sw	a1,0(t0)
80000198:	00008067          	ret

8000019c <vx_print_hex>:
8000019c:	ff010113          	addi	sp,sp,-16
800001a0:	00912223          	sw	s1,4(sp)
800001a4:	00112623          	sw	ra,12(sp)
800001a8:	00812423          	sw	s0,8(sp)
800001ac:	01212023          	sw	s2,0(sp)
800001b0:	00f00793          	li	a5,15
800001b4:	00050493          	mv	s1,a0
800001b8:	04a7fc63          	bgeu	a5,a0,80000210 <vx_print_hex+0x74>
800001bc:	80001937          	lui	s2,0x80001
800001c0:	00000693          	li	a3,0
800001c4:	02000413          	li	s0,32
800001c8:	aa090913          	addi	s2,s2,-1376 # 80000aa0 <__global_pointer$+0xffffe788>
800001cc:	ffc40413          	addi	s0,s0,-4
800001d0:	0084d7b3          	srl	a5,s1,s0
800001d4:	00f7f793          	andi	a5,a5,15
800001d8:	00279713          	slli	a4,a5,0x2
800001dc:	00e90733          	add	a4,s2,a4
800001e0:	00079463          	bnez	a5,800001e8 <vx_print_hex+0x4c>
800001e4:	00068863          	beqz	a3,800001f4 <vx_print_hex+0x58>
800001e8:	00072503          	lw	a0,0(a4)
800001ec:	f6dff0ef          	jal	ra,80000158 <vx_print_str>
800001f0:	00100693          	li	a3,1
800001f4:	fc041ce3          	bnez	s0,800001cc <vx_print_hex+0x30>
800001f8:	00c12083          	lw	ra,12(sp)
800001fc:	00812403          	lw	s0,8(sp)
80000200:	00412483          	lw	s1,4(sp)
80000204:	00012903          	lw	s2,0(sp)
80000208:	01010113          	addi	sp,sp,16
8000020c:	00008067          	ret
80000210:	800017b7          	lui	a5,0x80001
80000214:	00251493          	slli	s1,a0,0x2
80000218:	aa078793          	addi	a5,a5,-1376 # 80000aa0 <__global_pointer$+0xffffe788>
8000021c:	00812403          	lw	s0,8(sp)
80000220:	009784b3          	add	s1,a5,s1
80000224:	0004a503          	lw	a0,0(s1)
80000228:	00c12083          	lw	ra,12(sp)
8000022c:	00412483          	lw	s1,4(sp)
80000230:	00012903          	lw	s2,0(sp)
80000234:	01010113          	addi	sp,sp,16
80000238:	f21ff06f          	j	80000158 <vx_print_str>

8000023c <vx_printf>:
8000023c:	ff010113          	addi	sp,sp,-16
80000240:	00812423          	sw	s0,8(sp)
80000244:	00112623          	sw	ra,12(sp)
80000248:	00912223          	sw	s1,4(sp)
8000024c:	01212023          	sw	s2,0(sp)
80000250:	00058413          	mv	s0,a1
80000254:	f05ff0ef          	jal	ra,80000158 <vx_print_str>
80000258:	00f00793          	li	a5,15
8000025c:	0687f063          	bgeu	a5,s0,800002bc <vx_printf+0x80>
80000260:	80001937          	lui	s2,0x80001
80000264:	00000693          	li	a3,0
80000268:	02000493          	li	s1,32
8000026c:	aa090913          	addi	s2,s2,-1376 # 80000aa0 <__global_pointer$+0xffffe788>
80000270:	ffc48493          	addi	s1,s1,-4
80000274:	009457b3          	srl	a5,s0,s1
80000278:	00f7f793          	andi	a5,a5,15
8000027c:	00279713          	slli	a4,a5,0x2
80000280:	00e90733          	add	a4,s2,a4
80000284:	00079463          	bnez	a5,8000028c <vx_printf+0x50>
80000288:	00068863          	beqz	a3,80000298 <vx_printf+0x5c>
8000028c:	00072503          	lw	a0,0(a4)
80000290:	ec9ff0ef          	jal	ra,80000158 <vx_print_str>
80000294:	00100693          	li	a3,1
80000298:	fc049ce3          	bnez	s1,80000270 <vx_printf+0x34>
8000029c:	00812403          	lw	s0,8(sp)
800002a0:	00c12083          	lw	ra,12(sp)
800002a4:	00412483          	lw	s1,4(sp)
800002a8:	00012903          	lw	s2,0(sp)
800002ac:	80001537          	lui	a0,0x80001
800002b0:	a5c50513          	addi	a0,a0,-1444 # 80000a5c <__global_pointer$+0xffffe744>
800002b4:	01010113          	addi	sp,sp,16
800002b8:	ea1ff06f          	j	80000158 <vx_print_str>
800002bc:	800017b7          	lui	a5,0x80001
800002c0:	aa078793          	addi	a5,a5,-1376 # 80000aa0 <__global_pointer$+0xffffe788>
800002c4:	00241413          	slli	s0,s0,0x2
800002c8:	00878433          	add	s0,a5,s0
800002cc:	00042503          	lw	a0,0(s0)
800002d0:	e89ff0ef          	jal	ra,80000158 <vx_print_str>
800002d4:	fc9ff06f          	j	8000029c <vx_printf+0x60>

800002d8 <_Z13simple_kernelv>:
800002d8:	ff010113          	addi	sp,sp,-16
800002dc:	00112623          	sw	ra,12(sp)
800002e0:	e29ff0ef          	jal	ra,80000108 <vx_warp_id>
800002e4:	00251713          	slli	a4,a0,0x2
800002e8:	c4418793          	addi	a5,gp,-956 # 80001f5c <wsapwn_arr>
800002ec:	00e787b3          	add	a5,a5,a4
800002f0:	00a7a023          	sw	a0,0(a5)
800002f4:	00051863          	bnez	a0,80000304 <_Z13simple_kernelv+0x2c>
800002f8:	00c12083          	lw	ra,12(sp)
800002fc:	01010113          	addi	sp,sp,16
80000300:	00008067          	ret
80000304:	00c12083          	lw	ra,12(sp)
80000308:	00000513          	li	a0,0
8000030c:	01010113          	addi	sp,sp,16
80000310:	dd9ff06f          	j	800000e8 <vx_tmc>

80000314 <_Z13test_tmc_implv>:
80000314:	ff010113          	addi	sp,sp,-16
80000318:	00112623          	sw	ra,12(sp)
8000031c:	dfdff0ef          	jal	ra,80000118 <vx_thread_id>
80000320:	800027b7          	lui	a5,0x80002
80000324:	00c12083          	lw	ra,12(sp)
80000328:	00251713          	slli	a4,a0,0x2
8000032c:	b1c78793          	addi	a5,a5,-1252 # 80001b1c <__global_pointer$+0xfffff804>
80000330:	00e787b3          	add	a5,a5,a4
80000334:	00a7a023          	sw	a0,0(a5)
80000338:	01010113          	addi	sp,sp,16
8000033c:	00008067          	ret

80000340 <_Z8test_tmcv>:
80000340:	80001537          	lui	a0,0x80001
80000344:	ff010113          	addi	sp,sp,-16
80000348:	af450513          	addi	a0,a0,-1292 # 80000af4 <__global_pointer$+0xffffe7dc>
8000034c:	00112623          	sw	ra,12(sp)
80000350:	00812423          	sw	s0,8(sp)
80000354:	00912223          	sw	s1,4(sp)
80000358:	e01ff0ef          	jal	ra,80000158 <vx_print_str>
8000035c:	00400513          	li	a0,4
80000360:	d89ff0ef          	jal	ra,800000e8 <vx_tmc>
80000364:	db5ff0ef          	jal	ra,80000118 <vx_thread_id>
80000368:	80002437          	lui	s0,0x80002
8000036c:	b1c40413          	addi	s0,s0,-1252 # 80001b1c <__global_pointer$+0xfffff804>
80000370:	00251713          	slli	a4,a0,0x2
80000374:	00050793          	mv	a5,a0
80000378:	00e40733          	add	a4,s0,a4
8000037c:	00100513          	li	a0,1
80000380:	00f72023          	sw	a5,0(a4)
80000384:	d65ff0ef          	jal	ra,800000e8 <vx_tmc>
80000388:	00042503          	lw	a0,0(s0)
8000038c:	800014b7          	lui	s1,0x80001
80000390:	e0dff0ef          	jal	ra,8000019c <vx_print_hex>
80000394:	a5c48513          	addi	a0,s1,-1444 # 80000a5c <__global_pointer$+0xffffe744>
80000398:	dc1ff0ef          	jal	ra,80000158 <vx_print_str>
8000039c:	00442503          	lw	a0,4(s0)
800003a0:	dfdff0ef          	jal	ra,8000019c <vx_print_hex>
800003a4:	a5c48513          	addi	a0,s1,-1444
800003a8:	db1ff0ef          	jal	ra,80000158 <vx_print_str>
800003ac:	00842503          	lw	a0,8(s0)
800003b0:	dedff0ef          	jal	ra,8000019c <vx_print_hex>
800003b4:	a5c48513          	addi	a0,s1,-1444
800003b8:	da1ff0ef          	jal	ra,80000158 <vx_print_str>
800003bc:	00c42503          	lw	a0,12(s0)
800003c0:	dddff0ef          	jal	ra,8000019c <vx_print_hex>
800003c4:	00812403          	lw	s0,8(sp)
800003c8:	00c12083          	lw	ra,12(sp)
800003cc:	a5c48513          	addi	a0,s1,-1444
800003d0:	00412483          	lw	s1,4(sp)
800003d4:	01010113          	addi	sp,sp,16
800003d8:	d81ff06f          	j	80000158 <vx_print_str>

800003dc <_Z15test_divergencev>:
800003dc:	ff010113          	addi	sp,sp,-16
800003e0:	00112623          	sw	ra,12(sp)
800003e4:	00812423          	sw	s0,8(sp)
800003e8:	00912223          	sw	s1,4(sp)
800003ec:	d2dff0ef          	jal	ra,80000118 <vx_thread_id>
800003f0:	00050413          	mv	s0,a0
800003f4:	00253513          	sltiu	a0,a0,2
800003f8:	d01ff0ef          	jal	ra,800000f8 <vx_split>
800003fc:	00100793          	li	a5,1
80000400:	0887f863          	bgeu	a5,s0,80000490 <_Z15test_divergencev+0xb4>
80000404:	00343513          	sltiu	a0,s0,3
80000408:	cf1ff0ef          	jal	ra,800000f8 <vx_split>
8000040c:	00200793          	li	a5,2
80000410:	c4418493          	addi	s1,gp,-956 # 80001f5c <wsapwn_arr>
80000414:	06f40863          	beq	s0,a5,80000484 <_Z15test_divergencev+0xa8>
80000418:	00241413          	slli	s0,s0,0x2
8000041c:	00848433          	add	s0,s1,s0
80000420:	00d00793          	li	a5,13
80000424:	00f42823          	sw	a5,16(s0)
80000428:	cd9ff0ef          	jal	ra,80000100 <vx_join>
8000042c:	cd5ff0ef          	jal	ra,80000100 <vx_join>
80000430:	0104a503          	lw	a0,16(s1)
80000434:	80001437          	lui	s0,0x80001
80000438:	d65ff0ef          	jal	ra,8000019c <vx_print_hex>
8000043c:	a5c40513          	addi	a0,s0,-1444 # 80000a5c <__global_pointer$+0xffffe744>
80000440:	d19ff0ef          	jal	ra,80000158 <vx_print_str>
80000444:	0144a503          	lw	a0,20(s1)
80000448:	d55ff0ef          	jal	ra,8000019c <vx_print_hex>
8000044c:	a5c40513          	addi	a0,s0,-1444
80000450:	d09ff0ef          	jal	ra,80000158 <vx_print_str>
80000454:	0184a503          	lw	a0,24(s1)
80000458:	d45ff0ef          	jal	ra,8000019c <vx_print_hex>
8000045c:	a5c40513          	addi	a0,s0,-1444
80000460:	cf9ff0ef          	jal	ra,80000158 <vx_print_str>
80000464:	01c4a503          	lw	a0,28(s1)
80000468:	d35ff0ef          	jal	ra,8000019c <vx_print_hex>
8000046c:	a5c40513          	addi	a0,s0,-1444
80000470:	00812403          	lw	s0,8(sp)
80000474:	00c12083          	lw	ra,12(sp)
80000478:	00412483          	lw	s1,4(sp)
8000047c:	01010113          	addi	sp,sp,16
80000480:	cd9ff06f          	j	80000158 <vx_print_str>
80000484:	00c00793          	li	a5,12
80000488:	00f4ac23          	sw	a5,24(s1)
8000048c:	f9dff06f          	j	80000428 <_Z15test_divergencev+0x4c>
80000490:	00144513          	xori	a0,s0,1
80000494:	c65ff0ef          	jal	ra,800000f8 <vx_split>
80000498:	c4418493          	addi	s1,gp,-956 # 80001f5c <wsapwn_arr>
8000049c:	00041863          	bnez	s0,800004ac <_Z15test_divergencev+0xd0>
800004a0:	00a00793          	li	a5,10
800004a4:	00f4a823          	sw	a5,16(s1)
800004a8:	f81ff06f          	j	80000428 <_Z15test_divergencev+0x4c>
800004ac:	00b00793          	li	a5,11
800004b0:	00f4aa23          	sw	a5,20(s1)
800004b4:	f75ff06f          	j	80000428 <_Z15test_divergencev+0x4c>

800004b8 <_Z11test_wsapwnv>:
800004b8:	800005b7          	lui	a1,0x80000
800004bc:	ff010113          	addi	sp,sp,-16
800004c0:	2d858593          	addi	a1,a1,728 # 800002d8 <__global_pointer$+0xffffdfc0>
800004c4:	00400513          	li	a0,4
800004c8:	00112623          	sw	ra,12(sp)
800004cc:	00812423          	sw	s0,8(sp)
800004d0:	00912223          	sw	s1,4(sp)
800004d4:	c0dff0ef          	jal	ra,800000e0 <vx_wspawn>
800004d8:	c31ff0ef          	jal	ra,80000108 <vx_warp_id>
800004dc:	c4418413          	addi	s0,gp,-956 # 80001f5c <wsapwn_arr>
800004e0:	00251793          	slli	a5,a0,0x2
800004e4:	00f407b3          	add	a5,s0,a5
800004e8:	00a7a023          	sw	a0,0(a5)
800004ec:	04051c63          	bnez	a0,80000544 <_Z11test_wsapwnv+0x8c>
800004f0:	00042503          	lw	a0,0(s0)
800004f4:	800014b7          	lui	s1,0x80001
800004f8:	ca5ff0ef          	jal	ra,8000019c <vx_print_hex>
800004fc:	a5c48513          	addi	a0,s1,-1444 # 80000a5c <__global_pointer$+0xffffe744>
80000500:	c59ff0ef          	jal	ra,80000158 <vx_print_str>
80000504:	00442503          	lw	a0,4(s0)
80000508:	c95ff0ef          	jal	ra,8000019c <vx_print_hex>
8000050c:	a5c48513          	addi	a0,s1,-1444
80000510:	c49ff0ef          	jal	ra,80000158 <vx_print_str>
80000514:	00842503          	lw	a0,8(s0)
80000518:	c85ff0ef          	jal	ra,8000019c <vx_print_hex>
8000051c:	a5c48513          	addi	a0,s1,-1444
80000520:	c39ff0ef          	jal	ra,80000158 <vx_print_str>
80000524:	00c42503          	lw	a0,12(s0)
80000528:	c75ff0ef          	jal	ra,8000019c <vx_print_hex>
8000052c:	00812403          	lw	s0,8(sp)
80000530:	00c12083          	lw	ra,12(sp)
80000534:	a5c48513          	addi	a0,s1,-1444
80000538:	00412483          	lw	s1,4(sp)
8000053c:	01010113          	addi	sp,sp,16
80000540:	c19ff06f          	j	80000158 <vx_print_str>
80000544:	00000513          	li	a0,0
80000548:	ba1ff0ef          	jal	ra,800000e8 <vx_tmc>
8000054c:	fa5ff06f          	j	800004f0 <_Z11test_wsapwnv+0x38>

80000550 <_Z16intrinsics_testsv>:
80000550:	80001537          	lui	a0,0x80001
80000554:	ff010113          	addi	sp,sp,-16
80000558:	af450513          	addi	a0,a0,-1292 # 80000af4 <__global_pointer$+0xffffe7dc>
8000055c:	00112623          	sw	ra,12(sp)
80000560:	00812423          	sw	s0,8(sp)
80000564:	00912223          	sw	s1,4(sp)
80000568:	bf1ff0ef          	jal	ra,80000158 <vx_print_str>
8000056c:	00400513          	li	a0,4
80000570:	b79ff0ef          	jal	ra,800000e8 <vx_tmc>
80000574:	ba5ff0ef          	jal	ra,80000118 <vx_thread_id>
80000578:	800024b7          	lui	s1,0x80002
8000057c:	b1c48493          	addi	s1,s1,-1252 # 80001b1c <__global_pointer$+0xfffff804>
80000580:	00251713          	slli	a4,a0,0x2
80000584:	00050793          	mv	a5,a0
80000588:	00e48733          	add	a4,s1,a4
8000058c:	00100513          	li	a0,1
80000590:	00f72023          	sw	a5,0(a4)
80000594:	b55ff0ef          	jal	ra,800000e8 <vx_tmc>
80000598:	0004a503          	lw	a0,0(s1)
8000059c:	80001437          	lui	s0,0x80001
800005a0:	bfdff0ef          	jal	ra,8000019c <vx_print_hex>
800005a4:	a5c40513          	addi	a0,s0,-1444 # 80000a5c <__global_pointer$+0xffffe744>
800005a8:	bb1ff0ef          	jal	ra,80000158 <vx_print_str>
800005ac:	0044a503          	lw	a0,4(s1)
800005b0:	bedff0ef          	jal	ra,8000019c <vx_print_hex>
800005b4:	a5c40513          	addi	a0,s0,-1444
800005b8:	ba1ff0ef          	jal	ra,80000158 <vx_print_str>
800005bc:	0084a503          	lw	a0,8(s1)
800005c0:	bddff0ef          	jal	ra,8000019c <vx_print_hex>
800005c4:	a5c40513          	addi	a0,s0,-1444
800005c8:	b91ff0ef          	jal	ra,80000158 <vx_print_str>
800005cc:	00c4a503          	lw	a0,12(s1)
800005d0:	c4418493          	addi	s1,gp,-956 # 80001f5c <wsapwn_arr>
800005d4:	bc9ff0ef          	jal	ra,8000019c <vx_print_hex>
800005d8:	a5c40513          	addi	a0,s0,-1444
800005dc:	b7dff0ef          	jal	ra,80000158 <vx_print_str>
800005e0:	80001537          	lui	a0,0x80001
800005e4:	ae050513          	addi	a0,a0,-1312 # 80000ae0 <__global_pointer$+0xffffe7c8>
800005e8:	b71ff0ef          	jal	ra,80000158 <vx_print_str>
800005ec:	00400513          	li	a0,4
800005f0:	af9ff0ef          	jal	ra,800000e8 <vx_tmc>
800005f4:	de9ff0ef          	jal	ra,800003dc <_Z15test_divergencev>
800005f8:	00100513          	li	a0,1
800005fc:	aedff0ef          	jal	ra,800000e8 <vx_tmc>
80000600:	80001537          	lui	a0,0x80001
80000604:	b0450513          	addi	a0,a0,-1276 # 80000b04 <__global_pointer$+0xffffe7ec>
80000608:	b51ff0ef          	jal	ra,80000158 <vx_print_str>
8000060c:	800005b7          	lui	a1,0x80000
80000610:	2d858593          	addi	a1,a1,728 # 800002d8 <__global_pointer$+0xffffdfc0>
80000614:	00400513          	li	a0,4
80000618:	ac9ff0ef          	jal	ra,800000e0 <vx_wspawn>
8000061c:	aedff0ef          	jal	ra,80000108 <vx_warp_id>
80000620:	00251793          	slli	a5,a0,0x2
80000624:	00f487b3          	add	a5,s1,a5
80000628:	00a7a023          	sw	a0,0(a5)
8000062c:	04051a63          	bnez	a0,80000680 <_Z16intrinsics_testsv+0x130>
80000630:	0004a503          	lw	a0,0(s1)
80000634:	b69ff0ef          	jal	ra,8000019c <vx_print_hex>
80000638:	a5c40513          	addi	a0,s0,-1444
8000063c:	b1dff0ef          	jal	ra,80000158 <vx_print_str>
80000640:	0044a503          	lw	a0,4(s1)
80000644:	b59ff0ef          	jal	ra,8000019c <vx_print_hex>
80000648:	a5c40513          	addi	a0,s0,-1444
8000064c:	b0dff0ef          	jal	ra,80000158 <vx_print_str>
80000650:	0084a503          	lw	a0,8(s1)
80000654:	b49ff0ef          	jal	ra,8000019c <vx_print_hex>
80000658:	a5c40513          	addi	a0,s0,-1444
8000065c:	afdff0ef          	jal	ra,80000158 <vx_print_str>
80000660:	00c4a503          	lw	a0,12(s1)
80000664:	b39ff0ef          	jal	ra,8000019c <vx_print_hex>
80000668:	a5c40513          	addi	a0,s0,-1444
8000066c:	00812403          	lw	s0,8(sp)
80000670:	00c12083          	lw	ra,12(sp)
80000674:	00412483          	lw	s1,4(sp)
80000678:	01010113          	addi	sp,sp,16
8000067c:	addff06f          	j	80000158 <vx_print_str>
80000680:	00000513          	li	a0,0
80000684:	a65ff0ef          	jal	ra,800000e8 <vx_tmc>
80000688:	fa9ff06f          	j	80000630 <_Z16intrinsics_testsv+0xe0>

8000068c <atexit>:
8000068c:	00050593          	mv	a1,a0
80000690:	00000693          	li	a3,0
80000694:	00000613          	li	a2,0
80000698:	00000513          	li	a0,0
8000069c:	2080006f          	j	800008a4 <__register_exitproc>

800006a0 <exit>:
800006a0:	ff010113          	addi	sp,sp,-16
800006a4:	00000593          	li	a1,0
800006a8:	00812423          	sw	s0,8(sp)
800006ac:	00112623          	sw	ra,12(sp)
800006b0:	00050413          	mv	s0,a0
800006b4:	288000ef          	jal	ra,8000093c <__call_exitprocs>
800006b8:	c401a503          	lw	a0,-960(gp) # 80001f58 <_global_impure_ptr>
800006bc:	03c52783          	lw	a5,60(a0)
800006c0:	00078463          	beqz	a5,800006c8 <exit+0x28>
800006c4:	000780e7          	jalr	a5
800006c8:	00040513          	mv	a0,s0
800006cc:	9cdff0ef          	jal	ra,80000098 <_exit>

800006d0 <__libc_fini_array>:
800006d0:	ff010113          	addi	sp,sp,-16
800006d4:	00812423          	sw	s0,8(sp)
800006d8:	800027b7          	lui	a5,0x80002
800006dc:	80002437          	lui	s0,0x80002
800006e0:	b1440413          	addi	s0,s0,-1260 # 80001b14 <__global_pointer$+0xfffff7fc>
800006e4:	b1478793          	addi	a5,a5,-1260 # 80001b14 <__global_pointer$+0xfffff7fc>
800006e8:	408787b3          	sub	a5,a5,s0
800006ec:	00912223          	sw	s1,4(sp)
800006f0:	00112623          	sw	ra,12(sp)
800006f4:	4027d493          	srai	s1,a5,0x2
800006f8:	02048063          	beqz	s1,80000718 <__libc_fini_array+0x48>
800006fc:	ffc78793          	addi	a5,a5,-4
80000700:	00878433          	add	s0,a5,s0
80000704:	00042783          	lw	a5,0(s0)
80000708:	fff48493          	addi	s1,s1,-1
8000070c:	ffc40413          	addi	s0,s0,-4
80000710:	000780e7          	jalr	a5
80000714:	fe0498e3          	bnez	s1,80000704 <__libc_fini_array+0x34>
80000718:	00c12083          	lw	ra,12(sp)
8000071c:	00812403          	lw	s0,8(sp)
80000720:	00412483          	lw	s1,4(sp)
80000724:	01010113          	addi	sp,sp,16
80000728:	00008067          	ret

8000072c <__libc_init_array>:
8000072c:	ff010113          	addi	sp,sp,-16
80000730:	00812423          	sw	s0,8(sp)
80000734:	01212023          	sw	s2,0(sp)
80000738:	80002437          	lui	s0,0x80002
8000073c:	80002937          	lui	s2,0x80002
80000740:	b1040793          	addi	a5,s0,-1264 # 80001b10 <__global_pointer$+0xfffff7f8>
80000744:	b1090913          	addi	s2,s2,-1264 # 80001b10 <__global_pointer$+0xfffff7f8>
80000748:	40f90933          	sub	s2,s2,a5
8000074c:	00112623          	sw	ra,12(sp)
80000750:	00912223          	sw	s1,4(sp)
80000754:	40295913          	srai	s2,s2,0x2
80000758:	02090063          	beqz	s2,80000778 <__libc_init_array+0x4c>
8000075c:	b1040413          	addi	s0,s0,-1264
80000760:	00000493          	li	s1,0
80000764:	00042783          	lw	a5,0(s0)
80000768:	00148493          	addi	s1,s1,1
8000076c:	00440413          	addi	s0,s0,4
80000770:	000780e7          	jalr	a5
80000774:	fe9918e3          	bne	s2,s1,80000764 <__libc_init_array+0x38>
80000778:	80002437          	lui	s0,0x80002
8000077c:	80002937          	lui	s2,0x80002
80000780:	b1040793          	addi	a5,s0,-1264 # 80001b10 <__global_pointer$+0xfffff7f8>
80000784:	b1490913          	addi	s2,s2,-1260 # 80001b14 <__global_pointer$+0xfffff7fc>
80000788:	40f90933          	sub	s2,s2,a5
8000078c:	40295913          	srai	s2,s2,0x2
80000790:	02090063          	beqz	s2,800007b0 <__libc_init_array+0x84>
80000794:	b1040413          	addi	s0,s0,-1264
80000798:	00000493          	li	s1,0
8000079c:	00042783          	lw	a5,0(s0)
800007a0:	00148493          	addi	s1,s1,1
800007a4:	00440413          	addi	s0,s0,4
800007a8:	000780e7          	jalr	a5
800007ac:	fe9918e3          	bne	s2,s1,8000079c <__libc_init_array+0x70>
800007b0:	00c12083          	lw	ra,12(sp)
800007b4:	00812403          	lw	s0,8(sp)
800007b8:	00412483          	lw	s1,4(sp)
800007bc:	00012903          	lw	s2,0(sp)
800007c0:	01010113          	addi	sp,sp,16
800007c4:	00008067          	ret

800007c8 <memset>:
800007c8:	00f00313          	li	t1,15
800007cc:	00050713          	mv	a4,a0
800007d0:	02c37e63          	bgeu	t1,a2,8000080c <memset+0x44>
800007d4:	00f77793          	andi	a5,a4,15
800007d8:	0a079063          	bnez	a5,80000878 <memset+0xb0>
800007dc:	08059263          	bnez	a1,80000860 <memset+0x98>
800007e0:	ff067693          	andi	a3,a2,-16
800007e4:	00f67613          	andi	a2,a2,15
800007e8:	00e686b3          	add	a3,a3,a4
800007ec:	00b72023          	sw	a1,0(a4)
800007f0:	00b72223          	sw	a1,4(a4)
800007f4:	00b72423          	sw	a1,8(a4)
800007f8:	00b72623          	sw	a1,12(a4)
800007fc:	01070713          	addi	a4,a4,16
80000800:	fed766e3          	bltu	a4,a3,800007ec <memset+0x24>
80000804:	00061463          	bnez	a2,8000080c <memset+0x44>
80000808:	00008067          	ret
8000080c:	40c306b3          	sub	a3,t1,a2
80000810:	00269693          	slli	a3,a3,0x2
80000814:	00000297          	auipc	t0,0x0
80000818:	005686b3          	add	a3,a3,t0
8000081c:	00c68067          	jr	12(a3)
80000820:	00b70723          	sb	a1,14(a4)
80000824:	00b706a3          	sb	a1,13(a4)
80000828:	00b70623          	sb	a1,12(a4)
8000082c:	00b705a3          	sb	a1,11(a4)
80000830:	00b70523          	sb	a1,10(a4)
80000834:	00b704a3          	sb	a1,9(a4)
80000838:	00b70423          	sb	a1,8(a4)
8000083c:	00b703a3          	sb	a1,7(a4)
80000840:	00b70323          	sb	a1,6(a4)
80000844:	00b702a3          	sb	a1,5(a4)
80000848:	00b70223          	sb	a1,4(a4)
8000084c:	00b701a3          	sb	a1,3(a4)
80000850:	00b70123          	sb	a1,2(a4)
80000854:	00b700a3          	sb	a1,1(a4)
80000858:	00b70023          	sb	a1,0(a4)
8000085c:	00008067          	ret
80000860:	0ff5f593          	andi	a1,a1,255
80000864:	00859693          	slli	a3,a1,0x8
80000868:	00d5e5b3          	or	a1,a1,a3
8000086c:	01059693          	slli	a3,a1,0x10
80000870:	00d5e5b3          	or	a1,a1,a3
80000874:	f6dff06f          	j	800007e0 <memset+0x18>
80000878:	00279693          	slli	a3,a5,0x2
8000087c:	00000297          	auipc	t0,0x0
80000880:	005686b3          	add	a3,a3,t0
80000884:	00008293          	mv	t0,ra
80000888:	fa0680e7          	jalr	-96(a3)
8000088c:	00028093          	mv	ra,t0
80000890:	ff078793          	addi	a5,a5,-16
80000894:	40f70733          	sub	a4,a4,a5
80000898:	00f60633          	add	a2,a2,a5
8000089c:	f6c378e3          	bgeu	t1,a2,8000080c <memset+0x44>
800008a0:	f3dff06f          	j	800007dc <memset+0x14>

800008a4 <__register_exitproc>:
800008a4:	c401a703          	lw	a4,-960(gp) # 80001f58 <_global_impure_ptr>
800008a8:	14872783          	lw	a5,328(a4)
800008ac:	04078c63          	beqz	a5,80000904 <__register_exitproc+0x60>
800008b0:	0047a703          	lw	a4,4(a5)
800008b4:	01f00813          	li	a6,31
800008b8:	06e84e63          	blt	a6,a4,80000934 <__register_exitproc+0x90>
800008bc:	00271813          	slli	a6,a4,0x2
800008c0:	02050663          	beqz	a0,800008ec <__register_exitproc+0x48>
800008c4:	01078333          	add	t1,a5,a6
800008c8:	08c32423          	sw	a2,136(t1)
800008cc:	1887a883          	lw	a7,392(a5)
800008d0:	00100613          	li	a2,1
800008d4:	00e61633          	sll	a2,a2,a4
800008d8:	00c8e8b3          	or	a7,a7,a2
800008dc:	1917a423          	sw	a7,392(a5)
800008e0:	10d32423          	sw	a3,264(t1)
800008e4:	00200693          	li	a3,2
800008e8:	02d50463          	beq	a0,a3,80000910 <__register_exitproc+0x6c>
800008ec:	00170713          	addi	a4,a4,1
800008f0:	00e7a223          	sw	a4,4(a5)
800008f4:	010787b3          	add	a5,a5,a6
800008f8:	00b7a423          	sw	a1,8(a5)
800008fc:	00000513          	li	a0,0
80000900:	00008067          	ret
80000904:	14c70793          	addi	a5,a4,332
80000908:	14f72423          	sw	a5,328(a4)
8000090c:	fa5ff06f          	j	800008b0 <__register_exitproc+0xc>
80000910:	18c7a683          	lw	a3,396(a5)
80000914:	00170713          	addi	a4,a4,1
80000918:	00e7a223          	sw	a4,4(a5)
8000091c:	00c6e633          	or	a2,a3,a2
80000920:	18c7a623          	sw	a2,396(a5)
80000924:	010787b3          	add	a5,a5,a6
80000928:	00b7a423          	sw	a1,8(a5)
8000092c:	00000513          	li	a0,0
80000930:	00008067          	ret
80000934:	fff00513          	li	a0,-1
80000938:	00008067          	ret

8000093c <__call_exitprocs>:
8000093c:	fd010113          	addi	sp,sp,-48
80000940:	01412c23          	sw	s4,24(sp)
80000944:	c401aa03          	lw	s4,-960(gp) # 80001f58 <_global_impure_ptr>
80000948:	03212023          	sw	s2,32(sp)
8000094c:	02112623          	sw	ra,44(sp)
80000950:	148a2903          	lw	s2,328(s4)
80000954:	02812423          	sw	s0,40(sp)
80000958:	02912223          	sw	s1,36(sp)
8000095c:	01312e23          	sw	s3,28(sp)
80000960:	01512a23          	sw	s5,20(sp)
80000964:	01612823          	sw	s6,16(sp)
80000968:	01712623          	sw	s7,12(sp)
8000096c:	01812423          	sw	s8,8(sp)
80000970:	04090063          	beqz	s2,800009b0 <__call_exitprocs+0x74>
80000974:	00050b13          	mv	s6,a0
80000978:	00058b93          	mv	s7,a1
8000097c:	00100a93          	li	s5,1
80000980:	fff00993          	li	s3,-1
80000984:	00492483          	lw	s1,4(s2)
80000988:	fff48413          	addi	s0,s1,-1
8000098c:	02044263          	bltz	s0,800009b0 <__call_exitprocs+0x74>
80000990:	00249493          	slli	s1,s1,0x2
80000994:	009904b3          	add	s1,s2,s1
80000998:	040b8463          	beqz	s7,800009e0 <__call_exitprocs+0xa4>
8000099c:	1044a783          	lw	a5,260(s1)
800009a0:	05778063          	beq	a5,s7,800009e0 <__call_exitprocs+0xa4>
800009a4:	fff40413          	addi	s0,s0,-1
800009a8:	ffc48493          	addi	s1,s1,-4
800009ac:	ff3416e3          	bne	s0,s3,80000998 <__call_exitprocs+0x5c>
800009b0:	02c12083          	lw	ra,44(sp)
800009b4:	02812403          	lw	s0,40(sp)
800009b8:	02412483          	lw	s1,36(sp)
800009bc:	02012903          	lw	s2,32(sp)
800009c0:	01c12983          	lw	s3,28(sp)
800009c4:	01812a03          	lw	s4,24(sp)
800009c8:	01412a83          	lw	s5,20(sp)
800009cc:	01012b03          	lw	s6,16(sp)
800009d0:	00c12b83          	lw	s7,12(sp)
800009d4:	00812c03          	lw	s8,8(sp)
800009d8:	03010113          	addi	sp,sp,48
800009dc:	00008067          	ret
800009e0:	00492783          	lw	a5,4(s2)
800009e4:	0044a683          	lw	a3,4(s1)
800009e8:	fff78793          	addi	a5,a5,-1
800009ec:	04878e63          	beq	a5,s0,80000a48 <__call_exitprocs+0x10c>
800009f0:	0004a223          	sw	zero,4(s1)
800009f4:	fa0688e3          	beqz	a3,800009a4 <__call_exitprocs+0x68>
800009f8:	18892783          	lw	a5,392(s2)
800009fc:	008a9733          	sll	a4,s5,s0
80000a00:	00492c03          	lw	s8,4(s2)
80000a04:	00f777b3          	and	a5,a4,a5
80000a08:	02079263          	bnez	a5,80000a2c <__call_exitprocs+0xf0>
80000a0c:	000680e7          	jalr	a3
80000a10:	00492703          	lw	a4,4(s2)
80000a14:	148a2783          	lw	a5,328(s4)
80000a18:	01871463          	bne	a4,s8,80000a20 <__call_exitprocs+0xe4>
80000a1c:	f8f904e3          	beq	s2,a5,800009a4 <__call_exitprocs+0x68>
80000a20:	f80788e3          	beqz	a5,800009b0 <__call_exitprocs+0x74>
80000a24:	00078913          	mv	s2,a5
80000a28:	f5dff06f          	j	80000984 <__call_exitprocs+0x48>
80000a2c:	18c92783          	lw	a5,396(s2)
80000a30:	0844a583          	lw	a1,132(s1)
80000a34:	00f77733          	and	a4,a4,a5
80000a38:	00071c63          	bnez	a4,80000a50 <__call_exitprocs+0x114>
80000a3c:	000b0513          	mv	a0,s6
80000a40:	000680e7          	jalr	a3
80000a44:	fcdff06f          	j	80000a10 <__call_exitprocs+0xd4>
80000a48:	00892223          	sw	s0,4(s2)
80000a4c:	fa9ff06f          	j	800009f4 <__call_exitprocs+0xb8>
80000a50:	00058513          	mv	a0,a1
80000a54:	000680e7          	jalr	a3
80000a58:	fb9ff06f          	j	80000a10 <__call_exitprocs+0xd4>

Disassembly of section .rodata:

80000a5c <_ZL6hextoa-0x44>:
80000a5c:	000a                	c.slli	zero,0x2
80000a5e:	0000                	unimp
80000a60:	0030                	addi	a2,sp,8
80000a62:	0000                	unimp
80000a64:	0031                	c.nop	12
80000a66:	0000                	unimp
80000a68:	0032                	c.slli	zero,0xc
80000a6a:	0000                	unimp
80000a6c:	00000033          	add	zero,zero,zero
80000a70:	0034                	addi	a3,sp,8
80000a72:	0000                	unimp
80000a74:	0035                	c.nop	13
80000a76:	0000                	unimp
80000a78:	0036                	c.slli	zero,0xd
80000a7a:	0000                	unimp
80000a7c:	00000037          	lui	zero,0x0
80000a80:	0038                	addi	a4,sp,8
80000a82:	0000                	unimp
80000a84:	0039                	c.nop	14
80000a86:	0000                	unimp
80000a88:	0061                	c.nop	24
80000a8a:	0000                	unimp
80000a8c:	0062                	c.slli	zero,0x18
80000a8e:	0000                	unimp
80000a90:	00000063          	beqz	zero,80000a90 <__call_exitprocs+0x154>
80000a94:	0064                	addi	s1,sp,12
80000a96:	0000                	unimp
80000a98:	0065                	c.nop	25
80000a9a:	0000                	unimp
80000a9c:	0066                	c.slli	zero,0x19
	...

80000aa0 <_ZL6hextoa>:
80000aa0:	0a60                	addi	s0,sp,284
80000aa2:	8000                	0x8000
80000aa4:	0a64                	addi	s1,sp,284
80000aa6:	8000                	0x8000
80000aa8:	0a68                	addi	a0,sp,284
80000aaa:	8000                	0x8000
80000aac:	0a6c                	addi	a1,sp,284
80000aae:	8000                	0x8000
80000ab0:	0a70                	addi	a2,sp,284
80000ab2:	8000                	0x8000
80000ab4:	0a74                	addi	a3,sp,284
80000ab6:	8000                	0x8000
80000ab8:	0a78                	addi	a4,sp,284
80000aba:	8000                	0x8000
80000abc:	0a7c                	addi	a5,sp,284
80000abe:	8000                	0x8000
80000ac0:	0a80                	addi	s0,sp,336
80000ac2:	8000                	0x8000
80000ac4:	0a84                	addi	s1,sp,336
80000ac6:	8000                	0x8000
80000ac8:	0a88                	addi	a0,sp,336
80000aca:	8000                	0x8000
80000acc:	0a8c                	addi	a1,sp,336
80000ace:	8000                	0x8000
80000ad0:	0a90                	addi	a2,sp,336
80000ad2:	8000                	0x8000
80000ad4:	0a94                	addi	a3,sp,336
80000ad6:	8000                	0x8000
80000ad8:	0a98                	addi	a4,sp,336
80000ada:	8000                	0x8000
80000adc:	0a9c                	addi	a5,sp,336
80000ade:	8000                	0x8000
80000ae0:	6574                	flw	fa3,76(a0)
80000ae2:	645f7473          	csrrci	s0,0x645,30
80000ae6:	7669                	lui	a2,0xffffa
80000ae8:	7265                	lui	tp,0xffff9
80000aea:	636e6567          	0x636e6567
80000aee:	0a65                	addi	s4,s4,25
80000af0:	0000                	unimp
80000af2:	0000                	unimp
80000af4:	6574                	flw	fa3,76(a0)
80000af6:	6e697473          	csrrci	s0,0x6e6,18
80000afa:	6d745f67          	0x6d745f67
80000afe:	00000a63          	beqz	zero,80000b12 <_ZL6hextoa+0x72>
80000b02:	0000                	unimp
80000b04:	6574                	flw	fa3,76(a0)
80000b06:	735f7473          	csrrci	s0,0x735,30
80000b0a:	6170                	flw	fa2,68(a0)
80000b0c:	000a6e77          	0xa6e77

Disassembly of section .init_array:

80001b10 <__init_array_start>:
80001b10:	0080                	addi	s0,sp,64
80001b12:	8000                	0x8000

Disassembly of section .data:

80001b18 <__DATA_BEGIN__>:
80001b18:	fffc                	fsw	fa5,124(a5)
80001b1a:	ffff                	0xffff

80001b1c <tmc_array>:
80001b1c:	0005                	c.nop	1
80001b1e:	0000                	unimp
80001b20:	0005                	c.nop	1
80001b22:	0000                	unimp
80001b24:	0005                	c.nop	1
80001b26:	0000                	unimp
80001b28:	0005                	c.nop	1
80001b2a:	0000                	unimp
80001b2c:	0000                	unimp
	...

80001b30 <impure_data>:
80001b30:	0000                	unimp
80001b32:	0000                	unimp
80001b34:	1e1c                	addi	a5,sp,816
80001b36:	8000                	0x8000
80001b38:	1e84                	addi	s1,sp,880
80001b3a:	8000                	0x8000
80001b3c:	1eec                	addi	a1,sp,892
80001b3e:	8000                	0x8000
	...
80001bd8:	0001                	nop
80001bda:	0000                	unimp
80001bdc:	0000                	unimp
80001bde:	0000                	unimp
80001be0:	330e                	fld	ft6,224(sp)
80001be2:	abcd                	j	800021d4 <__BSS_END__+0x258>
80001be4:	1234                	addi	a3,sp,296
80001be6:	e66d                	bnez	a2,80001cd0 <impure_data+0x1a0>
80001be8:	deec                	sw	a1,124(a3)
80001bea:	0005                	c.nop	1
80001bec:	0000000b          	0xb
	...

Disassembly of section .sdata:

80001f58 <_global_impure_ptr>:
80001f58:	1b30                	addi	a2,sp,440
80001f5a:	8000                	0x8000

Disassembly of section .bss:

80001f5c <wsapwn_arr>:
	...

80001f6c <div_arr>:
	...

Disassembly of section .comment:

00000000 <.comment>:
   0:	3a434347          	fmsub.d	ft6,ft6,ft4,ft7,rmm
   4:	2820                	fld	fs0,80(s0)
   6:	29554e47          	fmsub.s	ft8,fa0,fs5,ft5,rmm
   a:	3920                	fld	fs0,112(a0)
   c:	322e                	fld	ft4,232(sp)
   e:	302e                	fld	ft0,232(sp)
	...

Disassembly of section .riscv.attributes:

00000000 <.riscv.attributes>:
   0:	2041                	jal	80 <_start-0x7fffff80>
   2:	0000                	unimp
   4:	7200                	flw	fs0,32(a2)
   6:	7369                	lui	t1,0xffffa
   8:	01007663          	bgeu	zero,a6,14 <_start-0x7fffffec>
   c:	0016                	c.slli	zero,0x5
   e:	0000                	unimp
  10:	1004                	addi	s1,sp,32
  12:	7205                	lui	tp,0xfffe1
  14:	3376                	fld	ft6,376(sp)
  16:	6932                	flw	fs2,12(sp)
  18:	7032                	flw	ft0,44(sp)
  1a:	5f30                	lw	a2,120(a4)
  1c:	326d                	jal	fffff9c6 <__global_pointer$+0x7fffd6ae>
  1e:	3070                	fld	fa2,224(s0)
	...

Disassembly of section .debug_aranges:

00000000 <.debug_aranges>:
   0:	001c                	0x1c
   2:	0000                	unimp
   4:	0002                	c.slli64	zero
   6:	0000                	unimp
   8:	0000                	unimp
   a:	0004                	0x4
	...
  20:	001c                	0x1c
  22:	0000                	unimp
  24:	0002                	c.slli64	zero
  26:	1245                	addi	tp,tp,-15
  28:	0000                	unimp
  2a:	0004                	0x4
	...

Disassembly of section .debug_info:

00000000 <.debug_info>:
       0:	1241                	addi	tp,tp,-16
       2:	0000                	unimp
       4:	0004                	0x4
       6:	0000                	unimp
       8:	0000                	unimp
       a:	0104                	addi	s1,sp,128
       c:	037a                	slli	t1,t1,0x1e
       e:	0000                	unimp
      10:	310c                	fld	fa1,32(a0)
      12:	0005                	c.nop	1
      14:	9600                	0x9600
      16:	0004                	0x4
	...
      24:	0200                	addi	s0,sp,256
      26:	0708                	addi	a0,sp,896
      28:	026c                	addi	a1,sp,268
      2a:	0000                	unimp
      2c:	0402                	c.slli64	s0
      2e:	00027607          	0x27607
      32:	0300                	addi	s0,sp,384
      34:	0504                	addi	s1,sp,640
      36:	6e69                	lui	t3,0x1a
      38:	0074                	addi	a3,sp,12
      3a:	0802                	c.slli64	a6
      3c:	5605                	li	a2,-31
      3e:	0004                	0x4
      40:	0200                	addi	s0,sp,256
      42:	0410                	addi	a2,sp,512
      44:	00c0                	addi	s0,sp,68
      46:	0000                	unimp
      48:	0102                	c.slli64	sp
      4a:	ac06                	fsd	ft1,24(sp)
      4c:	0006                	c.slli	zero,0x1
      4e:	0200                	addi	s0,sp,256
      50:	0801                	addi	a6,a6,0
      52:	06aa                	slli	a3,a3,0xa
      54:	0000                	unimp
      56:	0202                	c.slli64	tp
      58:	0005                	c.nop	1
      5a:	0000                	unimp
      5c:	0200                	addi	s0,sp,256
      5e:	0702                	c.slli64	a4
      60:	028c                	addi	a1,sp,320
      62:	0000                	unimp
      64:	0402                	c.slli64	s0
      66:	5b05                	li	s6,-31
      68:	0004                	0x4
      6a:	0200                	addi	s0,sp,256
      6c:	0704                	addi	s1,sp,896
      6e:	0271                	addi	tp,tp,28
      70:	0000                	unimp
      72:	e804                	fsw	fs1,16(s0)
      74:	0002                	c.slli64	zero
      76:	0200                	addi	s0,sp,256
      78:	015e                	slli	sp,sp,0x17
      7a:	00002c17          	auipc	s8,0x2
      7e:	0500                	addi	s0,sp,640
      80:	048a                	slli	s1,s1,0x2
      82:	0000                	unimp
      84:	640e2e03          	lw	t3,1600(t3) # 1a640 <_start-0x7ffe59c0>
      88:	0000                	unimp
      8a:	0500                	addi	s0,sp,640
      8c:	0632                	slli	a2,a2,0xc
      8e:	0000                	unimp
      90:	640e7403          	0x640e7403
      94:	0000                	unimp
      96:	0500                	addi	s0,sp,640
      98:	0714                	addi	a3,sp,896
      9a:	0000                	unimp
      9c:	33179303          	lh	t1,817(a5)
      a0:	0000                	unimp
      a2:	0600                	addi	s0,sp,768
      a4:	0304                	addi	s1,sp,384
      a6:	03a5                	addi	t2,t2,9
      a8:	00c5                	addi	ra,ra,17
      aa:	0000                	unimp
      ac:	0002d307          	0x2d307
      b0:	0300                	addi	s0,sp,384
      b2:	00720ca7          	0x720ca7
      b6:	0000                	unimp
      b8:	00023e07          	fld	ft8,0(tp) # fffe1000 <__global_pointer$+0x7ffdece8>
      bc:	0300                	addi	s0,sp,384
      be:	13a8                	addi	a0,sp,488
      c0:	00c5                	addi	ra,ra,17
      c2:	0000                	unimp
      c4:	0800                	addi	s0,sp,16
      c6:	0000004f          	fnmadd.s	ft0,ft0,ft0,ft0,rne
      ca:	00d5                	addi	ra,ra,21
      cc:	0000                	unimp
      ce:	2c09                	jal	2e0 <_start-0x7ffffd20>
      d0:	0000                	unimp
      d2:	0300                	addi	s0,sp,384
      d4:	0a00                	addi	s0,sp,272
      d6:	0308                	addi	a0,sp,384
      d8:	09a2                	slli	s3,s3,0x8
      da:	00f9                	addi	ra,ra,30
      dc:	0000                	unimp
      de:	0003390b          	0x3390b
      e2:	0300                	addi	s0,sp,384
      e4:	07a4                	addi	s1,sp,968
      e6:	00000033          	add	zero,zero,zero
      ea:	0b00                	addi	s0,sp,400
      ec:	0624                	addi	s1,sp,776
      ee:	0000                	unimp
      f0:	a305a903          	lw	s2,-1488(a1)
      f4:	0000                	unimp
      f6:	0400                	addi	s0,sp,512
      f8:	0500                	addi	s0,sp,640
      fa:	050e                	slli	a0,a0,0x3
      fc:	0000                	unimp
      fe:	d503aa03          	lw	s4,-688(t2)
     102:	0000                	unimp
     104:	0c00                	addi	s0,sp,528
     106:	0504                	addi	s1,sp,640
     108:	06bd                	addi	a3,a3,15
     10a:	0000                	unimp
     10c:	1604                	addi	s1,sp,800
     10e:	6b19                	lui	s6,0x6
     110:	0000                	unimp
     112:	0500                	addi	s0,sp,640
     114:	0519                	addi	a0,a0,6
     116:	0000                	unimp
     118:	0c05                	addi	s8,s8,1
     11a:	330d                	jal	fffffe3c <__global_pointer$+0x7fffdb24>
     11c:	0000                	unimp
     11e:	0500                	addi	s0,sp,640
     120:	0000058f          	0x58f
     124:	2304                	fld	fs1,0(a4)
     126:	0001131b          	0x1131b
     12a:	0d00                	addi	s0,sp,656
     12c:	0372                	slli	t1,t1,0x1c
     12e:	0000                	unimp
     130:	0418                	addi	a4,sp,512
     132:	0834                	addi	a3,sp,24
     134:	0185                	addi	gp,gp,1
     136:	0000                	unimp
     138:	0007d40b          	0x7d40b
     13c:	0400                	addi	s0,sp,512
     13e:	1336                	slli	t1,t1,0x2d
     140:	0185                	addi	gp,gp,1
     142:	0000                	unimp
     144:	0e00                	addi	s0,sp,784
     146:	6b5f 0400 0737      	0x73704006b5f
     14c:	00000033          	add	zero,zero,zero
     150:	0b04                	addi	s1,sp,400
     152:	0601                	addi	a2,a2,0
     154:	0000                	unimp
     156:	3704                	fld	fs1,40(a4)
     158:	0000330b          	0x330b
     15c:	0800                	addi	s0,sp,16
     15e:	0001e20b          	0x1e20b
     162:	0400                	addi	s0,sp,512
     164:	00331437          	lui	s0,0x331
     168:	0000                	unimp
     16a:	0b0c                	addi	a1,sp,400
     16c:	015e                	slli	sp,sp,0x17
     16e:	0000                	unimp
     170:	3704                	fld	fs1,40(a4)
     172:	0000331b          	0x331b
     176:	1000                	addi	s0,sp,32
     178:	5f0e                	lw	t5,224(sp)
     17a:	0078                	addi	a4,sp,12
     17c:	3804                	fld	fs1,48(s0)
     17e:	00018b0b          	0x18b0b
     182:	1400                	addi	s0,sp,544
     184:	0f00                	addi	s0,sp,912
     186:	2b04                	fld	fs1,16(a4)
     188:	0001                	nop
     18a:	0800                	addi	s0,sp,16
     18c:	00000107          	0x107
     190:	0000019b          	0x19b
     194:	2c09                	jal	3a6 <_start-0x7ffffc5a>
     196:	0000                	unimp
     198:	0000                	unimp
     19a:	0d00                	addi	s0,sp,656
     19c:	0221                	addi	tp,tp,8
     19e:	0000                	unimp
     1a0:	0424                	addi	s1,sp,520
     1a2:	083c                	addi	a5,sp,24
     1a4:	021e                	slli	tp,tp,0x7
     1a6:	0000                	unimp
     1a8:	0000f80b          	0xf80b
     1ac:	0400                	addi	s0,sp,512
     1ae:	093e                	slli	s2,s2,0xf
     1b0:	00000033          	add	zero,zero,zero
     1b4:	0b00                	addi	s0,sp,400
     1b6:	0772                	slli	a4,a4,0x1c
     1b8:	0000                	unimp
     1ba:	3f04                	fld	fs1,56(a4)
     1bc:	3309                	jal	fffffebe <__global_pointer$+0x7fffdba6>
     1be:	0000                	unimp
     1c0:	0400                	addi	s0,sp,512
     1c2:	0001140b          	0x1140b
     1c6:	0400                	addi	s0,sp,512
     1c8:	0940                	addi	s0,sp,148
     1ca:	00000033          	add	zero,zero,zero
     1ce:	0b08                	addi	a0,sp,400
     1d0:	07c5                	addi	a5,a5,17
     1d2:	0000                	unimp
     1d4:	4104                	lw	s1,0(a0)
     1d6:	3309                	jal	fffffed8 <__global_pointer$+0x7fffdbc0>
     1d8:	0000                	unimp
     1da:	0c00                	addi	s0,sp,528
     1dc:	0004640b          	0x4640b
     1e0:	0400                	addi	s0,sp,512
     1e2:	0942                	slli	s2,s2,0x10
     1e4:	00000033          	add	zero,zero,zero
     1e8:	0b10                	addi	a2,sp,400
     1ea:	0000032f          	0x32f
     1ee:	4304                	lw	s1,0(a4)
     1f0:	3309                	jal	fffffef2 <__global_pointer$+0x7fffdbda>
     1f2:	0000                	unimp
     1f4:	1400                	addi	s0,sp,544
     1f6:	0006fd0b          	0x6fd0b
     1fa:	0400                	addi	s0,sp,512
     1fc:	0944                	addi	s1,sp,148
     1fe:	00000033          	add	zero,zero,zero
     202:	0b18                	addi	a4,sp,400
     204:	0598                	addi	a4,sp,704
     206:	0000                	unimp
     208:	4504                	lw	s1,8(a0)
     20a:	3309                	jal	ffffff0c <__global_pointer$+0x7fffdbf4>
     20c:	0000                	unimp
     20e:	1c00                	addi	s0,sp,560
     210:	0007580b          	0x7580b
     214:	0400                	addi	s0,sp,512
     216:	0946                	slli	s2,s2,0x11
     218:	00000033          	add	zero,zero,zero
     21c:	0020                	addi	s0,sp,8
     21e:	3110                	fld	fa2,32(a0)
     220:	0001                	nop
     222:	0800                	addi	s0,sp,16
     224:	0401                	addi	s0,s0,0
     226:	0263084f          	fnmadd.d	fa6,ft6,ft6,ft0,rne
     22a:	0000                	unimp
     22c:	0001d50b          	0x1d50b
     230:	0400                	addi	s0,sp,512
     232:	0a50                	addi	a2,sp,276
     234:	00000263          	beqz	zero,238 <_start-0x7ffffdc8>
     238:	0b00                	addi	s0,sp,400
     23a:	0000056b          	0x56b
     23e:	5104                	lw	s1,32(a0)
     240:	6309                	lui	t1,0x2
     242:	0002                	c.slli64	zero
     244:	8000                	0x8000
     246:	a111                	j	64a <_start-0x7ffff9b6>
     248:	0006                	c.slli	zero,0x1
     24a:	0400                	addi	s0,sp,512
     24c:	01070a53          	fadd.s	fs4,fa4,fa6,rne
     250:	0000                	unimp
     252:	0100                	addi	s0,sp,128
     254:	5611                	li	a2,-28
     256:	0001                	nop
     258:	0400                	addi	s0,sp,512
     25a:	0a56                	slli	s4,s4,0x15
     25c:	00000107          	0x107
     260:	0104                	addi	s1,sp,128
     262:	0800                	addi	s0,sp,16
     264:	0105                	addi	sp,sp,1
     266:	0000                	unimp
     268:	00000273          	0x273
     26c:	2c09                	jal	47e <_start-0x7ffffb82>
     26e:	0000                	unimp
     270:	1f00                	addi	s0,sp,944
     272:	1000                	addi	s0,sp,32
     274:	046d                	addi	s0,s0,27
     276:	0000                	unimp
     278:	0190                	addi	a2,sp,192
     27a:	6204                	flw	fs1,0(a2)
     27c:	b608                	fsd	fa0,40(a2)
     27e:	0002                	c.slli64	zero
     280:	0b00                	addi	s0,sp,400
     282:	07d4                	addi	a3,sp,964
     284:	0000                	unimp
     286:	6304                	flw	fs1,0(a4)
     288:	b612                	fsd	ft4,296(sp)
     28a:	0002                	c.slli64	zero
     28c:	0000                	unimp
     28e:	0005e80b          	0x5e80b
     292:	0400                	addi	s0,sp,512
     294:	0664                	addi	s1,sp,780
     296:	00000033          	add	zero,zero,zero
     29a:	0b04                	addi	s1,sp,400
     29c:	01dd                	addi	gp,gp,23
     29e:	0000                	unimp
     2a0:	6604                	flw	fs1,8(a2)
     2a2:	bc09                	j	fffffcb4 <__global_pointer$+0x7fffd99c>
     2a4:	0002                	c.slli64	zero
     2a6:	0800                	addi	s0,sp,16
     2a8:	0001310b          	0x1310b
     2ac:	0400                	addi	s0,sp,512
     2ae:	021e1e67          	0x21e1e67
     2b2:	0000                	unimp
     2b4:	0088                	addi	a0,sp,64
     2b6:	0273040f          	0x273040f
     2ba:	0000                	unimp
     2bc:	cc08                	sw	a0,24(s0)
     2be:	0002                	c.slli64	zero
     2c0:	cc00                	sw	s0,24(s0)
     2c2:	0002                	c.slli64	zero
     2c4:	0900                	addi	s0,sp,144
     2c6:	002c                	addi	a1,sp,8
     2c8:	0000                	unimp
     2ca:	001f 040f 02d2      	0x2d2040f001f
     2d0:	0000                	unimp
     2d2:	0d12                	slli	s10,s10,0x4
     2d4:	07be                	slli	a5,a5,0xf
     2d6:	0000                	unimp
     2d8:	0408                	addi	a0,sp,512
     2da:	087a                	slli	a6,a6,0x1e
     2dc:	000002fb          	0x2fb
     2e0:	00010e0b          	0x10e0b
     2e4:	0400                	addi	s0,sp,512
     2e6:	02fb117b          	0x2fb117b
     2ea:	0000                	unimp
     2ec:	0b00                	addi	s0,sp,400
     2ee:	001c                	0x1c
     2f0:	0000                	unimp
     2f2:	7c04                	flw	fs1,56(s0)
     2f4:	3306                	fld	ft6,96(sp)
     2f6:	0000                	unimp
     2f8:	0400                	addi	s0,sp,512
     2fa:	0f00                	addi	s0,sp,912
     2fc:	4f04                	lw	s1,24(a4)
     2fe:	0000                	unimp
     300:	0d00                	addi	s0,sp,656
     302:	05c4                	addi	s1,sp,708
     304:	0000                	unimp
     306:	0468                	addi	a0,sp,524
     308:	08ba                	slli	a7,a7,0xe
     30a:	0444                	addi	s1,sp,516
     30c:	0000                	unimp
     30e:	5f0e                	lw	t5,224(sp)
     310:	0070                	addi	a2,sp,12
     312:	bb04                	fsd	fs1,48(a4)
     314:	fb12                	fsw	ft4,180(sp)
     316:	0002                	c.slli64	zero
     318:	0000                	unimp
     31a:	5f0e                	lw	t5,224(sp)
     31c:	0072                	c.slli	zero,0x1c
     31e:	bc04                	fsd	fs1,56(s0)
     320:	00003307          	fld	ft6,0(zero) # 0 <_start-0x80000000>
     324:	0400                	addi	s0,sp,512
     326:	5f0e                	lw	t5,224(sp)
     328:	bd040077          	0xbd040077
     32c:	00003307          	fld	ft6,0(zero) # 0 <_start-0x80000000>
     330:	0800                	addi	s0,sp,16
     332:	00014f0b          	0x14f0b
     336:	0400                	addi	s0,sp,512
     338:	09be                	slli	s3,s3,0xf
     33a:	0056                	c.slli	zero,0x15
     33c:	0000                	unimp
     33e:	0b0c                	addi	a1,sp,400
     340:	024d                	addi	tp,tp,19
     342:	0000                	unimp
     344:	bf04                	fsd	fs1,56(a4)
     346:	5609                	li	a2,-30
     348:	0000                	unimp
     34a:	0e00                	addi	s0,sp,784
     34c:	5f0e                	lw	t5,224(sp)
     34e:	6662                	flw	fa2,24(sp)
     350:	0400                	addi	s0,sp,512
     352:	11c0                	addi	s0,sp,228
     354:	000002d3          	fadd.s	ft5,ft0,ft0,rne
     358:	0b10                	addi	a2,sp,400
     35a:	00a8                	addi	a0,sp,72
     35c:	0000                	unimp
     35e:	c104                	sw	s1,0(a0)
     360:	00003307          	fld	ft6,0(zero) # 0 <_start-0x80000000>
     364:	1800                	addi	s0,sp,48
     366:	00013f0b          	0x13f0b
     36a:	0400                	addi	s0,sp,512
     36c:	0ac8                	addi	a0,sp,340
     36e:	0105                	addi	sp,sp,1
     370:	0000                	unimp
     372:	0b1c                	addi	a5,sp,400
     374:	0000052b          	0x52b
     378:	ca04                	sw	s1,16(a2)
     37a:	c81d                	beqz	s0,3b0 <_start-0x7ffffc50>
     37c:	0005                	c.nop	1
     37e:	2000                	fld	fs0,0(s0)
     380:	0003280b          	0x3280b
     384:	0400                	addi	s0,sp,512
     386:	1dcc                	addi	a1,sp,756
     388:	000005f7          	0x5f7
     38c:	0b24                	addi	s1,sp,408
     38e:	062c                	addi	a1,sp,776
     390:	0000                	unimp
     392:	cf04                	sw	s1,24(a4)
     394:	1b0d                	addi	s6,s6,-29
     396:	0006                	c.slli	zero,0x1
     398:	2800                	fld	fs0,16(s0)
     39a:	0001010b          	0x1010b
     39e:	0400                	addi	s0,sp,512
     3a0:	09d0                	addi	a2,sp,212
     3a2:	0635                	addi	a2,a2,13
     3a4:	0000                	unimp
     3a6:	0e2c                	addi	a1,sp,792
     3a8:	755f 0062 d304      	0xd3040062755f
     3ae:	d311                	beqz	a4,2b2 <_start-0x7ffffd4e>
     3b0:	0002                	c.slli64	zero
     3b2:	3000                	fld	fs0,32(s0)
     3b4:	5f0e                	lw	t5,224(sp)
     3b6:	7075                	c.lui	zero,0xffffd
     3b8:	0400                	addi	s0,sp,512
     3ba:	12d4                	addi	a3,sp,356
     3bc:	000002fb          	0x2fb
     3c0:	0e38                	addi	a4,sp,792
     3c2:	755f 0072 d504      	0xd5040072755f
     3c8:	00003307          	fld	ft6,0(zero) # 0 <_start-0x80000000>
     3cc:	3c00                	fld	fs0,56(s0)
     3ce:	0001080b          	0x1080b
     3d2:	0400                	addi	s0,sp,512
     3d4:	11d8                	addi	a4,sp,228
     3d6:	0000063b          	0x63b
     3da:	0b40                	addi	s0,sp,404
     3dc:	0740                	addi	s0,sp,900
     3de:	0000                	unimp
     3e0:	d904                	sw	s1,48(a0)
     3e2:	4b11                	li	s6,4
     3e4:	0006                	c.slli	zero,0x1
     3e6:	4300                	lw	s0,0(a4)
     3e8:	5f0e                	lw	t5,224(sp)
     3ea:	626c                	flw	fa1,68(a2)
     3ec:	0400                	addi	s0,sp,512
     3ee:	11dc                	addi	a5,sp,228
     3f0:	000002d3          	fadd.s	ft5,ft0,ft0,rne
     3f4:	0b44                	addi	s1,sp,404
     3f6:	00000643          	fmadd.s	fa2,ft0,ft0,ft0,rne
     3fa:	df04                	sw	s1,56(a4)
     3fc:	00003307          	fld	ft6,0(zero) # 0 <_start-0x80000000>
     400:	4c00                	lw	s0,24(s0)
     402:	00036a0b          	0x36a0b
     406:	0400                	addi	s0,sp,512
     408:	0ae0                	addi	s0,sp,348
     40a:	007f                	0x7f
     40c:	0000                	unimp
     40e:	0b50                	addi	a2,sp,404
     410:	0000005b          	0x5b
     414:	e304                	fsw	fs1,0(a4)
     416:	6212                	flw	ft4,4(sp)
     418:	0004                	0x4
     41a:	5400                	lw	s0,40(s0)
     41c:	0002ef0b          	0x2ef0b
     420:	0400                	addi	s0,sp,512
     422:	011f0ce7          	jalr	s9,17(t5)
     426:	0000                	unimp
     428:	0b58                	addi	a4,sp,404
     42a:	0235                	addi	tp,tp,13
     42c:	0000                	unimp
     42e:	e904                	fsw	fs1,16(a0)
     430:	f90e                	fsw	ft3,176(sp)
     432:	0000                	unimp
     434:	5c00                	lw	s0,56(s0)
     436:	0005a20b          	0x5a20b
     43a:	0400                	addi	s0,sp,512
     43c:	09ea                	slli	s3,s3,0x1a
     43e:	00000033          	add	zero,zero,zero
     442:	0064                	addi	s1,sp,12
     444:	00009713          	slli	a4,ra,0x0
     448:	6200                	flw	fs0,0(a2)
     44a:	0004                	0x4
     44c:	1400                	addi	s0,sp,544
     44e:	0462                	slli	s0,s0,0x18
     450:	0000                	unimp
     452:	0514                	addi	a3,sp,640
     454:	0001                	nop
     456:	1400                	addi	s0,sp,544
     458:	05b6                	slli	a1,a1,0xd
     45a:	0000                	unimp
     45c:	3314                	fld	fa3,32(a4)
     45e:	0000                	unimp
     460:	0000                	unimp
     462:	046d040f          	0x46d040f
     466:	0000                	unimp
     468:	6215                	lui	tp,0x5
     46a:	0004                	0x4
     46c:	1600                	addi	s0,sp,800
     46e:	0609                	addi	a2,a2,2
     470:	0000                	unimp
     472:	0428                	addi	a0,sp,520
     474:	6504                	flw	fs1,8(a0)
     476:	0802                	c.slli64	a6
     478:	05b6                	slli	a1,a1,0xd
     47a:	0000                	unimp
     47c:	00058817          	auipc	a6,0x58
     480:	0400                	addi	s0,sp,512
     482:	33070267          	jalr	tp,816(a4)
     486:	0000                	unimp
     488:	0000                	unimp
     48a:	00070d17          	auipc	s10,0x70
     48e:	0400                	addi	s0,sp,512
     490:	026c                	addi	a1,sp,268
     492:	0006a70b          	0x6a70b
     496:	0400                	addi	s0,sp,512
     498:	0006f517          	auipc	a0,0x6f
     49c:	0400                	addi	s0,sp,512
     49e:	026c                	addi	a1,sp,268
     4a0:	a714                	fsd	fa3,8(a4)
     4a2:	0006                	c.slli	zero,0x1
     4a4:	0800                	addi	s0,sp,16
     4a6:	0001e817          	auipc	a6,0x1e
     4aa:	0400                	addi	s0,sp,512
     4ac:	026c                	addi	a1,sp,268
     4ae:	a71e                	fsd	ft7,392(sp)
     4b0:	0006                	c.slli	zero,0x1
     4b2:	0c00                	addi	s0,sp,528
     4b4:	0005e317          	auipc	t1,0x5e
     4b8:	0400                	addi	s0,sp,512
     4ba:	026e                	slli	tp,tp,0x1b
     4bc:	3308                	fld	fa0,32(a4)
     4be:	0000                	unimp
     4c0:	1000                	addi	s0,sp,32
     4c2:	00002a17          	auipc	s4,0x2
     4c6:	0400                	addi	s0,sp,512
     4c8:	a708026f          	jal	tp,fff80738 <__global_pointer$+0x7ff7e420>
     4cc:	0008                	0x8
     4ce:	1400                	addi	s0,sp,544
     4d0:	00020817          	auipc	a6,0x20
     4d4:	0400                	addi	s0,sp,512
     4d6:	0272                	slli	tp,tp,0x1c
     4d8:	00003307          	fld	ft6,0(zero) # 0 <_start-0x80000000>
     4dc:	3000                	fld	fs0,32(s0)
     4de:	0007ae17          	auipc	t3,0x7a
     4e2:	0400                	addi	s0,sp,512
     4e4:	bc160273          	0xbc160273
     4e8:	0008                	0x8
     4ea:	3400                	fld	fs0,40(s0)
     4ec:	00047f17          	auipc	t5,0x47
     4f0:	0400                	addi	s0,sp,512
     4f2:	0275                	addi	tp,tp,29
     4f4:	00003307          	fld	ft6,0(zero) # 0 <_start-0x80000000>
     4f8:	3800                	fld	fs0,48(s0)
     4fa:	0005f717          	auipc	a4,0x5f
     4fe:	0400                	addi	s0,sp,512
     500:	cd0a0277          	0xcd0a0277
     504:	0008                	0x8
     506:	3c00                	fld	fs0,56(s0)
     508:	0002cb17          	auipc	s6,0x2c
     50c:	0400                	addi	s0,sp,512
     50e:	027a                	slli	tp,tp,0x1e
     510:	00018513          	mv	a0,gp
     514:	4000                	lw	s0,0(s0)
     516:	00016a17          	auipc	s4,0x16
     51a:	0400                	addi	s0,sp,512
     51c:	3307027b          	0x3307027b
     520:	0000                	unimp
     522:	4400                	lw	s0,8(s0)
     524:	0007a917          	auipc	s2,0x7a
     528:	0400                	addi	s0,sp,512
     52a:	027c                	addi	a5,sp,268
     52c:	00018513          	mv	a0,gp
     530:	4800                	lw	s0,16(s0)
     532:	0004fa17          	auipc	s4,0x4f
     536:	0400                	addi	s0,sp,512
     538:	027d                	addi	tp,tp,31
     53a:	d314                	sw	a3,32(a4)
     53c:	0008                	0x8
     53e:	4c00                	lw	s0,24(s0)
     540:	00024517          	auipc	a0,0x24
     544:	0400                	addi	s0,sp,512
     546:	0280                	addi	s0,sp,320
     548:	00003307          	fld	ft6,0(zero) # 0 <_start-0x80000000>
     54c:	5000                	lw	s0,32(s0)
     54e:	0001a117          	auipc	sp,0x1a
     552:	0400                	addi	s0,sp,512
     554:	0281                	addi	t0,t0,0
     556:	b609                	j	58 <_start-0x7fffffa8>
     558:	0005                	c.nop	1
     55a:	5400                	lw	s0,40(s0)
     55c:	00058117          	auipc	sp,0x58
     560:	0400                	addi	s0,sp,512
     562:	02a4                	addi	s1,sp,328
     564:	00088207          	0x88207
     568:	5800                	lw	s0,48(s0)
     56a:	6d18                	flw	fa4,24(a0)
     56c:	0004                	0x4
     56e:	0400                	addi	s0,sp,512
     570:	02a8                	addi	a0,sp,328
     572:	0002b613          	sltiu	a2,t0,0
     576:	4800                	lw	s0,16(s0)
     578:	1801                	addi	a6,a6,-32
     57a:	02a9                	addi	t0,t0,10
     57c:	0000                	unimp
     57e:	a904                	fsd	fs1,16(a0)
     580:	1202                	slli	tp,tp,0x20
     582:	00000273          	0x273
     586:	014c                	addi	a1,sp,132
     588:	2718                	fld	fa4,8(a4)
     58a:	04000007          	0x4000007
     58e:	02ad                	addi	t0,t0,11
     590:	e40c                	fsw	fa1,8(s0)
     592:	0008                	0x8
     594:	dc00                	sw	s0,56(s0)
     596:	1802                	slli	a6,a6,0x20
     598:	00000147          	fmsub.s	ft2,ft0,ft0,ft0,rne
     59c:	b204                	fsd	fs1,32(a2)
     59e:	1002                	c.slli	zero,0x20
     5a0:	0668                	addi	a0,sp,780
     5a2:	0000                	unimp
     5a4:	02e0                	addi	s0,sp,332
     5a6:	2c18                	fld	fa4,24(s0)
     5a8:	0001                	nop
     5aa:	0400                	addi	s0,sp,512
     5ac:	02b4                	addi	a3,sp,328
     5ae:	f00a                	fsw	ft2,32(sp)
     5b0:	0008                	0x8
     5b2:	ec00                	fsw	fs0,24(s0)
     5b4:	0002                	c.slli64	zero
     5b6:	05bc040f          	0x5bc040f
     5ba:	0000                	unimp
     5bc:	0102                	c.slli64	sp
     5be:	b308                	fsd	fa0,32(a4)
     5c0:	0006                	c.slli	zero,0x1
     5c2:	1500                	addi	s0,sp,672
     5c4:	05bc                	addi	a5,sp,712
     5c6:	0000                	unimp
     5c8:	0444040f          	0x444040f
     5cc:	0000                	unimp
     5ce:	00009713          	slli	a4,ra,0x0
     5d2:	ec00                	fsw	fs0,24(s0)
     5d4:	0005                	c.nop	1
     5d6:	1400                	addi	s0,sp,544
     5d8:	0462                	slli	s0,s0,0x18
     5da:	0000                	unimp
     5dc:	0514                	addi	a3,sp,640
     5de:	0001                	nop
     5e0:	1400                	addi	s0,sp,544
     5e2:	05ec                	addi	a1,sp,716
     5e4:	0000                	unimp
     5e6:	3314                	fld	fa3,32(a4)
     5e8:	0000                	unimp
     5ea:	0000                	unimp
     5ec:	05c3040f          	0x5c3040f
     5f0:	0000                	unimp
     5f2:	ec15                	bnez	s0,62e <_start-0x7ffff9d2>
     5f4:	0005                	c.nop	1
     5f6:	0f00                	addi	s0,sp,912
     5f8:	ce04                	sw	s1,24(a2)
     5fa:	0005                	c.nop	1
     5fc:	1300                	addi	s0,sp,416
     5fe:	0000008b          	0x8b
     602:	0000061b          	0x61b
     606:	6214                	flw	fa3,0(a2)
     608:	0004                	0x4
     60a:	1400                	addi	s0,sp,544
     60c:	0105                	addi	sp,sp,1
     60e:	0000                	unimp
     610:	8b14                	0x8b14
     612:	0000                	unimp
     614:	1400                	addi	s0,sp,544
     616:	00000033          	add	zero,zero,zero
     61a:	0f00                	addi	s0,sp,912
     61c:	fd04                	fsw	fs1,56(a0)
     61e:	0005                	c.nop	1
     620:	1300                	addi	s0,sp,416
     622:	00000033          	add	zero,zero,zero
     626:	0635                	addi	a2,a2,13
     628:	0000                	unimp
     62a:	6214                	flw	fa3,0(a2)
     62c:	0004                	0x4
     62e:	1400                	addi	s0,sp,544
     630:	0105                	addi	sp,sp,1
     632:	0000                	unimp
     634:	0f00                	addi	s0,sp,912
     636:	2104                	fld	fs1,0(a0)
     638:	0006                	c.slli	zero,0x1
     63a:	0800                	addi	s0,sp,16
     63c:	0000004f          	fnmadd.s	ft0,ft0,ft0,ft0,rne
     640:	0000064b          	fnmsub.s	fa2,ft0,ft0,ft0,rne
     644:	2c09                	jal	856 <_start-0x7ffff7aa>
     646:	0000                	unimp
     648:	0200                	addi	s0,sp,256
     64a:	0800                	addi	s0,sp,16
     64c:	0000004f          	fnmadd.s	ft0,ft0,ft0,ft0,rne
     650:	0000065b          	0x65b
     654:	2c09                	jal	866 <_start-0x7ffff79a>
     656:	0000                	unimp
     658:	0000                	unimp
     65a:	0400                	addi	s0,sp,512
     65c:	00000163          	beqz	zero,65e <_start-0x7ffff9a2>
     660:	2404                	fld	fs1,8(s0)
     662:	1a01                	addi	s4,s4,-32
     664:	0301                	addi	t1,t1,0
     666:	0000                	unimp
     668:	0719                	addi	a4,a4,6
     66a:	0c000007          	0xc000007
     66e:	2804                	fld	fs1,16(s0)
     670:	0801                	addi	a6,a6,0
     672:	06a1                	addi	a3,a3,8
     674:	0000                	unimp
     676:	0007d417          	auipc	s0,0x7d
     67a:	0400                	addi	s0,sp,512
     67c:	012a                	slli	sp,sp,0xa
     67e:	a111                	j	a82 <_start-0x7ffff57e>
     680:	0006                	c.slli	zero,0x1
     682:	0000                	unimp
     684:	00026517          	auipc	a0,0x26
     688:	0400                	addi	s0,sp,512
     68a:	3307012b          	0x3307012b
     68e:	0000                	unimp
     690:	0400                	addi	s0,sp,512
     692:	0005aa17          	auipc	s4,0x5a
     696:	0400                	addi	s0,sp,512
     698:	012c                	addi	a1,sp,136
     69a:	0006a70b          	0x6a70b
     69e:	0800                	addi	s0,sp,16
     6a0:	0f00                	addi	s0,sp,912
     6a2:	6804                	flw	fs1,16(s0)
     6a4:	0006                	c.slli	zero,0x1
     6a6:	0f00                	addi	s0,sp,912
     6a8:	5b04                	lw	s1,48(a4)
     6aa:	0006                	c.slli	zero,0x1
     6ac:	1900                	addi	s0,sp,176
     6ae:	0022                	c.slli	zero,0x8
     6b0:	0000                	unimp
     6b2:	040e                	slli	s0,s0,0x3
     6b4:	0144                	addi	s1,sp,132
     6b6:	e608                	fsw	fa0,8(a2)
     6b8:	0006                	c.slli	zero,0x1
     6ba:	1700                	addi	s0,sp,928
     6bc:	0671                	addi	a2,a2,28
     6be:	0000                	unimp
     6c0:	4504                	lw	s1,8(a0)
     6c2:	1201                	addi	tp,tp,-32
     6c4:	06e6                	slli	a3,a3,0x19
     6c6:	0000                	unimp
     6c8:	1700                	addi	s0,sp,928
     6ca:	0305                	addi	t1,t1,1
     6cc:	0000                	unimp
     6ce:	4604                	lw	s1,8(a2)
     6d0:	1201                	addi	tp,tp,-32
     6d2:	06e6                	slli	a3,a3,0x19
     6d4:	0000                	unimp
     6d6:	1706                	slli	a4,a4,0x21
     6d8:	06b8                	addi	a4,sp,840
     6da:	0000                	unimp
     6dc:	4704                	lw	s1,8(a4)
     6de:	1201                	addi	tp,tp,-32
     6e0:	005d                	c.nop	23
     6e2:	0000                	unimp
     6e4:	000c                	0xc
     6e6:	5d08                	lw	a0,56(a0)
     6e8:	0000                	unimp
     6ea:	f600                	fsw	fs0,40(a2)
     6ec:	0006                	c.slli	zero,0x1
     6ee:	0900                	addi	s0,sp,144
     6f0:	002c                	addi	a1,sp,8
     6f2:	0000                	unimp
     6f4:	0002                	c.slli64	zero
     6f6:	d01a                	sw	t1,32(sp)
     6f8:	8504                	0x8504
     6fa:	0702                	c.slli64	a4
     6fc:	0000080b          	0x80b
     700:	00034117          	auipc	sp,0x34
     704:	0400                	addi	s0,sp,512
     706:	2c180287          	0x2c180287
     70a:	0000                	unimp
     70c:	0000                	unimp
     70e:	00068d17          	auipc	s10,0x68
     712:	0400                	addi	s0,sp,512
     714:	0288                	addi	a0,sp,320
     716:	b612                	fsd	ft4,296(sp)
     718:	0005                	c.nop	1
     71a:	0400                	addi	s0,sp,512
     71c:	0002be17          	auipc	t3,0x2b
     720:	0400                	addi	s0,sp,512
     722:	0289                	addi	t0,t0,2
     724:	0b10                	addi	a2,sp,400
     726:	0008                	0x8
     728:	0800                	addi	s0,sp,16
     72a:	00076317          	auipc	t1,0x76
     72e:	0400                	addi	s0,sp,512
     730:	028a                	slli	t0,t0,0x2
     732:	00019b17          	auipc	s6,0x19
     736:	2400                	fld	fs0,8(s0)
     738:	0001f017          	auipc	zero,0x1f
     73c:	0400                	addi	s0,sp,512
     73e:	330f028b          	0x330f028b
     742:	0000                	unimp
     744:	4800                	lw	s0,16(s0)
     746:	0007cf17          	auipc	t5,0x7c
     74a:	0400                	addi	s0,sp,512
     74c:	028c                	addi	a1,sp,320
     74e:	252c                	fld	fa1,72(a0)
     750:	0000                	unimp
     752:	5000                	lw	s0,32(s0)
     754:	00077b17          	auipc	s6,0x77
     758:	0400                	addi	s0,sp,512
     75a:	028d                	addi	t0,t0,3
     75c:	ad1a                	fsd	ft6,152(sp)
     75e:	0006                	c.slli	zero,0x1
     760:	5800                	lw	s0,48(s0)
     762:	0005d617          	auipc	a2,0x5d
     766:	0400                	addi	s0,sp,512
     768:	028e                	slli	t0,t0,0x3
     76a:	f916                	fsw	ft5,176(sp)
     76c:	0000                	unimp
     76e:	6800                	flw	fs0,16(s0)
     770:	00079b17          	auipc	s6,0x79
     774:	0400                	addi	s0,sp,512
     776:	f916028f          	0xf916028f
     77a:	0000                	unimp
     77c:	7000                	flw	fs0,32(s0)
     77e:	00011e17          	auipc	t3,0x11
     782:	0400                	addi	s0,sp,512
     784:	0290                	addi	a2,sp,320
     786:	f916                	fsw	ft5,176(sp)
     788:	0000                	unimp
     78a:	7800                	flw	fs0,48(s0)
     78c:	00071d17          	auipc	s10,0x71
     790:	0400                	addi	s0,sp,512
     792:	0291                	addi	t0,t0,4
     794:	1b10                	addi	a2,sp,432
     796:	0008                	0x8
     798:	8000                	0x8000
     79a:	0002b217          	auipc	tp,0x2b
     79e:	0400                	addi	s0,sp,512
     7a0:	0292                	slli	t0,t0,0x4
     7a2:	2b10                	fld	fa2,16(a4)
     7a4:	0008                	0x8
     7a6:	8800                	0x8800
     7a8:	00004e17          	auipc	t3,0x4
     7ac:	0400                	addi	s0,sp,512
     7ae:	330f0293          	addi	t0,t5,816 # 7ca76 <_start-0x7ff8358a>
     7b2:	0000                	unimp
     7b4:	a000                	fsd	fs0,0(s0)
     7b6:	0001ba17          	auipc	s4,0x1b
     7ba:	0400                	addi	s0,sp,512
     7bc:	0294                	addi	a3,sp,320
     7be:	f916                	fsw	ft5,176(sp)
     7c0:	0000                	unimp
     7c2:	a400                	fsd	fs0,8(s0)
     7c4:	0000e117          	auipc	sp,0xe
     7c8:	0400                	addi	s0,sp,512
     7ca:	0295                	addi	t0,t0,5
     7cc:	f916                	fsw	ft5,176(sp)
     7ce:	0000                	unimp
     7d0:	ac00                	fsd	fs0,24(s0)
     7d2:	0001a917          	auipc	s2,0x1a
     7d6:	0400                	addi	s0,sp,512
     7d8:	0296                	slli	t0,t0,0x5
     7da:	f916                	fsw	ft5,176(sp)
     7dc:	0000                	unimp
     7de:	b400                	fsd	fs0,40(s0)
     7e0:	00006117          	auipc	sp,0x6
     7e4:	0400                	addi	s0,sp,512
     7e6:	f9160297          	auipc	t0,0xf9160
     7ea:	0000                	unimp
     7ec:	bc00                	fsd	fs0,56(s0)
     7ee:	00008d17          	auipc	s10,0x8
     7f2:	0400                	addi	s0,sp,512
     7f4:	0298                	addi	a4,sp,320
     7f6:	f916                	fsw	ft5,176(sp)
     7f8:	0000                	unimp
     7fa:	c400                	sw	s0,8(s0)
     7fc:	00058617          	auipc	a2,0x58
     800:	0400                	addi	s0,sp,512
     802:	0299                	addi	t0,t0,6
     804:	3308                	fld	fa0,32(a4)
     806:	0000                	unimp
     808:	cc00                	sw	s0,24(s0)
     80a:	0800                	addi	s0,sp,16
     80c:	05bc                	addi	a5,sp,712
     80e:	0000                	unimp
     810:	0000081b          	0x81b
     814:	2c09                	jal	a26 <_start-0x7ffff5da>
     816:	0000                	unimp
     818:	1900                	addi	s0,sp,176
     81a:	0800                	addi	s0,sp,16
     81c:	05bc                	addi	a5,sp,712
     81e:	0000                	unimp
     820:	0000082b          	0x82b
     824:	2c09                	jal	a36 <_start-0x7ffff5ca>
     826:	0000                	unimp
     828:	0700                	addi	s0,sp,896
     82a:	0800                	addi	s0,sp,16
     82c:	05bc                	addi	a5,sp,712
     82e:	0000                	unimp
     830:	0000083b          	0x83b
     834:	2c09                	jal	a46 <_start-0x7ffff5ba>
     836:	0000                	unimp
     838:	1700                	addi	s0,sp,928
     83a:	1a00                	addi	s0,sp,304
     83c:	04f0                	addi	a2,sp,588
     83e:	029e                	slli	t0,t0,0x7
     840:	00086207          	0x86207
     844:	1700                	addi	s0,sp,928
     846:	02d9                	addi	t0,t0,22
     848:	0000                	unimp
     84a:	a104                	fsd	fs1,0(a0)
     84c:	1b02                	slli	s6,s6,0x20
     84e:	0862                	slli	a6,a6,0x18
     850:	0000                	unimp
     852:	1700                	addi	s0,sp,928
     854:	01ff                	0x1ff
     856:	0000                	unimp
     858:	a204                	fsd	fs1,0(a2)
     85a:	1802                	slli	a6,a6,0x20
     85c:	0872                	slli	a6,a6,0x1c
     85e:	0000                	unimp
     860:	0078                	addi	a4,sp,12
     862:	fb08                	fsw	fa0,48(a4)
     864:	0002                	c.slli64	zero
     866:	7200                	flw	fs0,32(a2)
     868:	0008                	0x8
     86a:	0900                	addi	s0,sp,144
     86c:	002c                	addi	a1,sp,8
     86e:	0000                	unimp
     870:	001d                	c.nop	7
     872:	2c08                	fld	fa0,24(s0)
     874:	0000                	unimp
     876:	8200                	0x8200
     878:	0008                	0x8
     87a:	0900                	addi	s0,sp,144
     87c:	002c                	addi	a1,sp,8
     87e:	0000                	unimp
     880:	001d                	c.nop	7
     882:	8304f01b          	0x8304f01b
     886:	0302                	c.slli64	t1
     888:	000008a7          	0x8a7
     88c:	091c                	addi	a5,sp,144
     88e:	0006                	c.slli	zero,0x1
     890:	0400                	addi	s0,sp,512
     892:	029a                	slli	t0,t0,0x6
     894:	0006f60b          	0x6f60b
     898:	1c00                	addi	s0,sp,560
     89a:	0746                	slli	a4,a4,0x11
     89c:	0000                	unimp
     89e:	a304                	fsd	fs1,0(a4)
     8a0:	0b02                	c.slli64	s6
     8a2:	0000083b          	0x83b
     8a6:	0800                	addi	s0,sp,16
     8a8:	05bc                	addi	a5,sp,712
     8aa:	0000                	unimp
     8ac:	000008b7          	lui	a7,0x0
     8b0:	2c09                	jal	ac2 <_start-0x7ffff53e>
     8b2:	0000                	unimp
     8b4:	1800                	addi	s0,sp,48
     8b6:	1d00                	addi	s0,sp,688
     8b8:	00d6                	slli	ra,ra,0x15
     8ba:	0000                	unimp
     8bc:	08b7040f          	0x8b7040f
     8c0:	0000                	unimp
     8c2:	cd1e                	sw	t2,152(sp)
     8c4:	0008                	0x8
     8c6:	1400                	addi	s0,sp,544
     8c8:	0462                	slli	s0,s0,0x18
     8ca:	0000                	unimp
     8cc:	0f00                	addi	s0,sp,912
     8ce:	c204                	sw	s1,0(a2)
     8d0:	0008                	0x8
     8d2:	0f00                	addi	s0,sp,912
     8d4:	8504                	0x8504
     8d6:	0001                	nop
     8d8:	1e00                	addi	s0,sp,816
     8da:	08e4                	addi	s1,sp,92
     8dc:	0000                	unimp
     8de:	3314                	fld	fa3,32(a4)
     8e0:	0000                	unimp
     8e2:	0000                	unimp
     8e4:	08ea040f          	0x8ea040f
     8e8:	0000                	unimp
     8ea:	08d9040f          	0x8d9040f
     8ee:	0000                	unimp
     8f0:	5b08                	lw	a0,48(a4)
     8f2:	0006                	c.slli	zero,0x1
     8f4:	0000                	unimp
     8f6:	0009                	c.nop	2
     8f8:	0900                	addi	s0,sp,144
     8fa:	002c                	addi	a1,sp,8
     8fc:	0000                	unimp
     8fe:	0002                	c.slli64	zero
     900:	e11f 0006 0400      	0x4000006e11f
     906:	62170333          	0x62170333
     90a:	0004                	0x4
     90c:	1f00                	addi	s0,sp,944
     90e:	06da                	slli	a3,a3,0x16
     910:	0000                	unimp
     912:	3404                	fld	fs1,40(s0)
     914:	04681d03          	lh	s10,70(a6) # 20516 <_start-0x7ffdfaea>
     918:	0000                	unimp
     91a:	f208                	fsw	fa0,32(a2)
     91c:	0005                	c.nop	1
     91e:	2500                	fld	fs0,8(a0)
     920:	0009                	c.nop	2
     922:	2000                	fld	fs0,0(s0)
     924:	1500                	addi	s0,sp,672
     926:	091a                	slli	s2,s2,0x6
     928:	0000                	unimp
     92a:	9421                	srai	s0,s0,0x28
     92c:	0001                	nop
     92e:	0600                	addi	s0,sp,768
     930:	2414                	fld	fa3,8(s0)
     932:	0925                	addi	s2,s2,9
     934:	0000                	unimp
     936:	cc21                	beqz	s0,98e <_start-0x7ffff672>
     938:	0005                	c.nop	1
     93a:	0600                	addi	s0,sp,768
     93c:	1515                	addi	a0,a0,-27
     93e:	00000033          	add	zero,zero,zero
     942:	0948040f          	0x948040f
     946:	0000                	unimp
     948:	00003313          	sltiu	t1,zero,0
     94c:	5c00                	lw	s0,56(s0)
     94e:	0009                	c.nop	2
     950:	1400                	addi	s0,sp,544
     952:	095c                	addi	a5,sp,148
     954:	0000                	unimp
     956:	5c14                	lw	a3,56(s0)
     958:	0009                	c.nop	2
     95a:	0000                	unimp
     95c:	0962040f          	0x962040f
     960:	0000                	unimp
     962:	2122                	fld	ft2,8(sp)
     964:	0475                	addi	s0,s0,29
     966:	0000                	unimp
     968:	b60e6707          	0xb60e6707
     96c:	0005                	c.nop	1
     96e:	2100                	fld	fs0,0(a0)
     970:	02e0                	addi	s0,sp,332
     972:	0000                	unimp
     974:	1008                	addi	a0,sp,32
     976:	00097b0f          	0x97b0f
     97a:	0f00                	addi	s0,sp,912
     97c:	b604                	fsd	fs1,40(a2)
     97e:	0005                	c.nop	1
     980:	2100                	fld	fs0,0(a0)
     982:	0478                	addi	a4,sp,524
     984:	0000                	unimp
     986:	fc08                	fsw	fa0,56(s0)
     988:	b60e                	fsd	ft3,296(sp)
     98a:	0005                	c.nop	1
     98c:	2100                	fld	fs0,0(a0)
     98e:	00b1                	addi	ra,ra,12
     990:	0000                	unimp
     992:	fd08                	fsw	fa0,56(a0)
     994:	330c                	fld	fa1,32(a4)
     996:	0000                	unimp
     998:	2100                	fld	fs0,0(a0)
     99a:	00000677          	0x677
     99e:	fd08                	fsw	fa0,56(a0)
     9a0:	3314                	fld	fa3,32(a4)
     9a2:	0000                	unimp
     9a4:	2100                	fld	fs0,0(a0)
     9a6:	078a                	slli	a5,a5,0x2
     9a8:	0000                	unimp
     9aa:	fd08                	fsw	fa0,56(a0)
     9ac:	331c                	fld	fa5,32(a4)
     9ae:	0000                	unimp
     9b0:	2100                	fld	fs0,0(a0)
     9b2:	031f 0000 ff08      	0xff080000031f
     9b8:	330c                	fld	fa1,32(a4)
     9ba:	0000                	unimp
     9bc:	2100                	fld	fs0,0(a0)
     9be:	0504                	addi	s1,sp,640
     9c0:	0000                	unimp
     9c2:	9a09                	andi	a2,a2,-30
     9c4:	6416                	flw	fs0,68(sp)
     9c6:	0000                	unimp
     9c8:	2100                	fld	fs0,0(a0)
     9ca:	0035                	c.nop	13
     9cc:	0000                	unimp
     9ce:	9b09                	andi	a4,a4,-30
     9d0:	3315                	jal	6f4 <_start-0x7ffff90c>
     9d2:	0000                	unimp
     9d4:	0800                	addi	s0,sp,16
     9d6:	05b6                	slli	a1,a1,0xd
     9d8:	0000                	unimp
     9da:	09e5                	addi	s3,s3,25
     9dc:	0000                	unimp
     9de:	2c09                	jal	bf0 <_start-0x7ffff410>
     9e0:	0000                	unimp
     9e2:	0100                	addi	s0,sp,128
     9e4:	2100                	fld	fs0,0(a0)
     9e6:	00f0                	addi	a2,sp,76
     9e8:	0000                	unimp
     9ea:	9e09                	0x9e09
     9ec:	0009d517          	auipc	a0,0x9d
     9f0:	0500                	addi	s0,sp,640
     9f2:	00000253          	fadd.s	ft4,ft0,ft0,rne
     9f6:	2a0a                	fld	fs4,128(sp)
     9f8:	2c16                	fld	fs8,320(sp)
     9fa:	0000                	unimp
     9fc:	0500                	addi	s0,sp,640
     9fe:	05ba                	slli	a1,a1,0xe
     a00:	0000                	unimp
     a02:	2f0a                	fld	ft10,128(sp)
     a04:	0915                	addi	s2,s2,5
     a06:	000a                	c.slli	zero,0x2
     a08:	0f00                	addi	s0,sp,912
     a0a:	0f04                	addi	s1,sp,912
     a0c:	000a                	c.slli	zero,0x2
     a0e:	1300                	addi	s0,sp,416
     a10:	09f1                	addi	s3,s3,28
     a12:	0000                	unimp
     a14:	0a1e                	slli	s4,s4,0x7
     a16:	0000                	unimp
     a18:	5c14                	lw	a3,56(s0)
     a1a:	0009                	c.nop	2
     a1c:	0000                	unimp
     a1e:	da05                	beqz	a2,94e <_start-0x7ffff6b2>
     a20:	0a000007          	0xa000007
     a24:	0f36                	slli	t5,t5,0xd
     a26:	0942                	slli	s2,s2,0x10
     a28:	0000                	unimp
     a2a:	0a21                	addi	s4,s4,8
     a2c:	0000                	unimp
     a2e:	0a00                	addi	s0,sp,272
     a30:	09fd12bb          	0x9fd12bb
     a34:	0000                	unimp
     a36:	c521                	beqz	a0,a7e <_start-0x7ffff582>
     a38:	0006                	c.slli	zero,0x1
     a3a:	0a00                	addi	s0,sp,272
     a3c:	10be                	slli	ra,ra,0x2f
     a3e:	0a1e                	slli	s4,s4,0x7
     a40:	0000                	unimp
     a42:	00022623          	sw	zero,12(tp) # 2b7a6 <_start-0x7ffd485a>
     a46:	0700                	addi	s0,sp,896
     a48:	2c04                	fld	fs1,24(s0)
     a4a:	0000                	unimp
     a4c:	0b00                	addi	s0,sp,400
     a4e:	0618                	addi	a4,sp,768
     a50:	0a7f                	0xa7f
     a52:	0000                	unimp
     a54:	6124                	flw	fs1,64(a0)
     a56:	0005                	c.nop	1
     a58:	0000                	unimp
     a5a:	fa24                	fsw	fs1,112(a2)
     a5c:	0002                	c.slli64	zero
     a5e:	0100                	addi	s0,sp,128
     a60:	3d24                	fld	fs1,120(a0)
     a62:	0004                	0x4
     a64:	0200                	addi	s0,sp,256
     a66:	4e24                	lw	s1,88(a2)
     a68:	03000003          	lb	zero,48(zero) # 30 <_start-0x7fffffd0>
     a6c:	5824                	lw	s1,112(s0)
     a6e:	0005                	c.nop	1
     a70:	0400                	addi	s0,sp,512
     a72:	9124                	0x9124
     a74:	05000007          	0x5000007
     a78:	8024                	0x8024
     a7a:	06000007          	0x6000007
     a7e:	2100                	fld	fs0,0(a0)
     a80:	00cc                	addi	a1,sp,68
     a82:	0000                	unimp
     a84:	421c210b          	0x421c210b
     a88:	000a                	c.slli	zero,0x2
     a8a:	2300                	fld	fs0,0(a4)
     a8c:	0359                	addi	t1,t1,22
     a8e:	0000                	unimp
     a90:	002c0407          	0x2c0407
     a94:	0000                	unimp
     a96:	b006230b          	0xb006230b
     a9a:	000a                	c.slli	zero,0x2
     a9c:	2400                	fld	fs0,8(s0)
     a9e:	05b0                	addi	a2,sp,712
     aa0:	0000                	unimp
     aa2:	2400                	fld	fs0,8(s0)
     aa4:	00000577          	0x577
     aa8:	2401                	jal	ca8 <_start-0x7ffff358>
     aaa:	069a                	slli	a3,a3,0x6
     aac:	0000                	unimp
     aae:	0002                	c.slli64	zero
     ab0:	c821                	beqz	s0,b00 <_start-0x7ffff500>
     ab2:	0001                	nop
     ab4:	0b00                	addi	s0,sp,400
     ab6:	1e28                	addi	a0,sp,824
     ab8:	00000a8b          	0xa8b
     abc:	00007023          	0x7023
     ac0:	0700                	addi	s0,sp,896
     ac2:	2c04                	fld	fs1,24(s0)
     ac4:	0000                	unimp
     ac6:	0b00                	addi	s0,sp,400
     ac8:	0adb062b          	0xadb062b
     acc:	0000                	unimp
     ace:	4c24                	lw	s1,88(s0)
     ad0:	0006                	c.slli	zero,0x1
     ad2:	0000                	unimp
     ad4:	3a24                	fld	fs1,112(a2)
     ad6:	0006                	c.slli	zero,0x1
     ad8:	0100                	addi	s0,sp,128
     ada:	2100                	fld	fs0,0(a0)
     adc:	017c                	addi	a5,sp,140
     ade:	0000                	unimp
     ae0:	bc2a2f0b          	0xbc2a2f0b
     ae4:	000a                	c.slli	zero,0x2
     ae6:	2100                	fld	fs0,0(a0)
     ae8:	0310                	addi	a2,sp,384
     aea:	0000                	unimp
     aec:	290c                	fld	fa1,16(a0)
     aee:	251a                	fld	fa0,384(sp)
     af0:	0009                	c.nop	2
     af2:	2100                	fld	fs0,0(a0)
     af4:	0661                	addi	a2,a2,24
     af6:	0000                	unimp
     af8:	380c                	fld	fa1,48(s0)
     afa:	251a                	fld	fa0,384(sp)
     afc:	0009                	c.nop	2
     afe:	0500                	addi	s0,sp,640
     b00:	07b6                	slli	a5,a5,0xd
     b02:	0000                	unimp
     b04:	7b0d                	lui	s6,0xfffe3
     b06:	4f16                	lw	t5,68(sp)
     b08:	0000                	unimp
     b0a:	1500                	addi	s0,sp,672
     b0c:	0aff                	0xaff
     b0e:	0000                	unimp
     b10:	7505                	lui	a0,0xfffe1
     b12:	0001                	nop
     b14:	0d00                	addi	s0,sp,656
     b16:	0f80                	addi	s0,sp,976
     b18:	00000033          	add	zero,zero,zero
     b1c:	7405                	lui	s0,0xfffe1
     b1e:	0001                	nop
     b20:	0d00                	addi	s0,sp,656
     b22:	1681                	addi	a3,a3,-32
     b24:	002c                	addi	a1,sp,8
     b26:	0000                	unimp
     b28:	ee05                	bnez	a2,b60 <_start-0x7ffff4a0>
     b2a:	0006                	c.slli	zero,0x1
     b2c:	0d00                	addi	s0,sp,656
     b2e:	0f84                	addi	s1,sp,976
     b30:	003a                	c.slli	zero,0xe
     b32:	0000                	unimp
     b34:	ed05                	bnez	a0,b6c <_start-0x7ffff494>
     b36:	0006                	c.slli	zero,0x1
     b38:	0d00                	addi	s0,sp,656
     b3a:	1685                	addi	a3,a3,-31
     b3c:	0025                	c.nop	9
     b3e:	0000                	unimp
     b40:	0402                	c.slli64	s0
     b42:	5004                	lw	s1,32(s0)
     b44:	0004                	0x4
     b46:	0200                	addi	s0,sp,256
     b48:	0308                	addi	a0,sp,384
     b4a:	0448                	addi	a0,sp,516
     b4c:	0000                	unimp
     b4e:	0802                	c.slli64	a6
     b50:	c504                	sw	s1,8(a0)
     b52:	0000                	unimp
     b54:	0200                	addi	s0,sp,256
     b56:	0310                	addi	a2,sp,384
     b58:	0000003f b8032002 	0xb80320020000003f
     b60:	0000                	unimp
     b62:	1900                	addi	s0,sp,176
     b64:	00000283          	lb	t0,0(zero) # 0 <_start-0x80000000>
     b68:	0d08                	addi	a0,sp,656
     b6a:	01ed                	addi	gp,gp,27
     b6c:	8e0a                	mv	t3,sp
     b6e:	2500000b          	0x2500000b
     b72:	6f6c                	flw	fa1,92(a4)
     b74:	ed0d0077          	0xed0d0077
     b78:	1a01                	addi	s4,s4,-32
     b7a:	0b10                	addi	a2,sp,400
     b7c:	0000                	unimp
     b7e:	1700                	addi	s0,sp,928
     b80:	067e                	slli	a2,a2,0x1f
     b82:	0000                	unimp
     b84:	ed0d                	bnez	a0,bbe <_start-0x7ffff442>
     b86:	1f01                	addi	t5,t5,-32
     b88:	0b10                	addi	a2,sp,400
     b8a:	0000                	unimp
     b8c:	0004                	0x4
     b8e:	f40d081b          	0xf40d081b
     b92:	0901                	addi	s2,s2,0
     b94:	0bb0                	addi	a2,sp,472
     b96:	0000                	unimp
     b98:	7326                	flw	ft6,104(sp)
     b9a:	0d00                	addi	s0,sp,656
     b9c:	01f6                	slli	gp,gp,0x1d
     b9e:	000b6313          	ori	t1,s6,0
     ba2:	2600                	fld	fs0,8(a2)
     ba4:	6c6c                	flw	fa1,92(s0)
     ba6:	0d00                	addi	s0,sp,656
     ba8:	280a01f7          	0x280a01f7
     bac:	0000000b          	0xb
     bb0:	5d04                	lw	s1,56(a0)
     bb2:	0002                	c.slli64	zero
     bb4:	0d00                	addi	s0,sp,656
     bb6:	01f8                	addi	a4,sp,204
     bb8:	000b8e03          	lb	t3,0(s7)
     bbc:	1500                	addi	s0,sp,672
     bbe:	0bb0                	addi	a2,sp,472
     bc0:	0000                	unimp
     bc2:	0b08                	addi	a0,sp,400
     bc4:	d200000b          	0xd200000b
     bc8:	0900000b          	0x900000b
     bcc:	002c                	addi	a1,sp,8
     bce:	0000                	unimp
     bd0:	00ff                	0xff
     bd2:	c215                	beqz	a2,bf6 <_start-0x7ffff40a>
     bd4:	1f00000b          	0x1f00000b
     bd8:	0731                	addi	a4,a4,12
     bda:	0000                	unimp
     bdc:	fc0d                	bnez	s0,b16 <_start-0x7ffff4ea>
     bde:	1601                	addi	a2,a2,-32
     be0:	0bd2                	slli	s7,s7,0x14
     be2:	0000                	unimp
     be4:	9f1f 0002 0d00      	0xd0000029f1f
     bea:	0202                	c.slli64	tp
     bec:	d216                	sw	t0,36(sp)
     bee:	2700000b          	0x2700000b
     bf2:	05ed                	addi	a1,a1,27
     bf4:	0000                	unimp
     bf6:	2601                	jal	ef6 <_start-0x7ffff10a>
     bf8:	0105                	addi	sp,sp,1
     bfa:	0b34                	addi	a3,sp,408
	...
     c04:	0000                	unimp
     c06:	9c01                	0x9c01
     c08:	0ecd                	addi	t4,t4,19
     c0a:	0000                	unimp
     c0c:	6e28                	flw	fa0,88(a2)
     c0e:	0100                	addi	s0,sp,128
     c10:	0526                	slli	a0,a0,0x9
     c12:	3414                	fld	fa3,40(s0)
     c14:	0000000b          	0xb
     c18:	0000                	unimp
     c1a:	2800                	fld	fs0,16(s0)
     c1c:	0064                	addi	s1,sp,12
     c1e:	2601                	jal	f1e <_start-0x7ffff0e2>
     c20:	1f05                	addi	t5,t5,-31
     c22:	0b34                	addi	a3,sp,408
     c24:	0000                	unimp
     c26:	0028                	addi	a0,sp,8
     c28:	0000                	unimp
     c2a:	cd29                	beqz	a0,c84 <_start-0x7ffff37c>
     c2c:	000e                	c.slli	zero,0x3
	...
     c36:	0100                	addi	s0,sp,128
     c38:	0528                	addi	a0,sp,648
     c3a:	2a0a                	fld	fs4,128(sp)
     c3c:	0ef5                	addi	t4,t4,29
     c3e:	0000                	unimp
     c40:	00c0                	addi	s0,sp,68
     c42:	0000                	unimp
     c44:	ea2a                	fsw	fa0,20(sp)
     c46:	000e                	c.slli	zero,0x3
     c48:	e000                	fsw	fs0,0(s0)
     c4a:	0000                	unimp
     c4c:	2a00                	fld	fs0,16(a2)
     c4e:	0edf 0000 0198      	0x19800000edf
     c54:	0000                	unimp
     c56:	0000002b          	0x2b
     c5a:	2c00                	fld	fs0,24(s0)
     c5c:	0f01                	addi	t5,t5,0
     c5e:	0000                	unimp
     c60:	0d2c                	addi	a1,sp,664
     c62:	2c00000f          	0x2c00000f
     c66:	0f19                	addi	t5,t5,6
     c68:	0000                	unimp
     c6a:	252d                	jal	1294 <_start-0x7fffed6c>
     c6c:	7000000f          	0x7000000f
     c70:	0002                	c.slli64	zero
     c72:	2d00                	fld	fs0,24(a0)
     c74:	0f31                	addi	t5,t5,12
     c76:	0000                	unimp
     c78:	0316                	slli	t1,t1,0x5
     c7a:	0000                	unimp
     c7c:	3d2d                	jal	ab6 <_start-0x7ffff54a>
     c7e:	a200000f          	0xa200000f
     c82:	2d000003          	lb	zero,720(zero) # 2d0 <_start-0x7ffffd30>
     c86:	0f49                	addi	t5,t5,18
     c88:	0000                	unimp
     c8a:	0412                	slli	s0,s0,0x4
     c8c:	0000                	unimp
     c8e:	552d                	li	a0,-21
     c90:	bf00000f          	0xbf00000f
     c94:	0004                	0x4
     c96:	2d00                	fld	fs0,24(a0)
     c98:	0f61                	addi	t5,t5,24
     c9a:	0000                	unimp
     c9c:	04dd                	addi	s1,s1,23
     c9e:	0000                	unimp
     ca0:	6d2d                	lui	s10,0xb
     ca2:	fb00000f          	0xfb00000f
     ca6:	0004                	0x4
     ca8:	2d00                	fld	fs0,24(a0)
     caa:	0f79                	addi	t5,t5,30
     cac:	0000                	unimp
     cae:	0525                	addi	a0,a0,9
     cb0:	0000                	unimp
     cb2:	842d                	srai	s0,s0,0xb
     cb4:	4300000f          	0x4300000f
     cb8:	0005                	c.nop	1
     cba:	2c00                	fld	fs0,24(s0)
     cbc:	0f90                	addi	a2,sp,976
     cbe:	0000                	unimp
     cc0:	9c2e                	add	s8,s8,a1
     cc2:	2800000f          	0x2800000f
     cc6:	0000                	unimp
     cc8:	e000                	fsw	fs0,0(s0)
     cca:	000c                	0xc
     ccc:	2d00                	fld	fs0,24(a0)
     cce:	0fa1                	addi	t6,t6,8
     cd0:	0000                	unimp
     cd2:	0582                	c.slli64	a1
     cd4:	0000                	unimp
     cd6:	ae2d                	j	1010 <_start-0x7fffeff0>
     cd8:	be00000f          	0xbe00000f
     cdc:	0005                	c.nop	1
     cde:	0000                	unimp
     ce0:	000fbc2f          	0xfbc2f
	...
     cec:	3100                	fld	fs0,32(a0)
     cee:	000d                	c.nop	3
     cf0:	2d00                	fld	fs0,24(a0)
     cf2:	0fc1                	addi	t6,t6,16
     cf4:	0000                	unimp
     cf6:	05d1                	addi	a1,a1,20
     cf8:	0000                	unimp
     cfa:	ce2d                	beqz	a2,d74 <_start-0x7ffff28c>
     cfc:	e400000f          	0xe400000f
     d00:	0005                	c.nop	1
     d02:	2d00                	fld	fs0,24(a0)
     d04:	00000fdb          	0xfdb
     d08:	0608                	addi	a0,sp,768
     d0a:	0000                	unimp
     d0c:	e82d                	bnez	s0,d7e <_start-0x7ffff282>
     d0e:	2600000f          	0x2600000f
     d12:	0006                	c.slli	zero,0x1
     d14:	2d00                	fld	fs0,24(a0)
     d16:	0ff5                	addi	t6,t6,29
     d18:	0000                	unimp
     d1a:	0644                	addi	s1,sp,772
     d1c:	0000                	unimp
     d1e:	022d                	addi	tp,tp,11
     d20:	0010                	0x10
     d22:	7f00                	flw	fs0,56(a4)
     d24:	0006                	c.slli	zero,0x1
     d26:	2d00                	fld	fs0,24(a0)
     d28:	0000100f          	fence.i
     d2c:	069d                	addi	a3,a3,7
     d2e:	0000                	unimp
     d30:	2e00                	fld	fs0,24(a2)
     d32:	1132                	slli	sp,sp,0x2c
     d34:	0000                	unimp
     d36:	0040                	addi	s0,sp,4
     d38:	0000                	unimp
     d3a:	0df0                	addi	a2,sp,732
     d3c:	0000                	unimp
     d3e:	332d                	jal	a68 <_start-0x7ffff598>
     d40:	0011                	c.nop	4
     d42:	bb00                	fsd	fs0,48(a4)
     d44:	0006                	c.slli	zero,0x1
     d46:	2d00                	fld	fs0,24(a0)
     d48:	0000113f 000006ce 	0x6ce0000113f
     d50:	4b2e                	lw	s6,200(sp)
     d52:	0011                	c.nop	4
     d54:	5800                	lw	s0,48(s0)
     d56:	0000                	unimp
     d58:	9d00                	0x9d00
     d5a:	000d                	c.nop	3
     d5c:	2d00                	fld	fs0,24(a0)
     d5e:	1150                	addi	a2,sp,164
     d60:	0000                	unimp
     d62:	0000070f          	0x70f
     d66:	5d2d                	li	s10,-21
     d68:	0011                	c.nop	4
     d6a:	3100                	fld	fs0,32(a0)
     d6c:	2d000007          	0x2d000007
     d70:	116a                	slli	sp,sp,0x3a
     d72:	0000                	unimp
     d74:	0755                	addi	a4,a4,21
     d76:	0000                	unimp
     d78:	772d                	lui	a4,0xfffeb
     d7a:	0011                	c.nop	4
     d7c:	7300                	flw	fs0,32(a4)
     d7e:	2d000007          	0x2d000007
     d82:	1184                	addi	s1,sp,224
     d84:	0000                	unimp
     d86:	0791                	addi	a5,a5,4
     d88:	0000                	unimp
     d8a:	912d                	srli	a0,a0,0x2b
     d8c:	0011                	c.nop	4
     d8e:	cc00                	sw	s0,24(s0)
     d90:	2d000007          	0x2d000007
     d94:	119e                	slli	gp,gp,0x27
     d96:	0000                	unimp
     d98:	07f5                	addi	a5,a5,29
     d9a:	0000                	unimp
     d9c:	3000                	fld	fs0,32(s0)
     d9e:	11ac                	addi	a1,sp,232
     da0:	0000                	unimp
     da2:	0088                	addi	a0,sp,64
     da4:	0000                	unimp
     da6:	b12d                	j	9d0 <_start-0x7ffff630>
     da8:	0011                	c.nop	4
     daa:	2700                	fld	fs0,8(a4)
     dac:	0008                	0x8
     dae:	2d00                	fld	fs0,24(a0)
     db0:	11be                	slli	gp,gp,0x2f
     db2:	0000                	unimp
     db4:	083a                	slli	a6,a6,0xe
     db6:	0000                	unimp
     db8:	cb2d                	beqz	a4,e2a <_start-0x7ffff1d6>
     dba:	0011                	c.nop	4
     dbc:	8d00                	0x8d00
     dbe:	0008                	0x8
     dc0:	2d00                	fld	fs0,24(a0)
     dc2:	11d8                	addi	a4,sp,228
     dc4:	0000                	unimp
     dc6:	08a0                	addi	s0,sp,88
     dc8:	0000                	unimp
     dca:	e52d                	bnez	a0,e34 <_start-0x7ffff1cc>
     dcc:	0011                	c.nop	4
     dce:	b300                	fsd	fs0,32(a4)
     dd0:	0008                	0x8
     dd2:	2d00                	fld	fs0,24(a0)
     dd4:	11f2                	slli	gp,gp,0x3c
     dd6:	0000                	unimp
     dd8:	0906                	slli	s2,s2,0x1
     dda:	0000                	unimp
     ddc:	ff2d                	bnez	a4,d56 <_start-0x7ffff2aa>
     dde:	0011                	c.nop	4
     de0:	1900                	addi	s0,sp,176
     de2:	0009                	c.nop	2
     de4:	2d00                	fld	fs0,24(a0)
     de6:	120c                	addi	a1,sp,288
     de8:	0000                	unimp
     dea:	094a                	slli	s2,s2,0x12
     dec:	0000                	unimp
     dee:	0000                	unimp
     df0:	1d2e                	slli	s10,s10,0x2b
     df2:	0010                	0x10
     df4:	b800                	fsd	fs0,48(s0)
     df6:	0000                	unimp
     df8:	1000                	addi	s0,sp,32
     dfa:	000e                	c.slli	zero,0x3
     dfc:	2d00                	fld	fs0,24(a0)
     dfe:	1022                	c.slli	zero,0x28
     e00:	0000                	unimp
     e02:	095d                	addi	s2,s2,23
     e04:	0000                	unimp
     e06:	2f2d                	jal	1540 <_start-0x7fffeac0>
     e08:	0010                	0x10
     e0a:	9900                	0x9900
     e0c:	0009                	c.nop	2
     e0e:	0000                	unimp
     e10:	00109e2f          	0x109e2f
	...
     e1c:	6100                	flw	fs0,0(a0)
     e1e:	000e                	c.slli	zero,0x3
     e20:	2d00                	fld	fs0,24(a0)
     e22:	000010a3          	sh	zero,1(zero) # 1 <_start-0x7fffffff>
     e26:	000009b7          	lui	s3,0x0
     e2a:	b02d                	j	654 <_start-0x7ffff9ac>
     e2c:	0010                	0x10
     e2e:	ca00                	sw	s0,16(a2)
     e30:	0009                	c.nop	2
     e32:	2d00                	fld	fs0,24(a0)
     e34:	10bd                	addi	ra,ra,-17
     e36:	0000                	unimp
     e38:	09ee                	slli	s3,s3,0x1b
     e3a:	0000                	unimp
     e3c:	ca2d                	beqz	a2,eae <_start-0x7ffff152>
     e3e:	0010                	0x10
     e40:	0c00                	addi	s0,sp,528
     e42:	000a                	c.slli	zero,0x2
     e44:	2d00                	fld	fs0,24(a0)
     e46:	000010d7          	0x10d7
     e4a:	0a2a                	slli	s4,s4,0xa
     e4c:	0000                	unimp
     e4e:	e42d                	bnez	s0,eb8 <_start-0x7ffff148>
     e50:	0010                	0x10
     e52:	6500                	flw	fs0,8(a0)
     e54:	000a                	c.slli	zero,0x2
     e56:	2d00                	fld	fs0,24(a0)
     e58:	10f1                	addi	ra,ra,-4
     e5a:	0000                	unimp
     e5c:	00000a83          	lb	s5,0(zero) # 0 <_start-0x80000000>
     e60:	2e00                	fld	fs0,24(a2)
     e62:	103d                	c.nop	-17
     e64:	0000                	unimp
     e66:	00d0                	addi	a2,sp,68
     e68:	0000                	unimp
     e6a:	0eae                	slli	t4,t4,0xb
     e6c:	0000                	unimp
     e6e:	422d                	li	tp,11
     e70:	0010                	0x10
     e72:	a100                	fsd	fs0,0(a0)
     e74:	000a                	c.slli	zero,0x2
     e76:	2d00                	fld	fs0,24(a0)
     e78:	0000104f          	fnmadd.s	ft0,ft0,ft0,ft0,rtz
     e7c:	00000ac3          	fmadd.s	fs5,ft0,ft0,ft0,rne
     e80:	5c2d                	li	s8,-21
     e82:	0010                	0x10
     e84:	e700                	fsw	fs0,8(a4)
     e86:	000a                	c.slli	zero,0x2
     e88:	2d00                	fld	fs0,24(a0)
     e8a:	1069                	c.nop	-6
     e8c:	0000                	unimp
     e8e:	0b05                	addi	s6,s6,1
     e90:	0000                	unimp
     e92:	762d                	lui	a2,0xfffeb
     e94:	0010                	0x10
     e96:	2300                	fld	fs0,0(a4)
     e98:	2d00000b          	0x2d00000b
     e9c:	00001083          	lh	ra,0(zero) # 0 <_start-0x80000000>
     ea0:	00000b57          	0xb57
     ea4:	902d                	srli	s0,s0,0x2b
     ea6:	0010                	0x10
     ea8:	8000                	0x8000
     eaa:	0000000b          	0xb
     eae:	ff30                	fsw	fa2,120(a4)
     eb0:	0010                	0x10
     eb2:	e800                	fsw	fs0,16(s0)
     eb4:	0000                	unimp
     eb6:	2d00                	fld	fs0,24(a0)
     eb8:	1104                	addi	s1,sp,160
     eba:	0000                	unimp
     ebc:	0bae                	slli	s7,s7,0xb
     ebe:	0000                	unimp
     ec0:	112d                	addi	sp,sp,-21
     ec2:	0011                	c.nop	4
     ec4:	e200                	fsw	fs0,0(a2)
     ec6:	0000000b          	0xb
     eca:	0000                	unimp
     ecc:	3100                	fld	fs0,32(a0)
     ece:	0654                	addi	a3,sp,772
     ed0:	0000                	unimp
     ed2:	f701                	bnez	a4,dda <_start-0x7ffff226>
     ed4:	0b340103          	lb	sp,179(s0) # fffe10b3 <__global_pointer$+0x7ffded9b>
     ed8:	0000                	unimp
     eda:	00123e03          	0x123e03
     ede:	3200                	fld	fs0,32(a2)
     ee0:	006e                	c.slli	zero,0x1b
     ee2:	f701                	bnez	a4,dea <_start-0x7ffff216>
     ee4:	0b341703          	lh	a4,179(s0)
     ee8:	0000                	unimp
     eea:	6432                	flw	fs0,12(sp)
     eec:	0100                	addi	s0,sp,128
     eee:	342203f7          	0x342203f7
     ef2:	3200000b          	0x3200000b
     ef6:	7072                	flw	ft0,60(sp)
     ef8:	0100                	addi	s0,sp,128
     efa:	3e2e03f7          	0x3e2e03f7
     efe:	0012                	c.slli	zero,0x4
     f00:	3300                	fld	fs0,32(a4)
     f02:	6e6e                	flw	ft8,216(sp)
     f04:	0100                	addi	s0,sp,128
     f06:	03f9                	addi	t2,t2,30
     f08:	bd11                	j	d1c <_start-0x7ffff2e4>
     f0a:	3300000b          	0x3300000b
     f0e:	6464                	flw	fs1,76(s0)
     f10:	0100                	addi	s0,sp,128
     f12:	03fa                	slli	t2,t2,0x1e
     f14:	bd11                	j	d28 <_start-0x7ffff2d8>
     f16:	3300000b          	0x3300000b
     f1a:	7272                	flw	ft4,60(sp)
     f1c:	0100                	addi	s0,sp,128
     f1e:	b00b03fb          	0xb00b03fb
     f22:	3300000b          	0x3300000b
     f26:	3064                	fld	fs1,224(s0)
     f28:	0100                	addi	s0,sp,128
     f2a:	03fc                	addi	a5,sp,460
     f2c:	1c0a                	slli	s8,s8,0x22
     f2e:	3300000b          	0x3300000b
     f32:	3164                	fld	fs1,224(a0)
     f34:	0100                	addi	s0,sp,128
     f36:	03fc                	addi	a5,sp,460
     f38:	1c0e                	slli	s8,s8,0x23
     f3a:	3300000b          	0x3300000b
     f3e:	306e                	fld	ft0,248(sp)
     f40:	0100                	addi	s0,sp,128
     f42:	03fc                	addi	a5,sp,460
     f44:	1c12                	slli	s8,s8,0x24
     f46:	3300000b          	0x3300000b
     f4a:	316e                	fld	ft2,248(sp)
     f4c:	0100                	addi	s0,sp,128
     f4e:	03fc                	addi	a5,sp,460
     f50:	1c16                	slli	s8,s8,0x25
     f52:	3300000b          	0x3300000b
     f56:	326e                	fld	ft4,248(sp)
     f58:	0100                	addi	s0,sp,128
     f5a:	03fc                	addi	a5,sp,460
     f5c:	1c1a                	slli	s8,s8,0x26
     f5e:	3300000b          	0x3300000b
     f62:	3071                	jal	7ee <_start-0x7ffff812>
     f64:	0100                	addi	s0,sp,128
     f66:	03fd                	addi	t2,t2,31
     f68:	1c0a                	slli	s8,s8,0x22
     f6a:	3300000b          	0x3300000b
     f6e:	3171                	jal	bfa <_start-0x7ffff406>
     f70:	0100                	addi	s0,sp,128
     f72:	03fd                	addi	t2,t2,31
     f74:	1c0e                	slli	s8,s8,0x23
     f76:	3300000b          	0x3300000b
     f7a:	0062                	c.slli	zero,0x18
     f7c:	fe01                	bnez	a2,e94 <_start-0x7ffff16c>
     f7e:	0b1c0a03          	lb	s4,177(s8) # 212b <_start-0x7fffded5>
     f82:	0000                	unimp
     f84:	006d6233          	or	tp,s10,t1
     f88:	fe01                	bnez	a2,ea0 <_start-0x7ffff160>
     f8a:	0b1c0d03          	lb	s10,177(s8)
     f8e:	0000                	unimp
     f90:	00777733          	and	a4,a4,t2
     f94:	c701                	beqz	a4,f9c <_start-0x7ffff064>
     f96:	1104                	addi	s1,sp,160
     f98:	0bbd                	addi	s7,s7,15
     f9a:	0000                	unimp
     f9c:	bc34                	fsd	fa3,120(s0)
     f9e:	3500000f          	0x3500000f
     fa2:	06d5                	addi	a3,a3,21
     fa4:	0000                	unimp
     fa6:	2e01                	jal	12b6 <_start-0x7fffed4a>
     fa8:	0404                	addi	s1,sp,512
     faa:	0b1c                	addi	a5,sp,400
     fac:	0000                	unimp
     fae:	615f5f33          	0x615f5f33
     fb2:	0100                	addi	s0,sp,128
     fb4:	042e                	slli	s0,s0,0xb
     fb6:	1c04                	addi	s1,sp,560
     fb8:	0000000b          	0xb
     fbc:	1d34                	addi	a3,sp,696
     fbe:	0010                	0x10
     fc0:	3500                	fld	fs0,40(a0)
     fc2:	000000a3          	sb	zero,1(zero) # 1 <_start-0x7fffffff>
     fc6:	3a01                	jal	8d6 <_start-0x7ffff72a>
     fc8:	0404                	addi	s1,sp,512
     fca:	0b1c                	addi	a5,sp,400
     fcc:	0000                	unimp
     fce:	9e35                	0x9e35
     fd0:	0000                	unimp
     fd2:	0100                	addi	s0,sp,128
     fd4:	043a                	slli	s0,s0,0xe
     fd6:	1c04                	addi	s1,sp,560
     fd8:	3500000b          	0x3500000b
     fdc:	0688                	addi	a0,sp,832
     fde:	0000                	unimp
     fe0:	3a01                	jal	8f0 <_start-0x7ffff710>
     fe2:	0404                	addi	s1,sp,512
     fe4:	0b1c                	addi	a5,sp,400
     fe6:	0000                	unimp
     fe8:	8335                	srli	a4,a4,0xd
     fea:	0006                	c.slli	zero,0x1
     fec:	0100                	addi	s0,sp,128
     fee:	043a                	slli	s0,s0,0xe
     ff0:	1c04                	addi	s1,sp,560
     ff2:	3500000b          	0x3500000b
     ff6:	00000753          	fadd.s	fa4,ft0,ft0,rne
     ffa:	3a01                	jal	90a <_start-0x7ffff6f6>
     ffc:	0404                	addi	s1,sp,512
     ffe:	0b1c                	addi	a5,sp,400
    1000:	0000                	unimp
    1002:	4e35                	li	t3,13
    1004:	01000007          	0x1000007
    1008:	043a                	slli	s0,s0,0xe
    100a:	1c04                	addi	s1,sp,560
    100c:	3300000b          	0x3300000b
    1010:	5f5f 006d 3a01      	0x3a01006d5f5f
    1016:	0404                	addi	s1,sp,512
    1018:	0b1c                	addi	a5,sp,400
    101a:	0000                	unimp
    101c:	3400                	fld	fs0,40(s0)
    101e:	103d                	c.nop	-17
    1020:	0000                	unimp
    1022:	d535                	beqz	a0,f8e <_start-0x7ffff072>
    1024:	0006                	c.slli	zero,0x1
    1026:	0100                	addi	s0,sp,128
    1028:	0446                	slli	s0,s0,0x11
    102a:	1c04                	addi	s1,sp,560
    102c:	3300000b          	0x3300000b
    1030:	5f5f 0061 4601      	0x460100615f5f
    1036:	0404                	addi	s1,sp,512
    1038:	0b1c                	addi	a5,sp,400
    103a:	0000                	unimp
    103c:	3400                	fld	fs0,40(s0)
    103e:	109e                	slli	ra,ra,0x27
    1040:	0000                	unimp
    1042:	a335                	j	156e <_start-0x7fffea92>
    1044:	0000                	unimp
    1046:	0100                	addi	s0,sp,128
    1048:	045f 1c08 000b      	0xb1c08045f
    104e:	3500                	fld	fs0,40(a0)
    1050:	009e                	slli	ra,ra,0x7
    1052:	0000                	unimp
    1054:	5f01                	li	t5,-32
    1056:	0804                	addi	s1,sp,16
    1058:	0b1c                	addi	a5,sp,400
    105a:	0000                	unimp
    105c:	8835                	andi	s0,s0,13
    105e:	0006                	c.slli	zero,0x1
    1060:	0100                	addi	s0,sp,128
    1062:	045f 1c08 000b      	0xb1c08045f
    1068:	3500                	fld	fs0,40(a0)
    106a:	00000683          	lb	a3,0(zero) # 0 <_start-0x80000000>
    106e:	5f01                	li	t5,-32
    1070:	0804                	addi	s1,sp,16
    1072:	0b1c                	addi	a5,sp,400
    1074:	0000                	unimp
    1076:	5335                	li	t1,-19
    1078:	01000007          	0x1000007
    107c:	045f 1c08 000b      	0xb1c08045f
    1082:	3500                	fld	fs0,40(a0)
    1084:	074e                	slli	a4,a4,0x13
    1086:	0000                	unimp
    1088:	5f01                	li	t5,-32
    108a:	0804                	addi	s1,sp,16
    108c:	0b1c                	addi	a5,sp,400
    108e:	0000                	unimp
    1090:	6d5f5f33          	0x6d5f5f33
    1094:	0100                	addi	s0,sp,128
    1096:	045f 1c08 000b      	0xb1c08045f
    109c:	0000                	unimp
    109e:	ff34                	fsw	fa3,120(a4)
    10a0:	0010                	0x10
    10a2:	3500                	fld	fs0,40(a0)
    10a4:	000000a3          	sb	zero,1(zero) # 1 <_start-0x7fffffff>
    10a8:	6401                	0x6401
    10aa:	0404                	addi	s1,sp,512
    10ac:	0b1c                	addi	a5,sp,400
    10ae:	0000                	unimp
    10b0:	9e35                	0x9e35
    10b2:	0000                	unimp
    10b4:	0100                	addi	s0,sp,128
    10b6:	0464                	addi	s1,sp,524
    10b8:	1c04                	addi	s1,sp,560
    10ba:	3500000b          	0x3500000b
    10be:	0688                	addi	a0,sp,832
    10c0:	0000                	unimp
    10c2:	6401                	0x6401
    10c4:	0404                	addi	s1,sp,512
    10c6:	0b1c                	addi	a5,sp,400
    10c8:	0000                	unimp
    10ca:	8335                	srli	a4,a4,0xd
    10cc:	0006                	c.slli	zero,0x1
    10ce:	0100                	addi	s0,sp,128
    10d0:	0464                	addi	s1,sp,524
    10d2:	1c04                	addi	s1,sp,560
    10d4:	3500000b          	0x3500000b
    10d8:	00000753          	fadd.s	fa4,ft0,ft0,rne
    10dc:	6401                	0x6401
    10de:	0404                	addi	s1,sp,512
    10e0:	0b1c                	addi	a5,sp,400
    10e2:	0000                	unimp
    10e4:	4e35                	li	t3,13
    10e6:	01000007          	0x1000007
    10ea:	0464                	addi	s1,sp,524
    10ec:	1c04                	addi	s1,sp,560
    10ee:	3300000b          	0x3300000b
    10f2:	5f5f 006d 6401      	0x6401006d5f5f
    10f8:	0404                	addi	s1,sp,512
    10fa:	0b1c                	addi	a5,sp,400
    10fc:	0000                	unimp
    10fe:	3400                	fld	fs0,40(s0)
    1100:	111f 0000 d535      	0xd5350000111f
    1106:	0006                	c.slli	zero,0x1
    1108:	0100                	addi	s0,sp,128
    110a:	1c040487          	0x1c040487
    110e:	3300000b          	0x3300000b
    1112:	5f5f 0061 8701      	0x870100615f5f
    1118:	0404                	addi	s1,sp,512
    111a:	0b1c                	addi	a5,sp,400
    111c:	0000                	unimp
    111e:	3400                	fld	fs0,40(s0)
    1120:	1132                	slli	sp,sp,0x2c
    1122:	0000                	unimp
    1124:	785f5f33          	0x785f5f33
    1128:	0100                	addi	s0,sp,128
    112a:	0495                	addi	s1,s1,5
    112c:	1c05                	addi	s8,s8,-31
    112e:	0000000b          	0xb
    1132:	3336                	fld	ft6,360(sp)
    1134:	316d                	jal	dde <_start-0x7ffff222>
    1136:	0100                	addi	s0,sp,128
    1138:	04a5                	addi	s1,s1,9
    113a:	000b1c0f          	0xb1c0f
    113e:	3300                	fld	fs0,32(a4)
    1140:	306d                	jal	9ea <_start-0x7ffff616>
    1142:	0100                	addi	s0,sp,128
    1144:	04a5                	addi	s1,s1,9
    1146:	000b1c13          	slli	s8,s6,0x0
    114a:	3400                	fld	fs0,40(s0)
    114c:	11ac                	addi	a1,sp,232
    114e:	0000                	unimp
    1150:	a335                	j	167c <_start-0x7fffe984>
    1152:	0000                	unimp
    1154:	0100                	addi	s0,sp,128
    1156:	04b0                	addi	a2,sp,584
    1158:	1c08                	addi	a0,sp,560
    115a:	3500000b          	0x3500000b
    115e:	009e                	slli	ra,ra,0x7
    1160:	0000                	unimp
    1162:	b001                	j	962 <_start-0x7ffff69e>
    1164:	0804                	addi	s1,sp,16
    1166:	0b1c                	addi	a5,sp,400
    1168:	0000                	unimp
    116a:	8835                	andi	s0,s0,13
    116c:	0006                	c.slli	zero,0x1
    116e:	0100                	addi	s0,sp,128
    1170:	04b0                	addi	a2,sp,584
    1172:	1c08                	addi	a0,sp,560
    1174:	3500000b          	0x3500000b
    1178:	00000683          	lb	a3,0(zero) # 0 <_start-0x80000000>
    117c:	b001                	j	97c <_start-0x7ffff684>
    117e:	0804                	addi	s1,sp,16
    1180:	0b1c                	addi	a5,sp,400
    1182:	0000                	unimp
    1184:	5335                	li	t1,-19
    1186:	01000007          	0x1000007
    118a:	04b0                	addi	a2,sp,584
    118c:	1c08                	addi	a0,sp,560
    118e:	3500000b          	0x3500000b
    1192:	074e                	slli	a4,a4,0x13
    1194:	0000                	unimp
    1196:	b001                	j	996 <_start-0x7ffff66a>
    1198:	0804                	addi	s1,sp,16
    119a:	0b1c                	addi	a5,sp,400
    119c:	0000                	unimp
    119e:	6d5f5f33          	0x6d5f5f33
    11a2:	0100                	addi	s0,sp,128
    11a4:	04b0                	addi	a2,sp,584
    11a6:	1c08                	addi	a0,sp,560
    11a8:	0000000b          	0xb
    11ac:	1a34                	addi	a3,sp,312
    11ae:	0012                	c.slli	zero,0x4
    11b0:	3500                	fld	fs0,40(a0)
    11b2:	0610                	addi	a2,sp,768
    11b4:	0000                	unimp
    11b6:	b101                	j	db6 <_start-0x7ffff24a>
    11b8:	0804                	addi	s1,sp,16
    11ba:	0b1c                	addi	a5,sp,400
    11bc:	0000                	unimp
    11be:	1535                	addi	a0,a0,-19
    11c0:	0006                	c.slli	zero,0x1
    11c2:	0100                	addi	s0,sp,128
    11c4:	04b1                	addi	s1,s1,12
    11c6:	1c08                	addi	a0,sp,560
    11c8:	3500000b          	0x3500000b
    11cc:	061a                	slli	a2,a2,0x6
    11ce:	0000                	unimp
    11d0:	b101                	j	dd0 <_start-0x7ffff230>
    11d2:	0804                	addi	s1,sp,16
    11d4:	0b1c                	addi	a5,sp,400
    11d6:	0000                	unimp
    11d8:	1f35                	addi	t5,t5,-19
    11da:	0006                	c.slli	zero,0x1
    11dc:	0100                	addi	s0,sp,128
    11de:	04b1                	addi	s1,s1,12
    11e0:	1c08                	addi	a0,sp,560
    11e2:	3500000b          	0x3500000b
    11e6:	0000030b          	0x30b
    11ea:	b101                	j	dea <_start-0x7ffff216>
    11ec:	0804                	addi	s1,sp,16
    11ee:	0b1c                	addi	a5,sp,400
    11f0:	0000                	unimp
    11f2:	f535                	bnez	a0,115e <_start-0x7fffeea2>
    11f4:	0004                	0x4
    11f6:	0100                	addi	s0,sp,128
    11f8:	04b1                	addi	s1,s1,12
    11fa:	1c08                	addi	a0,sp,560
    11fc:	3500000b          	0x3500000b
    1200:	02f5                	addi	t0,t0,29
    1202:	0000                	unimp
    1204:	b101                	j	e04 <_start-0x7ffff1fc>
    1206:	0804                	addi	s1,sp,16
    1208:	0b1c                	addi	a5,sp,400
    120a:	0000                	unimp
    120c:	9135                	srli	a0,a0,0x2d
    120e:	0004                	0x4
    1210:	0100                	addi	s0,sp,128
    1212:	04b1                	addi	s1,s1,12
    1214:	1c08                	addi	a0,sp,560
    1216:	0000000b          	0xb
    121a:	2d34                	fld	fa3,88(a0)
    121c:	0012                	c.slli	zero,0x4
    121e:	3300                	fld	fs0,32(a4)
    1220:	5f5f 0078 b601      	0xb60100785f5f
    1226:	0504                	addi	s1,sp,640
    1228:	0b1c                	addi	a5,sp,400
    122a:	0000                	unimp
    122c:	3600                	fld	fs0,40(a2)
    122e:	785f5f33          	0x785f5f33
    1232:	0100                	addi	s0,sp,128
    1234:	04be                	slli	s1,s1,0xf
    1236:	1c05                	addi	s8,s8,-31
    1238:	0000000b          	0xb
    123c:	0000                	unimp
    123e:	0b34040f          	0xb34040f
    1242:	0000                	unimp
    1244:	9d00                	0x9d00
    1246:	0012                	c.slli	zero,0x4
    1248:	0400                	addi	s0,sp,512
    124a:	cc00                	sw	s0,24(s0)
    124c:	0002                	c.slli64	zero
    124e:	0400                	addi	s0,sp,512
    1250:	7a01                	lui	s4,0xfffe0
    1252:	0c000003          	lb	zero,192(zero) # c0 <_start-0x7fffff40>
    1256:	0531                	addi	a0,a0,12
    1258:	0000                	unimp
    125a:	0496                	slli	s1,s1,0x5
	...
    1264:	0000                	unimp
    1266:	0926                	slli	s2,s2,0x9
    1268:	0000                	unimp
    126a:	0802                	c.slli64	a6
    126c:	00026c07          	0x26c07
    1270:	0300                	addi	s0,sp,384
    1272:	0504                	addi	s1,sp,640
    1274:	6e69                	lui	t3,0x1a
    1276:	0074                	addi	a3,sp,12
    1278:	0402                	c.slli64	s0
    127a:	00027607          	0x27607
    127e:	0200                	addi	s0,sp,256
    1280:	0508                	addi	a0,sp,640
    1282:	0456                	slli	s0,s0,0x15
    1284:	0000                	unimp
    1286:	1002                	c.slli	zero,0x20
    1288:	c004                	sw	s1,0(s0)
    128a:	0000                	unimp
    128c:	0200                	addi	s0,sp,256
    128e:	0601                	addi	a2,a2,0
    1290:	06ac                	addi	a1,sp,840
    1292:	0000                	unimp
    1294:	0102                	c.slli64	sp
    1296:	aa08                	fsd	fa0,16(a2)
    1298:	0006                	c.slli	zero,0x1
    129a:	0200                	addi	s0,sp,256
    129c:	0502                	c.slli64	a0
    129e:	0000                	unimp
    12a0:	0000                	unimp
    12a2:	0202                	c.slli64	tp
    12a4:	00028c07          	0x28c07
    12a8:	0200                	addi	s0,sp,256
    12aa:	0504                	addi	s1,sp,640
    12ac:	0000045b          	0x45b
    12b0:	0402                	c.slli64	s0
    12b2:	00027107          	0x27107
    12b6:	0400                	addi	s0,sp,512
    12b8:	02e8                	addi	a0,sp,332
    12ba:	0000                	unimp
    12bc:	5e02                	lw	t3,32(sp)
    12be:	1701                	addi	a4,a4,-32
    12c0:	00000033          	add	zero,zero,zero
    12c4:	8a05                	andi	a2,a2,1
    12c6:	0004                	0x4
    12c8:	0300                	addi	s0,sp,384
    12ca:	0e2e                	slli	t3,t3,0xb
    12cc:	0064                	addi	s1,sp,12
    12ce:	0000                	unimp
    12d0:	3205                	jal	bf0 <_start-0x7ffff410>
    12d2:	0006                	c.slli	zero,0x1
    12d4:	0300                	addi	s0,sp,384
    12d6:	0e74                	addi	a3,sp,796
    12d8:	0064                	addi	s1,sp,12
    12da:	0000                	unimp
    12dc:	1405                	addi	s0,s0,-31
    12de:	03000007          	0x3000007
    12e2:	002c1793          	slli	a5,s8,0x2
    12e6:	0000                	unimp
    12e8:	0406                	slli	s0,s0,0x1
    12ea:	c503a503          	lw	a0,-944(t2)
    12ee:	0000                	unimp
    12f0:	0700                	addi	s0,sp,896
    12f2:	000002d3          	fadd.s	ft5,ft0,ft0,rne
    12f6:	720ca703          	lw	a4,1824(s9)
    12fa:	0000                	unimp
    12fc:	0700                	addi	s0,sp,896
    12fe:	023e                	slli	tp,tp,0xf
    1300:	0000                	unimp
    1302:	c513a803          	lw	a6,-943(t2)
    1306:	0000                	unimp
    1308:	0000                	unimp
    130a:	4f08                	lw	a0,24(a4)
    130c:	0000                	unimp
    130e:	d500                	sw	s0,40(a0)
    1310:	0000                	unimp
    1312:	0900                	addi	s0,sp,144
    1314:	00000033          	add	zero,zero,zero
    1318:	080a0003          	lb	zero,128(s4) # fffe0080 <__global_pointer$+0x7ffddd68>
    131c:	f909a203          	lw	tp,-112(s3) # ffffff90 <__global_pointer$+0x7fffdc78>
    1320:	0000                	unimp
    1322:	0b00                	addi	s0,sp,400
    1324:	0339                	addi	t1,t1,14
    1326:	0000                	unimp
    1328:	2c07a403          	lw	s0,704(a5)
    132c:	0000                	unimp
    132e:	0000                	unimp
    1330:	0006240b          	0x6240b
    1334:	0300                	addi	s0,sp,384
    1336:	05a9                	addi	a1,a1,10
    1338:	000000a3          	sb	zero,1(zero) # 1 <_start-0x7fffffff>
    133c:	0004                	0x4
    133e:	0e05                	addi	t3,t3,1
    1340:	0005                	c.nop	1
    1342:	0300                	addi	s0,sp,384
    1344:	03aa                	slli	t2,t2,0xa
    1346:	00d5                	addi	ra,ra,21
    1348:	0000                	unimp
    134a:	040c                	addi	a1,sp,512
    134c:	bd05                	j	117c <_start-0x7fffee84>
    134e:	0006                	c.slli	zero,0x1
    1350:	0400                	addi	s0,sp,512
    1352:	1916                	slli	s2,s2,0x25
    1354:	0000006b          	0x6b
    1358:	1905                	addi	s2,s2,-31
    135a:	0005                	c.nop	1
    135c:	0500                	addi	s0,sp,640
    135e:	0d0c                	addi	a1,sp,656
    1360:	002c                	addi	a1,sp,8
    1362:	0000                	unimp
    1364:	8f05                	sub	a4,a4,s1
    1366:	0005                	c.nop	1
    1368:	0400                	addi	s0,sp,512
    136a:	01131b23          	sh	a7,22(t1) # 76740 <_start-0x7ff898c0>
    136e:	0000                	unimp
    1370:	720d                	lui	tp,0xfffe3
    1372:	18000003          	lb	zero,384(zero) # 180 <_start-0x7ffffe80>
    1376:	3404                	fld	fs1,40(s0)
    1378:	8508                	0x8508
    137a:	0001                	nop
    137c:	0b00                	addi	s0,sp,400
    137e:	07d4                	addi	a3,sp,964
    1380:	0000                	unimp
    1382:	3604                	fld	fs1,40(a2)
    1384:	00018513          	mv	a0,gp
    1388:	0000                	unimp
    138a:	5f0e                	lw	t5,224(sp)
    138c:	3704006b          	0x3704006b
    1390:	00002c07          	flw	fs8,0(zero) # 0 <_start-0x80000000>
    1394:	0400                	addi	s0,sp,512
    1396:	0006010b          	0x6010b
    139a:	0400                	addi	s0,sp,512
    139c:	002c0b37          	lui	s6,0x2c0
    13a0:	0000                	unimp
    13a2:	0b08                	addi	a0,sp,400
    13a4:	01e2                	slli	gp,gp,0x18
    13a6:	0000                	unimp
    13a8:	3704                	fld	fs1,40(a4)
    13aa:	2c14                	fld	fa3,24(s0)
    13ac:	0000                	unimp
    13ae:	0c00                	addi	s0,sp,528
    13b0:	00015e0b          	0x15e0b
    13b4:	0400                	addi	s0,sp,512
    13b6:	002c1b37          	lui	s6,0x2c1
    13ba:	0000                	unimp
    13bc:	0e10                	addi	a2,sp,784
    13be:	785f 0400 0b38      	0xb380400785f
    13c4:	0000018b          	0x18b
    13c8:	0014                	0x14
    13ca:	012b040f          	0x12b040f
    13ce:	0000                	unimp
    13d0:	0708                	addi	a0,sp,896
    13d2:	0001                	nop
    13d4:	9b00                	0x9b00
    13d6:	0001                	nop
    13d8:	0900                	addi	s0,sp,144
    13da:	00000033          	add	zero,zero,zero
    13de:	0000                	unimp
    13e0:	210d                	jal	1802 <_start-0x7fffe7fe>
    13e2:	0002                	c.slli64	zero
    13e4:	2400                	fld	fs0,8(s0)
    13e6:	3c04                	fld	fs1,56(s0)
    13e8:	1e08                	addi	a0,sp,816
    13ea:	0002                	c.slli64	zero
    13ec:	0b00                	addi	s0,sp,400
    13ee:	00f8                	addi	a4,sp,76
    13f0:	0000                	unimp
    13f2:	3e04                	fld	fs1,56(a2)
    13f4:	2c09                	jal	1606 <_start-0x7fffe9fa>
    13f6:	0000                	unimp
    13f8:	0000                	unimp
    13fa:	0007720b          	0x7720b
    13fe:	0400                	addi	s0,sp,512
    1400:	002c093f 0b040000 	0xb040000002c093f
    1408:	0114                	addi	a3,sp,128
    140a:	0000                	unimp
    140c:	4004                	lw	s1,0(s0)
    140e:	2c09                	jal	1620 <_start-0x7fffe9e0>
    1410:	0000                	unimp
    1412:	0800                	addi	s0,sp,16
    1414:	0007c50b          	0x7c50b
    1418:	0400                	addi	s0,sp,512
    141a:	0941                	addi	s2,s2,16
    141c:	002c                	addi	a1,sp,8
    141e:	0000                	unimp
    1420:	0b0c                	addi	a1,sp,400
    1422:	0464                	addi	s1,sp,524
    1424:	0000                	unimp
    1426:	4204                	lw	s1,0(a2)
    1428:	2c09                	jal	163a <_start-0x7fffe9c6>
    142a:	0000                	unimp
    142c:	1000                	addi	s0,sp,32
    142e:	00032f0b          	0x32f0b
    1432:	0400                	addi	s0,sp,512
    1434:	002c0943          	fmadd.s	fs2,fs8,ft2,ft0,rne
    1438:	0000                	unimp
    143a:	0b14                	addi	a3,sp,400
    143c:	06fd                	addi	a3,a3,31
    143e:	0000                	unimp
    1440:	4404                	lw	s1,8(s0)
    1442:	2c09                	jal	1654 <_start-0x7fffe9ac>
    1444:	0000                	unimp
    1446:	1800                	addi	s0,sp,48
    1448:	0005980b          	0x5980b
    144c:	0400                	addi	s0,sp,512
    144e:	0945                	addi	s2,s2,17
    1450:	002c                	addi	a1,sp,8
    1452:	0000                	unimp
    1454:	0b1c                	addi	a5,sp,400
    1456:	0758                	addi	a4,sp,900
    1458:	0000                	unimp
    145a:	4604                	lw	s1,8(a2)
    145c:	2c09                	jal	166e <_start-0x7fffe992>
    145e:	0000                	unimp
    1460:	2000                	fld	fs0,0(s0)
    1462:	1000                	addi	s0,sp,32
    1464:	0131                	addi	sp,sp,12
    1466:	0000                	unimp
    1468:	0108                	addi	a0,sp,128
    146a:	4f04                	lw	s1,24(a4)
    146c:	6308                	flw	fa0,0(a4)
    146e:	0002                	c.slli64	zero
    1470:	0b00                	addi	s0,sp,400
    1472:	01d5                	addi	gp,gp,21
    1474:	0000                	unimp
    1476:	5004                	lw	s1,32(s0)
    1478:	630a                	flw	ft6,128(sp)
    147a:	0002                	c.slli64	zero
    147c:	0000                	unimp
    147e:	00056b0b          	0x56b0b
    1482:	0400                	addi	s0,sp,512
    1484:	0951                	addi	s2,s2,20
    1486:	00000263          	beqz	zero,148a <_start-0x7fffeb76>
    148a:	1180                	addi	s0,sp,224
    148c:	06a1                	addi	a3,a3,8
    148e:	0000                	unimp
    1490:	5304                	lw	s1,32(a4)
    1492:	070a                	slli	a4,a4,0x2
    1494:	0001                	nop
    1496:	0000                	unimp
    1498:	1101                	addi	sp,sp,-32
    149a:	0156                	slli	sp,sp,0x15
    149c:	0000                	unimp
    149e:	5604                	lw	s1,40(a2)
    14a0:	070a                	slli	a4,a4,0x2
    14a2:	0001                	nop
    14a4:	0400                	addi	s0,sp,512
    14a6:	0001                	nop
    14a8:	0508                	addi	a0,sp,640
    14aa:	0001                	nop
    14ac:	7300                	flw	fs0,32(a4)
    14ae:	0002                	c.slli64	zero
    14b0:	0900                	addi	s0,sp,144
    14b2:	00000033          	add	zero,zero,zero
    14b6:	001f 6d10 0004      	0x46d10001f
    14bc:	9000                	0x9000
    14be:	0401                	addi	s0,s0,0
    14c0:	0862                	slli	a6,a6,0x18
    14c2:	02b6                	slli	t0,t0,0xd
    14c4:	0000                	unimp
    14c6:	0007d40b          	0x7d40b
    14ca:	0400                	addi	s0,sp,512
    14cc:	02b61263          	bne	a2,a1,14f0 <_start-0x7fffeb10>
    14d0:	0000                	unimp
    14d2:	0b00                	addi	s0,sp,400
    14d4:	05e8                	addi	a0,sp,716
    14d6:	0000                	unimp
    14d8:	6404                	flw	fs1,8(s0)
    14da:	2c06                	fld	fs8,64(sp)
    14dc:	0000                	unimp
    14de:	0400                	addi	s0,sp,512
    14e0:	0001dd0b          	0x1dd0b
    14e4:	0400                	addi	s0,sp,512
    14e6:	0966                	slli	s2,s2,0x19
    14e8:	02bc                	addi	a5,sp,328
    14ea:	0000                	unimp
    14ec:	0b08                	addi	a0,sp,400
    14ee:	0131                	addi	sp,sp,12
    14f0:	0000                	unimp
    14f2:	6704                	flw	fs1,8(a4)
    14f4:	1e1e                	slli	t3,t3,0x27
    14f6:	0002                	c.slli64	zero
    14f8:	8800                	0x8800
    14fa:	0f00                	addi	s0,sp,912
    14fc:	7304                	flw	fs1,32(a4)
    14fe:	0002                	c.slli64	zero
    1500:	0800                	addi	s0,sp,16
    1502:	02cc                	addi	a1,sp,324
    1504:	0000                	unimp
    1506:	02cc                	addi	a1,sp,324
    1508:	0000                	unimp
    150a:	3309                	jal	120c <_start-0x7fffedf4>
    150c:	0000                	unimp
    150e:	1f00                	addi	s0,sp,944
    1510:	0f00                	addi	s0,sp,912
    1512:	d204                	sw	s1,32(a2)
    1514:	0002                	c.slli64	zero
    1516:	1200                	addi	s0,sp,288
    1518:	be0d                	j	104a <_start-0x7fffefb6>
    151a:	08000007          	0x8000007
    151e:	7a04                	flw	fs1,48(a2)
    1520:	fb08                	fsw	fa0,48(a4)
    1522:	0002                	c.slli64	zero
    1524:	0b00                	addi	s0,sp,400
    1526:	010e                	slli	sp,sp,0x3
    1528:	0000                	unimp
    152a:	7b04                	flw	fs1,48(a4)
    152c:	fb11                	bnez	a4,1440 <_start-0x7fffebc0>
    152e:	0002                	c.slli64	zero
    1530:	0000                	unimp
    1532:	00001c0b          	0x1c0b
    1536:	0400                	addi	s0,sp,512
    1538:	067c                	addi	a5,sp,780
    153a:	002c                	addi	a1,sp,8
    153c:	0000                	unimp
    153e:	0004                	0x4
    1540:	004f040f          	0x4f040f
    1544:	0000                	unimp
    1546:	c40d                	beqz	s0,1570 <_start-0x7fffea90>
    1548:	0005                	c.nop	1
    154a:	6800                	flw	fs0,16(s0)
    154c:	ba04                	fsd	fs1,48(a2)
    154e:	4408                	lw	a0,8(s0)
    1550:	0004                	0x4
    1552:	0e00                	addi	s0,sp,784
    1554:	705f 0400 12bb      	0x12bb0400705f
    155a:	000002fb          	0x2fb
    155e:	0e00                	addi	s0,sp,784
    1560:	725f 0400 07bc      	0x7bc0400725f
    1566:	002c                	addi	a1,sp,8
    1568:	0000                	unimp
    156a:	0e04                	addi	s1,sp,784
    156c:	775f 0400 07bd      	0x7bd0400775f
    1572:	002c                	addi	a1,sp,8
    1574:	0000                	unimp
    1576:	0b08                	addi	a0,sp,400
    1578:	0000014f          	fnmadd.s	ft2,ft0,ft0,ft0,rne
    157c:	be04                	fsd	fs1,56(a2)
    157e:	5609                	li	a2,-30
    1580:	0000                	unimp
    1582:	0c00                	addi	s0,sp,528
    1584:	00024d0b          	0x24d0b
    1588:	0400                	addi	s0,sp,512
    158a:	005609bf 0e0e0000 	0xe0e0000005609bf
    1592:	625f 0066 c004      	0xc0040066625f
    1598:	d311                	beqz	a4,149c <_start-0x7fffeb64>
    159a:	0002                	c.slli64	zero
    159c:	1000                	addi	s0,sp,32
    159e:	0000a80b          	0xa80b
    15a2:	0400                	addi	s0,sp,512
    15a4:	07c1                	addi	a5,a5,16
    15a6:	002c                	addi	a1,sp,8
    15a8:	0000                	unimp
    15aa:	0b18                	addi	a4,sp,400
    15ac:	0000013f 050ac804 	0x50ac8040000013f
    15b4:	0001                	nop
    15b6:	1c00                	addi	s0,sp,560
    15b8:	00052b0b          	0x52b0b
    15bc:	0400                	addi	s0,sp,512
    15be:	1dca                	slli	s11,s11,0x32
    15c0:	05c8                	addi	a0,sp,708
    15c2:	0000                	unimp
    15c4:	0b20                	addi	s0,sp,408
    15c6:	0328                	addi	a0,sp,392
    15c8:	0000                	unimp
    15ca:	cc04                	sw	s1,24(s0)
    15cc:	f71d                	bnez	a4,14fa <_start-0x7fffeb06>
    15ce:	0005                	c.nop	1
    15d0:	2400                	fld	fs0,8(s0)
    15d2:	00062c0b          	0x62c0b
    15d6:	0400                	addi	s0,sp,512
    15d8:	061b0dcf          	fnmadd.q	fs11,fs6,ft1,ft0,rne
    15dc:	0000                	unimp
    15de:	0b28                	addi	a0,sp,408
    15e0:	0101                	addi	sp,sp,0
    15e2:	0000                	unimp
    15e4:	d004                	sw	s1,32(s0)
    15e6:	3509                	jal	13e8 <_start-0x7fffec18>
    15e8:	0006                	c.slli	zero,0x1
    15ea:	2c00                	fld	fs0,24(s0)
    15ec:	5f0e                	lw	t5,224(sp)
    15ee:	6275                	lui	tp,0x1d
    15f0:	0400                	addi	s0,sp,512
    15f2:	02d311d3          	fadd.d	ft3,ft6,fa3,rtz
    15f6:	0000                	unimp
    15f8:	0e30                	addi	a2,sp,792
    15fa:	755f 0070 d404      	0xd4040070755f
    1600:	fb12                	fsw	ft4,180(sp)
    1602:	0002                	c.slli64	zero
    1604:	3800                	fld	fs0,48(s0)
    1606:	5f0e                	lw	t5,224(sp)
    1608:	7275                	lui	tp,0xffffd
    160a:	0400                	addi	s0,sp,512
    160c:	07d5                	addi	a5,a5,21
    160e:	002c                	addi	a1,sp,8
    1610:	0000                	unimp
    1612:	0b3c                	addi	a5,sp,408
    1614:	0108                	addi	a0,sp,128
    1616:	0000                	unimp
    1618:	d804                	sw	s1,48(s0)
    161a:	3b11                	jal	132e <_start-0x7fffecd2>
    161c:	0006                	c.slli	zero,0x1
    161e:	4000                	lw	s0,0(s0)
    1620:	0007400b          	0x7400b
    1624:	0400                	addi	s0,sp,512
    1626:	11d9                	addi	gp,gp,-10
    1628:	0000064b          	fnmsub.s	fa2,ft0,ft0,ft0,rne
    162c:	6c5f0e43          	0x6c5f0e43
    1630:	0062                	c.slli	zero,0x18
    1632:	dc04                	sw	s1,56(s0)
    1634:	d311                	beqz	a4,1538 <_start-0x7fffeac8>
    1636:	0002                	c.slli64	zero
    1638:	4400                	lw	s0,8(s0)
    163a:	0006430b          	0x6430b
    163e:	0400                	addi	s0,sp,512
    1640:	07df 002c 0000      	0x2c07df
    1646:	0b4c                	addi	a1,sp,404
    1648:	036a                	slli	t1,t1,0x1a
    164a:	0000                	unimp
    164c:	e004                	fsw	fs1,0(s0)
    164e:	7f0a                	flw	ft10,160(sp)
    1650:	0000                	unimp
    1652:	5000                	lw	s0,32(s0)
    1654:	00005b0b          	0x5b0b
    1658:	0400                	addi	s0,sp,512
    165a:	046212e3          	bne	tp,t1,1e9e <_start-0x7fffe162>
    165e:	0000                	unimp
    1660:	0b54                	addi	a3,sp,404
    1662:	000002ef          	jal	t0,1662 <_start-0x7fffe99e>
    1666:	e704                	fsw	fs1,8(a4)
    1668:	1f0c                	addi	a1,sp,944
    166a:	0001                	nop
    166c:	5800                	lw	s0,48(s0)
    166e:	0002350b          	0x2350b
    1672:	0400                	addi	s0,sp,512
    1674:	0ee9                	addi	t4,t4,26
    1676:	00f9                	addi	ra,ra,30
    1678:	0000                	unimp
    167a:	0b5c                	addi	a5,sp,404
    167c:	05a2                	slli	a1,a1,0x8
    167e:	0000                	unimp
    1680:	ea04                	fsw	fs1,16(a2)
    1682:	2c09                	jal	1894 <_start-0x7fffe76c>
    1684:	0000                	unimp
    1686:	6400                	flw	fs0,8(s0)
    1688:	1300                	addi	s0,sp,416
    168a:	00000097          	auipc	ra,0x0
    168e:	0462                	slli	s0,s0,0x18
    1690:	0000                	unimp
    1692:	6214                	flw	fa3,0(a2)
    1694:	0004                	0x4
    1696:	1400                	addi	s0,sp,544
    1698:	0105                	addi	sp,sp,1
    169a:	0000                	unimp
    169c:	b614                	fsd	fa3,40(a2)
    169e:	0005                	c.nop	1
    16a0:	1400                	addi	s0,sp,544
    16a2:	002c                	addi	a1,sp,8
    16a4:	0000                	unimp
    16a6:	0f00                	addi	s0,sp,912
    16a8:	6d04                	flw	fs1,24(a0)
    16aa:	0004                	0x4
    16ac:	1500                	addi	s0,sp,672
    16ae:	0462                	slli	s0,s0,0x18
    16b0:	0000                	unimp
    16b2:	0916                	slli	s2,s2,0x5
    16b4:	0006                	c.slli	zero,0x1
    16b6:	2800                	fld	fs0,16(s0)
    16b8:	0404                	addi	s1,sp,512
    16ba:	0265                	addi	tp,tp,25
    16bc:	b608                	fsd	fa0,40(a2)
    16be:	0005                	c.nop	1
    16c0:	1700                	addi	s0,sp,928
    16c2:	0588                	addi	a0,sp,704
    16c4:	0000                	unimp
    16c6:	6704                	flw	fs1,8(a4)
    16c8:	0702                	c.slli64	a4
    16ca:	002c                	addi	a1,sp,8
    16cc:	0000                	unimp
    16ce:	1700                	addi	s0,sp,928
    16d0:	070d                	addi	a4,a4,3
    16d2:	0000                	unimp
    16d4:	6c04                	flw	fs1,24(s0)
    16d6:	0b02                	c.slli64	s6
    16d8:	000006a7          	0x6a7
    16dc:	1704                	addi	s1,sp,928
    16de:	06f5                	addi	a3,a3,29
    16e0:	0000                	unimp
    16e2:	6c04                	flw	fs1,24(s0)
    16e4:	1402                	slli	s0,s0,0x20
    16e6:	000006a7          	0x6a7
    16ea:	1708                	addi	a0,sp,928
    16ec:	01e8                	addi	a0,sp,204
    16ee:	0000                	unimp
    16f0:	6c04                	flw	fs1,24(s0)
    16f2:	1e02                	slli	t3,t3,0x20
    16f4:	000006a7          	0x6a7
    16f8:	170c                	addi	a1,sp,928
    16fa:	000005e3          	beqz	zero,1f04 <_start-0x7fffe0fc>
    16fe:	6e04                	flw	fs1,24(a2)
    1700:	0802                	c.slli64	a6
    1702:	002c                	addi	a1,sp,8
    1704:	0000                	unimp
    1706:	1710                	addi	a2,sp,928
    1708:	002a                	c.slli	zero,0xa
    170a:	0000                	unimp
    170c:	6f04                	flw	fs1,24(a4)
    170e:	0802                	c.slli64	a6
    1710:	000008a7          	0x8a7
    1714:	1714                	addi	a3,sp,928
    1716:	0208                	addi	a0,sp,256
    1718:	0000                	unimp
    171a:	7204                	flw	fs1,32(a2)
    171c:	0702                	c.slli64	a4
    171e:	002c                	addi	a1,sp,8
    1720:	0000                	unimp
    1722:	1730                	addi	a2,sp,936
    1724:	07ae                	slli	a5,a5,0xb
    1726:	0000                	unimp
    1728:	7304                	flw	fs1,32(a4)
    172a:	1602                	slli	a2,a2,0x20
    172c:	08bc                	addi	a5,sp,88
    172e:	0000                	unimp
    1730:	1734                	addi	a3,sp,936
    1732:	047f                	0x47f
    1734:	0000                	unimp
    1736:	7504                	flw	fs1,40(a0)
    1738:	0702                	c.slli64	a4
    173a:	002c                	addi	a1,sp,8
    173c:	0000                	unimp
    173e:	1738                	addi	a4,sp,936
    1740:	000005f7          	0x5f7
    1744:	7704                	flw	fs1,40(a4)
    1746:	0a02                	c.slli64	s4
    1748:	08cd                	addi	a7,a7,19
    174a:	0000                	unimp
    174c:	173c                	addi	a5,sp,936
    174e:	000002cb          	fnmsub.s	ft5,ft0,ft0,ft0,rne
    1752:	7a04                	flw	fs1,48(a2)
    1754:	1302                	slli	t1,t1,0x20
    1756:	0185                	addi	gp,gp,1
    1758:	0000                	unimp
    175a:	1740                	addi	s0,sp,932
    175c:	016a                	slli	sp,sp,0x1a
    175e:	0000                	unimp
    1760:	7b04                	flw	fs1,48(a4)
    1762:	0702                	c.slli64	a4
    1764:	002c                	addi	a1,sp,8
    1766:	0000                	unimp
    1768:	1744                	addi	s1,sp,932
    176a:	07a9                	addi	a5,a5,10
    176c:	0000                	unimp
    176e:	7c04                	flw	fs1,56(s0)
    1770:	1302                	slli	t1,t1,0x20
    1772:	0185                	addi	gp,gp,1
    1774:	0000                	unimp
    1776:	1748                	addi	a0,sp,932
    1778:	04fa                	slli	s1,s1,0x1e
    177a:	0000                	unimp
    177c:	7d04                	flw	fs1,56(a0)
    177e:	1402                	slli	s0,s0,0x20
    1780:	000008d3          	fadd.s	fa7,ft0,ft0,rne
    1784:	174c                	addi	a1,sp,932
    1786:	0245                	addi	tp,tp,17
    1788:	0000                	unimp
    178a:	8004                	0x8004
    178c:	0702                	c.slli64	a4
    178e:	002c                	addi	a1,sp,8
    1790:	0000                	unimp
    1792:	1750                	addi	a2,sp,932
    1794:	01a1                	addi	gp,gp,8
    1796:	0000                	unimp
    1798:	8104                	0x8104
    179a:	0902                	c.slli64	s2
    179c:	05b6                	slli	a1,a1,0xd
    179e:	0000                	unimp
    17a0:	1754                	addi	a3,sp,932
    17a2:	0581                	addi	a1,a1,0
    17a4:	0000                	unimp
    17a6:	a404                	fsd	fs1,8(s0)
    17a8:	0702                	c.slli64	a4
    17aa:	0882                	c.slli64	a7
    17ac:	0000                	unimp
    17ae:	1858                	addi	a4,sp,52
    17b0:	046d                	addi	s0,s0,27
    17b2:	0000                	unimp
    17b4:	a804                	fsd	fs1,16(s0)
    17b6:	1302                	slli	t1,t1,0x20
    17b8:	02b6                	slli	t0,t0,0xd
    17ba:	0000                	unimp
    17bc:	0148                	addi	a0,sp,132
    17be:	a918                	fsd	fa4,16(a0)
    17c0:	0002                	c.slli64	zero
    17c2:	0400                	addi	s0,sp,512
    17c4:	02a9                	addi	t0,t0,10
    17c6:	7312                	flw	ft6,36(sp)
    17c8:	0002                	c.slli64	zero
    17ca:	4c00                	lw	s0,24(s0)
    17cc:	1801                	addi	a6,a6,-32
    17ce:	00000727          	0x727
    17d2:	ad04                	fsd	fs1,24(a0)
    17d4:	0c02                	c.slli64	s8
    17d6:	08e4                	addi	s1,sp,92
    17d8:	0000                	unimp
    17da:	02dc                	addi	a5,sp,324
    17dc:	4718                	lw	a4,8(a4)
    17de:	0001                	nop
    17e0:	0400                	addi	s0,sp,512
    17e2:	02b2                	slli	t0,t0,0xc
    17e4:	6810                	flw	fa2,16(s0)
    17e6:	0006                	c.slli	zero,0x1
    17e8:	e000                	fsw	fs0,0(s0)
    17ea:	1802                	slli	a6,a6,0x20
    17ec:	012c                	addi	a1,sp,136
    17ee:	0000                	unimp
    17f0:	b404                	fsd	fs1,40(s0)
    17f2:	0a02                	c.slli64	s4
    17f4:	08f0                	addi	a2,sp,92
    17f6:	0000                	unimp
    17f8:	02ec                	addi	a1,sp,332
    17fa:	0f00                	addi	s0,sp,912
    17fc:	bc04                	fsd	fs1,56(s0)
    17fe:	0005                	c.nop	1
    1800:	0200                	addi	s0,sp,256
    1802:	0801                	addi	a6,a6,0
    1804:	000006b3          	add	a3,zero,zero
    1808:	bc15                	j	123c <_start-0x7fffedc4>
    180a:	0005                	c.nop	1
    180c:	0f00                	addi	s0,sp,912
    180e:	4404                	lw	s1,8(s0)
    1810:	0004                	0x4
    1812:	1300                	addi	s0,sp,416
    1814:	00000097          	auipc	ra,0x0
    1818:	05ec                	addi	a1,sp,716
    181a:	0000                	unimp
    181c:	6214                	flw	fa3,0(a2)
    181e:	0004                	0x4
    1820:	1400                	addi	s0,sp,544
    1822:	0105                	addi	sp,sp,1
    1824:	0000                	unimp
    1826:	ec14                	fsw	fa3,24(s0)
    1828:	0005                	c.nop	1
    182a:	1400                	addi	s0,sp,544
    182c:	002c                	addi	a1,sp,8
    182e:	0000                	unimp
    1830:	0f00                	addi	s0,sp,912
    1832:	c304                	sw	s1,0(a4)
    1834:	0005                	c.nop	1
    1836:	1500                	addi	s0,sp,672
    1838:	05ec                	addi	a1,sp,716
    183a:	0000                	unimp
    183c:	05ce040f          	0x5ce040f
    1840:	0000                	unimp
    1842:	00008b13          	mv	s6,ra
    1846:	1b00                	addi	s0,sp,432
    1848:	0006                	c.slli	zero,0x1
    184a:	1400                	addi	s0,sp,544
    184c:	0462                	slli	s0,s0,0x18
    184e:	0000                	unimp
    1850:	0514                	addi	a3,sp,640
    1852:	0001                	nop
    1854:	1400                	addi	s0,sp,544
    1856:	0000008b          	0x8b
    185a:	2c14                	fld	fa3,24(s0)
    185c:	0000                	unimp
    185e:	0000                	unimp
    1860:	05fd040f          	0x5fd040f
    1864:	0000                	unimp
    1866:	00002c13          	slti	s8,zero,0
    186a:	3500                	fld	fs0,40(a0)
    186c:	0006                	c.slli	zero,0x1
    186e:	1400                	addi	s0,sp,544
    1870:	0462                	slli	s0,s0,0x18
    1872:	0000                	unimp
    1874:	0514                	addi	a3,sp,640
    1876:	0001                	nop
    1878:	0000                	unimp
    187a:	0621040f          	0x621040f
    187e:	0000                	unimp
    1880:	4f08                	lw	a0,24(a4)
    1882:	0000                	unimp
    1884:	4b00                	lw	s0,16(a4)
    1886:	0006                	c.slli	zero,0x1
    1888:	0900                	addi	s0,sp,144
    188a:	00000033          	add	zero,zero,zero
    188e:	0002                	c.slli64	zero
    1890:	4f08                	lw	a0,24(a4)
    1892:	0000                	unimp
    1894:	5b00                	lw	s0,48(a4)
    1896:	0006                	c.slli	zero,0x1
    1898:	0900                	addi	s0,sp,144
    189a:	00000033          	add	zero,zero,zero
    189e:	0000                	unimp
    18a0:	6304                	flw	fs1,0(a4)
    18a2:	0001                	nop
    18a4:	0400                	addi	s0,sp,512
    18a6:	0124                	addi	s1,sp,136
    18a8:	011a                	slli	sp,sp,0x6
    18aa:	19000003          	lb	zero,400(zero) # 190 <_start-0x7ffffe70>
    18ae:	00000707          	0x707
    18b2:	040c                	addi	a1,sp,512
    18b4:	0128                	addi	a0,sp,136
    18b6:	a108                	fsd	fa0,0(a0)
    18b8:	0006                	c.slli	zero,0x1
    18ba:	1700                	addi	s0,sp,928
    18bc:	07d4                	addi	a3,sp,964
    18be:	0000                	unimp
    18c0:	2a04                	fld	fs1,16(a2)
    18c2:	1101                	addi	sp,sp,-32
    18c4:	06a1                	addi	a3,a3,8
    18c6:	0000                	unimp
    18c8:	1700                	addi	s0,sp,928
    18ca:	0265                	addi	tp,tp,25
    18cc:	0000                	unimp
    18ce:	2b04                	fld	fs1,16(a4)
    18d0:	0701                	addi	a4,a4,0
    18d2:	002c                	addi	a1,sp,8
    18d4:	0000                	unimp
    18d6:	1704                	addi	s1,sp,928
    18d8:	05aa                	slli	a1,a1,0xa
    18da:	0000                	unimp
    18dc:	2c04                	fld	fs1,24(s0)
    18de:	0b01                	addi	s6,s6,0
    18e0:	000006a7          	0x6a7
    18e4:	0008                	0x8
    18e6:	0668040f          	0x668040f
    18ea:	0000                	unimp
    18ec:	065b040f          	0x65b040f
    18f0:	0000                	unimp
    18f2:	2219                	jal	19f8 <_start-0x7fffe608>
    18f4:	0000                	unimp
    18f6:	0e00                	addi	s0,sp,784
    18f8:	4404                	lw	s1,8(s0)
    18fa:	0801                	addi	a6,a6,0
    18fc:	06e6                	slli	a3,a3,0x19
    18fe:	0000                	unimp
    1900:	00067117          	auipc	sp,0x67
    1904:	0400                	addi	s0,sp,512
    1906:	0145                	addi	sp,sp,17
    1908:	e612                	fsw	ft4,12(sp)
    190a:	0006                	c.slli	zero,0x1
    190c:	0000                	unimp
    190e:	00030517          	auipc	a0,0x30
    1912:	0400                	addi	s0,sp,512
    1914:	0146                	slli	sp,sp,0x11
    1916:	e612                	fsw	ft4,12(sp)
    1918:	0006                	c.slli	zero,0x1
    191a:	0600                	addi	s0,sp,768
    191c:	0006b817          	auipc	a6,0x6b
    1920:	0400                	addi	s0,sp,512
    1922:	5d120147          	0x5d120147
    1926:	0000                	unimp
    1928:	0c00                	addi	s0,sp,528
    192a:	0800                	addi	s0,sp,16
    192c:	005d                	c.nop	23
    192e:	0000                	unimp
    1930:	06f6                	slli	a3,a3,0x1d
    1932:	0000                	unimp
    1934:	3309                	jal	1636 <_start-0x7fffe9ca>
    1936:	0000                	unimp
    1938:	0200                	addi	s0,sp,256
    193a:	1a00                	addi	s0,sp,304
    193c:	04d0                	addi	a2,sp,580
    193e:	0285                	addi	t0,t0,1
    1940:	00080b07          	0x80b07
    1944:	1700                	addi	s0,sp,928
    1946:	0341                	addi	t1,t1,16
    1948:	0000                	unimp
    194a:	8704                	0x8704
    194c:	1802                	slli	a6,a6,0x20
    194e:	00000033          	add	zero,zero,zero
    1952:	1700                	addi	s0,sp,928
    1954:	068d                	addi	a3,a3,3
    1956:	0000                	unimp
    1958:	8804                	0x8804
    195a:	1202                	slli	tp,tp,0x20
    195c:	05b6                	slli	a1,a1,0xd
    195e:	0000                	unimp
    1960:	1704                	addi	s1,sp,928
    1962:	02be                	slli	t0,t0,0xf
    1964:	0000                	unimp
    1966:	8904                	0x8904
    1968:	1002                	c.slli	zero,0x20
    196a:	0000080b          	0x80b
    196e:	1708                	addi	a0,sp,928
    1970:	00000763          	beqz	zero,197e <_start-0x7fffe682>
    1974:	8a04                	0x8a04
    1976:	1702                	slli	a4,a4,0x20
    1978:	0000019b          	0x19b
    197c:	1724                	addi	s1,sp,936
    197e:	01f0                	addi	a2,sp,204
    1980:	0000                	unimp
    1982:	8b04                	0x8b04
    1984:	0f02                	c.slli64	t5
    1986:	002c                	addi	a1,sp,8
    1988:	0000                	unimp
    198a:	1748                	addi	a0,sp,932
    198c:	000007cf          	fnmadd.s	fa5,ft0,ft0,ft0,rne
    1990:	8c04                	0x8c04
    1992:	2c02                	fld	fs8,0(sp)
    1994:	0025                	c.nop	9
    1996:	0000                	unimp
    1998:	1750                	addi	a2,sp,932
    199a:	0000077b          	0x77b
    199e:	8d04                	0x8d04
    19a0:	1a02                	slli	s4,s4,0x20
    19a2:	06ad                	addi	a3,a3,11
    19a4:	0000                	unimp
    19a6:	1758                	addi	a4,sp,932
    19a8:	05d6                	slli	a1,a1,0x15
    19aa:	0000                	unimp
    19ac:	8e04                	0x8e04
    19ae:	1602                	slli	a2,a2,0x20
    19b0:	00f9                	addi	ra,ra,30
    19b2:	0000                	unimp
    19b4:	1768                	addi	a0,sp,940
    19b6:	0000079b          	0x79b
    19ba:	8f04                	0x8f04
    19bc:	1602                	slli	a2,a2,0x20
    19be:	00f9                	addi	ra,ra,30
    19c0:	0000                	unimp
    19c2:	1770                	addi	a2,sp,940
    19c4:	011e                	slli	sp,sp,0x7
    19c6:	0000                	unimp
    19c8:	9004                	0x9004
    19ca:	1602                	slli	a2,a2,0x20
    19cc:	00f9                	addi	ra,ra,30
    19ce:	0000                	unimp
    19d0:	1778                	addi	a4,sp,940
    19d2:	071d                	addi	a4,a4,7
    19d4:	0000                	unimp
    19d6:	9104                	0x9104
    19d8:	1002                	c.slli	zero,0x20
    19da:	0000081b          	0x81b
    19de:	1780                	addi	s0,sp,992
    19e0:	02b2                	slli	t0,t0,0xc
    19e2:	0000                	unimp
    19e4:	9204                	0x9204
    19e6:	1002                	c.slli	zero,0x20
    19e8:	0000082b          	0x82b
    19ec:	1788                	addi	a0,sp,992
    19ee:	004e                	c.slli	zero,0x13
    19f0:	0000                	unimp
    19f2:	9304                	0x9304
    19f4:	0f02                	c.slli64	t5
    19f6:	002c                	addi	a1,sp,8
    19f8:	0000                	unimp
    19fa:	17a0                	addi	s0,sp,1000
    19fc:	01ba                	slli	gp,gp,0xe
    19fe:	0000                	unimp
    1a00:	9404                	0x9404
    1a02:	1602                	slli	a2,a2,0x20
    1a04:	00f9                	addi	ra,ra,30
    1a06:	0000                	unimp
    1a08:	17a4                	addi	s1,sp,1000
    1a0a:	00e1                	addi	ra,ra,24
    1a0c:	0000                	unimp
    1a0e:	9504                	0x9504
    1a10:	1602                	slli	a2,a2,0x20
    1a12:	00f9                	addi	ra,ra,30
    1a14:	0000                	unimp
    1a16:	17ac                	addi	a1,sp,1000
    1a18:	01a9                	addi	gp,gp,10
    1a1a:	0000                	unimp
    1a1c:	9604                	0x9604
    1a1e:	1602                	slli	a2,a2,0x20
    1a20:	00f9                	addi	ra,ra,30
    1a22:	0000                	unimp
    1a24:	17b4                	addi	a3,sp,1000
    1a26:	0061                	c.nop	24
    1a28:	0000                	unimp
    1a2a:	9704                	0x9704
    1a2c:	1602                	slli	a2,a2,0x20
    1a2e:	00f9                	addi	ra,ra,30
    1a30:	0000                	unimp
    1a32:	17bc                	addi	a5,sp,1000
    1a34:	008d                	addi	ra,ra,3
    1a36:	0000                	unimp
    1a38:	9804                	0x9804
    1a3a:	1602                	slli	a2,a2,0x20
    1a3c:	00f9                	addi	ra,ra,30
    1a3e:	0000                	unimp
    1a40:	17c4                	addi	s1,sp,996
    1a42:	0586                	slli	a1,a1,0x1
    1a44:	0000                	unimp
    1a46:	9904                	0x9904
    1a48:	0802                	c.slli64	a6
    1a4a:	002c                	addi	a1,sp,8
    1a4c:	0000                	unimp
    1a4e:	00cc                	addi	a1,sp,68
    1a50:	bc08                	fsd	fa0,56(s0)
    1a52:	0005                	c.nop	1
    1a54:	1b00                	addi	s0,sp,432
    1a56:	0008                	0x8
    1a58:	0900                	addi	s0,sp,144
    1a5a:	00000033          	add	zero,zero,zero
    1a5e:	0019                	c.nop	6
    1a60:	bc08                	fsd	fa0,56(s0)
    1a62:	0005                	c.nop	1
    1a64:	2b00                	fld	fs0,16(a4)
    1a66:	0008                	0x8
    1a68:	0900                	addi	s0,sp,144
    1a6a:	00000033          	add	zero,zero,zero
    1a6e:	bc080007          	0xbc080007
    1a72:	0005                	c.nop	1
    1a74:	3b00                	fld	fs0,48(a4)
    1a76:	0008                	0x8
    1a78:	0900                	addi	s0,sp,144
    1a7a:	00000033          	add	zero,zero,zero
    1a7e:	f01a0017          	auipc	zero,0xf01a0
    1a82:	9e04                	0x9e04
    1a84:	0702                	c.slli64	a4
    1a86:	0862                	slli	a6,a6,0x18
    1a88:	0000                	unimp
    1a8a:	0002d917          	auipc	s2,0x2d
    1a8e:	0400                	addi	s0,sp,512
    1a90:	02a1                	addi	t0,t0,8
    1a92:	0008621b          	0x8621b
    1a96:	0000                	unimp
    1a98:	0001ff17          	auipc	t5,0x1f
    1a9c:	0400                	addi	s0,sp,512
    1a9e:	02a2                	slli	t0,t0,0x8
    1aa0:	7218                	flw	fa4,32(a2)
    1aa2:	0008                	0x8
    1aa4:	7800                	flw	fs0,48(s0)
    1aa6:	0800                	addi	s0,sp,16
    1aa8:	000002fb          	0x2fb
    1aac:	0872                	slli	a6,a6,0x1c
    1aae:	0000                	unimp
    1ab0:	3309                	jal	17b2 <_start-0x7fffe84e>
    1ab2:	0000                	unimp
    1ab4:	1d00                	addi	s0,sp,688
    1ab6:	0800                	addi	s0,sp,16
    1ab8:	00000033          	add	zero,zero,zero
    1abc:	0882                	c.slli64	a7
    1abe:	0000                	unimp
    1ac0:	3309                	jal	17c2 <_start-0x7fffe83e>
    1ac2:	0000                	unimp
    1ac4:	1d00                	addi	s0,sp,688
    1ac6:	1b00                	addi	s0,sp,432
    1ac8:	04f0                	addi	a2,sp,588
    1aca:	a7030283          	lb	t0,-1424(t1)
    1ace:	0008                	0x8
    1ad0:	1c00                	addi	s0,sp,560
    1ad2:	0609                	addi	a2,a2,2
    1ad4:	0000                	unimp
    1ad6:	9a04                	0x9a04
    1ad8:	0b02                	c.slli64	s6
    1ada:	06f6                	slli	a3,a3,0x1d
    1adc:	0000                	unimp
    1ade:	461c                	lw	a5,8(a2)
    1ae0:	04000007          	0x4000007
    1ae4:	3b0b02a3          	sb	a6,933(s6) # 2c13a5 <_start-0x7fd3ec5b>
    1ae8:	0008                	0x8
    1aea:	0000                	unimp
    1aec:	bc08                	fsd	fa0,56(s0)
    1aee:	0005                	c.nop	1
    1af0:	b700                	fsd	fs0,40(a4)
    1af2:	0008                	0x8
    1af4:	0900                	addi	s0,sp,144
    1af6:	00000033          	add	zero,zero,zero
    1afa:	0018                	0x18
    1afc:	d61d                	beqz	a2,1a2a <_start-0x7fffe5d6>
    1afe:	0000                	unimp
    1b00:	0f00                	addi	s0,sp,912
    1b02:	b704                	fsd	fs1,40(a4)
    1b04:	0008                	0x8
    1b06:	1e00                	addi	s0,sp,816
    1b08:	08cd                	addi	a7,a7,19
    1b0a:	0000                	unimp
    1b0c:	6214                	flw	fa3,0(a2)
    1b0e:	0004                	0x4
    1b10:	0000                	unimp
    1b12:	08c2040f          	0x8c2040f
    1b16:	0000                	unimp
    1b18:	0185040f          	0x185040f
    1b1c:	0000                	unimp
    1b1e:	e41e                	fsw	ft7,8(sp)
    1b20:	0008                	0x8
    1b22:	1400                	addi	s0,sp,544
    1b24:	002c                	addi	a1,sp,8
    1b26:	0000                	unimp
    1b28:	0f00                	addi	s0,sp,912
    1b2a:	ea04                	fsw	fs1,16(a2)
    1b2c:	0008                	0x8
    1b2e:	0f00                	addi	s0,sp,912
    1b30:	d904                	sw	s1,48(a0)
    1b32:	0008                	0x8
    1b34:	0800                	addi	s0,sp,16
    1b36:	0000065b          	0x65b
    1b3a:	0900                	addi	s0,sp,144
    1b3c:	0000                	unimp
    1b3e:	3309                	jal	1840 <_start-0x7fffe7c0>
    1b40:	0000                	unimp
    1b42:	0200                	addi	s0,sp,256
    1b44:	1f00                	addi	s0,sp,944
    1b46:	06e1                	addi	a3,a3,24
    1b48:	0000                	unimp
    1b4a:	3304                	fld	fs1,32(a4)
    1b4c:	04621703          	lh	a4,70(tp) # ffffd046 <__global_pointer$+0x7fffad2e>
    1b50:	0000                	unimp
    1b52:	da1f 0006 0400      	0x4000006da1f
    1b58:	0334                	addi	a3,sp,392
    1b5a:	681d                	lui	a6,0x7
    1b5c:	0004                	0x4
    1b5e:	0800                	addi	s0,sp,16
    1b60:	05f2                	slli	a1,a1,0x1c
    1b62:	0000                	unimp
    1b64:	0925                	addi	s2,s2,9
    1b66:	0000                	unimp
    1b68:	0020                	addi	s0,sp,8
    1b6a:	1a15                	addi	s4,s4,-27
    1b6c:	0009                	c.nop	2
    1b6e:	2100                	fld	fs0,0(a0)
    1b70:	0194                	addi	a3,sp,192
    1b72:	0000                	unimp
    1b74:	1406                	slli	s0,s0,0x21
    1b76:	2524                	fld	fs1,72(a0)
    1b78:	0009                	c.nop	2
    1b7a:	2100                	fld	fs0,0(a0)
    1b7c:	05cc                	addi	a1,sp,708
    1b7e:	0000                	unimp
    1b80:	1506                	slli	a0,a0,0x21
    1b82:	2c15                	jal	1db6 <_start-0x7fffe24a>
    1b84:	0000                	unimp
    1b86:	0f00                	addi	s0,sp,912
    1b88:	4804                	lw	s1,16(s0)
    1b8a:	0009                	c.nop	2
    1b8c:	1300                	addi	s0,sp,416
    1b8e:	002c                	addi	a1,sp,8
    1b90:	0000                	unimp
    1b92:	095c                	addi	a5,sp,148
    1b94:	0000                	unimp
    1b96:	5c14                	lw	a3,56(s0)
    1b98:	0009                	c.nop	2
    1b9a:	1400                	addi	s0,sp,544
    1b9c:	095c                	addi	a5,sp,148
    1b9e:	0000                	unimp
    1ba0:	0f00                	addi	s0,sp,912
    1ba2:	6204                	flw	fs1,0(a2)
    1ba4:	0009                	c.nop	2
    1ba6:	2200                	fld	fs0,0(a2)
    1ba8:	7521                	lui	a0,0xfffe8
    1baa:	0004                	0x4
    1bac:	0700                	addi	s0,sp,896
    1bae:	05b60e67          	jalr	t3,91(a2) # fffeb05b <__global_pointer$+0x7ffe8d43>
    1bb2:	0000                	unimp
    1bb4:	e021                	bnez	s0,1bf4 <_start-0x7fffe40c>
    1bb6:	0002                	c.slli64	zero
    1bb8:	0800                	addi	s0,sp,16
    1bba:	0f10                	addi	a2,sp,912
    1bbc:	0000097b          	0x97b
    1bc0:	05b6040f          	0x5b6040f
    1bc4:	0000                	unimp
    1bc6:	7821                	lui	a6,0xfffe8
    1bc8:	0004                	0x4
    1bca:	0800                	addi	s0,sp,16
    1bcc:	0efc                	addi	a5,sp,860
    1bce:	05b6                	slli	a1,a1,0xd
    1bd0:	0000                	unimp
    1bd2:	b121                	j	17da <_start-0x7fffe826>
    1bd4:	0000                	unimp
    1bd6:	0800                	addi	s0,sp,16
    1bd8:	0cfd                	addi	s9,s9,31
    1bda:	002c                	addi	a1,sp,8
    1bdc:	0000                	unimp
    1bde:	7721                	lui	a4,0xfffe8
    1be0:	0006                	c.slli	zero,0x1
    1be2:	0800                	addi	s0,sp,16
    1be4:	14fd                	addi	s1,s1,-1
    1be6:	002c                	addi	a1,sp,8
    1be8:	0000                	unimp
    1bea:	8a21                	andi	a2,a2,8
    1bec:	08000007          	0x8000007
    1bf0:	1cfd                	addi	s9,s9,-1
    1bf2:	002c                	addi	a1,sp,8
    1bf4:	0000                	unimp
    1bf6:	1f21                	addi	t5,t5,-24
    1bf8:	08000003          	lb	zero,128(zero) # 80 <_start-0x7fffff80>
    1bfc:	0cff                	0xcff
    1bfe:	002c                	addi	a1,sp,8
    1c00:	0000                	unimp
    1c02:	0421                	addi	s0,s0,8
    1c04:	0005                	c.nop	1
    1c06:	0900                	addi	s0,sp,144
    1c08:	169a                	slli	a3,a3,0x26
    1c0a:	0064                	addi	s1,sp,12
    1c0c:	0000                	unimp
    1c0e:	3521                	jal	1a16 <_start-0x7fffe5ea>
    1c10:	0000                	unimp
    1c12:	0900                	addi	s0,sp,144
    1c14:	002c159b          	0x2c159b
    1c18:	0000                	unimp
    1c1a:	b608                	fsd	fa0,40(a2)
    1c1c:	0005                	c.nop	1
    1c1e:	e500                	fsw	fs0,8(a0)
    1c20:	0009                	c.nop	2
    1c22:	0900                	addi	s0,sp,144
    1c24:	00000033          	add	zero,zero,zero
    1c28:	0001                	nop
    1c2a:	f021                	bnez	s0,1b6a <_start-0x7fffe496>
    1c2c:	0000                	unimp
    1c2e:	0900                	addi	s0,sp,144
    1c30:	179e                	slli	a5,a5,0x27
    1c32:	09d5                	addi	s3,s3,21
    1c34:	0000                	unimp
    1c36:	5305                	li	t1,-31
    1c38:	0002                	c.slli64	zero
    1c3a:	0a00                	addi	s0,sp,272
    1c3c:	162a                	slli	a2,a2,0x2a
    1c3e:	00000033          	add	zero,zero,zero
    1c42:	ba05                	j	1572 <_start-0x7fffea8e>
    1c44:	0005                	c.nop	1
    1c46:	0a00                	addi	s0,sp,272
    1c48:	0a09152f          	0xa09152f
    1c4c:	0000                	unimp
    1c4e:	0a0f040f          	0xa0f040f
    1c52:	0000                	unimp
    1c54:	0009f113          	andi	sp,s3,0
    1c58:	1e00                	addi	s0,sp,816
    1c5a:	000a                	c.slli	zero,0x2
    1c5c:	1400                	addi	s0,sp,544
    1c5e:	095c                	addi	a5,sp,148
    1c60:	0000                	unimp
    1c62:	0500                	addi	s0,sp,640
    1c64:	07da                	slli	a5,a5,0x16
    1c66:	0000                	unimp
    1c68:	360a                	fld	fa2,160(sp)
    1c6a:	0009420f          	0x9420f
    1c6e:	2100                	fld	fs0,0(a0)
    1c70:	000a                	c.slli	zero,0x2
    1c72:	0000                	unimp
    1c74:	bb0a                	fsd	ft2,432(sp)
    1c76:	fd12                	fsw	ft4,184(sp)
    1c78:	0009                	c.nop	2
    1c7a:	2100                	fld	fs0,0(a0)
    1c7c:	06c5                	addi	a3,a3,17
    1c7e:	0000                	unimp
    1c80:	be0a                	fsd	ft2,312(sp)
    1c82:	1e10                	addi	a2,sp,816
    1c84:	000a                	c.slli	zero,0x2
    1c86:	2300                	fld	fs0,0(a4)
    1c88:	0226                	slli	tp,tp,0x9
    1c8a:	0000                	unimp
    1c8c:	00330407          	0x330407
    1c90:	0000                	unimp
    1c92:	7f06180b          	0x7f06180b
    1c96:	000a                	c.slli	zero,0x2
    1c98:	2400                	fld	fs0,8(s0)
    1c9a:	0561                	addi	a0,a0,24
    1c9c:	0000                	unimp
    1c9e:	2400                	fld	fs0,8(s0)
    1ca0:	02fa                	slli	t0,t0,0x1e
    1ca2:	0000                	unimp
    1ca4:	2401                	jal	1ea4 <_start-0x7fffe15c>
    1ca6:	043d                	addi	s0,s0,15
    1ca8:	0000                	unimp
    1caa:	2402                	fld	fs0,0(sp)
    1cac:	034e                	slli	t1,t1,0x13
    1cae:	0000                	unimp
    1cb0:	05582403          	lw	s0,85(a6) # fffe8055 <__global_pointer$+0x7ffe5d3d>
    1cb4:	0000                	unimp
    1cb6:	2404                	fld	fs1,8(s0)
    1cb8:	0791                	addi	a5,a5,4
    1cba:	0000                	unimp
    1cbc:	2405                	jal	1edc <_start-0x7fffe124>
    1cbe:	0780                	addi	s0,sp,960
    1cc0:	0000                	unimp
    1cc2:	0006                	c.slli	zero,0x1
    1cc4:	cc21                	beqz	s0,1d1c <_start-0x7fffe2e4>
    1cc6:	0000                	unimp
    1cc8:	0b00                	addi	s0,sp,400
    1cca:	1c21                	addi	s8,s8,-24
    1ccc:	0a42                	slli	s4,s4,0x10
    1cce:	0000                	unimp
    1cd0:	00035923          	0x35923
    1cd4:	0700                	addi	s0,sp,896
    1cd6:	3304                	fld	fs1,32(a4)
    1cd8:	0000                	unimp
    1cda:	0b00                	addi	s0,sp,400
    1cdc:	0ab00623          	sb	a1,172(zero) # ac <_start-0x7fffff54>
    1ce0:	0000                	unimp
    1ce2:	b024                	fsd	fs1,96(s0)
    1ce4:	0005                	c.nop	1
    1ce6:	0000                	unimp
    1ce8:	7724                	flw	fs1,104(a4)
    1cea:	0005                	c.nop	1
    1cec:	0100                	addi	s0,sp,128
    1cee:	9a24                	0x9a24
    1cf0:	0006                	c.slli	zero,0x1
    1cf2:	0200                	addi	s0,sp,256
    1cf4:	2100                	fld	fs0,0(a0)
    1cf6:	01c8                	addi	a0,sp,196
    1cf8:	0000                	unimp
    1cfa:	8b1e280b          	0x8b1e280b
    1cfe:	000a                	c.slli	zero,0x2
    1d00:	2300                	fld	fs0,0(a4)
    1d02:	0070                	addi	a2,sp,12
    1d04:	0000                	unimp
    1d06:	00330407          	0x330407
    1d0a:	0000                	unimp
    1d0c:	db062b0b          	0xdb062b0b
    1d10:	000a                	c.slli	zero,0x2
    1d12:	2400                	fld	fs0,8(s0)
    1d14:	064c                	addi	a1,sp,772
    1d16:	0000                	unimp
    1d18:	2400                	fld	fs0,8(s0)
    1d1a:	063a                	slli	a2,a2,0xe
    1d1c:	0000                	unimp
    1d1e:	0001                	nop
    1d20:	7c21                	lui	s8,0xfffe8
    1d22:	0001                	nop
    1d24:	0b00                	addi	s0,sp,400
    1d26:	0abc2a2f          	amoswap.w.rl	s4,a1,(s8)
    1d2a:	0000                	unimp
    1d2c:	1021                	c.nop	-24
    1d2e:	0c000003          	lb	zero,192(zero) # c0 <_start-0x7fffff40>
    1d32:	1a29                	addi	s4,s4,-22
    1d34:	0925                	addi	s2,s2,9
    1d36:	0000                	unimp
    1d38:	6121                	addi	sp,sp,64
    1d3a:	0006                	c.slli	zero,0x1
    1d3c:	0c00                	addi	s0,sp,528
    1d3e:	1a38                	addi	a4,sp,312
    1d40:	0925                	addi	s2,s2,9
    1d42:	0000                	unimp
    1d44:	b605                	j	1864 <_start-0x7fffe79c>
    1d46:	0d000007          	0xd000007
    1d4a:	004f167b          	0x4f167b
    1d4e:	0000                	unimp
    1d50:	ff15                	bnez	a4,1c8c <_start-0x7fffe374>
    1d52:	000a                	c.slli	zero,0x2
    1d54:	0500                	addi	s0,sp,640
    1d56:	0175                	addi	sp,sp,29
    1d58:	0000                	unimp
    1d5a:	800d                	srli	s0,s0,0x3
    1d5c:	00002c0f          	0x2c0f
    1d60:	0500                	addi	s0,sp,640
    1d62:	0174                	addi	a3,sp,140
    1d64:	0000                	unimp
    1d66:	810d                	srli	a0,a0,0x3
    1d68:	3316                	fld	ft6,352(sp)
    1d6a:	0000                	unimp
    1d6c:	0500                	addi	s0,sp,640
    1d6e:	06ee                	slli	a3,a3,0x1b
    1d70:	0000                	unimp
    1d72:	840d                	srai	s0,s0,0x3
    1d74:	00003a0f          	0x3a0f
    1d78:	0500                	addi	s0,sp,640
    1d7a:	06ed                	addi	a3,a3,27
    1d7c:	0000                	unimp
    1d7e:	850d                	srai	a0,a0,0x3
    1d80:	2516                	fld	fa0,320(sp)
    1d82:	0000                	unimp
    1d84:	0200                	addi	s0,sp,256
    1d86:	0404                	addi	s1,sp,512
    1d88:	0450                	addi	a2,sp,516
    1d8a:	0000                	unimp
    1d8c:	0802                	c.slli64	a6
    1d8e:	00044803          	lbu	a6,0(s0)
    1d92:	0200                	addi	s0,sp,256
    1d94:	0408                	addi	a0,sp,512
    1d96:	00c5                	addi	ra,ra,17
    1d98:	0000                	unimp
    1d9a:	1002                	c.slli	zero,0x20
    1d9c:	00003f03          	0x3f03
    1da0:	0200                	addi	s0,sp,256
    1da2:	0320                	addi	s0,sp,392
    1da4:	00b8                	addi	a4,sp,72
    1da6:	0000                	unimp
    1da8:	8319                	srli	a4,a4,0x6
    1daa:	0002                	c.slli64	zero
    1dac:	0800                	addi	s0,sp,16
    1dae:	ed0d                	bnez	a0,1de8 <_start-0x7fffe218>
    1db0:	0a01                	addi	s4,s4,0
    1db2:	0b8e                	slli	s7,s7,0x3
    1db4:	0000                	unimp
    1db6:	6c25                	lui	s8,0x9
    1db8:	0d00776f          	jal	a4,8e88 <_start-0x7fff7178>
    1dbc:	01ed                	addi	gp,gp,27
    1dbe:	101a                	c.slli	zero,0x26
    1dc0:	0000000b          	0xb
    1dc4:	00067e17          	auipc	t3,0x67
    1dc8:	0d00                	addi	s0,sp,656
    1dca:	01ed                	addi	gp,gp,27
    1dcc:	101f 000b 0400      	0x400000b101f
    1dd2:	1b00                	addi	s0,sp,432
    1dd4:	0d08                	addi	a0,sp,656
    1dd6:	01f4                	addi	a3,sp,204
    1dd8:	b009                	j	15da <_start-0x7fffea26>
    1dda:	2600000b          	0x2600000b
    1dde:	f60d0073          	0xf60d0073
    1de2:	1301                	addi	t1,t1,-32
    1de4:	00000b63          	beqz	zero,1dfa <_start-0x7fffe206>
    1de8:	6c26                	flw	fs8,72(sp)
    1dea:	006c                	addi	a1,sp,12
    1dec:	f70d                	bnez	a4,1d16 <_start-0x7fffe2ea>
    1dee:	0a01                	addi	s4,s4,0
    1df0:	0b28                	addi	a0,sp,408
    1df2:	0000                	unimp
    1df4:	0400                	addi	s0,sp,512
    1df6:	025d                	addi	tp,tp,23
    1df8:	0000                	unimp
    1dfa:	f80d                	bnez	s0,1d2c <_start-0x7fffe2d4>
    1dfc:	0301                	addi	t1,t1,0
    1dfe:	0b8e                	slli	s7,s7,0x3
    1e00:	0000                	unimp
    1e02:	b015                	j	1626 <_start-0x7fffe9da>
    1e04:	0800000b          	0x800000b
    1e08:	00000b0b          	0xb0b
    1e0c:	0bd2                	slli	s7,s7,0x14
    1e0e:	0000                	unimp
    1e10:	3309                	jal	1b12 <_start-0x7fffe4ee>
    1e12:	0000                	unimp
    1e14:	ff00                	fsw	fs0,56(a4)
    1e16:	1500                	addi	s0,sp,672
    1e18:	0bc2                	slli	s7,s7,0x10
    1e1a:	0000                	unimp
    1e1c:	311f 0007 0d00      	0xd000007311f
    1e22:	01fc                	addi	a5,sp,204
    1e24:	d216                	sw	t0,36(sp)
    1e26:	1f00000b          	0x1f00000b
    1e2a:	029f 0000 020d      	0x20d0000029f
    1e30:	1602                	slli	a2,a2,0x20
    1e32:	0bd2                	slli	s7,s7,0x14
    1e34:	0000                	unimp
    1e36:	0007e227          	0x7e227
    1e3a:	0100                	addi	s0,sp,128
    1e3c:	051a                	slli	a0,a0,0x6
    1e3e:	3401                	jal	183e <_start-0x7fffe7c2>
    1e40:	0000000b          	0xb
    1e44:	0000                	unimp
    1e46:	0000                	unimp
    1e48:	0000                	unimp
    1e4a:	0100                	addi	s0,sp,128
    1e4c:	299c                	fld	fa5,16(a1)
    1e4e:	2800000f          	0x2800000f
    1e52:	0075                	c.nop	29
    1e54:	1a01                	addi	s4,s4,-32
    1e56:	1405                	addi	s0,s0,-31
    1e58:	0b34                	addi	a3,sp,408
    1e5a:	0000                	unimp
    1e5c:	0bf5                	addi	s7,s7,29
    1e5e:	0000                	unimp
    1e60:	7628                	flw	fa0,104(a2)
    1e62:	0100                	addi	s0,sp,128
    1e64:	051a                	slli	a0,a0,0x6
    1e66:	341f 000b 9d00      	0x9d00000b341f
    1e6c:	000c                	0xc
    1e6e:	2900                	fld	fs0,16(a0)
    1e70:	1c010077          	0x1c010077
    1e74:	0b05                	addi	s6,s6,1
    1e76:	0b34                	addi	a3,sp,408
    1e78:	0000                	unimp
    1e7a:	0d05                	addi	s10,s10,1
    1e7c:	0000                	unimp
    1e7e:	292a                	fld	fs2,136(sp)
    1e80:	0000000f          	fence	unknown,unknown
    1e84:	0000                	unimp
    1e86:	0000                	unimp
    1e88:	0001                	nop
    1e8a:	0100                	addi	s0,sp,128
    1e8c:	051e                	slli	a0,a0,0x7
    1e8e:	2b0a                	fld	fs6,128(sp)
    1e90:	0f51                	addi	t5,t5,20
    1e92:	0000                	unimp
    1e94:	0d2d                	addi	s10,s10,11
    1e96:	0000                	unimp
    1e98:	000f462b          	0xf462b
    1e9c:	5500                	lw	s0,40(a0)
    1e9e:	000d                	c.nop	3
    1ea0:	2b00                	fld	fs0,16(a4)
    1ea2:	00000f3b          	0xf3b
    1ea6:	0dbd                	addi	s11,s11,15
    1ea8:	0000                	unimp
    1eaa:	002c                	addi	a1,sp,8
    1eac:	0001                	nop
    1eae:	2d00                	fld	fs0,24(a0)
    1eb0:	0f5d                	addi	t5,t5,23
    1eb2:	0000                	unimp
    1eb4:	692d                	lui	s2,0xb
    1eb6:	2d00000f          	0x2d00000f
    1eba:	0f75                	addi	t5,t5,29
    1ebc:	0000                	unimp
    1ebe:	812e                	mv	sp,a1
    1ec0:	4500000f          	0x4500000f
    1ec4:	000e                	c.slli	zero,0x3
    1ec6:	2e00                	fld	fs0,24(a2)
    1ec8:	0f8d                	addi	t6,t6,3
    1eca:	0000                	unimp
    1ecc:	0e84                	addi	s1,sp,848
    1ece:	0000                	unimp
    1ed0:	992e                	add	s2,s2,a1
    1ed2:	d900000f          	0xd900000f
    1ed6:	000e                	c.slli	zero,0x3
    1ed8:	2e00                	fld	fs0,24(a2)
    1eda:	0fa5                	addi	t6,t6,9
    1edc:	0000                	unimp
    1ede:	00000f4f          	fnmadd.s	ft10,ft0,ft0,ft0,rne
    1ee2:	b12e                	fsd	fa1,160(sp)
    1ee4:	e600000f          	0xe600000f
    1ee8:	2e00000f          	0x2e00000f
    1eec:	0fbd                	addi	t6,t6,15
    1eee:	0000                	unimp
    1ef0:	1004                	addi	s1,sp,32
    1ef2:	0000                	unimp
    1ef4:	c92e                	sw	a1,144(sp)
    1ef6:	2300000f          	0x2300000f
    1efa:	0010                	0x10
    1efc:	2e00                	fld	fs0,24(a2)
    1efe:	0fd5                	addi	t6,t6,21
    1f00:	0000                	unimp
    1f02:	00001043          	fmadd.s	ft0,ft0,ft0,ft0,rtz
    1f06:	e02e                	fsw	fa1,0(sp)
    1f08:	6100000f          	0x6100000f
    1f0c:	0010                	0x10
    1f0e:	2d00                	fld	fs0,24(a0)
    1f10:	0fec                	addi	a1,sp,988
    1f12:	0000                	unimp
    1f14:	000ff82f          	0xff82f
    1f18:	1800                	addi	s0,sp,48
    1f1a:	0001                	nop
    1f1c:	ef00                	fsw	fs0,24(a4)
    1f1e:	000c                	0xc
    1f20:	2e00                	fld	fs0,24(a2)
    1f22:	0ffd                	addi	t6,t6,31
    1f24:	0000                	unimp
    1f26:	10a0                	addi	s0,sp,104
    1f28:	0000                	unimp
    1f2a:	0a2e                	slli	s4,s4,0xb
    1f2c:	0010                	0x10
    1f2e:	be00                	fsd	fs0,56(a2)
    1f30:	0010                	0x10
    1f32:	0000                	unimp
    1f34:	1830                	addi	a2,sp,56
    1f36:	0010                	0x10
	...
    1f40:	3c00                	fld	fs0,56(s0)
    1f42:	000d                	c.nop	3
    1f44:	2e00                	fld	fs0,24(a2)
    1f46:	101d                	c.nop	-25
    1f48:	0000                	unimp
    1f4a:	10d1                	addi	ra,ra,-12
    1f4c:	0000                	unimp
    1f4e:	2a2e                	fld	fs4,200(sp)
    1f50:	0010                	0x10
    1f52:	e400                	fsw	fs0,8(s0)
    1f54:	0010                	0x10
    1f56:	2d00                	fld	fs0,24(a0)
    1f58:	00001037          	lui	zero,0x1
    1f5c:	442e                	lw	s0,200(sp)
    1f5e:	0010                	0x10
    1f60:	0800                	addi	s0,sp,16
    1f62:	0011                	c.nop	4
    1f64:	2e00                	fld	fs0,24(a2)
    1f66:	1051                	c.nop	-12
    1f68:	0000                	unimp
    1f6a:	0000111b          	0x111b
    1f6e:	5e2e                	lw	t3,232(sp)
    1f70:	0010                	0x10
    1f72:	3900                	fld	fs0,48(a0)
    1f74:	0011                	c.nop	4
    1f76:	2e00                	fld	fs0,24(a2)
    1f78:	0000106b          	0x106b
    1f7c:	00001157          	0x1157
    1f80:	2f00                	fld	fs0,24(a4)
    1f82:	1079                	c.nop	-2
    1f84:	0000                	unimp
    1f86:	0130                	addi	a2,sp,136
    1f88:	0000                	unimp
    1f8a:	0d5c                	addi	a5,sp,660
    1f8c:	0000                	unimp
    1f8e:	7e2e                	flw	ft8,232(sp)
    1f90:	0010                	0x10
    1f92:	7500                	flw	fs0,40(a0)
    1f94:	0011                	c.nop	4
    1f96:	2e00                	fld	fs0,24(a2)
    1f98:	0000108b          	0x108b
    1f9c:	00001193          	slli	gp,zero,0x0
    1fa0:	3000                	fld	fs0,32(s0)
    1fa2:	10fa                	slli	ra,ra,0x3e
	...
    1fac:	0000                	unimp
    1fae:	0dad                	addi	s11,s11,11
    1fb0:	0000                	unimp
    1fb2:	ff2e                	fsw	fa1,188(sp)
    1fb4:	0010                	0x10
    1fb6:	a600                	fsd	fs0,8(a2)
    1fb8:	0011                	c.nop	4
    1fba:	2e00                	fld	fs0,24(a2)
    1fbc:	110c                	addi	a1,sp,160
    1fbe:	0000                	unimp
    1fc0:	11b9                	addi	gp,gp,-18
    1fc2:	0000                	unimp
    1fc4:	192e                	slli	s2,s2,0x2b
    1fc6:	0011                	c.nop	4
    1fc8:	dd00                	sw	s0,56(a0)
    1fca:	0011                	c.nop	4
    1fcc:	2e00                	fld	fs0,24(a2)
    1fce:	1126                	slli	sp,sp,0x29
    1fd0:	0000                	unimp
    1fd2:	11f0                	addi	a2,sp,236
    1fd4:	0000                	unimp
    1fd6:	332e                	fld	ft6,232(sp)
    1fd8:	0011                	c.nop	4
    1fda:	0300                	addi	s0,sp,384
    1fdc:	0012                	c.slli	zero,0x4
    1fde:	2e00                	fld	fs0,24(a2)
    1fe0:	1140                	addi	s0,sp,164
    1fe2:	0000                	unimp
    1fe4:	122c                	addi	a1,sp,296
    1fe6:	0000                	unimp
    1fe8:	4d2e                	lw	s10,200(sp)
    1fea:	0011                	c.nop	4
    1fec:	4a00                	lw	s0,16(a2)
    1fee:	0012                	c.slli	zero,0x4
    1ff0:	0000                	unimp
    1ff2:	0010992f          	0x10992f
    1ff6:	4800                	lw	s0,16(s0)
    1ff8:	0001                	nop
    1ffa:	fa00                	fsw	fs0,48(a2)
    1ffc:	000d                	c.nop	3
    1ffe:	2e00                	fld	fs0,24(a2)
    2000:	109e                	slli	ra,ra,0x27
    2002:	0000                	unimp
    2004:	1268                	addi	a0,sp,300
    2006:	0000                	unimp
    2008:	ab2e                	fsd	fa1,400(sp)
    200a:	0010                	0x10
    200c:	7b00                	flw	fs0,48(a4)
    200e:	0012                	c.slli	zero,0x4
    2010:	2e00                	fld	fs0,24(a2)
    2012:	10b8                	addi	a4,sp,104
    2014:	0000                	unimp
    2016:	129f 0000 c52e      	0xc52e0000129f
    201c:	0010                	0x10
    201e:	b200                	fsd	fs0,32(a2)
    2020:	0012                	c.slli	zero,0x4
    2022:	2e00                	fld	fs0,24(a2)
    2024:	10d2                	slli	ra,ra,0x34
    2026:	0000                	unimp
    2028:	12c5                	addi	t0,t0,-15
    202a:	0000                	unimp
    202c:	df2e                	sw	a1,188(sp)
    202e:	0010                	0x10
    2030:	ee00                	fsw	fs0,24(a2)
    2032:	0012                	c.slli	zero,0x4
    2034:	2e00                	fld	fs0,24(a2)
    2036:	10ec                	addi	a1,sp,108
    2038:	0000                	unimp
    203a:	130c                	addi	a1,sp,416
    203c:	0000                	unimp
    203e:	2f00                	fld	fs0,24(a4)
    2040:	0000115b          	0x115b
    2044:	0160                	addi	s0,sp,140
    2046:	0000                	unimp
    2048:	0e1a                	slli	t3,t3,0x6
    204a:	0000                	unimp
    204c:	602e                	flw	ft0,200(sp)
    204e:	0011                	c.nop	4
    2050:	2a00                	fld	fs0,16(a2)
    2052:	2e000013          	li	zero,736
    2056:	116d                	addi	sp,sp,-5
    2058:	0000                	unimp
    205a:	133d                	addi	t1,t1,-17
    205c:	0000                	unimp
    205e:	3000                	fld	fs0,32(s0)
    2060:	0000117b          	0x117b
	...
    206c:	0e35                	addi	t3,t3,13
    206e:	0000                	unimp
    2070:	802e                	c.mv	zero,a1
    2072:	0011                	c.nop	4
    2074:	5000                	lw	s0,32(s0)
    2076:	00000013          	nop
    207a:	8e31                	xor	a2,a2,a2
    207c:	0011                	c.nop	4
	...
    2086:	3200                	fld	fs0,32(a2)
    2088:	0000118f          	0x118f
    208c:	6101                	0x6101
    208e:	9b2e                	add	s6,s6,a1
    2090:	0011                	c.nop	4
    2092:	6300                	flw	fs0,0(a4)
    2094:	2f000013          	li	zero,752
    2098:	000011a7          	0x11a7
    209c:	0178                	addi	a4,sp,140
    209e:	0000                	unimp
    20a0:	0e9f 0000 ac2e      	0xac2e00000e9f
    20a6:	0011                	c.nop	4
    20a8:	8c00                	0x8c00
    20aa:	2e000013          	li	zero,736
    20ae:	11b9                	addi	gp,gp,-18
    20b0:	0000                	unimp
    20b2:	13ae                	slli	t2,t2,0x2b
    20b4:	0000                	unimp
    20b6:	c62e                	sw	a1,12(sp)
    20b8:	0011                	c.nop	4
    20ba:	d200                	sw	s0,32(a2)
    20bc:	2e000013          	li	zero,736
    20c0:	000011d3          	fadd.s	ft3,ft0,ft0,rtz
    20c4:	13f0                	addi	a2,sp,492
    20c6:	0000                	unimp
    20c8:	e02e                	fsw	fa1,0(sp)
    20ca:	0011                	c.nop	4
    20cc:	0e00                	addi	s0,sp,784
    20ce:	0014                	0x14
    20d0:	2e00                	fld	fs0,24(a2)
    20d2:	11ed                	addi	gp,gp,-5
    20d4:	0000                	unimp
    20d6:	00001437          	lui	s0,0x1
    20da:	fa2e                	fsw	fa1,52(sp)
    20dc:	0011                	c.nop	4
    20de:	6b00                	flw	fs0,16(a4)
    20e0:	0014                	0x14
    20e2:	0000                	unimp
    20e4:	0012082f          	0x12082f
    20e8:	a000                	fsd	fs0,0(s0)
    20ea:	0001                	nop
    20ec:	f300                	fsw	fs0,32(a4)
    20ee:	000e                	c.slli	zero,0x3
    20f0:	2e00                	fld	fs0,24(a2)
    20f2:	120d                	addi	tp,tp,-29
    20f4:	0000                	unimp
    20f6:	14ad                	addi	s1,s1,-21
    20f8:	0000                	unimp
    20fa:	1a2e                	slli	s4,s4,0x2b
    20fc:	0012                	c.slli	zero,0x4
    20fe:	c000                	sw	s0,0(s0)
    2100:	0014                	0x14
    2102:	2e00                	fld	fs0,24(a2)
    2104:	00001227          	0x1227
    2108:	000014d3          	fadd.s	fs1,ft0,ft0,rtz
    210c:	342e                	fld	fs0,232(sp)
    210e:	0012                	c.slli	zero,0x4
    2110:	e600                	fsw	fs0,8(a2)
    2112:	0014                	0x14
    2114:	2e00                	fld	fs0,24(a2)
    2116:	1241                	addi	tp,tp,-16
    2118:	0000                	unimp
    211a:	14f9                	addi	s1,s1,-2
    211c:	0000                	unimp
    211e:	4e2e                	lw	t3,200(sp)
    2120:	0012                	c.slli	zero,0x4
    2122:	0c00                	addi	s0,sp,528
    2124:	0015                	c.nop	5
    2126:	2e00                	fld	fs0,24(a2)
    2128:	0000125b          	0x125b
    212c:	0000153f 00126832 	0x1268320000153f
    2134:	0100                	addi	s0,sp,128
    2136:	005d                	c.nop	23
    2138:	7630                	flw	fa2,104(a2)
    213a:	0012                	c.slli	zero,0x4
	...
    2144:	0e00                	addi	s0,sp,784
    2146:	2e00000f          	0x2e00000f
    214a:	0000127b          	0x127b
    214e:	1552                	slli	a0,a0,0x34
    2150:	0000                	unimp
    2152:	3100                	fld	fs0,32(a0)
    2154:	1289                	addi	t0,t0,-30
	...
    215e:	0000                	unimp
    2160:	8a2e                	mv	s4,a1
    2162:	0012                	c.slli	zero,0x4
    2164:	6500                	flw	fs0,8(a0)
    2166:	0015                	c.nop	5
    2168:	0000                	unimp
    216a:	0000                	unimp
    216c:	0000                	unimp
    216e:	00065433          	srl	s0,a2,zero
    2172:	0100                	addi	s0,sp,128
    2174:	340103f7          	0x340103f7
    2178:	0300000b          	0x300000b
    217c:	129a                	slli	t0,t0,0x26
    217e:	0000                	unimp
    2180:	6e34                	flw	fa3,88(a2)
    2182:	0100                	addi	s0,sp,128
    2184:	341703f7          	0x341703f7
    2188:	3400000b          	0x3400000b
    218c:	0064                	addi	s1,sp,12
    218e:	f701                	bnez	a4,2096 <_start-0x7fffdf6a>
    2190:	0b342203          	lw	tp,179(s0) # 10b3 <_start-0x7fffef4d>
    2194:	0000                	unimp
    2196:	7234                	flw	fa3,96(a2)
    2198:	0070                	addi	a2,sp,12
    219a:	f701                	bnez	a4,20a2 <_start-0x7fffdf5e>
    219c:	129a2e03          	lw	t3,297(s4)
    21a0:	0000                	unimp
    21a2:	6e35                	lui	t3,0xd
    21a4:	006e                	c.slli	zero,0x1b
    21a6:	f901                	bnez	a0,20b6 <_start-0x7fffdf4a>
    21a8:	0bbd1103          	lh	sp,187(s10) # b0bb <_start-0x7fff4f45>
    21ac:	0000                	unimp
    21ae:	6435                	lui	s0,0xd
    21b0:	0064                	addi	s1,sp,12
    21b2:	fa01                	bnez	a2,20c2 <_start-0x7fffdf3e>
    21b4:	0bbd1103          	lh	sp,187(s10)
    21b8:	0000                	unimp
    21ba:	7235                	lui	tp,0xfffed
    21bc:	0072                	c.slli	zero,0x1c
    21be:	fb01                	bnez	a4,20ce <_start-0x7fffdf32>
    21c0:	0bb00b03          	lb	s6,187(zero) # bb <_start-0x7fffff45>
    21c4:	0000                	unimp
    21c6:	6435                	lui	s0,0xd
    21c8:	0030                	addi	a2,sp,8
    21ca:	fc01                	bnez	s0,20e2 <_start-0x7fffdf1e>
    21cc:	0b1c0a03          	lb	s4,177(s8) # 90b1 <_start-0x7fff6f4f>
    21d0:	0000                	unimp
    21d2:	6435                	lui	s0,0xd
    21d4:	0031                	c.nop	12
    21d6:	fc01                	bnez	s0,20ee <_start-0x7fffdf12>
    21d8:	0b1c0e03          	lb	t3,177(s8)
    21dc:	0000                	unimp
    21de:	6e35                	lui	t3,0xd
    21e0:	0030                	addi	a2,sp,8
    21e2:	fc01                	bnez	s0,20fa <_start-0x7fffdf06>
    21e4:	0b1c1203          	lh	tp,177(s8)
    21e8:	0000                	unimp
    21ea:	6e35                	lui	t3,0xd
    21ec:	0031                	c.nop	12
    21ee:	fc01                	bnez	s0,2106 <_start-0x7fffdefa>
    21f0:	0b1c1603          	lh	a2,177(s8)
    21f4:	0000                	unimp
    21f6:	6e35                	lui	t3,0xd
    21f8:	0032                	c.slli	zero,0xc
    21fa:	fc01                	bnez	s0,2112 <_start-0x7fffdeee>
    21fc:	0b1c1a03          	lh	s4,177(s8)
    2200:	0000                	unimp
    2202:	7135                	addi	sp,sp,-160
    2204:	0030                	addi	a2,sp,8
    2206:	fd01                	bnez	a0,211e <_start-0x7fffdee2>
    2208:	0b1c0a03          	lb	s4,177(s8)
    220c:	0000                	unimp
    220e:	7135                	addi	sp,sp,-160
    2210:	0031                	c.nop	12
    2212:	fd01                	bnez	a0,212a <_start-0x7fffded6>
    2214:	0b1c0e03          	lb	t3,177(s8)
    2218:	0000                	unimp
    221a:	6235                	lui	tp,0xd
    221c:	0100                	addi	s0,sp,128
    221e:	03fe                	slli	t2,t2,0x1f
    2220:	1c0a                	slli	s8,s8,0x22
    2222:	3500000b          	0x3500000b
    2226:	6d62                	flw	fs10,24(sp)
    2228:	0100                	addi	s0,sp,128
    222a:	03fe                	slli	t2,t2,0x1f
    222c:	1c0d                	addi	s8,s8,-29
    222e:	3500000b          	0x3500000b
    2232:	01007777          	0x1007777
    2236:	bd1104c7          	0xbd1104c7
    223a:	3600000b          	0x3600000b
    223e:	1018                	addi	a4,sp,32
    2240:	0000                	unimp
    2242:	0006d537          	lui	a0,0x6d
    2246:	0100                	addi	s0,sp,128
    2248:	042e                	slli	s0,s0,0xb
    224a:	1c04                	addi	s1,sp,560
    224c:	3500000b          	0x3500000b
    2250:	5f5f 0061 2e01      	0x2e0100615f5f
    2256:	0404                	addi	s1,sp,512
    2258:	0b1c                	addi	a5,sp,400
    225a:	0000                	unimp
    225c:	3600                	fld	fs0,40(a2)
    225e:	1079                	c.nop	-2
    2260:	0000                	unimp
    2262:	0000a337          	lui	t1,0xa
    2266:	0100                	addi	s0,sp,128
    2268:	043a                	slli	s0,s0,0xe
    226a:	1c04                	addi	s1,sp,560
    226c:	3700000b          	0x3700000b
    2270:	009e                	slli	ra,ra,0x7
    2272:	0000                	unimp
    2274:	3a01                	jal	1b84 <_start-0x7fffe47c>
    2276:	0404                	addi	s1,sp,512
    2278:	0b1c                	addi	a5,sp,400
    227a:	0000                	unimp
    227c:	00068837          	lui	a6,0x68
    2280:	0100                	addi	s0,sp,128
    2282:	043a                	slli	s0,s0,0xe
    2284:	1c04                	addi	s1,sp,560
    2286:	3700000b          	0x3700000b
    228a:	00000683          	lb	a3,0(zero) # 0 <_start-0x80000000>
    228e:	3a01                	jal	1b9e <_start-0x7fffe462>
    2290:	0404                	addi	s1,sp,512
    2292:	0b1c                	addi	a5,sp,400
    2294:	0000                	unimp
    2296:	00075337          	lui	t1,0x75
    229a:	0100                	addi	s0,sp,128
    229c:	043a                	slli	s0,s0,0xe
    229e:	1c04                	addi	s1,sp,560
    22a0:	3700000b          	0x3700000b
    22a4:	074e                	slli	a4,a4,0x13
    22a6:	0000                	unimp
    22a8:	3a01                	jal	1bb8 <_start-0x7fffe448>
    22aa:	0404                	addi	s1,sp,512
    22ac:	0b1c                	addi	a5,sp,400
    22ae:	0000                	unimp
    22b0:	5f35                	li	t5,-19
    22b2:	6d5f 0100 043a      	0x43a01006d5f
    22b8:	1c04                	addi	s1,sp,560
    22ba:	0000000b          	0xb
    22be:	9936                	add	s2,s2,a3
    22c0:	0010                	0x10
    22c2:	3700                	fld	fs0,40(a4)
    22c4:	06d5                	addi	a3,a3,21
    22c6:	0000                	unimp
    22c8:	4601                	li	a2,0
    22ca:	0404                	addi	s1,sp,512
    22cc:	0b1c                	addi	a5,sp,400
    22ce:	0000                	unimp
    22d0:	5f35                	li	t5,-19
    22d2:	615f 0100 0446      	0x4460100615f
    22d8:	1c04                	addi	s1,sp,560
    22da:	0000000b          	0xb
    22de:	fa36                	fsw	fa3,52(sp)
    22e0:	0010                	0x10
    22e2:	3700                	fld	fs0,40(a4)
    22e4:	000000a3          	sb	zero,1(zero) # 1 <_start-0x7fffffff>
    22e8:	5f01                	li	t5,-32
    22ea:	0804                	addi	s1,sp,16
    22ec:	0b1c                	addi	a5,sp,400
    22ee:	0000                	unimp
    22f0:	00009e37          	lui	t3,0x9
    22f4:	0100                	addi	s0,sp,128
    22f6:	045f 1c08 000b      	0xb1c08045f
    22fc:	3700                	fld	fs0,40(a4)
    22fe:	0688                	addi	a0,sp,832
    2300:	0000                	unimp
    2302:	5f01                	li	t5,-32
    2304:	0804                	addi	s1,sp,16
    2306:	0b1c                	addi	a5,sp,400
    2308:	0000                	unimp
    230a:	00068337          	lui	t1,0x68
    230e:	0100                	addi	s0,sp,128
    2310:	045f 1c08 000b      	0xb1c08045f
    2316:	3700                	fld	fs0,40(a4)
    2318:	00000753          	fadd.s	fa4,ft0,ft0,rne
    231c:	5f01                	li	t5,-32
    231e:	0804                	addi	s1,sp,16
    2320:	0b1c                	addi	a5,sp,400
    2322:	0000                	unimp
    2324:	00074e37          	lui	t3,0x74
    2328:	0100                	addi	s0,sp,128
    232a:	045f 1c08 000b      	0xb1c08045f
    2330:	3500                	fld	fs0,40(a0)
    2332:	5f5f 006d 5f01      	0x5f01006d5f5f
    2338:	0804                	addi	s1,sp,16
    233a:	0b1c                	addi	a5,sp,400
    233c:	0000                	unimp
    233e:	3600                	fld	fs0,40(a2)
    2340:	0000115b          	0x115b
    2344:	0000a337          	lui	t1,0xa
    2348:	0100                	addi	s0,sp,128
    234a:	0464                	addi	s1,sp,524
    234c:	1c04                	addi	s1,sp,560
    234e:	3700000b          	0x3700000b
    2352:	009e                	slli	ra,ra,0x7
    2354:	0000                	unimp
    2356:	6401                	0x6401
    2358:	0404                	addi	s1,sp,512
    235a:	0b1c                	addi	a5,sp,400
    235c:	0000                	unimp
    235e:	00068837          	lui	a6,0x68
    2362:	0100                	addi	s0,sp,128
    2364:	0464                	addi	s1,sp,524
    2366:	1c04                	addi	s1,sp,560
    2368:	3700000b          	0x3700000b
    236c:	00000683          	lb	a3,0(zero) # 0 <_start-0x80000000>
    2370:	6401                	0x6401
    2372:	0404                	addi	s1,sp,512
    2374:	0b1c                	addi	a5,sp,400
    2376:	0000                	unimp
    2378:	00075337          	lui	t1,0x75
    237c:	0100                	addi	s0,sp,128
    237e:	0464                	addi	s1,sp,524
    2380:	1c04                	addi	s1,sp,560
    2382:	3700000b          	0x3700000b
    2386:	074e                	slli	a4,a4,0x13
    2388:	0000                	unimp
    238a:	6401                	0x6401
    238c:	0404                	addi	s1,sp,512
    238e:	0b1c                	addi	a5,sp,400
    2390:	0000                	unimp
    2392:	5f35                	li	t5,-19
    2394:	6d5f 0100 0464      	0x46401006d5f
    239a:	1c04                	addi	s1,sp,560
    239c:	0000000b          	0xb
    23a0:	7b36                	flw	fs6,108(sp)
    23a2:	0011                	c.nop	4
    23a4:	3700                	fld	fs0,40(a4)
    23a6:	06d5                	addi	a3,a3,21
    23a8:	0000                	unimp
    23aa:	8701                	c.srai64	a4
    23ac:	0404                	addi	s1,sp,512
    23ae:	0b1c                	addi	a5,sp,400
    23b0:	0000                	unimp
    23b2:	5f35                	li	t5,-19
    23b4:	615f 0100 0487      	0x4870100615f
    23ba:	1c04                	addi	s1,sp,560
    23bc:	0000000b          	0xb
    23c0:	8e36                	mv	t3,a3
    23c2:	0011                	c.nop	4
    23c4:	3500                	fld	fs0,40(a0)
    23c6:	5f5f 0078 9501      	0x950100785f5f
    23cc:	0504                	addi	s1,sp,640
    23ce:	0b1c                	addi	a5,sp,400
    23d0:	0000                	unimp
    23d2:	3800                	fld	fs0,48(s0)
    23d4:	6d35                	lui	s10,0xd
    23d6:	0031                	c.nop	12
    23d8:	a501                	j	29d8 <_start-0x7fffd628>
    23da:	0f04                	addi	s1,sp,912
    23dc:	0b1c                	addi	a5,sp,400
    23de:	0000                	unimp
    23e0:	6d35                	lui	s10,0xd
    23e2:	0030                	addi	a2,sp,8
    23e4:	a501                	j	29e4 <_start-0x7fffd61c>
    23e6:	1304                	addi	s1,sp,416
    23e8:	0b1c                	addi	a5,sp,400
    23ea:	0000                	unimp
    23ec:	0836                	slli	a6,a6,0xd
    23ee:	0012                	c.slli	zero,0x4
    23f0:	3700                	fld	fs0,40(a4)
    23f2:	000000a3          	sb	zero,1(zero) # 1 <_start-0x7fffffff>
    23f6:	b001                	j	1bf6 <_start-0x7fffe40a>
    23f8:	0804                	addi	s1,sp,16
    23fa:	0b1c                	addi	a5,sp,400
    23fc:	0000                	unimp
    23fe:	00009e37          	lui	t3,0x9
    2402:	0100                	addi	s0,sp,128
    2404:	04b0                	addi	a2,sp,584
    2406:	1c08                	addi	a0,sp,560
    2408:	3700000b          	0x3700000b
    240c:	0688                	addi	a0,sp,832
    240e:	0000                	unimp
    2410:	b001                	j	1c10 <_start-0x7fffe3f0>
    2412:	0804                	addi	s1,sp,16
    2414:	0b1c                	addi	a5,sp,400
    2416:	0000                	unimp
    2418:	00068337          	lui	t1,0x68
    241c:	0100                	addi	s0,sp,128
    241e:	04b0                	addi	a2,sp,584
    2420:	1c08                	addi	a0,sp,560
    2422:	3700000b          	0x3700000b
    2426:	00000753          	fadd.s	fa4,ft0,ft0,rne
    242a:	b001                	j	1c2a <_start-0x7fffe3d6>
    242c:	0804                	addi	s1,sp,16
    242e:	0b1c                	addi	a5,sp,400
    2430:	0000                	unimp
    2432:	00074e37          	lui	t3,0x74
    2436:	0100                	addi	s0,sp,128
    2438:	04b0                	addi	a2,sp,584
    243a:	1c08                	addi	a0,sp,560
    243c:	3500000b          	0x3500000b
    2440:	5f5f 006d b001      	0xb001006d5f5f
    2446:	0804                	addi	s1,sp,16
    2448:	0b1c                	addi	a5,sp,400
    244a:	0000                	unimp
    244c:	3600                	fld	fs0,40(a2)
    244e:	1276                	slli	tp,tp,0x3d
    2450:	0000                	unimp
    2452:	00061037          	lui	zero,0x61
    2456:	0100                	addi	s0,sp,128
    2458:	04b1                	addi	s1,s1,12
    245a:	1c08                	addi	a0,sp,560
    245c:	3700000b          	0x3700000b
    2460:	0615                	addi	a2,a2,5
    2462:	0000                	unimp
    2464:	b101                	j	2064 <_start-0x7fffdf9c>
    2466:	0804                	addi	s1,sp,16
    2468:	0b1c                	addi	a5,sp,400
    246a:	0000                	unimp
    246c:	00061a37          	lui	s4,0x61
    2470:	0100                	addi	s0,sp,128
    2472:	04b1                	addi	s1,s1,12
    2474:	1c08                	addi	a0,sp,560
    2476:	3700000b          	0x3700000b
    247a:	061f 0000 b101      	0xb1010000061f
    2480:	0804                	addi	s1,sp,16
    2482:	0b1c                	addi	a5,sp,400
    2484:	0000                	unimp
    2486:	00030b37          	lui	s6,0x30
    248a:	0100                	addi	s0,sp,128
    248c:	04b1                	addi	s1,s1,12
    248e:	1c08                	addi	a0,sp,560
    2490:	3700000b          	0x3700000b
    2494:	04f5                	addi	s1,s1,29
    2496:	0000                	unimp
    2498:	b101                	j	2098 <_start-0x7fffdf68>
    249a:	0804                	addi	s1,sp,16
    249c:	0b1c                	addi	a5,sp,400
    249e:	0000                	unimp
    24a0:	0002f537          	lui	a0,0x2f
    24a4:	0100                	addi	s0,sp,128
    24a6:	04b1                	addi	s1,s1,12
    24a8:	1c08                	addi	a0,sp,560
    24aa:	3700000b          	0x3700000b
    24ae:	0491                	addi	s1,s1,4
    24b0:	0000                	unimp
    24b2:	b101                	j	20b2 <_start-0x7fffdf4e>
    24b4:	0804                	addi	s1,sp,16
    24b6:	0b1c                	addi	a5,sp,400
    24b8:	0000                	unimp
    24ba:	3600                	fld	fs0,40(a2)
    24bc:	1289                	addi	t0,t0,-30
    24be:	0000                	unimp
    24c0:	5f35                	li	t5,-19
    24c2:	785f 0100 04b6      	0x4b60100785f
    24c8:	1c05                	addi	s8,s8,-31
    24ca:	0000000b          	0xb
    24ce:	3538                	fld	fa4,104(a0)
    24d0:	5f5f 0078 be01      	0xbe0100785f5f
    24d6:	0504                	addi	s1,sp,640
    24d8:	0b1c                	addi	a5,sp,400
    24da:	0000                	unimp
    24dc:	0000                	unimp
    24de:	0f00                	addi	s0,sp,912
    24e0:	3404                	fld	fs1,40(s0)
    24e2:	0000000b          	0xb

Disassembly of section .debug_abbrev:

00000000 <.debug_abbrev>:
   0:	1101                	addi	sp,sp,-32
   2:	2501                	jal	602 <_start-0x7ffff9fe>
   4:	130e                	slli	t1,t1,0x23
   6:	1b0e030b          	0x1b0e030b
   a:	110e                	slli	sp,sp,0x23
   c:	1201                	addi	tp,tp,-32
   e:	1006                	c.slli	zero,0x21
  10:	02000017          	auipc	zero,0x2000
  14:	0024                	addi	s1,sp,8
  16:	0b3e0b0b          	0xb3e0b0b
  1a:	00000e03          	lb	t3,0(zero) # 0 <_start-0x80000000>
  1e:	0b002403          	lw	s0,176(zero) # b0 <_start-0x7fffff50>
  22:	030b3e0b          	0x30b3e0b
  26:	0008                	0x8
  28:	0400                	addi	s0,sp,512
  2a:	0016                	c.slli	zero,0x5
  2c:	0b3a0e03          	lb	t3,179(s4) # 610b3 <_start-0x7ff9ef4d>
  30:	0b39053b          	0xb39053b
  34:	1349                	addi	t1,t1,-14
  36:	0000                	unimp
  38:	1605                	addi	a2,a2,-31
  3a:	0300                	addi	s0,sp,384
  3c:	3a0e                	fld	fs4,224(sp)
  3e:	390b3b0b          	0x390b3b0b
  42:	0013490b          	0x13490b
  46:	0600                	addi	s0,sp,768
  48:	0b0b0117          	auipc	sp,0xb0b0
  4c:	0b3a                	slli	s6,s6,0xe
  4e:	0b390b3b          	0xb390b3b
  52:	1301                	addi	t1,t1,-32
  54:	0000                	unimp
  56:	03000d07          	0x3000d07
  5a:	3a0e                	fld	fs4,224(sp)
  5c:	390b3b0b          	0x390b3b0b
  60:	0013490b          	0x13490b
  64:	0800                	addi	s0,sp,16
  66:	0101                	addi	sp,sp,0
  68:	1349                	addi	t1,t1,-14
  6a:	1301                	addi	t1,t1,-32
  6c:	0000                	unimp
  6e:	2109                	jal	470 <_start-0x7ffffb90>
  70:	4900                	lw	s0,16(a0)
  72:	000b2f13          	slti	t5,s6,0
  76:	0a00                	addi	s0,sp,272
  78:	0b0b0113          	addi	sp,s6,176 # 300b0 <_start-0x7ffcff50>
  7c:	0b3a                	slli	s6,s6,0xe
  7e:	0b390b3b          	0xb390b3b
  82:	1301                	addi	t1,t1,-32
  84:	0000                	unimp
  86:	03000d0b          	0x3000d0b
  8a:	3a0e                	fld	fs4,224(sp)
  8c:	390b3b0b          	0x390b3b0b
  90:	3813490b          	0x3813490b
  94:	0c00000b          	0xc00000b
  98:	0b0b000f          	0xb0b000f
  9c:	0000                	unimp
  9e:	130d                	addi	t1,t1,-29
  a0:	0301                	addi	t1,t1,0
  a2:	0b0e                	slli	s6,s6,0x3
  a4:	3b0b3a0b          	0x3b0b3a0b
  a8:	010b390b          	0x10b390b
  ac:	0e000013          	li	zero,224
  b0:	000d                	c.nop	3
  b2:	0b3a0803          	lb	a6,179(s4)
  b6:	0b390b3b          	0xb390b3b
  ba:	1349                	addi	t1,t1,-14
  bc:	0b38                	addi	a4,sp,408
  be:	0000                	unimp
  c0:	0b000f0f          	0xb000f0f
  c4:	0013490b          	0x13490b
  c8:	1000                	addi	s0,sp,32
  ca:	0e030113          	addi	sp,t1,224 # 680e0 <_start-0x7ff97f20>
  ce:	0b3a050b          	0xb3a050b
  d2:	0b390b3b          	0xb390b3b
  d6:	1301                	addi	t1,t1,-32
  d8:	0000                	unimp
  da:	0d11                	addi	s10,s10,4
  dc:	0300                	addi	s0,sp,384
  de:	3a0e                	fld	fs4,224(sp)
  e0:	390b3b0b          	0x390b3b0b
  e4:	3813490b          	0x3813490b
  e8:	0005                	c.nop	1
  ea:	1200                	addi	s0,sp,288
  ec:	0015                	c.nop	5
  ee:	00001927          	0x1927
  f2:	27011513          	0x27011513
  f6:	4919                	li	s2,6
  f8:	00130113          	addi	sp,t1,1
  fc:	1400                	addi	s0,sp,544
  fe:	0005                	c.nop	1
 100:	1349                	addi	t1,t1,-14
 102:	0000                	unimp
 104:	2615                	jal	428 <_start-0x7ffffbd8>
 106:	4900                	lw	s0,16(a0)
 108:	16000013          	li	zero,352
 10c:	0e030113          	addi	sp,t1,224
 110:	0b3a050b          	0xb3a050b
 114:	0b39053b          	0xb39053b
 118:	1301                	addi	t1,t1,-32
 11a:	0000                	unimp
 11c:	03000d17          	auipc	s10,0x3000
 120:	3a0e                	fld	fs4,224(sp)
 122:	39053b0b          	0x39053b0b
 126:	3813490b          	0x3813490b
 12a:	1800000b          	0x1800000b
 12e:	000d                	c.nop	3
 130:	0b3a0e03          	lb	t3,179(s4)
 134:	0b39053b          	0xb39053b
 138:	1349                	addi	t1,t1,-14
 13a:	0538                	addi	a4,sp,648
 13c:	0000                	unimp
 13e:	1319                	addi	t1,t1,-26
 140:	0301                	addi	t1,t1,0
 142:	0b0e                	slli	s6,s6,0x3
 144:	3b0b3a0b          	0x3b0b3a0b
 148:	3905                	jal	fffffd78 <__global_pointer$+0x7fffda60>
 14a:	0013010b          	0x13010b
 14e:	1a00                	addi	s0,sp,304
 150:	0b0b0113          	addi	sp,s6,176
 154:	0b3a                	slli	s6,s6,0xe
 156:	0b39053b          	0xb39053b
 15a:	1301                	addi	t1,t1,-32
 15c:	0000                	unimp
 15e:	0b01171b          	0xb01171b
 162:	3b0b3a0b          	0x3b0b3a0b
 166:	3905                	jal	fffffd96 <__global_pointer$+0x7fffda7e>
 168:	0013010b          	0x13010b
 16c:	1c00                	addi	s0,sp,560
 16e:	000d                	c.nop	3
 170:	0b3a0e03          	lb	t3,179(s4)
 174:	0b39053b          	0xb39053b
 178:	1349                	addi	t1,t1,-14
 17a:	0000                	unimp
 17c:	131d                	addi	t1,t1,-25
 17e:	0300                	addi	s0,sp,384
 180:	3c0e                	fld	fs8,224(sp)
 182:	0019                	c.nop	6
 184:	1e00                	addi	s0,sp,816
 186:	0115                	addi	sp,sp,5
 188:	13011927          	0x13011927
 18c:	0000                	unimp
 18e:	341f 0300 3a0e      	0x3a0e0300341f
 194:	39053b0b          	0x39053b0b
 198:	3f13490b          	0x3f13490b
 19c:	3c19                	jal	fffffbb2 <__global_pointer$+0x7fffd89a>
 19e:	0019                	c.nop	6
 1a0:	2000                	fld	fs0,0(s0)
 1a2:	0021                	c.nop	8
 1a4:	0000                	unimp
 1a6:	3421                	jal	fffffbae <__global_pointer$+0x7fffd896>
 1a8:	0300                	addi	s0,sp,384
 1aa:	3a0e                	fld	fs4,224(sp)
 1ac:	390b3b0b          	0x390b3b0b
 1b0:	3f13490b          	0x3f13490b
 1b4:	3c19                	jal	fffffbca <__global_pointer$+0x7fffd8b2>
 1b6:	0019                	c.nop	6
 1b8:	2200                	fld	fs0,0(a2)
 1ba:	0026                	c.slli	zero,0x9
 1bc:	0000                	unimp
 1be:	03010423          	sb	a6,40(sp) # b0b0070 <_start-0x74f4ff90>
 1c2:	3e0e                	fld	ft8,224(sp)
 1c4:	490b0b0b          	0x490b0b0b
 1c8:	3b0b3a13          	sltiu	s4,s6,944
 1cc:	010b390b          	0x10b390b
 1d0:	24000013          	li	zero,576
 1d4:	0028                	addi	a0,sp,8
 1d6:	0b1c0e03          	lb	t3,177(s8)
 1da:	0000                	unimp
 1dc:	0d25                	addi	s10,s10,9
 1de:	0300                	addi	s0,sp,384
 1e0:	3a08                	fld	fa0,48(a2)
 1e2:	39053b0b          	0x39053b0b
 1e6:	3813490b          	0x3813490b
 1ea:	2600000b          	0x2600000b
 1ee:	000d                	c.nop	3
 1f0:	0b3a0803          	lb	a6,179(s4)
 1f4:	0b39053b          	0xb39053b
 1f8:	1349                	addi	t1,t1,-14
 1fa:	0000                	unimp
 1fc:	3f012e27          	fsw	fa6,1020(sp)
 200:	0319                	addi	t1,t1,6
 202:	3a0e                	fld	fs4,224(sp)
 204:	39053b0b          	0x39053b0b
 208:	4919270b          	0x4919270b
 20c:	12011113          	0x12011113
 210:	4006                	0x4006
 212:	9718                	0x9718
 214:	1942                	slli	s2,s2,0x30
 216:	1301                	addi	t1,t1,-32
 218:	0000                	unimp
 21a:	0528                	addi	a0,sp,648
 21c:	0300                	addi	s0,sp,384
 21e:	3a08                	fld	fa0,48(a2)
 220:	39053b0b          	0x39053b0b
 224:	0213490b          	0x213490b
 228:	29000017          	auipc	zero,0x29000
 22c:	011d                	addi	sp,sp,7
 22e:	1331                	addi	t1,t1,-20
 230:	0152                	slli	sp,sp,0x14
 232:	1755                	addi	a4,a4,-11
 234:	0b58                	addi	a4,sp,404
 236:	0559                	addi	a0,a0,22
 238:	00000b57          	0xb57
 23c:	052a                	slli	a0,a0,0xa
 23e:	3100                	fld	fs0,32(a0)
 240:	00170213          	addi	tp,a4,1 # fffe8001 <__global_pointer$+0x7ffe5ce9>
 244:	2b00                	fld	fs0,16(a4)
 246:	1755010b          	0x1755010b
 24a:	0000                	unimp
 24c:	342c                	fld	fa1,104(s0)
 24e:	3100                	fld	fs0,32(a0)
 250:	2d000013          	li	zero,720
 254:	0034                	addi	a3,sp,8
 256:	1331                	addi	t1,t1,-20
 258:	1702                	slli	a4,a4,0x20
 25a:	0000                	unimp
 25c:	0b2e                	slli	s6,s6,0xb
 25e:	3101                	jal	fffffe5e <__global_pointer$+0x7fffdb46>
 260:	01175513          	srli	a0,a4,0x11
 264:	2f000013          	li	zero,752
 268:	1331010b          	0x1331010b
 26c:	0111                	addi	sp,sp,4
 26e:	0612                	slli	a2,a2,0x4
 270:	1301                	addi	t1,t1,-32
 272:	0000                	unimp
 274:	0b30                	addi	a2,sp,408
 276:	3101                	jal	fffffe76 <__global_pointer$+0x7fffdb5e>
 278:	00175513          	srli	a0,a4,0x1
 27c:	3100                	fld	fs0,32(a0)
 27e:	012e                	slli	sp,sp,0xb
 280:	0b3a0e03          	lb	t3,179(s4)
 284:	0b39053b          	0xb39053b
 288:	13491927          	0x13491927
 28c:	0b20                	addi	s0,sp,408
 28e:	1301                	addi	t1,t1,-32
 290:	0000                	unimp
 292:	0532                	slli	a0,a0,0xc
 294:	0300                	addi	s0,sp,384
 296:	3a08                	fld	fa0,48(a2)
 298:	39053b0b          	0x39053b0b
 29c:	0013490b          	0x13490b
 2a0:	3300                	fld	fs0,32(a4)
 2a2:	0034                	addi	a3,sp,8
 2a4:	0b3a0803          	lb	a6,179(s4)
 2a8:	0b39053b          	0xb39053b
 2ac:	1349                	addi	t1,t1,-14
 2ae:	0000                	unimp
 2b0:	0b34                	addi	a3,sp,408
 2b2:	0101                	addi	sp,sp,0
 2b4:	35000013          	li	zero,848
 2b8:	0034                	addi	a3,sp,8
 2ba:	0b3a0e03          	lb	t3,179(s4)
 2be:	0b39053b          	0xb39053b
 2c2:	1349                	addi	t1,t1,-14
 2c4:	0000                	unimp
 2c6:	0b36                	slli	s6,s6,0xd
 2c8:	0001                	nop
 2ca:	0000                	unimp
 2cc:	1101                	addi	sp,sp,-32
 2ce:	2501                	jal	8ce <_start-0x7ffff732>
 2d0:	130e                	slli	t1,t1,0x23
 2d2:	1b0e030b          	0x1b0e030b
 2d6:	110e                	slli	sp,sp,0x23
 2d8:	1201                	addi	tp,tp,-32
 2da:	1006                	c.slli	zero,0x21
 2dc:	02000017          	auipc	zero,0x2000
 2e0:	0024                	addi	s1,sp,8
 2e2:	0b3e0b0b          	0xb3e0b0b
 2e6:	00000e03          	lb	t3,0(zero) # 0 <_start-0x80000000>
 2ea:	0b002403          	lw	s0,176(zero) # b0 <_start-0x7fffff50>
 2ee:	030b3e0b          	0x30b3e0b
 2f2:	0008                	0x8
 2f4:	0400                	addi	s0,sp,512
 2f6:	0016                	c.slli	zero,0x5
 2f8:	0b3a0e03          	lb	t3,179(s4)
 2fc:	0b39053b          	0xb39053b
 300:	1349                	addi	t1,t1,-14
 302:	0000                	unimp
 304:	1605                	addi	a2,a2,-31
 306:	0300                	addi	s0,sp,384
 308:	3a0e                	fld	fs4,224(sp)
 30a:	390b3b0b          	0x390b3b0b
 30e:	0013490b          	0x13490b
 312:	0600                	addi	s0,sp,768
 314:	0b0b0117          	auipc	sp,0xb0b0
 318:	0b3a                	slli	s6,s6,0xe
 31a:	0b390b3b          	0xb390b3b
 31e:	1301                	addi	t1,t1,-32
 320:	0000                	unimp
 322:	03000d07          	0x3000d07
 326:	3a0e                	fld	fs4,224(sp)
 328:	390b3b0b          	0x390b3b0b
 32c:	0013490b          	0x13490b
 330:	0800                	addi	s0,sp,16
 332:	0101                	addi	sp,sp,0
 334:	1349                	addi	t1,t1,-14
 336:	1301                	addi	t1,t1,-32
 338:	0000                	unimp
 33a:	2109                	jal	73c <_start-0x7ffff8c4>
 33c:	4900                	lw	s0,16(a0)
 33e:	000b2f13          	slti	t5,s6,0
 342:	0a00                	addi	s0,sp,272
 344:	0b0b0113          	addi	sp,s6,176
 348:	0b3a                	slli	s6,s6,0xe
 34a:	0b390b3b          	0xb390b3b
 34e:	1301                	addi	t1,t1,-32
 350:	0000                	unimp
 352:	03000d0b          	0x3000d0b
 356:	3a0e                	fld	fs4,224(sp)
 358:	390b3b0b          	0x390b3b0b
 35c:	3813490b          	0x3813490b
 360:	0c00000b          	0xc00000b
 364:	0b0b000f          	0xb0b000f
 368:	0000                	unimp
 36a:	130d                	addi	t1,t1,-29
 36c:	0301                	addi	t1,t1,0
 36e:	0b0e                	slli	s6,s6,0x3
 370:	3b0b3a0b          	0x3b0b3a0b
 374:	010b390b          	0x10b390b
 378:	0e000013          	li	zero,224
 37c:	000d                	c.nop	3
 37e:	0b3a0803          	lb	a6,179(s4)
 382:	0b390b3b          	0xb390b3b
 386:	1349                	addi	t1,t1,-14
 388:	0b38                	addi	a4,sp,408
 38a:	0000                	unimp
 38c:	0b000f0f          	0xb000f0f
 390:	0013490b          	0x13490b
 394:	1000                	addi	s0,sp,32
 396:	0e030113          	addi	sp,t1,224
 39a:	0b3a050b          	0xb3a050b
 39e:	0b390b3b          	0xb390b3b
 3a2:	1301                	addi	t1,t1,-32
 3a4:	0000                	unimp
 3a6:	0d11                	addi	s10,s10,4
 3a8:	0300                	addi	s0,sp,384
 3aa:	3a0e                	fld	fs4,224(sp)
 3ac:	390b3b0b          	0x390b3b0b
 3b0:	3813490b          	0x3813490b
 3b4:	0005                	c.nop	1
 3b6:	1200                	addi	s0,sp,288
 3b8:	0015                	c.nop	5
 3ba:	00001927          	0x1927
 3be:	27011513          	0x27011513
 3c2:	4919                	li	s2,6
 3c4:	00130113          	addi	sp,t1,1
 3c8:	1400                	addi	s0,sp,544
 3ca:	0005                	c.nop	1
 3cc:	1349                	addi	t1,t1,-14
 3ce:	0000                	unimp
 3d0:	2615                	jal	6f4 <_start-0x7ffff90c>
 3d2:	4900                	lw	s0,16(a0)
 3d4:	16000013          	li	zero,352
 3d8:	0e030113          	addi	sp,t1,224
 3dc:	0b3a050b          	0xb3a050b
 3e0:	0b39053b          	0xb39053b
 3e4:	1301                	addi	t1,t1,-32
 3e6:	0000                	unimp
 3e8:	03000d17          	auipc	s10,0x3000
 3ec:	3a0e                	fld	fs4,224(sp)
 3ee:	39053b0b          	0x39053b0b
 3f2:	3813490b          	0x3813490b
 3f6:	1800000b          	0x1800000b
 3fa:	000d                	c.nop	3
 3fc:	0b3a0e03          	lb	t3,179(s4)
 400:	0b39053b          	0xb39053b
 404:	1349                	addi	t1,t1,-14
 406:	0538                	addi	a4,sp,648
 408:	0000                	unimp
 40a:	1319                	addi	t1,t1,-26
 40c:	0301                	addi	t1,t1,0
 40e:	0b0e                	slli	s6,s6,0x3
 410:	3b0b3a0b          	0x3b0b3a0b
 414:	3905                	jal	44 <_start-0x7fffffbc>
 416:	0013010b          	0x13010b
 41a:	1a00                	addi	s0,sp,304
 41c:	0b0b0113          	addi	sp,s6,176
 420:	0b3a                	slli	s6,s6,0xe
 422:	0b39053b          	0xb39053b
 426:	1301                	addi	t1,t1,-32
 428:	0000                	unimp
 42a:	0b01171b          	0xb01171b
 42e:	3b0b3a0b          	0x3b0b3a0b
 432:	3905                	jal	62 <_start-0x7fffff9e>
 434:	0013010b          	0x13010b
 438:	1c00                	addi	s0,sp,560
 43a:	000d                	c.nop	3
 43c:	0b3a0e03          	lb	t3,179(s4)
 440:	0b39053b          	0xb39053b
 444:	1349                	addi	t1,t1,-14
 446:	0000                	unimp
 448:	131d                	addi	t1,t1,-25
 44a:	0300                	addi	s0,sp,384
 44c:	3c0e                	fld	fs8,224(sp)
 44e:	0019                	c.nop	6
 450:	1e00                	addi	s0,sp,816
 452:	0115                	addi	sp,sp,5
 454:	13011927          	0x13011927
 458:	0000                	unimp
 45a:	341f 0300 3a0e      	0x3a0e0300341f
 460:	39053b0b          	0x39053b0b
 464:	3f13490b          	0x3f13490b
 468:	3c19                	jal	fffffe7e <__global_pointer$+0x7fffdb66>
 46a:	0019                	c.nop	6
 46c:	2000                	fld	fs0,0(s0)
 46e:	0021                	c.nop	8
 470:	0000                	unimp
 472:	3421                	jal	fffffe7a <__global_pointer$+0x7fffdb62>
 474:	0300                	addi	s0,sp,384
 476:	3a0e                	fld	fs4,224(sp)
 478:	390b3b0b          	0x390b3b0b
 47c:	3f13490b          	0x3f13490b
 480:	3c19                	jal	fffffe96 <__global_pointer$+0x7fffdb7e>
 482:	0019                	c.nop	6
 484:	2200                	fld	fs0,0(a2)
 486:	0026                	c.slli	zero,0x9
 488:	0000                	unimp
 48a:	03010423          	sb	a6,40(sp) # b0b033c <_start-0x74f4fcc4>
 48e:	3e0e                	fld	ft8,224(sp)
 490:	490b0b0b          	0x490b0b0b
 494:	3b0b3a13          	sltiu	s4,s6,944
 498:	010b390b          	0x10b390b
 49c:	24000013          	li	zero,576
 4a0:	0028                	addi	a0,sp,8
 4a2:	0b1c0e03          	lb	t3,177(s8)
 4a6:	0000                	unimp
 4a8:	0d25                	addi	s10,s10,9
 4aa:	0300                	addi	s0,sp,384
 4ac:	3a08                	fld	fa0,48(a2)
 4ae:	39053b0b          	0x39053b0b
 4b2:	3813490b          	0x3813490b
 4b6:	2600000b          	0x2600000b
 4ba:	000d                	c.nop	3
 4bc:	0b3a0803          	lb	a6,179(s4)
 4c0:	0b39053b          	0xb39053b
 4c4:	1349                	addi	t1,t1,-14
 4c6:	0000                	unimp
 4c8:	3f012e27          	fsw	fa6,1020(sp)
 4cc:	0319                	addi	t1,t1,6
 4ce:	3a0e                	fld	fs4,224(sp)
 4d0:	39053b0b          	0x39053b0b
 4d4:	4919270b          	0x4919270b
 4d8:	12011113          	0x12011113
 4dc:	4006                	0x4006
 4de:	9718                	0x9718
 4e0:	1942                	slli	s2,s2,0x30
 4e2:	1301                	addi	t1,t1,-32
 4e4:	0000                	unimp
 4e6:	0528                	addi	a0,sp,648
 4e8:	0300                	addi	s0,sp,384
 4ea:	3a08                	fld	fa0,48(a2)
 4ec:	39053b0b          	0x39053b0b
 4f0:	0213490b          	0x213490b
 4f4:	29000017          	auipc	zero,0x29000
 4f8:	0034                	addi	a3,sp,8
 4fa:	0b3a0803          	lb	a6,179(s4)
 4fe:	0b39053b          	0xb39053b
 502:	1349                	addi	t1,t1,-14
 504:	1702                	slli	a4,a4,0x20
 506:	0000                	unimp
 508:	1d2a                	slli	s10,s10,0x2a
 50a:	3101                	jal	10a <_start-0x7ffffef6>
 50c:	55015213          	0x55015213
 510:	590b5817          	auipc	a6,0x590b5
 514:	5705                	li	a4,-31
 516:	2b00000b          	0x2b00000b
 51a:	0005                	c.nop	1
 51c:	1331                	addi	t1,t1,-20
 51e:	1702                	slli	a4,a4,0x20
 520:	0000                	unimp
 522:	0b2c                	addi	a1,sp,408
 524:	5501                	li	a0,-32
 526:	2d000017          	auipc	zero,0x2d000
 52a:	0034                	addi	a3,sp,8
 52c:	1331                	addi	t1,t1,-20
 52e:	0000                	unimp
 530:	342e                	fld	fs0,232(sp)
 532:	3100                	fld	fs0,32(a0)
 534:	00170213          	addi	tp,a4,1
 538:	2f00                	fld	fs0,24(a4)
 53a:	1331010b          	0x1331010b
 53e:	1755                	addi	a4,a4,-11
 540:	1301                	addi	t1,t1,-32
 542:	0000                	unimp
 544:	0b30                	addi	a2,sp,408
 546:	3101                	jal	146 <_start-0x7ffffeba>
 548:	12011113          	0x12011113
 54c:	0106                	slli	sp,sp,0x1
 54e:	31000013          	li	zero,784
 552:	1331010b          	0x1331010b
 556:	0111                	addi	sp,sp,4
 558:	0612                	slli	a2,a2,0x4
 55a:	0000                	unimp
 55c:	3432                	fld	fs0,296(sp)
 55e:	3100                	fld	fs0,32(a0)
 560:	00180213          	addi	tp,a6,1 # 590b5511 <_start-0x26f4aaef>
 564:	3300                	fld	fs0,32(a4)
 566:	012e                	slli	sp,sp,0xb
 568:	0b3a0e03          	lb	t3,179(s4)
 56c:	0b39053b          	0xb39053b
 570:	13491927          	0x13491927
 574:	0b20                	addi	s0,sp,408
 576:	1301                	addi	t1,t1,-32
 578:	0000                	unimp
 57a:	0534                	addi	a3,sp,648
 57c:	0300                	addi	s0,sp,384
 57e:	3a08                	fld	fa0,48(a2)
 580:	39053b0b          	0x39053b0b
 584:	0013490b          	0x13490b
 588:	3500                	fld	fs0,40(a0)
 58a:	0034                	addi	a3,sp,8
 58c:	0b3a0803          	lb	a6,179(s4)
 590:	0b39053b          	0xb39053b
 594:	1349                	addi	t1,t1,-14
 596:	0000                	unimp
 598:	0b36                	slli	s6,s6,0xd
 59a:	0101                	addi	sp,sp,0
 59c:	37000013          	li	zero,880
 5a0:	0034                	addi	a3,sp,8
 5a2:	0b3a0e03          	lb	t3,179(s4)
 5a6:	0b39053b          	0xb39053b
 5aa:	1349                	addi	t1,t1,-14
 5ac:	0000                	unimp
 5ae:	0b38                	addi	a4,sp,408
 5b0:	0001                	nop
	...

Disassembly of section .debug_line:

00000000 <.debug_line>:
       0:	0922                	slli	s2,s2,0x8
       2:	0000                	unimp
       4:	021e0003          	lb	zero,33(t3) # 74021 <_start-0x7ff8bfdf>
       8:	0000                	unimp
       a:	0101                	addi	sp,sp,0
       c:	000d0efb          	0xd0efb
      10:	0101                	addi	sp,sp,0
      12:	0101                	addi	sp,sp,0
      14:	0000                	unimp
      16:	0100                	addi	s0,sp,128
      18:	0000                	unimp
      1a:	2e01                	jal	32a <_start-0x7ffffcd6>
      1c:	2f2e                	fld	ft10,200(sp)
      1e:	2e2e                	fld	ft8,200(sp)
      20:	2f2e2e2f          	0x2f2e2e2f
      24:	2e2e                	fld	ft8,200(sp)
      26:	7369722f          	0x7369722f
      2a:	672d7663          	bgeu	s10,s2,696 <_start-0x7ffff96a>
      2e:	6c2f6363          	bltu	t5,sp,6f4 <_start-0x7ffff90c>
      32:	6269                	lui	tp,0x1a
      34:	00636367          	0x636367
      38:	6d6f682f          	0x6d6f682f
      3c:	2f65                	jal	7f4 <_start-0x7ffff80c>
      3e:	6c62                	flw	fs8,24(sp)
      40:	6961                	lui	s2,0x18
      42:	642f6573          	csrrsi	a0,0x642,30
      46:	7665                	lui	a2,0xffff9
      48:	7369722f          	0x7369722f
      4c:	672d7663          	bgeu	s10,s2,6b8 <_start-0x7ffff948>
      50:	756e                	flw	fa0,248(sp)
      52:	742d                	lui	s0,0xfffeb
      54:	636c6f6f          	jal	t5,c668a <_start-0x7ff39976>
      58:	6168                	flw	fa0,68(a0)
      5a:	6e69                	lui	t3,0x1a
      5c:	2f32                	fld	ft10,264(sp)
      5e:	7562                	flw	fa0,56(sp)
      60:	6c69                	lui	s8,0x1a
      62:	2f64                	fld	fs1,216(a4)
      64:	7562                	flw	fa0,56(sp)
      66:	6c69                	lui	s8,0x1a
      68:	2d64                	fld	fs1,216(a0)
      6a:	2d636367          	0x2d636367
      6e:	656e                	flw	fa0,216(sp)
      70:	62696c77          	0x62696c77
      74:	732d                	lui	t1,0xfffeb
      76:	6174                	flw	fa3,68(a0)
      78:	2f326567          	0x2f326567
      7c:	2f636367          	0x2f636367
      80:	6e69                	lui	t3,0x1a
      82:	64756c63          	bltu	a0,t2,6da <_start-0x7ffff926>
      86:	0065                	c.nop	25
      88:	6d6f682f          	0x6d6f682f
      8c:	2f65                	jal	844 <_start-0x7ffff7bc>
      8e:	6c62                	flw	fs8,24(sp)
      90:	6961                	lui	s2,0x18
      92:	642f6573          	csrrsi	a0,0x642,30
      96:	7665                	lui	a2,0xffff9
      98:	7369722f          	0x7369722f
      9c:	672d7663          	bgeu	s10,s2,708 <_start-0x7ffff8f8>
      a0:	756e                	flw	fa0,248(sp)
      a2:	742d                	lui	s0,0xfffeb
      a4:	636c6f6f          	jal	t5,c66da <_start-0x7ff39926>
      a8:	6168                	flw	fa0,68(a0)
      aa:	6e69                	lui	t3,0x1a
      ac:	2f32                	fld	ft10,264(sp)
      ae:	7264                	flw	fs1,100(a2)
      b0:	2f73706f          	j	37ba6 <_start-0x7ffc845a>
      b4:	6972                	flw	fs2,28(sp)
      b6:	33766373          	csrrsi	t1,mhpmevent23,12
      ba:	2d32                	fld	fs10,264(sp)
      bc:	6e75                	lui	t3,0x1d
      be:	776f6e6b          	0x776f6e6b
      c2:	2d6e                	fld	fs10,216(sp)
      c4:	6c65                	lui	s8,0x19
      c6:	2f66                	fld	ft10,88(sp)
      c8:	6e69                	lui	t3,0x1a
      ca:	64756c63          	bltu	a0,t2,722 <_start-0x7ffff8de>
      ce:	2f65                	jal	886 <_start-0x7ffff77a>
      d0:	00737973          	csrrci	s2,0x7,6
      d4:	6d6f682f          	0x6d6f682f
      d8:	2f65                	jal	890 <_start-0x7ffff770>
      da:	6c62                	flw	fs8,24(sp)
      dc:	6961                	lui	s2,0x18
      de:	642f6573          	csrrsi	a0,0x642,30
      e2:	7665                	lui	a2,0xffff9
      e4:	7369722f          	0x7369722f
      e8:	672d7663          	bgeu	s10,s2,754 <_start-0x7ffff8ac>
      ec:	756e                	flw	fa0,248(sp)
      ee:	742d                	lui	s0,0xfffeb
      f0:	636c6f6f          	jal	t5,c6726 <_start-0x7ff398da>
      f4:	6168                	flw	fa0,68(a0)
      f6:	6e69                	lui	t3,0x1a
      f8:	2f32                	fld	ft10,264(sp)
      fa:	7264                	flw	fs1,100(a2)
      fc:	2f73706f          	j	37bf2 <_start-0x7ffc840e>
     100:	6972                	flw	fs2,28(sp)
     102:	33766373          	csrrsi	t1,mhpmevent23,12
     106:	2d32                	fld	fs10,264(sp)
     108:	6e75                	lui	t3,0x1d
     10a:	776f6e6b          	0x776f6e6b
     10e:	2d6e                	fld	fs10,216(sp)
     110:	6c65                	lui	s8,0x19
     112:	2f66                	fld	ft10,88(sp)
     114:	6e69                	lui	t3,0x1a
     116:	64756c63          	bltu	a0,t2,76e <_start-0x7ffff892>
     11a:	0065                	c.nop	25
     11c:	2e2e                	fld	ft8,200(sp)
     11e:	2f2e2e2f          	0x2f2e2e2f
     122:	2e2e                	fld	ft8,200(sp)
     124:	2f2e2e2f          	0x2f2e2e2f
     128:	6972                	flw	fs2,28(sp)
     12a:	2d766373          	csrrsi	t1,0x2d7,12
     12e:	2f636367          	0x2f636367
     132:	696c                	flw	fa1,84(a0)
     134:	6762                	flw	fa4,24(sp)
     136:	2e2f6363          	bltu	t5,sp,41c <_start-0x7ffffbe4>
     13a:	2f2e                	fld	ft10,200(sp)
     13c:	6e69                	lui	t3,0x1a
     13e:	64756c63          	bltu	a0,t2,796 <_start-0x7ffff86a>
     142:	0065                	c.nop	25
     144:	2e2e                	fld	ft8,200(sp)
     146:	2f2e2e2f          	0x2f2e2e2f
     14a:	2e2e                	fld	ft8,200(sp)
     14c:	2f2e2e2f          	0x2f2e2e2f
     150:	6972                	flw	fs2,28(sp)
     152:	2d766373          	csrrsi	t1,0x2d7,12
     156:	2f636367          	0x2f636367
     15a:	696c                	flw	fa1,84(a0)
     15c:	6762                	flw	fa4,24(sp)
     15e:	2e2f6363          	bltu	t5,sp,444 <_start-0x7ffffbbc>
     162:	2f2e                	fld	ft10,200(sp)
     164:	2f636367          	0x2f636367
     168:	666e6f63          	bltu	t3,t1,7e6 <_start-0x7ffff81a>
     16c:	6769                	lui	a4,0x1a
     16e:	7369722f          	0x7369722f
     172:	2e007663          	bgeu	zero,zero,45e <_start-0x7ffffba2>
     176:	2f2e                	fld	ft10,200(sp)
     178:	2e2e                	fld	ft8,200(sp)
     17a:	672f2e2f          	amoand.w.aqrl	t3,s2,(t5)
     17e:	00006363          	bltu	zero,zero,184 <_start-0x7ffffe7c>
     182:	696c                	flw	fa1,84(a0)
     184:	6762                	flw	fa4,24(sp)
     186:	2e326363          	bltu	tp,gp,46c <_start-0x7ffffb94>
     18a:	00010063          	beqz	sp,18a <_start-0x7ffffe76>
     18e:	7300                	flw	fs0,32(a4)
     190:	6474                	flw	fa3,76(s0)
     192:	6564                	flw	fs1,76(a0)
     194:	2e66                	fld	ft8,88(sp)
     196:	0068                	addi	a0,sp,12
     198:	0002                	c.slli64	zero
     19a:	5f00                	lw	s0,56(a4)
     19c:	7974                	flw	fa3,116(a0)
     19e:	6570                	flw	fa2,76(a0)
     1a0:	00682e73          	csrrs	t3,0x6,a6
     1a4:	72000003          	lb	zero,1824(zero) # 720 <_start-0x7ffff8e0>
     1a8:	6565                	lui	a0,0x19
     1aa:	746e                	flw	fs0,248(sp)
     1ac:	682e                	flw	fa6,200(sp)
     1ae:	0300                	addi	s0,sp,384
     1b0:	0000                	unimp
     1b2:	6f6c                	flw	fa1,92(a4)
     1b4:	682e6b63          	bltu	t3,sp,84a <_start-0x7ffff7b6>
     1b8:	0300                	addi	s0,sp,384
     1ba:	0000                	unimp
     1bc:	7265                	lui	tp,0xffff9
     1be:	6e72                	flw	ft8,28(sp)
     1c0:	00682e6f          	jal	t3,821c6 <_start-0x7ff7de3a>
     1c4:	73000003          	lb	zero,1840(zero) # 730 <_start-0x7ffff8d0>
     1c8:	6474                	flw	fa3,76(s0)
     1ca:	696c                	flw	fa1,84(a0)
     1cc:	2e62                	fld	ft8,24(sp)
     1ce:	0068                	addi	a0,sp,12
     1d0:	0004                	0x4
     1d2:	7500                	flw	fs0,40(a0)
     1d4:	696e                	flw	fs2,216(sp)
     1d6:	2e647473          	csrrci	s0,0x2e6,8
     1da:	0068                	addi	a0,sp,12
     1dc:	74000003          	lb	zero,1856(zero) # 740 <_start-0x7ffff8c0>
     1e0:	6d69                	lui	s10,0x1a
     1e2:	2e65                	jal	59a <_start-0x7ffffa66>
     1e4:	0068                	addi	a0,sp,12
     1e6:	0004                	0x4
     1e8:	6800                	flw	fs0,16(s0)
     1ea:	7361                	lui	t1,0xffff8
     1ec:	7468                	flw	fa0,108(s0)
     1ee:	6261                	lui	tp,0x18
     1f0:	682e                	flw	fa6,200(sp)
     1f2:	0500                	addi	s0,sp,640
     1f4:	0000                	unimp
     1f6:	6972                	flw	fs2,28(sp)
     1f8:	2d766373          	csrrsi	t1,0x2d7,12
     1fc:	7374706f          	j	48132 <_start-0x7ffb7ece>
     200:	682e                	flw	fa6,200(sp)
     202:	0600                	addi	s0,sp,768
     204:	0000                	unimp
     206:	6e69                	lui	t3,0x1a
     208:	632d6e73          	csrrsi	t3,0x632,26
     20c:	74736e6f          	jal	t3,37152 <_start-0x7ffc8eae>
     210:	6e61                	lui	t3,0x18
     212:	7374                	flw	fa3,100(a4)
     214:	682e                	flw	fa6,200(sp)
     216:	0700                	addi	s0,sp,896
     218:	0000                	unimp
     21a:	696c                	flw	fa1,84(a0)
     21c:	6762                	flw	fa4,24(sp)
     21e:	2e326363          	bltu	tp,gp,504 <_start-0x7ffffafc>
     222:	0068                	addi	a0,sp,12
     224:	0001                	nop
     226:	0000                	unimp
     228:	0105                	addi	sp,sp,1
     22a:	0500                	addi	s0,sp,640
     22c:	0002                	c.slli64	zero
     22e:	0000                	unimp
     230:	0300                	addi	s0,sp,384
     232:	0aa6                	slli	s5,s5,0x9
     234:	0501                	addi	a0,a0,0
     236:	09010303          	lb	t1,144(sp)
     23a:	0000                	unimp
     23c:	0501                	addi	a0,a0,0
     23e:	0601                	addi	a2,a2,0
     240:	00097f03          	0x97f03
     244:	0100                	addi	s0,sp,128
     246:	0305                	addi	t1,t1,1
     248:	0306                	slli	t1,t1,0x1
     24a:	7dd2                	flw	fs11,52(sp)
     24c:	0009                	c.nop	2
     24e:	0100                	addi	s0,sp,128
     250:	00090103          	lb	sp,0(s2) # 18000 <_start-0x7ffe8000>
     254:	0100                	addi	s0,sp,128
     256:	00090103          	lb	sp,0(s2)
     25a:	0100                	addi	s0,sp,128
     25c:	00090103          	lb	sp,0(s2)
     260:	0100                	addi	s0,sp,128
     262:	00090103          	lb	sp,0(s2)
     266:	0100                	addi	s0,sp,128
     268:	00090103          	lb	sp,0(s2)
     26c:	0100                	addi	s0,sp,128
     26e:	00090203          	lb	tp,0(s2)
     272:	0100                	addi	s0,sp,128
     274:	0105                	addi	sp,sp,1
     276:	0306                	slli	t1,t1,0x1
     278:	000902a7          	0x902a7
     27c:	0100                	addi	s0,sp,128
     27e:	0605                	addi	a2,a2,1
     280:	097dd903          	lhu	s2,151(s11)
     284:	0000                	unimp
     286:	0501                	addi	a0,a0,0
     288:	01030603          	lb	a2,16(t1) # ffff8010 <__global_pointer$+0x7fff5cf8>
     28c:	0009                	c.nop	2
     28e:	0100                	addi	s0,sp,128
     290:	0605                	addi	a2,a2,1
     292:	0306                	slli	t1,t1,0x1
     294:	0900                	addi	s0,sp,144
     296:	0000                	unimp
     298:	0501                	addi	a0,a0,0
     29a:	01030603          	lb	a2,16(t1)
     29e:	0009                	c.nop	2
     2a0:	0100                	addi	s0,sp,128
     2a2:	0605                	addi	a2,a2,1
     2a4:	0306                	slli	t1,t1,0x1
     2a6:	0900                	addi	s0,sp,144
     2a8:	0000                	unimp
     2aa:	0501                	addi	a0,a0,0
     2ac:	01030603          	lb	a2,16(t1)
     2b0:	0009                	c.nop	2
     2b2:	0100                	addi	s0,sp,128
     2b4:	00092503          	lw	a0,0(s2)
     2b8:	0100                	addi	s0,sp,128
     2ba:	0605                	addi	a2,a2,1
     2bc:	0306                	slli	t1,t1,0x1
     2be:	0900                	addi	s0,sp,144
     2c0:	0000                	unimp
     2c2:	0501                	addi	a0,a0,0
     2c4:	02030607          	0x2030607
     2c8:	0009                	c.nop	2
     2ca:	0100                	addi	s0,sp,128
     2cc:	0a05                	addi	s4,s4,1
     2ce:	0306                	slli	t1,t1,0x1
     2d0:	0900                	addi	s0,sp,144
     2d2:	0000                	unimp
     2d4:	0501                	addi	a0,a0,0
     2d6:	0604                	addi	s1,sp,768
     2d8:	00090403          	lb	s0,0(s2)
     2dc:	0100                	addi	s0,sp,128
     2de:	00090003          	lb	zero,0(s2)
     2e2:	0100                	addi	s0,sp,128
     2e4:	00090003          	lb	zero,0(s2)
     2e8:	0100                	addi	s0,sp,128
     2ea:	00090003          	lb	zero,0(s2)
     2ee:	0100                	addi	s0,sp,128
     2f0:	00090003          	lb	zero,0(s2)
     2f4:	0100                	addi	s0,sp,128
     2f6:	00090003          	lb	zero,0(s2)
     2fa:	0100                	addi	s0,sp,128
     2fc:	00090003          	lb	zero,0(s2)
     300:	0100                	addi	s0,sp,128
     302:	00090203          	lb	tp,0(s2)
     306:	0100                	addi	s0,sp,128
     308:	0705                	addi	a4,a4,1
     30a:	0306                	slli	t1,t1,0x1
     30c:	0900                	addi	s0,sp,144
     30e:	0000                	unimp
     310:	0501                	addi	a0,a0,0
     312:	0608                	addi	a0,sp,768
     314:	00090503          	lb	a0,0(s2)
     318:	0100                	addi	s0,sp,128
     31a:	1105                	addi	sp,sp,-31
     31c:	0306                	slli	t1,t1,0x1
     31e:	0901                	addi	s2,s2,0
     320:	0000                	unimp
     322:	0501                	addi	a0,a0,0
     324:	031e                	slli	t1,t1,0x7
     326:	0900                	addi	s0,sp,144
     328:	0000                	unimp
     32a:	0501                	addi	a0,a0,0
     32c:	097f030b          	0x97f030b
     330:	0000                	unimp
     332:	0501                	addi	a0,a0,0
     334:	0608                	addi	a0,sp,768
     336:	00090103          	lb	sp,0(s2)
     33a:	0100                	addi	s0,sp,128
     33c:	0b05                	addi	s6,s6,1
     33e:	0306                	slli	t1,t1,0x1
     340:	0900                	addi	s0,sp,144
     342:	0000                	unimp
     344:	0501                	addi	a0,a0,0
     346:	0608                	addi	a0,sp,768
     348:	00090103          	lb	sp,0(s2)
     34c:	0100                	addi	s0,sp,128
     34e:	0b05                	addi	s6,s6,1
     350:	0306                	slli	t1,t1,0x1
     352:	0900                	addi	s0,sp,144
     354:	0000                	unimp
     356:	0501                	addi	a0,a0,0
     358:	0604                	addi	s1,sp,768
     35a:	00090303          	lb	t1,0(s2)
     35e:	0100                	addi	s0,sp,128
     360:	00090003          	lb	zero,0(s2)
     364:	0100                	addi	s0,sp,128
     366:	00090003          	lb	zero,0(s2)
     36a:	0100                	addi	s0,sp,128
     36c:	00090003          	lb	zero,0(s2)
     370:	0100                	addi	s0,sp,128
     372:	00090003          	lb	zero,0(s2)
     376:	0100                	addi	s0,sp,128
     378:	00090003          	lb	zero,0(s2)
     37c:	0100                	addi	s0,sp,128
     37e:	00090003          	lb	zero,0(s2)
     382:	0100                	addi	s0,sp,128
     384:	00090003          	lb	zero,0(s2)
     388:	0100                	addi	s0,sp,128
     38a:	00090003          	lb	zero,0(s2)
     38e:	0100                	addi	s0,sp,128
     390:	00090003          	lb	zero,0(s2)
     394:	0100                	addi	s0,sp,128
     396:	00090003          	lb	zero,0(s2)
     39a:	0100                	addi	s0,sp,128
     39c:	00090003          	lb	zero,0(s2)
     3a0:	0100                	addi	s0,sp,128
     3a2:	00090003          	lb	zero,0(s2)
     3a6:	0100                	addi	s0,sp,128
     3a8:	00090003          	lb	zero,0(s2)
     3ac:	0100                	addi	s0,sp,128
     3ae:	00090003          	lb	zero,0(s2)
     3b2:	0100                	addi	s0,sp,128
     3b4:	00090003          	lb	zero,0(s2)
     3b8:	0100                	addi	s0,sp,128
     3ba:	00090003          	lb	zero,0(s2)
     3be:	0100                	addi	s0,sp,128
     3c0:	00090003          	lb	zero,0(s2)
     3c4:	0100                	addi	s0,sp,128
     3c6:	00090003          	lb	zero,0(s2)
     3ca:	0100                	addi	s0,sp,128
     3cc:	00090003          	lb	zero,0(s2)
     3d0:	0100                	addi	s0,sp,128
     3d2:	00090003          	lb	zero,0(s2)
     3d6:	0100                	addi	s0,sp,128
     3d8:	00090003          	lb	zero,0(s2)
     3dc:	0100                	addi	s0,sp,128
     3de:	00090003          	lb	zero,0(s2)
     3e2:	0100                	addi	s0,sp,128
     3e4:	00090003          	lb	zero,0(s2)
     3e8:	0100                	addi	s0,sp,128
     3ea:	00090003          	lb	zero,0(s2)
     3ee:	0100                	addi	s0,sp,128
     3f0:	00090003          	lb	zero,0(s2)
     3f4:	0100                	addi	s0,sp,128
     3f6:	00090003          	lb	zero,0(s2)
     3fa:	0100                	addi	s0,sp,128
     3fc:	00090003          	lb	zero,0(s2)
     400:	0100                	addi	s0,sp,128
     402:	00090103          	lb	sp,0(s2)
     406:	0100                	addi	s0,sp,128
     408:	0b05                	addi	s6,s6,1
     40a:	0306                	slli	t1,t1,0x1
     40c:	00fe                	slli	ra,ra,0x1f
     40e:	0009                	c.nop	2
     410:	0100                	addi	s0,sp,128
     412:	0405                	addi	s0,s0,1
     414:	097ef503          	0x97ef503
     418:	0000                	unimp
     41a:	0601                	addi	a2,a2,0
     41c:	00091503          	lh	a0,0(s2)
     420:	0100                	addi	s0,sp,128
     422:	0705                	addi	a4,a4,1
     424:	0306                	slli	t1,t1,0x1
     426:	0900                	addi	s0,sp,144
     428:	0000                	unimp
     42a:	0501                	addi	a0,a0,0
     42c:	0606                	slli	a2,a2,0x1
     42e:	00090103          	lb	sp,0(s2)
     432:	0100                	addi	s0,sp,128
     434:	0905                	addi	s2,s2,1
     436:	0306                	slli	t1,t1,0x1
     438:	0900                	addi	s0,sp,144
     43a:	0000                	unimp
     43c:	0501                	addi	a0,a0,0
     43e:	0604                	addi	s1,sp,768
     440:	00090203          	lb	tp,0(s2)
     444:	0100                	addi	s0,sp,128
     446:	00090003          	lb	zero,0(s2)
     44a:	0100                	addi	s0,sp,128
     44c:	00090003          	lb	zero,0(s2)
     450:	0100                	addi	s0,sp,128
     452:	00090003          	lb	zero,0(s2)
     456:	0100                	addi	s0,sp,128
     458:	00090003          	lb	zero,0(s2)
     45c:	0100                	addi	s0,sp,128
     45e:	00090003          	lb	zero,0(s2)
     462:	0100                	addi	s0,sp,128
     464:	00090003          	lb	zero,0(s2)
     468:	0100                	addi	s0,sp,128
     46a:	00090203          	lb	tp,0(s2)
     46e:	0100                	addi	s0,sp,128
     470:	0705                	addi	a4,a4,1
     472:	0306                	slli	t1,t1,0x1
     474:	0900                	addi	s0,sp,144
     476:	0000                	unimp
     478:	0501                	addi	a0,a0,0
     47a:	0608                	addi	a0,sp,768
     47c:	00090903          	lb	s2,0(s2)
     480:	0100                	addi	s0,sp,128
     482:	0b05                	addi	s6,s6,1
     484:	0306                	slli	t1,t1,0x1
     486:	0900                	addi	s0,sp,144
     488:	0000                	unimp
     48a:	0501                	addi	a0,a0,0
     48c:	0608                	addi	a0,sp,768
     48e:	00090103          	lb	sp,0(s2)
     492:	0100                	addi	s0,sp,128
     494:	0b05                	addi	s6,s6,1
     496:	0306                	slli	t1,t1,0x1
     498:	0900                	addi	s0,sp,144
     49a:	0000                	unimp
     49c:	0501                	addi	a0,a0,0
     49e:	0608                	addi	a0,sp,768
     4a0:	00090d03          	lb	s10,0(s2)
     4a4:	0100                	addi	s0,sp,128
     4a6:	0405                	addi	s0,s0,1
     4a8:	00090503          	lb	a0,0(s2)
     4ac:	0100                	addi	s0,sp,128
     4ae:	00090003          	lb	zero,0(s2)
     4b2:	0100                	addi	s0,sp,128
     4b4:	00090003          	lb	zero,0(s2)
     4b8:	0100                	addi	s0,sp,128
     4ba:	00090003          	lb	zero,0(s2)
     4be:	0100                	addi	s0,sp,128
     4c0:	00090003          	lb	zero,0(s2)
     4c4:	0100                	addi	s0,sp,128
     4c6:	00090003          	lb	zero,0(s2)
     4ca:	0100                	addi	s0,sp,128
     4cc:	00090003          	lb	zero,0(s2)
     4d0:	0100                	addi	s0,sp,128
     4d2:	00090003          	lb	zero,0(s2)
     4d6:	0100                	addi	s0,sp,128
     4d8:	00090003          	lb	zero,0(s2)
     4dc:	0100                	addi	s0,sp,128
     4de:	00090003          	lb	zero,0(s2)
     4e2:	0100                	addi	s0,sp,128
     4e4:	00090003          	lb	zero,0(s2)
     4e8:	0100                	addi	s0,sp,128
     4ea:	00090003          	lb	zero,0(s2)
     4ee:	0100                	addi	s0,sp,128
     4f0:	00090003          	lb	zero,0(s2)
     4f4:	0100                	addi	s0,sp,128
     4f6:	00090003          	lb	zero,0(s2)
     4fa:	0100                	addi	s0,sp,128
     4fc:	00090003          	lb	zero,0(s2)
     500:	0100                	addi	s0,sp,128
     502:	00090003          	lb	zero,0(s2)
     506:	0100                	addi	s0,sp,128
     508:	00090003          	lb	zero,0(s2)
     50c:	0100                	addi	s0,sp,128
     50e:	00090003          	lb	zero,0(s2)
     512:	0100                	addi	s0,sp,128
     514:	00090003          	lb	zero,0(s2)
     518:	0100                	addi	s0,sp,128
     51a:	00090003          	lb	zero,0(s2)
     51e:	0100                	addi	s0,sp,128
     520:	00090003          	lb	zero,0(s2)
     524:	0100                	addi	s0,sp,128
     526:	00090003          	lb	zero,0(s2)
     52a:	0100                	addi	s0,sp,128
     52c:	00090003          	lb	zero,0(s2)
     530:	0100                	addi	s0,sp,128
     532:	00090003          	lb	zero,0(s2)
     536:	0100                	addi	s0,sp,128
     538:	00090003          	lb	zero,0(s2)
     53c:	0100                	addi	s0,sp,128
     53e:	00090003          	lb	zero,0(s2)
     542:	0100                	addi	s0,sp,128
     544:	00090003          	lb	zero,0(s2)
     548:	0100                	addi	s0,sp,128
     54a:	0305                	addi	t1,t1,1
     54c:	0900e303          	0x900e303
     550:	0000                	unimp
     552:	0301                	addi	t1,t1,0
     554:	0901                	addi	s2,s2,0
     556:	0000                	unimp
     558:	0501                	addi	a0,a0,0
     55a:	0601                	addi	a2,a2,0
     55c:	0900e103          	0x900e103
     560:	0000                	unimp
     562:	0501                	addi	a0,a0,0
     564:	0304                	addi	s1,sp,384
     566:	7e9d                	lui	t4,0xfffe7
     568:	0009                	c.nop	2
     56a:	0100                	addi	s0,sp,128
     56c:	0805                	addi	a6,a6,1
     56e:	0306                	slli	t1,t1,0x1
     570:	0912                	slli	s2,s2,0x4
     572:	0000                	unimp
     574:	0301                	addi	t1,t1,0
     576:	0902                	c.slli64	s2
     578:	0000                	unimp
     57a:	0501                	addi	a0,a0,0
     57c:	0003060b          	0x3060b
     580:	0009                	c.nop	2
     582:	0100                	addi	s0,sp,128
     584:	0805                	addi	a6,a6,1
     586:	0306                	slli	t1,t1,0x1
     588:	0901                	addi	s2,s2,0
     58a:	0000                	unimp
     58c:	0501                	addi	a0,a0,0
     58e:	0003060b          	0x3060b
     592:	0009                	c.nop	2
     594:	0100                	addi	s0,sp,128
     596:	0805                	addi	a6,a6,1
     598:	0306                	slli	t1,t1,0x1
     59a:	0901                	addi	s2,s2,0
     59c:	0000                	unimp
     59e:	0501                	addi	a0,a0,0
     5a0:	0103060b          	0x103060b
     5a4:	0009                	c.nop	2
     5a6:	0100                	addi	s0,sp,128
     5a8:	1105                	addi	sp,sp,-31
     5aa:	00097f03          	0x97f03
     5ae:	0100                	addi	s0,sp,128
     5b0:	1e05                	addi	t3,t3,-31
     5b2:	00090003          	lb	zero,0(s2)
     5b6:	0100                	addi	s0,sp,128
     5b8:	0805                	addi	a6,a6,1
     5ba:	00090303          	lb	t1,0(s2)
     5be:	0100                	addi	s0,sp,128
     5c0:	0b05                	addi	s6,s6,1
     5c2:	00097d03          	0x97d03
     5c6:	0100                	addi	s0,sp,128
     5c8:	0805                	addi	a6,a6,1
     5ca:	0306                	slli	t1,t1,0x1
     5cc:	0901                	addi	s2,s2,0
     5ce:	0000                	unimp
     5d0:	0301                	addi	t1,t1,0
     5d2:	0902                	c.slli64	s2
     5d4:	0000                	unimp
     5d6:	0301                	addi	t1,t1,0
     5d8:	0900                	addi	s0,sp,144
     5da:	0000                	unimp
     5dc:	0301                	addi	t1,t1,0
     5de:	0900                	addi	s0,sp,144
     5e0:	0000                	unimp
     5e2:	0301                	addi	t1,t1,0
     5e4:	0900                	addi	s0,sp,144
     5e6:	0000                	unimp
     5e8:	0301                	addi	t1,t1,0
     5ea:	0900                	addi	s0,sp,144
     5ec:	0000                	unimp
     5ee:	0301                	addi	t1,t1,0
     5f0:	0900                	addi	s0,sp,144
     5f2:	0000                	unimp
     5f4:	0301                	addi	t1,t1,0
     5f6:	0900                	addi	s0,sp,144
     5f8:	0000                	unimp
     5fa:	0301                	addi	t1,t1,0
     5fc:	0900                	addi	s0,sp,144
     5fe:	0000                	unimp
     600:	0301                	addi	t1,t1,0
     602:	0900                	addi	s0,sp,144
     604:	0000                	unimp
     606:	0301                	addi	t1,t1,0
     608:	0900                	addi	s0,sp,144
     60a:	0000                	unimp
     60c:	0301                	addi	t1,t1,0
     60e:	0900                	addi	s0,sp,144
     610:	0000                	unimp
     612:	0301                	addi	t1,t1,0
     614:	0900                	addi	s0,sp,144
     616:	0000                	unimp
     618:	0301                	addi	t1,t1,0
     61a:	0900                	addi	s0,sp,144
     61c:	0000                	unimp
     61e:	0301                	addi	t1,t1,0
     620:	0900                	addi	s0,sp,144
     622:	0000                	unimp
     624:	0301                	addi	t1,t1,0
     626:	0900                	addi	s0,sp,144
     628:	0000                	unimp
     62a:	0301                	addi	t1,t1,0
     62c:	0900                	addi	s0,sp,144
     62e:	0000                	unimp
     630:	0301                	addi	t1,t1,0
     632:	0900                	addi	s0,sp,144
     634:	0000                	unimp
     636:	0301                	addi	t1,t1,0
     638:	0900                	addi	s0,sp,144
     63a:	0000                	unimp
     63c:	0301                	addi	t1,t1,0
     63e:	0900                	addi	s0,sp,144
     640:	0000                	unimp
     642:	0301                	addi	t1,t1,0
     644:	0900                	addi	s0,sp,144
     646:	0000                	unimp
     648:	0301                	addi	t1,t1,0
     64a:	0900                	addi	s0,sp,144
     64c:	0000                	unimp
     64e:	0301                	addi	t1,t1,0
     650:	0900                	addi	s0,sp,144
     652:	0000                	unimp
     654:	0301                	addi	t1,t1,0
     656:	0900                	addi	s0,sp,144
     658:	0000                	unimp
     65a:	0301                	addi	t1,t1,0
     65c:	0900                	addi	s0,sp,144
     65e:	0000                	unimp
     660:	0301                	addi	t1,t1,0
     662:	0900                	addi	s0,sp,144
     664:	0000                	unimp
     666:	0301                	addi	t1,t1,0
     668:	0900                	addi	s0,sp,144
     66a:	0000                	unimp
     66c:	0301                	addi	t1,t1,0
     66e:	0900                	addi	s0,sp,144
     670:	0000                	unimp
     672:	0501                	addi	a0,a0,0
     674:	09150307          	0x9150307
     678:	0000                	unimp
     67a:	0501                	addi	a0,a0,0
     67c:	060a                	slli	a2,a2,0x2
     67e:	00090003          	lb	zero,0(s2)
     682:	0100                	addi	s0,sp,128
     684:	0405                	addi	s0,s0,1
     686:	0306                	slli	t1,t1,0x1
     688:	00000913          	li	s2,0
     68c:	0301                	addi	t1,t1,0
     68e:	0900                	addi	s0,sp,144
     690:	0000                	unimp
     692:	0301                	addi	t1,t1,0
     694:	0900                	addi	s0,sp,144
     696:	0000                	unimp
     698:	0301                	addi	t1,t1,0
     69a:	0900                	addi	s0,sp,144
     69c:	0000                	unimp
     69e:	0301                	addi	t1,t1,0
     6a0:	0900                	addi	s0,sp,144
     6a2:	0000                	unimp
     6a4:	0301                	addi	t1,t1,0
     6a6:	0900                	addi	s0,sp,144
     6a8:	0000                	unimp
     6aa:	0301                	addi	t1,t1,0
     6ac:	0900                	addi	s0,sp,144
     6ae:	0000                	unimp
     6b0:	0301                	addi	t1,t1,0
     6b2:	0901                	addi	s2,s2,0
     6b4:	0000                	unimp
     6b6:	0501                	addi	a0,a0,0
     6b8:	00030607          	0x30607
     6bc:	0009                	c.nop	2
     6be:	0100                	addi	s0,sp,128
     6c0:	0805                	addi	a6,a6,1
     6c2:	0306                	slli	t1,t1,0x1
     6c4:	090a                	slli	s2,s2,0x2
     6c6:	0000                	unimp
     6c8:	0601                	addi	a2,a2,0
     6ca:	00090203          	lb	tp,0(s2)
     6ce:	0100                	addi	s0,sp,128
     6d0:	0b05                	addi	s6,s6,1
     6d2:	00097e03          	0x97e03
     6d6:	0100                	addi	s0,sp,128
     6d8:	1405                	addi	s0,s0,-31
     6da:	00090003          	lb	zero,0(s2)
     6de:	0100                	addi	s0,sp,128
     6e0:	0405                	addi	s0,s0,1
     6e2:	00097503          	0x97503
     6e6:	0100                	addi	s0,sp,128
     6e8:	0805                	addi	a6,a6,1
     6ea:	0306                	slli	t1,t1,0x1
     6ec:	091e                	slli	s2,s2,0x7
     6ee:	0000                	unimp
     6f0:	0301                	addi	t1,t1,0
     6f2:	00000903          	lb	s2,0(zero) # 0 <_start-0x80000000>
     6f6:	0301                	addi	t1,t1,0
     6f8:	0902                	c.slli64	s2
     6fa:	0000                	unimp
     6fc:	0501                	addi	a0,a0,0
     6fe:	061e                	slli	a2,a2,0x7
     700:	00090003          	lb	zero,0(s2)
     704:	0100                	addi	s0,sp,128
     706:	1105                	addi	sp,sp,-31
     708:	00090003          	lb	zero,0(s2)
     70c:	0100                	addi	s0,sp,128
     70e:	0b05                	addi	s6,s6,1
     710:	00090003          	lb	zero,0(s2)
     714:	0100                	addi	s0,sp,128
     716:	0805                	addi	a6,a6,1
     718:	0306                	slli	t1,t1,0x1
     71a:	0901                	addi	s2,s2,0
     71c:	0000                	unimp
     71e:	0601                	addi	a2,a2,0
     720:	00090503          	lb	a0,0(s2)
     724:	0100                	addi	s0,sp,128
     726:	0b05                	addi	s6,s6,1
     728:	00097b03          	0x97b03
     72c:	0100                	addi	s0,sp,128
     72e:	0805                	addi	a6,a6,1
     730:	0306                	slli	t1,t1,0x1
     732:	0901                	addi	s2,s2,0
     734:	0000                	unimp
     736:	0501                	addi	a0,a0,0
     738:	0003060b          	0x3060b
     73c:	0009                	c.nop	2
     73e:	0100                	addi	s0,sp,128
     740:	0805                	addi	a6,a6,1
     742:	0306                	slli	t1,t1,0x1
     744:	0901                	addi	s2,s2,0
     746:	0000                	unimp
     748:	0601                	addi	a2,a2,0
     74a:	00090303          	lb	t1,0(s2)
     74e:	0100                	addi	s0,sp,128
     750:	1105                	addi	sp,sp,-31
     752:	00097d03          	0x97d03
     756:	0100                	addi	s0,sp,128
     758:	1e05                	addi	t3,t3,-31
     75a:	00090003          	lb	zero,0(s2)
     75e:	0100                	addi	s0,sp,128
     760:	0b05                	addi	s6,s6,1
     762:	00090003          	lb	zero,0(s2)
     766:	0100                	addi	s0,sp,128
     768:	0805                	addi	a6,a6,1
     76a:	0306                	slli	t1,t1,0x1
     76c:	0901                	addi	s2,s2,0
     76e:	0000                	unimp
     770:	0301                	addi	t1,t1,0
     772:	0902                	c.slli64	s2
     774:	0000                	unimp
     776:	0301                	addi	t1,t1,0
     778:	0900                	addi	s0,sp,144
     77a:	0000                	unimp
     77c:	0301                	addi	t1,t1,0
     77e:	0900                	addi	s0,sp,144
     780:	0000                	unimp
     782:	0301                	addi	t1,t1,0
     784:	0900                	addi	s0,sp,144
     786:	0000                	unimp
     788:	0301                	addi	t1,t1,0
     78a:	0900                	addi	s0,sp,144
     78c:	0000                	unimp
     78e:	0301                	addi	t1,t1,0
     790:	0900                	addi	s0,sp,144
     792:	0000                	unimp
     794:	0301                	addi	t1,t1,0
     796:	0900                	addi	s0,sp,144
     798:	0000                	unimp
     79a:	0301                	addi	t1,t1,0
     79c:	0900                	addi	s0,sp,144
     79e:	0000                	unimp
     7a0:	0301                	addi	t1,t1,0
     7a2:	0900                	addi	s0,sp,144
     7a4:	0000                	unimp
     7a6:	0301                	addi	t1,t1,0
     7a8:	0900                	addi	s0,sp,144
     7aa:	0000                	unimp
     7ac:	0301                	addi	t1,t1,0
     7ae:	0900                	addi	s0,sp,144
     7b0:	0000                	unimp
     7b2:	0301                	addi	t1,t1,0
     7b4:	0900                	addi	s0,sp,144
     7b6:	0000                	unimp
     7b8:	0301                	addi	t1,t1,0
     7ba:	0900                	addi	s0,sp,144
     7bc:	0000                	unimp
     7be:	0301                	addi	t1,t1,0
     7c0:	0900                	addi	s0,sp,144
     7c2:	0000                	unimp
     7c4:	0301                	addi	t1,t1,0
     7c6:	0900                	addi	s0,sp,144
     7c8:	0000                	unimp
     7ca:	0301                	addi	t1,t1,0
     7cc:	0900                	addi	s0,sp,144
     7ce:	0000                	unimp
     7d0:	0301                	addi	t1,t1,0
     7d2:	0900                	addi	s0,sp,144
     7d4:	0000                	unimp
     7d6:	0301                	addi	t1,t1,0
     7d8:	0900                	addi	s0,sp,144
     7da:	0000                	unimp
     7dc:	0301                	addi	t1,t1,0
     7de:	0900                	addi	s0,sp,144
     7e0:	0000                	unimp
     7e2:	0301                	addi	t1,t1,0
     7e4:	0900                	addi	s0,sp,144
     7e6:	0000                	unimp
     7e8:	0301                	addi	t1,t1,0
     7ea:	0900                	addi	s0,sp,144
     7ec:	0000                	unimp
     7ee:	0301                	addi	t1,t1,0
     7f0:	0900                	addi	s0,sp,144
     7f2:	0000                	unimp
     7f4:	0301                	addi	t1,t1,0
     7f6:	0900                	addi	s0,sp,144
     7f8:	0000                	unimp
     7fa:	0301                	addi	t1,t1,0
     7fc:	0900                	addi	s0,sp,144
     7fe:	0000                	unimp
     800:	0301                	addi	t1,t1,0
     802:	0900                	addi	s0,sp,144
     804:	0000                	unimp
     806:	0601                	addi	a2,a2,0
     808:	00090103          	lb	sp,0(s2)
     80c:	0100                	addi	s0,sp,128
     80e:	00097f03          	0x97f03
     812:	0100                	addi	s0,sp,128
     814:	00090103          	lb	sp,0(s2)
     818:	0100                	addi	s0,sp,128
     81a:	00097f03          	0x97f03
     81e:	0100                	addi	s0,sp,128
     820:	0306                	slli	t1,t1,0x1
     822:	0900                	addi	s0,sp,144
     824:	0000                	unimp
     826:	0301                	addi	t1,t1,0
     828:	0900                	addi	s0,sp,144
     82a:	0000                	unimp
     82c:	0301                	addi	t1,t1,0
     82e:	0900                	addi	s0,sp,144
     830:	0000                	unimp
     832:	0301                	addi	t1,t1,0
     834:	0901                	addi	s2,s2,0
     836:	0000                	unimp
     838:	0301                	addi	t1,t1,0
     83a:	0900                	addi	s0,sp,144
     83c:	0000                	unimp
     83e:	0301                	addi	t1,t1,0
     840:	0900                	addi	s0,sp,144
     842:	0000                	unimp
     844:	0301                	addi	t1,t1,0
     846:	0900                	addi	s0,sp,144
     848:	0000                	unimp
     84a:	0301                	addi	t1,t1,0
     84c:	0900                	addi	s0,sp,144
     84e:	0000                	unimp
     850:	0301                	addi	t1,t1,0
     852:	0900                	addi	s0,sp,144
     854:	0000                	unimp
     856:	0301                	addi	t1,t1,0
     858:	0900                	addi	s0,sp,144
     85a:	0000                	unimp
     85c:	0301                	addi	t1,t1,0
     85e:	0900                	addi	s0,sp,144
     860:	0000                	unimp
     862:	0301                	addi	t1,t1,0
     864:	0900                	addi	s0,sp,144
     866:	0000                	unimp
     868:	0301                	addi	t1,t1,0
     86a:	0900                	addi	s0,sp,144
     86c:	0000                	unimp
     86e:	0301                	addi	t1,t1,0
     870:	0900                	addi	s0,sp,144
     872:	0000                	unimp
     874:	0301                	addi	t1,t1,0
     876:	0900                	addi	s0,sp,144
     878:	0000                	unimp
     87a:	0301                	addi	t1,t1,0
     87c:	0900                	addi	s0,sp,144
     87e:	0000                	unimp
     880:	0301                	addi	t1,t1,0
     882:	0900                	addi	s0,sp,144
     884:	0000                	unimp
     886:	0301                	addi	t1,t1,0
     888:	0900                	addi	s0,sp,144
     88a:	0000                	unimp
     88c:	0301                	addi	t1,t1,0
     88e:	0900                	addi	s0,sp,144
     890:	0000                	unimp
     892:	0301                	addi	t1,t1,0
     894:	0900                	addi	s0,sp,144
     896:	0000                	unimp
     898:	0301                	addi	t1,t1,0
     89a:	0900                	addi	s0,sp,144
     89c:	0000                	unimp
     89e:	0301                	addi	t1,t1,0
     8a0:	0902                	c.slli64	s2
     8a2:	0000                	unimp
     8a4:	0501                	addi	a0,a0,0
     8a6:	0003060b          	0x3060b
     8aa:	0009                	c.nop	2
     8ac:	0100                	addi	s0,sp,128
     8ae:	1405                	addi	s0,s0,-31
     8b0:	00090003          	lb	zero,0(s2)
     8b4:	0100                	addi	s0,sp,128
     8b6:	0805                	addi	a6,a6,1
     8b8:	00097e03          	0x97e03
     8bc:	0100                	addi	s0,sp,128
     8be:	0b05                	addi	s6,s6,1
     8c0:	00097d03          	0x97d03
     8c4:	0100                	addi	s0,sp,128
     8c6:	0805                	addi	a6,a6,1
     8c8:	00090303          	lb	t1,0(s2)
     8cc:	0100                	addi	s0,sp,128
     8ce:	0b05                	addi	s6,s6,1
     8d0:	00090803          	lb	a6,0(s2)
     8d4:	0100                	addi	s0,sp,128
     8d6:	2105                	jal	cf6 <_start-0x7ffff30a>
     8d8:	00097a03          	0x97a03
     8dc:	0100                	addi	s0,sp,128
     8de:	0505                	addi	a0,a0,1
     8e0:	0306                	slli	t1,t1,0x1
     8e2:	0902                	c.slli64	s2
     8e4:	0000                	unimp
     8e6:	0501                	addi	a0,a0,0
     8e8:	00030607          	0x30607
     8ec:	0009                	c.nop	2
     8ee:	0100                	addi	s0,sp,128
     8f0:	0505                	addi	a0,a0,1
     8f2:	0306                	slli	t1,t1,0x1
     8f4:	0901                	addi	s2,s2,0
     8f6:	0000                	unimp
     8f8:	0301                	addi	t1,t1,0
     8fa:	0900                	addi	s0,sp,144
     8fc:	0000                	unimp
     8fe:	0301                	addi	t1,t1,0
     900:	0900                	addi	s0,sp,144
     902:	0000                	unimp
     904:	0301                	addi	t1,t1,0
     906:	0900                	addi	s0,sp,144
     908:	0000                	unimp
     90a:	0301                	addi	t1,t1,0
     90c:	0900                	addi	s0,sp,144
     90e:	0000                	unimp
     910:	0501                	addi	a0,a0,0
     912:	43030607          	0x43030607
     916:	0009                	c.nop	2
     918:	0100                	addi	s0,sp,128
     91a:	00097f03          	0x97f03
     91e:	0100                	addi	s0,sp,128
     920:	0009                	c.nop	2
     922:	0000                	unimp
     924:	0101                	addi	sp,sp,0
     926:	09c0                	addi	s0,sp,212
     928:	0000                	unimp
     92a:	021e0003          	lb	zero,33(t3) # 18021 <_start-0x7ffe7fdf>
     92e:	0000                	unimp
     930:	0101                	addi	sp,sp,0
     932:	000d0efb          	0xd0efb
     936:	0101                	addi	sp,sp,0
     938:	0101                	addi	sp,sp,0
     93a:	0000                	unimp
     93c:	0100                	addi	s0,sp,128
     93e:	0000                	unimp
     940:	2e01                	jal	c50 <_start-0x7ffff3b0>
     942:	2f2e                	fld	ft10,200(sp)
     944:	2e2e                	fld	ft8,200(sp)
     946:	2f2e2e2f          	0x2f2e2e2f
     94a:	2e2e                	fld	ft8,200(sp)
     94c:	7369722f          	0x7369722f
     950:	672d7663          	bgeu	s10,s2,fbc <_start-0x7ffff044>
     954:	6c2f6363          	bltu	t5,sp,101a <_start-0x7fffefe6>
     958:	6269                	lui	tp,0x1a
     95a:	00636367          	0x636367
     95e:	6d6f682f          	0x6d6f682f
     962:	2f65                	jal	111a <_start-0x7fffeee6>
     964:	6c62                	flw	fs8,24(sp)
     966:	6961                	lui	s2,0x18
     968:	642f6573          	csrrsi	a0,0x642,30
     96c:	7665                	lui	a2,0xffff9
     96e:	7369722f          	0x7369722f
     972:	672d7663          	bgeu	s10,s2,fde <_start-0x7ffff022>
     976:	756e                	flw	fa0,248(sp)
     978:	742d                	lui	s0,0xfffeb
     97a:	636c6f6f          	jal	t5,c6fb0 <_start-0x7ff39050>
     97e:	6168                	flw	fa0,68(a0)
     980:	6e69                	lui	t3,0x1a
     982:	2f32                	fld	ft10,264(sp)
     984:	7562                	flw	fa0,56(sp)
     986:	6c69                	lui	s8,0x1a
     988:	2f64                	fld	fs1,216(a4)
     98a:	7562                	flw	fa0,56(sp)
     98c:	6c69                	lui	s8,0x1a
     98e:	2d64                	fld	fs1,216(a0)
     990:	2d636367          	0x2d636367
     994:	656e                	flw	fa0,216(sp)
     996:	62696c77          	0x62696c77
     99a:	732d                	lui	t1,0xfffeb
     99c:	6174                	flw	fa3,68(a0)
     99e:	2f326567          	0x2f326567
     9a2:	2f636367          	0x2f636367
     9a6:	6e69                	lui	t3,0x1a
     9a8:	64756c63          	bltu	a0,t2,1000 <_start-0x7ffff000>
     9ac:	0065                	c.nop	25
     9ae:	6d6f682f          	0x6d6f682f
     9b2:	2f65                	jal	116a <_start-0x7fffee96>
     9b4:	6c62                	flw	fs8,24(sp)
     9b6:	6961                	lui	s2,0x18
     9b8:	642f6573          	csrrsi	a0,0x642,30
     9bc:	7665                	lui	a2,0xffff9
     9be:	7369722f          	0x7369722f
     9c2:	672d7663          	bgeu	s10,s2,102e <_start-0x7fffefd2>
     9c6:	756e                	flw	fa0,248(sp)
     9c8:	742d                	lui	s0,0xfffeb
     9ca:	636c6f6f          	jal	t5,c7000 <_start-0x7ff39000>
     9ce:	6168                	flw	fa0,68(a0)
     9d0:	6e69                	lui	t3,0x1a
     9d2:	2f32                	fld	ft10,264(sp)
     9d4:	7264                	flw	fs1,100(a2)
     9d6:	2f73706f          	j	384cc <_start-0x7ffc7b34>
     9da:	6972                	flw	fs2,28(sp)
     9dc:	33766373          	csrrsi	t1,mhpmevent23,12
     9e0:	2d32                	fld	fs10,264(sp)
     9e2:	6e75                	lui	t3,0x1d
     9e4:	776f6e6b          	0x776f6e6b
     9e8:	2d6e                	fld	fs10,216(sp)
     9ea:	6c65                	lui	s8,0x19
     9ec:	2f66                	fld	ft10,88(sp)
     9ee:	6e69                	lui	t3,0x1a
     9f0:	64756c63          	bltu	a0,t2,1048 <_start-0x7fffefb8>
     9f4:	2f65                	jal	11ac <_start-0x7fffee54>
     9f6:	00737973          	csrrci	s2,0x7,6
     9fa:	6d6f682f          	0x6d6f682f
     9fe:	2f65                	jal	11b6 <_start-0x7fffee4a>
     a00:	6c62                	flw	fs8,24(sp)
     a02:	6961                	lui	s2,0x18
     a04:	642f6573          	csrrsi	a0,0x642,30
     a08:	7665                	lui	a2,0xffff9
     a0a:	7369722f          	0x7369722f
     a0e:	672d7663          	bgeu	s10,s2,107a <_start-0x7fffef86>
     a12:	756e                	flw	fa0,248(sp)
     a14:	742d                	lui	s0,0xfffeb
     a16:	636c6f6f          	jal	t5,c704c <_start-0x7ff38fb4>
     a1a:	6168                	flw	fa0,68(a0)
     a1c:	6e69                	lui	t3,0x1a
     a1e:	2f32                	fld	ft10,264(sp)
     a20:	7264                	flw	fs1,100(a2)
     a22:	2f73706f          	j	38518 <_start-0x7ffc7ae8>
     a26:	6972                	flw	fs2,28(sp)
     a28:	33766373          	csrrsi	t1,mhpmevent23,12
     a2c:	2d32                	fld	fs10,264(sp)
     a2e:	6e75                	lui	t3,0x1d
     a30:	776f6e6b          	0x776f6e6b
     a34:	2d6e                	fld	fs10,216(sp)
     a36:	6c65                	lui	s8,0x19
     a38:	2f66                	fld	ft10,88(sp)
     a3a:	6e69                	lui	t3,0x1a
     a3c:	64756c63          	bltu	a0,t2,1094 <_start-0x7fffef6c>
     a40:	0065                	c.nop	25
     a42:	2e2e                	fld	ft8,200(sp)
     a44:	2f2e2e2f          	0x2f2e2e2f
     a48:	2e2e                	fld	ft8,200(sp)
     a4a:	2f2e2e2f          	0x2f2e2e2f
     a4e:	6972                	flw	fs2,28(sp)
     a50:	2d766373          	csrrsi	t1,0x2d7,12
     a54:	2f636367          	0x2f636367
     a58:	696c                	flw	fa1,84(a0)
     a5a:	6762                	flw	fa4,24(sp)
     a5c:	2e2f6363          	bltu	t5,sp,d42 <_start-0x7ffff2be>
     a60:	2f2e                	fld	ft10,200(sp)
     a62:	6e69                	lui	t3,0x1a
     a64:	64756c63          	bltu	a0,t2,10bc <_start-0x7fffef44>
     a68:	0065                	c.nop	25
     a6a:	2e2e                	fld	ft8,200(sp)
     a6c:	2f2e2e2f          	0x2f2e2e2f
     a70:	2e2e                	fld	ft8,200(sp)
     a72:	2f2e2e2f          	0x2f2e2e2f
     a76:	6972                	flw	fs2,28(sp)
     a78:	2d766373          	csrrsi	t1,0x2d7,12
     a7c:	2f636367          	0x2f636367
     a80:	696c                	flw	fa1,84(a0)
     a82:	6762                	flw	fa4,24(sp)
     a84:	2e2f6363          	bltu	t5,sp,d6a <_start-0x7ffff296>
     a88:	2f2e                	fld	ft10,200(sp)
     a8a:	2f636367          	0x2f636367
     a8e:	666e6f63          	bltu	t3,t1,110c <_start-0x7fffeef4>
     a92:	6769                	lui	a4,0x1a
     a94:	7369722f          	0x7369722f
     a98:	2e007663          	bgeu	zero,zero,d84 <_start-0x7ffff27c>
     a9c:	2f2e                	fld	ft10,200(sp)
     a9e:	2e2e                	fld	ft8,200(sp)
     aa0:	672f2e2f          	amoand.w.aqrl	t3,s2,(t5)
     aa4:	00006363          	bltu	zero,zero,aaa <_start-0x7ffff556>
     aa8:	696c                	flw	fa1,84(a0)
     aaa:	6762                	flw	fa4,24(sp)
     aac:	2e326363          	bltu	tp,gp,d92 <_start-0x7ffff26e>
     ab0:	00010063          	beqz	sp,ab0 <_start-0x7ffff550>
     ab4:	7300                	flw	fs0,32(a4)
     ab6:	6474                	flw	fa3,76(s0)
     ab8:	6564                	flw	fs1,76(a0)
     aba:	2e66                	fld	ft8,88(sp)
     abc:	0068                	addi	a0,sp,12
     abe:	0002                	c.slli64	zero
     ac0:	5f00                	lw	s0,56(a4)
     ac2:	7974                	flw	fa3,116(a0)
     ac4:	6570                	flw	fa2,76(a0)
     ac6:	00682e73          	csrrs	t3,0x6,a6
     aca:	72000003          	lb	zero,1824(zero) # 720 <_start-0x7ffff8e0>
     ace:	6565                	lui	a0,0x19
     ad0:	746e                	flw	fs0,248(sp)
     ad2:	682e                	flw	fa6,200(sp)
     ad4:	0300                	addi	s0,sp,384
     ad6:	0000                	unimp
     ad8:	6f6c                	flw	fa1,92(a4)
     ada:	682e6b63          	bltu	t3,sp,1170 <_start-0x7fffee90>
     ade:	0300                	addi	s0,sp,384
     ae0:	0000                	unimp
     ae2:	7265                	lui	tp,0xffff9
     ae4:	6e72                	flw	ft8,28(sp)
     ae6:	00682e6f          	jal	t3,82aec <_start-0x7ff7d514>
     aea:	73000003          	lb	zero,1840(zero) # 730 <_start-0x7ffff8d0>
     aee:	6474                	flw	fa3,76(s0)
     af0:	696c                	flw	fa1,84(a0)
     af2:	2e62                	fld	ft8,24(sp)
     af4:	0068                	addi	a0,sp,12
     af6:	0004                	0x4
     af8:	7500                	flw	fs0,40(a0)
     afa:	696e                	flw	fs2,216(sp)
     afc:	2e647473          	csrrci	s0,0x2e6,8
     b00:	0068                	addi	a0,sp,12
     b02:	74000003          	lb	zero,1856(zero) # 740 <_start-0x7ffff8c0>
     b06:	6d69                	lui	s10,0x1a
     b08:	2e65                	jal	ec0 <_start-0x7ffff140>
     b0a:	0068                	addi	a0,sp,12
     b0c:	0004                	0x4
     b0e:	6800                	flw	fs0,16(s0)
     b10:	7361                	lui	t1,0xffff8
     b12:	7468                	flw	fa0,108(s0)
     b14:	6261                	lui	tp,0x18
     b16:	682e                	flw	fa6,200(sp)
     b18:	0500                	addi	s0,sp,640
     b1a:	0000                	unimp
     b1c:	6972                	flw	fs2,28(sp)
     b1e:	2d766373          	csrrsi	t1,0x2d7,12
     b22:	7374706f          	j	48a58 <_start-0x7ffb75a8>
     b26:	682e                	flw	fa6,200(sp)
     b28:	0600                	addi	s0,sp,768
     b2a:	0000                	unimp
     b2c:	6e69                	lui	t3,0x1a
     b2e:	632d6e73          	csrrsi	t3,0x632,26
     b32:	74736e6f          	jal	t3,37a78 <_start-0x7ffc8588>
     b36:	6e61                	lui	t3,0x18
     b38:	7374                	flw	fa3,100(a4)
     b3a:	682e                	flw	fa6,200(sp)
     b3c:	0700                	addi	s0,sp,896
     b3e:	0000                	unimp
     b40:	696c                	flw	fa1,84(a0)
     b42:	6762                	flw	fa4,24(sp)
     b44:	2e326363          	bltu	tp,gp,e2a <_start-0x7ffff1d6>
     b48:	0068                	addi	a0,sp,12
     b4a:	0001                	nop
     b4c:	0000                	unimp
     b4e:	0105                	addi	sp,sp,1
     b50:	0500                	addi	s0,sp,640
     b52:	0002                	c.slli64	zero
     b54:	0000                	unimp
     b56:	0300                	addi	s0,sp,384
     b58:	0a9a                	slli	s5,s5,0x6
     b5a:	0501                	addi	a0,a0,0
     b5c:	09010303          	lb	t1,144(sp)
     b60:	0000                	unimp
     b62:	0301                	addi	t1,t1,0
     b64:	0902                	c.slli64	s2
     b66:	0000                	unimp
     b68:	0301                	addi	t1,t1,0
     b6a:	00097ddb          	0x97ddb
     b6e:	0100                	addi	s0,sp,128
     b70:	00090103          	lb	sp,0(s2) # 18000 <_start-0x7ffe8000>
     b74:	0100                	addi	s0,sp,128
     b76:	00090103          	lb	sp,0(s2)
     b7a:	0100                	addi	s0,sp,128
     b7c:	00090103          	lb	sp,0(s2)
     b80:	0100                	addi	s0,sp,128
     b82:	00090103          	lb	sp,0(s2)
     b86:	0100                	addi	s0,sp,128
     b88:	00090103          	lb	sp,0(s2)
     b8c:	0100                	addi	s0,sp,128
     b8e:	00090203          	lb	tp,0(s2)
     b92:	0100                	addi	s0,sp,128
     b94:	0605                	addi	a2,a2,1
     b96:	0306                	slli	t1,t1,0x1
     b98:	0900                	addi	s0,sp,144
     b9a:	0000                	unimp
     b9c:	0501                	addi	a0,a0,0
     b9e:	01030603          	lb	a2,16(t1) # ffff8010 <__global_pointer$+0x7fff5cf8>
     ba2:	0009                	c.nop	2
     ba4:	0100                	addi	s0,sp,128
     ba6:	0605                	addi	a2,a2,1
     ba8:	0306                	slli	t1,t1,0x1
     baa:	0900                	addi	s0,sp,144
     bac:	0000                	unimp
     bae:	0501                	addi	a0,a0,0
     bb0:	01030603          	lb	a2,16(t1)
     bb4:	0009                	c.nop	2
     bb6:	0100                	addi	s0,sp,128
     bb8:	0605                	addi	a2,a2,1
     bba:	0306                	slli	t1,t1,0x1
     bbc:	0900                	addi	s0,sp,144
     bbe:	0000                	unimp
     bc0:	0501                	addi	a0,a0,0
     bc2:	01030603          	lb	a2,16(t1)
     bc6:	0009                	c.nop	2
     bc8:	0100                	addi	s0,sp,128
     bca:	0605                	addi	a2,a2,1
     bcc:	0306                	slli	t1,t1,0x1
     bce:	0900                	addi	s0,sp,144
     bd0:	0000                	unimp
     bd2:	0501                	addi	a0,a0,0
     bd4:	25030603          	lb	a2,592(t1)
     bd8:	0009                	c.nop	2
     bda:	0100                	addi	s0,sp,128
     bdc:	0605                	addi	a2,a2,1
     bde:	0306                	slli	t1,t1,0x1
     be0:	0900                	addi	s0,sp,144
     be2:	0000                	unimp
     be4:	0501                	addi	a0,a0,0
     be6:	02030607          	0x2030607
     bea:	0009                	c.nop	2
     bec:	0100                	addi	s0,sp,128
     bee:	0a05                	addi	s4,s4,1
     bf0:	0306                	slli	t1,t1,0x1
     bf2:	0900                	addi	s0,sp,144
     bf4:	0000                	unimp
     bf6:	0501                	addi	a0,a0,0
     bf8:	0604                	addi	s1,sp,768
     bfa:	00090403          	lb	s0,0(s2)
     bfe:	0100                	addi	s0,sp,128
     c00:	00090003          	lb	zero,0(s2)
     c04:	0100                	addi	s0,sp,128
     c06:	00090003          	lb	zero,0(s2)
     c0a:	0100                	addi	s0,sp,128
     c0c:	00090003          	lb	zero,0(s2)
     c10:	0100                	addi	s0,sp,128
     c12:	00090003          	lb	zero,0(s2)
     c16:	0100                	addi	s0,sp,128
     c18:	00090003          	lb	zero,0(s2)
     c1c:	0100                	addi	s0,sp,128
     c1e:	00090003          	lb	zero,0(s2)
     c22:	0100                	addi	s0,sp,128
     c24:	00090203          	lb	tp,0(s2)
     c28:	0100                	addi	s0,sp,128
     c2a:	0705                	addi	a4,a4,1
     c2c:	0306                	slli	t1,t1,0x1
     c2e:	0900                	addi	s0,sp,144
     c30:	0000                	unimp
     c32:	0501                	addi	a0,a0,0
     c34:	0608                	addi	a0,sp,768
     c36:	00090503          	lb	a0,0(s2)
     c3a:	0100                	addi	s0,sp,128
     c3c:	1105                	addi	sp,sp,-31
     c3e:	0306                	slli	t1,t1,0x1
     c40:	0901                	addi	s2,s2,0
     c42:	0000                	unimp
     c44:	0501                	addi	a0,a0,0
     c46:	031e                	slli	t1,t1,0x7
     c48:	0900                	addi	s0,sp,144
     c4a:	0000                	unimp
     c4c:	0501                	addi	a0,a0,0
     c4e:	097f030b          	0x97f030b
     c52:	0000                	unimp
     c54:	0501                	addi	a0,a0,0
     c56:	0608                	addi	a0,sp,768
     c58:	00090103          	lb	sp,0(s2)
     c5c:	0100                	addi	s0,sp,128
     c5e:	0b05                	addi	s6,s6,1
     c60:	0306                	slli	t1,t1,0x1
     c62:	0900                	addi	s0,sp,144
     c64:	0000                	unimp
     c66:	0501                	addi	a0,a0,0
     c68:	0608                	addi	a0,sp,768
     c6a:	00090103          	lb	sp,0(s2)
     c6e:	0100                	addi	s0,sp,128
     c70:	0b05                	addi	s6,s6,1
     c72:	0306                	slli	t1,t1,0x1
     c74:	0900                	addi	s0,sp,144
     c76:	0000                	unimp
     c78:	0501                	addi	a0,a0,0
     c7a:	0604                	addi	s1,sp,768
     c7c:	00090303          	lb	t1,0(s2)
     c80:	0100                	addi	s0,sp,128
     c82:	00090003          	lb	zero,0(s2)
     c86:	0100                	addi	s0,sp,128
     c88:	00090003          	lb	zero,0(s2)
     c8c:	0100                	addi	s0,sp,128
     c8e:	00090003          	lb	zero,0(s2)
     c92:	0100                	addi	s0,sp,128
     c94:	00090003          	lb	zero,0(s2)
     c98:	0100                	addi	s0,sp,128
     c9a:	00090003          	lb	zero,0(s2)
     c9e:	0100                	addi	s0,sp,128
     ca0:	00090003          	lb	zero,0(s2)
     ca4:	0100                	addi	s0,sp,128
     ca6:	00090003          	lb	zero,0(s2)
     caa:	0100                	addi	s0,sp,128
     cac:	00090003          	lb	zero,0(s2)
     cb0:	0100                	addi	s0,sp,128
     cb2:	00090003          	lb	zero,0(s2)
     cb6:	0100                	addi	s0,sp,128
     cb8:	00090003          	lb	zero,0(s2)
     cbc:	0100                	addi	s0,sp,128
     cbe:	00090003          	lb	zero,0(s2)
     cc2:	0100                	addi	s0,sp,128
     cc4:	00090003          	lb	zero,0(s2)
     cc8:	0100                	addi	s0,sp,128
     cca:	00090003          	lb	zero,0(s2)
     cce:	0100                	addi	s0,sp,128
     cd0:	00090003          	lb	zero,0(s2)
     cd4:	0100                	addi	s0,sp,128
     cd6:	00090003          	lb	zero,0(s2)
     cda:	0100                	addi	s0,sp,128
     cdc:	00090003          	lb	zero,0(s2)
     ce0:	0100                	addi	s0,sp,128
     ce2:	00090003          	lb	zero,0(s2)
     ce6:	0100                	addi	s0,sp,128
     ce8:	00090003          	lb	zero,0(s2)
     cec:	0100                	addi	s0,sp,128
     cee:	00090003          	lb	zero,0(s2)
     cf2:	0100                	addi	s0,sp,128
     cf4:	00090003          	lb	zero,0(s2)
     cf8:	0100                	addi	s0,sp,128
     cfa:	00090003          	lb	zero,0(s2)
     cfe:	0100                	addi	s0,sp,128
     d00:	00090003          	lb	zero,0(s2)
     d04:	0100                	addi	s0,sp,128
     d06:	00090003          	lb	zero,0(s2)
     d0a:	0100                	addi	s0,sp,128
     d0c:	00090003          	lb	zero,0(s2)
     d10:	0100                	addi	s0,sp,128
     d12:	00090003          	lb	zero,0(s2)
     d16:	0100                	addi	s0,sp,128
     d18:	00090003          	lb	zero,0(s2)
     d1c:	0100                	addi	s0,sp,128
     d1e:	00090003          	lb	zero,0(s2)
     d22:	0100                	addi	s0,sp,128
     d24:	00090103          	lb	sp,0(s2)
     d28:	0100                	addi	s0,sp,128
     d2a:	00092903          	lw	s2,0(s2)
     d2e:	0100                	addi	s0,sp,128
     d30:	0705                	addi	a4,a4,1
     d32:	00090503          	lb	a0,0(s2)
     d36:	0100                	addi	s0,sp,128
     d38:	0405                	addi	s0,s0,1
     d3a:	00090203          	lb	tp,0(s2)
     d3e:	0100                	addi	s0,sp,128
     d40:	1205                	addi	tp,tp,-31
     d42:	0306                	slli	t1,t1,0x1
     d44:	0900                	addi	s0,sp,144
     d46:	0000                	unimp
     d48:	0501                	addi	a0,a0,0
     d4a:	0604                	addi	s1,sp,768
     d4c:	00090103          	lb	sp,0(s2)
     d50:	0100                	addi	s0,sp,128
     d52:	00090103          	lb	sp,0(s2)
     d56:	0100                	addi	s0,sp,128
     d58:	0c05                	addi	s8,s8,1
     d5a:	0306                	slli	t1,t1,0x1
     d5c:	0900                	addi	s0,sp,144
     d5e:	0000                	unimp
     d60:	0501                	addi	a0,a0,0
     d62:	da030603          	lb	a2,-608(t1)
     d66:	0900                	addi	s0,sp,144
     d68:	0000                	unimp
     d6a:	0301                	addi	t1,t1,0
     d6c:	0901                	addi	s2,s2,0
     d6e:	0000                	unimp
     d70:	0301                	addi	t1,t1,0
     d72:	00d8                	addi	a4,sp,68
     d74:	0009                	c.nop	2
     d76:	0100                	addi	s0,sp,128
     d78:	0105                	addi	sp,sp,1
     d7a:	0306                	slli	t1,t1,0x1
     d7c:	0901                	addi	s2,s2,0
     d7e:	0000                	unimp
     d80:	0501                	addi	a0,a0,0
     d82:	0304                	addi	s1,sp,384
     d84:	7e8d                	lui	t4,0xfffe3
     d86:	0009                	c.nop	2
     d88:	0100                	addi	s0,sp,128
     d8a:	0306                	slli	t1,t1,0x1
     d8c:	0915                	addi	s2,s2,5
     d8e:	0000                	unimp
     d90:	0501                	addi	a0,a0,0
     d92:	00030607          	0x30607
     d96:	0009                	c.nop	2
     d98:	0100                	addi	s0,sp,128
     d9a:	0605                	addi	a2,a2,1
     d9c:	0306                	slli	t1,t1,0x1
     d9e:	0901                	addi	s2,s2,0
     da0:	0000                	unimp
     da2:	0501                	addi	a0,a0,0
     da4:	0609                	addi	a2,a2,2
     da6:	00090003          	lb	zero,0(s2)
     daa:	0100                	addi	s0,sp,128
     dac:	0405                	addi	s0,s0,1
     dae:	0306                	slli	t1,t1,0x1
     db0:	0902                	c.slli64	s2
     db2:	0000                	unimp
     db4:	0301                	addi	t1,t1,0
     db6:	0900                	addi	s0,sp,144
     db8:	0000                	unimp
     dba:	0301                	addi	t1,t1,0
     dbc:	0900                	addi	s0,sp,144
     dbe:	0000                	unimp
     dc0:	0301                	addi	t1,t1,0
     dc2:	0900                	addi	s0,sp,144
     dc4:	0000                	unimp
     dc6:	0301                	addi	t1,t1,0
     dc8:	0900                	addi	s0,sp,144
     dca:	0000                	unimp
     dcc:	0301                	addi	t1,t1,0
     dce:	0900                	addi	s0,sp,144
     dd0:	0000                	unimp
     dd2:	0301                	addi	t1,t1,0
     dd4:	0900                	addi	s0,sp,144
     dd6:	0000                	unimp
     dd8:	0301                	addi	t1,t1,0
     dda:	0902                	c.slli64	s2
     ddc:	0000                	unimp
     dde:	0501                	addi	a0,a0,0
     de0:	00030607          	0x30607
     de4:	0009                	c.nop	2
     de6:	0100                	addi	s0,sp,128
     de8:	0805                	addi	a6,a6,1
     dea:	0306                	slli	t1,t1,0x1
     dec:	0909                	addi	s2,s2,2
     dee:	0000                	unimp
     df0:	0501                	addi	a0,a0,0
     df2:	0003060b          	0x3060b
     df6:	0009                	c.nop	2
     df8:	0100                	addi	s0,sp,128
     dfa:	0805                	addi	a6,a6,1
     dfc:	0306                	slli	t1,t1,0x1
     dfe:	0901                	addi	s2,s2,0
     e00:	0000                	unimp
     e02:	0301                	addi	t1,t1,0
     e04:	090d                	addi	s2,s2,3
     e06:	0000                	unimp
     e08:	0501                	addi	a0,a0,0
     e0a:	0304                	addi	s1,sp,384
     e0c:	0905                	addi	s2,s2,1
     e0e:	0000                	unimp
     e10:	0301                	addi	t1,t1,0
     e12:	0900                	addi	s0,sp,144
     e14:	0000                	unimp
     e16:	0301                	addi	t1,t1,0
     e18:	0900                	addi	s0,sp,144
     e1a:	0000                	unimp
     e1c:	0301                	addi	t1,t1,0
     e1e:	0900                	addi	s0,sp,144
     e20:	0000                	unimp
     e22:	0301                	addi	t1,t1,0
     e24:	0900                	addi	s0,sp,144
     e26:	0000                	unimp
     e28:	0301                	addi	t1,t1,0
     e2a:	0900                	addi	s0,sp,144
     e2c:	0000                	unimp
     e2e:	0301                	addi	t1,t1,0
     e30:	0900                	addi	s0,sp,144
     e32:	0000                	unimp
     e34:	0301                	addi	t1,t1,0
     e36:	0900                	addi	s0,sp,144
     e38:	0000                	unimp
     e3a:	0301                	addi	t1,t1,0
     e3c:	0900                	addi	s0,sp,144
     e3e:	0000                	unimp
     e40:	0301                	addi	t1,t1,0
     e42:	0900                	addi	s0,sp,144
     e44:	0000                	unimp
     e46:	0301                	addi	t1,t1,0
     e48:	0900                	addi	s0,sp,144
     e4a:	0000                	unimp
     e4c:	0301                	addi	t1,t1,0
     e4e:	0900                	addi	s0,sp,144
     e50:	0000                	unimp
     e52:	0301                	addi	t1,t1,0
     e54:	0900                	addi	s0,sp,144
     e56:	0000                	unimp
     e58:	0301                	addi	t1,t1,0
     e5a:	0900                	addi	s0,sp,144
     e5c:	0000                	unimp
     e5e:	0301                	addi	t1,t1,0
     e60:	0900                	addi	s0,sp,144
     e62:	0000                	unimp
     e64:	0301                	addi	t1,t1,0
     e66:	0900                	addi	s0,sp,144
     e68:	0000                	unimp
     e6a:	0301                	addi	t1,t1,0
     e6c:	0900                	addi	s0,sp,144
     e6e:	0000                	unimp
     e70:	0301                	addi	t1,t1,0
     e72:	0900                	addi	s0,sp,144
     e74:	0000                	unimp
     e76:	0301                	addi	t1,t1,0
     e78:	0900                	addi	s0,sp,144
     e7a:	0000                	unimp
     e7c:	0301                	addi	t1,t1,0
     e7e:	0900                	addi	s0,sp,144
     e80:	0000                	unimp
     e82:	0301                	addi	t1,t1,0
     e84:	0900                	addi	s0,sp,144
     e86:	0000                	unimp
     e88:	0301                	addi	t1,t1,0
     e8a:	0900                	addi	s0,sp,144
     e8c:	0000                	unimp
     e8e:	0301                	addi	t1,t1,0
     e90:	0900                	addi	s0,sp,144
     e92:	0000                	unimp
     e94:	0301                	addi	t1,t1,0
     e96:	0900                	addi	s0,sp,144
     e98:	0000                	unimp
     e9a:	0301                	addi	t1,t1,0
     e9c:	0900                	addi	s0,sp,144
     e9e:	0000                	unimp
     ea0:	0301                	addi	t1,t1,0
     ea2:	0900                	addi	s0,sp,144
     ea4:	0000                	unimp
     ea6:	0301                	addi	t1,t1,0
     ea8:	0900                	addi	s0,sp,144
     eaa:	0000                	unimp
     eac:	0601                	addi	a2,a2,0
     eae:	00096203          	0x96203
     eb2:	0100                	addi	s0,sp,128
     eb4:	0805                	addi	a6,a6,1
     eb6:	0306                	slli	t1,t1,0x1
     eb8:	0912                	slli	s2,s2,0x4
     eba:	0000                	unimp
     ebc:	0301                	addi	t1,t1,0
     ebe:	0902                	c.slli64	s2
     ec0:	0000                	unimp
     ec2:	0501                	addi	a0,a0,0
     ec4:	0003060b          	0x3060b
     ec8:	0009                	c.nop	2
     eca:	0100                	addi	s0,sp,128
     ecc:	0805                	addi	a6,a6,1
     ece:	0306                	slli	t1,t1,0x1
     ed0:	0901                	addi	s2,s2,0
     ed2:	0000                	unimp
     ed4:	0501                	addi	a0,a0,0
     ed6:	0003060b          	0x3060b
     eda:	0009                	c.nop	2
     edc:	0100                	addi	s0,sp,128
     ede:	0805                	addi	a6,a6,1
     ee0:	0306                	slli	t1,t1,0x1
     ee2:	0901                	addi	s2,s2,0
     ee4:	0000                	unimp
     ee6:	0501                	addi	a0,a0,0
     ee8:	0103060b          	0x103060b
     eec:	0009                	c.nop	2
     eee:	0100                	addi	s0,sp,128
     ef0:	1e05                	addi	t3,t3,-31
     ef2:	00097f03          	0x97f03
     ef6:	0100                	addi	s0,sp,128
     ef8:	0805                	addi	a6,a6,1
     efa:	00090303          	lb	t1,0(s2)
     efe:	0100                	addi	s0,sp,128
     f00:	1105                	addi	sp,sp,-31
     f02:	00097d03          	0x97d03
     f06:	0100                	addi	s0,sp,128
     f08:	0b05                	addi	s6,s6,1
     f0a:	00090003          	lb	zero,0(s2)
     f0e:	0100                	addi	s0,sp,128
     f10:	0805                	addi	a6,a6,1
     f12:	0306                	slli	t1,t1,0x1
     f14:	0901                	addi	s2,s2,0
     f16:	0000                	unimp
     f18:	0301                	addi	t1,t1,0
     f1a:	0902                	c.slli64	s2
     f1c:	0000                	unimp
     f1e:	0301                	addi	t1,t1,0
     f20:	0900                	addi	s0,sp,144
     f22:	0000                	unimp
     f24:	0301                	addi	t1,t1,0
     f26:	0900                	addi	s0,sp,144
     f28:	0000                	unimp
     f2a:	0301                	addi	t1,t1,0
     f2c:	0900                	addi	s0,sp,144
     f2e:	0000                	unimp
     f30:	0301                	addi	t1,t1,0
     f32:	0900                	addi	s0,sp,144
     f34:	0000                	unimp
     f36:	0301                	addi	t1,t1,0
     f38:	0900                	addi	s0,sp,144
     f3a:	0000                	unimp
     f3c:	0301                	addi	t1,t1,0
     f3e:	0900                	addi	s0,sp,144
     f40:	0000                	unimp
     f42:	0301                	addi	t1,t1,0
     f44:	0900                	addi	s0,sp,144
     f46:	0000                	unimp
     f48:	0301                	addi	t1,t1,0
     f4a:	0900                	addi	s0,sp,144
     f4c:	0000                	unimp
     f4e:	0301                	addi	t1,t1,0
     f50:	0900                	addi	s0,sp,144
     f52:	0000                	unimp
     f54:	0301                	addi	t1,t1,0
     f56:	0900                	addi	s0,sp,144
     f58:	0000                	unimp
     f5a:	0301                	addi	t1,t1,0
     f5c:	0900                	addi	s0,sp,144
     f5e:	0000                	unimp
     f60:	0301                	addi	t1,t1,0
     f62:	0900                	addi	s0,sp,144
     f64:	0000                	unimp
     f66:	0301                	addi	t1,t1,0
     f68:	0900                	addi	s0,sp,144
     f6a:	0000                	unimp
     f6c:	0301                	addi	t1,t1,0
     f6e:	0900                	addi	s0,sp,144
     f70:	0000                	unimp
     f72:	0301                	addi	t1,t1,0
     f74:	0900                	addi	s0,sp,144
     f76:	0000                	unimp
     f78:	0301                	addi	t1,t1,0
     f7a:	0900                	addi	s0,sp,144
     f7c:	0000                	unimp
     f7e:	0301                	addi	t1,t1,0
     f80:	0900                	addi	s0,sp,144
     f82:	0000                	unimp
     f84:	0301                	addi	t1,t1,0
     f86:	0900                	addi	s0,sp,144
     f88:	0000                	unimp
     f8a:	0301                	addi	t1,t1,0
     f8c:	0900                	addi	s0,sp,144
     f8e:	0000                	unimp
     f90:	0301                	addi	t1,t1,0
     f92:	0900                	addi	s0,sp,144
     f94:	0000                	unimp
     f96:	0301                	addi	t1,t1,0
     f98:	0900                	addi	s0,sp,144
     f9a:	0000                	unimp
     f9c:	0301                	addi	t1,t1,0
     f9e:	0900                	addi	s0,sp,144
     fa0:	0000                	unimp
     fa2:	0301                	addi	t1,t1,0
     fa4:	0900                	addi	s0,sp,144
     fa6:	0000                	unimp
     fa8:	0301                	addi	t1,t1,0
     faa:	0900                	addi	s0,sp,144
     fac:	0000                	unimp
     fae:	0301                	addi	t1,t1,0
     fb0:	0900                	addi	s0,sp,144
     fb2:	0000                	unimp
     fb4:	0301                	addi	t1,t1,0
     fb6:	0900                	addi	s0,sp,144
     fb8:	0000                	unimp
     fba:	0501                	addi	a0,a0,0
     fbc:	09150307          	0x9150307
     fc0:	0000                	unimp
     fc2:	0501                	addi	a0,a0,0
     fc4:	060a                	slli	a2,a2,0x2
     fc6:	00090003          	lb	zero,0(s2)
     fca:	0100                	addi	s0,sp,128
     fcc:	0405                	addi	s0,s0,1
     fce:	0306                	slli	t1,t1,0x1
     fd0:	00000913          	li	s2,0
     fd4:	0301                	addi	t1,t1,0
     fd6:	0900                	addi	s0,sp,144
     fd8:	0000                	unimp
     fda:	0301                	addi	t1,t1,0
     fdc:	0900                	addi	s0,sp,144
     fde:	0000                	unimp
     fe0:	0301                	addi	t1,t1,0
     fe2:	0900                	addi	s0,sp,144
     fe4:	0000                	unimp
     fe6:	0301                	addi	t1,t1,0
     fe8:	0900                	addi	s0,sp,144
     fea:	0000                	unimp
     fec:	0301                	addi	t1,t1,0
     fee:	0900                	addi	s0,sp,144
     ff0:	0000                	unimp
     ff2:	0301                	addi	t1,t1,0
     ff4:	0900                	addi	s0,sp,144
     ff6:	0000                	unimp
     ff8:	0301                	addi	t1,t1,0
     ffa:	0901                	addi	s2,s2,0
     ffc:	0000                	unimp
     ffe:	0501                	addi	a0,a0,0
    1000:	00030607          	0x30607
    1004:	0009                	c.nop	2
    1006:	0100                	addi	s0,sp,128
    1008:	0805                	addi	a6,a6,1
    100a:	0306                	slli	t1,t1,0x1
    100c:	090a                	slli	s2,s2,0x2
    100e:	0000                	unimp
    1010:	0501                	addi	a0,a0,0
    1012:	0003060b          	0x3060b
    1016:	0009                	c.nop	2
    1018:	0100                	addi	s0,sp,128
    101a:	1405                	addi	s0,s0,-31
    101c:	00090003          	lb	zero,0(s2)
    1020:	0100                	addi	s0,sp,128
    1022:	0505                	addi	a0,a0,1
    1024:	0306                	slli	t1,t1,0x1
    1026:	0902                	c.slli64	s2
    1028:	0000                	unimp
    102a:	0301                	addi	t1,t1,0
    102c:	0901                	addi	s2,s2,0
    102e:	0000                	unimp
    1030:	0301                	addi	t1,t1,0
    1032:	0900                	addi	s0,sp,144
    1034:	0000                	unimp
    1036:	0301                	addi	t1,t1,0
    1038:	0900                	addi	s0,sp,144
    103a:	0000                	unimp
    103c:	0301                	addi	t1,t1,0
    103e:	0900                	addi	s0,sp,144
    1040:	0000                	unimp
    1042:	0301                	addi	t1,t1,0
    1044:	0900                	addi	s0,sp,144
    1046:	0000                	unimp
    1048:	0301                	addi	t1,t1,0
    104a:	0900                	addi	s0,sp,144
    104c:	0000                	unimp
    104e:	0501                	addi	a0,a0,0
    1050:	0308                	addi	a0,sp,384
    1052:	0905                	addi	s2,s2,1
    1054:	0000                	unimp
    1056:	0301                	addi	t1,t1,0
    1058:	0902                	c.slli64	s2
    105a:	0000                	unimp
    105c:	0501                	addi	a0,a0,0
    105e:	0305                	addi	t1,t1,1
    1060:	0902                	c.slli64	s2
    1062:	0000                	unimp
    1064:	0301                	addi	t1,t1,0
    1066:	0901                	addi	s2,s2,0
    1068:	0000                	unimp
    106a:	0301                	addi	t1,t1,0
    106c:	0901                	addi	s2,s2,0
    106e:	0000                	unimp
    1070:	0501                	addi	a0,a0,0
    1072:	060d                	addi	a2,a2,3
    1074:	00090003          	lb	zero,0(s2)
    1078:	0100                	addi	s0,sp,128
    107a:	0405                	addi	s0,s0,1
    107c:	00096703          	0x96703
    1080:	0100                	addi	s0,sp,128
    1082:	0805                	addi	a6,a6,1
    1084:	0306                	slli	t1,t1,0x1
    1086:	091e                	slli	s2,s2,0x7
    1088:	0000                	unimp
    108a:	0301                	addi	t1,t1,0
    108c:	00000903          	lb	s2,0(zero) # 0 <_start-0x80000000>
    1090:	0301                	addi	t1,t1,0
    1092:	0902                	c.slli64	s2
    1094:	0000                	unimp
    1096:	0501                	addi	a0,a0,0
    1098:	061e                	slli	a2,a2,0x7
    109a:	00090003          	lb	zero,0(s2)
    109e:	0100                	addi	s0,sp,128
    10a0:	1105                	addi	sp,sp,-31
    10a2:	00090003          	lb	zero,0(s2)
    10a6:	0100                	addi	s0,sp,128
    10a8:	0b05                	addi	s6,s6,1
    10aa:	00090003          	lb	zero,0(s2)
    10ae:	0100                	addi	s0,sp,128
    10b0:	0805                	addi	a6,a6,1
    10b2:	0306                	slli	t1,t1,0x1
    10b4:	0901                	addi	s2,s2,0
    10b6:	0000                	unimp
    10b8:	0501                	addi	a0,a0,0
    10ba:	0103060b          	0x103060b
    10be:	0009                	c.nop	2
    10c0:	0100                	addi	s0,sp,128
    10c2:	0805                	addi	a6,a6,1
    10c4:	00090403          	lb	s0,0(s2)
    10c8:	0100                	addi	s0,sp,128
    10ca:	1105                	addi	sp,sp,-31
    10cc:	00097d03          	0x97d03
    10d0:	0100                	addi	s0,sp,128
    10d2:	1e05                	addi	t3,t3,-31
    10d4:	00090003          	lb	zero,0(s2)
    10d8:	0100                	addi	s0,sp,128
    10da:	0b05                	addi	s6,s6,1
    10dc:	00090003          	lb	zero,0(s2)
    10e0:	0100                	addi	s0,sp,128
    10e2:	0805                	addi	a6,a6,1
    10e4:	00090303          	lb	t1,0(s2)
    10e8:	0100                	addi	s0,sp,128
    10ea:	0b05                	addi	s6,s6,1
    10ec:	00097b03          	0x97b03
    10f0:	0100                	addi	s0,sp,128
    10f2:	0805                	addi	a6,a6,1
    10f4:	0306                	slli	t1,t1,0x1
    10f6:	0901                	addi	s2,s2,0
    10f8:	0000                	unimp
    10fa:	0301                	addi	t1,t1,0
    10fc:	0901                	addi	s2,s2,0
    10fe:	0000                	unimp
    1100:	0301                	addi	t1,t1,0
    1102:	0901                	addi	s2,s2,0
    1104:	0000                	unimp
    1106:	0501                	addi	a0,a0,0
    1108:	0003060b          	0x3060b
    110c:	0009                	c.nop	2
    110e:	0100                	addi	s0,sp,128
    1110:	0805                	addi	a6,a6,1
    1112:	0306                	slli	t1,t1,0x1
    1114:	0902                	c.slli64	s2
    1116:	0000                	unimp
    1118:	0301                	addi	t1,t1,0
    111a:	0900                	addi	s0,sp,144
    111c:	0000                	unimp
    111e:	0301                	addi	t1,t1,0
    1120:	0900                	addi	s0,sp,144
    1122:	0000                	unimp
    1124:	0301                	addi	t1,t1,0
    1126:	0900                	addi	s0,sp,144
    1128:	0000                	unimp
    112a:	0301                	addi	t1,t1,0
    112c:	0900                	addi	s0,sp,144
    112e:	0000                	unimp
    1130:	0301                	addi	t1,t1,0
    1132:	0900                	addi	s0,sp,144
    1134:	0000                	unimp
    1136:	0301                	addi	t1,t1,0
    1138:	0900                	addi	s0,sp,144
    113a:	0000                	unimp
    113c:	0301                	addi	t1,t1,0
    113e:	0900                	addi	s0,sp,144
    1140:	0000                	unimp
    1142:	0301                	addi	t1,t1,0
    1144:	0900                	addi	s0,sp,144
    1146:	0000                	unimp
    1148:	0301                	addi	t1,t1,0
    114a:	0900                	addi	s0,sp,144
    114c:	0000                	unimp
    114e:	0301                	addi	t1,t1,0
    1150:	0900                	addi	s0,sp,144
    1152:	0000                	unimp
    1154:	0301                	addi	t1,t1,0
    1156:	0900                	addi	s0,sp,144
    1158:	0000                	unimp
    115a:	0301                	addi	t1,t1,0
    115c:	0900                	addi	s0,sp,144
    115e:	0000                	unimp
    1160:	0301                	addi	t1,t1,0
    1162:	0900                	addi	s0,sp,144
    1164:	0000                	unimp
    1166:	0301                	addi	t1,t1,0
    1168:	0900                	addi	s0,sp,144
    116a:	0000                	unimp
    116c:	0301                	addi	t1,t1,0
    116e:	0900                	addi	s0,sp,144
    1170:	0000                	unimp
    1172:	0301                	addi	t1,t1,0
    1174:	0900                	addi	s0,sp,144
    1176:	0000                	unimp
    1178:	0301                	addi	t1,t1,0
    117a:	0900                	addi	s0,sp,144
    117c:	0000                	unimp
    117e:	0301                	addi	t1,t1,0
    1180:	0900                	addi	s0,sp,144
    1182:	0000                	unimp
    1184:	0301                	addi	t1,t1,0
    1186:	0900                	addi	s0,sp,144
    1188:	0000                	unimp
    118a:	0301                	addi	t1,t1,0
    118c:	0900                	addi	s0,sp,144
    118e:	0000                	unimp
    1190:	0301                	addi	t1,t1,0
    1192:	0900                	addi	s0,sp,144
    1194:	0000                	unimp
    1196:	0301                	addi	t1,t1,0
    1198:	0900                	addi	s0,sp,144
    119a:	0000                	unimp
    119c:	0301                	addi	t1,t1,0
    119e:	0900                	addi	s0,sp,144
    11a0:	0000                	unimp
    11a2:	0301                	addi	t1,t1,0
    11a4:	0900                	addi	s0,sp,144
    11a6:	0000                	unimp
    11a8:	0301                	addi	t1,t1,0
    11aa:	0900                	addi	s0,sp,144
    11ac:	0000                	unimp
    11ae:	0601                	addi	a2,a2,0
    11b0:	00090103          	lb	sp,0(s2)
    11b4:	0100                	addi	s0,sp,128
    11b6:	00097f03          	0x97f03
    11ba:	0100                	addi	s0,sp,128
    11bc:	0306                	slli	t1,t1,0x1
    11be:	0900                	addi	s0,sp,144
    11c0:	0000                	unimp
    11c2:	0301                	addi	t1,t1,0
    11c4:	0900                	addi	s0,sp,144
    11c6:	0000                	unimp
    11c8:	0301                	addi	t1,t1,0
    11ca:	0901                	addi	s2,s2,0
    11cc:	0000                	unimp
    11ce:	0301                	addi	t1,t1,0
    11d0:	0900                	addi	s0,sp,144
    11d2:	0000                	unimp
    11d4:	0301                	addi	t1,t1,0
    11d6:	0900                	addi	s0,sp,144
    11d8:	0000                	unimp
    11da:	0301                	addi	t1,t1,0
    11dc:	0900                	addi	s0,sp,144
    11de:	0000                	unimp
    11e0:	0301                	addi	t1,t1,0
    11e2:	0900                	addi	s0,sp,144
    11e4:	0000                	unimp
    11e6:	0301                	addi	t1,t1,0
    11e8:	0900                	addi	s0,sp,144
    11ea:	0000                	unimp
    11ec:	0301                	addi	t1,t1,0
    11ee:	0900                	addi	s0,sp,144
    11f0:	0000                	unimp
    11f2:	0301                	addi	t1,t1,0
    11f4:	0900                	addi	s0,sp,144
    11f6:	0000                	unimp
    11f8:	0301                	addi	t1,t1,0
    11fa:	0900                	addi	s0,sp,144
    11fc:	0000                	unimp
    11fe:	0301                	addi	t1,t1,0
    1200:	0900                	addi	s0,sp,144
    1202:	0000                	unimp
    1204:	0301                	addi	t1,t1,0
    1206:	0900                	addi	s0,sp,144
    1208:	0000                	unimp
    120a:	0301                	addi	t1,t1,0
    120c:	0900                	addi	s0,sp,144
    120e:	0000                	unimp
    1210:	0301                	addi	t1,t1,0
    1212:	0900                	addi	s0,sp,144
    1214:	0000                	unimp
    1216:	0301                	addi	t1,t1,0
    1218:	0900                	addi	s0,sp,144
    121a:	0000                	unimp
    121c:	0301                	addi	t1,t1,0
    121e:	0900                	addi	s0,sp,144
    1220:	0000                	unimp
    1222:	0301                	addi	t1,t1,0
    1224:	0900                	addi	s0,sp,144
    1226:	0000                	unimp
    1228:	0301                	addi	t1,t1,0
    122a:	0900                	addi	s0,sp,144
    122c:	0000                	unimp
    122e:	0301                	addi	t1,t1,0
    1230:	0900                	addi	s0,sp,144
    1232:	0000                	unimp
    1234:	0301                	addi	t1,t1,0
    1236:	0902                	c.slli64	s2
    1238:	0000                	unimp
    123a:	0501                	addi	a0,a0,0
    123c:	0003060b          	0x3060b
    1240:	0009                	c.nop	2
    1242:	0100                	addi	s0,sp,128
    1244:	1405                	addi	s0,s0,-31
    1246:	00090003          	lb	zero,0(s2)
    124a:	0100                	addi	s0,sp,128
    124c:	2105                	jal	166c <_start-0x7fffe994>
    124e:	00090003          	lb	zero,0(s2)
    1252:	0100                	addi	s0,sp,128
    1254:	0505                	addi	a0,a0,1
    1256:	0306                	slli	t1,t1,0x1
    1258:	0902                	c.slli64	s2
    125a:	0000                	unimp
    125c:	0301                	addi	t1,t1,0
    125e:	0901                	addi	s2,s2,0
    1260:	0000                	unimp
    1262:	0301                	addi	t1,t1,0
    1264:	0900                	addi	s0,sp,144
    1266:	0000                	unimp
    1268:	0301                	addi	t1,t1,0
    126a:	0900                	addi	s0,sp,144
    126c:	0000                	unimp
    126e:	0301                	addi	t1,t1,0
    1270:	0900                	addi	s0,sp,144
    1272:	0000                	unimp
    1274:	0301                	addi	t1,t1,0
    1276:	0900                	addi	s0,sp,144
    1278:	0000                	unimp
    127a:	0301                	addi	t1,t1,0
    127c:	0900                	addi	s0,sp,144
    127e:	0000                	unimp
    1280:	0501                	addi	a0,a0,0
    1282:	0308                	addi	a0,sp,384
    1284:	00000903          	lb	s2,0(zero) # 0 <_start-0x80000000>
    1288:	0301                	addi	t1,t1,0
    128a:	00000903          	lb	s2,0(zero) # 0 <_start-0x80000000>
    128e:	0501                	addi	a0,a0,0
    1290:	0305                	addi	t1,t1,1
    1292:	0902                	c.slli64	s2
    1294:	0000                	unimp
    1296:	0301                	addi	t1,t1,0
    1298:	0900                	addi	s0,sp,144
    129a:	0000                	unimp
    129c:	0301                	addi	t1,t1,0
    129e:	0900                	addi	s0,sp,144
    12a0:	0000                	unimp
    12a2:	0301                	addi	t1,t1,0
    12a4:	0900                	addi	s0,sp,144
    12a6:	0000                	unimp
    12a8:	0301                	addi	t1,t1,0
    12aa:	0900                	addi	s0,sp,144
    12ac:	0000                	unimp
    12ae:	0301                	addi	t1,t1,0
    12b0:	0900                	addi	s0,sp,144
    12b2:	0000                	unimp
    12b4:	0301                	addi	t1,t1,0
    12b6:	0901                	addi	s2,s2,0
    12b8:	0000                	unimp
    12ba:	0501                	addi	a0,a0,0
    12bc:	0614                	addi	a3,sp,768
    12be:	00090003          	lb	zero,0(s2)
    12c2:	0100                	addi	s0,sp,128
    12c4:	2005                	jal	12e4 <_start-0x7fffed1c>
    12c6:	00090003          	lb	zero,0(s2)
    12ca:	0100                	addi	s0,sp,128
    12cc:	0505                	addi	a0,a0,1
    12ce:	0306                	slli	t1,t1,0x1
    12d0:	0901                	addi	s2,s2,0
    12d2:	0000                	unimp
    12d4:	0301                	addi	t1,t1,0
    12d6:	0901                	addi	s2,s2,0
    12d8:	0000                	unimp
    12da:	0501                	addi	a0,a0,0
    12dc:	060d                	addi	a2,a2,3
    12de:	00090003          	lb	zero,0(s2)
    12e2:	0100                	addi	s0,sp,128
    12e4:	0009                	c.nop	2
    12e6:	0000                	unimp
    12e8:	0101                	addi	sp,sp,0

Disassembly of section .debug_str:

00000000 <.debug_str>:
   0:	726f6873          	csrrsi	a6,0x726,30
   4:	2074                	fld	fa3,192(s0)
   6:	6e69                	lui	t3,0x1a
   8:	0074                	addi	a3,sp,12
   a:	7468                	flw	fa0,108(s0)
   c:	6261                	lui	tp,0x18
   e:	685f 7361 5f68      	0x5f687361685f
  14:	6f70                	flw	fa2,92(a4)
  16:	6e69                	lui	t3,0x1a
  18:	6574                	flw	fa3,76(a0)
  1a:	0072                	c.slli	zero,0x1c
  1c:	735f 7a69 0065      	0x657a69735f
  22:	725f 6e61 3464      	0x34646e61725f
  28:	0038                	addi	a4,sp,8
  2a:	655f 656d 6772      	0x6772656d655f
  30:	6e65                	lui	t3,0x19
  32:	5f007963          	bgeu	zero,a6,624 <_start-0x7ffff9dc>
  36:	6164                	flw	fs1,68(a0)
  38:	6c79                	lui	s8,0x1e
  3a:	6769                	lui	a4,0x1a
  3c:	7468                	flw	fa0,108(s0)
  3e:	6300                	flw	fs0,0(a4)
  40:	6c706d6f          	jal	s10,6f06 <_start-0x7fff90fa>
  44:	7865                	lui	a6,0xffff9
  46:	6420                	flw	fs0,72(s0)
  48:	6c62756f          	jal	a0,2770e <_start-0x7ffd88f2>
  4c:	0065                	c.nop	25
  4e:	675f 7465 6164      	0x61647465675f
  54:	6574                	flw	fa3,76(a0)
  56:	655f 7272 5f00      	0x5f007272655f
  5c:	6164                	flw	fs1,68(a0)
  5e:	6174                	flw	fa3,68(a0)
  60:	5f00                	lw	s0,56(a4)
  62:	74726377          	0x74726377
  66:	5f626d6f          	jal	s10,2665c <_start-0x7ffd99a4>
  6a:	74617473          	csrrci	s0,0x746,2
  6e:	0065                	c.nop	25
  70:	6972                	flw	fs2,28(sp)
  72:	5f766373          	csrrsi	t1,0x5f7,12
  76:	696d                	lui	s2,0x1b
  78:	616f7263          	bgeu	t5,s6,67c <_start-0x7ffff984>
  7c:	6372                	flw	ft6,28(sp)
  7e:	6968                	flw	fa0,84(a0)
  80:	6574                	flw	fa3,76(a0)
  82:	72757463          	bgeu	a0,t2,7aa <_start-0x7ffff856>
  86:	5f65                	li	t5,-7
  88:	7974                	flw	fa3,116(a0)
  8a:	6570                	flw	fa2,76(a0)
  8c:	5f00                	lw	s0,56(a4)
  8e:	72736377          	0x72736377
  92:	6f74                	flw	fa3,92(a4)
  94:	626d                	lui	tp,0x1b
  96:	74735f73          	csrrwi	t5,0x747,6
  9a:	7461                	lui	s0,0xffff8
  9c:	0065                	c.nop	25
  9e:	5f5f 3064 5f00      	0x5f0030645f5f
  a4:	645f 0031 6c5f      	0x6c5f0031645f
  aa:	6662                	flw	fa2,24(sp)
  ac:	657a6973          	csrrsi	s2,0x657,20
  b0:	6f00                	flw	fs0,24(a4)
  b2:	7470                	flw	fa2,108(s0)
  b4:	6e69                	lui	t3,0x1a
  b6:	0064                	addi	s1,sp,12
  b8:	706d6f63          	bltu	s10,t1,7d6 <_start-0x7ffff82a>
  bc:	656c                	flw	fa1,76(a0)
  be:	2078                	fld	fa4,192(s0)
  c0:	6f6c                	flw	fa1,92(a4)
  c2:	676e                	flw	fa4,216(sp)
  c4:	6420                	flw	fs0,72(s0)
  c6:	6c62756f          	jal	a0,2778c <_start-0x7ffd8874>
  ca:	0065                	c.nop	25
  cc:	6972                	flw	fs2,28(sp)
  ce:	5f766373          	csrrsi	t1,0x5f7,12
  d2:	6261                	lui	tp,0x18
  d4:	0069                	c.nop	26
  d6:	5f5f 6f6c 6163      	0x61636f6c5f5f
  dc:	656c                	flw	fa1,76(a0)
  de:	745f 5f00 626d      	0x626d5f00745f
  e4:	7472                	flw	fs0,60(sp)
  e6:	5f63776f          	jal	a4,376dc <_start-0x7ffc8924>
  ea:	74617473          	csrrci	s0,0x746,2
  ee:	0065                	c.nop	25
  f0:	745f 6e7a 6d61      	0x6d616e7a745f
  f6:	0065                	c.nop	25
  f8:	5f5f 6d74 735f      	0x735f6d745f5f
  fe:	6365                	lui	t1,0x19
 100:	5f00                	lw	s0,56(a4)
 102:	736f6c63          	bltu	t5,s6,83a <_start-0x7ffff7c6>
 106:	0065                	c.nop	25
 108:	755f 7562 0066      	0x667562755f
 10e:	625f 7361 0065      	0x657361625f
 114:	5f5f 6d74 685f      	0x685f6d745f5f
 11a:	0072756f          	jal	a0,27920 <_start-0x7ffd86e0>
 11e:	775f 7463 6d6f      	0x6d6f7463775f
 124:	5f62                	lw	t5,56(sp)
 126:	74617473          	csrrci	s0,0x746,2
 12a:	0065                	c.nop	25
 12c:	5f5f 6673 5f00      	0x5f0066735f5f
 132:	655f6e6f          	jal	t3,f6f86 <_start-0x7ff0907a>
 136:	6978                	flw	fa4,84(a0)
 138:	5f74                	lw	a3,124(a4)
 13a:	7261                	lui	tp,0xffff8
 13c:	5f007367          	0x5f007367
 140:	6b6f6f63          	bltu	t5,s6,7fe <_start-0x7ffff802>
 144:	6569                	lui	a0,0x1a
 146:	5f00                	lw	s0,56(a4)
 148:	735f 6c67 6575      	0x65756c67735f
 14e:	5f00                	lw	s0,56(a4)
 150:	6c66                	flw	fs8,88(sp)
 152:	6761                	lui	a4,0x18
 154:	695f0073          	0x695f0073
 158:	78635f73          	csrrwi	t5,0x786,6
 15c:	0061                	c.nop	24
 15e:	775f 7364 5f00      	0x5f007364775f
 164:	465f 4c49 0045      	0x454c49465f
 16a:	725f 7365 6c75      	0x6c757365725f
 170:	5f74                	lw	a3,124(a4)
 172:	5355006b          	0x5355006b
 176:	7449                	lui	s0,0xffff2
 178:	7079                	c.lui	zero,0xffffe
 17a:	0065                	c.nop	25
 17c:	6972                	flw	fs2,28(sp)
 17e:	5f766373          	csrrsi	t1,0x5f7,12
 182:	696d                	lui	s2,0x1b
 184:	616f7263          	bgeu	t5,s6,788 <_start-0x7ffff878>
 188:	6372                	flw	ft6,28(sp)
 18a:	6968                	flw	fa0,84(a0)
 18c:	6574                	flw	fa3,76(a0)
 18e:	72757463          	bgeu	a0,t2,8b6 <_start-0x7ffff74a>
 192:	0065                	c.nop	25
 194:	735f 7379 655f      	0x655f7379735f
 19a:	7272                	flw	ft4,60(sp)
 19c:	696c                	flw	fa1,84(a0)
 19e:	5f007473          	csrrci	s0,0x5f0,0
 1a2:	62747663          	bgeu	s0,t2,7ce <_start-0x7ffff832>
 1a6:	6675                	lui	a2,0x1d
 1a8:	5f00                	lw	s0,56(a4)
 1aa:	626d                	lui	tp,0x1b
 1ac:	6f747273          	csrrci	tp,0x6f7,8
 1b0:	5f736377          	0x5f736377
 1b4:	74617473          	csrrci	s0,0x746,2
 1b8:	0065                	c.nop	25
 1ba:	6d5f 7262 656c      	0x656c72626d5f
 1c0:	5f6e                	lw	t5,248(sp)
 1c2:	74617473          	csrrci	s0,0x746,2
 1c6:	0065                	c.nop	25
 1c8:	6972                	flw	fs2,28(sp)
 1ca:	5f766373          	csrrsi	t1,0x5f7,12
 1ce:	646f6d63          	bltu	t5,t1,828 <_start-0x7ffff7d8>
 1d2:	6c65                	lui	s8,0x19
 1d4:	5f00                	lw	s0,56(a4)
 1d6:	6e66                	flw	ft8,88(sp)
 1d8:	7261                	lui	tp,0xffff8
 1da:	5f007367          	0x5f007367
 1de:	6e66                	flw	ft8,88(sp)
 1e0:	735f0073          	0x735f0073
 1e4:	6769                	lui	a4,0x1a
 1e6:	006e                	c.slli	zero,0x1b
 1e8:	735f 6474 7265      	0x72656474735f
 1ee:	0072                	c.slli	zero,0x1c
 1f0:	675f 6d61 616d      	0x616d6d61675f
 1f6:	735f 6769 676e      	0x676e6769735f
 1fc:	6d61                	lui	s10,0x18
 1fe:	5f00                	lw	s0,56(a4)
 200:	6d6e                	flw	fs10,216(sp)
 202:	6c61                	lui	s8,0x18
 204:	6f6c                	flw	fa1,92(a4)
 206:	755f0063          	beq	t5,s5,946 <_start-0x7ffff6ba>
 20a:	736e                	flw	ft6,248(sp)
 20c:	6570                	flw	fa2,76(a0)
 20e:	69666963          	bltu	a2,s6,8a0 <_start-0x7ffff760>
 212:	6465                	lui	s0,0x19
 214:	6c5f 636f 6c61      	0x6c61636f6c5f
 21a:	5f65                	li	t5,-7
 21c:	6e69                	lui	t3,0x1a
 21e:	6f66                	flw	ft10,88(sp)
 220:	5f00                	lw	s0,56(a4)
 222:	745f 006d 6972      	0x6972006d745f
 228:	5f766373          	csrrsi	t1,0x5f7,12
 22c:	6261                	lui	tp,0x18
 22e:	5f69                	li	t5,-6
 230:	7974                	flw	fa3,116(a0)
 232:	6570                	flw	fa2,76(a0)
 234:	5f00                	lw	s0,56(a4)
 236:	626d                	lui	tp,0x1b
 238:	74617473          	csrrci	s0,0x746,2
 23c:	0065                	c.nop	25
 23e:	5f5f 6377 6268      	0x626863775f5f
 244:	5f00                	lw	s0,56(a4)
 246:	6c747663          	bgeu	s0,t2,912 <_start-0x7ffff6ee>
 24a:	6e65                	lui	t3,0x19
 24c:	5f00                	lw	s0,56(a4)
 24e:	6966                	flw	fs2,88(sp)
 250:	656c                	flw	fa1,76(a0)
 252:	6800                	flw	fs0,16(s0)
 254:	7361                	lui	t1,0xffff8
 256:	7668                	flw	fa0,108(a2)
 258:	6c61                	lui	s8,0x18
 25a:	745f 4400 7557      	0x75574400745f
 260:	696e                	flw	fs2,216(sp)
 262:	5f006e6f          	jal	t3,6852 <_start-0x7fff97ae>
 266:	696e                	flw	fs2,216(sp)
 268:	0073626f          	jal	tp,36a6e <_start-0x7ffc9592>
 26c:	6f6c                	flw	fa1,92(a4)
 26e:	676e                	flw	fa4,216(sp)
 270:	6c20                	flw	fs0,88(s0)
 272:	20676e6f          	jal	t3,76478 <_start-0x7ff89b88>
 276:	6e75                	lui	t3,0x1d
 278:	6e676973          	csrrsi	s2,0x6e6,14
 27c:	6465                	lui	s0,0x19
 27e:	6920                	flw	fs0,80(a0)
 280:	746e                	flw	fs0,248(sp)
 282:	4400                	lw	s0,8(s0)
 284:	72747357          	0x72747357
 288:	6375                	lui	t1,0x1d
 28a:	0074                	addi	a3,sp,12
 28c:	726f6873          	csrrsi	a6,0x726,30
 290:	2074                	fld	fa3,192(s0)
 292:	6e75                	lui	t3,0x1d
 294:	6e676973          	csrrsi	s2,0x6e6,14
 298:	6465                	lui	s0,0x19
 29a:	6920                	flw	fs0,80(a0)
 29c:	746e                	flw	fs0,248(sp)
 29e:	5f00                	lw	s0,56(a4)
 2a0:	635f 7a6c 745f      	0x745f7a6c635f
 2a6:	6261                	lui	tp,0x18
 2a8:	5f00                	lw	s0,56(a4)
 2aa:	7461                	lui	s0,0xffff8
 2ac:	7865                	lui	a6,0xffff9
 2ae:	7469                	lui	s0,0xffffa
 2b0:	0030                	addi	a2,sp,8
 2b2:	735f 6769 616e      	0x616e6769735f
 2b8:	5f6c                	lw	a1,124(a4)
 2ba:	7562                	flw	fa0,56(sp)
 2bc:	0066                	c.slli	zero,0x19
 2be:	615f 6373 6974      	0x69746373615f
 2c4:	656d                	lui	a0,0x1b
 2c6:	625f 6675 5f00      	0x5f006675625f
 2cc:	6572                	flw	fa0,28(sp)
 2ce:	746c7573          	csrrci	a0,0x746,24
 2d2:	5f00                	lw	s0,56(a4)
 2d4:	775f 6863 5f00      	0x5f006863775f
 2da:	656e                	flw	fa0,216(sp)
 2dc:	7478                	flw	fa4,108(s0)
 2de:	0066                	c.slli	zero,0x19
 2e0:	6e65                	lui	t3,0x19
 2e2:	6976                	flw	fs2,92(sp)
 2e4:	6f72                	flw	ft10,28(sp)
 2e6:	006e                	c.slli	zero,0x1b
 2e8:	746e6977          	0x746e6977
 2ec:	745f 5f00 6f6c      	0x6f6c5f00745f
 2f2:	5f006b63          	bltu	zero,a6,8e8 <_start-0x7ffff718>
 2f6:	755f 0068 4241      	0x42410068755f
 2fc:	5f49                	li	t5,-14
 2fe:	4c49                	li	s8,18
 300:	3350                	fld	fa2,160(a4)
 302:	4532                	lw	a0,12(sp)
 304:	5f00                	lw	s0,56(a4)
 306:	756d                	lui	a0,0xffffb
 308:	746c                	flw	fa1,108(s0)
 30a:	5f00                	lw	s0,56(a4)
 30c:	755f 006c 6e75      	0x6e75006c755f
 312:	63657073          	csrci	0x636,10
 316:	735f 7274 6e69      	0x6e697274735f
 31c:	6f007367          	0x6f007367
 320:	7470                	flw	fa2,108(s0)
 322:	6572                	flw	fa0,28(sp)
 324:	00746573          	csrrsi	a0,0x7,8
 328:	775f 6972 6574      	0x65746972775f
 32e:	5f00                	lw	s0,56(a4)
 330:	745f 5f6d 6579      	0x65795f6d745f
 336:	7261                	lui	tp,0xffff8
 338:	5f00                	lw	s0,56(a4)
 33a:	635f 756f 746e      	0x746e756f635f
 340:	5f00                	lw	s0,56(a4)
 342:	6e75                	lui	t3,0x1d
 344:	7375                	lui	t1,0xffffd
 346:	6465                	lui	s0,0x19
 348:	725f 6e61 0064      	0x646e61725f
 34e:	4241                	li	tp,16
 350:	5f49                	li	t5,-14
 352:	4c49                	li	s8,18
 354:	3350                	fld	fa2,160(a4)
 356:	4432                	lw	s0,12(sp)
 358:	7200                	flw	fs0,32(a2)
 35a:	7369                	lui	t1,0xffffa
 35c:	635f7663          	bgeu	t5,s5,988 <_start-0x7ffff678>
 360:	5f65646f          	jal	s0,56956 <_start-0x7ffa96aa>
 364:	6f6d                	lui	t5,0x1b
 366:	6564                	flw	fs1,76(a0)
 368:	006c                	addi	a1,sp,12
 36a:	6f5f 6666 6573      	0x657366666f5f
 370:	0074                	addi	a3,sp,12
 372:	425f 6769 6e69      	0x6e696769425f
 378:	0074                	addi	a3,sp,12
 37a:	20554e47          	fmsub.s	ft8,fa0,ft5,ft4,rmm
 37e:	20373143          	fmadd.s	ft2,fa4,ft3,ft4,rup
 382:	2e39                	jal	6a0 <_start-0x7ffff960>
 384:	2e32                	fld	ft8,264(sp)
 386:	2030                	fld	fa2,64(s0)
 388:	6d2d                	lui	s10,0xb
 38a:	646f6d63          	bltu	t5,t1,9e4 <_start-0x7ffff61c>
 38e:	6c65                	lui	s8,0x19
 390:	6d3d                	lui	s10,0xf
 392:	6465                	lui	s0,0x19
 394:	6f6c                	flw	fa1,92(a4)
 396:	6d2d2077          	0x6d2d2077
 39a:	646f6d63          	bltu	t5,t1,9f4 <_start-0x7ffff60c>
 39e:	6c65                	lui	s8,0x19
 3a0:	6d3d                	lui	s10,0xf
 3a2:	6465                	lui	s0,0x19
 3a4:	6f6c                	flw	fa1,92(a4)
 3a6:	6d2d2077          	0x6d2d2077
 3aa:	7574                	flw	fa3,108(a0)
 3ac:	656e                	flw	fa0,216(sp)
 3ae:	723d                	lui	tp,0xfffef
 3b0:	656b636f          	jal	t1,b6a06 <_start-0x7ff495fa>
 3b4:	2074                	fld	fa3,192(s0)
 3b6:	6d2d                	lui	s10,0xb
 3b8:	7261                	lui	tp,0xffff8
 3ba:	723d6863          	bltu	s10,gp,aea <_start-0x7ffff516>
 3be:	3376                	fld	ft6,376(sp)
 3c0:	6932                	flw	fs2,12(sp)
 3c2:	206d                	jal	46c <_start-0x7ffffb94>
 3c4:	6d2d                	lui	s10,0xb
 3c6:	6261                	lui	tp,0x18
 3c8:	3d69                	jal	262 <_start-0x7ffffd9e>
 3ca:	6c69                	lui	s8,0x1a
 3cc:	3370                	fld	fa2,224(a4)
 3ce:	2032                	fld	ft0,264(sp)
 3d0:	672d                	lui	a4,0xb
 3d2:	2d20                	fld	fs0,88(a0)
 3d4:	2d20734f          	0x2d20734f
 3d8:	2d20324f          	0x2d20324f
 3dc:	2d20734f          	0x2d20734f
 3e0:	6266                	flw	ft4,88(sp)
 3e2:	6975                	lui	s2,0x1d
 3e4:	646c                	flw	fa1,76(s0)
 3e6:	6e69                	lui	t3,0x1a
 3e8:	696c2d67          	0x696c2d67
 3ec:	6762                	flw	fa4,24(sp)
 3ee:	2d206363          	bltu	zero,s2,6b4 <_start-0x7ffff94c>
 3f2:	6e66                	flw	ft8,88(sp)
 3f4:	74732d6f          	jal	s10,3333a <_start-0x7ffcccc6>
 3f8:	6361                	lui	t1,0x18
 3fa:	72702d6b          	0x72702d6b
 3fe:	6365746f          	jal	s0,57a34 <_start-0x7ffa85cc>
 402:	6f74                	flw	fa3,92(a4)
 404:	2072                	fld	ft0,280(sp)
 406:	662d                	lui	a2,0xb
 408:	7865                	lui	a6,0xffff9
 40a:	74706563          	bltu	zero,t2,b54 <_start-0x7ffff4ac>
 40e:	6f69                	lui	t5,0x1a
 410:	736e                	flw	ft6,248(sp)
 412:	2d20                	fld	fs0,88(a0)
 414:	6e66                	flw	ft8,88(sp)
 416:	632d6e6f          	jal	t3,d6a48 <_start-0x7ff295b8>
 41a:	6c61                	lui	s8,0x18
 41c:	2d6c                	fld	fa1,216(a0)
 41e:	7865                	lui	a6,0xffff9
 420:	74706563          	bltu	zero,t2,b6a <_start-0x7ffff496>
 424:	6f69                	lui	t5,0x1a
 426:	736e                	flw	ft6,248(sp)
 428:	2d20                	fld	fs0,88(a0)
 42a:	7666                	flw	fa2,120(sp)
 42c:	7369                	lui	t1,0xffffa
 42e:	6269                	lui	tp,0x1a
 430:	6c69                	lui	s8,0x1a
 432:	7469                	lui	s0,0xffffa
 434:	3d79                	jal	2d2 <_start-0x7ffffd2e>
 436:	6968                	flw	fa0,84(a0)
 438:	6464                	flw	fs1,76(s0)
 43a:	6e65                	lui	t3,0x19
 43c:	4100                	lw	s0,0(a0)
 43e:	4942                	lw	s2,16(sp)
 440:	495f 504c 3233      	0x3233504c495f
 446:	0046                	c.slli	zero,0x11
 448:	706d6f63          	bltu	s10,t1,b66 <_start-0x7ffff49a>
 44c:	656c                	flw	fa1,76(a0)
 44e:	2078                	fld	fa4,192(s0)
 450:	6c66                	flw	fs8,88(sp)
 452:	0074616f          	jal	sp,46c58 <_start-0x7ffb93a8>
 456:	6f6c                	flw	fa1,92(a4)
 458:	676e                	flw	fa4,216(sp)
 45a:	6c20                	flw	fs0,88(s0)
 45c:	20676e6f          	jal	t3,76662 <_start-0x7ff8999e>
 460:	6e69                	lui	t3,0x1a
 462:	0074                	addi	a3,sp,12
 464:	5f5f 6d74 6d5f      	0x6d5f6d745f5f
 46a:	5f006e6f          	jal	t3,6a5a <_start-0x7fff95a6>
 46e:	7461                	lui	s0,0xffff8
 470:	7865                	lui	a6,0xffff9
 472:	7469                	lui	s0,0xffffa
 474:	7300                	flw	fs0,32(a4)
 476:	6275                	lui	tp,0x1d
 478:	6174706f          	j	4828e <_start-0x7ffb7d72>
 47c:	6772                	flw	fa4,28(sp)
 47e:	5f00                	lw	s0,56(a4)
 480:	735f 6964 6964      	0x69646964735f
 486:	696e                	flw	fs2,216(sp)
 488:	0074                	addi	a3,sp,12
 48a:	6f5f 6666 745f      	0x745f66666f5f
 490:	5f00                	lw	s0,56(a4)
 492:	765f 0068 682f      	0x682f0068765f
 498:	2f656d6f          	jal	s10,5678e <_start-0x7ffa9872>
 49c:	6c62                	flw	fs8,24(sp)
 49e:	6961                	lui	s2,0x18
 4a0:	642f6573          	csrrsi	a0,0x642,30
 4a4:	7665                	lui	a2,0xffff9
 4a6:	7369722f          	0x7369722f
 4aa:	672d7663          	bgeu	s10,s2,b16 <_start-0x7ffff4ea>
 4ae:	756e                	flw	fa0,248(sp)
 4b0:	742d                	lui	s0,0xfffeb
 4b2:	636c6f6f          	jal	t5,c6ae8 <_start-0x7ff39518>
 4b6:	6168                	flw	fa0,68(a0)
 4b8:	6e69                	lui	t3,0x1a
 4ba:	2f32                	fld	ft10,264(sp)
 4bc:	7562                	flw	fa0,56(sp)
 4be:	6c69                	lui	s8,0x1a
 4c0:	2f64                	fld	fs1,216(a4)
 4c2:	7562                	flw	fa0,56(sp)
 4c4:	6c69                	lui	s8,0x1a
 4c6:	2d64                	fld	fs1,216(a0)
 4c8:	2d636367          	0x2d636367
 4cc:	656e                	flw	fa0,216(sp)
 4ce:	62696c77          	0x62696c77
 4d2:	732d                	lui	t1,0xfffeb
 4d4:	6174                	flw	fa3,68(a0)
 4d6:	2f326567          	0x2f326567
 4da:	6972                	flw	fs2,28(sp)
 4dc:	33766373          	csrrsi	t1,mhpmevent23,12
 4e0:	2d32                	fld	fs10,264(sp)
 4e2:	6e75                	lui	t3,0x1d
 4e4:	776f6e6b          	0x776f6e6b
 4e8:	2d6e                	fld	fs10,216(sp)
 4ea:	6c65                	lui	s8,0x19
 4ec:	2f66                	fld	ft10,88(sp)
 4ee:	696c                	flw	fa1,84(a0)
 4f0:	6762                	flw	fa4,24(sp)
 4f2:	5f006363          	bltu	zero,a6,ad8 <_start-0x7ffff528>
 4f6:	765f 006c 665f      	0x665f006c765f
 4fc:	6572                	flw	fa0,28(sp)
 4fe:	6c65                	lui	s8,0x19
 500:	7369                	lui	t1,0xffffa
 502:	0074                	addi	a3,sp,12
 504:	745f 6d69 7a65      	0x7a656d69745f
 50a:	00656e6f          	jal	t3,56510 <_start-0x7ffa9af0>
 50e:	6d5f 7362 6174      	0x617473626d5f
 514:	6574                	flw	fa3,76(a0)
 516:	745f 5f00 4f4c      	0x4f4c5f00745f
 51c:	525f4b43          	fmadd.d	fs6,ft10,ft5,fa0,rmm
 520:	4345                	li	t1,17
 522:	5255                	li	tp,-11
 524:	45564953          	0x45564953
 528:	545f 5f00 6572      	0x65725f00545f
 52e:	6461                	lui	s0,0x18
 530:	2e00                	fld	fs0,24(a2)
 532:	2f2e                	fld	ft10,200(sp)
 534:	2e2e                	fld	ft8,200(sp)
 536:	2f2e2e2f          	0x2f2e2e2f
 53a:	2e2e                	fld	ft8,200(sp)
 53c:	7369722f          	0x7369722f
 540:	672d7663          	bgeu	s10,s2,bac <_start-0x7ffff454>
 544:	6c2f6363          	bltu	t5,sp,c0a <_start-0x7ffff3f6>
 548:	6269                	lui	tp,0x1a
 54a:	2f636367          	0x2f636367
 54e:	696c                	flw	fa1,84(a0)
 550:	6762                	flw	fa4,24(sp)
 552:	2e326363          	bltu	tp,gp,838 <_start-0x7ffff7c8>
 556:	42410063          	beq	sp,tp,976 <_start-0x7ffff68a>
 55a:	5f49                	li	t5,-14
 55c:	504c                	lw	a1,36(s0)
 55e:	3436                	fld	fs0,360(sp)
 560:	4100                	lw	s0,0(a0)
 562:	4942                	lw	s2,16(sp)
 564:	495f 504c 3233      	0x3233504c495f
 56a:	5f00                	lw	s0,56(a4)
 56c:	7364                	flw	fs1,100(a4)
 56e:	61685f6f          	jal	t5,85b84 <_start-0x7ff7a47c>
 572:	646e                	flw	fs0,216(sp)
 574:	656c                	flw	fa1,76(a0)
 576:	4300                	lw	s0,0(a4)
 578:	5f4d                	li	t5,-13
 57a:	454d                	li	a0,19
 57c:	4144                	lw	s1,4(a0)
 57e:	594e                	lw	s2,240(sp)
 580:	5f00                	lw	s0,56(a4)
 582:	656e                	flw	fa0,216(sp)
 584:	685f0077          	0x685f0077
 588:	655f 7272 6f6e      	0x6f6e7272655f
 58e:	5f00                	lw	s0,56(a4)
 590:	6c66                	flw	fs8,88(sp)
 592:	5f6b636f          	jal	t1,b6b88 <_start-0x7ff49478>
 596:	0074                	addi	a3,sp,12
 598:	5f5f 6d74 795f      	0x795f6d745f5f
 59e:	6164                	flw	fs1,68(a0)
 5a0:	0079                	c.nop	30
 5a2:	665f 616c 7367      	0x7367616c665f
 5a8:	0032                	c.slli	zero,0xc
 5aa:	695f 626f 0073      	0x73626f695f
 5b0:	4d5f4d43          	0x4d5f4d43
 5b4:	4445                	li	s0,17
 5b6:	4f4c                	lw	a1,28(a4)
 5b8:	74680057          	0x74680057
 5bc:	6261                	lui	tp,0x18
 5be:	685f 7361 0068      	0x687361685f
 5c4:	5f5f 4673 4c49      	0x4c4946735f5f
 5ca:	0045                	c.nop	17
 5cc:	735f 7379 6e5f      	0x6e5f7379735f
 5d2:	7265                	lui	tp,0xffff9
 5d4:	0072                	c.slli	zero,0x1c
 5d6:	6d5f 6c62 6e65      	0x6e656c626d5f
 5dc:	735f 6174 6574      	0x65746174735f
 5e2:	5f00                	lw	s0,56(a4)
 5e4:	6e69                	lui	t3,0x1a
 5e6:	695f0063          	beq	t5,s5,c66 <_start-0x7ffff39a>
 5ea:	646e                	flw	fs0,216(sp)
 5ec:	5f00                	lw	s0,56(a4)
 5ee:	755f 6964 6476      	0x64766964755f
 5f4:	3369                	jal	37e <_start-0x7ffffc82>
 5f6:	5f00                	lw	s0,56(a4)
 5f8:	635f 656c 6e61      	0x6e61656c635f
 5fe:	7075                	c.lui	zero,0xffffd
 600:	5f00                	lw	s0,56(a4)
 602:	616d                	addi	sp,sp,240
 604:	7778                	flw	fa4,108(a4)
 606:	7364                	flw	fs1,100(a4)
 608:	5f00                	lw	s0,56(a4)
 60a:	6572                	flw	fa0,28(sp)
 60c:	6e65                	lui	t3,0x19
 60e:	0074                	addi	a3,sp,12
 610:	5f5f 3078 5f00      	0x5f0030785f5f
 616:	785f 0031 5f5f      	0x5f5f0031785f
 61c:	3278                	fld	fa4,224(a2)
 61e:	5f00                	lw	s0,56(a4)
 620:	785f 0033 5f5f      	0x5f5f0033785f
 626:	6176                	flw	ft2,92(sp)
 628:	756c                	flw	fa1,108(a0)
 62a:	0065                	c.nop	25
 62c:	735f 6565 006b      	0x6b6565735f
 632:	665f 6f70 5f73      	0x5f736f70665f
 638:	0074                	addi	a3,sp,12
 63a:	69666973          	csrrsi	s2,0x696,12
 63e:	6576                	flw	fa0,92(sp)
 640:	375f 5f00 6c62      	0x6c625f00375f
 646:	7a69736b          	0x7a69736b
 64a:	0065                	c.nop	25
 64c:	656e6567          	0x656e6567
 650:	6972                	flw	fs2,28(sp)
 652:	5f5f0063          	beq	t5,s5,c32 <_start-0x7ffff3ce>
 656:	6475                	lui	s0,0x1d
 658:	7669                	lui	a2,0xffffa
 65a:	6f6d                	lui	t5,0x1b
 65c:	6464                	flw	fs1,76(s0)
 65e:	3469                	jal	e8 <_start-0x7fffff18>
 660:	7500                	flw	fs0,40(a0)
 662:	736e                	flw	ft6,248(sp)
 664:	6570                	flw	fa2,76(a0)
 666:	735f7663          	bgeu	t5,s5,d92 <_start-0x7ffff26e>
 66a:	7274                	flw	fa3,100(a2)
 66c:	6e69                	lui	t3,0x1a
 66e:	5f007367          	0x5f007367
 672:	64656573          	csrrsi	a0,0x646,10
 676:	6f00                	flw	fs0,24(a4)
 678:	7470                	flw	fa2,108(s0)
 67a:	7265                	lui	tp,0xffff9
 67c:	0072                	c.slli	zero,0x1c
 67e:	6968                	flw	fa0,84(a0)
 680:	5f006867          	0x5f006867
 684:	715f 0030 5f5f      	0x5f5f0030715f
 68a:	3171                	jal	316 <_start-0x7ffffcea>
 68c:	5f00                	lw	s0,56(a4)
 68e:	74727473          	csrrci	s0,0x747,4
 692:	6c5f6b6f          	jal	s6,f7556 <_start-0x7ff08aaa>
 696:	7361                	lui	t1,0xffff8
 698:	0074                	addi	a3,sp,12
 69a:	505f4d43          	fmadd.s	fs10,ft10,ft5,fa0,rmm
 69e:	4349                	li	t1,18
 6a0:	5f00                	lw	s0,56(a4)
 6a2:	6e66                	flw	ft8,88(sp)
 6a4:	7974                	flw	fa3,116(a0)
 6a6:	6570                	flw	fa2,76(a0)
 6a8:	6e750073          	0x6e750073
 6ac:	6e676973          	csrrsi	s2,0x6e6,14
 6b0:	6465                	lui	s0,0x19
 6b2:	6320                	flw	fs0,64(a4)
 6b4:	6168                	flw	fa0,68(a0)
 6b6:	0072                	c.slli	zero,0x1c
 6b8:	615f 6464 5f00      	0x5f006464615f
 6be:	555f 6f4c 676e      	0x676e6f4c555f
 6c4:	6800                	flw	fs0,16(s0)
 6c6:	6174                	flw	fa3,68(a0)
 6c8:	5f62                	lw	t5,56(sp)
 6ca:	7165                	addi	sp,sp,-400
 6cc:	705f 696f 746e      	0x746e696f705f
 6d2:	7265                	lui	tp,0xffff9
 6d4:	5f00                	lw	s0,56(a4)
 6d6:	785f 0072 675f      	0x675f0072785f
 6dc:	6f6c                	flw	fa1,92(a4)
 6de:	6162                	flw	ft2,24(sp)
 6e0:	5f6c                	lw	a1,124(a4)
 6e2:	6d69                	lui	s10,0x1a
 6e4:	7570                	flw	fa2,108(a0)
 6e6:	6572                	flw	fa0,28(sp)
 6e8:	705f 7274 5500      	0x55007274705f
 6ee:	4944                	lw	s1,20(a0)
 6f0:	7974                	flw	fa3,116(a0)
 6f2:	6570                	flw	fa2,76(a0)
 6f4:	5f00                	lw	s0,56(a4)
 6f6:	6f647473          	csrrci	s0,0x6f6,8
 6fa:	7475                	lui	s0,0xffffd
 6fc:	5f00                	lw	s0,56(a4)
 6fe:	745f 5f6d 6477      	0x64775f6d745f
 704:	7961                	lui	s2,0xffff8
 706:	5f00                	lw	s0,56(a4)
 708:	65756c67          	0x65756c67
 70c:	5f00                	lw	s0,56(a4)
 70e:	69647473          	csrrci	s0,0x696,8
 712:	006e                	c.slli	zero,0x1b
 714:	735f 6973 657a      	0x657a6973735f
 71a:	745f 5f00 366c      	0x366c5f00745f
 720:	6134                	flw	fa3,64(a0)
 722:	625f 6675 5f00      	0x5f006675625f
 728:	5f676973          	csrrsi	s2,0x5f6,14
 72c:	7566                	flw	fa0,120(sp)
 72e:	636e                	flw	ft6,216(sp)
 730:	5f00                	lw	s0,56(a4)
 732:	705f 706f 6f63      	0x6f63706f705f
 738:	6e75                	lui	t3,0x1d
 73a:	5f74                	lw	a3,124(a4)
 73c:	6174                	flw	fa3,68(a0)
 73e:	0062                	c.slli	zero,0x18
 740:	6e5f 7562 0066      	0x6675626e5f
 746:	755f 756e 6573      	0x6573756e755f
 74c:	0064                	addi	s1,sp,12
 74e:	5f5f 3072 5f00      	0x5f0030725f5f
 754:	725f 0031 5f5f      	0x5f5f0031725f
 75a:	6d74                	flw	fa3,92(a0)
 75c:	695f 6473 7473      	0x74736473695f
 762:	5f00                	lw	s0,56(a4)
 764:	6f6c                	flw	fa1,92(a4)
 766:	746c6163          	bltu	s8,t1,ea8 <_start-0x7ffff158>
 76a:	6d69                	lui	s10,0x1a
 76c:	5f65                	li	t5,-7
 76e:	7562                	flw	fa0,56(sp)
 770:	0066                	c.slli	zero,0x19
 772:	5f5f 6d74 6d5f      	0x6d5f6d745f5f
 778:	6e69                	lui	t3,0x1a
 77a:	5f00                	lw	s0,56(a4)
 77c:	3472                	fld	fs0,312(sp)
 77e:	0038                	addi	a4,sp,8
 780:	4241                	li	tp,16
 782:	5f49                	li	t5,-14
 784:	504c                	lw	a1,36(s0)
 786:	3436                	fld	fs0,360(sp)
 788:	0044                	addi	s1,sp,4
 78a:	6f74706f          	j	48680 <_start-0x7ffb7980>
 78e:	7470                	flw	fa2,108(s0)
 790:	4100                	lw	s0,0(a0)
 792:	4942                	lw	s2,16(sp)
 794:	4c5f 3650 4634      	0x463436504c5f
 79a:	5f00                	lw	s0,56(a4)
 79c:	626d                	lui	tp,0x1b
 79e:	6f74                	flw	fa3,92(a4)
 7a0:	735f6377          	0x735f6377
 7a4:	6174                	flw	fa3,68(a0)
 7a6:	6574                	flw	fa3,76(a0)
 7a8:	5f00                	lw	s0,56(a4)
 7aa:	3570                	fld	fa2,232(a0)
 7ac:	6c5f0073          	0x6c5f0073
 7b0:	6c61636f          	jal	t1,16e76 <_start-0x7ffe918a>
 7b4:	0065                	c.nop	25
 7b6:	5155                	li	sp,-11
 7b8:	7449                	lui	s0,0xffff2
 7ba:	7079                	c.lui	zero,0xffffe
 7bc:	0065                	c.nop	25
 7be:	5f5f 6273 6675      	0x667562735f5f
 7c4:	5f00                	lw	s0,56(a4)
 7c6:	745f 5f6d 646d      	0x646d5f6d745f
 7cc:	7961                	lui	s2,0xffff8
 7ce:	5f00                	lw	s0,56(a4)
 7d0:	6172                	flw	ft2,28(sp)
 7d2:	646e                	flw	fs0,216(sp)
 7d4:	6e5f 7865 0074      	0x7478656e5f
 7da:	7468                	flw	fa0,108(s0)
 7dc:	6261                	lui	tp,0x18
 7de:	655f 0071 5f5f      	0x5f5f0071655f
 7e4:	6d75                	lui	s10,0x1d
 7e6:	6964646f          	jal	s0,46e7c <_start-0x7ffb9184>
 7ea:	          	add	zero,zero,zero

Disassembly of section .debug_loc:

00000000 <.debug_loc>:
	...
       8:	0006                	c.slli	zero,0x1
       a:	935a                	add	t1,t1,s6
       c:	5b04                	lw	s1,48(a4)
       e:	00000493          	li	s1,0
      12:	0000                	unimp
      14:	0000                	unimp
      16:	0000                	unimp
      18:	0006                	c.slli	zero,0x1
      1a:	0af503f3          	0xaf503f3
      1e:	9f25                	0x9f25
	...
      30:	0006                	c.slli	zero,0x1
      32:	935c                	0x935c
      34:	5d04                	lw	s1,56(a0)
      36:	00000493          	li	s1,0
      3a:	0000                	unimp
      3c:	0000                	unimp
      3e:	0000                	unimp
      40:	0006                	c.slli	zero,0x1
      42:	0cf503f3          	0xcf503f3
      46:	9f25                	0x9f25
	...
      50:	0006                	c.slli	zero,0x1
      52:	935c                	0x935c
      54:	5d04                	lw	s1,56(a0)
      56:	00000493          	li	s1,0
      5a:	0000                	unimp
      5c:	0000                	unimp
      5e:	0000                	unimp
      60:	0006                	c.slli	zero,0x1
      62:	0cf503f3          	0xcf503f3
      66:	9f25                	0x9f25
	...
      70:	0006                	c.slli	zero,0x1
      72:	935c                	0x935c
      74:	5d04                	lw	s1,56(a0)
      76:	00000493          	li	s1,0
      7a:	0000                	unimp
      7c:	0000                	unimp
      7e:	0000                	unimp
      80:	0006                	c.slli	zero,0x1
      82:	0cf503f3          	0xcf503f3
      86:	9f25                	0x9f25
	...
      90:	0006                	c.slli	zero,0x1
      92:	935c                	0x935c
      94:	5d04                	lw	s1,56(a0)
      96:	00000493          	li	s1,0
      9a:	0000                	unimp
      9c:	0000                	unimp
      9e:	0000                	unimp
      a0:	0006                	c.slli	zero,0x1
      a2:	0cf503f3          	0xcf503f3
      a6:	9f25                	0x9f25
	...
      b0:	0006                	c.slli	zero,0x1
      b2:	935c                	0x935c
      b4:	5d04                	lw	s1,56(a0)
      b6:	00000493          	li	s1,0
	...
      c6:	0000                	unimp
      c8:	0002                	c.slli64	zero
      ca:	9f30                	0x9f30
	...
      d4:	0002                	c.slli64	zero
      d6:	9f30                	0x9f30
	...
      e8:	0006                	c.slli	zero,0x1
      ea:	935c                	0x935c
      ec:	5d04                	lw	s1,56(a0)
      ee:	00000493          	li	s1,0
      f2:	0000                	unimp
      f4:	0000                	unimp
      f6:	0000                	unimp
      f8:	0006                	c.slli	zero,0x1
      fa:	935c                	0x935c
      fc:	5a04                	lw	s1,48(a2)
      fe:	00000493          	li	s1,0
     102:	0000                	unimp
     104:	0000                	unimp
     106:	0000                	unimp
     108:	0006                	c.slli	zero,0x1
     10a:	935c                	0x935c
     10c:	5a04                	lw	s1,48(a2)
     10e:	00000493          	li	s1,0
     112:	0000                	unimp
     114:	0000                	unimp
     116:	0000                	unimp
     118:	0006                	c.slli	zero,0x1
     11a:	935c                	0x935c
     11c:	5a04                	lw	s1,48(a2)
     11e:	00000493          	li	s1,0
     122:	0000                	unimp
     124:	0000                	unimp
     126:	0000                	unimp
     128:	0006                	c.slli	zero,0x1
     12a:	935c                	0x935c
     12c:	5a04                	lw	s1,48(a2)
     12e:	00000493          	li	s1,0
     132:	0000                	unimp
     134:	0000                	unimp
     136:	0000                	unimp
     138:	0006                	c.slli	zero,0x1
     13a:	935c                	0x935c
     13c:	5a04                	lw	s1,48(a2)
     13e:	00000493          	li	s1,0
     142:	0000                	unimp
     144:	0000                	unimp
     146:	0000                	unimp
     148:	0006                	c.slli	zero,0x1
     14a:	935c                	0x935c
     14c:	5d04                	lw	s1,56(a0)
     14e:	00000493          	li	s1,0
     152:	0000                	unimp
     154:	0000                	unimp
     156:	0000                	unimp
     158:	0006                	c.slli	zero,0x1
     15a:	935c                	0x935c
     15c:	5a04                	lw	s1,48(a2)
     15e:	00000493          	li	s1,0
     162:	0000                	unimp
     164:	0000                	unimp
     166:	0000                	unimp
     168:	0006                	c.slli	zero,0x1
     16a:	935c                	0x935c
     16c:	5d04                	lw	s1,56(a0)
     16e:	00000493          	li	s1,0
     172:	0000                	unimp
     174:	0000                	unimp
     176:	0000                	unimp
     178:	0006                	c.slli	zero,0x1
     17a:	935c                	0x935c
     17c:	5a04                	lw	s1,48(a2)
     17e:	00000493          	li	s1,0
     182:	0000                	unimp
     184:	0000                	unimp
     186:	0000                	unimp
     188:	0006                	c.slli	zero,0x1
     18a:	935c                	0x935c
     18c:	5d04                	lw	s1,56(a0)
     18e:	00000493          	li	s1,0
	...
     19e:	0000                	unimp
     1a0:	0006                	c.slli	zero,0x1
     1a2:	935a                	add	t1,t1,s6
     1a4:	5b04                	lw	s1,48(a4)
     1a6:	00000493          	li	s1,0
     1aa:	0000                	unimp
     1ac:	0000                	unimp
     1ae:	0000                	unimp
     1b0:	0006                	c.slli	zero,0x1
     1b2:	9361                	srli	a4,a4,0x38
     1b4:	5b04                	lw	s1,48(a4)
     1b6:	00000493          	li	s1,0
     1ba:	0000                	unimp
     1bc:	0000                	unimp
     1be:	0000                	unimp
     1c0:	0006                	c.slli	zero,0x1
     1c2:	9356                	add	t1,t1,s5
     1c4:	5b04                	lw	s1,48(a4)
     1c6:	00000493          	li	s1,0
     1ca:	0000                	unimp
     1cc:	0000                	unimp
     1ce:	0000                	unimp
     1d0:	0006                	c.slli	zero,0x1
     1d2:	9356                	add	t1,t1,s5
     1d4:	5b04                	lw	s1,48(a4)
     1d6:	00000493          	li	s1,0
     1da:	0000                	unimp
     1dc:	0000                	unimp
     1de:	0000                	unimp
     1e0:	0006                	c.slli	zero,0x1
     1e2:	9356                	add	t1,t1,s5
     1e4:	5f04                	lw	s1,56(a4)
     1e6:	00000493          	li	s1,0
     1ea:	0000                	unimp
     1ec:	0000                	unimp
     1ee:	0000                	unimp
     1f0:	0006                	c.slli	zero,0x1
     1f2:	9361                	srli	a4,a4,0x38
     1f4:	5f04                	lw	s1,56(a4)
     1f6:	00000493          	li	s1,0
     1fa:	0000                	unimp
     1fc:	0000                	unimp
     1fe:	0000                	unimp
     200:	0006                	c.slli	zero,0x1
     202:	9356                	add	t1,t1,s5
     204:	5b04                	lw	s1,48(a4)
     206:	00000493          	li	s1,0
     20a:	0000                	unimp
     20c:	0000                	unimp
     20e:	0000                	unimp
     210:	0006                	c.slli	zero,0x1
     212:	9356                	add	t1,t1,s5
     214:	5f04                	lw	s1,56(a4)
     216:	00000493          	li	s1,0
     21a:	0000                	unimp
     21c:	0000                	unimp
     21e:	0000                	unimp
     220:	0006                	c.slli	zero,0x1
     222:	9356                	add	t1,t1,s5
     224:	5b04                	lw	s1,48(a4)
     226:	00000493          	li	s1,0
     22a:	0000                	unimp
     22c:	0000                	unimp
     22e:	0000                	unimp
     230:	0006                	c.slli	zero,0x1
     232:	9356                	add	t1,t1,s5
     234:	5f04                	lw	s1,56(a4)
     236:	00000493          	li	s1,0
     23a:	0000                	unimp
     23c:	0000                	unimp
     23e:	0000                	unimp
     240:	0006                	c.slli	zero,0x1
     242:	9361                	srli	a4,a4,0x38
     244:	5f04                	lw	s1,56(a4)
     246:	00000493          	li	s1,0
     24a:	0000                	unimp
     24c:	0000                	unimp
     24e:	0000                	unimp
     250:	0006                	c.slli	zero,0x1
     252:	9356                	add	t1,t1,s5
     254:	5b04                	lw	s1,48(a4)
     256:	00000493          	li	s1,0
     25a:	0000                	unimp
     25c:	0000                	unimp
     25e:	0000                	unimp
     260:	0006                	c.slli	zero,0x1
     262:	9356                	add	t1,t1,s5
     264:	5f04                	lw	s1,56(a4)
     266:	00000493          	li	s1,0
	...
     276:	0000                	unimp
     278:	0001                	nop
     27a:	005c                	addi	a5,sp,4
     27c:	0000                	unimp
     27e:	0000                	unimp
     280:	0000                	unimp
     282:	0900                	addi	s0,sp,144
     284:	7c00                	flw	fs0,56(s0)
     286:	7d00                	flw	fs0,56(a0)
     288:	0800                	addi	s0,sp,16
     28a:	1aff                	0x1aff
     28c:	9f24                	0x9f24
	...
     296:	0001                	nop
     298:	0060                	addi	s0,sp,12
     29a:	0000                	unimp
     29c:	0000                	unimp
     29e:	0000                	unimp
     2a0:	0100                	addi	s0,sp,128
     2a2:	5c00                	lw	s0,56(s0)
	...
     2ac:	f731000b          	0xf731000b
     2b0:	7c2c                	flw	fa1,120(s0)
     2b2:	f700                	fsw	fs0,40(a4)
     2b4:	1b2c                	addi	a1,sp,440
     2b6:	009f00f7          	0x9f00f7
     2ba:	0000                	unimp
     2bc:	0000                	unimp
     2be:	0000                	unimp
     2c0:	0100                	addi	s0,sp,128
     2c2:	6000                	flw	fs0,0(s0)
	...
     2cc:	0001                	nop
     2ce:	0060                	addi	s0,sp,12
     2d0:	0000                	unimp
     2d2:	0000                	unimp
     2d4:	0000                	unimp
     2d6:	0900                	addi	s0,sp,144
     2d8:	8000                	0x8000
     2da:	7d00                	flw	fs0,56(a0)
     2dc:	0800                	addi	s0,sp,16
     2de:	1aff                	0x1aff
     2e0:	9f24                	0x9f24
	...
     2ea:	0001                	nop
     2ec:	0060                	addi	s0,sp,12
     2ee:	0000                	unimp
     2f0:	0000                	unimp
     2f2:	0000                	unimp
     2f4:	0100                	addi	s0,sp,128
     2f6:	5c00                	lw	s0,56(s0)
	...
     300:	0001                	nop
     302:	006d                	c.nop	27
     304:	0000                	unimp
     306:	0000                	unimp
     308:	0000                	unimp
     30a:	0100                	addi	s0,sp,128
     30c:	5c00                	lw	s0,56(s0)
	...
     31e:	0001                	nop
     320:	005d                	c.nop	23
     322:	0000                	unimp
     324:	0000                	unimp
     326:	0000                	unimp
     328:	0100                	addi	s0,sp,128
     32a:	5a00                	lw	s0,48(a2)
	...
     334:	0001                	nop
     336:	005a                	c.slli	zero,0x16
     338:	0000                	unimp
     33a:	0000                	unimp
     33c:	0000                	unimp
     33e:	0100                	addi	s0,sp,128
     340:	5a00                	lw	s0,48(a2)
	...
     34a:	0001                	nop
     34c:	005a                	c.slli	zero,0x16
     34e:	0000                	unimp
     350:	0000                	unimp
     352:	0000                	unimp
     354:	0100                	addi	s0,sp,128
     356:	5a00                	lw	s0,48(a2)
	...
     360:	0001                	nop
     362:	005d                	c.nop	23
     364:	0000                	unimp
     366:	0000                	unimp
     368:	0000                	unimp
     36a:	0100                	addi	s0,sp,128
     36c:	5a00                	lw	s0,48(a2)
	...
     376:	0001                	nop
     378:	005d                	c.nop	23
     37a:	0000                	unimp
     37c:	0000                	unimp
     37e:	0000                	unimp
     380:	0100                	addi	s0,sp,128
     382:	5600                	lw	s0,40(a2)
	...
     38c:	0001                	nop
     38e:	005a                	c.slli	zero,0x16
     390:	0000                	unimp
     392:	0000                	unimp
     394:	0000                	unimp
     396:	0100                	addi	s0,sp,128
     398:	5d00                	lw	s0,56(a0)
	...
     3aa:	0001                	nop
     3ac:	0061                	c.nop	24
     3ae:	0000                	unimp
     3b0:	0000                	unimp
     3b2:	0000                	unimp
     3b4:	0100                	addi	s0,sp,128
     3b6:	5600                	lw	s0,40(a2)
	...
     3c0:	0001                	nop
     3c2:	0056                	c.slli	zero,0x15
     3c4:	0000                	unimp
     3c6:	0000                	unimp
     3c8:	0000                	unimp
     3ca:	0100                	addi	s0,sp,128
     3cc:	5600                	lw	s0,40(a2)
	...
     3d6:	0001                	nop
     3d8:	0061                	c.nop	24
     3da:	0000                	unimp
     3dc:	0000                	unimp
     3de:	0000                	unimp
     3e0:	0100                	addi	s0,sp,128
     3e2:	5600                	lw	s0,40(a2)
	...
     3ec:	0001                	nop
     3ee:	0061                	c.nop	24
     3f0:	0000                	unimp
     3f2:	0000                	unimp
     3f4:	0000                	unimp
     3f6:	0600                	addi	s0,sp,768
     3f8:	8100                	0x8100
     3fa:	7b00                	flw	fs0,48(a4)
     3fc:	2400                	fld	fs0,8(s0)
     3fe:	009f 0000 0000      	0x9f
     404:	0000                	unimp
     406:	0100                	addi	s0,sp,128
     408:	5600                	lw	s0,40(a2)
	...
     41a:	0001                	nop
     41c:	0000005b          	0x5b
     420:	0000                	unimp
     422:	0000                	unimp
     424:	0100                	addi	s0,sp,128
     426:	5b00                	lw	s0,48(a4)
	...
     430:	0001                	nop
     432:	005f 0000 0000      	0x5f
     438:	0000                	unimp
     43a:	0100                	addi	s0,sp,128
     43c:	5b00                	lw	s0,48(a4)
	...
     446:	0001                	nop
     448:	005f 0000 0000      	0x5f
     44e:	0000                	unimp
     450:	0100                	addi	s0,sp,128
     452:	5c00                	lw	s0,56(s0)
	...
     45c:	0001                	nop
     45e:	005f 0000 0000      	0x5f
     464:	0000                	unimp
     466:	0100                	addi	s0,sp,128
     468:	5b00                	lw	s0,48(a4)
	...
     472:	0001                	nop
     474:	005f 0000 0000      	0x5f
     47a:	0000                	unimp
     47c:	0100                	addi	s0,sp,128
     47e:	5b00                	lw	s0,48(a4)
	...
     488:	0001                	nop
     48a:	005f 0000 0000      	0x5f
     490:	0000                	unimp
     492:	0100                	addi	s0,sp,128
     494:	6000                	flw	fs0,0(s0)
	...
     49e:	0001                	nop
     4a0:	005f 0000 0000      	0x5f
     4a6:	0000                	unimp
     4a8:	0100                	addi	s0,sp,128
     4aa:	5b00                	lw	s0,48(a4)
	...
     4b4:	0001                	nop
     4b6:	005f 0000 0000      	0x5f
	...
     4c4:	0000                	unimp
     4c6:	0100                	addi	s0,sp,128
     4c8:	5b00                	lw	s0,48(a4)
	...
     4d2:	0001                	nop
     4d4:	005c                	addi	a5,sp,4
	...
     4e2:	0000                	unimp
     4e4:	0100                	addi	s0,sp,128
     4e6:	5a00                	lw	s0,48(a2)
	...
     4f0:	0001                	nop
     4f2:	005a                	c.slli	zero,0x16
	...
     500:	0000                	unimp
     502:	0200                	addi	s0,sp,256
     504:	3100                	fld	fs0,32(a0)
     506:	009f 0000 0000      	0x9f
     50c:	0000                	unimp
     50e:	0100                	addi	s0,sp,128
     510:	5b00                	lw	s0,48(a4)
	...
     51a:	0001                	nop
     51c:	0000005b          	0x5b
	...
     52c:	0100                	addi	s0,sp,128
     52e:	5e00                	lw	s0,56(a2)
	...
     538:	0001                	nop
     53a:	005e                	c.slli	zero,0x17
	...
     548:	0000                	unimp
     54a:	0100                	addi	s0,sp,128
     54c:	5d00                	lw	s0,56(a0)
	...
     556:	0001                	nop
     558:	005d                	c.nop	23
     55a:	0000                	unimp
     55c:	0000                	unimp
     55e:	0000                	unimp
     560:	0100                	addi	s0,sp,128
     562:	5d00                	lw	s0,56(a0)
	...
     56c:	0001                	nop
     56e:	0000005b          	0x5b
     572:	0000                	unimp
     574:	0000                	unimp
     576:	0100                	addi	s0,sp,128
     578:	5b00                	lw	s0,48(a4)
	...
     58a:	0001                	nop
     58c:	005c                	addi	a5,sp,4
     58e:	0000                	unimp
     590:	0000                	unimp
     592:	0000                	unimp
     594:	0900                	addi	s0,sp,144
     596:	7c00                	flw	fs0,56(s0)
     598:	7d00                	flw	fs0,56(a0)
     59a:	0800                	addi	s0,sp,16
     59c:	1aff                	0x1aff
     59e:	9f24                	0x9f24
	...
     5a8:	0001                	nop
     5aa:	0060                	addi	s0,sp,12
     5ac:	0000                	unimp
     5ae:	0000                	unimp
     5b0:	0000                	unimp
     5b2:	0100                	addi	s0,sp,128
     5b4:	5c00                	lw	s0,56(s0)
	...
     5c6:	0001                	nop
     5c8:	005e                	c.slli	zero,0x17
	...
     5d6:	0000                	unimp
     5d8:	0100                	addi	s0,sp,128
     5da:	6100                	flw	fs0,0(a0)
	...
     5ec:	0001                	nop
     5ee:	005c                	addi	a5,sp,4
     5f0:	0000                	unimp
     5f2:	0000                	unimp
     5f4:	0000                	unimp
     5f6:	0700                	addi	s0,sp,896
     5f8:	8000                	0x8000
     5fa:	4000                	lw	s0,0(s0)
     5fc:	4024                	lw	s1,64(s0)
     5fe:	9f25                	0x9f25
	...
     610:	0001                	nop
     612:	005f 0000 0000      	0x5f
     618:	0000                	unimp
     61a:	0100                	addi	s0,sp,128
     61c:	5a00                	lw	s0,48(a2)
	...
     62e:	0001                	nop
     630:	005e                	c.slli	zero,0x17
     632:	0000                	unimp
     634:	0000                	unimp
     636:	0000                	unimp
     638:	0100                	addi	s0,sp,128
     63a:	5c00                	lw	s0,56(s0)
	...
     64c:	0001                	nop
     64e:	005d                	c.nop	23
     650:	0000                	unimp
     652:	0000                	unimp
     654:	0000                	unimp
     656:	0100                	addi	s0,sp,128
     658:	5e00                	lw	s0,56(a2)
	...
     662:	0008                	0x8
     664:	0076                	c.slli	zero,0x1d
     666:	2540                	fld	fs0,136(a0)
     668:	007d                	c.nop	31
     66a:	9f21                	0x9f21
	...
     674:	0001                	nop
     676:	005e                	c.slli	zero,0x17
	...
     684:	0000                	unimp
     686:	0100                	addi	s0,sp,128
     688:	5f00                	lw	s0,56(a4)
	...
     692:	0001                	nop
     694:	0056                	c.slli	zero,0x15
	...
     6a2:	0000                	unimp
     6a4:	0100                	addi	s0,sp,128
     6a6:	5b00                	lw	s0,48(a4)
	...
     6b0:	0001                	nop
     6b2:	005d                	c.nop	23
	...
     6c0:	0000                	unimp
     6c2:	0100                	addi	s0,sp,128
     6c4:	5c00                	lw	s0,56(s0)
	...
     6d6:	0010                	0x10
     6d8:	0076                	c.slli	zero,0x1d
     6da:	ff0a                	fsw	ft2,188(sp)
     6dc:	1aff                	0x1aff
     6de:	007e                	c.slli	zero,0x1f
     6e0:	ff0a                	fsw	ft2,188(sp)
     6e2:	1aff                	0x1aff
     6e4:	2440                	fld	fs0,136(s0)
     6e6:	9f22                	add	t5,t5,s0
	...
     6f0:	0015                	c.nop	5
     6f2:	0076                	c.slli	zero,0x1d
     6f4:	ff0a                	fsw	ft2,188(sp)
     6f6:	1aff                	0x1aff
     6f8:	0076                	c.slli	zero,0x1d
     6fa:	2540                	fld	fs0,136(a0)
     6fc:	0080                	addi	s0,sp,64
     6fe:	0a22                	slli	s4,s4,0x8
     700:	ffff                	0xffff
     702:	401a                	0x401a
     704:	2224                	fld	fs1,64(a2)
     706:	009f 0000 0000      	0x9f
	...
     714:	0000                	unimp
     716:	0100                	addi	s0,sp,128
     718:	5a00                	lw	s0,48(a2)
	...
     722:	0005                	c.nop	1
     724:	0076                	c.slli	zero,0x1d
     726:	2540                	fld	fs0,136(a0)
     728:	009f 0000 0000      	0x9f
	...
     736:	0000                	unimp
     738:	0100                	addi	s0,sp,128
     73a:	5f00                	lw	s0,56(a4)
	...
     744:	00760007          	0x760007
     748:	2440                	fld	fs0,136(s0)
     74a:	2540                	fld	fs0,136(a0)
     74c:	009f 0000 0000      	0x9f
	...
     75a:	0000                	unimp
     75c:	0100                	addi	s0,sp,128
     75e:	5c00                	lw	s0,56(s0)
	...
     768:	0001                	nop
     76a:	006c                	addi	a1,sp,12
	...
     778:	0000                	unimp
     77a:	0100                	addi	s0,sp,128
     77c:	5e00                	lw	s0,56(a2)
	...
     786:	0001                	nop
     788:	005d                	c.nop	23
	...
     796:	0000                	unimp
     798:	0100                	addi	s0,sp,128
     79a:	5d00                	lw	s0,56(a0)
	...
     7a4:	0001                	nop
     7a6:	005e                	c.slli	zero,0x17
     7a8:	0000                	unimp
     7aa:	0000                	unimp
     7ac:	0000                	unimp
     7ae:	0800                	addi	s0,sp,16
     7b0:	8000                	0x8000
     7b2:	4000                	lw	s0,0(s0)
     7b4:	7d25                	lui	s10,0xfffe9
     7b6:	2100                	fld	fs0,0(a0)
     7b8:	009f 0000 0000      	0x9f
     7be:	0000                	unimp
     7c0:	0100                	addi	s0,sp,128
     7c2:	5e00                	lw	s0,56(a2)
	...
     7d4:	0001                	nop
     7d6:	005d                	c.nop	23
     7d8:	0000                	unimp
     7da:	0000                	unimp
     7dc:	0000                	unimp
     7de:	0100                	addi	s0,sp,128
     7e0:	5f00                	lw	s0,56(a4)
	...
     7ea:	0001                	nop
     7ec:	005f 0000 0000      	0x5f
	...
     7fa:	0000                	unimp
     7fc:	0100                	addi	s0,sp,128
     7fe:	6e00                	flw	fs0,24(a2)
	...
     808:	0001                	nop
     80a:	005c                	addi	a5,sp,4
     80c:	0000                	unimp
     80e:	0000                	unimp
     810:	0000                	unimp
     812:	0a00                	addi	s0,sp,272
     814:	7600                	flw	fs0,40(a2)
     816:	4000                	lw	s0,0(s0)
     818:	4024                	lw	s1,64(s0)
     81a:	7e25                	lui	t3,0xfffe9
     81c:	1e00                	addi	s0,sp,816
     81e:	009f 0000 0000      	0x9f
	...
     82c:	0000                	unimp
     82e:	0100                	addi	s0,sp,128
     830:	5600                	lw	s0,40(a2)
	...
     842:	0006                	c.slli	zero,0x1
     844:	0080                	addi	s0,sp,64
     846:	008d                	addi	ra,ra,3
     848:	9f1e                	add	t5,t5,t2
	...
     852:	0001                	nop
     854:	0060                	addi	s0,sp,12
     856:	0000                	unimp
     858:	0000                	unimp
     85a:	0000                	unimp
     85c:	0900                	addi	s0,sp,144
     85e:	8c00                	0x8c00
     860:	7a7f                	0x7a7f
     862:	1a00                	addi	s0,sp,304
     864:	008d                	addi	ra,ra,3
     866:	9f1e                	add	t5,t5,t2
	...
     870:	0001                	nop
     872:	005e                	c.slli	zero,0x17
     874:	0000                	unimp
     876:	0000                	unimp
     878:	0000                	unimp
     87a:	0800                	addi	s0,sp,16
     87c:	7600                	flw	fs0,40(a2)
     87e:	4000                	lw	s0,0(s0)
     880:	8025                	srli	s0,s0,0x9
     882:	2200                	fld	fs0,0(a2)
     884:	009f 0000 0000      	0x9f
	...
     892:	0000                	unimp
     894:	0100                	addi	s0,sp,128
     896:	5d00                	lw	s0,56(a0)
	...
     8a8:	0001                	nop
     8aa:	005c                	addi	a5,sp,4
	...
     8b8:	0000                	unimp
     8ba:	0100                	addi	s0,sp,128
     8bc:	6000                	flw	fs0,0(s0)
	...
     8c6:	0006                	c.slli	zero,0x1
     8c8:	7f8c                	flw	fa1,56(a5)
     8ca:	007a                	c.slli	zero,0x1e
     8cc:	9f1a                	add	t5,t5,t1
	...
     8d6:	0006                	c.slli	zero,0x1
     8d8:	007a                	c.slli	zero,0x1e
     8da:	007f                	0x7f
     8dc:	9f1a                	add	t5,t5,t1
	...
     8e6:	0006                	c.slli	zero,0x1
     8e8:	7f8c                	flw	fa1,56(a5)
     8ea:	007a                	c.slli	zero,0x1e
     8ec:	9f1a                	add	t5,t5,t1
	...
     8f6:	0006                	c.slli	zero,0x1
     8f8:	017a                	slli	sp,sp,0x1e
     8fa:	7f8c                	flw	fa1,56(a5)
     8fc:	9f1a                	add	t5,t5,t1
	...
     90e:	0001                	nop
     910:	005d                	c.nop	23
	...
     91e:	0000                	unimp
     920:	0100                	addi	s0,sp,128
     922:	5c00                	lw	s0,56(s0)
	...
     92c:	0005                	c.nop	1
     92e:	007a                	c.slli	zero,0x1e
     930:	2540                	fld	fs0,136(a0)
     932:	009f 0000 0000      	0x9f
     938:	0000                	unimp
     93a:	0500                	addi	s0,sp,640
     93c:	7a00                	flw	fs0,48(a2)
     93e:	4001                	c.li	zero,0
     940:	9f25                	0x9f25
	...
     952:	0001                	nop
     954:	006d                	c.nop	27
	...
     962:	0000                	unimp
     964:	0100                	addi	s0,sp,128
     966:	6000                	flw	fs0,0(s0)
	...
     970:	0001                	nop
     972:	0060                	addi	s0,sp,12
     974:	0000                	unimp
     976:	0000                	unimp
     978:	0000                	unimp
     97a:	0900                	addi	s0,sp,144
     97c:	8000                	0x8000
     97e:	7d00                	flw	fs0,56(a0)
     980:	0800                	addi	s0,sp,16
     982:	1aff                	0x1aff
     984:	9f24                	0x9f24
	...
     98e:	0001                	nop
     990:	0060                	addi	s0,sp,12
	...
     99e:	0000                	unimp
     9a0:	0100                	addi	s0,sp,128
     9a2:	5a00                	lw	s0,48(a2)
	...
     9ac:	0001                	nop
     9ae:	005a                	c.slli	zero,0x16
	...
     9bc:	0000                	unimp
     9be:	0100                	addi	s0,sp,128
     9c0:	6100                	flw	fs0,0(a0)
	...
     9d2:	0001                	nop
     9d4:	005c                	addi	a5,sp,4
     9d6:	0000                	unimp
     9d8:	0000                	unimp
     9da:	0000                	unimp
     9dc:	0700                	addi	s0,sp,896
     9de:	8000                	0x8000
     9e0:	4000                	lw	s0,0(s0)
     9e2:	4024                	lw	s1,64(s0)
     9e4:	9f25                	0x9f25
	...
     9f6:	0001                	nop
     9f8:	005f 0000 0000      	0x5f
     9fe:	0000                	unimp
     a00:	0100                	addi	s0,sp,128
     a02:	5a00                	lw	s0,48(a2)
	...
     a14:	0001                	nop
     a16:	005e                	c.slli	zero,0x17
     a18:	0000                	unimp
     a1a:	0000                	unimp
     a1c:	0000                	unimp
     a1e:	0100                	addi	s0,sp,128
     a20:	5c00                	lw	s0,56(s0)
	...
     a32:	0001                	nop
     a34:	005d                	c.nop	23
     a36:	0000                	unimp
     a38:	0000                	unimp
     a3a:	0000                	unimp
     a3c:	0100                	addi	s0,sp,128
     a3e:	5e00                	lw	s0,56(a2)
	...
     a48:	0008                	0x8
     a4a:	0076                	c.slli	zero,0x1d
     a4c:	2540                	fld	fs0,136(a0)
     a4e:	007d                	c.nop	31
     a50:	9f21                	0x9f21
	...
     a5a:	0001                	nop
     a5c:	005e                	c.slli	zero,0x17
	...
     a6a:	0000                	unimp
     a6c:	0100                	addi	s0,sp,128
     a6e:	5f00                	lw	s0,56(a4)
	...
     a78:	0001                	nop
     a7a:	0056                	c.slli	zero,0x15
	...
     a88:	0000                	unimp
     a8a:	0100                	addi	s0,sp,128
     a8c:	6c00                	flw	fs0,24(s0)
	...
     a96:	0001                	nop
     a98:	005d                	c.nop	23
	...
     aa6:	0000                	unimp
     aa8:	0100                	addi	s0,sp,128
     aaa:	6100                	flw	fs0,0(a0)
	...
     ab4:	0005                	c.nop	1
     ab6:	0080                	addi	s0,sp,64
     ab8:	2540                	fld	fs0,136(a0)
     aba:	009f 0000 0000      	0x9f
	...
     ac8:	0000                	unimp
     aca:	0100                	addi	s0,sp,128
     acc:	5f00                	lw	s0,56(a4)
	...
     ad6:	00800007          	0x800007
     ada:	2440                	fld	fs0,136(s0)
     adc:	2540                	fld	fs0,136(a0)
     ade:	009f 0000 0000      	0x9f
	...
     aec:	0000                	unimp
     aee:	0100                	addi	s0,sp,128
     af0:	5b00                	lw	s0,48(a4)
	...
     afa:	0001                	nop
     afc:	005a                	c.slli	zero,0x16
	...
     b0a:	0000                	unimp
     b0c:	0100                	addi	s0,sp,128
     b0e:	5d00                	lw	s0,56(a0)
	...
     b18:	0001                	nop
     b1a:	005e                	c.slli	zero,0x17
	...
     b28:	0000                	unimp
     b2a:	0100                	addi	s0,sp,128
     b2c:	5e00                	lw	s0,56(a2)
	...
     b36:	0001                	nop
     b38:	005e                	c.slli	zero,0x17
     b3a:	0000                	unimp
     b3c:	0000                	unimp
     b3e:	0000                	unimp
     b40:	0100                	addi	s0,sp,128
     b42:	5e00                	lw	s0,56(a2)
	...
     b4c:	0001                	nop
     b4e:	005d                	c.nop	23
	...
     b5c:	0000                	unimp
     b5e:	0100                	addi	s0,sp,128
     b60:	5e00                	lw	s0,56(a2)
	...
     b6a:	0001                	nop
     b6c:	005f 0000 0000      	0x5f
     b72:	0000                	unimp
     b74:	0100                	addi	s0,sp,128
     b76:	5f00                	lw	s0,56(a4)
	...
     b88:	0001                	nop
     b8a:	005d                	c.nop	23
     b8c:	0000                	unimp
     b8e:	0000                	unimp
     b90:	0000                	unimp
     b92:	0600                	addi	s0,sp,768
     b94:	7f00                	flw	fs0,56(a4)
     b96:	7b00                	flw	fs0,48(a4)
     b98:	1e00                	addi	s0,sp,816
     b9a:	009f 0000 0000      	0x9f
     ba0:	0000                	unimp
     ba2:	0100                	addi	s0,sp,128
     ba4:	6100                	flw	fs0,0(a0)
	...
     bb6:	0001                	nop
     bb8:	005a                	c.slli	zero,0x16
     bba:	0000                	unimp
     bbc:	0000                	unimp
     bbe:	0000                	unimp
     bc0:	0100                	addi	s0,sp,128
     bc2:	5d00                	lw	s0,56(a0)
	...
     bcc:	0001                	nop
     bce:	005a                	c.slli	zero,0x16
     bd0:	0000                	unimp
     bd2:	0000                	unimp
     bd4:	0000                	unimp
     bd6:	0100                	addi	s0,sp,128
     bd8:	5d00                	lw	s0,56(a0)
	...
     bea:	0001                	nop
     bec:	0000005b          	0x5b
	...
     bfc:	0600                	addi	s0,sp,768
     bfe:	5a00                	lw	s0,48(a2)
     c00:	935b0493          	addi	s1,s6,-1739
     c04:	0004                	0x4
     c06:	0000                	unimp
     c08:	0000                	unimp
     c0a:	0000                	unimp
     c0c:	0600                	addi	s0,sp,768
     c0e:	f300                	fsw	fs0,32(a4)
     c10:	250af503          	0x250af503
     c14:	009f 0000 0000      	0x9f
     c1a:	0000                	unimp
     c1c:	0600                	addi	s0,sp,768
     c1e:	5a00                	lw	s0,48(a2)
     c20:	935b0493          	addi	s1,s6,-1739
     c24:	0004                	0x4
     c26:	0000                	unimp
     c28:	0000                	unimp
     c2a:	0000                	unimp
     c2c:	0600                	addi	s0,sp,768
     c2e:	f300                	fsw	fs0,32(a4)
     c30:	250af503          	0x250af503
     c34:	009f 0000 0000      	0x9f
     c3a:	0000                	unimp
     c3c:	0600                	addi	s0,sp,768
     c3e:	5a00                	lw	s0,48(a2)
     c40:	935b0493          	addi	s1,s6,-1739
     c44:	0004                	0x4
     c46:	0000                	unimp
     c48:	0000                	unimp
     c4a:	0000                	unimp
     c4c:	0600                	addi	s0,sp,768
     c4e:	f300                	fsw	fs0,32(a4)
     c50:	250af503          	0x250af503
     c54:	009f 0000 0000      	0x9f
     c5a:	0000                	unimp
     c5c:	0600                	addi	s0,sp,768
     c5e:	5a00                	lw	s0,48(a2)
     c60:	935b0493          	addi	s1,s6,-1739
     c64:	0004                	0x4
     c66:	0000                	unimp
     c68:	0000                	unimp
     c6a:	0000                	unimp
     c6c:	0600                	addi	s0,sp,768
     c6e:	f300                	fsw	fs0,32(a4)
     c70:	250af503          	0x250af503
     c74:	009f 0000 0000      	0x9f
     c7a:	0000                	unimp
     c7c:	0600                	addi	s0,sp,768
     c7e:	5a00                	lw	s0,48(a2)
     c80:	935b0493          	addi	s1,s6,-1739
     c84:	0004                	0x4
     c86:	0000                	unimp
     c88:	0000                	unimp
     c8a:	0000                	unimp
     c8c:	0600                	addi	s0,sp,768
     c8e:	f300                	fsw	fs0,32(a4)
     c90:	250af503          	0x250af503
     c94:	009f 0000 0000      	0x9f
	...
     ca2:	0000                	unimp
     ca4:	0600                	addi	s0,sp,768
     ca6:	5c00                	lw	s0,56(s0)
     ca8:	935d0493          	addi	s1,s10,-1739 # fffe8935 <__global_pointer$+0x7ffe661d>
     cac:	0004                	0x4
     cae:	0000                	unimp
     cb0:	0000                	unimp
     cb2:	0000                	unimp
     cb4:	0600                	addi	s0,sp,768
     cb6:	f300                	fsw	fs0,32(a4)
     cb8:	250cf503          	0x250cf503
     cbc:	009f 0000 0000      	0x9f
     cc2:	0000                	unimp
     cc4:	0600                	addi	s0,sp,768
     cc6:	5c00                	lw	s0,56(s0)
     cc8:	935d0493          	addi	s1,s10,-1739
     ccc:	0004                	0x4
     cce:	0000                	unimp
     cd0:	0000                	unimp
     cd2:	0000                	unimp
     cd4:	0600                	addi	s0,sp,768
     cd6:	f300                	fsw	fs0,32(a4)
     cd8:	250cf503          	0x250cf503
     cdc:	009f 0000 0000      	0x9f
     ce2:	0000                	unimp
     ce4:	0600                	addi	s0,sp,768
     ce6:	5c00                	lw	s0,56(s0)
     ce8:	935d0493          	addi	s1,s10,-1739
     cec:	0004                	0x4
     cee:	0000                	unimp
     cf0:	0000                	unimp
     cf2:	0000                	unimp
     cf4:	0600                	addi	s0,sp,768
     cf6:	f300                	fsw	fs0,32(a4)
     cf8:	250cf503          	0x250cf503
     cfc:	009f 0000 0000      	0x9f
	...
     d0a:	0000                	unimp
     d0c:	0600                	addi	s0,sp,768
     d0e:	5f00                	lw	s0,56(a4)
     d10:	93600493          	li	s1,-1738
     d14:	0004                	0x4
     d16:	0000                	unimp
     d18:	0000                	unimp
     d1a:	0000                	unimp
     d1c:	0600                	addi	s0,sp,768
     d1e:	5a00                	lw	s0,48(a2)
     d20:	935b0493          	addi	s1,s6,-1739
     d24:	0004                	0x4
	...
     d32:	0000                	unimp
     d34:	0600                	addi	s0,sp,768
     d36:	f200                	fsw	fs0,32(a2)
     d38:	00001e6f          	jal	t3,1d38 <_start-0x7fffe2c8>
	...
     d44:	0600                	addi	s0,sp,768
     d46:	f200                	fsw	fs0,32(a2)
     d48:	00001e6f          	jal	t3,1d48 <_start-0x7fffe2b8>
	...
     d5c:	0600                	addi	s0,sp,768
     d5e:	5c00                	lw	s0,56(s0)
     d60:	935d0493          	addi	s1,s10,-1739
     d64:	0004                	0x4
     d66:	0000                	unimp
     d68:	0000                	unimp
     d6a:	0000                	unimp
     d6c:	0600                	addi	s0,sp,768
     d6e:	5c00                	lw	s0,56(s0)
     d70:	935e0493          	addi	s1,t3,-1739 # fffe8935 <__global_pointer$+0x7ffe661d>
     d74:	0004                	0x4
     d76:	0000                	unimp
     d78:	0000                	unimp
     d7a:	0000                	unimp
     d7c:	0600                	addi	s0,sp,768
     d7e:	5c00                	lw	s0,56(s0)
     d80:	935e0493          	addi	s1,t3,-1739
     d84:	0004                	0x4
     d86:	0000                	unimp
     d88:	0000                	unimp
     d8a:	0000                	unimp
     d8c:	0600                	addi	s0,sp,768
     d8e:	5c00                	lw	s0,56(s0)
     d90:	935e0493          	addi	s1,t3,-1739
     d94:	0004                	0x4
     d96:	0000                	unimp
     d98:	0000                	unimp
     d9a:	0000                	unimp
     d9c:	0600                	addi	s0,sp,768
     d9e:	6100                	flw	fs0,0(a0)
     da0:	935e0493          	addi	s1,t3,-1739
     da4:	0004                	0x4
     da6:	0000                	unimp
     da8:	0000                	unimp
     daa:	0000                	unimp
     dac:	0600                	addi	s0,sp,768
     dae:	5c00                	lw	s0,56(s0)
     db0:	935d0493          	addi	s1,s10,-1739
     db4:	0004                	0x4
	...
     dc2:	0000                	unimp
     dc4:	0600                	addi	s0,sp,768
     dc6:	5a00                	lw	s0,48(a2)
     dc8:	935b0493          	addi	s1,s6,-1739
     dcc:	0004                	0x4
     dce:	0000                	unimp
     dd0:	0000                	unimp
     dd2:	0000                	unimp
     dd4:	0600                	addi	s0,sp,768
     dd6:	5a00                	lw	s0,48(a2)
     dd8:	93600493          	li	s1,-1738
     ddc:	0004                	0x4
     dde:	0000                	unimp
     de0:	0000                	unimp
     de2:	0000                	unimp
     de4:	0600                	addi	s0,sp,768
     de6:	5a00                	lw	s0,48(a2)
     de8:	935b0493          	addi	s1,s6,-1739
     dec:	0004                	0x4
     dee:	0000                	unimp
     df0:	0000                	unimp
     df2:	0000                	unimp
     df4:	0600                	addi	s0,sp,768
     df6:	5a00                	lw	s0,48(a2)
     df8:	935b0493          	addi	s1,s6,-1739
     dfc:	0004                	0x4
     dfe:	0000                	unimp
     e00:	0000                	unimp
     e02:	0000                	unimp
     e04:	0600                	addi	s0,sp,768
     e06:	5a00                	lw	s0,48(a2)
     e08:	935b0493          	addi	s1,s6,-1739
     e0c:	0004                	0x4
     e0e:	0000                	unimp
     e10:	0000                	unimp
     e12:	0000                	unimp
     e14:	0600                	addi	s0,sp,768
     e16:	5a00                	lw	s0,48(a2)
     e18:	93600493          	li	s1,-1738
     e1c:	0004                	0x4
     e1e:	0000                	unimp
     e20:	0000                	unimp
     e22:	0000                	unimp
     e24:	0600                	addi	s0,sp,768
     e26:	5a00                	lw	s0,48(a2)
     e28:	935b0493          	addi	s1,s6,-1739
     e2c:	0004                	0x4
     e2e:	0000                	unimp
     e30:	0000                	unimp
     e32:	0000                	unimp
     e34:	0600                	addi	s0,sp,768
     e36:	5a00                	lw	s0,48(a2)
     e38:	93600493          	li	s1,-1738
     e3c:	0004                	0x4
	...
     e4a:	0000                	unimp
     e4c:	0100                	addi	s0,sp,128
     e4e:	5c00                	lw	s0,56(s0)
	...
     e58:	0001                	nop
     e5a:	0061                	c.nop	24
     e5c:	0000                	unimp
     e5e:	0000                	unimp
     e60:	0000                	unimp
     e62:	0100                	addi	s0,sp,128
     e64:	5c00                	lw	s0,56(s0)
	...
     e6e:	0001                	nop
     e70:	0061                	c.nop	24
     e72:	0000                	unimp
     e74:	0000                	unimp
     e76:	0000                	unimp
     e78:	0100                	addi	s0,sp,128
     e7a:	5c00                	lw	s0,56(s0)
	...
     e8c:	0001                	nop
     e8e:	005d                	c.nop	23
     e90:	0000                	unimp
     e92:	0000                	unimp
     e94:	0000                	unimp
     e96:	0100                	addi	s0,sp,128
     e98:	5e00                	lw	s0,56(a2)
	...
     ea2:	0001                	nop
     ea4:	005e                	c.slli	zero,0x17
     ea6:	0000                	unimp
     ea8:	0000                	unimp
     eaa:	0000                	unimp
     eac:	0100                	addi	s0,sp,128
     eae:	5e00                	lw	s0,56(a2)
	...
     eb8:	0001                	nop
     eba:	005e                	c.slli	zero,0x17
     ebc:	0000                	unimp
     ebe:	0000                	unimp
     ec0:	0000                	unimp
     ec2:	0100                	addi	s0,sp,128
     ec4:	5d00                	lw	s0,56(a0)
	...
     ece:	0001                	nop
     ed0:	006e                	c.slli	zero,0x1b
	...
     ede:	0000                	unimp
     ee0:	0100                	addi	s0,sp,128
     ee2:	5a00                	lw	s0,48(a2)
	...
     eec:	0001                	nop
     eee:	005f 0000 0000      	0x5f
     ef4:	0000                	unimp
     ef6:	0100                	addi	s0,sp,128
     ef8:	5f00                	lw	s0,56(a4)
	...
     f02:	0001                	nop
     f04:	005a                	c.slli	zero,0x16
     f06:	0000                	unimp
     f08:	0000                	unimp
     f0a:	0000                	unimp
     f0c:	0100                	addi	s0,sp,128
     f0e:	5f00                	lw	s0,56(a4)
	...
     f18:	0001                	nop
     f1a:	005a                	c.slli	zero,0x16
     f1c:	0000                	unimp
     f1e:	0000                	unimp
     f20:	0000                	unimp
     f22:	0100                	addi	s0,sp,128
     f24:	5a00                	lw	s0,48(a2)
	...
     f2e:	0001                	nop
     f30:	005f 0000 0000      	0x5f
     f36:	0000                	unimp
     f38:	0100                	addi	s0,sp,128
     f3a:	5a00                	lw	s0,48(a2)
	...
     f44:	0001                	nop
     f46:	005e                	c.slli	zero,0x17
	...
     f54:	0000                	unimp
     f56:	0100                	addi	s0,sp,128
     f58:	5b00                	lw	s0,48(a4)
	...
     f62:	0001                	nop
     f64:	0060                	addi	s0,sp,12
     f66:	0000                	unimp
     f68:	0000                	unimp
     f6a:	0000                	unimp
     f6c:	0100                	addi	s0,sp,128
     f6e:	5b00                	lw	s0,48(a4)
	...
     f78:	0001                	nop
     f7a:	0000005b          	0x5b
     f7e:	0000                	unimp
     f80:	0000                	unimp
     f82:	0100                	addi	s0,sp,128
     f84:	6000                	flw	fs0,0(s0)
	...
     f8e:	0001                	nop
     f90:	006c                	addi	a1,sp,12
     f92:	0000                	unimp
     f94:	0000                	unimp
     f96:	0000                	unimp
     f98:	0100                	addi	s0,sp,128
     f9a:	5b00                	lw	s0,48(a4)
	...
     fa4:	0001                	nop
     fa6:	0060                	addi	s0,sp,12
     fa8:	0000                	unimp
     faa:	0000                	unimp
     fac:	0000                	unimp
     fae:	0100                	addi	s0,sp,128
     fb0:	5b00                	lw	s0,48(a4)
	...
     fba:	0001                	nop
     fbc:	0060                	addi	s0,sp,12
     fbe:	0000                	unimp
     fc0:	0000                	unimp
     fc2:	0000                	unimp
     fc4:	0100                	addi	s0,sp,128
     fc6:	6000                	flw	fs0,0(s0)
	...
     fd0:	0001                	nop
     fd2:	0000005b          	0x5b
     fd6:	0000                	unimp
     fd8:	0000                	unimp
     fda:	0100                	addi	s0,sp,128
     fdc:	5b00                	lw	s0,48(a4)
	...
     fee:	0001                	nop
     ff0:	005e                	c.slli	zero,0x17
     ff2:	0000                	unimp
     ff4:	0000                	unimp
     ff6:	0000                	unimp
     ff8:	0100                	addi	s0,sp,128
     ffa:	5f00                	lw	s0,56(a4)
	...
    100c:	0002                	c.slli64	zero
    100e:	9f31                	0x9f31
	...
    1018:	0001                	nop
    101a:	0061                	c.nop	24
	...
    1028:	0000                	unimp
    102a:	0200                	addi	s0,sp,256
    102c:	3000                	fld	fs0,32(s0)
    102e:	009f 0000 0000      	0x9f
    1034:	0000                	unimp
    1036:	0200                	addi	s0,sp,256
    1038:	3000                	fld	fs0,32(s0)
    103a:	009f 0000 0000      	0x9f
	...
    1048:	0000                	unimp
    104a:	0100                	addi	s0,sp,128
    104c:	6c00                	flw	fs0,24(s0)
	...
    1056:	0001                	nop
    1058:	006c                	addi	a1,sp,12
	...
    1066:	0000                	unimp
    1068:	0100                	addi	s0,sp,128
    106a:	5600                	lw	s0,40(a2)
	...
    1074:	0001                	nop
    1076:	0056                	c.slli	zero,0x15
    1078:	0000                	unimp
    107a:	0000                	unimp
    107c:	0000                	unimp
    107e:	0100                	addi	s0,sp,128
    1080:	5600                	lw	s0,40(a2)
	...
    108a:	0001                	nop
    108c:	0056                	c.slli	zero,0x15
    108e:	0000                	unimp
    1090:	0000                	unimp
    1092:	0000                	unimp
    1094:	0100                	addi	s0,sp,128
    1096:	5600                	lw	s0,40(a2)
	...
    10a8:	0001                	nop
    10aa:	005c                	addi	a5,sp,4
    10ac:	0000                	unimp
    10ae:	0000                	unimp
    10b0:	0000                	unimp
    10b2:	0100                	addi	s0,sp,128
    10b4:	5c00                	lw	s0,56(s0)
	...
    10c6:	0001                	nop
    10c8:	005e                	c.slli	zero,0x17
	...
    10d6:	0000                	unimp
    10d8:	0100                	addi	s0,sp,128
    10da:	5c00                	lw	s0,56(s0)
	...
    10ec:	0001                	nop
    10ee:	005a                	c.slli	zero,0x16
    10f0:	0000                	unimp
    10f2:	0000                	unimp
    10f4:	0000                	unimp
    10f6:	0700                	addi	s0,sp,896
    10f8:	8100                	0x8100
    10fa:	4000                	lw	s0,0(s0)
    10fc:	4024                	lw	s1,64(s0)
    10fe:	9f25                	0x9f25
	...
    1110:	0001                	nop
    1112:	005d                	c.nop	23
	...
    1120:	0000                	unimp
    1122:	0100                	addi	s0,sp,128
    1124:	5e00                	lw	s0,56(a2)
	...
    112e:	0001                	nop
    1130:	005d                	c.nop	23
	...
    113e:	0000                	unimp
    1140:	0100                	addi	s0,sp,128
    1142:	5e00                	lw	s0,56(a2)
	...
    114c:	0001                	nop
    114e:	005f 0000 0000      	0x5f
	...
    115c:	0000                	unimp
    115e:	0100                	addi	s0,sp,128
    1160:	6000                	flw	fs0,0(s0)
	...
    116a:	0001                	nop
    116c:	005d                	c.nop	23
	...
    117a:	0000                	unimp
    117c:	0100                	addi	s0,sp,128
    117e:	6100                	flw	fs0,0(a0)
	...
    1188:	0001                	nop
    118a:	0061                	c.nop	24
	...
    1198:	0000                	unimp
    119a:	0100                	addi	s0,sp,128
    119c:	5e00                	lw	s0,56(a2)
	...
    11ae:	0001                	nop
    11b0:	005e                	c.slli	zero,0x17
	...
    11be:	0000                	unimp
    11c0:	0100                	addi	s0,sp,128
    11c2:	5a00                	lw	s0,48(a2)
	...
    11cc:	00810007          	0x810007
    11d0:	2440                	fld	fs0,136(s0)
    11d2:	2540                	fld	fs0,136(a0)
    11d4:	009f 0000 0000      	0x9f
	...
    11e2:	0000                	unimp
    11e4:	0100                	addi	s0,sp,128
    11e6:	5b00                	lw	s0,48(a4)
	...
    11f8:	0001                	nop
    11fa:	0000005b          	0x5b
	...
    120a:	0100                	addi	s0,sp,128
    120c:	5d00                	lw	s0,56(a0)
	...
    1216:	0001                	nop
    1218:	005d                	c.nop	23
    121a:	0000                	unimp
    121c:	0000                	unimp
    121e:	0000                	unimp
    1220:	0100                	addi	s0,sp,128
    1222:	5b00                	lw	s0,48(a4)
	...
    1234:	0001                	nop
    1236:	005d                	c.nop	23
    1238:	0000                	unimp
    123a:	0000                	unimp
    123c:	0000                	unimp
    123e:	0100                	addi	s0,sp,128
    1240:	5f00                	lw	s0,56(a4)
	...
    1252:	0001                	nop
    1254:	0000005b          	0x5b
    1258:	0000                	unimp
    125a:	0000                	unimp
    125c:	0100                	addi	s0,sp,128
    125e:	5b00                	lw	s0,48(a4)
	...
    1270:	0001                	nop
    1272:	005a                	c.slli	zero,0x16
	...
    1280:	0000                	unimp
    1282:	0100                	addi	s0,sp,128
    1284:	5b00                	lw	s0,48(a4)
	...
    128e:	00810007          	0x810007
    1292:	2440                	fld	fs0,136(s0)
    1294:	2540                	fld	fs0,136(a0)
    1296:	009f 0000 0000      	0x9f
	...
    12a4:	0000                	unimp
    12a6:	0100                	addi	s0,sp,128
    12a8:	5e00                	lw	s0,56(a2)
	...
    12ba:	0001                	nop
    12bc:	005c                	addi	a5,sp,4
	...
    12ca:	0000                	unimp
    12cc:	0100                	addi	s0,sp,128
    12ce:	5d00                	lw	s0,56(a0)
	...
    12d8:	0001                	nop
    12da:	005d                	c.nop	23
    12dc:	0000                	unimp
    12de:	0000                	unimp
    12e0:	0000                	unimp
    12e2:	0100                	addi	s0,sp,128
    12e4:	5c00                	lw	s0,56(s0)
	...
    12f6:	0001                	nop
    12f8:	005d                	c.nop	23
    12fa:	0000                	unimp
    12fc:	0000                	unimp
    12fe:	0000                	unimp
    1300:	0100                	addi	s0,sp,128
    1302:	5b00                	lw	s0,48(a4)
	...
    1314:	0001                	nop
    1316:	005e                	c.slli	zero,0x17
    1318:	0000                	unimp
    131a:	0000                	unimp
    131c:	0000                	unimp
    131e:	0100                	addi	s0,sp,128
    1320:	5c00                	lw	s0,56(s0)
	...
    1332:	0001                	nop
    1334:	005d                	c.nop	23
	...
    1342:	0000                	unimp
    1344:	0100                	addi	s0,sp,128
    1346:	5e00                	lw	s0,56(a2)
	...
    1358:	0001                	nop
    135a:	005f 0000 0000      	0x5f
	...
    1368:	0000                	unimp
    136a:	0100                	addi	s0,sp,128
    136c:	5e00                	lw	s0,56(a2)
	...
    1376:	0001                	nop
    1378:	005c                	addi	a5,sp,4
    137a:	0000                	unimp
    137c:	0000                	unimp
    137e:	0000                	unimp
    1380:	0100                	addi	s0,sp,128
    1382:	5e00                	lw	s0,56(a2)
	...
    1394:	0001                	nop
    1396:	005e                	c.slli	zero,0x17
    1398:	0000                	unimp
    139a:	0000                	unimp
    139c:	0000                	unimp
    139e:	0500                	addi	s0,sp,640
    13a0:	8e00                	0x8e00
    13a2:	4000                	lw	s0,0(s0)
    13a4:	9f25                	0x9f25
	...
    13b6:	0001                	nop
    13b8:	0000005b          	0x5b
    13bc:	0000                	unimp
    13be:	0000                	unimp
    13c0:	0700                	addi	s0,sp,896
    13c2:	8e00                	0x8e00
    13c4:	4000                	lw	s0,0(s0)
    13c6:	4024                	lw	s1,64(s0)
    13c8:	9f25                	0x9f25
	...
    13da:	0001                	nop
    13dc:	005f 0000 0000      	0x5f
    13e2:	0000                	unimp
    13e4:	0100                	addi	s0,sp,128
    13e6:	6100                	flw	fs0,0(a0)
	...
    13f8:	0001                	nop
    13fa:	005d                	c.nop	23
    13fc:	0000                	unimp
    13fe:	0000                	unimp
    1400:	0000                	unimp
    1402:	0100                	addi	s0,sp,128
    1404:	5f00                	lw	s0,56(a4)
	...
    1416:	0001                	nop
    1418:	0061                	c.nop	24
    141a:	0000                	unimp
    141c:	0000                	unimp
    141e:	0000                	unimp
    1420:	0100                	addi	s0,sp,128
    1422:	5d00                	lw	s0,56(a0)
	...
    142c:	0001                	nop
    142e:	005d                	c.nop	23
	...
    143c:	0000                	unimp
    143e:	0100                	addi	s0,sp,128
    1440:	6d00                	flw	fs0,24(a0)
	...
    144a:	0001                	nop
    144c:	006d                	c.nop	27
    144e:	0000                	unimp
    1450:	0000                	unimp
    1452:	0000                	unimp
    1454:	0100                	addi	s0,sp,128
    1456:	6d00                	flw	fs0,24(a0)
	...
    1460:	0001                	nop
    1462:	0000005b          	0x5b
	...
    1472:	0100                	addi	s0,sp,128
    1474:	6d00                	flw	fs0,24(a0)
	...
    147e:	0006                	c.slli	zero,0x1
    1480:	007f007b          	0x7f007b
    1484:	9f1e                	add	t5,t5,t2
	...
    148e:	0001                	nop
    1490:	0000005b          	0x5b
    1494:	0000                	unimp
    1496:	0000                	unimp
    1498:	0a00                	addi	s0,sp,272
    149a:	8e00                	0x8e00
    149c:	4000                	lw	s0,0(s0)
    149e:	4024                	lw	s1,64(s0)
    14a0:	7d25                	lui	s10,0xfffe9
    14a2:	1e00                	addi	s0,sp,816
    14a4:	009f 0000 0000      	0x9f
	...
    14b2:	0000                	unimp
    14b4:	0100                	addi	s0,sp,128
    14b6:	5e00                	lw	s0,56(a2)
	...
    14c8:	0001                	nop
    14ca:	005d                	c.nop	23
	...
    14d8:	0000                	unimp
    14da:	0100                	addi	s0,sp,128
    14dc:	5f00                	lw	s0,56(a4)
	...
    14ee:	0001                	nop
    14f0:	0061                	c.nop	24
	...
    14fe:	0000                	unimp
    1500:	0100                	addi	s0,sp,128
    1502:	6000                	flw	fs0,0(s0)
	...
    1514:	0001                	nop
    1516:	005f 0000 0000      	0x5f
    151c:	0000                	unimp
    151e:	0600                	addi	s0,sp,768
    1520:	8d00                	0x8d00
    1522:	7c7f                	0x7c7f
    1524:	1a00                	addi	s0,sp,304
    1526:	009f 0000 0000      	0x9f
    152c:	0000                	unimp
    152e:	0600                	addi	s0,sp,768
    1530:	7c00                	flw	fs0,56(s0)
    1532:	7f00                	flw	fs0,56(a4)
    1534:	1a00                	addi	s0,sp,304
    1536:	009f 0000 0000      	0x9f
	...
    1544:	0000                	unimp
    1546:	0100                	addi	s0,sp,128
    1548:	6100                	flw	fs0,0(a0)
	...
    155a:	0001                	nop
    155c:	005c                	addi	a5,sp,4
	...
    156a:	0000                	unimp
    156c:	0100                	addi	s0,sp,128
    156e:	5e00                	lw	s0,56(a2)
	...

Disassembly of section .debug_ranges:

00000000 <.debug_ranges>:
   0:	0001                	nop
   2:	0000                	unimp
   4:	0001                	nop
   6:	0000                	unimp
   8:	0001                	nop
   a:	0000                	unimp
   c:	0001                	nop
   e:	0000                	unimp
  10:	0001                	nop
  12:	0000                	unimp
  14:	0001                	nop
  16:	0000                	unimp
  18:	0001                	nop
  1a:	0000                	unimp
  1c:	0001                	nop
	...
  26:	0000                	unimp
  28:	0001                	nop
  2a:	0000                	unimp
  2c:	0001                	nop
  2e:	0000                	unimp
  30:	0001                	nop
  32:	0000                	unimp
  34:	0001                	nop
	...
  3e:	0000                	unimp
  40:	0001                	nop
  42:	0000                	unimp
  44:	0001                	nop
  46:	0000                	unimp
  48:	0001                	nop
  4a:	0000                	unimp
  4c:	0001                	nop
	...
  56:	0000                	unimp
  58:	0001                	nop
  5a:	0000                	unimp
  5c:	0001                	nop
  5e:	0000                	unimp
  60:	0001                	nop
  62:	0000                	unimp
  64:	0001                	nop
  66:	0000                	unimp
  68:	0001                	nop
  6a:	0000                	unimp
  6c:	0001                	nop
  6e:	0000                	unimp
  70:	0001                	nop
  72:	0000                	unimp
  74:	0001                	nop
  76:	0000                	unimp
  78:	0001                	nop
  7a:	0000                	unimp
  7c:	0001                	nop
	...
  86:	0000                	unimp
  88:	0001                	nop
  8a:	0000                	unimp
  8c:	0001                	nop
  8e:	0000                	unimp
  90:	0001                	nop
  92:	0000                	unimp
  94:	0001                	nop
  96:	0000                	unimp
  98:	0001                	nop
  9a:	0000                	unimp
  9c:	0001                	nop
  9e:	0000                	unimp
  a0:	0001                	nop
  a2:	0000                	unimp
  a4:	0001                	nop
  a6:	0000                	unimp
  a8:	0001                	nop
  aa:	0000                	unimp
  ac:	0001                	nop
	...
  b6:	0000                	unimp
  b8:	0001                	nop
  ba:	0000                	unimp
  bc:	0001                	nop
  be:	0000                	unimp
  c0:	0001                	nop
  c2:	0000                	unimp
  c4:	0001                	nop
	...
  ce:	0000                	unimp
  d0:	0001                	nop
  d2:	0000                	unimp
  d4:	0001                	nop
  d6:	0000                	unimp
  d8:	0001                	nop
  da:	0000                	unimp
  dc:	0001                	nop
	...
  e6:	0000                	unimp
  e8:	0001                	nop
  ea:	0000                	unimp
  ec:	0001                	nop
  ee:	0000                	unimp
  f0:	0001                	nop
  f2:	0000                	unimp
  f4:	0001                	nop
	...
  fe:	0000                	unimp
 100:	0001                	nop
 102:	0000                	unimp
 104:	0001                	nop
 106:	0000                	unimp
 108:	0001                	nop
 10a:	0000                	unimp
 10c:	0001                	nop
	...
 116:	0000                	unimp
 118:	0001                	nop
 11a:	0000                	unimp
 11c:	0001                	nop
 11e:	0000                	unimp
 120:	0001                	nop
 122:	0000                	unimp
 124:	0001                	nop
	...
 12e:	0000                	unimp
 130:	0001                	nop
 132:	0000                	unimp
 134:	0001                	nop
 136:	0000                	unimp
 138:	0001                	nop
 13a:	0000                	unimp
 13c:	0001                	nop
	...
 146:	0000                	unimp
 148:	0001                	nop
 14a:	0000                	unimp
 14c:	0001                	nop
 14e:	0000                	unimp
 150:	0001                	nop
 152:	0000                	unimp
 154:	0001                	nop
	...
 15e:	0000                	unimp
 160:	0001                	nop
 162:	0000                	unimp
 164:	0001                	nop
 166:	0000                	unimp
 168:	0001                	nop
 16a:	0000                	unimp
 16c:	0001                	nop
	...
 176:	0000                	unimp
 178:	0001                	nop
 17a:	0000                	unimp
 17c:	0001                	nop
 17e:	0000                	unimp
 180:	0001                	nop
 182:	0000                	unimp
 184:	0001                	nop
 186:	0000                	unimp
 188:	0001                	nop
 18a:	0000                	unimp
 18c:	0001                	nop
 18e:	0000                	unimp
 190:	0001                	nop
 192:	0000                	unimp
 194:	0001                	nop
	...
 19e:	0000                	unimp
 1a0:	0001                	nop
 1a2:	0000                	unimp
 1a4:	0001                	nop
 1a6:	0000                	unimp
 1a8:	0001                	nop
 1aa:	0000                	unimp
 1ac:	0001                	nop
	...
