
kernel.elf:     file format elf32-littleriscv


Disassembly of section .init:

80000000 <_start>:
80000000:	00000597          	auipc	a1,0x0
80000004:	0e058593          	addi	a1,a1,224 # 800000e0 <vx_set_sp>
80000008:	fc102573          	csrr	a0,0xfc1
8000000c:	00b5106b          	0xb5106b
80000010:	0d0000ef          	jal	ra,800000e0 <vx_set_sp>
80000014:	00100513          	li	a0,1
80000018:	0005006b          	0x5006b
8000001c:	00002517          	auipc	a0,0x2
80000020:	c4050513          	addi	a0,a0,-960 # 80001c5c <g_wspawn_args>
80000024:	00002617          	auipc	a2,0x2
80000028:	cb860613          	addi	a2,a2,-840 # 80001cdc <__BSS_END__>
8000002c:	40a60633          	sub	a2,a2,a0
80000030:	00000593          	li	a1,0
80000034:	558000ef          	jal	ra,8000058c <memset>
80000038:	00000517          	auipc	a0,0x0
8000003c:	45c50513          	addi	a0,a0,1116 # 80000494 <__libc_fini_array>
80000040:	40c000ef          	jal	ra,8000044c <atexit>
80000044:	4ac000ef          	jal	ra,800004f0 <__libc_init_array>
80000048:	008000ef          	jal	ra,80000050 <main>
8000004c:	4140006f          	j	80000460 <exit>

Disassembly of section .text:

80000050 <main>:
80000050:	7ffff7b7          	lui	a5,0x7ffff
80000054:	0007a503          	lw	a0,0(a5) # 7ffff000 <__stack_size+0x7fffec00>
80000058:	800005b7          	lui	a1,0x80000
8000005c:	7ffff637          	lui	a2,0x7ffff
80000060:	08058593          	addi	a1,a1,128 # 80000080 <__stack_top+0x81000080>
80000064:	1e00006f          	j	80000244 <vx_spawn_tasks>

80000068 <register_fini>:
80000068:	00000793          	li	a5,0
8000006c:	00078863          	beqz	a5,8000007c <register_fini+0x14>
80000070:	80000537          	lui	a0,0x80000
80000074:	49450513          	addi	a0,a0,1172 # 80000494 <__stack_top+0x81000494>
80000078:	3d40006f          	j	8000044c <atexit>
8000007c:	00008067          	ret

80000080 <kernel_body>:
80000080:	0045a683          	lw	a3,4(a1)
80000084:	0085a603          	lw	a2,8(a1)
80000088:	00c5a703          	lw	a4,12(a1)
8000008c:	02d50533          	mul	a0,a0,a3
80000090:	0105a803          	lw	a6,16(a1)
80000094:	04068063          	beqz	a3,800000d4 <kernel_body+0x54>
80000098:	00a686b3          	add	a3,a3,a0
8000009c:	00269693          	slli	a3,a3,0x2
800000a0:	00251513          	slli	a0,a0,0x2
800000a4:	00c507b3          	add	a5,a0,a2
800000a8:	00c686b3          	add	a3,a3,a2
800000ac:	40c80833          	sub	a6,a6,a2
800000b0:	40c70533          	sub	a0,a4,a2
800000b4:	00f50733          	add	a4,a0,a5
800000b8:	0007a583          	lw	a1,0(a5)
800000bc:	00072703          	lw	a4,0(a4)
800000c0:	00f80633          	add	a2,a6,a5
800000c4:	00478793          	addi	a5,a5,4
800000c8:	00b70733          	add	a4,a4,a1
800000cc:	00e62023          	sw	a4,0(a2) # 7ffff000 <__stack_size+0x7fffec00>
800000d0:	fef692e3          	bne	a3,a5,800000b4 <kernel_body+0x34>
800000d4:	00008067          	ret

800000d8 <_exit>:
800000d8:	00000513          	li	a0,0
800000dc:	0005006b          	0x5006b

800000e0 <vx_set_sp>:
800000e0:	fc002573          	csrr	a0,0xfc0
800000e4:	0005006b          	0x5006b
800000e8:	00002197          	auipc	gp,0x2
800000ec:	f4818193          	addi	gp,gp,-184 # 80002030 <__global_pointer>
800000f0:	7f000117          	auipc	sp,0x7f000
800000f4:	f1010113          	addi	sp,sp,-240 # ff000000 <__stack_top>
800000f8:	40000593          	li	a1,1024
800000fc:	cc102673          	csrr	a2,0xcc1
80000100:	02c585b3          	mul	a1,a1,a2
80000104:	40b10133          	sub	sp,sp,a1
80000108:	cc3026f3          	csrr	a3,0xcc3
8000010c:	00068663          	beqz	a3,80000118 <RETURN>
80000110:	00000513          	li	a0,0
80000114:	0005006b          	0x5006b

80000118 <RETURN>:
80000118:	00008067          	ret

8000011c <spawn_tasks_callback>:
8000011c:	fe010113          	addi	sp,sp,-32
80000120:	00112e23          	sw	ra,28(sp)
80000124:	00812c23          	sw	s0,24(sp)
80000128:	00912a23          	sw	s1,20(sp)
8000012c:	01212823          	sw	s2,16(sp)
80000130:	01312623          	sw	s3,12(sp)
80000134:	01412423          	sw	s4,8(sp)
80000138:	2ec000ef          	jal	ra,80000424 <vx_num_threads>
8000013c:	298000ef          	jal	ra,800003d4 <vx_tmc>
80000140:	2dc000ef          	jal	ra,8000041c <vx_core_id>
80000144:	00050493          	mv	s1,a0
80000148:	2ac000ef          	jal	ra,800003f4 <vx_warp_id>
8000014c:	00050993          	mv	s3,a0
80000150:	2b4000ef          	jal	ra,80000404 <vx_thread_id>
80000154:	00050a13          	mv	s4,a0
80000158:	2cc000ef          	jal	ra,80000424 <vx_num_threads>
8000015c:	800027b7          	lui	a5,0x80002
80000160:	00249493          	slli	s1,s1,0x2
80000164:	c5c78793          	addi	a5,a5,-932 # 80001c5c <__stack_top+0x81001c5c>
80000168:	009787b3          	add	a5,a5,s1
8000016c:	0007a483          	lw	s1,0(a5)
80000170:	0104a403          	lw	s0,16(s1)
80000174:	00c4a703          	lw	a4,12(s1)
80000178:	0089a933          	slt	s2,s3,s0
8000017c:	00040793          	mv	a5,s0
80000180:	00e90933          	add	s2,s2,a4
80000184:	03370433          	mul	s0,a4,s3
80000188:	00f9d463          	bge	s3,a5,80000190 <spawn_tasks_callback+0x74>
8000018c:	00098793          	mv	a5,s3
80000190:	00f40433          	add	s0,s0,a5
80000194:	0084a783          	lw	a5,8(s1)
80000198:	02a40433          	mul	s0,s0,a0
8000019c:	032a0a33          	mul	s4,s4,s2
800001a0:	00f40433          	add	s0,s0,a5
800001a4:	01440433          	add	s0,s0,s4
800001a8:	00890933          	add	s2,s2,s0
800001ac:	01245e63          	bge	s0,s2,800001c8 <spawn_tasks_callback+0xac>
800001b0:	0004a783          	lw	a5,0(s1)
800001b4:	0044a583          	lw	a1,4(s1)
800001b8:	00040513          	mv	a0,s0
800001bc:	00140413          	addi	s0,s0,1
800001c0:	000780e7          	jalr	a5
800001c4:	fe8916e3          	bne	s2,s0,800001b0 <spawn_tasks_callback+0x94>
800001c8:	01812403          	lw	s0,24(sp)
800001cc:	01c12083          	lw	ra,28(sp)
800001d0:	01412483          	lw	s1,20(sp)
800001d4:	01012903          	lw	s2,16(sp)
800001d8:	00812a03          	lw	s4,8(sp)
800001dc:	0019b513          	seqz	a0,s3
800001e0:	00c12983          	lw	s3,12(sp)
800001e4:	02010113          	addi	sp,sp,32
800001e8:	1ec0006f          	j	800003d4 <vx_tmc>

800001ec <spawn_remaining_tasks_callback>:
800001ec:	ff010113          	addi	sp,sp,-16
800001f0:	00112623          	sw	ra,12(sp)
800001f4:	00812423          	sw	s0,8(sp)
800001f8:	1dc000ef          	jal	ra,800003d4 <vx_tmc>
800001fc:	220000ef          	jal	ra,8000041c <vx_core_id>
80000200:	00050413          	mv	s0,a0
80000204:	210000ef          	jal	ra,80000414 <vx_thread_gid>
80000208:	800027b7          	lui	a5,0x80002
8000020c:	00241413          	slli	s0,s0,0x2
80000210:	c5c78793          	addi	a5,a5,-932 # 80001c5c <__stack_top+0x81001c5c>
80000214:	008787b3          	add	a5,a5,s0
80000218:	0007a783          	lw	a5,0(a5)
8000021c:	0087a683          	lw	a3,8(a5)
80000220:	0007a703          	lw	a4,0(a5)
80000224:	0047a583          	lw	a1,4(a5)
80000228:	00d50533          	add	a0,a0,a3
8000022c:	000700e7          	jalr	a4
80000230:	00812403          	lw	s0,8(sp)
80000234:	00c12083          	lw	ra,12(sp)
80000238:	00100513          	li	a0,1
8000023c:	01010113          	addi	sp,sp,16
80000240:	1940006f          	j	800003d4 <vx_tmc>

80000244 <vx_spawn_tasks>:
80000244:	fc010113          	addi	sp,sp,-64
80000248:	02112e23          	sw	ra,60(sp)
8000024c:	02812c23          	sw	s0,56(sp)
80000250:	02912a23          	sw	s1,52(sp)
80000254:	03212823          	sw	s2,48(sp)
80000258:	03312623          	sw	s3,44(sp)
8000025c:	03412423          	sw	s4,40(sp)
80000260:	00060993          	mv	s3,a2
80000264:	00058a13          	mv	s4,a1
80000268:	03612023          	sw	s6,32(sp)
8000026c:	03512223          	sw	s5,36(sp)
80000270:	00050913          	mv	s2,a0
80000274:	1c0000ef          	jal	ra,80000434 <vx_num_cores>
80000278:	00050413          	mv	s0,a0
8000027c:	1b0000ef          	jal	ra,8000042c <vx_num_warps>
80000280:	00050493          	mv	s1,a0
80000284:	1a0000ef          	jal	ra,80000424 <vx_num_threads>
80000288:	00050b13          	mv	s6,a0
8000028c:	190000ef          	jal	ra,8000041c <vx_core_id>
80000290:	01f00713          	li	a4,31
80000294:	08a74863          	blt	a4,a0,80000324 <vx_spawn_tasks+0xe0>
80000298:	036486b3          	mul	a3,s1,s6
8000029c:	00050793          	mv	a5,a0
800002a0:	00100713          	li	a4,1
800002a4:	0126d463          	bge	a3,s2,800002ac <vx_spawn_tasks+0x68>
800002a8:	02d94733          	div	a4,s2,a3
800002ac:	0ae44063          	blt	s0,a4,8000034c <vx_spawn_tasks+0x108>
800002b0:	06e7da63          	bge	a5,a4,80000324 <vx_spawn_tasks+0xe0>
800002b4:	fff40413          	addi	s0,s0,-1
800002b8:	02e94633          	div	a2,s2,a4
800002bc:	00060693          	mv	a3,a2
800002c0:	00f41663          	bne	s0,a5,800002cc <vx_spawn_tasks+0x88>
800002c4:	02e96933          	rem	s2,s2,a4
800002c8:	00c906b3          	add	a3,s2,a2
800002cc:	0366cab3          	div	s5,a3,s6
800002d0:	0366e933          	rem	s2,a3,s6
800002d4:	089ac263          	blt	s5,s1,80000358 <vx_spawn_tasks+0x114>
800002d8:	00100693          	li	a3,1
800002dc:	029ac733          	div	a4,s5,s1
800002e0:	00070663          	beqz	a4,800002ec <vx_spawn_tasks+0xa8>
800002e4:	00070693          	mv	a3,a4
800002e8:	029ae733          	rem	a4,s5,s1
800002ec:	80002437          	lui	s0,0x80002
800002f0:	c5c40413          	addi	s0,s0,-932 # 80001c5c <__stack_top+0x81001c5c>
800002f4:	00e12e23          	sw	a4,28(sp)
800002f8:	00c10713          	addi	a4,sp,12
800002fc:	01412623          	sw	s4,12(sp)
80000300:	01312823          	sw	s3,16(sp)
80000304:	00d12c23          	sw	a3,24(sp)
80000308:	02c78633          	mul	a2,a5,a2
8000030c:	00279793          	slli	a5,a5,0x2
80000310:	00f407b3          	add	a5,s0,a5
80000314:	00e7a023          	sw	a4,0(a5)
80000318:	00c12a23          	sw	a2,20(sp)
8000031c:	05504463          	bgtz	s5,80000364 <vx_spawn_tasks+0x120>
80000320:	06091263          	bnez	s2,80000384 <vx_spawn_tasks+0x140>
80000324:	03c12083          	lw	ra,60(sp)
80000328:	03812403          	lw	s0,56(sp)
8000032c:	03412483          	lw	s1,52(sp)
80000330:	03012903          	lw	s2,48(sp)
80000334:	02c12983          	lw	s3,44(sp)
80000338:	02812a03          	lw	s4,40(sp)
8000033c:	02412a83          	lw	s5,36(sp)
80000340:	02012b03          	lw	s6,32(sp)
80000344:	04010113          	addi	sp,sp,64
80000348:	00008067          	ret
8000034c:	00040713          	mv	a4,s0
80000350:	f6e7c2e3          	blt	a5,a4,800002b4 <vx_spawn_tasks+0x70>
80000354:	fd1ff06f          	j	80000324 <vx_spawn_tasks+0xe0>
80000358:	00000713          	li	a4,0
8000035c:	00100693          	li	a3,1
80000360:	f8dff06f          	j	800002ec <vx_spawn_tasks+0xa8>
80000364:	00048513          	mv	a0,s1
80000368:	009ad463          	bge	s5,s1,80000370 <vx_spawn_tasks+0x12c>
8000036c:	000a8513          	mv	a0,s5
80000370:	800005b7          	lui	a1,0x80000
80000374:	11c58593          	addi	a1,a1,284 # 8000011c <__stack_top+0x8100011c>
80000378:	054000ef          	jal	ra,800003cc <vx_wspawn>
8000037c:	da1ff0ef          	jal	ra,8000011c <spawn_tasks_callback>
80000380:	fa0902e3          	beqz	s2,80000324 <vx_spawn_tasks+0xe0>
80000384:	035b07b3          	mul	a5,s6,s5
80000388:	00090513          	mv	a0,s2
8000038c:	00f12a23          	sw	a5,20(sp)
80000390:	044000ef          	jal	ra,800003d4 <vx_tmc>
80000394:	088000ef          	jal	ra,8000041c <vx_core_id>
80000398:	00050493          	mv	s1,a0
8000039c:	00249493          	slli	s1,s1,0x2
800003a0:	074000ef          	jal	ra,80000414 <vx_thread_gid>
800003a4:	00940433          	add	s0,s0,s1
800003a8:	00042783          	lw	a5,0(s0)
800003ac:	0087a683          	lw	a3,8(a5)
800003b0:	0007a703          	lw	a4,0(a5)
800003b4:	0047a583          	lw	a1,4(a5)
800003b8:	00d50533          	add	a0,a0,a3
800003bc:	000700e7          	jalr	a4
800003c0:	00100513          	li	a0,1
800003c4:	010000ef          	jal	ra,800003d4 <vx_tmc>
800003c8:	f5dff06f          	j	80000324 <vx_spawn_tasks+0xe0>

800003cc <vx_wspawn>:
800003cc:	00b5106b          	0xb5106b
800003d0:	00008067          	ret

800003d4 <vx_tmc>:
800003d4:	0005006b          	0x5006b
800003d8:	00008067          	ret

800003dc <vx_barrier>:
800003dc:	00b5406b          	0xb5406b
800003e0:	00008067          	ret

800003e4 <vx_split>:
800003e4:	0005206b          	0x5206b
800003e8:	00008067          	ret

800003ec <vx_join>:
800003ec:	0000306b          	0x306b
800003f0:	00008067          	ret

800003f4 <vx_warp_id>:
800003f4:	cc302573          	csrr	a0,0xcc3
800003f8:	00008067          	ret

800003fc <vx_warp_gid>:
800003fc:	f1402573          	csrr	a0,mhartid
80000400:	00008067          	ret

80000404 <vx_thread_id>:
80000404:	cc002573          	csrr	a0,0xcc0
80000408:	00008067          	ret

8000040c <vx_thread_lid>:
8000040c:	cc102573          	csrr	a0,0xcc1
80000410:	00008067          	ret

80000414 <vx_thread_gid>:
80000414:	cc202573          	csrr	a0,0xcc2
80000418:	00008067          	ret

8000041c <vx_core_id>:
8000041c:	cc502573          	csrr	a0,0xcc5
80000420:	00008067          	ret

80000424 <vx_num_threads>:
80000424:	fc002573          	csrr	a0,0xfc0
80000428:	00008067          	ret

8000042c <vx_num_warps>:
8000042c:	fc102573          	csrr	a0,0xfc1
80000430:	00008067          	ret

80000434 <vx_num_cores>:
80000434:	fc202573          	csrr	a0,0xfc2
80000438:	00008067          	ret

8000043c <vx_num_cycles>:
8000043c:	c0002573          	rdcycle	a0
80000440:	00008067          	ret

80000444 <vx_num_instrs>:
80000444:	c0202573          	rdinstret	a0
80000448:	00008067          	ret

8000044c <atexit>:
8000044c:	00050593          	mv	a1,a0
80000450:	00000693          	li	a3,0
80000454:	00000613          	li	a2,0
80000458:	00000513          	li	a0,0
8000045c:	20c0006f          	j	80000668 <__register_exitproc>

80000460 <exit>:
80000460:	ff010113          	addi	sp,sp,-16
80000464:	00000593          	li	a1,0
80000468:	00812423          	sw	s0,8(sp)
8000046c:	00112623          	sw	ra,12(sp)
80000470:	00050413          	mv	s0,a0
80000474:	290000ef          	jal	ra,80000704 <__call_exitprocs>
80000478:	800027b7          	lui	a5,0x80002
8000047c:	c587a503          	lw	a0,-936(a5) # 80001c58 <__stack_top+0x81001c58>
80000480:	03c52783          	lw	a5,60(a0)
80000484:	00078463          	beqz	a5,8000048c <exit+0x2c>
80000488:	000780e7          	jalr	a5
8000048c:	00040513          	mv	a0,s0
80000490:	c49ff0ef          	jal	ra,800000d8 <_exit>

80000494 <__libc_fini_array>:
80000494:	ff010113          	addi	sp,sp,-16
80000498:	00812423          	sw	s0,8(sp)
8000049c:	800027b7          	lui	a5,0x80002
800004a0:	80002437          	lui	s0,0x80002
800004a4:	82c40413          	addi	s0,s0,-2004 # 8000182c <__stack_top+0x8100182c>
800004a8:	82c78793          	addi	a5,a5,-2004 # 8000182c <__stack_top+0x8100182c>
800004ac:	408787b3          	sub	a5,a5,s0
800004b0:	00912223          	sw	s1,4(sp)
800004b4:	00112623          	sw	ra,12(sp)
800004b8:	4027d493          	srai	s1,a5,0x2
800004bc:	02048063          	beqz	s1,800004dc <__libc_fini_array+0x48>
800004c0:	ffc78793          	addi	a5,a5,-4
800004c4:	00878433          	add	s0,a5,s0
800004c8:	00042783          	lw	a5,0(s0)
800004cc:	fff48493          	addi	s1,s1,-1
800004d0:	ffc40413          	addi	s0,s0,-4
800004d4:	000780e7          	jalr	a5
800004d8:	fe0498e3          	bnez	s1,800004c8 <__libc_fini_array+0x34>
800004dc:	00c12083          	lw	ra,12(sp)
800004e0:	00812403          	lw	s0,8(sp)
800004e4:	00412483          	lw	s1,4(sp)
800004e8:	01010113          	addi	sp,sp,16
800004ec:	00008067          	ret

800004f0 <__libc_init_array>:
800004f0:	ff010113          	addi	sp,sp,-16
800004f4:	00812423          	sw	s0,8(sp)
800004f8:	01212023          	sw	s2,0(sp)
800004fc:	80002437          	lui	s0,0x80002
80000500:	80002937          	lui	s2,0x80002
80000504:	82840793          	addi	a5,s0,-2008 # 80001828 <__stack_top+0x81001828>
80000508:	82890913          	addi	s2,s2,-2008 # 80001828 <__stack_top+0x81001828>
8000050c:	40f90933          	sub	s2,s2,a5
80000510:	00112623          	sw	ra,12(sp)
80000514:	00912223          	sw	s1,4(sp)
80000518:	40295913          	srai	s2,s2,0x2
8000051c:	02090063          	beqz	s2,8000053c <__libc_init_array+0x4c>
80000520:	82840413          	addi	s0,s0,-2008
80000524:	00000493          	li	s1,0
80000528:	00042783          	lw	a5,0(s0)
8000052c:	00148493          	addi	s1,s1,1
80000530:	00440413          	addi	s0,s0,4
80000534:	000780e7          	jalr	a5
80000538:	fe9918e3          	bne	s2,s1,80000528 <__libc_init_array+0x38>
8000053c:	80002437          	lui	s0,0x80002
80000540:	80002937          	lui	s2,0x80002
80000544:	82840793          	addi	a5,s0,-2008 # 80001828 <__stack_top+0x81001828>
80000548:	82c90913          	addi	s2,s2,-2004 # 8000182c <__stack_top+0x8100182c>
8000054c:	40f90933          	sub	s2,s2,a5
80000550:	40295913          	srai	s2,s2,0x2
80000554:	02090063          	beqz	s2,80000574 <__libc_init_array+0x84>
80000558:	82840413          	addi	s0,s0,-2008
8000055c:	00000493          	li	s1,0
80000560:	00042783          	lw	a5,0(s0)
80000564:	00148493          	addi	s1,s1,1
80000568:	00440413          	addi	s0,s0,4
8000056c:	000780e7          	jalr	a5
80000570:	fe9918e3          	bne	s2,s1,80000560 <__libc_init_array+0x70>
80000574:	00c12083          	lw	ra,12(sp)
80000578:	00812403          	lw	s0,8(sp)
8000057c:	00412483          	lw	s1,4(sp)
80000580:	00012903          	lw	s2,0(sp)
80000584:	01010113          	addi	sp,sp,16
80000588:	00008067          	ret

8000058c <memset>:
8000058c:	00f00313          	li	t1,15
80000590:	00050713          	mv	a4,a0
80000594:	02c37e63          	bgeu	t1,a2,800005d0 <memset+0x44>
80000598:	00f77793          	andi	a5,a4,15
8000059c:	0a079063          	bnez	a5,8000063c <memset+0xb0>
800005a0:	08059263          	bnez	a1,80000624 <memset+0x98>
800005a4:	ff067693          	andi	a3,a2,-16
800005a8:	00f67613          	andi	a2,a2,15
800005ac:	00e686b3          	add	a3,a3,a4
800005b0:	00b72023          	sw	a1,0(a4)
800005b4:	00b72223          	sw	a1,4(a4)
800005b8:	00b72423          	sw	a1,8(a4)
800005bc:	00b72623          	sw	a1,12(a4)
800005c0:	01070713          	addi	a4,a4,16
800005c4:	fed766e3          	bltu	a4,a3,800005b0 <memset+0x24>
800005c8:	00061463          	bnez	a2,800005d0 <memset+0x44>
800005cc:	00008067          	ret
800005d0:	40c306b3          	sub	a3,t1,a2
800005d4:	00269693          	slli	a3,a3,0x2
800005d8:	00000297          	auipc	t0,0x0
800005dc:	005686b3          	add	a3,a3,t0
800005e0:	00c68067          	jr	12(a3)
800005e4:	00b70723          	sb	a1,14(a4)
800005e8:	00b706a3          	sb	a1,13(a4)
800005ec:	00b70623          	sb	a1,12(a4)
800005f0:	00b705a3          	sb	a1,11(a4)
800005f4:	00b70523          	sb	a1,10(a4)
800005f8:	00b704a3          	sb	a1,9(a4)
800005fc:	00b70423          	sb	a1,8(a4)
80000600:	00b703a3          	sb	a1,7(a4)
80000604:	00b70323          	sb	a1,6(a4)
80000608:	00b702a3          	sb	a1,5(a4)
8000060c:	00b70223          	sb	a1,4(a4)
80000610:	00b701a3          	sb	a1,3(a4)
80000614:	00b70123          	sb	a1,2(a4)
80000618:	00b700a3          	sb	a1,1(a4)
8000061c:	00b70023          	sb	a1,0(a4)
80000620:	00008067          	ret
80000624:	0ff5f593          	andi	a1,a1,255
80000628:	00859693          	slli	a3,a1,0x8
8000062c:	00d5e5b3          	or	a1,a1,a3
80000630:	01059693          	slli	a3,a1,0x10
80000634:	00d5e5b3          	or	a1,a1,a3
80000638:	f6dff06f          	j	800005a4 <memset+0x18>
8000063c:	00279693          	slli	a3,a5,0x2
80000640:	00000297          	auipc	t0,0x0
80000644:	005686b3          	add	a3,a3,t0
80000648:	00008293          	mv	t0,ra
8000064c:	fa0680e7          	jalr	-96(a3)
80000650:	00028093          	mv	ra,t0
80000654:	ff078793          	addi	a5,a5,-16
80000658:	40f70733          	sub	a4,a4,a5
8000065c:	00f60633          	add	a2,a2,a5
80000660:	f6c378e3          	bgeu	t1,a2,800005d0 <memset+0x44>
80000664:	f3dff06f          	j	800005a0 <memset+0x14>

80000668 <__register_exitproc>:
80000668:	800027b7          	lui	a5,0x80002
8000066c:	c587a703          	lw	a4,-936(a5) # 80001c58 <__stack_top+0x81001c58>
80000670:	14872783          	lw	a5,328(a4)
80000674:	04078c63          	beqz	a5,800006cc <__register_exitproc+0x64>
80000678:	0047a703          	lw	a4,4(a5)
8000067c:	01f00813          	li	a6,31
80000680:	06e84e63          	blt	a6,a4,800006fc <__register_exitproc+0x94>
80000684:	00271813          	slli	a6,a4,0x2
80000688:	02050663          	beqz	a0,800006b4 <__register_exitproc+0x4c>
8000068c:	01078333          	add	t1,a5,a6
80000690:	08c32423          	sw	a2,136(t1)
80000694:	1887a883          	lw	a7,392(a5)
80000698:	00100613          	li	a2,1
8000069c:	00e61633          	sll	a2,a2,a4
800006a0:	00c8e8b3          	or	a7,a7,a2
800006a4:	1917a423          	sw	a7,392(a5)
800006a8:	10d32423          	sw	a3,264(t1)
800006ac:	00200693          	li	a3,2
800006b0:	02d50463          	beq	a0,a3,800006d8 <__register_exitproc+0x70>
800006b4:	00170713          	addi	a4,a4,1
800006b8:	00e7a223          	sw	a4,4(a5)
800006bc:	010787b3          	add	a5,a5,a6
800006c0:	00b7a423          	sw	a1,8(a5)
800006c4:	00000513          	li	a0,0
800006c8:	00008067          	ret
800006cc:	14c70793          	addi	a5,a4,332
800006d0:	14f72423          	sw	a5,328(a4)
800006d4:	fa5ff06f          	j	80000678 <__register_exitproc+0x10>
800006d8:	18c7a683          	lw	a3,396(a5)
800006dc:	00170713          	addi	a4,a4,1
800006e0:	00e7a223          	sw	a4,4(a5)
800006e4:	00c6e633          	or	a2,a3,a2
800006e8:	18c7a623          	sw	a2,396(a5)
800006ec:	010787b3          	add	a5,a5,a6
800006f0:	00b7a423          	sw	a1,8(a5)
800006f4:	00000513          	li	a0,0
800006f8:	00008067          	ret
800006fc:	fff00513          	li	a0,-1
80000700:	00008067          	ret

80000704 <__call_exitprocs>:
80000704:	fd010113          	addi	sp,sp,-48
80000708:	800027b7          	lui	a5,0x80002
8000070c:	01412c23          	sw	s4,24(sp)
80000710:	c587aa03          	lw	s4,-936(a5) # 80001c58 <__stack_top+0x81001c58>
80000714:	03212023          	sw	s2,32(sp)
80000718:	02112623          	sw	ra,44(sp)
8000071c:	148a2903          	lw	s2,328(s4)
80000720:	02812423          	sw	s0,40(sp)
80000724:	02912223          	sw	s1,36(sp)
80000728:	01312e23          	sw	s3,28(sp)
8000072c:	01512a23          	sw	s5,20(sp)
80000730:	01612823          	sw	s6,16(sp)
80000734:	01712623          	sw	s7,12(sp)
80000738:	01812423          	sw	s8,8(sp)
8000073c:	04090063          	beqz	s2,8000077c <__call_exitprocs+0x78>
80000740:	00050b13          	mv	s6,a0
80000744:	00058b93          	mv	s7,a1
80000748:	00100a93          	li	s5,1
8000074c:	fff00993          	li	s3,-1
80000750:	00492483          	lw	s1,4(s2)
80000754:	fff48413          	addi	s0,s1,-1
80000758:	02044263          	bltz	s0,8000077c <__call_exitprocs+0x78>
8000075c:	00249493          	slli	s1,s1,0x2
80000760:	009904b3          	add	s1,s2,s1
80000764:	040b8463          	beqz	s7,800007ac <__call_exitprocs+0xa8>
80000768:	1044a783          	lw	a5,260(s1)
8000076c:	05778063          	beq	a5,s7,800007ac <__call_exitprocs+0xa8>
80000770:	fff40413          	addi	s0,s0,-1
80000774:	ffc48493          	addi	s1,s1,-4
80000778:	ff3416e3          	bne	s0,s3,80000764 <__call_exitprocs+0x60>
8000077c:	02c12083          	lw	ra,44(sp)
80000780:	02812403          	lw	s0,40(sp)
80000784:	02412483          	lw	s1,36(sp)
80000788:	02012903          	lw	s2,32(sp)
8000078c:	01c12983          	lw	s3,28(sp)
80000790:	01812a03          	lw	s4,24(sp)
80000794:	01412a83          	lw	s5,20(sp)
80000798:	01012b03          	lw	s6,16(sp)
8000079c:	00c12b83          	lw	s7,12(sp)
800007a0:	00812c03          	lw	s8,8(sp)
800007a4:	03010113          	addi	sp,sp,48
800007a8:	00008067          	ret
800007ac:	00492783          	lw	a5,4(s2)
800007b0:	0044a683          	lw	a3,4(s1)
800007b4:	fff78793          	addi	a5,a5,-1
800007b8:	04878e63          	beq	a5,s0,80000814 <__call_exitprocs+0x110>
800007bc:	0004a223          	sw	zero,4(s1)
800007c0:	fa0688e3          	beqz	a3,80000770 <__call_exitprocs+0x6c>
800007c4:	18892783          	lw	a5,392(s2)
800007c8:	008a9733          	sll	a4,s5,s0
800007cc:	00492c03          	lw	s8,4(s2)
800007d0:	00f777b3          	and	a5,a4,a5
800007d4:	02079263          	bnez	a5,800007f8 <__call_exitprocs+0xf4>
800007d8:	000680e7          	jalr	a3
800007dc:	00492703          	lw	a4,4(s2)
800007e0:	148a2783          	lw	a5,328(s4)
800007e4:	01871463          	bne	a4,s8,800007ec <__call_exitprocs+0xe8>
800007e8:	f8f904e3          	beq	s2,a5,80000770 <__call_exitprocs+0x6c>
800007ec:	f80788e3          	beqz	a5,8000077c <__call_exitprocs+0x78>
800007f0:	00078913          	mv	s2,a5
800007f4:	f5dff06f          	j	80000750 <__call_exitprocs+0x4c>
800007f8:	18c92783          	lw	a5,396(s2)
800007fc:	0844a583          	lw	a1,132(s1)
80000800:	00f77733          	and	a4,a4,a5
80000804:	00071c63          	bnez	a4,8000081c <__call_exitprocs+0x118>
80000808:	000b0513          	mv	a0,s6
8000080c:	000680e7          	jalr	a3
80000810:	fcdff06f          	j	800007dc <__call_exitprocs+0xd8>
80000814:	00892223          	sw	s0,4(s2)
80000818:	fa9ff06f          	j	800007c0 <__call_exitprocs+0xbc>
8000081c:	00058513          	mv	a0,a1
80000820:	000680e7          	jalr	a3
80000824:	fb9ff06f          	j	800007dc <__call_exitprocs+0xd8>

Disassembly of section .init_array:

80001828 <__init_array_start>:
80001828:	0068                	addi	a0,sp,12
8000182a:	8000                	0x8000

Disassembly of section .data:

80001830 <impure_data>:
80001830:	0000                	unimp
80001832:	0000                	unimp
80001834:	1b1c                	addi	a5,sp,432
80001836:	8000                	0x8000
80001838:	1b84                	addi	s1,sp,496
8000183a:	8000                	0x8000
8000183c:	1bec                	addi	a1,sp,508
8000183e:	8000                	0x8000
	...
800018d8:	0001                	nop
800018da:	0000                	unimp
800018dc:	0000                	unimp
800018de:	0000                	unimp
800018e0:	330e                	fld	ft6,224(sp)
800018e2:	abcd                	j	80001ed4 <__BSS_END__+0x1f8>
800018e4:	1234                	addi	a3,sp,296
800018e6:	e66d                	bnez	a2,800019d0 <impure_data+0x1a0>
800018e8:	deec                	sw	a1,124(a3)
800018ea:	0005                	c.nop	1
800018ec:	0000000b          	0xb
	...

Disassembly of section .sdata:

80001c58 <_global_impure_ptr>:
80001c58:	1830                	addi	a2,sp,56
80001c5a:	8000                	0x8000

Disassembly of section .bss:

80001c5c <g_wspawn_args>:
	...

Disassembly of section .comment:

00000000 <.comment>:
   0:	3a434347          	fmsub.d	ft6,ft6,ft4,ft7,rmm
   4:	2820                	fld	fs0,80(s0)
   6:	29554e47          	fmsub.s	ft8,fa0,fs5,ft5,rmm
   a:	3920                	fld	fs0,112(a0)
   c:	322e                	fld	ft4,232(sp)
   e:	302e                	fld	ft0,232(sp)
	...

Disassembly of section .riscv.attributes:

00000000 <.riscv.attributes>:
   0:	2541                	jal	680 <__stack_size+0x280>
   2:	0000                	unimp
   4:	7200                	flw	fs0,32(a2)
   6:	7369                	lui	t1,0xffffa
   8:	01007663          	bgeu	zero,a6,14 <__stack_usage+0x14>
   c:	0000001b          	0x1b
  10:	1004                	addi	s1,sp,32
  12:	7205                	lui	tp,0xfffe1
  14:	3376                	fld	ft6,376(sp)
  16:	6932                	flw	fs2,12(sp)
  18:	7032                	flw	ft0,44(sp)
  1a:	5f30                	lw	a2,120(a4)
  1c:	326d                	jal	fffff9c6 <__stack_top+0xfff9c6>
  1e:	3070                	fld	fa2,224(s0)
  20:	665f 7032 0030      	0x307032665f
