
simple.elf:     file format elf32-littleriscv


Disassembly of section .init:

80000000 <_start>:
80000000:	fc102573          	csrr	a0,0xfc1
80000004:	00001597          	auipc	a1,0x1
80000008:	9e858593          	addi	a1,a1,-1560 # 800009ec <init_regs>
8000000c:	00b5106b          	0xb5106b
80000010:	1dd000ef          	jal	ra,800009ec <init_regs>
80000014:	00100513          	li	a0,1
80000018:	0005006b          	0x5006b
8000001c:	fc102573          	csrr	a0,0xfc1
80000020:	00001597          	auipc	a1,0x1
80000024:	a1858593          	addi	a1,a1,-1512 # 80000a38 <__init_tls>
80000028:	00b5106b          	0xb5106b
8000002c:	20d000ef          	jal	ra,80000a38 <__init_tls>
80000030:	00100513          	li	a0,1
80000034:	0005006b          	0x5006b
80000038:	00007517          	auipc	a0,0x7
8000003c:	49450513          	addi	a0,a0,1172 # 800074cc <barrier_ctr>
80000040:	00007617          	auipc	a2,0x7
80000044:	64460613          	addi	a2,a2,1604 # 80007684 <__BSS_END__>
80000048:	40a60633          	sub	a2,a2,a0
8000004c:	00000593          	li	a1,0
80000050:	4c4060ef          	jal	ra,80006514 <memset>
80000054:	00001517          	auipc	a0,0x1
80000058:	ad450513          	addi	a0,a0,-1324 # 80000b28 <__libc_fini_array>
8000005c:	354060ef          	jal	ra,800063b0 <atexit>
80000060:	235000ef          	jal	ra,80000a94 <__libc_init_array>
80000064:	008000ef          	jal	ra,8000006c <main>
80000068:	35c0606f          	j	800063c4 <exit>

Disassembly of section .text:

8000006c <main>:
8000006c:	ff010113          	addi	sp,sp,-16
80000070:	00112623          	sw	ra,12(sp)
80000074:	00812423          	sw	s0,8(sp)
80000078:	2a0000ef          	jal	ra,80000318 <_Z18test_global_memoryv>
8000007c:	00050413          	mv	s0,a0
80000080:	304000ef          	jal	ra,80000384 <_Z17test_stack_memoryv>
80000084:	00a40433          	add	s0,s0,a0
80000088:	368000ef          	jal	ra,800003f0 <_Z18test_shared_memoryv>
8000008c:	00a40433          	add	s0,s0,a0
80000090:	3ec000ef          	jal	ra,8000047c <_Z8test_tmcv>
80000094:	00a40433          	add	s0,s0,a0
80000098:	460000ef          	jal	ra,800004f8 <_Z9test_predv>
8000009c:	00a40433          	add	s0,s0,a0
800000a0:	650000ef          	jal	ra,800006f0 <_Z15test_divergencev>
800000a4:	00a40433          	add	s0,s0,a0
800000a8:	54c000ef          	jal	ra,800005f4 <_Z11test_wsapwnv>
800000ac:	00a40433          	add	s0,s0,a0
800000b0:	69c000ef          	jal	ra,8000074c <_Z16test_spawn_tasksv>
800000b4:	00a40433          	add	s0,s0,a0
800000b8:	764000ef          	jal	ra,8000081c <_Z11test_serialv>
800000bc:	00a40433          	add	s0,s0,a0
800000c0:	009000ef          	jal	ra,800008c8 <_Z10test_tmaskv>
800000c4:	00a40433          	add	s0,s0,a0
800000c8:	069000ef          	jal	ra,80000930 <_Z12test_barrierv>
800000cc:	00a40433          	add	s0,s0,a0
800000d0:	02041263          	bnez	s0,800000f4 <main+0x88>
800000d4:	00006517          	auipc	a0,0x6
800000d8:	6dc50513          	addi	a0,a0,1756 # 800067b0 <__call_exitprocs+0x124>
800000dc:	2f5000ef          	jal	ra,80000bd0 <vx_printf>
800000e0:	00c12083          	lw	ra,12(sp)
800000e4:	00040513          	mv	a0,s0
800000e8:	00812403          	lw	s0,8(sp)
800000ec:	01010113          	addi	sp,sp,16
800000f0:	00008067          	ret
800000f4:	00006517          	auipc	a0,0x6
800000f8:	6c850513          	addi	a0,a0,1736 # 800067bc <__call_exitprocs+0x130>
800000fc:	2d5000ef          	jal	ra,80000bd0 <vx_printf>
80000100:	fe1ff06f          	j	800000e0 <main+0x74>

80000104 <register_fini>:
80000104:	00000793          	li	a5,0
80000108:	00078863          	beqz	a5,80000118 <register_fini+0x14>
8000010c:	80001537          	lui	a0,0x80001
80000110:	b2850513          	addi	a0,a0,-1240 # 80000b28 <__global_pointer+0xffff9320>
80000114:	29c0606f          	j	800063b0 <atexit>
80000118:	00008067          	ret

8000011c <_Z13wspawn_kernelv>:
8000011c:	cc3027f3          	csrr	a5,0xcc3
80000120:	00007717          	auipc	a4,0x7
80000124:	4c470713          	addi	a4,a4,1220 # 800075e4 <wspawn_buffer>
80000128:	00279693          	slli	a3,a5,0x2
8000012c:	00d70733          	add	a4,a4,a3
80000130:	04178693          	addi	a3,a5,65
80000134:	00d72023          	sw	a3,0(a4)
80000138:	0017b793          	seqz	a5,a5
8000013c:	0007806b          	0x7806b
80000140:	00008067          	ret

80000144 <_Z9st_kerneliPK9st_args_t>:
80000144:	0005a703          	lw	a4,0(a1)
80000148:	00251513          	slli	a0,a0,0x2
8000014c:	0045a783          	lw	a5,4(a1)
80000150:	00a70733          	add	a4,a4,a0
80000154:	00072703          	lw	a4,0(a4)
80000158:	00a78533          	add	a0,a5,a0
8000015c:	00e52023          	sw	a4,0(a0)
80000160:	00008067          	ret

80000164 <_Z9sr_kernelPK9sr_args_t>:
80000164:	cc0027f3          	csrr	a5,0xcc0
80000168:	00052703          	lw	a4,0(a0)
8000016c:	00279693          	slli	a3,a5,0x2
80000170:	04178793          	addi	a5,a5,65
80000174:	00d70733          	add	a4,a4,a3
80000178:	00f72023          	sw	a5,0(a4)
8000017c:	00008067          	ret

80000180 <_Z14barrier_kernelv>:
80000180:	cc3025f3          	csrr	a1,0xcc3
80000184:	00859613          	slli	a2,a1,0x8
80000188:	00160613          	addi	a2,a2,1
8000018c:	00000713          	li	a4,0
80000190:	00007697          	auipc	a3,0x7
80000194:	34068693          	addi	a3,a3,832 # 800074d0 <barrier_stall>
80000198:	0006a783          	lw	a5,0(a3)
8000019c:	00170713          	addi	a4,a4,1
800001a0:	00178793          	addi	a5,a5,1
800001a4:	00f6a023          	sw	a5,0(a3)
800001a8:	fee618e3          	bne	a2,a4,80000198 <_Z14barrier_kernelv+0x18>
800001ac:	00259713          	slli	a4,a1,0x2
800001b0:	00007797          	auipc	a5,0x7
800001b4:	32478793          	addi	a5,a5,804 # 800074d4 <barrier_buffer>
800001b8:	00e787b3          	add	a5,a5,a4
800001bc:	04158713          	addi	a4,a1,65
800001c0:	00e7a023          	sw	a4,0(a5)
800001c4:	00007717          	auipc	a4,0x7
800001c8:	30872703          	lw	a4,776(a4) # 800074cc <barrier_ctr>
800001cc:	00000793          	li	a5,0
800001d0:	00e7c06b          	0xe7c06b
800001d4:	0015b593          	seqz	a1,a1
800001d8:	0005806b          	0x5806b
800001dc:	00008067          	ret

800001e0 <_Z11check_errorPKiii.constprop.0>:
800001e0:	fe010113          	addi	sp,sp,-32
800001e4:	00112e23          	sw	ra,28(sp)
800001e8:	00812c23          	sw	s0,24(sp)
800001ec:	00912a23          	sw	s1,20(sp)
800001f0:	01212823          	sw	s2,16(sp)
800001f4:	01312623          	sw	s3,12(sp)
800001f8:	01412423          	sw	s4,8(sp)
800001fc:	06b05463          	blez	a1,80000264 <_Z11check_errorPKiii.constprop.0+0x84>
80000200:	00050493          	mv	s1,a0
80000204:	04158913          	addi	s2,a1,65
80000208:	04100413          	li	s0,65
8000020c:	00000993          	li	s3,0
80000210:	00006a17          	auipc	s4,0x6
80000214:	5b8a0a13          	addi	s4,s4,1464 # 800067c8 <__call_exitprocs+0x13c>
80000218:	0004a603          	lw	a2,0(s1)
8000021c:	00040693          	mv	a3,s0
80000220:	000a0513          	mv	a0,s4
80000224:	fbf40593          	addi	a1,s0,-65
80000228:	00860663          	beq	a2,s0,80000234 <_Z11check_errorPKiii.constprop.0+0x54>
8000022c:	1a5000ef          	jal	ra,80000bd0 <vx_printf>
80000230:	00198993          	addi	s3,s3,1
80000234:	00140413          	addi	s0,s0,1
80000238:	00448493          	addi	s1,s1,4
8000023c:	fd241ee3          	bne	s0,s2,80000218 <_Z11check_errorPKiii.constprop.0+0x38>
80000240:	01c12083          	lw	ra,28(sp)
80000244:	01812403          	lw	s0,24(sp)
80000248:	01412483          	lw	s1,20(sp)
8000024c:	01012903          	lw	s2,16(sp)
80000250:	00812a03          	lw	s4,8(sp)
80000254:	00098513          	mv	a0,s3
80000258:	00c12983          	lw	s3,12(sp)
8000025c:	02010113          	addi	sp,sp,32
80000260:	00008067          	ret
80000264:	00000993          	li	s3,0
80000268:	fd9ff06f          	j	80000240 <_Z11check_errorPKiii.constprop.0+0x60>

8000026c <_Z11check_errorPKiii>:
8000026c:	fe010113          	addi	sp,sp,-32
80000270:	00112e23          	sw	ra,28(sp)
80000274:	00812c23          	sw	s0,24(sp)
80000278:	00912a23          	sw	s1,20(sp)
8000027c:	01212823          	sw	s2,16(sp)
80000280:	01312623          	sw	s3,12(sp)
80000284:	01412423          	sw	s4,8(sp)
80000288:	06c5d663          	bge	a1,a2,800002f4 <_Z11check_errorPKiii+0x88>
8000028c:	00259493          	slli	s1,a1,0x2
80000290:	009504b3          	add	s1,a0,s1
80000294:	04158413          	addi	s0,a1,65
80000298:	04160913          	addi	s2,a2,65
8000029c:	00000993          	li	s3,0
800002a0:	00006a17          	auipc	s4,0x6
800002a4:	528a0a13          	addi	s4,s4,1320 # 800067c8 <__call_exitprocs+0x13c>
800002a8:	0004a603          	lw	a2,0(s1)
800002ac:	00040693          	mv	a3,s0
800002b0:	000a0513          	mv	a0,s4
800002b4:	fbf40593          	addi	a1,s0,-65
800002b8:	00860663          	beq	a2,s0,800002c4 <_Z11check_errorPKiii+0x58>
800002bc:	115000ef          	jal	ra,80000bd0 <vx_printf>
800002c0:	00198993          	addi	s3,s3,1
800002c4:	00140413          	addi	s0,s0,1
800002c8:	00448493          	addi	s1,s1,4
800002cc:	fd241ee3          	bne	s0,s2,800002a8 <_Z11check_errorPKiii+0x3c>
800002d0:	01c12083          	lw	ra,28(sp)
800002d4:	01812403          	lw	s0,24(sp)
800002d8:	01412483          	lw	s1,20(sp)
800002dc:	01012903          	lw	s2,16(sp)
800002e0:	00812a03          	lw	s4,8(sp)
800002e4:	00098513          	mv	a0,s3
800002e8:	00c12983          	lw	s3,12(sp)
800002ec:	02010113          	addi	sp,sp,32
800002f0:	00008067          	ret
800002f4:	00000993          	li	s3,0
800002f8:	fd9ff06f          	j	800002d0 <_Z11check_errorPKiii+0x64>

800002fc <_Z17make_select_tmaski>:
800002fc:	00100793          	li	a5,1
80000300:	00a79533          	sll	a0,a5,a0
80000304:	00008067          	ret

80000308 <_Z15make_full_tmaski>:
80000308:	00100793          	li	a5,1
8000030c:	00a79533          	sll	a0,a5,a0
80000310:	fff50513          	addi	a0,a0,-1
80000314:	00008067          	ret

80000318 <_Z18test_global_memoryv>:
80000318:	ff010113          	addi	sp,sp,-16
8000031c:	00006517          	auipc	a0,0x6
80000320:	4d050513          	addi	a0,a0,1232 # 800067ec <__call_exitprocs+0x160>
80000324:	00112623          	sw	ra,12(sp)
80000328:	0a9000ef          	jal	ra,80000bd0 <vx_printf>
8000032c:	00007517          	auipc	a0,0x7
80000330:	1d850513          	addi	a0,a0,472 # 80007504 <global_buffer>
80000334:	04100793          	li	a5,65
80000338:	00f52023          	sw	a5,0(a0)
8000033c:	04200793          	li	a5,66
80000340:	00f52223          	sw	a5,4(a0)
80000344:	04300793          	li	a5,67
80000348:	00f52423          	sw	a5,8(a0)
8000034c:	04400793          	li	a5,68
80000350:	00f52623          	sw	a5,12(a0)
80000354:	04500793          	li	a5,69
80000358:	00f52823          	sw	a5,16(a0)
8000035c:	04600793          	li	a5,70
80000360:	00f52a23          	sw	a5,20(a0)
80000364:	04700793          	li	a5,71
80000368:	00c12083          	lw	ra,12(sp)
8000036c:	00f52c23          	sw	a5,24(a0)
80000370:	04800793          	li	a5,72
80000374:	00f52e23          	sw	a5,28(a0)
80000378:	00800593          	li	a1,8
8000037c:	01010113          	addi	sp,sp,16
80000380:	e61ff06f          	j	800001e0 <_Z11check_errorPKiii.constprop.0>

80000384 <_Z17test_stack_memoryv>:
80000384:	fd010113          	addi	sp,sp,-48
80000388:	00006517          	auipc	a0,0x6
8000038c:	47850513          	addi	a0,a0,1144 # 80006800 <__call_exitprocs+0x174>
80000390:	02112623          	sw	ra,44(sp)
80000394:	03d000ef          	jal	ra,80000bd0 <vx_printf>
80000398:	04100793          	li	a5,65
8000039c:	00f12023          	sw	a5,0(sp)
800003a0:	04200793          	li	a5,66
800003a4:	00f12223          	sw	a5,4(sp)
800003a8:	04300793          	li	a5,67
800003ac:	00f12423          	sw	a5,8(sp)
800003b0:	04400793          	li	a5,68
800003b4:	00f12623          	sw	a5,12(sp)
800003b8:	04500793          	li	a5,69
800003bc:	00f12823          	sw	a5,16(sp)
800003c0:	04600793          	li	a5,70
800003c4:	00f12a23          	sw	a5,20(sp)
800003c8:	04700793          	li	a5,71
800003cc:	00f12c23          	sw	a5,24(sp)
800003d0:	00010513          	mv	a0,sp
800003d4:	04800793          	li	a5,72
800003d8:	00800593          	li	a1,8
800003dc:	00f12e23          	sw	a5,28(sp)
800003e0:	e01ff0ef          	jal	ra,800001e0 <_Z11check_errorPKiii.constprop.0>
800003e4:	02c12083          	lw	ra,44(sp)
800003e8:	03010113          	addi	sp,sp,48
800003ec:	00008067          	ret

800003f0 <_Z18test_shared_memoryv>:
800003f0:	ff010113          	addi	sp,sp,-16
800003f4:	00006517          	auipc	a0,0x6
800003f8:	42050513          	addi	a0,a0,1056 # 80006814 <__call_exitprocs+0x188>
800003fc:	00112623          	sw	ra,12(sp)
80000400:	7d0000ef          	jal	ra,80000bd0 <vx_printf>
80000404:	feffc537          	lui	a0,0xfeffc
80000408:	04100793          	li	a5,65
8000040c:	00f52623          	sw	a5,12(a0) # feffc00c <__global_pointer+0x7eff4804>
80000410:	04200793          	li	a5,66
80000414:	00f52823          	sw	a5,16(a0)
80000418:	04300793          	li	a5,67
8000041c:	00f52a23          	sw	a5,20(a0)
80000420:	04400793          	li	a5,68
80000424:	00f52c23          	sw	a5,24(a0)
80000428:	04500793          	li	a5,69
8000042c:	00f52e23          	sw	a5,28(a0)
80000430:	04600793          	li	a5,70
80000434:	02f52023          	sw	a5,32(a0)
80000438:	04700793          	li	a5,71
8000043c:	02f52223          	sw	a5,36(a0)
80000440:	00c12083          	lw	ra,12(sp)
80000444:	04800793          	li	a5,72
80000448:	02f52423          	sw	a5,40(a0)
8000044c:	00800593          	li	a1,8
80000450:	00c50513          	addi	a0,a0,12
80000454:	01010113          	addi	sp,sp,16
80000458:	d89ff06f          	j	800001e0 <_Z11check_errorPKiii.constprop.0>

8000045c <_Z6do_tmcv>:
8000045c:	cc0027f3          	csrr	a5,0xcc0
80000460:	00007717          	auipc	a4,0x7
80000464:	16470713          	addi	a4,a4,356 # 800075c4 <tmc_buffer>
80000468:	00279693          	slli	a3,a5,0x2
8000046c:	00d70733          	add	a4,a4,a3
80000470:	04178793          	addi	a5,a5,65
80000474:	00f72023          	sw	a5,0(a4)
80000478:	00008067          	ret

8000047c <_Z8test_tmcv>:
8000047c:	ff010113          	addi	sp,sp,-16
80000480:	00006517          	auipc	a0,0x6
80000484:	3a850513          	addi	a0,a0,936 # 80006828 <__call_exitprocs+0x19c>
80000488:	00112623          	sw	ra,12(sp)
8000048c:	00812423          	sw	s0,8(sp)
80000490:	740000ef          	jal	ra,80000bd0 <vx_printf>
80000494:	fc002473          	csrr	s0,0xfc0
80000498:	00800793          	li	a5,8
8000049c:	0087d463          	bge	a5,s0,800004a4 <_Z8test_tmcv+0x28>
800004a0:	00800413          	li	s0,8
800004a4:	00040513          	mv	a0,s0
800004a8:	e61ff0ef          	jal	ra,80000308 <_Z15make_full_tmaski>
800004ac:	0005006b          	0x5006b
800004b0:	fadff0ef          	jal	ra,8000045c <_Z6do_tmcv>
800004b4:	00100793          	li	a5,1
800004b8:	0007806b          	0x7806b
800004bc:	00040593          	mv	a1,s0
800004c0:	00812403          	lw	s0,8(sp)
800004c4:	00c12083          	lw	ra,12(sp)
800004c8:	00007517          	auipc	a0,0x7
800004cc:	0fc50513          	addi	a0,a0,252 # 800075c4 <tmc_buffer>
800004d0:	01010113          	addi	sp,sp,16
800004d4:	d0dff06f          	j	800001e0 <_Z11check_errorPKiii.constprop.0>

800004d8 <_Z7do_predv>:
800004d8:	cc0027f3          	csrr	a5,0xcc0
800004dc:	00007717          	auipc	a4,0x7
800004e0:	04870713          	addi	a4,a4,72 # 80007524 <pred_buffer>
800004e4:	00279693          	slli	a3,a5,0x2
800004e8:	00d70733          	add	a4,a4,a3
800004ec:	04178793          	addi	a5,a5,65
800004f0:	00f72023          	sw	a5,0(a4)
800004f4:	00008067          	ret

800004f8 <_Z9test_predv>:
800004f8:	ff010113          	addi	sp,sp,-16
800004fc:	00006517          	auipc	a0,0x6
80000500:	33850513          	addi	a0,a0,824 # 80006834 <__call_exitprocs+0x1a8>
80000504:	00112623          	sw	ra,12(sp)
80000508:	00812423          	sw	s0,8(sp)
8000050c:	00912223          	sw	s1,4(sp)
80000510:	6c0000ef          	jal	ra,80000bd0 <vx_printf>
80000514:	fc0027f3          	csrr	a5,0xfc0
80000518:	00800713          	li	a4,8
8000051c:	00800493          	li	s1,8
80000520:	00f74463          	blt	a4,a5,80000528 <_Z9test_predv+0x30>
80000524:	00078493          	mv	s1,a5
80000528:	06f05e63          	blez	a5,800005a4 <_Z9test_predv+0xac>
8000052c:	00007717          	auipc	a4,0x7
80000530:	fe072c23          	sw	zero,-8(a4) # 80007524 <pred_buffer>
80000534:	00100713          	li	a4,1
80000538:	06f75663          	bge	a4,a5,800005a4 <_Z9test_predv+0xac>
8000053c:	00007717          	auipc	a4,0x7
80000540:	fe072623          	sw	zero,-20(a4) # 80007528 <pred_buffer+0x4>
80000544:	00200713          	li	a4,2
80000548:	04e78e63          	beq	a5,a4,800005a4 <_Z9test_predv+0xac>
8000054c:	00007717          	auipc	a4,0x7
80000550:	fe072023          	sw	zero,-32(a4) # 8000752c <pred_buffer+0x8>
80000554:	00300713          	li	a4,3
80000558:	04e78663          	beq	a5,a4,800005a4 <_Z9test_predv+0xac>
8000055c:	00007717          	auipc	a4,0x7
80000560:	fc072a23          	sw	zero,-44(a4) # 80007530 <pred_buffer+0xc>
80000564:	00400713          	li	a4,4
80000568:	02e78e63          	beq	a5,a4,800005a4 <_Z9test_predv+0xac>
8000056c:	00007717          	auipc	a4,0x7
80000570:	fc072423          	sw	zero,-56(a4) # 80007534 <pred_buffer+0x10>
80000574:	00500713          	li	a4,5
80000578:	02e78663          	beq	a5,a4,800005a4 <_Z9test_predv+0xac>
8000057c:	00007717          	auipc	a4,0x7
80000580:	fa072e23          	sw	zero,-68(a4) # 80007538 <pred_buffer+0x14>
80000584:	00600713          	li	a4,6
80000588:	00e78e63          	beq	a5,a4,800005a4 <_Z9test_predv+0xac>
8000058c:	00007717          	auipc	a4,0x7
80000590:	fa072823          	sw	zero,-80(a4) # 8000753c <pred_buffer+0x18>
80000594:	00700713          	li	a4,7
80000598:	00e78663          	beq	a5,a4,800005a4 <_Z9test_predv+0xac>
8000059c:	00007797          	auipc	a5,0x7
800005a0:	fa07a223          	sw	zero,-92(a5) # 80007540 <pred_buffer+0x1c>
800005a4:	ffe00793          	li	a5,-2
800005a8:	0017806b          	0x17806b
800005ac:	f2dff0ef          	jal	ra,800004d8 <_Z7do_predv>
800005b0:	00100793          	li	a5,1
800005b4:	0007806b          	0x7806b
800005b8:	00007517          	auipc	a0,0x7
800005bc:	00c50513          	addi	a0,a0,12 # 800075c4 <tmc_buffer>
800005c0:	00052403          	lw	s0,0(a0)
800005c4:	00048613          	mv	a2,s1
800005c8:	00100593          	li	a1,1
800005cc:	ca1ff0ef          	jal	ra,8000026c <_Z11check_errorPKiii>
800005d0:	00143413          	seqz	s0,s0
800005d4:	40800433          	neg	s0,s0
800005d8:	00a03533          	snez	a0,a0
800005dc:	00c12083          	lw	ra,12(sp)
800005e0:	00857533          	and	a0,a0,s0
800005e4:	00812403          	lw	s0,8(sp)
800005e8:	00412483          	lw	s1,4(sp)
800005ec:	01010113          	addi	sp,sp,16
800005f0:	00008067          	ret

800005f4 <_Z11test_wsapwnv>:
800005f4:	ff010113          	addi	sp,sp,-16
800005f8:	00006517          	auipc	a0,0x6
800005fc:	24850513          	addi	a0,a0,584 # 80006840 <__call_exitprocs+0x1b4>
80000600:	00112623          	sw	ra,12(sp)
80000604:	5cc000ef          	jal	ra,80000bd0 <vx_printf>
80000608:	fc1025f3          	csrr	a1,0xfc1
8000060c:	00800793          	li	a5,8
80000610:	00b7d463          	bge	a5,a1,80000618 <_Z11test_wsapwnv+0x24>
80000614:	00800593          	li	a1,8
80000618:	00000797          	auipc	a5,0x0
8000061c:	b0478793          	addi	a5,a5,-1276 # 8000011c <_Z13wspawn_kernelv>
80000620:	00f5906b          	0xf5906b
80000624:	cc3027f3          	csrr	a5,0xcc3
80000628:	00007517          	auipc	a0,0x7
8000062c:	fbc50513          	addi	a0,a0,-68 # 800075e4 <wspawn_buffer>
80000630:	00279713          	slli	a4,a5,0x2
80000634:	04178693          	addi	a3,a5,65
80000638:	00e50733          	add	a4,a0,a4
8000063c:	00d72023          	sw	a3,0(a4)
80000640:	0017b793          	seqz	a5,a5
80000644:	0007806b          	0x7806b
80000648:	00c12083          	lw	ra,12(sp)
8000064c:	01010113          	addi	sp,sp,16
80000650:	b91ff06f          	j	800001e0 <_Z11check_errorPKiii.constprop.0>

80000654 <_Z13do_divergencev>:
80000654:	cc0027f3          	csrr	a5,0xcc0
80000658:	0027b713          	sltiu	a4,a5,2
8000065c:	0007206b          	0x7206b
80000660:	00100713          	li	a4,1
80000664:	04f77863          	bgeu	a4,a5,800006b4 <_Z13do_divergencev+0x60>
80000668:	0037b713          	sltiu	a4,a5,3
8000066c:	0007206b          	0x7206b
80000670:	00200713          	li	a4,2
80000674:	02e78463          	beq	a5,a4,8000069c <_Z13do_divergencev+0x48>
80000678:	00007717          	auipc	a4,0x7
8000067c:	e7c70713          	addi	a4,a4,-388 # 800074f4 <dvg_buffer>
80000680:	00279793          	slli	a5,a5,0x2
80000684:	00f707b3          	add	a5,a4,a5
80000688:	04400713          	li	a4,68
8000068c:	00e7a023          	sw	a4,0(a5)
80000690:	0000306b          	0x306b
80000694:	0000306b          	0x306b
80000698:	00008067          	ret
8000069c:	04300793          	li	a5,67
800006a0:	00007717          	auipc	a4,0x7
800006a4:	e4f72e23          	sw	a5,-420(a4) # 800074fc <dvg_buffer+0x8>
800006a8:	0000306b          	0x306b
800006ac:	0000306b          	0x306b
800006b0:	00008067          	ret
800006b4:	0017c713          	xori	a4,a5,1
800006b8:	0007206b          	0x7206b
800006bc:	00079e63          	bnez	a5,800006d8 <_Z13do_divergencev+0x84>
800006c0:	04100793          	li	a5,65
800006c4:	00007717          	auipc	a4,0x7
800006c8:	e2f72823          	sw	a5,-464(a4) # 800074f4 <dvg_buffer>
800006cc:	0000306b          	0x306b
800006d0:	0000306b          	0x306b
800006d4:	00008067          	ret
800006d8:	04200793          	li	a5,66
800006dc:	00007717          	auipc	a4,0x7
800006e0:	e0f72e23          	sw	a5,-484(a4) # 800074f8 <dvg_buffer+0x4>
800006e4:	0000306b          	0x306b
800006e8:	0000306b          	0x306b
800006ec:	00008067          	ret

800006f0 <_Z15test_divergencev>:
800006f0:	ff010113          	addi	sp,sp,-16
800006f4:	00006517          	auipc	a0,0x6
800006f8:	15c50513          	addi	a0,a0,348 # 80006850 <__call_exitprocs+0x1c4>
800006fc:	00112623          	sw	ra,12(sp)
80000700:	00812423          	sw	s0,8(sp)
80000704:	4cc000ef          	jal	ra,80000bd0 <vx_printf>
80000708:	fc002473          	csrr	s0,0xfc0
8000070c:	00400793          	li	a5,4
80000710:	0087d463          	bge	a5,s0,80000718 <_Z15test_divergencev+0x28>
80000714:	00400413          	li	s0,4
80000718:	00040513          	mv	a0,s0
8000071c:	bedff0ef          	jal	ra,80000308 <_Z15make_full_tmaski>
80000720:	0005006b          	0x5006b
80000724:	f31ff0ef          	jal	ra,80000654 <_Z13do_divergencev>
80000728:	00100793          	li	a5,1
8000072c:	0007806b          	0x7806b
80000730:	00040593          	mv	a1,s0
80000734:	00812403          	lw	s0,8(sp)
80000738:	00c12083          	lw	ra,12(sp)
8000073c:	00007517          	auipc	a0,0x7
80000740:	db850513          	addi	a0,a0,-584 # 800074f4 <dvg_buffer>
80000744:	01010113          	addi	sp,sp,16
80000748:	a99ff06f          	j	800001e0 <_Z11check_errorPKiii.constprop.0>

8000074c <_Z16test_spawn_tasksv>:
8000074c:	fe010113          	addi	sp,sp,-32
80000750:	00006517          	auipc	a0,0x6
80000754:	11c50513          	addi	a0,a0,284 # 8000686c <__call_exitprocs+0x1e0>
80000758:	00112e23          	sw	ra,28(sp)
8000075c:	00812c23          	sw	s0,24(sp)
80000760:	470000ef          	jal	ra,80000bd0 <vx_printf>
80000764:	00007797          	auipc	a5,0x7
80000768:	e2078793          	addi	a5,a5,-480 # 80007584 <st_buffer_src>
8000076c:	04100713          	li	a4,65
80000770:	00e7a023          	sw	a4,0(a5)
80000774:	04200713          	li	a4,66
80000778:	00e7a223          	sw	a4,4(a5)
8000077c:	04300713          	li	a4,67
80000780:	00e7a423          	sw	a4,8(a5)
80000784:	04400713          	li	a4,68
80000788:	00e7a623          	sw	a4,12(a5)
8000078c:	04500713          	li	a4,69
80000790:	00e7a823          	sw	a4,16(a5)
80000794:	04600713          	li	a4,70
80000798:	00e7aa23          	sw	a4,20(a5)
8000079c:	04700713          	li	a4,71
800007a0:	00007417          	auipc	s0,0x7
800007a4:	dc440413          	addi	s0,s0,-572 # 80007564 <st_buffer_dst>
800007a8:	00810613          	addi	a2,sp,8
800007ac:	00e7ac23          	sw	a4,24(a5)
800007b0:	00000597          	auipc	a1,0x0
800007b4:	99458593          	addi	a1,a1,-1644 # 80000144 <_Z9st_kerneliPK9st_args_t>
800007b8:	04800713          	li	a4,72
800007bc:	00800513          	li	a0,8
800007c0:	00f12423          	sw	a5,8(sp)
800007c4:	00812623          	sw	s0,12(sp)
800007c8:	00e7ae23          	sw	a4,28(a5)
800007cc:	574000ef          	jal	ra,80000d40 <vx_spawn_tasks>
800007d0:	00040513          	mv	a0,s0
800007d4:	00800593          	li	a1,8
800007d8:	a09ff0ef          	jal	ra,800001e0 <_Z11check_errorPKiii.constprop.0>
800007dc:	01c12083          	lw	ra,28(sp)
800007e0:	01812403          	lw	s0,24(sp)
800007e4:	02010113          	addi	sp,sp,32
800007e8:	00008067          	ret

800007ec <_Z9do_serialv>:
800007ec:	fe010113          	addi	sp,sp,-32
800007f0:	00c10593          	addi	a1,sp,12
800007f4:	00007797          	auipc	a5,0x7
800007f8:	d5078793          	addi	a5,a5,-688 # 80007544 <sr_buffer>
800007fc:	00000517          	auipc	a0,0x0
80000800:	96850513          	addi	a0,a0,-1688 # 80000164 <_Z9sr_kernelPK9sr_args_t>
80000804:	00112e23          	sw	ra,28(sp)
80000808:	00f12623          	sw	a5,12(sp)
8000080c:	68c000ef          	jal	ra,80000e98 <vx_serial>
80000810:	01c12083          	lw	ra,28(sp)
80000814:	02010113          	addi	sp,sp,32
80000818:	00008067          	ret

8000081c <_Z11test_serialv>:
8000081c:	ff010113          	addi	sp,sp,-16
80000820:	00006517          	auipc	a0,0x6
80000824:	06050513          	addi	a0,a0,96 # 80006880 <__call_exitprocs+0x1f4>
80000828:	00112623          	sw	ra,12(sp)
8000082c:	00812423          	sw	s0,8(sp)
80000830:	3a0000ef          	jal	ra,80000bd0 <vx_printf>
80000834:	fc002473          	csrr	s0,0xfc0
80000838:	00800793          	li	a5,8
8000083c:	0087d463          	bge	a5,s0,80000844 <_Z11test_serialv+0x28>
80000840:	00800413          	li	s0,8
80000844:	00040513          	mv	a0,s0
80000848:	ac1ff0ef          	jal	ra,80000308 <_Z15make_full_tmaski>
8000084c:	0005006b          	0x5006b
80000850:	f9dff0ef          	jal	ra,800007ec <_Z9do_serialv>
80000854:	00100793          	li	a5,1
80000858:	0007806b          	0x7806b
8000085c:	00040593          	mv	a1,s0
80000860:	00812403          	lw	s0,8(sp)
80000864:	00c12083          	lw	ra,12(sp)
80000868:	00007517          	auipc	a0,0x7
8000086c:	cdc50513          	addi	a0,a0,-804 # 80007544 <sr_buffer>
80000870:	01010113          	addi	sp,sp,16
80000874:	96dff06f          	j	800001e0 <_Z11check_errorPKiii.constprop.0>

80000878 <_Z8do_tmaskv>:
80000878:	ff010113          	addi	sp,sp,-16
8000087c:	00112623          	sw	ra,12(sp)
80000880:	00812423          	sw	s0,8(sp)
80000884:	cc002473          	csrr	s0,0xcc0
80000888:	00040513          	mv	a0,s0
8000088c:	a71ff0ef          	jal	ra,800002fc <_Z17make_select_tmaski>
80000890:	cc4027f3          	csrr	a5,0xcc4
80000894:	04140713          	addi	a4,s0,65
80000898:	00a78463          	beq	a5,a0,800008a0 <_Z8do_tmaskv+0x28>
8000089c:	00000713          	li	a4,0
800008a0:	00c12083          	lw	ra,12(sp)
800008a4:	00241693          	slli	a3,s0,0x2
800008a8:	00140513          	addi	a0,s0,1
800008ac:	00007797          	auipc	a5,0x7
800008b0:	cf878793          	addi	a5,a5,-776 # 800075a4 <tmask_buffer>
800008b4:	00812403          	lw	s0,8(sp)
800008b8:	00d787b3          	add	a5,a5,a3
800008bc:	00e7a023          	sw	a4,0(a5)
800008c0:	01010113          	addi	sp,sp,16
800008c4:	00008067          	ret

800008c8 <_Z10test_tmaskv>:
800008c8:	ff010113          	addi	sp,sp,-16
800008cc:	00006517          	auipc	a0,0x6
800008d0:	fc450513          	addi	a0,a0,-60 # 80006890 <__call_exitprocs+0x204>
800008d4:	00112623          	sw	ra,12(sp)
800008d8:	00812423          	sw	s0,8(sp)
800008dc:	2f4000ef          	jal	ra,80000bd0 <vx_printf>
800008e0:	fff00793          	li	a5,-1
800008e4:	0007806b          	0x7806b
800008e8:	fc002473          	csrr	s0,0xfc0
800008ec:	00800793          	li	a5,8
800008f0:	0087d463          	bge	a5,s0,800008f8 <_Z10test_tmaskv+0x30>
800008f4:	00800413          	li	s0,8
800008f8:	00000513          	li	a0,0
800008fc:	a01ff0ef          	jal	ra,800002fc <_Z17make_select_tmaski>
80000900:	0005006b          	0x5006b
80000904:	f75ff0ef          	jal	ra,80000878 <_Z8do_tmaskv>
80000908:	fe854ae3          	blt	a0,s0,800008fc <_Z10test_tmaskv+0x34>
8000090c:	00100793          	li	a5,1
80000910:	0007806b          	0x7806b
80000914:	00040593          	mv	a1,s0
80000918:	00812403          	lw	s0,8(sp)
8000091c:	00c12083          	lw	ra,12(sp)
80000920:	00007517          	auipc	a0,0x7
80000924:	c8450513          	addi	a0,a0,-892 # 800075a4 <tmask_buffer>
80000928:	01010113          	addi	sp,sp,16
8000092c:	8b5ff06f          	j	800001e0 <_Z11check_errorPKiii.constprop.0>

80000930 <_Z12test_barrierv>:
80000930:	ff010113          	addi	sp,sp,-16
80000934:	00006517          	auipc	a0,0x6
80000938:	f7050513          	addi	a0,a0,-144 # 800068a4 <__call_exitprocs+0x218>
8000093c:	00112623          	sw	ra,12(sp)
80000940:	290000ef          	jal	ra,80000bd0 <vx_printf>
80000944:	fc1025f3          	csrr	a1,0xfc1
80000948:	00800793          	li	a5,8
8000094c:	00b7d463          	bge	a5,a1,80000954 <_Z12test_barrierv+0x24>
80000950:	00800593          	li	a1,8
80000954:	00007897          	auipc	a7,0x7
80000958:	b7888893          	addi	a7,a7,-1160 # 800074cc <barrier_ctr>
8000095c:	00b8a023          	sw	a1,0(a7)
80000960:	00007797          	auipc	a5,0x7
80000964:	b607a823          	sw	zero,-1168(a5) # 800074d0 <barrier_stall>
80000968:	00000797          	auipc	a5,0x0
8000096c:	81878793          	addi	a5,a5,-2024 # 80000180 <_Z14barrier_kernelv>
80000970:	00f5906b          	0xf5906b
80000974:	cc302873          	csrr	a6,0xcc3
80000978:	00881613          	slli	a2,a6,0x8
8000097c:	00160613          	addi	a2,a2,1
80000980:	00000713          	li	a4,0
80000984:	00007697          	auipc	a3,0x7
80000988:	b4c68693          	addi	a3,a3,-1204 # 800074d0 <barrier_stall>
8000098c:	0006a783          	lw	a5,0(a3)
80000990:	00170713          	addi	a4,a4,1
80000994:	00178793          	addi	a5,a5,1
80000998:	00f6a023          	sw	a5,0(a3)
8000099c:	fec718e3          	bne	a4,a2,8000098c <_Z12test_barrierv+0x5c>
800009a0:	00007517          	auipc	a0,0x7
800009a4:	b3450513          	addi	a0,a0,-1228 # 800074d4 <barrier_buffer>
800009a8:	00281793          	slli	a5,a6,0x2
800009ac:	00f507b3          	add	a5,a0,a5
800009b0:	04180693          	addi	a3,a6,65
800009b4:	00d7a023          	sw	a3,0(a5)
800009b8:	0008a703          	lw	a4,0(a7)
800009bc:	00000793          	li	a5,0
800009c0:	00e7c06b          	0xe7c06b
800009c4:	00183813          	seqz	a6,a6
800009c8:	0008006b          	0x8006b
800009cc:	00c12083          	lw	ra,12(sp)
800009d0:	01010113          	addi	sp,sp,16
800009d4:	80dff06f          	j	800001e0 <_Z11check_errorPKiii.constprop.0>

800009d8 <_exit>:
800009d8:	00050413          	mv	s0,a0
800009dc:	530000ef          	jal	ra,80000f0c <vx_perf_dump>
800009e0:	00040193          	mv	gp,s0
800009e4:	00000513          	li	a0,0
800009e8:	0005006b          	0x5006b

800009ec <init_regs>:
800009ec:	fff00513          	li	a0,-1
800009f0:	0005006b          	0x5006b
800009f4:	00007197          	auipc	gp,0x7
800009f8:	e1418193          	addi	gp,gp,-492 # 80007808 <__global_pointer>
800009fc:	ff000137          	lui	sp,0xff000
80000a00:	cc102573          	csrr	a0,0xcc1
80000a04:	00a51593          	slli	a1,a0,0xa
80000a08:	40b10133          	sub	sp,sp,a1
80000a0c:	00000593          	li	a1,0
80000a10:	02b50533          	mul	a0,a0,a1
80000a14:	00007217          	auipc	tp,0x7
80000a18:	caf20213          	addi	tp,tp,-849 # 800076c3 <__BSS_END__+0x3f>
80000a1c:	00a20233          	add	tp,tp,a0
80000a20:	fc027213          	andi	tp,tp,-64
80000a24:	cc3026f3          	csrr	a3,0xcc3
80000a28:	00068663          	beqz	a3,80000a34 <RETURN>
80000a2c:	00000513          	li	a0,0
80000a30:	0005006b          	0x5006b

80000a34 <RETURN>:
80000a34:	00008067          	ret

80000a38 <__init_tls>:
80000a38:	ff010113          	addi	sp,sp,-16 # fefffff0 <__global_pointer+0x7eff87e8>
80000a3c:	00112623          	sw	ra,12(sp)
80000a40:	00812423          	sw	s0,8(sp)
80000a44:	fff00793          	li	a5,-1
80000a48:	0007806b          	0x7806b
80000a4c:	00000613          	li	a2,0
80000a50:	00020513          	mv	a0,tp
80000a54:	00006597          	auipc	a1,0x6
80000a58:	5ac58593          	addi	a1,a1,1452 # 80007000 <__init_array_start>
80000a5c:	00020413          	mv	s0,tp
80000a60:	199050ef          	jal	ra,800063f8 <memcpy>
80000a64:	00000513          	li	a0,0
80000a68:	00000613          	li	a2,0
80000a6c:	00000593          	li	a1,0
80000a70:	00a40533          	add	a0,s0,a0
80000a74:	2a1050ef          	jal	ra,80006514 <memset>
80000a78:	cc3027f3          	csrr	a5,0xcc3
80000a7c:	0017b793          	seqz	a5,a5
80000a80:	0007806b          	0x7806b
80000a84:	00c12083          	lw	ra,12(sp)
80000a88:	00812403          	lw	s0,8(sp)
80000a8c:	01010113          	addi	sp,sp,16
80000a90:	00008067          	ret

80000a94 <__libc_init_array>:
80000a94:	ff010113          	addi	sp,sp,-16
80000a98:	00812423          	sw	s0,8(sp)
80000a9c:	01212023          	sw	s2,0(sp)
80000aa0:	00006417          	auipc	s0,0x6
80000aa4:	56040413          	addi	s0,s0,1376 # 80007000 <__init_array_start>
80000aa8:	00006917          	auipc	s2,0x6
80000aac:	55890913          	addi	s2,s2,1368 # 80007000 <__init_array_start>
80000ab0:	40890933          	sub	s2,s2,s0
80000ab4:	00112623          	sw	ra,12(sp)
80000ab8:	00912223          	sw	s1,4(sp)
80000abc:	40295913          	srai	s2,s2,0x2
80000ac0:	00090e63          	beqz	s2,80000adc <__libc_init_array+0x48>
80000ac4:	00000493          	li	s1,0
80000ac8:	00042783          	lw	a5,0(s0)
80000acc:	00148493          	addi	s1,s1,1
80000ad0:	00440413          	addi	s0,s0,4
80000ad4:	000780e7          	jalr	a5
80000ad8:	fe9918e3          	bne	s2,s1,80000ac8 <__libc_init_array+0x34>
80000adc:	00006417          	auipc	s0,0x6
80000ae0:	52440413          	addi	s0,s0,1316 # 80007000 <__init_array_start>
80000ae4:	00006917          	auipc	s2,0x6
80000ae8:	52090913          	addi	s2,s2,1312 # 80007004 <__fini_array_end>
80000aec:	40890933          	sub	s2,s2,s0
80000af0:	40295913          	srai	s2,s2,0x2
80000af4:	00090e63          	beqz	s2,80000b10 <__libc_init_array+0x7c>
80000af8:	00000493          	li	s1,0
80000afc:	00042783          	lw	a5,0(s0)
80000b00:	00148493          	addi	s1,s1,1
80000b04:	00440413          	addi	s0,s0,4
80000b08:	000780e7          	jalr	a5
80000b0c:	fe9918e3          	bne	s2,s1,80000afc <__libc_init_array+0x68>
80000b10:	00c12083          	lw	ra,12(sp)
80000b14:	00812403          	lw	s0,8(sp)
80000b18:	00412483          	lw	s1,4(sp)
80000b1c:	00012903          	lw	s2,0(sp)
80000b20:	01010113          	addi	sp,sp,16
80000b24:	00008067          	ret

80000b28 <__libc_fini_array>:
80000b28:	ff010113          	addi	sp,sp,-16
80000b2c:	00812423          	sw	s0,8(sp)
80000b30:	00006797          	auipc	a5,0x6
80000b34:	4d478793          	addi	a5,a5,1236 # 80007004 <__fini_array_end>
80000b38:	00006417          	auipc	s0,0x6
80000b3c:	4cc40413          	addi	s0,s0,1228 # 80007004 <__fini_array_end>
80000b40:	408787b3          	sub	a5,a5,s0
80000b44:	00912223          	sw	s1,4(sp)
80000b48:	00112623          	sw	ra,12(sp)
80000b4c:	4027d493          	srai	s1,a5,0x2
80000b50:	02048063          	beqz	s1,80000b70 <__libc_fini_array+0x48>
80000b54:	ffc78793          	addi	a5,a5,-4
80000b58:	00878433          	add	s0,a5,s0
80000b5c:	00042783          	lw	a5,0(s0)
80000b60:	fff48493          	addi	s1,s1,-1
80000b64:	ffc40413          	addi	s0,s0,-4
80000b68:	000780e7          	jalr	a5
80000b6c:	fe0498e3          	bnez	s1,80000b5c <__libc_fini_array+0x34>
80000b70:	00c12083          	lw	ra,12(sp)
80000b74:	00812403          	lw	s0,8(sp)
80000b78:	00412483          	lw	s1,4(sp)
80000b7c:	01010113          	addi	sp,sp,16
80000b80:	00008067          	ret

80000b84 <vx_putchar>:
80000b84:	cc2022f3          	csrr	t0,0xcc2
80000b88:	03f2f293          	andi	t0,t0,63
80000b8c:	fc000313          	li	t1,-64
80000b90:	006282b3          	add	t0,t0,t1
80000b94:	00a28023          	sb	a0,0(t0)
80000b98:	00008067          	ret

80000b9c <__vprintf_cb>:
80000b9c:	00452783          	lw	a5,4(a0)
80000ba0:	ff010113          	addi	sp,sp,-16
80000ba4:	00812423          	sw	s0,8(sp)
80000ba8:	0007a583          	lw	a1,0(a5)
80000bac:	00050413          	mv	s0,a0
80000bb0:	00052503          	lw	a0,0(a0)
80000bb4:	00112623          	sw	ra,12(sp)
80000bb8:	268020ef          	jal	ra,80002e20 <tiny_vprintf>
80000bbc:	00c12083          	lw	ra,12(sp)
80000bc0:	00a42423          	sw	a0,8(s0)
80000bc4:	00812403          	lw	s0,8(sp)
80000bc8:	01010113          	addi	sp,sp,16
80000bcc:	00008067          	ret

80000bd0 <vx_printf>:
80000bd0:	fb010113          	addi	sp,sp,-80
80000bd4:	04f12223          	sw	a5,68(sp)
80000bd8:	03410793          	addi	a5,sp,52
80000bdc:	00050313          	mv	t1,a0
80000be0:	02b12a23          	sw	a1,52(sp)
80000be4:	00f12623          	sw	a5,12(sp)
80000be8:	00f12823          	sw	a5,16(sp)
80000bec:	00000517          	auipc	a0,0x0
80000bf0:	fb050513          	addi	a0,a0,-80 # 80000b9c <__vprintf_cb>
80000bf4:	01010793          	addi	a5,sp,16
80000bf8:	01410593          	addi	a1,sp,20
80000bfc:	02112623          	sw	ra,44(sp)
80000c00:	02c12c23          	sw	a2,56(sp)
80000c04:	02d12e23          	sw	a3,60(sp)
80000c08:	04e12023          	sw	a4,64(sp)
80000c0c:	05012423          	sw	a6,72(sp)
80000c10:	05112623          	sw	a7,76(sp)
80000c14:	00612a23          	sw	t1,20(sp)
80000c18:	00f12c23          	sw	a5,24(sp)
80000c1c:	27c000ef          	jal	ra,80000e98 <vx_serial>
80000c20:	02c12083          	lw	ra,44(sp)
80000c24:	01c12503          	lw	a0,28(sp)
80000c28:	05010113          	addi	sp,sp,80
80000c2c:	00008067          	ret

80000c30 <spawn_tasks_all_stub>:
80000c30:	ff010113          	addi	sp,sp,-16
80000c34:	00112623          	sw	ra,12(sp)
80000c38:	00812423          	sw	s0,8(sp)
80000c3c:	00912223          	sw	s1,4(sp)
80000c40:	01212023          	sw	s2,0(sp)
80000c44:	cc5027f3          	csrr	a5,0xcc5
80000c48:	cc302773          	csrr	a4,0xcc3
80000c4c:	cc0026f3          	csrr	a3,0xcc0
80000c50:	fc0025f3          	csrr	a1,0xfc0
80000c54:	00279613          	slli	a2,a5,0x2
80000c58:	00007797          	auipc	a5,0x7
80000c5c:	9ac78793          	addi	a5,a5,-1620 # 80007604 <g_wspawn_args>
80000c60:	00c787b3          	add	a5,a5,a2
80000c64:	0007a483          	lw	s1,0(a5)
80000c68:	0104a403          	lw	s0,16(s1)
80000c6c:	00c4a603          	lw	a2,12(s1)
80000c70:	00872933          	slt	s2,a4,s0
80000c74:	00040793          	mv	a5,s0
80000c78:	00c90933          	add	s2,s2,a2
80000c7c:	02e60433          	mul	s0,a2,a4
80000c80:	00f75463          	bge	a4,a5,80000c88 <spawn_tasks_all_stub+0x58>
80000c84:	00070793          	mv	a5,a4
80000c88:	00f40433          	add	s0,s0,a5
80000c8c:	0084a703          	lw	a4,8(s1)
80000c90:	02b40433          	mul	s0,s0,a1
80000c94:	02d907b3          	mul	a5,s2,a3
80000c98:	00e40433          	add	s0,s0,a4
80000c9c:	00f40433          	add	s0,s0,a5
80000ca0:	00890933          	add	s2,s2,s0
80000ca4:	01245e63          	bge	s0,s2,80000cc0 <spawn_tasks_all_stub+0x90>
80000ca8:	0004a783          	lw	a5,0(s1)
80000cac:	0044a583          	lw	a1,4(s1)
80000cb0:	00040513          	mv	a0,s0
80000cb4:	00140413          	addi	s0,s0,1
80000cb8:	000780e7          	jalr	a5
80000cbc:	fe8916e3          	bne	s2,s0,80000ca8 <spawn_tasks_all_stub+0x78>
80000cc0:	0144a703          	lw	a4,20(s1)
80000cc4:	00000793          	li	a5,0
80000cc8:	00e7c06b          	0xe7c06b
80000ccc:	00c12083          	lw	ra,12(sp)
80000cd0:	00812403          	lw	s0,8(sp)
80000cd4:	00412483          	lw	s1,4(sp)
80000cd8:	00012903          	lw	s2,0(sp)
80000cdc:	01010113          	addi	sp,sp,16
80000ce0:	00008067          	ret

80000ce4 <spawn_tasks_rem_stub>:
80000ce4:	cc5027f3          	csrr	a5,0xcc5
80000ce8:	cc202573          	csrr	a0,0xcc2
80000cec:	00279713          	slli	a4,a5,0x2
80000cf0:	00007797          	auipc	a5,0x7
80000cf4:	91478793          	addi	a5,a5,-1772 # 80007604 <g_wspawn_args>
80000cf8:	00e787b3          	add	a5,a5,a4
80000cfc:	0007a783          	lw	a5,0(a5)
80000d00:	0087a703          	lw	a4,8(a5)
80000d04:	0007a303          	lw	t1,0(a5)
80000d08:	0047a583          	lw	a1,4(a5)
80000d0c:	00e50533          	add	a0,a0,a4
80000d10:	00030067          	jr	t1

80000d14 <spawn_tasks_all_cb>:
80000d14:	ff010113          	addi	sp,sp,-16
80000d18:	00112623          	sw	ra,12(sp)
80000d1c:	fff00793          	li	a5,-1
80000d20:	0007806b          	0x7806b
80000d24:	f0dff0ef          	jal	ra,80000c30 <spawn_tasks_all_stub>
80000d28:	cc3027f3          	csrr	a5,0xcc3
80000d2c:	0017b793          	seqz	a5,a5
80000d30:	0007806b          	0x7806b
80000d34:	00c12083          	lw	ra,12(sp)
80000d38:	01010113          	addi	sp,sp,16
80000d3c:	00008067          	ret

80000d40 <vx_spawn_tasks>:
80000d40:	fd010113          	addi	sp,sp,-48
80000d44:	02112623          	sw	ra,44(sp)
80000d48:	02812423          	sw	s0,40(sp)
80000d4c:	02912223          	sw	s1,36(sp)
80000d50:	03212023          	sw	s2,32(sp)
80000d54:	fc2026f3          	csrr	a3,0xfc2
80000d58:	fc1028f3          	csrr	a7,0xfc1
80000d5c:	fc0024f3          	csrr	s1,0xfc0
80000d60:	cc5027f3          	csrr	a5,0xcc5
80000d64:	01f00713          	li	a4,31
80000d68:	08f74863          	blt	a4,a5,80000df8 <vx_spawn_tasks+0xb8>
80000d6c:	03148833          	mul	a6,s1,a7
80000d70:	00100713          	li	a4,1
80000d74:	00a85463          	bge	a6,a0,80000d7c <vx_spawn_tasks+0x3c>
80000d78:	03054733          	div	a4,a0,a6
80000d7c:	08e6ca63          	blt	a3,a4,80000e10 <vx_spawn_tasks+0xd0>
80000d80:	06e7dc63          	bge	a5,a4,80000df8 <vx_spawn_tasks+0xb8>
80000d84:	fff68693          	addi	a3,a3,-1
80000d88:	02e54333          	div	t1,a0,a4
80000d8c:	00030813          	mv	a6,t1
80000d90:	00f69663          	bne	a3,a5,80000d9c <vx_spawn_tasks+0x5c>
80000d94:	02e56533          	rem	a0,a0,a4
80000d98:	00650833          	add	a6,a0,t1
80000d9c:	02984933          	div	s2,a6,s1
80000da0:	02986433          	rem	s0,a6,s1
80000da4:	07194c63          	blt	s2,a7,80000e1c <vx_spawn_tasks+0xdc>
80000da8:	00100513          	li	a0,1
80000dac:	031946b3          	div	a3,s2,a7
80000db0:	00068663          	beqz	a3,80000dbc <vx_spawn_tasks+0x7c>
80000db4:	00068513          	mv	a0,a3
80000db8:	031966b3          	rem	a3,s2,a7
80000dbc:	00007717          	auipc	a4,0x7
80000dc0:	84870713          	addi	a4,a4,-1976 # 80007604 <g_wspawn_args>
80000dc4:	00b12423          	sw	a1,8(sp)
80000dc8:	00c12623          	sw	a2,12(sp)
80000dcc:	00a12a23          	sw	a0,20(sp)
80000dd0:	00d12c23          	sw	a3,24(sp)
80000dd4:	00012e23          	sw	zero,28(sp)
80000dd8:	02f30333          	mul	t1,t1,a5
80000ddc:	00279793          	slli	a5,a5,0x2
80000de0:	00f707b3          	add	a5,a4,a5
80000de4:	00810713          	addi	a4,sp,8
80000de8:	00e7a023          	sw	a4,0(a5)
80000dec:	00612823          	sw	t1,16(sp)
80000df0:	03204c63          	bgtz	s2,80000e28 <vx_spawn_tasks+0xe8>
80000df4:	06041663          	bnez	s0,80000e60 <vx_spawn_tasks+0x120>
80000df8:	02c12083          	lw	ra,44(sp)
80000dfc:	02812403          	lw	s0,40(sp)
80000e00:	02412483          	lw	s1,36(sp)
80000e04:	02012903          	lw	s2,32(sp)
80000e08:	03010113          	addi	sp,sp,48
80000e0c:	00008067          	ret
80000e10:	00068713          	mv	a4,a3
80000e14:	f6e7c8e3          	blt	a5,a4,80000d84 <vx_spawn_tasks+0x44>
80000e18:	fe1ff06f          	j	80000df8 <vx_spawn_tasks+0xb8>
80000e1c:	00000693          	li	a3,0
80000e20:	00100513          	li	a0,1
80000e24:	f99ff06f          	j	80000dbc <vx_spawn_tasks+0x7c>
80000e28:	00090793          	mv	a5,s2
80000e2c:	0128d463          	bge	a7,s2,80000e34 <vx_spawn_tasks+0xf4>
80000e30:	00088793          	mv	a5,a7
80000e34:	00f12e23          	sw	a5,28(sp)
80000e38:	00000717          	auipc	a4,0x0
80000e3c:	edc70713          	addi	a4,a4,-292 # 80000d14 <spawn_tasks_all_cb>
80000e40:	00e7906b          	0xe7906b
80000e44:	fff00793          	li	a5,-1
80000e48:	0007806b          	0x7806b
80000e4c:	de5ff0ef          	jal	ra,80000c30 <spawn_tasks_all_stub>
80000e50:	cc3027f3          	csrr	a5,0xcc3
80000e54:	0017b793          	seqz	a5,a5
80000e58:	0007806b          	0x7806b
80000e5c:	f8040ee3          	beqz	s0,80000df8 <vx_spawn_tasks+0xb8>
80000e60:	029904b3          	mul	s1,s2,s1
80000e64:	00100913          	li	s2,1
80000e68:	00891833          	sll	a6,s2,s0
80000e6c:	fff80813          	addi	a6,a6,-1
80000e70:	00912823          	sw	s1,16(sp)
80000e74:	0008006b          	0x8006b
80000e78:	e6dff0ef          	jal	ra,80000ce4 <spawn_tasks_rem_stub>
80000e7c:	0009006b          	0x9006b
80000e80:	02c12083          	lw	ra,44(sp)
80000e84:	02812403          	lw	s0,40(sp)
80000e88:	02412483          	lw	s1,36(sp)
80000e8c:	02012903          	lw	s2,32(sp)
80000e90:	03010113          	addi	sp,sp,48
80000e94:	00008067          	ret

80000e98 <vx_serial>:
80000e98:	fe810113          	addi	sp,sp,-24
80000e9c:	00112a23          	sw	ra,20(sp)
80000ea0:	01412823          	sw	s4,16(sp)
80000ea4:	01312623          	sw	s3,12(sp)
80000ea8:	01212423          	sw	s2,8(sp)
80000eac:	00912223          	sw	s1,4(sp)
80000eb0:	00812023          	sw	s0,0(sp)
80000eb4:	00050a13          	mv	s4,a0
80000eb8:	00058993          	mv	s3,a1
80000ebc:	fc002973          	csrr	s2,0xfc0
80000ec0:	cc0024f3          	csrr	s1,0xcc0
80000ec4:	00000413          	li	s0,0

80000ec8 <label_loop>:
80000ec8:	409402b3          	sub	t0,s0,s1
80000ecc:	0012b313          	seqz	t1,t0
80000ed0:	0003206b          	0x3206b
80000ed4:	00029663          	bnez	t0,80000ee0 <label_join>
80000ed8:	00098513          	mv	a0,s3
80000edc:	000a00e7          	jalr	s4

80000ee0 <label_join>:
80000ee0:	0000306b          	0x306b
80000ee4:	00140413          	addi	s0,s0,1
80000ee8:	ff2440e3          	blt	s0,s2,80000ec8 <label_loop>
80000eec:	01412083          	lw	ra,20(sp)
80000ef0:	01012a03          	lw	s4,16(sp)
80000ef4:	00c12983          	lw	s3,12(sp)
80000ef8:	00812903          	lw	s2,8(sp)
80000efc:	00412483          	lw	s1,4(sp)
80000f00:	00012403          	lw	s0,0(sp)
80000f04:	01810113          	addi	sp,sp,24
80000f08:	00008067          	ret

80000f0c <vx_perf_dump>:
80000f0c:	cc5027f3          	csrr	a5,0xcc5
80000f10:	00ff0737          	lui	a4,0xff0
80000f14:	00e787b3          	add	a5,a5,a4
80000f18:	00879793          	slli	a5,a5,0x8
80000f1c:	b0002773          	csrr	a4,mcycle
80000f20:	00e7a023          	sw	a4,0(a5)
80000f24:	b0102773          	csrr	a4,0xb01
80000f28:	00e7a223          	sw	a4,4(a5)
80000f2c:	b0202773          	csrr	a4,minstret
80000f30:	00e7a423          	sw	a4,8(a5)
80000f34:	b0302773          	csrr	a4,mhpmcounter3
80000f38:	00e7a623          	sw	a4,12(a5)
80000f3c:	b0402773          	csrr	a4,mhpmcounter4
80000f40:	00e7a823          	sw	a4,16(a5)
80000f44:	b0502773          	csrr	a4,mhpmcounter5
80000f48:	00e7aa23          	sw	a4,20(a5)
80000f4c:	b0602773          	csrr	a4,mhpmcounter6
80000f50:	00e7ac23          	sw	a4,24(a5)
80000f54:	b0702773          	csrr	a4,mhpmcounter7
80000f58:	00e7ae23          	sw	a4,28(a5)
80000f5c:	b0802773          	csrr	a4,mhpmcounter8
80000f60:	02e7a023          	sw	a4,32(a5)
80000f64:	b0902773          	csrr	a4,mhpmcounter9
80000f68:	02e7a223          	sw	a4,36(a5)
80000f6c:	b0a02773          	csrr	a4,mhpmcounter10
80000f70:	02e7a423          	sw	a4,40(a5)
80000f74:	b0b02773          	csrr	a4,mhpmcounter11
80000f78:	02e7a623          	sw	a4,44(a5)
80000f7c:	b0c02773          	csrr	a4,mhpmcounter12
80000f80:	02e7a823          	sw	a4,48(a5)
80000f84:	b0d02773          	csrr	a4,mhpmcounter13
80000f88:	02e7aa23          	sw	a4,52(a5)
80000f8c:	b0e02773          	csrr	a4,mhpmcounter14
80000f90:	02e7ac23          	sw	a4,56(a5)
80000f94:	b0f02773          	csrr	a4,mhpmcounter15
80000f98:	02e7ae23          	sw	a4,60(a5)
80000f9c:	b1002773          	csrr	a4,mhpmcounter16
80000fa0:	04e7a023          	sw	a4,64(a5)
80000fa4:	b1102773          	csrr	a4,mhpmcounter17
80000fa8:	04e7a223          	sw	a4,68(a5)
80000fac:	b1202773          	csrr	a4,mhpmcounter18
80000fb0:	04e7a423          	sw	a4,72(a5)
80000fb4:	b1302773          	csrr	a4,mhpmcounter19
80000fb8:	04e7a623          	sw	a4,76(a5)
80000fbc:	b1402773          	csrr	a4,mhpmcounter20
80000fc0:	04e7a823          	sw	a4,80(a5)
80000fc4:	b1502773          	csrr	a4,mhpmcounter21
80000fc8:	04e7aa23          	sw	a4,84(a5)
80000fcc:	b1602773          	csrr	a4,mhpmcounter22
80000fd0:	04e7ac23          	sw	a4,88(a5)
80000fd4:	b1702773          	csrr	a4,mhpmcounter23
80000fd8:	04e7ae23          	sw	a4,92(a5)
80000fdc:	b1802773          	csrr	a4,mhpmcounter24
80000fe0:	06e7a023          	sw	a4,96(a5)
80000fe4:	b1902773          	csrr	a4,mhpmcounter25
80000fe8:	06e7a223          	sw	a4,100(a5)
80000fec:	b1a02773          	csrr	a4,mhpmcounter26
80000ff0:	06e7a423          	sw	a4,104(a5)
80000ff4:	b1b02773          	csrr	a4,mhpmcounter27
80000ff8:	06e7a623          	sw	a4,108(a5)
80000ffc:	b1c02773          	csrr	a4,mhpmcounter28
80001000:	06e7a823          	sw	a4,112(a5)
80001004:	b1d02773          	csrr	a4,mhpmcounter29
80001008:	06e7aa23          	sw	a4,116(a5)
8000100c:	b1e02773          	csrr	a4,mhpmcounter30
80001010:	06e7ac23          	sw	a4,120(a5)
80001014:	b1f02773          	csrr	a4,mhpmcounter31
80001018:	06e7ae23          	sw	a4,124(a5)
8000101c:	b8002773          	csrr	a4,mcycleh
80001020:	08e7a023          	sw	a4,128(a5)
80001024:	b8102773          	csrr	a4,0xb81
80001028:	08e7a223          	sw	a4,132(a5)
8000102c:	b8202773          	csrr	a4,minstreth
80001030:	08e7a423          	sw	a4,136(a5)
80001034:	b8302773          	csrr	a4,mhpmcounter3h
80001038:	08e7a623          	sw	a4,140(a5)
8000103c:	b8402773          	csrr	a4,mhpmcounter4h
80001040:	08e7a823          	sw	a4,144(a5)
80001044:	b8502773          	csrr	a4,mhpmcounter5h
80001048:	08e7aa23          	sw	a4,148(a5)
8000104c:	b8602773          	csrr	a4,mhpmcounter6h
80001050:	08e7ac23          	sw	a4,152(a5)
80001054:	b8702773          	csrr	a4,mhpmcounter7h
80001058:	08e7ae23          	sw	a4,156(a5)
8000105c:	b8802773          	csrr	a4,mhpmcounter8h
80001060:	0ae7a023          	sw	a4,160(a5)
80001064:	b8902773          	csrr	a4,mhpmcounter9h
80001068:	0ae7a223          	sw	a4,164(a5)
8000106c:	b8a02773          	csrr	a4,mhpmcounter10h
80001070:	0ae7a423          	sw	a4,168(a5)
80001074:	b8b02773          	csrr	a4,mhpmcounter11h
80001078:	0ae7a623          	sw	a4,172(a5)
8000107c:	b8c02773          	csrr	a4,mhpmcounter12h
80001080:	0ae7a823          	sw	a4,176(a5)
80001084:	b8d02773          	csrr	a4,mhpmcounter13h
80001088:	0ae7aa23          	sw	a4,180(a5)
8000108c:	b8e02773          	csrr	a4,mhpmcounter14h
80001090:	0ae7ac23          	sw	a4,184(a5)
80001094:	b8f02773          	csrr	a4,mhpmcounter15h
80001098:	0ae7ae23          	sw	a4,188(a5)
8000109c:	b9002773          	csrr	a4,mhpmcounter16h
800010a0:	0ce7a023          	sw	a4,192(a5)
800010a4:	b9102773          	csrr	a4,mhpmcounter17h
800010a8:	0ce7a223          	sw	a4,196(a5)
800010ac:	b9202773          	csrr	a4,mhpmcounter18h
800010b0:	0ce7a423          	sw	a4,200(a5)
800010b4:	b9302773          	csrr	a4,mhpmcounter19h
800010b8:	0ce7a623          	sw	a4,204(a5)
800010bc:	b9402773          	csrr	a4,mhpmcounter20h
800010c0:	0ce7a823          	sw	a4,208(a5)
800010c4:	b9502773          	csrr	a4,mhpmcounter21h
800010c8:	0ce7aa23          	sw	a4,212(a5)
800010cc:	b9602773          	csrr	a4,mhpmcounter22h
800010d0:	0ce7ac23          	sw	a4,216(a5)
800010d4:	b9702773          	csrr	a4,mhpmcounter23h
800010d8:	0ce7ae23          	sw	a4,220(a5)
800010dc:	b9802773          	csrr	a4,mhpmcounter24h
800010e0:	0ee7a023          	sw	a4,224(a5)
800010e4:	b9902773          	csrr	a4,mhpmcounter25h
800010e8:	0ee7a223          	sw	a4,228(a5)
800010ec:	b9a02773          	csrr	a4,mhpmcounter26h
800010f0:	0ee7a423          	sw	a4,232(a5)
800010f4:	b9b02773          	csrr	a4,mhpmcounter27h
800010f8:	0ee7a623          	sw	a4,236(a5)
800010fc:	b9c02773          	csrr	a4,mhpmcounter28h
80001100:	0ee7a823          	sw	a4,240(a5)
80001104:	b9d02773          	csrr	a4,mhpmcounter29h
80001108:	0ee7aa23          	sw	a4,244(a5)
8000110c:	b9e02773          	csrr	a4,mhpmcounter30h
80001110:	0ee7ac23          	sw	a4,248(a5)
80001114:	b9f02773          	csrr	a4,mhpmcounter31h
80001118:	0ee7ae23          	sw	a4,252(a5)
8000111c:	00008067          	ret

80001120 <_out_null>:
80001120:	00008067          	ret

80001124 <_out_rev>:
80001124:	fd010113          	addi	sp,sp,-48
80001128:	02912223          	sw	s1,36(sp)
8000112c:	03212023          	sw	s2,32(sp)
80001130:	01312e23          	sw	s3,28(sp)
80001134:	01412c23          	sw	s4,24(sp)
80001138:	01512a23          	sw	s5,20(sp)
8000113c:	01612823          	sw	s6,16(sp)
80001140:	01712623          	sw	s7,12(sp)
80001144:	00060b13          	mv	s6,a2
80001148:	01912223          	sw	s9,4(sp)
8000114c:	01a12023          	sw	s10,0(sp)
80001150:	02112623          	sw	ra,44(sp)
80001154:	02812423          	sw	s0,40(sp)
80001158:	01812423          	sw	s8,8(sp)
8000115c:	0038f613          	andi	a2,a7,3
80001160:	00088c93          	mv	s9,a7
80001164:	00050493          	mv	s1,a0
80001168:	00058913          	mv	s2,a1
8000116c:	00068993          	mv	s3,a3
80001170:	00070a93          	mv	s5,a4
80001174:	00078d13          	mv	s10,a5
80001178:	00080b93          	mv	s7,a6
8000117c:	000b0a13          	mv	s4,s6
80001180:	02061863          	bnez	a2,800011b0 <_out_rev+0x8c>
80001184:	0307f663          	bgeu	a5,a6,800011b0 <_out_rev+0x8c>
80001188:	40f80a33          	sub	s4,a6,a5
8000118c:	016a0a33          	add	s4,s4,s6
80001190:	000b0413          	mv	s0,s6
80001194:	00040613          	mv	a2,s0
80001198:	00098693          	mv	a3,s3
8000119c:	00140413          	addi	s0,s0,1
800011a0:	00090593          	mv	a1,s2
800011a4:	02000513          	li	a0,32
800011a8:	000480e7          	jalr	s1
800011ac:	ff4414e3          	bne	s0,s4,80001194 <_out_rev+0x70>
800011b0:	020d0663          	beqz	s10,800011dc <_out_rev+0xb8>
800011b4:	01aa8433          	add	s0,s5,s10
800011b8:	008a0c33          	add	s8,s4,s0
800011bc:	fff44503          	lbu	a0,-1(s0)
800011c0:	408c0633          	sub	a2,s8,s0
800011c4:	00098693          	mv	a3,s3
800011c8:	fff40413          	addi	s0,s0,-1
800011cc:	00090593          	mv	a1,s2
800011d0:	000480e7          	jalr	s1
800011d4:	fe8a94e3          	bne	s5,s0,800011bc <_out_rev+0x98>
800011d8:	01aa0a33          	add	s4,s4,s10
800011dc:	002cfc93          	andi	s9,s9,2
800011e0:	040c8663          	beqz	s9,8000122c <_out_rev+0x108>
800011e4:	416a0433          	sub	s0,s4,s6
800011e8:	05747263          	bgeu	s0,s7,8000122c <_out_rev+0x108>
800011ec:	01640633          	add	a2,s0,s6
800011f0:	00098693          	mv	a3,s3
800011f4:	00140413          	addi	s0,s0,1
800011f8:	00090593          	mv	a1,s2
800011fc:	02000513          	li	a0,32
80001200:	000480e7          	jalr	s1
80001204:	ff7464e3          	bltu	s0,s7,800011ec <_out_rev+0xc8>
80001208:	416a07b3          	sub	a5,s4,s6
8000120c:	00178793          	addi	a5,a5,1
80001210:	00000713          	li	a4,0
80001214:	00fbe863          	bltu	s7,a5,80001224 <_out_rev+0x100>
80001218:	fffb8b93          	addi	s7,s7,-1
8000121c:	016b8b33          	add	s6,s7,s6
80001220:	414b0733          	sub	a4,s6,s4
80001224:	001a0a13          	addi	s4,s4,1
80001228:	00ea0a33          	add	s4,s4,a4
8000122c:	02c12083          	lw	ra,44(sp)
80001230:	02812403          	lw	s0,40(sp)
80001234:	02412483          	lw	s1,36(sp)
80001238:	02012903          	lw	s2,32(sp)
8000123c:	01c12983          	lw	s3,28(sp)
80001240:	01412a83          	lw	s5,20(sp)
80001244:	01012b03          	lw	s6,16(sp)
80001248:	00c12b83          	lw	s7,12(sp)
8000124c:	00812c03          	lw	s8,8(sp)
80001250:	00412c83          	lw	s9,4(sp)
80001254:	00012d03          	lw	s10,0(sp)
80001258:	000a0513          	mv	a0,s4
8000125c:	01812a03          	lw	s4,24(sp)
80001260:	03010113          	addi	sp,sp,48
80001264:	00008067          	ret

80001268 <_ntoa_format>:
80001268:	00812383          	lw	t2,8(sp)
8000126c:	00012283          	lw	t0,0(sp)
80001270:	00412f83          	lw	t6,4(sp)
80001274:	0023f313          	andi	t1,t2,2
80001278:	00080f13          	mv	t5,a6
8000127c:	06031463          	bnez	t1,800012e4 <_ntoa_format+0x7c>
80001280:	0013f813          	andi	a6,t2,1
80001284:	100f9c63          	bnez	t6,8000139c <_ntoa_format+0x134>
80001288:	0257f663          	bgeu	a5,t0,800012b4 <_ntoa_format+0x4c>
8000128c:	01f00313          	li	t1,31
80001290:	22f36463          	bltu	t1,a5,800014b8 <_ntoa_format+0x250>
80001294:	03000e13          	li	t3,48
80001298:	02000e93          	li	t4,32
8000129c:	0080006f          	j	800012a4 <_ntoa_format+0x3c>
800012a0:	01d78a63          	beq	a5,t4,800012b4 <_ntoa_format+0x4c>
800012a4:	00178793          	addi	a5,a5,1
800012a8:	00f70333          	add	t1,a4,a5
800012ac:	ffc30fa3          	sb	t3,-1(t1)
800012b0:	fe57e8e3          	bltu	a5,t0,800012a0 <_ntoa_format+0x38>
800012b4:	02080863          	beqz	a6,800012e4 <_ntoa_format+0x7c>
800012b8:	03f7f663          	bgeu	a5,t6,800012e4 <_ntoa_format+0x7c>
800012bc:	01f00813          	li	a6,31
800012c0:	10f86063          	bltu	a6,a5,800013c0 <_ntoa_format+0x158>
800012c4:	03000e13          	li	t3,48
800012c8:	02000e93          	li	t4,32
800012cc:	0080006f          	j	800012d4 <_ntoa_format+0x6c>
800012d0:	0fd78863          	beq	a5,t4,800013c0 <_ntoa_format+0x158>
800012d4:	00178793          	addi	a5,a5,1
800012d8:	00f70333          	add	t1,a4,a5
800012dc:	ffc30fa3          	sb	t3,-1(t1)
800012e0:	fff798e3          	bne	a5,t6,800012d0 <_ntoa_format+0x68>
800012e4:	0103f813          	andi	a6,t2,16
800012e8:	08080263          	beqz	a6,8000136c <_ntoa_format+0x104>
800012ec:	4003f813          	andi	a6,t2,1024
800012f0:	0e081663          	bnez	a6,800013dc <_ntoa_format+0x174>
800012f4:	14079063          	bnez	a5,80001434 <_ntoa_format+0x1cc>
800012f8:	01000793          	li	a5,16
800012fc:	16f88463          	beq	a7,a5,80001464 <_ntoa_format+0x1fc>
80001300:	00200793          	li	a5,2
80001304:	1af88263          	beq	a7,a5,800014a8 <_ntoa_format+0x240>
80001308:	03000793          	li	a5,48
8000130c:	00f70023          	sb	a5,0(a4) # ff0000 <__stack_size+0xfefc00>
80001310:	00100793          	li	a5,1
80001314:	060f0263          	beqz	t5,80001378 <_ntoa_format+0x110>
80001318:	00f70833          	add	a6,a4,a5
8000131c:	02d00893          	li	a7,45
80001320:	01180023          	sb	a7,0(a6)
80001324:	00178793          	addi	a5,a5,1
80001328:	00038893          	mv	a7,t2
8000132c:	000f8813          	mv	a6,t6
80001330:	df5ff06f          	j	80001124 <_out_rev>
80001334:	0203f813          	andi	a6,t2,32
80001338:	14081263          	bnez	a6,8000147c <_ntoa_format+0x214>
8000133c:	02000813          	li	a6,32
80001340:	ff0784e3          	beq	a5,a6,80001328 <_ntoa_format+0xc0>
80001344:	00f708b3          	add	a7,a4,a5
80001348:	00178793          	addi	a5,a5,1
8000134c:	07800813          	li	a6,120
80001350:	01088023          	sb	a6,0(a7)
80001354:	02000813          	li	a6,32
80001358:	fd0788e3          	beq	a5,a6,80001328 <_ntoa_format+0xc0>
8000135c:	00f70833          	add	a6,a4,a5
80001360:	03000893          	li	a7,48
80001364:	01180023          	sb	a7,0(a6)
80001368:	00178793          	addi	a5,a5,1
8000136c:	02000813          	li	a6,32
80001370:	fb078ce3          	beq	a5,a6,80001328 <_ntoa_format+0xc0>
80001374:	fa0f12e3          	bnez	t5,80001318 <_ntoa_format+0xb0>
80001378:	0043f813          	andi	a6,t2,4
8000137c:	08081c63          	bnez	a6,80001414 <_ntoa_format+0x1ac>
80001380:	0083f813          	andi	a6,t2,8
80001384:	fa0802e3          	beqz	a6,80001328 <_ntoa_format+0xc0>
80001388:	00f70833          	add	a6,a4,a5
8000138c:	02000893          	li	a7,32
80001390:	01180023          	sb	a7,0(a6)
80001394:	00178793          	addi	a5,a5,1
80001398:	f91ff06f          	j	80001328 <_ntoa_format+0xc0>
8000139c:	06080263          	beqz	a6,80001400 <_ntoa_format+0x198>
800013a0:	0a0f1e63          	bnez	t5,8000145c <_ntoa_format+0x1f4>
800013a4:	00c3f313          	andi	t1,t2,12
800013a8:	0a031a63          	bnez	t1,8000145c <_ntoa_format+0x1f4>
800013ac:	f057f6e3          	bgeu	a5,t0,800012b8 <_ntoa_format+0x50>
800013b0:	01f00313          	li	t1,31
800013b4:	eef370e3          	bgeu	t1,a5,80001294 <_ntoa_format+0x2c>
800013b8:	02000793          	li	a5,32
800013bc:	f3f7f4e3          	bgeu	a5,t6,800012e4 <_ntoa_format+0x7c>
800013c0:	0103f793          	andi	a5,t2,16
800013c4:	00079663          	bnez	a5,800013d0 <_ntoa_format+0x168>
800013c8:	02000793          	li	a5,32
800013cc:	f5dff06f          	j	80001328 <_ntoa_format+0xc0>
800013d0:	4003f793          	andi	a5,t2,1024
800013d4:	04078e63          	beqz	a5,80001430 <_ntoa_format+0x1c8>
800013d8:	02000793          	li	a5,32
800013dc:	01000813          	li	a6,16
800013e0:	f5088ae3          	beq	a7,a6,80001334 <_ntoa_format+0xcc>
800013e4:	00200813          	li	a6,2
800013e8:	f70896e3          	bne	a7,a6,80001354 <_ntoa_format+0xec>
800013ec:	02000813          	li	a6,32
800013f0:	f3078ce3          	beq	a5,a6,80001328 <_ntoa_format+0xc0>
800013f4:	00f70833          	add	a6,a4,a5
800013f8:	00178793          	addi	a5,a5,1
800013fc:	0e40006f          	j	800014e0 <_ntoa_format+0x278>
80001400:	ee57f2e3          	bgeu	a5,t0,800012e4 <_ntoa_format+0x7c>
80001404:	01f00313          	li	t1,31
80001408:	e8f376e3          	bgeu	t1,a5,80001294 <_ntoa_format+0x2c>
8000140c:	02000793          	li	a5,32
80001410:	ed5ff06f          	j	800012e4 <_ntoa_format+0x7c>
80001414:	00f70833          	add	a6,a4,a5
80001418:	02b00893          	li	a7,43
8000141c:	01180023          	sb	a7,0(a6)
80001420:	00178793          	addi	a5,a5,1
80001424:	00038893          	mv	a7,t2
80001428:	000f8813          	mv	a6,t6
8000142c:	cf9ff06f          	j	80001124 <_out_rev>
80001430:	02000793          	li	a5,32
80001434:	00f28463          	beq	t0,a5,8000143c <_ntoa_format+0x1d4>
80001438:	faff92e3          	bne	t6,a5,800013dc <_ntoa_format+0x174>
8000143c:	fff78813          	addi	a6,a5,-1
80001440:	ea080ce3          	beqz	a6,800012f8 <_ntoa_format+0x90>
80001444:	01000313          	li	t1,16
80001448:	06688e63          	beq	a7,t1,800014c4 <_ntoa_format+0x25c>
8000144c:	00200313          	li	t1,2
80001450:	08688663          	beq	a7,t1,800014dc <_ntoa_format+0x274>
80001454:	00080793          	mv	a5,a6
80001458:	f05ff06f          	j	8000135c <_ntoa_format+0xf4>
8000145c:	ffff8f93          	addi	t6,t6,-1
80001460:	f4dff06f          	j	800013ac <_ntoa_format+0x144>
80001464:	0203f793          	andi	a5,t2,32
80001468:	02079863          	bnez	a5,80001498 <_ntoa_format+0x230>
8000146c:	07800793          	li	a5,120
80001470:	00f70023          	sb	a5,0(a4)
80001474:	00100793          	li	a5,1
80001478:	ee5ff06f          	j	8000135c <_ntoa_format+0xf4>
8000147c:	02000813          	li	a6,32
80001480:	eb0784e3          	beq	a5,a6,80001328 <_ntoa_format+0xc0>
80001484:	00f70833          	add	a6,a4,a5
80001488:	05800893          	li	a7,88
8000148c:	01180023          	sb	a7,0(a6)
80001490:	00178793          	addi	a5,a5,1
80001494:	ec1ff06f          	j	80001354 <_ntoa_format+0xec>
80001498:	05800793          	li	a5,88
8000149c:	00f70023          	sb	a5,0(a4)
800014a0:	00100793          	li	a5,1
800014a4:	eb9ff06f          	j	8000135c <_ntoa_format+0xf4>
800014a8:	06200793          	li	a5,98
800014ac:	00f70023          	sb	a5,0(a4)
800014b0:	00100793          	li	a5,1
800014b4:	ea9ff06f          	j	8000135c <_ntoa_format+0xf4>
800014b8:	02000793          	li	a5,32
800014bc:	de081ee3          	bnez	a6,800012b8 <_ntoa_format+0x50>
800014c0:	e25ff06f          	j	800012e4 <_ntoa_format+0x7c>
800014c4:	0203f893          	andi	a7,t2,32
800014c8:	ffe78793          	addi	a5,a5,-2
800014cc:	fa089ce3          	bnez	a7,80001484 <_ntoa_format+0x21c>
800014d0:	00f708b3          	add	a7,a4,a5
800014d4:	00080793          	mv	a5,a6
800014d8:	e75ff06f          	j	8000134c <_ntoa_format+0xe4>
800014dc:	01070833          	add	a6,a4,a6
800014e0:	06200893          	li	a7,98
800014e4:	01180023          	sb	a7,0(a6)
800014e8:	e6dff06f          	j	80001354 <_ntoa_format+0xec>

800014ec <_out_char>:
800014ec:	00051463          	bnez	a0,800014f4 <_out_char+0x8>
800014f0:	00008067          	ret
800014f4:	e90ff06f          	j	80000b84 <vx_putchar>

800014f8 <_etoa>:
800014f8:	f7010113          	addi	sp,sp,-144
800014fc:	07312e23          	sw	s3,124(sp)
80001500:	07412c23          	sw	s4,120(sp)
80001504:	07512a23          	sw	s5,116(sp)
80001508:	07612823          	sw	s6,112(sp)
8000150c:	00050a13          	mv	s4,a0
80001510:	00058a93          	mv	s5,a1
80001514:	00060993          	mv	s3,a2
80001518:	00068b13          	mv	s6,a3
8000151c:	00070613          	mv	a2,a4
80001520:	00078693          	mv	a3,a5
80001524:	00070513          	mv	a0,a4
80001528:	00078593          	mv	a1,a5
8000152c:	08812423          	sw	s0,136(sp)
80001530:	08912223          	sw	s1,132(sp)
80001534:	09212023          	sw	s2,128(sp)
80001538:	07812423          	sw	s8,104(sp)
8000153c:	08112623          	sw	ra,140(sp)
80001540:	07712623          	sw	s7,108(sp)
80001544:	07912223          	sw	s9,100(sp)
80001548:	07a12023          	sw	s10,96(sp)
8000154c:	05b12e23          	sw	s11,92(sp)
80001550:	00070413          	mv	s0,a4
80001554:	00078493          	mv	s1,a5
80001558:	00080c13          	mv	s8,a6
8000155c:	00088913          	mv	s2,a7
80001560:	550030ef          	jal	ra,80004ab0 <__eqdf2>
80001564:	54051663          	bnez	a0,80001ab0 <_etoa+0x5b8>
80001568:	00006797          	auipc	a5,0x6
8000156c:	ec878793          	addi	a5,a5,-312 # 80007430 <__SDATA_BEGIN__>
80001570:	0007a603          	lw	a2,0(a5)
80001574:	0047a683          	lw	a3,4(a5)
80001578:	00040513          	mv	a0,s0
8000157c:	00048593          	mv	a1,s1
80001580:	5f8030ef          	jal	ra,80004b78 <__gedf2>
80001584:	52a04663          	bgtz	a0,80001ab0 <_etoa+0x5b8>
80001588:	00006797          	auipc	a5,0x6
8000158c:	eb078793          	addi	a5,a5,-336 # 80007438 <__SDATA_BEGIN__+0x8>
80001590:	0007a603          	lw	a2,0(a5)
80001594:	0047a683          	lw	a3,4(a5)
80001598:	00040513          	mv	a0,s0
8000159c:	00048593          	mv	a1,s1
800015a0:	6c4030ef          	jal	ra,80004c64 <__ledf2>
800015a4:	50054663          	bltz	a0,80001ab0 <_etoa+0x5b8>
800015a8:	00040513          	mv	a0,s0
800015ac:	00048593          	mv	a1,s1
800015b0:	00000613          	li	a2,0
800015b4:	00000693          	li	a3,0
800015b8:	6ac030ef          	jal	ra,80004c64 <__ledf2>
800015bc:	80000bb7          	lui	s7,0x80000
800015c0:	00812a23          	sw	s0,20(sp)
800015c4:	009bcbb3          	xor	s7,s7,s1
800015c8:	00054463          	bltz	a0,800015d0 <_etoa+0xd8>
800015cc:	00048b93          	mv	s7,s1
800015d0:	09012783          	lw	a5,144(sp)
800015d4:	4007f793          	andi	a5,a5,1024
800015d8:	02f12623          	sw	a5,44(sp)
800015dc:	00079463          	bnez	a5,800015e4 <_etoa+0xec>
800015e0:	00600c13          	li	s8,6
800015e4:	014bd513          	srli	a0,s7,0x14
800015e8:	7ff57513          	andi	a0,a0,2047
800015ec:	c0150513          	addi	a0,a0,-1023
800015f0:	44d040ef          	jal	ra,8000623c <__floatsidf>
800015f4:	00006797          	auipc	a5,0x6
800015f8:	e4c78793          	addi	a5,a5,-436 # 80007440 <__SDATA_BEGIN__+0x10>
800015fc:	0007a603          	lw	a2,0(a5)
80001600:	0047a683          	lw	a3,4(a5)
80001604:	74c030ef          	jal	ra,80004d50 <__muldf3>
80001608:	00006797          	auipc	a5,0x6
8000160c:	e4078793          	addi	a5,a5,-448 # 80007448 <__SDATA_BEGIN__+0x18>
80001610:	0007a603          	lw	a2,0(a5)
80001614:	0047a683          	lw	a3,4(a5)
80001618:	07c020ef          	jal	ra,80003694 <__adddf3>
8000161c:	00cb9793          	slli	a5,s7,0xc
80001620:	00c7d713          	srli	a4,a5,0xc
80001624:	00006797          	auipc	a5,0x6
80001628:	e2c78793          	addi	a5,a5,-468 # 80007450 <__SDATA_BEGIN__+0x20>
8000162c:	0007a603          	lw	a2,0(a5)
80001630:	0047a683          	lw	a3,4(a5)
80001634:	3ff007b7          	lui	a5,0x3ff00
80001638:	00e7e7b3          	or	a5,a5,a4
8000163c:	00050d13          	mv	s10,a0
80001640:	00058c93          	mv	s9,a1
80001644:	00040513          	mv	a0,s0
80001648:	00078593          	mv	a1,a5
8000164c:	6ad030ef          	jal	ra,800054f8 <__subdf3>
80001650:	00006797          	auipc	a5,0x6
80001654:	e0878793          	addi	a5,a5,-504 # 80007458 <__SDATA_BEGIN__+0x28>
80001658:	0007a603          	lw	a2,0(a5)
8000165c:	0047a683          	lw	a3,4(a5)
80001660:	6f0030ef          	jal	ra,80004d50 <__muldf3>
80001664:	00050613          	mv	a2,a0
80001668:	00058693          	mv	a3,a1
8000166c:	000d0513          	mv	a0,s10
80001670:	000c8593          	mv	a1,s9
80001674:	020020ef          	jal	ra,80003694 <__adddf3>
80001678:	1fd040ef          	jal	ra,80006074 <__fixdfsi>
8000167c:	00050c93          	mv	s9,a0
80001680:	3bd040ef          	jal	ra,8000623c <__floatsidf>
80001684:	00006797          	auipc	a5,0x6
80001688:	ddc78793          	addi	a5,a5,-548 # 80007460 <__SDATA_BEGIN__+0x30>
8000168c:	0007a603          	lw	a2,0(a5)
80001690:	0047a683          	lw	a3,4(a5)
80001694:	00050d93          	mv	s11,a0
80001698:	00058d13          	mv	s10,a1
8000169c:	6b4030ef          	jal	ra,80004d50 <__muldf3>
800016a0:	00006797          	auipc	a5,0x6
800016a4:	dc878793          	addi	a5,a5,-568 # 80007468 <__SDATA_BEGIN__+0x38>
800016a8:	0007a603          	lw	a2,0(a5)
800016ac:	0047a683          	lw	a3,4(a5)
800016b0:	7e5010ef          	jal	ra,80003694 <__adddf3>
800016b4:	1c1040ef          	jal	ra,80006074 <__fixdfsi>
800016b8:	00006717          	auipc	a4,0x6
800016bc:	db870713          	addi	a4,a4,-584 # 80007470 <__SDATA_BEGIN__+0x40>
800016c0:	00072603          	lw	a2,0(a4)
800016c4:	00472683          	lw	a3,4(a4)
800016c8:	00050793          	mv	a5,a0
800016cc:	000d0593          	mv	a1,s10
800016d0:	000d8513          	mv	a0,s11
800016d4:	00078d13          	mv	s10,a5
800016d8:	678030ef          	jal	ra,80004d50 <__muldf3>
800016dc:	00050d93          	mv	s11,a0
800016e0:	000d0513          	mv	a0,s10
800016e4:	01a12c23          	sw	s10,24(sp)
800016e8:	00058d13          	mv	s10,a1
800016ec:	351040ef          	jal	ra,8000623c <__floatsidf>
800016f0:	00006797          	auipc	a5,0x6
800016f4:	d8878793          	addi	a5,a5,-632 # 80007478 <__SDATA_BEGIN__+0x48>
800016f8:	0007a603          	lw	a2,0(a5)
800016fc:	0047a683          	lw	a3,4(a5)
80001700:	650030ef          	jal	ra,80004d50 <__muldf3>
80001704:	00050613          	mv	a2,a0
80001708:	00058693          	mv	a3,a1
8000170c:	000d8513          	mv	a0,s11
80001710:	000d0593          	mv	a1,s10
80001714:	5e5030ef          	jal	ra,800054f8 <__subdf3>
80001718:	00050613          	mv	a2,a0
8000171c:	02a12023          	sw	a0,32(sp)
80001720:	00058693          	mv	a3,a1
80001724:	00b12e23          	sw	a1,28(sp)
80001728:	628030ef          	jal	ra,80004d50 <__muldf3>
8000172c:	01c12783          	lw	a5,28(sp)
80001730:	02012703          	lw	a4,32(sp)
80001734:	00050d93          	mv	s11,a0
80001738:	00078693          	mv	a3,a5
8000173c:	00058d13          	mv	s10,a1
80001740:	00070613          	mv	a2,a4
80001744:	00078593          	mv	a1,a5
80001748:	00070513          	mv	a0,a4
8000174c:	02f12223          	sw	a5,36(sp)
80001750:	02e12423          	sw	a4,40(sp)
80001754:	741010ef          	jal	ra,80003694 <__adddf3>
80001758:	00006697          	auipc	a3,0x6
8000175c:	d2868693          	addi	a3,a3,-728 # 80007480 <__SDATA_BEGIN__+0x50>
80001760:	0006a603          	lw	a2,0(a3)
80001764:	0046a683          	lw	a3,4(a3)
80001768:	00050893          	mv	a7,a0
8000176c:	00058813          	mv	a6,a1
80001770:	000d8513          	mv	a0,s11
80001774:	000d0593          	mv	a1,s10
80001778:	03112023          	sw	a7,32(sp)
8000177c:	01012e23          	sw	a6,28(sp)
80001780:	271020ef          	jal	ra,800041f0 <__divdf3>
80001784:	00006717          	auipc	a4,0x6
80001788:	d0470713          	addi	a4,a4,-764 # 80007488 <__SDATA_BEGIN__+0x58>
8000178c:	00072603          	lw	a2,0(a4)
80001790:	00472683          	lw	a3,4(a4)
80001794:	701010ef          	jal	ra,80003694 <__adddf3>
80001798:	00050613          	mv	a2,a0
8000179c:	00058693          	mv	a3,a1
800017a0:	000d8513          	mv	a0,s11
800017a4:	000d0593          	mv	a1,s10
800017a8:	249020ef          	jal	ra,800041f0 <__divdf3>
800017ac:	00006697          	auipc	a3,0x6
800017b0:	ce468693          	addi	a3,a3,-796 # 80007490 <__SDATA_BEGIN__+0x60>
800017b4:	0006a603          	lw	a2,0(a3)
800017b8:	0046a683          	lw	a3,4(a3)
800017bc:	6d9010ef          	jal	ra,80003694 <__adddf3>
800017c0:	00050613          	mv	a2,a0
800017c4:	00058693          	mv	a3,a1
800017c8:	000d8513          	mv	a0,s11
800017cc:	000d0593          	mv	a1,s10
800017d0:	221020ef          	jal	ra,800041f0 <__divdf3>
800017d4:	02812703          	lw	a4,40(sp)
800017d8:	02412783          	lw	a5,36(sp)
800017dc:	00006697          	auipc	a3,0x6
800017e0:	cbc68693          	addi	a3,a3,-836 # 80007498 <__SDATA_BEGIN__+0x68>
800017e4:	00050d93          	mv	s11,a0
800017e8:	00058d13          	mv	s10,a1
800017ec:	0006a503          	lw	a0,0(a3)
800017f0:	0046a583          	lw	a1,4(a3)
800017f4:	00070613          	mv	a2,a4
800017f8:	00078693          	mv	a3,a5
800017fc:	4fd030ef          	jal	ra,800054f8 <__subdf3>
80001800:	00050613          	mv	a2,a0
80001804:	00058693          	mv	a3,a1
80001808:	000d8513          	mv	a0,s11
8000180c:	000d0593          	mv	a1,s10
80001810:	685010ef          	jal	ra,80003694 <__adddf3>
80001814:	02012883          	lw	a7,32(sp)
80001818:	01c12803          	lw	a6,28(sp)
8000181c:	00050613          	mv	a2,a0
80001820:	00058693          	mv	a3,a1
80001824:	00088513          	mv	a0,a7
80001828:	00080593          	mv	a1,a6
8000182c:	1c5020ef          	jal	ra,800041f0 <__divdf3>
80001830:	00006797          	auipc	a5,0x6
80001834:	c7078793          	addi	a5,a5,-912 # 800074a0 <__SDATA_BEGIN__+0x70>
80001838:	0007a603          	lw	a2,0(a5)
8000183c:	0047a683          	lw	a3,4(a5)
80001840:	655010ef          	jal	ra,80003694 <__adddf3>
80001844:	01812783          	lw	a5,24(sp)
80001848:	00000613          	li	a2,0
8000184c:	3ff78793          	addi	a5,a5,1023
80001850:	01479793          	slli	a5,a5,0x14
80001854:	00078693          	mv	a3,a5
80001858:	4f8030ef          	jal	ra,80004d50 <__muldf3>
8000185c:	00050613          	mv	a2,a0
80001860:	00a12c23          	sw	a0,24(sp)
80001864:	00058693          	mv	a3,a1
80001868:	00058d93          	mv	s11,a1
8000186c:	00040513          	mv	a0,s0
80001870:	000b8593          	mv	a1,s7
80001874:	3f0030ef          	jal	ra,80004c64 <__ledf2>
80001878:	01812703          	lw	a4,24(sp)
8000187c:	02055663          	bgez	a0,800018a8 <_etoa+0x3b0>
80001880:	00006797          	auipc	a5,0x6
80001884:	c0878793          	addi	a5,a5,-1016 # 80007488 <__SDATA_BEGIN__+0x58>
80001888:	0007a603          	lw	a2,0(a5)
8000188c:	0047a683          	lw	a3,4(a5)
80001890:	00070513          	mv	a0,a4
80001894:	000d8593          	mv	a1,s11
80001898:	159020ef          	jal	ra,800041f0 <__divdf3>
8000189c:	fffc8c93          	addi	s9,s9,-1
800018a0:	00050713          	mv	a4,a0
800018a4:	00058d93          	mv	s11,a1
800018a8:	09012783          	lw	a5,144(sp)
800018ac:	0c600693          	li	a3,198
800018b0:	063c8d13          	addi	s10,s9,99
800018b4:	01a6bd33          	sltu	s10,a3,s10
800018b8:	01479693          	slli	a3,a5,0x14
800018bc:	004d0d13          	addi	s10,s10,4
800018c0:	0606d863          	bgez	a3,80001930 <_etoa+0x438>
800018c4:	00006697          	auipc	a3,0x6
800018c8:	be468693          	addi	a3,a3,-1052 # 800074a8 <__SDATA_BEGIN__+0x78>
800018cc:	0006a603          	lw	a2,0(a3)
800018d0:	0046a683          	lw	a3,4(a3)
800018d4:	00040513          	mv	a0,s0
800018d8:	000b8593          	mv	a1,s7
800018dc:	00e12c23          	sw	a4,24(sp)
800018e0:	298030ef          	jal	ra,80004b78 <__gedf2>
800018e4:	01812703          	lw	a4,24(sp)
800018e8:	26054063          	bltz	a0,80001b48 <_etoa+0x650>
800018ec:	00006697          	auipc	a3,0x6
800018f0:	bc468693          	addi	a3,a3,-1084 # 800074b0 <__SDATA_BEGIN__+0x80>
800018f4:	0006a603          	lw	a2,0(a3)
800018f8:	0046a683          	lw	a3,4(a3)
800018fc:	00040513          	mv	a0,s0
80001900:	000b8593          	mv	a1,s7
80001904:	360030ef          	jal	ra,80004c64 <__ledf2>
80001908:	01812703          	lw	a4,24(sp)
8000190c:	22055e63          	bgez	a0,80001b48 <_etoa+0x650>
80001910:	258cde63          	bge	s9,s8,80001b6c <_etoa+0x674>
80001914:	419c0c33          	sub	s8,s8,s9
80001918:	fffc0c13          	addi	s8,s8,-1
8000191c:	09012783          	lw	a5,144(sp)
80001920:	00000d13          	li	s10,0
80001924:	00000c93          	li	s9,0
80001928:	4007e793          	ori	a5,a5,1024
8000192c:	08f12823          	sw	a5,144(sp)
80001930:	00000893          	li	a7,0
80001934:	012d7463          	bgeu	s10,s2,8000193c <_etoa+0x444>
80001938:	41a908b3          	sub	a7,s2,s10
8000193c:	09012783          	lw	a5,144(sp)
80001940:	0027f793          	andi	a5,a5,2
80001944:	00f12e23          	sw	a5,28(sp)
80001948:	00078863          	beqz	a5,80001958 <_etoa+0x460>
8000194c:	001d3693          	seqz	a3,s10
80001950:	40d006b3          	neg	a3,a3
80001954:	00d8f8b3          	and	a7,a7,a3
80001958:	1c0c9463          	bnez	s9,80001b20 <_etoa+0x628>
8000195c:	00040513          	mv	a0,s0
80001960:	00048593          	mv	a1,s1
80001964:	00000613          	li	a2,0
80001968:	00000693          	li	a3,0
8000196c:	01112c23          	sw	a7,24(sp)
80001970:	2f4030ef          	jal	ra,80004c64 <__ledf2>
80001974:	01812883          	lw	a7,24(sp)
80001978:	00055663          	bgez	a0,80001984 <_etoa+0x48c>
8000197c:	800007b7          	lui	a5,0x80000
80001980:	0177cbb3          	xor	s7,a5,s7
80001984:	09012703          	lw	a4,144(sp)
80001988:	01412503          	lw	a0,20(sp)
8000198c:	fffff7b7          	lui	a5,0xfffff
80001990:	7ff78793          	addi	a5,a5,2047 # fffff7ff <__global_pointer+0x7fff7ff7>
80001994:	00f777b3          	and	a5,a4,a5
80001998:	00f12023          	sw	a5,0(sp)
8000199c:	00050713          	mv	a4,a0
800019a0:	000c0813          	mv	a6,s8
800019a4:	000b8793          	mv	a5,s7
800019a8:	000b0693          	mv	a3,s6
800019ac:	00098613          	mv	a2,s3
800019b0:	000a8593          	mv	a1,s5
800019b4:	000a0513          	mv	a0,s4
800019b8:	1bc000ef          	jal	ra,80001b74 <_ftoa>
800019bc:	00050413          	mv	s0,a0
800019c0:	120d0063          	beqz	s10,80001ae0 <_etoa+0x5e8>
800019c4:	09012783          	lw	a5,144(sp)
800019c8:	00040613          	mv	a2,s0
800019cc:	000a8593          	mv	a1,s5
800019d0:	01a79513          	slli	a0,a5,0x1a
800019d4:	41f55513          	srai	a0,a0,0x1f
800019d8:	fe057513          	andi	a0,a0,-32
800019dc:	000b0693          	mv	a3,s6
800019e0:	06550513          	addi	a0,a0,101
800019e4:	000a00e7          	jalr	s4
800019e8:	41fcd793          	srai	a5,s9,0x1f
800019ec:	0197c733          	xor	a4,a5,s9
800019f0:	40f70733          	sub	a4,a4,a5
800019f4:	00140613          	addi	a2,s0,1
800019f8:	01fcd813          	srli	a6,s9,0x1f
800019fc:	fffd0d13          	addi	s10,s10,-1
80001a00:	00000793          	li	a5,0
80001a04:	00a00593          	li	a1,10
80001a08:	00900e13          	li	t3,9
80001a0c:	02000313          	li	t1,32
80001a10:	0080006f          	j	80001a18 <_etoa+0x520>
80001a14:	02678463          	beq	a5,t1,80001a3c <_etoa+0x544>
80001a18:	02b776b3          	remu	a3,a4,a1
80001a1c:	03010513          	addi	a0,sp,48
80001a20:	00178793          	addi	a5,a5,1
80001a24:	00f508b3          	add	a7,a0,a5
80001a28:	00070513          	mv	a0,a4
80001a2c:	03068693          	addi	a3,a3,48
80001a30:	fed88fa3          	sb	a3,-1(a7)
80001a34:	02b75733          	divu	a4,a4,a1
80001a38:	fcae6ee3          	bltu	t3,a0,80001a14 <_etoa+0x51c>
80001a3c:	00500713          	li	a4,5
80001a40:	00e12423          	sw	a4,8(sp)
80001a44:	01a12223          	sw	s10,4(sp)
80001a48:	00012023          	sw	zero,0(sp)
80001a4c:	00a00893          	li	a7,10
80001a50:	03010713          	addi	a4,sp,48
80001a54:	000b0693          	mv	a3,s6
80001a58:	000a8593          	mv	a1,s5
80001a5c:	000a0513          	mv	a0,s4
80001a60:	809ff0ef          	jal	ra,80001268 <_ntoa_format>
80001a64:	01c12783          	lw	a5,28(sp)
80001a68:	00050413          	mv	s0,a0
80001a6c:	06078a63          	beqz	a5,80001ae0 <_etoa+0x5e8>
80001a70:	413504b3          	sub	s1,a0,s3
80001a74:	0724f663          	bgeu	s1,s2,80001ae0 <_etoa+0x5e8>
80001a78:	00998633          	add	a2,s3,s1
80001a7c:	000b0693          	mv	a3,s6
80001a80:	00148493          	addi	s1,s1,1
80001a84:	000a8593          	mv	a1,s5
80001a88:	02000513          	li	a0,32
80001a8c:	000a00e7          	jalr	s4
80001a90:	ff24e4e3          	bltu	s1,s2,80001a78 <_etoa+0x580>
80001a94:	413407b3          	sub	a5,s0,s3
80001a98:	00178793          	addi	a5,a5,1
80001a9c:	00000713          	li	a4,0
80001aa0:	0af97e63          	bgeu	s2,a5,80001b5c <_etoa+0x664>
80001aa4:	00140413          	addi	s0,s0,1
80001aa8:	00870433          	add	s0,a4,s0
80001aac:	0340006f          	j	80001ae0 <_etoa+0x5e8>
80001ab0:	09012683          	lw	a3,144(sp)
80001ab4:	00040713          	mv	a4,s0
80001ab8:	00048793          	mv	a5,s1
80001abc:	00d12023          	sw	a3,0(sp)
80001ac0:	00090893          	mv	a7,s2
80001ac4:	000c0813          	mv	a6,s8
80001ac8:	000b0693          	mv	a3,s6
80001acc:	00098613          	mv	a2,s3
80001ad0:	000a8593          	mv	a1,s5
80001ad4:	000a0513          	mv	a0,s4
80001ad8:	09c000ef          	jal	ra,80001b74 <_ftoa>
80001adc:	00050413          	mv	s0,a0
80001ae0:	08c12083          	lw	ra,140(sp)
80001ae4:	00040513          	mv	a0,s0
80001ae8:	08812403          	lw	s0,136(sp)
80001aec:	08412483          	lw	s1,132(sp)
80001af0:	08012903          	lw	s2,128(sp)
80001af4:	07c12983          	lw	s3,124(sp)
80001af8:	07812a03          	lw	s4,120(sp)
80001afc:	07412a83          	lw	s5,116(sp)
80001b00:	07012b03          	lw	s6,112(sp)
80001b04:	06c12b83          	lw	s7,108(sp)
80001b08:	06812c03          	lw	s8,104(sp)
80001b0c:	06412c83          	lw	s9,100(sp)
80001b10:	06012d03          	lw	s10,96(sp)
80001b14:	05c12d83          	lw	s11,92(sp)
80001b18:	09010113          	addi	sp,sp,144
80001b1c:	00008067          	ret
80001b20:	000b8593          	mv	a1,s7
80001b24:	00070613          	mv	a2,a4
80001b28:	00040513          	mv	a0,s0
80001b2c:	000d8693          	mv	a3,s11
80001b30:	01112c23          	sw	a7,24(sp)
80001b34:	6bc020ef          	jal	ra,800041f0 <__divdf3>
80001b38:	01812883          	lw	a7,24(sp)
80001b3c:	00a12a23          	sw	a0,20(sp)
80001b40:	00058b93          	mv	s7,a1
80001b44:	e19ff06f          	j	8000195c <_etoa+0x464>
80001b48:	de0c04e3          	beqz	s8,80001930 <_etoa+0x438>
80001b4c:	02c12783          	lw	a5,44(sp)
80001b50:	00f036b3          	snez	a3,a5
80001b54:	40dc0c33          	sub	s8,s8,a3
80001b58:	dd9ff06f          	j	80001930 <_etoa+0x438>
80001b5c:	fff98993          	addi	s3,s3,-1
80001b60:	01298933          	add	s2,s3,s2
80001b64:	40890733          	sub	a4,s2,s0
80001b68:	f3dff06f          	j	80001aa4 <_etoa+0x5ac>
80001b6c:	00000c13          	li	s8,0
80001b70:	dadff06f          	j	8000191c <_etoa+0x424>

80001b74 <_ftoa>:
80001b74:	f7010113          	addi	sp,sp,-144
80001b78:	07312e23          	sw	s3,124(sp)
80001b7c:	07412c23          	sw	s4,120(sp)
80001b80:	07512a23          	sw	s5,116(sp)
80001b84:	07812423          	sw	s8,104(sp)
80001b88:	00050993          	mv	s3,a0
80001b8c:	00058a13          	mv	s4,a1
80001b90:	00060a93          	mv	s5,a2
80001b94:	00068c13          	mv	s8,a3
80001b98:	00070613          	mv	a2,a4
80001b9c:	00078693          	mv	a3,a5
80001ba0:	00070513          	mv	a0,a4
80001ba4:	00078593          	mv	a1,a5
80001ba8:	08812423          	sw	s0,136(sp)
80001bac:	08912223          	sw	s1,132(sp)
80001bb0:	09212023          	sw	s2,128(sp)
80001bb4:	07612823          	sw	s6,112(sp)
80001bb8:	07912223          	sw	s9,100(sp)
80001bbc:	08112623          	sw	ra,140(sp)
80001bc0:	07712623          	sw	s7,108(sp)
80001bc4:	07a12023          	sw	s10,96(sp)
80001bc8:	05b12e23          	sw	s11,92(sp)
80001bcc:	00070493          	mv	s1,a4
80001bd0:	00078413          	mv	s0,a5
80001bd4:	00080b13          	mv	s6,a6
80001bd8:	00088913          	mv	s2,a7
80001bdc:	6d5020ef          	jal	ra,80004ab0 <__eqdf2>
80001be0:	09012c83          	lw	s9,144(sp)
80001be4:	22051463          	bnez	a0,80001e0c <_ftoa+0x298>
80001be8:	00006797          	auipc	a5,0x6
80001bec:	85078793          	addi	a5,a5,-1968 # 80007438 <__SDATA_BEGIN__+0x8>
80001bf0:	0007a603          	lw	a2,0(a5)
80001bf4:	0047a683          	lw	a3,4(a5)
80001bf8:	00048513          	mv	a0,s1
80001bfc:	00040593          	mv	a1,s0
80001c00:	064030ef          	jal	ra,80004c64 <__ledf2>
80001c04:	2c054863          	bltz	a0,80001ed4 <_ftoa+0x360>
80001c08:	00006797          	auipc	a5,0x6
80001c0c:	82878793          	addi	a5,a5,-2008 # 80007430 <__SDATA_BEGIN__>
80001c10:	0007a603          	lw	a2,0(a5)
80001c14:	0047a683          	lw	a3,4(a5)
80001c18:	00048513          	mv	a0,s1
80001c1c:	00040593          	mv	a1,s0
80001c20:	759020ef          	jal	ra,80004b78 <__gedf2>
80001c24:	1ca04463          	bgtz	a0,80001dec <_ftoa+0x278>
80001c28:	00006797          	auipc	a5,0x6
80001c2c:	89078793          	addi	a5,a5,-1904 # 800074b8 <__SDATA_BEGIN__+0x88>
80001c30:	0007a603          	lw	a2,0(a5)
80001c34:	0047a683          	lw	a3,4(a5)
80001c38:	00048513          	mv	a0,s1
80001c3c:	00040593          	mv	a1,s0
80001c40:	739020ef          	jal	ra,80004b78 <__gedf2>
80001c44:	26a04263          	bgtz	a0,80001ea8 <_ftoa+0x334>
80001c48:	00006797          	auipc	a5,0x6
80001c4c:	87878793          	addi	a5,a5,-1928 # 800074c0 <__SDATA_BEGIN__+0x90>
80001c50:	0007a603          	lw	a2,0(a5)
80001c54:	0047a683          	lw	a3,4(a5)
80001c58:	00048513          	mv	a0,s1
80001c5c:	00040593          	mv	a1,s0
80001c60:	004030ef          	jal	ra,80004c64 <__ledf2>
80001c64:	24054263          	bltz	a0,80001ea8 <_ftoa+0x334>
80001c68:	00048513          	mv	a0,s1
80001c6c:	00040593          	mv	a1,s0
80001c70:	00000613          	li	a2,0
80001c74:	00000693          	li	a3,0
80001c78:	7ed020ef          	jal	ra,80004c64 <__ledf2>
80001c7c:	20054263          	bltz	a0,80001e80 <_ftoa+0x30c>
80001c80:	02012423          	sw	zero,40(sp)
80001c84:	400cf793          	andi	a5,s9,1024
80001c88:	00079463          	bnez	a5,80001c90 <_ftoa+0x11c>
80001c8c:	00600b13          	li	s6,6
80001c90:	03010693          	addi	a3,sp,48
80001c94:	fe0b0513          	addi	a0,s6,-32
80001c98:	000b0b93          	mv	s7,s6
80001c9c:	00900613          	li	a2,9
80001ca0:	03000593          	li	a1,48
80001ca4:	0140006f          	j	80001cb8 <_ftoa+0x144>
80001ca8:	00b68023          	sb	a1,0(a3)
80001cac:	fffb8b93          	addi	s7,s7,-1 # 7fffffff <__global_pointer+0xffff87f7>
80001cb0:	00168693          	addi	a3,a3,1
80001cb4:	34ab8063          	beq	s7,a0,80001ff4 <_ftoa+0x480>
80001cb8:	417b0db3          	sub	s11,s6,s7
80001cbc:	ff7666e3          	bltu	a2,s7,80001ca8 <_ftoa+0x134>
80001cc0:	00040593          	mv	a1,s0
80001cc4:	00048513          	mv	a0,s1
80001cc8:	3ac040ef          	jal	ra,80006074 <__fixdfsi>
80001ccc:	003b9613          	slli	a2,s7,0x3
80001cd0:	00005697          	auipc	a3,0x5
80001cd4:	de068693          	addi	a3,a3,-544 # 80006ab0 <pow10.1699>
80001cd8:	00c686b3          	add	a3,a3,a2
80001cdc:	0046a803          	lw	a6,4(a3)
80001ce0:	0006a783          	lw	a5,0(a3)
80001ce4:	00050d13          	mv	s10,a0
80001ce8:	01012a23          	sw	a6,20(sp)
80001cec:	00f12823          	sw	a5,16(sp)
80001cf0:	54c040ef          	jal	ra,8000623c <__floatsidf>
80001cf4:	00050613          	mv	a2,a0
80001cf8:	00058693          	mv	a3,a1
80001cfc:	00048513          	mv	a0,s1
80001d00:	00040593          	mv	a1,s0
80001d04:	7f4030ef          	jal	ra,800054f8 <__subdf3>
80001d08:	01012603          	lw	a2,16(sp)
80001d0c:	01412683          	lw	a3,20(sp)
80001d10:	040030ef          	jal	ra,80004d50 <__muldf3>
80001d14:	00b12c23          	sw	a1,24(sp)
80001d18:	02a12223          	sw	a0,36(sp)
80001d1c:	458040ef          	jal	ra,80006174 <__fixunsdfsi>
80001d20:	00050b13          	mv	s6,a0
80001d24:	5c0040ef          	jal	ra,800062e4 <__floatunsidf>
80001d28:	02412303          	lw	t1,36(sp)
80001d2c:	01812783          	lw	a5,24(sp)
80001d30:	00050613          	mv	a2,a0
80001d34:	00058693          	mv	a3,a1
80001d38:	00030513          	mv	a0,t1
80001d3c:	00078593          	mv	a1,a5
80001d40:	7b8030ef          	jal	ra,800054f8 <__subdf3>
80001d44:	00005717          	auipc	a4,0x5
80001d48:	72470713          	addi	a4,a4,1828 # 80007468 <__SDATA_BEGIN__+0x38>
80001d4c:	00072303          	lw	t1,0(a4)
80001d50:	00472383          	lw	t2,4(a4)
80001d54:	02a12223          	sw	a0,36(sp)
80001d58:	00030613          	mv	a2,t1
80001d5c:	00038693          	mv	a3,t2
80001d60:	00612c23          	sw	t1,24(sp)
80001d64:	00712e23          	sw	t2,28(sp)
80001d68:	02b12623          	sw	a1,44(sp)
80001d6c:	60d020ef          	jal	ra,80004b78 <__gedf2>
80001d70:	01812303          	lw	t1,24(sp)
80001d74:	01c12383          	lw	t2,28(sp)
80001d78:	24a05c63          	blez	a0,80001fd0 <_ftoa+0x45c>
80001d7c:	001b0b13          	addi	s6,s6,1
80001d80:	000b0513          	mv	a0,s6
80001d84:	560040ef          	jal	ra,800062e4 <__floatunsidf>
80001d88:	00050613          	mv	a2,a0
80001d8c:	00058693          	mv	a3,a1
80001d90:	01012503          	lw	a0,16(sp)
80001d94:	01412583          	lw	a1,20(sp)
80001d98:	6cd020ef          	jal	ra,80004c64 <__ledf2>
80001d9c:	00a04663          	bgtz	a0,80001da8 <_ftoa+0x234>
80001da0:	001d0d13          	addi	s10,s10,1
80001da4:	00000b13          	li	s6,0
80001da8:	160b8263          	beqz	s7,80001f0c <_ftoa+0x398>
80001dac:	02000313          	li	t1,32
80001db0:	00a00613          	li	a2,10
80001db4:	00900e13          	li	t3,9
80001db8:	126d8a63          	beq	s11,t1,80001eec <_ftoa+0x378>
80001dbc:	02cb76b3          	remu	a3,s6,a2
80001dc0:	001d8d93          	addi	s11,s11,1
80001dc4:	03010793          	addi	a5,sp,48
80001dc8:	01b78533          	add	a0,a5,s11
80001dcc:	fffb8593          	addi	a1,s7,-1
80001dd0:	03068693          	addi	a3,a3,48
80001dd4:	fed50fa3          	sb	a3,-1(a0)
80001dd8:	02cb56b3          	divu	a3,s6,a2
80001ddc:	256e7263          	bgeu	t3,s6,80002020 <_ftoa+0x4ac>
80001de0:	00058b93          	mv	s7,a1
80001de4:	00068b13          	mv	s6,a3
80001de8:	fd1ff06f          	j	80001db8 <_ftoa+0x244>
80001dec:	004cf793          	andi	a5,s9,4
80001df0:	08079063          	bnez	a5,80001e70 <_ftoa+0x2fc>
80001df4:	00005717          	auipc	a4,0x5
80001df8:	ac070713          	addi	a4,a4,-1344 # 800068b4 <__call_exitprocs+0x228>
80001dfc:	00300793          	li	a5,3
80001e00:	000c8893          	mv	a7,s9
80001e04:	00090813          	mv	a6,s2
80001e08:	0180006f          	j	80001e20 <_ftoa+0x2ac>
80001e0c:	000c8893          	mv	a7,s9
80001e10:	00090813          	mv	a6,s2
80001e14:	00300793          	li	a5,3
80001e18:	00005717          	auipc	a4,0x5
80001e1c:	aa870713          	addi	a4,a4,-1368 # 800068c0 <__call_exitprocs+0x234>
80001e20:	000c0693          	mv	a3,s8
80001e24:	000a8613          	mv	a2,s5
80001e28:	000a0593          	mv	a1,s4
80001e2c:	00098513          	mv	a0,s3
80001e30:	af4ff0ef          	jal	ra,80001124 <_out_rev>
80001e34:	08c12083          	lw	ra,140(sp)
80001e38:	08812403          	lw	s0,136(sp)
80001e3c:	08412483          	lw	s1,132(sp)
80001e40:	08012903          	lw	s2,128(sp)
80001e44:	07c12983          	lw	s3,124(sp)
80001e48:	07812a03          	lw	s4,120(sp)
80001e4c:	07412a83          	lw	s5,116(sp)
80001e50:	07012b03          	lw	s6,112(sp)
80001e54:	06c12b83          	lw	s7,108(sp)
80001e58:	06812c03          	lw	s8,104(sp)
80001e5c:	06412c83          	lw	s9,100(sp)
80001e60:	06012d03          	lw	s10,96(sp)
80001e64:	05c12d83          	lw	s11,92(sp)
80001e68:	09010113          	addi	sp,sp,144
80001e6c:	00008067          	ret
80001e70:	00005717          	auipc	a4,0x5
80001e74:	a4870713          	addi	a4,a4,-1464 # 800068b8 <__call_exitprocs+0x22c>
80001e78:	00400793          	li	a5,4
80001e7c:	f85ff06f          	j	80001e00 <_ftoa+0x28c>
80001e80:	00048613          	mv	a2,s1
80001e84:	00040693          	mv	a3,s0
80001e88:	00000513          	li	a0,0
80001e8c:	00000593          	li	a1,0
80001e90:	668030ef          	jal	ra,800054f8 <__subdf3>
80001e94:	00100793          	li	a5,1
80001e98:	00050493          	mv	s1,a0
80001e9c:	00058413          	mv	s0,a1
80001ea0:	02f12423          	sw	a5,40(sp)
80001ea4:	de1ff06f          	j	80001c84 <_ftoa+0x110>
80001ea8:	00048713          	mv	a4,s1
80001eac:	00040793          	mv	a5,s0
80001eb0:	01912023          	sw	s9,0(sp)
80001eb4:	00090893          	mv	a7,s2
80001eb8:	000b0813          	mv	a6,s6
80001ebc:	000c0693          	mv	a3,s8
80001ec0:	000a8613          	mv	a2,s5
80001ec4:	000a0593          	mv	a1,s4
80001ec8:	00098513          	mv	a0,s3
80001ecc:	e2cff0ef          	jal	ra,800014f8 <_etoa>
80001ed0:	f65ff06f          	j	80001e34 <_ftoa+0x2c0>
80001ed4:	000c8893          	mv	a7,s9
80001ed8:	00090813          	mv	a6,s2
80001edc:	00400793          	li	a5,4
80001ee0:	00005717          	auipc	a4,0x5
80001ee4:	9e470713          	addi	a4,a4,-1564 # 800068c4 <__call_exitprocs+0x238>
80001ee8:	f39ff06f          	j	80001e20 <_ftoa+0x2ac>
80001eec:	003cf693          	andi	a3,s9,3
80001ef0:	00100713          	li	a4,1
80001ef4:	1ae68a63          	beq	a3,a4,800020a8 <_ftoa+0x534>
80001ef8:	000c8893          	mv	a7,s9
80001efc:	00090813          	mv	a6,s2
80001f00:	000d8793          	mv	a5,s11
80001f04:	03010713          	addi	a4,sp,48
80001f08:	f19ff06f          	j	80001e20 <_ftoa+0x2ac>
80001f0c:	000d0513          	mv	a0,s10
80001f10:	32c040ef          	jal	ra,8000623c <__floatsidf>
80001f14:	00050613          	mv	a2,a0
80001f18:	00058693          	mv	a3,a1
80001f1c:	00048513          	mv	a0,s1
80001f20:	00040593          	mv	a1,s0
80001f24:	5d4030ef          	jal	ra,800054f8 <__subdf3>
80001f28:	00005797          	auipc	a5,0x5
80001f2c:	54078793          	addi	a5,a5,1344 # 80007468 <__SDATA_BEGIN__+0x38>
80001f30:	0007ab03          	lw	s6,0(a5)
80001f34:	0047ab83          	lw	s7,4(a5)
80001f38:	00050493          	mv	s1,a0
80001f3c:	000b0613          	mv	a2,s6
80001f40:	000b8693          	mv	a3,s7
80001f44:	00058413          	mv	s0,a1
80001f48:	51d020ef          	jal	ra,80004c64 <__ledf2>
80001f4c:	00055e63          	bgez	a0,80001f68 <_ftoa+0x3f4>
80001f50:	00048513          	mv	a0,s1
80001f54:	00040593          	mv	a1,s0
80001f58:	000b0613          	mv	a2,s6
80001f5c:	000b8693          	mv	a3,s7
80001f60:	419020ef          	jal	ra,80004b78 <__gedf2>
80001f64:	00a05663          	blez	a0,80001f70 <_ftoa+0x3fc>
80001f68:	001d7713          	andi	a4,s10,1
80001f6c:	00ed0d33          	add	s10,s10,a4
80001f70:	02000593          	li	a1,32
80001f74:	00a00693          	li	a3,10
80001f78:	f6bd8ae3          	beq	s11,a1,80001eec <_ftoa+0x378>
80001f7c:	02dd6733          	rem	a4,s10,a3
80001f80:	001d8d93          	addi	s11,s11,1
80001f84:	03010793          	addi	a5,sp,48
80001f88:	01b78633          	add	a2,a5,s11
80001f8c:	02dd4d33          	div	s10,s10,a3
80001f90:	03070713          	addi	a4,a4,48
80001f94:	fee60fa3          	sb	a4,-1(a2)
80001f98:	fe0d10e3          	bnez	s10,80001f78 <_ftoa+0x404>
80001f9c:	003cf693          	andi	a3,s9,3
80001fa0:	00100713          	li	a4,1
80001fa4:	16e68063          	beq	a3,a4,80002104 <_ftoa+0x590>
80001fa8:	02000713          	li	a4,32
80001fac:	f4ed86e3          	beq	s11,a4,80001ef8 <_ftoa+0x384>
80001fb0:	02812783          	lw	a5,40(sp)
80001fb4:	04078463          	beqz	a5,80001ffc <_ftoa+0x488>
80001fb8:	05010793          	addi	a5,sp,80
80001fbc:	01b78733          	add	a4,a5,s11
80001fc0:	02d00693          	li	a3,45
80001fc4:	fed70023          	sb	a3,-32(a4)
80001fc8:	001d8d93          	addi	s11,s11,1
80001fcc:	f2dff06f          	j	80001ef8 <_ftoa+0x384>
80001fd0:	02412503          	lw	a0,36(sp)
80001fd4:	02c12583          	lw	a1,44(sp)
80001fd8:	00030613          	mv	a2,t1
80001fdc:	00038693          	mv	a3,t2
80001fe0:	485020ef          	jal	ra,80004c64 <__ledf2>
80001fe4:	dc0542e3          	bltz	a0,80001da8 <_ftoa+0x234>
80001fe8:	0a0b1063          	bnez	s6,80002088 <_ftoa+0x514>
80001fec:	001b0b13          	addi	s6,s6,1
80001ff0:	db9ff06f          	j	80001da8 <_ftoa+0x234>
80001ff4:	02000d93          	li	s11,32
80001ff8:	cc9ff06f          	j	80001cc0 <_ftoa+0x14c>
80001ffc:	004cf693          	andi	a3,s9,4
80002000:	06069863          	bnez	a3,80002070 <_ftoa+0x4fc>
80002004:	008cf693          	andi	a3,s9,8
80002008:	ee0688e3          	beqz	a3,80001ef8 <_ftoa+0x384>
8000200c:	05010793          	addi	a5,sp,80
80002010:	01b786b3          	add	a3,a5,s11
80002014:	fee68023          	sb	a4,-32(a3)
80002018:	001d8d93          	addi	s11,s11,1
8000201c:	eddff06f          	j	80001ef8 <_ftoa+0x384>
80002020:	0c6d8c63          	beq	s11,t1,800020f8 <_ftoa+0x584>
80002024:	000d8613          	mv	a2,s11
80002028:	03000893          	li	a7,48
8000202c:	02000513          	li	a0,32
80002030:	02058463          	beqz	a1,80002058 <_ftoa+0x4e4>
80002034:	00160613          	addi	a2,a2,1
80002038:	03010793          	addi	a5,sp,48
8000203c:	fff64693          	not	a3,a2
80002040:	00c785b3          	add	a1,a5,a2
80002044:	01b686b3          	add	a3,a3,s11
80002048:	ff158fa3          	sb	a7,-1(a1)
8000204c:	017686b3          	add	a3,a3,s7
80002050:	04a60463          	beq	a2,a0,80002098 <_ftoa+0x524>
80002054:	fe0690e3          	bnez	a3,80002034 <_ftoa+0x4c0>
80002058:	05010793          	addi	a5,sp,80
8000205c:	00c78733          	add	a4,a5,a2
80002060:	02e00693          	li	a3,46
80002064:	00160d93          	addi	s11,a2,1
80002068:	fed70023          	sb	a3,-32(a4)
8000206c:	f05ff06f          	j	80001f70 <_ftoa+0x3fc>
80002070:	05010793          	addi	a5,sp,80
80002074:	01b78733          	add	a4,a5,s11
80002078:	02b00693          	li	a3,43
8000207c:	fed70023          	sb	a3,-32(a4)
80002080:	001d8d93          	addi	s11,s11,1
80002084:	e75ff06f          	j	80001ef8 <_ftoa+0x384>
80002088:	001b7693          	andi	a3,s6,1
8000208c:	d0068ee3          	beqz	a3,80001da8 <_ftoa+0x234>
80002090:	001b0b13          	addi	s6,s6,1
80002094:	d15ff06f          	j	80001da8 <_ftoa+0x234>
80002098:	003cf693          	andi	a3,s9,3
8000209c:	00100713          	li	a4,1
800020a0:	02000d93          	li	s11,32
800020a4:	e4e69ae3          	bne	a3,a4,80001ef8 <_ftoa+0x384>
800020a8:	e40908e3          	beqz	s2,80001ef8 <_ftoa+0x384>
800020ac:	02812783          	lw	a5,40(sp)
800020b0:	04079063          	bnez	a5,800020f0 <_ftoa+0x57c>
800020b4:	00ccf713          	andi	a4,s9,12
800020b8:	02071c63          	bnez	a4,800020f0 <_ftoa+0x57c>
800020bc:	ef2df6e3          	bgeu	s11,s2,80001fa8 <_ftoa+0x434>
800020c0:	02000713          	li	a4,32
800020c4:	03000613          	li	a2,48
800020c8:	02000693          	li	a3,32
800020cc:	00ed8e63          	beq	s11,a4,800020e8 <_ftoa+0x574>
800020d0:	001d8d93          	addi	s11,s11,1
800020d4:	03010793          	addi	a5,sp,48
800020d8:	01b78733          	add	a4,a5,s11
800020dc:	fec70fa3          	sb	a2,-1(a4)
800020e0:	ed2d84e3          	beq	s11,s2,80001fa8 <_ftoa+0x434>
800020e4:	fedd96e3          	bne	s11,a3,800020d0 <_ftoa+0x55c>
800020e8:	02000d93          	li	s11,32
800020ec:	e0dff06f          	j	80001ef8 <_ftoa+0x384>
800020f0:	fff90913          	addi	s2,s2,-1
800020f4:	fc9ff06f          	j	800020bc <_ftoa+0x548>
800020f8:	003cf693          	andi	a3,s9,3
800020fc:	00100713          	li	a4,1
80002100:	dee69ce3          	bne	a3,a4,80001ef8 <_ftoa+0x384>
80002104:	ea0902e3          	beqz	s2,80001fa8 <_ftoa+0x434>
80002108:	fa5ff06f          	j	800020ac <_ftoa+0x538>

8000210c <_vsnprintf>:
8000210c:	f7010113          	addi	sp,sp,-144
80002110:	08912223          	sw	s1,132(sp)
80002114:	09212023          	sw	s2,128(sp)
80002118:	07312e23          	sw	s3,124(sp)
8000211c:	07412c23          	sw	s4,120(sp)
80002120:	07612823          	sw	s6,112(sp)
80002124:	08112623          	sw	ra,140(sp)
80002128:	08812423          	sw	s0,136(sp)
8000212c:	07512a23          	sw	s5,116(sp)
80002130:	07712623          	sw	s7,108(sp)
80002134:	07812423          	sw	s8,104(sp)
80002138:	07912223          	sw	s9,100(sp)
8000213c:	07a12023          	sw	s10,96(sp)
80002140:	05b12e23          	sw	s11,92(sp)
80002144:	00058913          	mv	s2,a1
80002148:	00060493          	mv	s1,a2
8000214c:	00068b13          	mv	s6,a3
80002150:	00070a13          	mv	s4,a4
80002154:	fffff997          	auipc	s3,0xfffff
80002158:	fcc98993          	addi	s3,s3,-52 # 80001120 <_out_null>
8000215c:	00058463          	beqz	a1,80002164 <_vsnprintf+0x58>
80002160:	00050993          	mv	s3,a0
80002164:	000b4503          	lbu	a0,0(s6)
80002168:	00000b93          	li	s7,0
8000216c:	76050e63          	beqz	a0,800028e8 <_vsnprintf+0x7dc>
80002170:	000017b7          	lui	a5,0x1
80002174:	80078793          	addi	a5,a5,-2048 # 800 <__stack_size+0x400>
80002178:	00f12c23          	sw	a5,24(sp)
8000217c:	000107b7          	lui	a5,0x10
80002180:	fff78793          	addi	a5,a5,-1 # ffff <__stack_size+0xfbff>
80002184:	00004417          	auipc	s0,0x4
80002188:	74840413          	addi	s0,s0,1864 # 800068cc <__call_exitprocs+0x240>
8000218c:	00f12e23          	sw	a5,28(sp)
80002190:	0200006f          	j	800021b0 <_vsnprintf+0xa4>
80002194:	000b8613          	mv	a2,s7
80002198:	00048693          	mv	a3,s1
8000219c:	00090593          	mv	a1,s2
800021a0:	001b8b93          	addi	s7,s7,1
800021a4:	000980e7          	jalr	s3
800021a8:	000b4503          	lbu	a0,0(s6)
800021ac:	1a050463          	beqz	a0,80002354 <_vsnprintf+0x248>
800021b0:	02500793          	li	a5,37
800021b4:	001b0b13          	addi	s6,s6,1
800021b8:	fcf51ee3          	bne	a0,a5,80002194 <_vsnprintf+0x88>
800021bc:	00000693          	li	a3,0
800021c0:	01000593          	li	a1,16
800021c4:	000b4503          	lbu	a0,0(s6)
800021c8:	001b0713          	addi	a4,s6,1
800021cc:	00070613          	mv	a2,a4
800021d0:	fe050793          	addi	a5,a0,-32
800021d4:	0ff7f793          	andi	a5,a5,255
800021d8:	00f5ec63          	bltu	a1,a5,800021f0 <_vsnprintf+0xe4>
800021dc:	00279793          	slli	a5,a5,0x2
800021e0:	008787b3          	add	a5,a5,s0
800021e4:	0007a783          	lw	a5,0(a5)
800021e8:	008787b3          	add	a5,a5,s0
800021ec:	00078067          	jr	a5
800021f0:	fd050793          	addi	a5,a0,-48
800021f4:	0ff7f793          	andi	a5,a5,255
800021f8:	00900593          	li	a1,9
800021fc:	0cf5fe63          	bgeu	a1,a5,800022d8 <_vsnprintf+0x1cc>
80002200:	02a00793          	li	a5,42
80002204:	1ef50463          	beq	a0,a5,800023ec <_vsnprintf+0x2e0>
80002208:	000b0613          	mv	a2,s6
8000220c:	00000a93          	li	s5,0
80002210:	00070b13          	mv	s6,a4
80002214:	02e00793          	li	a5,46
80002218:	00000d93          	li	s11,0
8000221c:	10f50663          	beq	a0,a5,80002328 <_vsnprintf+0x21c>
80002220:	f9850793          	addi	a5,a0,-104
80002224:	0ff7f793          	andi	a5,a5,255
80002228:	01200713          	li	a4,18
8000222c:	06f76863          	bltu	a4,a5,8000229c <_vsnprintf+0x190>
80002230:	00004717          	auipc	a4,0x4
80002234:	6e070713          	addi	a4,a4,1760 # 80006910 <__call_exitprocs+0x284>
80002238:	00279793          	slli	a5,a5,0x2
8000223c:	00e787b3          	add	a5,a5,a4
80002240:	0007a783          	lw	a5,0(a5)
80002244:	00e787b3          	add	a5,a5,a4
80002248:	00078067          	jr	a5
8000224c:	0016e693          	ori	a3,a3,1
80002250:	00070b13          	mv	s6,a4
80002254:	f71ff06f          	j	800021c4 <_vsnprintf+0xb8>
80002258:	0026e693          	ori	a3,a3,2
8000225c:	00070b13          	mv	s6,a4
80002260:	f65ff06f          	j	800021c4 <_vsnprintf+0xb8>
80002264:	0046e693          	ori	a3,a3,4
80002268:	00070b13          	mv	s6,a4
8000226c:	f59ff06f          	j	800021c4 <_vsnprintf+0xb8>
80002270:	0106e693          	ori	a3,a3,16
80002274:	00070b13          	mv	s6,a4
80002278:	f4dff06f          	j	800021c4 <_vsnprintf+0xb8>
8000227c:	0086e693          	ori	a3,a3,8
80002280:	00070b13          	mv	s6,a4
80002284:	f41ff06f          	j	800021c4 <_vsnprintf+0xb8>
80002288:	00164503          	lbu	a0,1(a2)
8000228c:	06800793          	li	a5,104
80002290:	64f50463          	beq	a0,a5,800028d8 <_vsnprintf+0x7cc>
80002294:	0806e693          	ori	a3,a3,128
80002298:	001b0b13          	addi	s6,s6,1
8000229c:	fdb50793          	addi	a5,a0,-37
800022a0:	0ff7f793          	andi	a5,a5,255
800022a4:	05300713          	li	a4,83
800022a8:	eef766e3          	bltu	a4,a5,80002194 <_vsnprintf+0x88>
800022ac:	00004717          	auipc	a4,0x4
800022b0:	6b070713          	addi	a4,a4,1712 # 8000695c <__call_exitprocs+0x2d0>
800022b4:	00279793          	slli	a5,a5,0x2
800022b8:	00e787b3          	add	a5,a5,a4
800022bc:	0007a783          	lw	a5,0(a5)
800022c0:	00e787b3          	add	a5,a5,a4
800022c4:	00078067          	jr	a5
800022c8:	00164503          	lbu	a0,1(a2)
800022cc:	1006e693          	ori	a3,a3,256
800022d0:	001b0b13          	addi	s6,s6,1
800022d4:	fc9ff06f          	j	8000229c <_vsnprintf+0x190>
800022d8:	00000a93          	li	s5,0
800022dc:	00900613          	li	a2,9
800022e0:	0080006f          	j	800022e8 <_vsnprintf+0x1dc>
800022e4:	00170713          	addi	a4,a4,1
800022e8:	002a9793          	slli	a5,s5,0x2
800022ec:	015788b3          	add	a7,a5,s5
800022f0:	00189893          	slli	a7,a7,0x1
800022f4:	00a888b3          	add	a7,a7,a0
800022f8:	00074503          	lbu	a0,0(a4)
800022fc:	000b0593          	mv	a1,s6
80002300:	fd088a93          	addi	s5,a7,-48
80002304:	fd050793          	addi	a5,a0,-48
80002308:	0ff7f793          	andi	a5,a5,255
8000230c:	00070b13          	mv	s6,a4
80002310:	fcf67ae3          	bgeu	a2,a5,800022e4 <_vsnprintf+0x1d8>
80002314:	02e00793          	li	a5,46
80002318:	00070613          	mv	a2,a4
8000231c:	00258b13          	addi	s6,a1,2
80002320:	00000d93          	li	s11,0
80002324:	eef51ee3          	bne	a0,a5,80002220 <_vsnprintf+0x114>
80002328:	00164503          	lbu	a0,1(a2)
8000232c:	00900713          	li	a4,9
80002330:	4006e693          	ori	a3,a3,1024
80002334:	fd050793          	addi	a5,a0,-48
80002338:	0ff7f793          	andi	a5,a5,255
8000233c:	06f77c63          	bgeu	a4,a5,800023b4 <_vsnprintf+0x2a8>
80002340:	02a00793          	li	a5,42
80002344:	3af50463          	beq	a0,a5,800026ec <_vsnprintf+0x5e0>
80002348:	000b0613          	mv	a2,s6
8000234c:	001b0b13          	addi	s6,s6,1
80002350:	ed1ff06f          	j	80002220 <_vsnprintf+0x114>
80002354:	000b8413          	mv	s0,s7
80002358:	009be463          	bltu	s7,s1,80002360 <_vsnprintf+0x254>
8000235c:	fff48b93          	addi	s7,s1,-1
80002360:	00048693          	mv	a3,s1
80002364:	000b8613          	mv	a2,s7
80002368:	00090593          	mv	a1,s2
8000236c:	00000513          	li	a0,0
80002370:	000980e7          	jalr	s3
80002374:	08c12083          	lw	ra,140(sp)
80002378:	00040513          	mv	a0,s0
8000237c:	08812403          	lw	s0,136(sp)
80002380:	08412483          	lw	s1,132(sp)
80002384:	08012903          	lw	s2,128(sp)
80002388:	07c12983          	lw	s3,124(sp)
8000238c:	07812a03          	lw	s4,120(sp)
80002390:	07412a83          	lw	s5,116(sp)
80002394:	07012b03          	lw	s6,112(sp)
80002398:	06c12b83          	lw	s7,108(sp)
8000239c:	06812c03          	lw	s8,104(sp)
800023a0:	06412c83          	lw	s9,100(sp)
800023a4:	06012d03          	lw	s10,96(sp)
800023a8:	05c12d83          	lw	s11,92(sp)
800023ac:	09010113          	addi	sp,sp,144
800023b0:	00008067          	ret
800023b4:	002d9c93          	slli	s9,s11,0x2
800023b8:	01bc8cb3          	add	s9,s9,s11
800023bc:	000b0593          	mv	a1,s6
800023c0:	001c9c93          	slli	s9,s9,0x1
800023c4:	001b0b13          	addi	s6,s6,1
800023c8:	00ac8cb3          	add	s9,s9,a0
800023cc:	000b4503          	lbu	a0,0(s6)
800023d0:	fd0c8d93          	addi	s11,s9,-48
800023d4:	fd050793          	addi	a5,a0,-48
800023d8:	0ff7f793          	andi	a5,a5,255
800023dc:	fcf77ce3          	bgeu	a4,a5,800023b4 <_vsnprintf+0x2a8>
800023e0:	000b0613          	mv	a2,s6
800023e4:	00258b13          	addi	s6,a1,2
800023e8:	e39ff06f          	j	80002220 <_vsnprintf+0x114>
800023ec:	000a2a83          	lw	s5,0(s4)
800023f0:	004a0a13          	addi	s4,s4,4
800023f4:	000ac863          	bltz	s5,80002404 <_vsnprintf+0x2f8>
800023f8:	001b4503          	lbu	a0,1(s6)
800023fc:	002b0b13          	addi	s6,s6,2
80002400:	e15ff06f          	j	80002214 <_vsnprintf+0x108>
80002404:	001b4503          	lbu	a0,1(s6)
80002408:	0026e693          	ori	a3,a3,2
8000240c:	41500ab3          	neg	s5,s5
80002410:	002b0b13          	addi	s6,s6,2
80002414:	e01ff06f          	j	80002214 <_vsnprintf+0x108>
80002418:	07800793          	li	a5,120
8000241c:	68f50663          	beq	a0,a5,80002aa8 <_vsnprintf+0x99c>
80002420:	05800793          	li	a5,88
80002424:	4cf50663          	beq	a0,a5,800028f0 <_vsnprintf+0x7e4>
80002428:	06f00793          	li	a5,111
8000242c:	70f50063          	beq	a0,a5,80002b2c <_vsnprintf+0xa20>
80002430:	06200793          	li	a5,98
80002434:	34f50c63          	beq	a0,a5,8000278c <_vsnprintf+0x680>
80002438:	06900713          	li	a4,105
8000243c:	fef6fc13          	andi	s8,a3,-17
80002440:	4006f793          	andi	a5,a3,1024
80002444:	00a00d13          	li	s10,10
80002448:	34e51663          	bne	a0,a4,80002794 <_vsnprintf+0x688>
8000244c:	2006f693          	andi	a3,a3,512
80002450:	34078c63          	beqz	a5,800027a8 <_vsnprintf+0x69c>
80002454:	ffec7c13          	andi	s8,s8,-2
80002458:	06900793          	li	a5,105
8000245c:	200c7693          	andi	a3,s8,512
80002460:	34f50463          	beq	a0,a5,800027a8 <_vsnprintf+0x69c>
80002464:	06400793          	li	a5,100
80002468:	34f50063          	beq	a0,a5,800027a8 <_vsnprintf+0x69c>
8000246c:	6c069663          	bnez	a3,80002b38 <_vsnprintf+0xa2c>
80002470:	100c7793          	andi	a5,s8,256
80002474:	004a0c93          	addi	s9,s4,4
80002478:	0c0796e3          	bnez	a5,80002d44 <_vsnprintf+0xc38>
8000247c:	040c7693          	andi	a3,s8,64
80002480:	64069863          	bnez	a3,80002ad0 <_vsnprintf+0x9c4>
80002484:	080c7693          	andi	a3,s8,128
80002488:	000a2603          	lw	a2,0(s4)
8000248c:	00068663          	beqz	a3,80002498 <_vsnprintf+0x38c>
80002490:	01c12703          	lw	a4,28(sp)
80002494:	00e67633          	and	a2,a2,a4
80002498:	7a061463          	bnez	a2,80002c40 <_vsnprintf+0xb34>
8000249c:	400c7693          	andi	a3,s8,1024
800024a0:	fefc7c13          	andi	s8,s8,-17
800024a4:	78068e63          	beqz	a3,80002c40 <_vsnprintf+0xb34>
800024a8:	00000793          	li	a5,0
800024ac:	000b8613          	mv	a2,s7
800024b0:	01812423          	sw	s8,8(sp)
800024b4:	01512223          	sw	s5,4(sp)
800024b8:	01b12023          	sw	s11,0(sp)
800024bc:	000d0893          	mv	a7,s10
800024c0:	00000813          	li	a6,0
800024c4:	03010713          	addi	a4,sp,48
800024c8:	00048693          	mv	a3,s1
800024cc:	00090593          	mv	a1,s2
800024d0:	00098513          	mv	a0,s3
800024d4:	d95fe0ef          	jal	ra,80001268 <_ntoa_format>
800024d8:	00050b93          	mv	s7,a0
800024dc:	000c8a13          	mv	s4,s9
800024e0:	cc9ff06f          	j	800021a8 <_vsnprintf+0x9c>
800024e4:	00164503          	lbu	a0,1(a2)
800024e8:	06c00793          	li	a5,108
800024ec:	def510e3          	bne	a0,a5,800022cc <_vsnprintf+0x1c0>
800024f0:	00264503          	lbu	a0,2(a2)
800024f4:	3006e693          	ori	a3,a3,768
800024f8:	00360b13          	addi	s6,a2,3
800024fc:	da1ff06f          	j	8000229c <_vsnprintf+0x190>
80002500:	00164503          	lbu	a0,1(a2)
80002504:	2006e693          	ori	a3,a3,512
80002508:	001b0b13          	addi	s6,s6,1
8000250c:	d91ff06f          	j	8000229c <_vsnprintf+0x190>
80002510:	04600793          	li	a5,70
80002514:	26f50863          	beq	a0,a5,80002784 <_vsnprintf+0x678>
80002518:	007a0a13          	addi	s4,s4,7
8000251c:	ff8a7a13          	andi	s4,s4,-8
80002520:	000a2703          	lw	a4,0(s4)
80002524:	004a2783          	lw	a5,4(s4)
80002528:	000b8613          	mv	a2,s7
8000252c:	00d12023          	sw	a3,0(sp)
80002530:	000a8893          	mv	a7,s5
80002534:	000d8813          	mv	a6,s11
80002538:	00048693          	mv	a3,s1
8000253c:	00090593          	mv	a1,s2
80002540:	00098513          	mv	a0,s3
80002544:	e30ff0ef          	jal	ra,80001b74 <_ftoa>
80002548:	008a0a13          	addi	s4,s4,8
8000254c:	00050b93          	mv	s7,a0
80002550:	c59ff06f          	j	800021a8 <_vsnprintf+0x9c>
80002554:	000a2d03          	lw	s10,0(s4)
80002558:	004a0793          	addi	a5,s4,4
8000255c:	02f12023          	sw	a5,32(sp)
80002560:	000d4503          	lbu	a0,0(s10)
80002564:	1c0d9263          	bnez	s11,80002728 <_vsnprintf+0x61c>
80002568:	ffe00793          	li	a5,-2
8000256c:	080506e3          	beqz	a0,80002df8 <_vsnprintf+0xcec>
80002570:	00178a13          	addi	s4,a5,1
80002574:	014d0633          	add	a2,s10,s4
80002578:	000d0793          	mv	a5,s10
8000257c:	0080006f          	j	80002584 <_vsnprintf+0x478>
80002580:	00c78a63          	beq	a5,a2,80002594 <_vsnprintf+0x488>
80002584:	0017c703          	lbu	a4,1(a5)
80002588:	00178793          	addi	a5,a5,1
8000258c:	fe071ae3          	bnez	a4,80002580 <_vsnprintf+0x474>
80002590:	41a78a33          	sub	s4,a5,s10
80002594:	4006fc93          	andi	s9,a3,1024
80002598:	000c8663          	beqz	s9,800025a4 <_vsnprintf+0x498>
8000259c:	014df463          	bgeu	s11,s4,800025a4 <_vsnprintf+0x498>
800025a0:	000d8a13          	mv	s4,s11
800025a4:	0026fc13          	andi	s8,a3,2
800025a8:	360c0863          	beqz	s8,80002918 <_vsnprintf+0x80c>
800025ac:	2c050e63          	beqz	a0,80002888 <_vsnprintf+0x77c>
800025b0:	2a0c8463          	beqz	s9,80002858 <_vsnprintf+0x74c>
800025b4:	017d8db3          	add	s11,s11,s7
800025b8:	000b8613          	mv	a2,s7
800025bc:	34cd8863          	beq	s11,a2,8000290c <_vsnprintf+0x800>
800025c0:	00048693          	mv	a3,s1
800025c4:	00090593          	mv	a1,s2
800025c8:	00160c93          	addi	s9,a2,1
800025cc:	000980e7          	jalr	s3
800025d0:	417c87b3          	sub	a5,s9,s7
800025d4:	00fd07b3          	add	a5,s10,a5
800025d8:	0007c503          	lbu	a0,0(a5)
800025dc:	2a050263          	beqz	a0,80002880 <_vsnprintf+0x774>
800025e0:	000c8613          	mv	a2,s9
800025e4:	fd9ff06f          	j	800025bc <_vsnprintf+0x4b0>
800025e8:	000b8613          	mv	a2,s7
800025ec:	00048693          	mv	a3,s1
800025f0:	00090593          	mv	a1,s2
800025f4:	02500513          	li	a0,37
800025f8:	001b8b93          	addi	s7,s7,1
800025fc:	000980e7          	jalr	s3
80002600:	ba9ff06f          	j	800021a8 <_vsnprintf+0x9c>
80002604:	000a2703          	lw	a4,0(s4)
80002608:	0216ef13          	ori	t5,a3,33
8000260c:	004a0a13          	addi	s4,s4,4
80002610:	10070063          	beqz	a4,80002710 <_vsnprintf+0x604>
80002614:	00000793          	li	a5,0
80002618:	00900893          	li	a7,9
8000261c:	00f00513          	li	a0,15
80002620:	02000e93          	li	t4,32
80002624:	00c0006f          	j	80002630 <_vsnprintf+0x524>
80002628:	03d78863          	beq	a5,t4,80002658 <_vsnprintf+0x54c>
8000262c:	00068713          	mv	a4,a3
80002630:	00f77593          	andi	a1,a4,15
80002634:	03758613          	addi	a2,a1,55
80002638:	00b8e463          	bltu	a7,a1,80002640 <_vsnprintf+0x534>
8000263c:	03058613          	addi	a2,a1,48
80002640:	00178793          	addi	a5,a5,1
80002644:	03010693          	addi	a3,sp,48
80002648:	00f686b3          	add	a3,a3,a5
8000264c:	fec68fa3          	sb	a2,-1(a3)
80002650:	00475693          	srli	a3,a4,0x4
80002654:	fce56ae3          	bltu	a0,a4,80002628 <_vsnprintf+0x51c>
80002658:	00800713          	li	a4,8
8000265c:	000b8613          	mv	a2,s7
80002660:	01e12423          	sw	t5,8(sp)
80002664:	00e12223          	sw	a4,4(sp)
80002668:	01b12023          	sw	s11,0(sp)
8000266c:	01000893          	li	a7,16
80002670:	00000813          	li	a6,0
80002674:	03010713          	addi	a4,sp,48
80002678:	00048693          	mv	a3,s1
8000267c:	00090593          	mv	a1,s2
80002680:	00098513          	mv	a0,s3
80002684:	be5fe0ef          	jal	ra,80001268 <_ntoa_format>
80002688:	00050b93          	mv	s7,a0
8000268c:	b1dff06f          	j	800021a8 <_vsnprintf+0x9c>
80002690:	001b8d93          	addi	s11,s7,1
80002694:	0026f693          	andi	a3,a3,2
80002698:	004a0c93          	addi	s9,s4,4
8000269c:	000d8d13          	mv	s10,s11
800026a0:	2a068c63          	beqz	a3,80002958 <_vsnprintf+0x84c>
800026a4:	000a4503          	lbu	a0,0(s4)
800026a8:	000b8613          	mv	a2,s7
800026ac:	00048693          	mv	a3,s1
800026b0:	00090593          	mv	a1,s2
800026b4:	000980e7          	jalr	s3
800026b8:	00100793          	li	a5,1
800026bc:	017a8bb3          	add	s7,s5,s7
800026c0:	4557f463          	bgeu	a5,s5,80002b08 <_vsnprintf+0x9fc>
800026c4:	000d0613          	mv	a2,s10
800026c8:	00048693          	mv	a3,s1
800026cc:	001d0d13          	addi	s10,s10,1
800026d0:	00090593          	mv	a1,s2
800026d4:	02000513          	li	a0,32
800026d8:	000980e7          	jalr	s3
800026dc:	ff7d14e3          	bne	s10,s7,800026c4 <_vsnprintf+0x5b8>
800026e0:	000d0b93          	mv	s7,s10
800026e4:	000c8a13          	mv	s4,s9
800026e8:	ac1ff06f          	j	800021a8 <_vsnprintf+0x9c>
800026ec:	000a2d83          	lw	s11,0(s4)
800026f0:	00264503          	lbu	a0,2(a2)
800026f4:	00360b13          	addi	s6,a2,3
800026f8:	fffdc793          	not	a5,s11
800026fc:	41f7d793          	srai	a5,a5,0x1f
80002700:	00fdfdb3          	and	s11,s11,a5
80002704:	004a0a13          	addi	s4,s4,4
80002708:	00260613          	addi	a2,a2,2
8000270c:	b15ff06f          	j	80002220 <_vsnprintf+0x114>
80002710:	fef6ff13          	andi	t5,a3,-17
80002714:	4006f693          	andi	a3,a3,1024
80002718:	021f6f13          	ori	t5,t5,33
8000271c:	00000793          	li	a5,0
80002720:	ee068ae3          	beqz	a3,80002614 <_vsnprintf+0x508>
80002724:	f35ff06f          	j	80002658 <_vsnprintf+0x54c>
80002728:	6c050863          	beqz	a0,80002df8 <_vsnprintf+0xcec>
8000272c:	fffd8793          	addi	a5,s11,-1
80002730:	e41ff06f          	j	80002570 <_vsnprintf+0x464>
80002734:	0df57793          	andi	a5,a0,223
80002738:	04700713          	li	a4,71
8000273c:	18e78063          	beq	a5,a4,800028bc <_vsnprintf+0x7b0>
80002740:	04500793          	li	a5,69
80002744:	18f50663          	beq	a0,a5,800028d0 <_vsnprintf+0x7c4>
80002748:	007a0a13          	addi	s4,s4,7
8000274c:	ff8a7a13          	andi	s4,s4,-8
80002750:	000a2703          	lw	a4,0(s4)
80002754:	004a2783          	lw	a5,4(s4)
80002758:	000b8613          	mv	a2,s7
8000275c:	00d12023          	sw	a3,0(sp)
80002760:	000a8893          	mv	a7,s5
80002764:	000d8813          	mv	a6,s11
80002768:	00048693          	mv	a3,s1
8000276c:	00090593          	mv	a1,s2
80002770:	00098513          	mv	a0,s3
80002774:	d85fe0ef          	jal	ra,800014f8 <_etoa>
80002778:	008a0a13          	addi	s4,s4,8
8000277c:	00050b93          	mv	s7,a0
80002780:	a29ff06f          	j	800021a8 <_vsnprintf+0x9c>
80002784:	0206e693          	ori	a3,a3,32
80002788:	d91ff06f          	j	80002518 <_vsnprintf+0x40c>
8000278c:	00200d13          	li	s10,2
80002790:	00068c13          	mv	s8,a3
80002794:	06400693          	li	a3,100
80002798:	400c7793          	andi	a5,s8,1024
8000279c:	66d51e63          	bne	a0,a3,80002e18 <_vsnprintf+0xd0c>
800027a0:	200c7693          	andi	a3,s8,512
800027a4:	ca0798e3          	bnez	a5,80002454 <_vsnprintf+0x348>
800027a8:	20069263          	bnez	a3,800029ac <_vsnprintf+0x8a0>
800027ac:	100c7793          	andi	a5,s8,256
800027b0:	004a0c93          	addi	s9,s4,4
800027b4:	4e079663          	bnez	a5,80002ca0 <_vsnprintf+0xb94>
800027b8:	040c7693          	andi	a3,s8,64
800027bc:	30069463          	bnez	a3,80002ac4 <_vsnprintf+0x9b8>
800027c0:	080c7693          	andi	a3,s8,128
800027c4:	62068063          	beqz	a3,80002de4 <_vsnprintf+0xcd8>
800027c8:	000a1683          	lh	a3,0(s4)
800027cc:	40f6d593          	srai	a1,a3,0xf
800027d0:	00b6c633          	xor	a2,a3,a1
800027d4:	40b60633          	sub	a2,a2,a1
800027d8:	01061613          	slli	a2,a2,0x10
800027dc:	01065613          	srli	a2,a2,0x10
800027e0:	01f6d813          	srli	a6,a3,0x1f
800027e4:	00069a63          	bnez	a3,800027f8 <_vsnprintf+0x6ec>
800027e8:	fefc7693          	andi	a3,s8,-17
800027ec:	400c7593          	andi	a1,s8,1024
800027f0:	00068c13          	mv	s8,a3
800027f4:	32059063          	bnez	a1,80002b14 <_vsnprintf+0xa08>
800027f8:	020c7593          	andi	a1,s8,32
800027fc:	06100693          	li	a3,97
80002800:	00058463          	beqz	a1,80002808 <_vsnprintf+0x6fc>
80002804:	04100693          	li	a3,65
80002808:	00900513          	li	a0,9
8000280c:	ff668f93          	addi	t6,a3,-10
80002810:	02000e93          	li	t4,32
80002814:	02c0006f          	j	80002840 <_vsnprintf+0x734>
80002818:	03068693          	addi	a3,a3,48
8000281c:	0ff6f693          	andi	a3,a3,255
80002820:	00178793          	addi	a5,a5,1
80002824:	03010713          	addi	a4,sp,48
80002828:	00f705b3          	add	a1,a4,a5
8000282c:	fed58fa3          	sb	a3,-1(a1)
80002830:	03a656b3          	divu	a3,a2,s10
80002834:	2fa66063          	bltu	a2,s10,80002b14 <_vsnprintf+0xa08>
80002838:	2dd78e63          	beq	a5,t4,80002b14 <_vsnprintf+0xa08>
8000283c:	00068613          	mv	a2,a3
80002840:	03a675b3          	remu	a1,a2,s10
80002844:	0ff5f693          	andi	a3,a1,255
80002848:	fcb578e3          	bgeu	a0,a1,80002818 <_vsnprintf+0x70c>
8000284c:	01f686b3          	add	a3,a3,t6
80002850:	0ff6f693          	andi	a3,a3,255
80002854:	fcdff06f          	j	80002820 <_vsnprintf+0x714>
80002858:	000b8c93          	mv	s9,s7
8000285c:	000c8613          	mv	a2,s9
80002860:	00048693          	mv	a3,s1
80002864:	00090593          	mv	a1,s2
80002868:	000980e7          	jalr	s3
8000286c:	001c8c93          	addi	s9,s9,1
80002870:	417c87b3          	sub	a5,s9,s7
80002874:	00fd07b3          	add	a5,s10,a5
80002878:	0007c503          	lbu	a0,0(a5)
8000287c:	fe0510e3          	bnez	a0,8000285c <_vsnprintf+0x750>
80002880:	000c8b93          	mv	s7,s9
80002884:	020c0863          	beqz	s8,800028b4 <_vsnprintf+0x7a8>
80002888:	000b8c13          	mv	s8,s7
8000288c:	035a7463          	bgeu	s4,s5,800028b4 <_vsnprintf+0x7a8>
80002890:	017a8533          	add	a0,s5,s7
80002894:	41450bb3          	sub	s7,a0,s4
80002898:	000c0613          	mv	a2,s8
8000289c:	00048693          	mv	a3,s1
800028a0:	001c0c13          	addi	s8,s8,1
800028a4:	00090593          	mv	a1,s2
800028a8:	02000513          	li	a0,32
800028ac:	000980e7          	jalr	s3
800028b0:	ff7c14e3          	bne	s8,s7,80002898 <_vsnprintf+0x78c>
800028b4:	02012a03          	lw	s4,32(sp)
800028b8:	8f1ff06f          	j	800021a8 <_vsnprintf+0x9c>
800028bc:	01812703          	lw	a4,24(sp)
800028c0:	0fd57513          	andi	a0,a0,253
800028c4:	04500793          	li	a5,69
800028c8:	00e6e6b3          	or	a3,a3,a4
800028cc:	e6f51ee3          	bne	a0,a5,80002748 <_vsnprintf+0x63c>
800028d0:	0206e693          	ori	a3,a3,32
800028d4:	e75ff06f          	j	80002748 <_vsnprintf+0x63c>
800028d8:	00264503          	lbu	a0,2(a2)
800028dc:	0c06e693          	ori	a3,a3,192
800028e0:	00360b13          	addi	s6,a2,3
800028e4:	9b9ff06f          	j	8000229c <_vsnprintf+0x190>
800028e8:	00000413          	li	s0,0
800028ec:	a6dff06f          	j	80002358 <_vsnprintf+0x24c>
800028f0:	ff36fc13          	andi	s8,a3,-13
800028f4:	4006f793          	andi	a5,a3,1024
800028f8:	020c6c13          	ori	s8,s8,32
800028fc:	1c079063          	bnez	a5,80002abc <_vsnprintf+0x9b0>
80002900:	2006f693          	andi	a3,a3,512
80002904:	01000d13          	li	s10,16
80002908:	b65ff06f          	j	8000246c <_vsnprintf+0x360>
8000290c:	000d8b93          	mv	s7,s11
80002910:	fa0c02e3          	beqz	s8,800028b4 <_vsnprintf+0x7a8>
80002914:	f75ff06f          	j	80002888 <_vsnprintf+0x77c>
80002918:	001a0793          	addi	a5,s4,1
8000291c:	4f5a7863          	bgeu	s4,s5,80002e0c <_vsnprintf+0xd00>
80002920:	017a87b3          	add	a5,s5,s7
80002924:	41478a33          	sub	s4,a5,s4
80002928:	000b8613          	mv	a2,s7
8000292c:	00048693          	mv	a3,s1
80002930:	001b8b93          	addi	s7,s7,1
80002934:	00090593          	mv	a1,s2
80002938:	02000513          	li	a0,32
8000293c:	000980e7          	jalr	s3
80002940:	ff4b94e3          	bne	s7,s4,80002928 <_vsnprintf+0x81c>
80002944:	000d4503          	lbu	a0,0(s10)
80002948:	001a8a13          	addi	s4,s5,1
8000294c:	c60512e3          	bnez	a0,800025b0 <_vsnprintf+0x4a4>
80002950:	02012a03          	lw	s4,32(sp)
80002954:	855ff06f          	j	800021a8 <_vsnprintf+0x9c>
80002958:	00100793          	li	a5,1
8000295c:	4b57f263          	bgeu	a5,s5,80002e00 <_vsnprintf+0xcf4>
80002960:	fffb8c13          	addi	s8,s7,-1
80002964:	015c0c33          	add	s8,s8,s5
80002968:	0080006f          	j	80002970 <_vsnprintf+0x864>
8000296c:	001d8d93          	addi	s11,s11,1
80002970:	000b8613          	mv	a2,s7
80002974:	00048693          	mv	a3,s1
80002978:	00090593          	mv	a1,s2
8000297c:	02000513          	li	a0,32
80002980:	000d8b93          	mv	s7,s11
80002984:	000980e7          	jalr	s3
80002988:	ff8d92e3          	bne	s11,s8,8000296c <_vsnprintf+0x860>
8000298c:	001d8b93          	addi	s7,s11,1
80002990:	000a4503          	lbu	a0,0(s4)
80002994:	00048693          	mv	a3,s1
80002998:	000c0613          	mv	a2,s8
8000299c:	00090593          	mv	a1,s2
800029a0:	000980e7          	jalr	s3
800029a4:	000c8a13          	mv	s4,s9
800029a8:	801ff06f          	j	800021a8 <_vsnprintf+0x9c>
800029ac:	007a0a13          	addi	s4,s4,7
800029b0:	ff8a7a13          	andi	s4,s4,-8
800029b4:	004a2603          	lw	a2,4(s4)
800029b8:	000a2683          	lw	a3,0(s4)
800029bc:	008a0a13          	addi	s4,s4,8
800029c0:	41f65793          	srai	a5,a2,0x1f
800029c4:	00d7cfb3          	xor	t6,a5,a3
800029c8:	00c7cf33          	xor	t5,a5,a2
800029cc:	40ff85b3          	sub	a1,t6,a5
800029d0:	40ff0f33          	sub	t5,t5,a5
800029d4:	01f65793          	srli	a5,a2,0x1f
800029d8:	00bfb533          	sltu	a0,t6,a1
800029dc:	00c6e6b3          	or	a3,a3,a2
800029e0:	02f12623          	sw	a5,44(sp)
800029e4:	00058f93          	mv	t6,a1
800029e8:	40af0f33          	sub	t5,t5,a0
800029ec:	0e068663          	beqz	a3,80002ad8 <_vsnprintf+0x9cc>
800029f0:	020c7693          	andi	a3,s8,32
800029f4:	06100793          	li	a5,97
800029f8:	00068463          	beqz	a3,80002a00 <_vsnprintf+0x8f4>
800029fc:	04100793          	li	a5,65
80002a00:	0ff7f693          	andi	a3,a5,255
80002a04:	ff668793          	addi	a5,a3,-10
80002a08:	00000c93          	li	s9,0
80002a0c:	02f12423          	sw	a5,40(sp)
80002a10:	0580006f          	j	80002a68 <_vsnprintf+0x95c>
80002a14:	03050513          	addi	a0,a0,48
80002a18:	0ff57e93          	andi	t4,a0,255
80002a1c:	03010793          	addi	a5,sp,48
80002a20:	001c8c93          	addi	s9,s9,1
80002a24:	019782b3          	add	t0,a5,s9
80002a28:	000f8513          	mv	a0,t6
80002a2c:	000f0593          	mv	a1,t5
80002a30:	000d0613          	mv	a2,s10
80002a34:	00000693          	li	a3,0
80002a38:	ffd28fa3          	sb	t4,-1(t0)
80002a3c:	03f12223          	sw	t6,36(sp)
80002a40:	03e12023          	sw	t5,32(sp)
80002a44:	40c000ef          	jal	ra,80002e50 <__udivdi3>
80002a48:	02012f03          	lw	t5,32(sp)
80002a4c:	00000793          	li	a5,0
80002a50:	02412f83          	lw	t6,36(sp)
80002a54:	39e78463          	beq	a5,t5,80002ddc <_vsnprintf+0xcd0>
80002a58:	02000793          	li	a5,32
80002a5c:	08fc8663          	beq	s9,a5,80002ae8 <_vsnprintf+0x9dc>
80002a60:	00050f93          	mv	t6,a0
80002a64:	00058f13          	mv	t5,a1
80002a68:	000f8513          	mv	a0,t6
80002a6c:	000f0593          	mv	a1,t5
80002a70:	000d0613          	mv	a2,s10
80002a74:	00000693          	li	a3,0
80002a78:	03f12223          	sw	t6,36(sp)
80002a7c:	03e12023          	sw	t5,32(sp)
80002a80:	005000ef          	jal	ra,80003284 <__umoddi3>
80002a84:	0ff57513          	andi	a0,a0,255
80002a88:	00900793          	li	a5,9
80002a8c:	02012f03          	lw	t5,32(sp)
80002a90:	02412f83          	lw	t6,36(sp)
80002a94:	f8a7f0e3          	bgeu	a5,a0,80002a14 <_vsnprintf+0x908>
80002a98:	02812783          	lw	a5,40(sp)
80002a9c:	00f50533          	add	a0,a0,a5
80002aa0:	0ff57e93          	andi	t4,a0,255
80002aa4:	f79ff06f          	j	80002a1c <_vsnprintf+0x910>
80002aa8:	4006f793          	andi	a5,a3,1024
80002aac:	01000d13          	li	s10,16
80002ab0:	ff36fc13          	andi	s8,a3,-13
80002ab4:	9a0782e3          	beqz	a5,80002458 <_vsnprintf+0x34c>
80002ab8:	99dff06f          	j	80002454 <_vsnprintf+0x348>
80002abc:	01000d13          	li	s10,16
80002ac0:	995ff06f          	j	80002454 <_vsnprintf+0x348>
80002ac4:	000a4683          	lbu	a3,0(s4)
80002ac8:	00068613          	mv	a2,a3
80002acc:	d15ff06f          	j	800027e0 <_vsnprintf+0x6d4>
80002ad0:	000a4603          	lbu	a2,0(s4)
80002ad4:	9c5ff06f          	j	80002498 <_vsnprintf+0x38c>
80002ad8:	400c7793          	andi	a5,s8,1024
80002adc:	00000c93          	li	s9,0
80002ae0:	fefc7c13          	andi	s8,s8,-17
80002ae4:	f00786e3          	beqz	a5,800029f0 <_vsnprintf+0x8e4>
80002ae8:	02c12803          	lw	a6,44(sp)
80002aec:	000b8613          	mv	a2,s7
80002af0:	01812423          	sw	s8,8(sp)
80002af4:	01512223          	sw	s5,4(sp)
80002af8:	01b12023          	sw	s11,0(sp)
80002afc:	000d0893          	mv	a7,s10
80002b00:	000c8793          	mv	a5,s9
80002b04:	b71ff06f          	j	80002674 <_vsnprintf+0x568>
80002b08:	000d8b93          	mv	s7,s11
80002b0c:	000c8a13          	mv	s4,s9
80002b10:	e98ff06f          	j	800021a8 <_vsnprintf+0x9c>
80002b14:	000b8613          	mv	a2,s7
80002b18:	01812423          	sw	s8,8(sp)
80002b1c:	01512223          	sw	s5,4(sp)
80002b20:	01b12023          	sw	s11,0(sp)
80002b24:	000d0893          	mv	a7,s10
80002b28:	99dff06f          	j	800024c4 <_vsnprintf+0x3b8>
80002b2c:	00800d13          	li	s10,8
80002b30:	00068c13          	mv	s8,a3
80002b34:	c61ff06f          	j	80002794 <_vsnprintf+0x688>
80002b38:	007a0a13          	addi	s4,s4,7
80002b3c:	ff8a7a13          	andi	s4,s4,-8
80002b40:	000a2f83          	lw	t6,0(s4)
80002b44:	004a2f03          	lw	t5,4(s4)
80002b48:	008a0a13          	addi	s4,s4,8
80002b4c:	01efe7b3          	or	a5,t6,t5
80002b50:	00079a63          	bnez	a5,80002b64 <_vsnprintf+0xa58>
80002b54:	400c7793          	andi	a5,s8,1024
80002b58:	00000c93          	li	s9,0
80002b5c:	fefc7c13          	andi	s8,s8,-17
80002b60:	0c079063          	bnez	a5,80002c20 <_vsnprintf+0xb14>
80002b64:	020c7693          	andi	a3,s8,32
80002b68:	06100793          	li	a5,97
80002b6c:	00068463          	beqz	a3,80002b74 <_vsnprintf+0xa68>
80002b70:	04100793          	li	a5,65
80002b74:	0ff7f693          	andi	a3,a5,255
80002b78:	ff668793          	addi	a5,a3,-10
80002b7c:	00000c93          	li	s9,0
80002b80:	02f12423          	sw	a5,40(sp)
80002b84:	0580006f          	j	80002bdc <_vsnprintf+0xad0>
80002b88:	03050513          	addi	a0,a0,48
80002b8c:	0ff57e93          	andi	t4,a0,255
80002b90:	03010793          	addi	a5,sp,48
80002b94:	001c8c93          	addi	s9,s9,1
80002b98:	019782b3          	add	t0,a5,s9
80002b9c:	000f8513          	mv	a0,t6
80002ba0:	000f0593          	mv	a1,t5
80002ba4:	000d0613          	mv	a2,s10
80002ba8:	00000693          	li	a3,0
80002bac:	ffd28fa3          	sb	t4,-1(t0)
80002bb0:	03f12223          	sw	t6,36(sp)
80002bb4:	03e12023          	sw	t5,32(sp)
80002bb8:	298000ef          	jal	ra,80002e50 <__udivdi3>
80002bbc:	02012f03          	lw	t5,32(sp)
80002bc0:	00000793          	li	a5,0
80002bc4:	02412f83          	lw	t6,36(sp)
80002bc8:	05e78a63          	beq	a5,t5,80002c1c <_vsnprintf+0xb10>
80002bcc:	02000793          	li	a5,32
80002bd0:	04fc8863          	beq	s9,a5,80002c20 <_vsnprintf+0xb14>
80002bd4:	00050f93          	mv	t6,a0
80002bd8:	00058f13          	mv	t5,a1
80002bdc:	000f8513          	mv	a0,t6
80002be0:	000f0593          	mv	a1,t5
80002be4:	000d0613          	mv	a2,s10
80002be8:	00000693          	li	a3,0
80002bec:	03f12223          	sw	t6,36(sp)
80002bf0:	03e12023          	sw	t5,32(sp)
80002bf4:	690000ef          	jal	ra,80003284 <__umoddi3>
80002bf8:	0ff57513          	andi	a0,a0,255
80002bfc:	00900793          	li	a5,9
80002c00:	02012f03          	lw	t5,32(sp)
80002c04:	02412f83          	lw	t6,36(sp)
80002c08:	f8a7f0e3          	bgeu	a5,a0,80002b88 <_vsnprintf+0xa7c>
80002c0c:	02812783          	lw	a5,40(sp)
80002c10:	00f50533          	add	a0,a0,a5
80002c14:	0ff57e93          	andi	t4,a0,255
80002c18:	f79ff06f          	j	80002b90 <_vsnprintf+0xa84>
80002c1c:	fbaff8e3          	bgeu	t6,s10,80002bcc <_vsnprintf+0xac0>
80002c20:	000b8613          	mv	a2,s7
80002c24:	01812423          	sw	s8,8(sp)
80002c28:	01512223          	sw	s5,4(sp)
80002c2c:	01b12023          	sw	s11,0(sp)
80002c30:	000d0893          	mv	a7,s10
80002c34:	00000813          	li	a6,0
80002c38:	000c8793          	mv	a5,s9
80002c3c:	a39ff06f          	j	80002674 <_vsnprintf+0x568>
80002c40:	020c7593          	andi	a1,s8,32
80002c44:	06100693          	li	a3,97
80002c48:	00058463          	beqz	a1,80002c50 <_vsnprintf+0xb44>
80002c4c:	04100693          	li	a3,65
80002c50:	00900513          	li	a0,9
80002c54:	ff668f13          	addi	t5,a3,-10
80002c58:	02000e93          	li	t4,32
80002c5c:	02c0006f          	j	80002c88 <_vsnprintf+0xb7c>
80002c60:	03068693          	addi	a3,a3,48
80002c64:	0ff6f693          	andi	a3,a3,255
80002c68:	00178793          	addi	a5,a5,1
80002c6c:	03010713          	addi	a4,sp,48
80002c70:	00f705b3          	add	a1,a4,a5
80002c74:	fed58fa3          	sb	a3,-1(a1)
80002c78:	03a656b3          	divu	a3,a2,s10
80002c7c:	83a668e3          	bltu	a2,s10,800024ac <_vsnprintf+0x3a0>
80002c80:	83d786e3          	beq	a5,t4,800024ac <_vsnprintf+0x3a0>
80002c84:	00068613          	mv	a2,a3
80002c88:	03a675b3          	remu	a1,a2,s10
80002c8c:	0ff5f693          	andi	a3,a1,255
80002c90:	fcb578e3          	bgeu	a0,a1,80002c60 <_vsnprintf+0xb54>
80002c94:	01e686b3          	add	a3,a3,t5
80002c98:	0ff6f693          	andi	a3,a3,255
80002c9c:	fcdff06f          	j	80002c68 <_vsnprintf+0xb5c>
80002ca0:	000a2783          	lw	a5,0(s4)
80002ca4:	41f7d593          	srai	a1,a5,0x1f
80002ca8:	00f5c633          	xor	a2,a1,a5
80002cac:	40b60633          	sub	a2,a2,a1
80002cb0:	01f7d813          	srli	a6,a5,0x1f
80002cb4:	00079a63          	bnez	a5,80002cc8 <_vsnprintf+0xbbc>
80002cb8:	fefc7793          	andi	a5,s8,-17
80002cbc:	400c7593          	andi	a1,s8,1024
80002cc0:	00078c13          	mv	s8,a5
80002cc4:	06059263          	bnez	a1,80002d28 <_vsnprintf+0xc1c>
80002cc8:	020c7593          	andi	a1,s8,32
80002ccc:	06100793          	li	a5,97
80002cd0:	00058463          	beqz	a1,80002cd8 <_vsnprintf+0xbcc>
80002cd4:	04100793          	li	a5,65
80002cd8:	00900513          	li	a0,9
80002cdc:	ff678f93          	addi	t6,a5,-10
80002ce0:	02000e93          	li	t4,32
80002ce4:	02c0006f          	j	80002d10 <_vsnprintf+0xc04>
80002ce8:	03078793          	addi	a5,a5,48
80002cec:	0ff7f793          	andi	a5,a5,255
80002cf0:	00168693          	addi	a3,a3,1
80002cf4:	03010713          	addi	a4,sp,48
80002cf8:	00d705b3          	add	a1,a4,a3
80002cfc:	fef58fa3          	sb	a5,-1(a1)
80002d00:	03a657b3          	divu	a5,a2,s10
80002d04:	03a66263          	bltu	a2,s10,80002d28 <_vsnprintf+0xc1c>
80002d08:	03d68063          	beq	a3,t4,80002d28 <_vsnprintf+0xc1c>
80002d0c:	00078613          	mv	a2,a5
80002d10:	03a675b3          	remu	a1,a2,s10
80002d14:	0ff5f793          	andi	a5,a1,255
80002d18:	fcb578e3          	bgeu	a0,a1,80002ce8 <_vsnprintf+0xbdc>
80002d1c:	01f787b3          	add	a5,a5,t6
80002d20:	0ff7f793          	andi	a5,a5,255
80002d24:	fcdff06f          	j	80002cf0 <_vsnprintf+0xbe4>
80002d28:	000b8613          	mv	a2,s7
80002d2c:	01812423          	sw	s8,8(sp)
80002d30:	01512223          	sw	s5,4(sp)
80002d34:	01b12023          	sw	s11,0(sp)
80002d38:	000d0893          	mv	a7,s10
80002d3c:	00068793          	mv	a5,a3
80002d40:	f84ff06f          	j	800024c4 <_vsnprintf+0x3b8>
80002d44:	000a2603          	lw	a2,0(s4)
80002d48:	00061a63          	bnez	a2,80002d5c <_vsnprintf+0xc50>
80002d4c:	fefc7793          	andi	a5,s8,-17
80002d50:	400c7593          	andi	a1,s8,1024
80002d54:	00078c13          	mv	s8,a5
80002d58:	06059263          	bnez	a1,80002dbc <_vsnprintf+0xcb0>
80002d5c:	020c7593          	andi	a1,s8,32
80002d60:	06100793          	li	a5,97
80002d64:	00058463          	beqz	a1,80002d6c <_vsnprintf+0xc60>
80002d68:	04100793          	li	a5,65
80002d6c:	00900e93          	li	t4,9
80002d70:	ff678f13          	addi	t5,a5,-10
80002d74:	02000513          	li	a0,32
80002d78:	02c0006f          	j	80002da4 <_vsnprintf+0xc98>
80002d7c:	03078793          	addi	a5,a5,48
80002d80:	0ff7f793          	andi	a5,a5,255
80002d84:	00168693          	addi	a3,a3,1
80002d88:	03010713          	addi	a4,sp,48
80002d8c:	00d705b3          	add	a1,a4,a3
80002d90:	fef58fa3          	sb	a5,-1(a1)
80002d94:	03a657b3          	divu	a5,a2,s10
80002d98:	03a66263          	bltu	a2,s10,80002dbc <_vsnprintf+0xcb0>
80002d9c:	02a68063          	beq	a3,a0,80002dbc <_vsnprintf+0xcb0>
80002da0:	00078613          	mv	a2,a5
80002da4:	03a675b3          	remu	a1,a2,s10
80002da8:	0ff5f793          	andi	a5,a1,255
80002dac:	fcbef8e3          	bgeu	t4,a1,80002d7c <_vsnprintf+0xc70>
80002db0:	01e787b3          	add	a5,a5,t5
80002db4:	0ff7f793          	andi	a5,a5,255
80002db8:	fcdff06f          	j	80002d84 <_vsnprintf+0xc78>
80002dbc:	000b8613          	mv	a2,s7
80002dc0:	01812423          	sw	s8,8(sp)
80002dc4:	01512223          	sw	s5,4(sp)
80002dc8:	01b12023          	sw	s11,0(sp)
80002dcc:	000d0893          	mv	a7,s10
80002dd0:	00000813          	li	a6,0
80002dd4:	00068793          	mv	a5,a3
80002dd8:	eecff06f          	j	800024c4 <_vsnprintf+0x3b8>
80002ddc:	c7affee3          	bgeu	t6,s10,80002a58 <_vsnprintf+0x94c>
80002de0:	d09ff06f          	j	80002ae8 <_vsnprintf+0x9dc>
80002de4:	000a2683          	lw	a3,0(s4)
80002de8:	41f6d593          	srai	a1,a3,0x1f
80002dec:	00d5c633          	xor	a2,a1,a3
80002df0:	40b60633          	sub	a2,a2,a1
80002df4:	9edff06f          	j	800027e0 <_vsnprintf+0x6d4>
80002df8:	00000a13          	li	s4,0
80002dfc:	f98ff06f          	j	80002594 <_vsnprintf+0x488>
80002e00:	000b8c13          	mv	s8,s7
80002e04:	000d8b93          	mv	s7,s11
80002e08:	b89ff06f          	j	80002990 <_vsnprintf+0x884>
80002e0c:	00078a13          	mv	s4,a5
80002e10:	fa051063          	bnez	a0,800025b0 <_vsnprintf+0x4a4>
80002e14:	b3dff06f          	j	80002950 <_vsnprintf+0x844>
80002e18:	000c0693          	mv	a3,s8
80002e1c:	c95ff06f          	j	80002ab0 <_vsnprintf+0x9a4>

80002e20 <tiny_vprintf>:
80002e20:	fe010113          	addi	sp,sp,-32
80002e24:	00050693          	mv	a3,a0
80002e28:	00058713          	mv	a4,a1
80002e2c:	fff00613          	li	a2,-1
80002e30:	00c10593          	addi	a1,sp,12
80002e34:	ffffe517          	auipc	a0,0xffffe
80002e38:	6b850513          	addi	a0,a0,1720 # 800014ec <_out_char>
80002e3c:	00112e23          	sw	ra,28(sp)
80002e40:	accff0ef          	jal	ra,8000210c <_vsnprintf>
80002e44:	01c12083          	lw	ra,28(sp)
80002e48:	02010113          	addi	sp,sp,32
80002e4c:	00008067          	ret

80002e50 <__udivdi3>:
80002e50:	00050893          	mv	a7,a0
80002e54:	00058793          	mv	a5,a1
80002e58:	00060813          	mv	a6,a2
80002e5c:	00068513          	mv	a0,a3
80002e60:	00088313          	mv	t1,a7
80002e64:	28069463          	bnez	a3,800030ec <__udivdi3+0x29c>
80002e68:	800076b7          	lui	a3,0x80007
80002e6c:	b7868693          	addi	a3,a3,-1160 # 80006b78 <__global_pointer+0xfffff370>
80002e70:	0ec5f663          	bgeu	a1,a2,80002f5c <__udivdi3+0x10c>
80002e74:	00010737          	lui	a4,0x10
80002e78:	0ce67863          	bgeu	a2,a4,80002f48 <__udivdi3+0xf8>
80002e7c:	0ff00713          	li	a4,255
80002e80:	00c73733          	sltu	a4,a4,a2
80002e84:	00371713          	slli	a4,a4,0x3
80002e88:	00e65533          	srl	a0,a2,a4
80002e8c:	00a686b3          	add	a3,a3,a0
80002e90:	0006c683          	lbu	a3,0(a3)
80002e94:	02000513          	li	a0,32
80002e98:	00e68733          	add	a4,a3,a4
80002e9c:	40e506b3          	sub	a3,a0,a4
80002ea0:	00e50c63          	beq	a0,a4,80002eb8 <__udivdi3+0x68>
80002ea4:	00d797b3          	sll	a5,a5,a3
80002ea8:	00e8d733          	srl	a4,a7,a4
80002eac:	00d61833          	sll	a6,a2,a3
80002eb0:	00f765b3          	or	a1,a4,a5
80002eb4:	00d89333          	sll	t1,a7,a3
80002eb8:	01085893          	srli	a7,a6,0x10
80002ebc:	0315d7b3          	divu	a5,a1,a7
80002ec0:	01081613          	slli	a2,a6,0x10
80002ec4:	01065613          	srli	a2,a2,0x10
80002ec8:	01035713          	srli	a4,t1,0x10
80002ecc:	0315f6b3          	remu	a3,a1,a7
80002ed0:	00078513          	mv	a0,a5
80002ed4:	02f605b3          	mul	a1,a2,a5
80002ed8:	01069693          	slli	a3,a3,0x10
80002edc:	00e6e733          	or	a4,a3,a4
80002ee0:	00b77e63          	bgeu	a4,a1,80002efc <__udivdi3+0xac>
80002ee4:	01070733          	add	a4,a4,a6
80002ee8:	fff78513          	addi	a0,a5,-1
80002eec:	01076863          	bltu	a4,a6,80002efc <__udivdi3+0xac>
80002ef0:	00b77663          	bgeu	a4,a1,80002efc <__udivdi3+0xac>
80002ef4:	ffe78513          	addi	a0,a5,-2
80002ef8:	01070733          	add	a4,a4,a6
80002efc:	40b70733          	sub	a4,a4,a1
80002f00:	031777b3          	remu	a5,a4,a7
80002f04:	01031313          	slli	t1,t1,0x10
80002f08:	01035313          	srli	t1,t1,0x10
80002f0c:	03175733          	divu	a4,a4,a7
80002f10:	01079793          	slli	a5,a5,0x10
80002f14:	0067e333          	or	t1,a5,t1
80002f18:	02e606b3          	mul	a3,a2,a4
80002f1c:	00070613          	mv	a2,a4
80002f20:	00d37c63          	bgeu	t1,a3,80002f38 <__udivdi3+0xe8>
80002f24:	00680333          	add	t1,a6,t1
80002f28:	fff70613          	addi	a2,a4,-1 # ffff <__stack_size+0xfbff>
80002f2c:	01036663          	bltu	t1,a6,80002f38 <__udivdi3+0xe8>
80002f30:	00d37463          	bgeu	t1,a3,80002f38 <__udivdi3+0xe8>
80002f34:	ffe70613          	addi	a2,a4,-2
80002f38:	01051513          	slli	a0,a0,0x10
80002f3c:	00c56533          	or	a0,a0,a2
80002f40:	00000593          	li	a1,0
80002f44:	0e40006f          	j	80003028 <__udivdi3+0x1d8>
80002f48:	01000537          	lui	a0,0x1000
80002f4c:	01000713          	li	a4,16
80002f50:	f2a66ce3          	bltu	a2,a0,80002e88 <__udivdi3+0x38>
80002f54:	01800713          	li	a4,24
80002f58:	f31ff06f          	j	80002e88 <__udivdi3+0x38>
80002f5c:	00061663          	bnez	a2,80002f68 <__udivdi3+0x118>
80002f60:	00100713          	li	a4,1
80002f64:	02c75833          	divu	a6,a4,a2
80002f68:	00010737          	lui	a4,0x10
80002f6c:	0ce87063          	bgeu	a6,a4,8000302c <__udivdi3+0x1dc>
80002f70:	0ff00713          	li	a4,255
80002f74:	01077463          	bgeu	a4,a6,80002f7c <__udivdi3+0x12c>
80002f78:	00800513          	li	a0,8
80002f7c:	00a85733          	srl	a4,a6,a0
80002f80:	00e686b3          	add	a3,a3,a4
80002f84:	0006c703          	lbu	a4,0(a3)
80002f88:	02000613          	li	a2,32
80002f8c:	00a70733          	add	a4,a4,a0
80002f90:	40e606b3          	sub	a3,a2,a4
80002f94:	0ae61663          	bne	a2,a4,80003040 <__udivdi3+0x1f0>
80002f98:	410787b3          	sub	a5,a5,a6
80002f9c:	00100593          	li	a1,1
80002fa0:	01085893          	srli	a7,a6,0x10
80002fa4:	01081613          	slli	a2,a6,0x10
80002fa8:	01065613          	srli	a2,a2,0x10
80002fac:	01035713          	srli	a4,t1,0x10
80002fb0:	0317f6b3          	remu	a3,a5,a7
80002fb4:	0317d7b3          	divu	a5,a5,a7
80002fb8:	01069693          	slli	a3,a3,0x10
80002fbc:	00e6e733          	or	a4,a3,a4
80002fc0:	02f60e33          	mul	t3,a2,a5
80002fc4:	00078513          	mv	a0,a5
80002fc8:	01c77e63          	bgeu	a4,t3,80002fe4 <__udivdi3+0x194>
80002fcc:	01070733          	add	a4,a4,a6
80002fd0:	fff78513          	addi	a0,a5,-1
80002fd4:	01076863          	bltu	a4,a6,80002fe4 <__udivdi3+0x194>
80002fd8:	01c77663          	bgeu	a4,t3,80002fe4 <__udivdi3+0x194>
80002fdc:	ffe78513          	addi	a0,a5,-2
80002fe0:	01070733          	add	a4,a4,a6
80002fe4:	41c70733          	sub	a4,a4,t3
80002fe8:	031777b3          	remu	a5,a4,a7
80002fec:	01031313          	slli	t1,t1,0x10
80002ff0:	01035313          	srli	t1,t1,0x10
80002ff4:	03175733          	divu	a4,a4,a7
80002ff8:	01079793          	slli	a5,a5,0x10
80002ffc:	0067e333          	or	t1,a5,t1
80003000:	02e606b3          	mul	a3,a2,a4
80003004:	00070613          	mv	a2,a4
80003008:	00d37c63          	bgeu	t1,a3,80003020 <__udivdi3+0x1d0>
8000300c:	00680333          	add	t1,a6,t1
80003010:	fff70613          	addi	a2,a4,-1 # ffff <__stack_size+0xfbff>
80003014:	01036663          	bltu	t1,a6,80003020 <__udivdi3+0x1d0>
80003018:	00d37463          	bgeu	t1,a3,80003020 <__udivdi3+0x1d0>
8000301c:	ffe70613          	addi	a2,a4,-2
80003020:	01051513          	slli	a0,a0,0x10
80003024:	00c56533          	or	a0,a0,a2
80003028:	00008067          	ret
8000302c:	01000737          	lui	a4,0x1000
80003030:	01000513          	li	a0,16
80003034:	f4e864e3          	bltu	a6,a4,80002f7c <__udivdi3+0x12c>
80003038:	01800513          	li	a0,24
8000303c:	f41ff06f          	j	80002f7c <__udivdi3+0x12c>
80003040:	00d81833          	sll	a6,a6,a3
80003044:	00e7d5b3          	srl	a1,a5,a4
80003048:	00d89333          	sll	t1,a7,a3
8000304c:	00d797b3          	sll	a5,a5,a3
80003050:	00e8d733          	srl	a4,a7,a4
80003054:	01085893          	srli	a7,a6,0x10
80003058:	00f76633          	or	a2,a4,a5
8000305c:	0315f733          	remu	a4,a1,a7
80003060:	01081793          	slli	a5,a6,0x10
80003064:	0107d793          	srli	a5,a5,0x10
80003068:	01065513          	srli	a0,a2,0x10
8000306c:	0315d5b3          	divu	a1,a1,a7
80003070:	01071713          	slli	a4,a4,0x10
80003074:	00a76733          	or	a4,a4,a0
80003078:	02b786b3          	mul	a3,a5,a1
8000307c:	00058513          	mv	a0,a1
80003080:	00d77e63          	bgeu	a4,a3,8000309c <__udivdi3+0x24c>
80003084:	01070733          	add	a4,a4,a6
80003088:	fff58513          	addi	a0,a1,-1
8000308c:	01076863          	bltu	a4,a6,8000309c <__udivdi3+0x24c>
80003090:	00d77663          	bgeu	a4,a3,8000309c <__udivdi3+0x24c>
80003094:	ffe58513          	addi	a0,a1,-2
80003098:	01070733          	add	a4,a4,a6
8000309c:	40d706b3          	sub	a3,a4,a3
800030a0:	0316f733          	remu	a4,a3,a7
800030a4:	01061613          	slli	a2,a2,0x10
800030a8:	01065613          	srli	a2,a2,0x10
800030ac:	0316d6b3          	divu	a3,a3,a7
800030b0:	01071713          	slli	a4,a4,0x10
800030b4:	02d788b3          	mul	a7,a5,a3
800030b8:	00c767b3          	or	a5,a4,a2
800030bc:	00068713          	mv	a4,a3
800030c0:	0117fe63          	bgeu	a5,a7,800030dc <__udivdi3+0x28c>
800030c4:	010787b3          	add	a5,a5,a6
800030c8:	fff68713          	addi	a4,a3,-1
800030cc:	0107e863          	bltu	a5,a6,800030dc <__udivdi3+0x28c>
800030d0:	0117f663          	bgeu	a5,a7,800030dc <__udivdi3+0x28c>
800030d4:	ffe68713          	addi	a4,a3,-2
800030d8:	010787b3          	add	a5,a5,a6
800030dc:	01051593          	slli	a1,a0,0x10
800030e0:	411787b3          	sub	a5,a5,a7
800030e4:	00e5e5b3          	or	a1,a1,a4
800030e8:	eb9ff06f          	j	80002fa0 <__udivdi3+0x150>
800030ec:	18d5e663          	bltu	a1,a3,80003278 <__udivdi3+0x428>
800030f0:	00010737          	lui	a4,0x10
800030f4:	04e6f463          	bgeu	a3,a4,8000313c <__udivdi3+0x2ec>
800030f8:	0ff00713          	li	a4,255
800030fc:	00d735b3          	sltu	a1,a4,a3
80003100:	00359593          	slli	a1,a1,0x3
80003104:	80007737          	lui	a4,0x80007
80003108:	00b6d533          	srl	a0,a3,a1
8000310c:	b7870713          	addi	a4,a4,-1160 # 80006b78 <__global_pointer+0xfffff370>
80003110:	00a70733          	add	a4,a4,a0
80003114:	00074703          	lbu	a4,0(a4)
80003118:	02000513          	li	a0,32
8000311c:	00b70733          	add	a4,a4,a1
80003120:	40e505b3          	sub	a1,a0,a4
80003124:	02e51663          	bne	a0,a4,80003150 <__udivdi3+0x300>
80003128:	00100513          	li	a0,1
8000312c:	eef6eee3          	bltu	a3,a5,80003028 <__udivdi3+0x1d8>
80003130:	00c8b533          	sltu	a0,a7,a2
80003134:	00154513          	xori	a0,a0,1
80003138:	ef1ff06f          	j	80003028 <__udivdi3+0x1d8>
8000313c:	01000737          	lui	a4,0x1000
80003140:	01000593          	li	a1,16
80003144:	fce6e0e3          	bltu	a3,a4,80003104 <__udivdi3+0x2b4>
80003148:	01800593          	li	a1,24
8000314c:	fb9ff06f          	j	80003104 <__udivdi3+0x2b4>
80003150:	00e65333          	srl	t1,a2,a4
80003154:	00b696b3          	sll	a3,a3,a1
80003158:	00d36333          	or	t1,t1,a3
8000315c:	01035513          	srli	a0,t1,0x10
80003160:	00b61eb3          	sll	t4,a2,a1
80003164:	00e7d633          	srl	a2,a5,a4
80003168:	02a676b3          	remu	a3,a2,a0
8000316c:	00b797b3          	sll	a5,a5,a1
80003170:	00e8d733          	srl	a4,a7,a4
80003174:	00f76833          	or	a6,a4,a5
80003178:	01031793          	slli	a5,t1,0x10
8000317c:	0107d793          	srli	a5,a5,0x10
80003180:	01085713          	srli	a4,a6,0x10
80003184:	02a65633          	divu	a2,a2,a0
80003188:	01069693          	slli	a3,a3,0x10
8000318c:	00e6e733          	or	a4,a3,a4
80003190:	02c78f33          	mul	t5,a5,a2
80003194:	00060e13          	mv	t3,a2
80003198:	01e77e63          	bgeu	a4,t5,800031b4 <__udivdi3+0x364>
8000319c:	00670733          	add	a4,a4,t1
800031a0:	fff60e13          	addi	t3,a2,-1
800031a4:	00676863          	bltu	a4,t1,800031b4 <__udivdi3+0x364>
800031a8:	01e77663          	bgeu	a4,t5,800031b4 <__udivdi3+0x364>
800031ac:	ffe60e13          	addi	t3,a2,-2
800031b0:	00670733          	add	a4,a4,t1
800031b4:	41e70733          	sub	a4,a4,t5
800031b8:	02a776b3          	remu	a3,a4,a0
800031bc:	02a75733          	divu	a4,a4,a0
800031c0:	01069693          	slli	a3,a3,0x10
800031c4:	02e78633          	mul	a2,a5,a4
800031c8:	01081793          	slli	a5,a6,0x10
800031cc:	0107d793          	srli	a5,a5,0x10
800031d0:	00f6e7b3          	or	a5,a3,a5
800031d4:	00070693          	mv	a3,a4
800031d8:	00c7fe63          	bgeu	a5,a2,800031f4 <__udivdi3+0x3a4>
800031dc:	006787b3          	add	a5,a5,t1
800031e0:	fff70693          	addi	a3,a4,-1 # ffffff <__stack_size+0xfffbff>
800031e4:	0067e863          	bltu	a5,t1,800031f4 <__udivdi3+0x3a4>
800031e8:	00c7f663          	bgeu	a5,a2,800031f4 <__udivdi3+0x3a4>
800031ec:	ffe70693          	addi	a3,a4,-2
800031f0:	006787b3          	add	a5,a5,t1
800031f4:	010e1513          	slli	a0,t3,0x10
800031f8:	00010e37          	lui	t3,0x10
800031fc:	00d56533          	or	a0,a0,a3
80003200:	fffe0693          	addi	a3,t3,-1 # ffff <__stack_size+0xfbff>
80003204:	00d57833          	and	a6,a0,a3
80003208:	40c787b3          	sub	a5,a5,a2
8000320c:	00def6b3          	and	a3,t4,a3
80003210:	01055613          	srli	a2,a0,0x10
80003214:	010ede93          	srli	t4,t4,0x10
80003218:	02d80333          	mul	t1,a6,a3
8000321c:	02d606b3          	mul	a3,a2,a3
80003220:	01035713          	srli	a4,t1,0x10
80003224:	03d80833          	mul	a6,a6,t4
80003228:	00d80833          	add	a6,a6,a3
8000322c:	01070733          	add	a4,a4,a6
80003230:	03d60633          	mul	a2,a2,t4
80003234:	00d77463          	bgeu	a4,a3,8000323c <__udivdi3+0x3ec>
80003238:	01c60633          	add	a2,a2,t3
8000323c:	01075693          	srli	a3,a4,0x10
80003240:	00c68633          	add	a2,a3,a2
80003244:	02c7e663          	bltu	a5,a2,80003270 <__udivdi3+0x420>
80003248:	cec79ce3          	bne	a5,a2,80002f40 <__udivdi3+0xf0>
8000324c:	000107b7          	lui	a5,0x10
80003250:	fff78793          	addi	a5,a5,-1 # ffff <__stack_size+0xfbff>
80003254:	00f77733          	and	a4,a4,a5
80003258:	01071713          	slli	a4,a4,0x10
8000325c:	00f37333          	and	t1,t1,a5
80003260:	00b898b3          	sll	a7,a7,a1
80003264:	00670733          	add	a4,a4,t1
80003268:	00000593          	li	a1,0
8000326c:	dae8fee3          	bgeu	a7,a4,80003028 <__udivdi3+0x1d8>
80003270:	fff50513          	addi	a0,a0,-1 # ffffff <__stack_size+0xfffbff>
80003274:	ccdff06f          	j	80002f40 <__udivdi3+0xf0>
80003278:	00000593          	li	a1,0
8000327c:	00000513          	li	a0,0
80003280:	da9ff06f          	j	80003028 <__udivdi3+0x1d8>

80003284 <__umoddi3>:
80003284:	00060893          	mv	a7,a2
80003288:	00068713          	mv	a4,a3
8000328c:	00050793          	mv	a5,a0
80003290:	00058813          	mv	a6,a1
80003294:	22069c63          	bnez	a3,800034cc <__umoddi3+0x248>
80003298:	800076b7          	lui	a3,0x80007
8000329c:	b7868693          	addi	a3,a3,-1160 # 80006b78 <__global_pointer+0xfffff370>
800032a0:	0cc5fc63          	bgeu	a1,a2,80003378 <__umoddi3+0xf4>
800032a4:	00010337          	lui	t1,0x10
800032a8:	0a667e63          	bgeu	a2,t1,80003364 <__umoddi3+0xe0>
800032ac:	0ff00313          	li	t1,255
800032b0:	00c37463          	bgeu	t1,a2,800032b8 <__umoddi3+0x34>
800032b4:	00800713          	li	a4,8
800032b8:	00e65333          	srl	t1,a2,a4
800032bc:	006686b3          	add	a3,a3,t1
800032c0:	0006ce03          	lbu	t3,0(a3)
800032c4:	00ee0e33          	add	t3,t3,a4
800032c8:	02000713          	li	a4,32
800032cc:	41c70333          	sub	t1,a4,t3
800032d0:	01c70c63          	beq	a4,t3,800032e8 <__umoddi3+0x64>
800032d4:	006595b3          	sll	a1,a1,t1
800032d8:	01c55e33          	srl	t3,a0,t3
800032dc:	006618b3          	sll	a7,a2,t1
800032e0:	00be6833          	or	a6,t3,a1
800032e4:	006517b3          	sll	a5,a0,t1
800032e8:	0108d613          	srli	a2,a7,0x10
800032ec:	02c87733          	remu	a4,a6,a2
800032f0:	01089513          	slli	a0,a7,0x10
800032f4:	01055513          	srli	a0,a0,0x10
800032f8:	0107d693          	srli	a3,a5,0x10
800032fc:	02c85833          	divu	a6,a6,a2
80003300:	01071713          	slli	a4,a4,0x10
80003304:	00d766b3          	or	a3,a4,a3
80003308:	03050833          	mul	a6,a0,a6
8000330c:	0106fa63          	bgeu	a3,a6,80003320 <__umoddi3+0x9c>
80003310:	011686b3          	add	a3,a3,a7
80003314:	0116e663          	bltu	a3,a7,80003320 <__umoddi3+0x9c>
80003318:	0106f463          	bgeu	a3,a6,80003320 <__umoddi3+0x9c>
8000331c:	011686b3          	add	a3,a3,a7
80003320:	410686b3          	sub	a3,a3,a6
80003324:	02c6f733          	remu	a4,a3,a2
80003328:	01079793          	slli	a5,a5,0x10
8000332c:	0107d793          	srli	a5,a5,0x10
80003330:	02c6d6b3          	divu	a3,a3,a2
80003334:	02d506b3          	mul	a3,a0,a3
80003338:	01071513          	slli	a0,a4,0x10
8000333c:	00f567b3          	or	a5,a0,a5
80003340:	00d7fa63          	bgeu	a5,a3,80003354 <__umoddi3+0xd0>
80003344:	011787b3          	add	a5,a5,a7
80003348:	0117e663          	bltu	a5,a7,80003354 <__umoddi3+0xd0>
8000334c:	00d7f463          	bgeu	a5,a3,80003354 <__umoddi3+0xd0>
80003350:	011787b3          	add	a5,a5,a7
80003354:	40d787b3          	sub	a5,a5,a3
80003358:	0067d533          	srl	a0,a5,t1
8000335c:	00000593          	li	a1,0
80003360:	00008067          	ret
80003364:	01000337          	lui	t1,0x1000
80003368:	01000713          	li	a4,16
8000336c:	f46666e3          	bltu	a2,t1,800032b8 <__umoddi3+0x34>
80003370:	01800713          	li	a4,24
80003374:	f45ff06f          	j	800032b8 <__umoddi3+0x34>
80003378:	00061663          	bnez	a2,80003384 <__umoddi3+0x100>
8000337c:	00100613          	li	a2,1
80003380:	031658b3          	divu	a7,a2,a7
80003384:	00010637          	lui	a2,0x10
80003388:	0ac8f263          	bgeu	a7,a2,8000342c <__umoddi3+0x1a8>
8000338c:	0ff00613          	li	a2,255
80003390:	01167463          	bgeu	a2,a7,80003398 <__umoddi3+0x114>
80003394:	00800713          	li	a4,8
80003398:	00e8d633          	srl	a2,a7,a4
8000339c:	00c686b3          	add	a3,a3,a2
800033a0:	0006ce03          	lbu	t3,0(a3)
800033a4:	00ee0e33          	add	t3,t3,a4
800033a8:	02000713          	li	a4,32
800033ac:	41c70333          	sub	t1,a4,t3
800033b0:	09c71863          	bne	a4,t3,80003440 <__umoddi3+0x1bc>
800033b4:	411585b3          	sub	a1,a1,a7
800033b8:	0108d713          	srli	a4,a7,0x10
800033bc:	01089513          	slli	a0,a7,0x10
800033c0:	01055513          	srli	a0,a0,0x10
800033c4:	0107d613          	srli	a2,a5,0x10
800033c8:	02e5f6b3          	remu	a3,a1,a4
800033cc:	02e5d5b3          	divu	a1,a1,a4
800033d0:	01069693          	slli	a3,a3,0x10
800033d4:	00c6e6b3          	or	a3,a3,a2
800033d8:	02b505b3          	mul	a1,a0,a1
800033dc:	00b6fa63          	bgeu	a3,a1,800033f0 <__umoddi3+0x16c>
800033e0:	011686b3          	add	a3,a3,a7
800033e4:	0116e663          	bltu	a3,a7,800033f0 <__umoddi3+0x16c>
800033e8:	00b6f463          	bgeu	a3,a1,800033f0 <__umoddi3+0x16c>
800033ec:	011686b3          	add	a3,a3,a7
800033f0:	40b685b3          	sub	a1,a3,a1
800033f4:	02e5f6b3          	remu	a3,a1,a4
800033f8:	01079793          	slli	a5,a5,0x10
800033fc:	0107d793          	srli	a5,a5,0x10
80003400:	02e5d5b3          	divu	a1,a1,a4
80003404:	02b505b3          	mul	a1,a0,a1
80003408:	01069513          	slli	a0,a3,0x10
8000340c:	00f567b3          	or	a5,a0,a5
80003410:	00b7fa63          	bgeu	a5,a1,80003424 <__umoddi3+0x1a0>
80003414:	011787b3          	add	a5,a5,a7
80003418:	0117e663          	bltu	a5,a7,80003424 <__umoddi3+0x1a0>
8000341c:	00b7f463          	bgeu	a5,a1,80003424 <__umoddi3+0x1a0>
80003420:	011787b3          	add	a5,a5,a7
80003424:	40b787b3          	sub	a5,a5,a1
80003428:	f31ff06f          	j	80003358 <__umoddi3+0xd4>
8000342c:	01000637          	lui	a2,0x1000
80003430:	01000713          	li	a4,16
80003434:	f6c8e2e3          	bltu	a7,a2,80003398 <__umoddi3+0x114>
80003438:	01800713          	li	a4,24
8000343c:	f5dff06f          	j	80003398 <__umoddi3+0x114>
80003440:	006898b3          	sll	a7,a7,t1
80003444:	01c5d733          	srl	a4,a1,t3
80003448:	006517b3          	sll	a5,a0,t1
8000344c:	01c55e33          	srl	t3,a0,t3
80003450:	0108d513          	srli	a0,a7,0x10
80003454:	02a776b3          	remu	a3,a4,a0
80003458:	006595b3          	sll	a1,a1,t1
8000345c:	00be6e33          	or	t3,t3,a1
80003460:	01089593          	slli	a1,a7,0x10
80003464:	0105d593          	srli	a1,a1,0x10
80003468:	010e5613          	srli	a2,t3,0x10
8000346c:	02a75733          	divu	a4,a4,a0
80003470:	01069693          	slli	a3,a3,0x10
80003474:	00c6e6b3          	or	a3,a3,a2
80003478:	02e58733          	mul	a4,a1,a4
8000347c:	00e6fa63          	bgeu	a3,a4,80003490 <__umoddi3+0x20c>
80003480:	011686b3          	add	a3,a3,a7
80003484:	0116e663          	bltu	a3,a7,80003490 <__umoddi3+0x20c>
80003488:	00e6f463          	bgeu	a3,a4,80003490 <__umoddi3+0x20c>
8000348c:	011686b3          	add	a3,a3,a7
80003490:	40e68633          	sub	a2,a3,a4
80003494:	02a676b3          	remu	a3,a2,a0
80003498:	010e1e13          	slli	t3,t3,0x10
8000349c:	010e5e13          	srli	t3,t3,0x10
800034a0:	02a65633          	divu	a2,a2,a0
800034a4:	01069693          	slli	a3,a3,0x10
800034a8:	02c58633          	mul	a2,a1,a2
800034ac:	01c6e5b3          	or	a1,a3,t3
800034b0:	00c5fa63          	bgeu	a1,a2,800034c4 <__umoddi3+0x240>
800034b4:	011585b3          	add	a1,a1,a7
800034b8:	0115e663          	bltu	a1,a7,800034c4 <__umoddi3+0x240>
800034bc:	00c5f463          	bgeu	a1,a2,800034c4 <__umoddi3+0x240>
800034c0:	011585b3          	add	a1,a1,a7
800034c4:	40c585b3          	sub	a1,a1,a2
800034c8:	ef1ff06f          	j	800033b8 <__umoddi3+0x134>
800034cc:	e8d5eae3          	bltu	a1,a3,80003360 <__umoddi3+0xdc>
800034d0:	00010737          	lui	a4,0x10
800034d4:	04e6fc63          	bgeu	a3,a4,8000352c <__umoddi3+0x2a8>
800034d8:	0ff00e13          	li	t3,255
800034dc:	00de3733          	sltu	a4,t3,a3
800034e0:	00371713          	slli	a4,a4,0x3
800034e4:	800078b7          	lui	a7,0x80007
800034e8:	00e6d333          	srl	t1,a3,a4
800034ec:	b7888893          	addi	a7,a7,-1160 # 80006b78 <__global_pointer+0xfffff370>
800034f0:	006888b3          	add	a7,a7,t1
800034f4:	0008ce03          	lbu	t3,0(a7)
800034f8:	00ee0e33          	add	t3,t3,a4
800034fc:	02000713          	li	a4,32
80003500:	41c70333          	sub	t1,a4,t3
80003504:	03c71e63          	bne	a4,t3,80003540 <__umoddi3+0x2bc>
80003508:	00b6e463          	bltu	a3,a1,80003510 <__umoddi3+0x28c>
8000350c:	00c56a63          	bltu	a0,a2,80003520 <__umoddi3+0x29c>
80003510:	40c507b3          	sub	a5,a0,a2
80003514:	40d585b3          	sub	a1,a1,a3
80003518:	00f53533          	sltu	a0,a0,a5
8000351c:	40a58833          	sub	a6,a1,a0
80003520:	00078513          	mv	a0,a5
80003524:	00080593          	mv	a1,a6
80003528:	e39ff06f          	j	80003360 <__umoddi3+0xdc>
8000352c:	010008b7          	lui	a7,0x1000
80003530:	01000713          	li	a4,16
80003534:	fb16e8e3          	bltu	a3,a7,800034e4 <__umoddi3+0x260>
80003538:	01800713          	li	a4,24
8000353c:	fa9ff06f          	j	800034e4 <__umoddi3+0x260>
80003540:	01c65733          	srl	a4,a2,t3
80003544:	006696b3          	sll	a3,a3,t1
80003548:	00d76f33          	or	t5,a4,a3
8000354c:	01c5d7b3          	srl	a5,a1,t3
80003550:	010f5713          	srli	a4,t5,0x10
80003554:	02e7f8b3          	remu	a7,a5,a4
80003558:	006595b3          	sll	a1,a1,t1
8000355c:	01c55833          	srl	a6,a0,t3
80003560:	00b86833          	or	a6,a6,a1
80003564:	010f1593          	slli	a1,t5,0x10
80003568:	0105d593          	srli	a1,a1,0x10
8000356c:	01085693          	srli	a3,a6,0x10
80003570:	00661633          	sll	a2,a2,t1
80003574:	00651533          	sll	a0,a0,t1
80003578:	02e7d7b3          	divu	a5,a5,a4
8000357c:	01089893          	slli	a7,a7,0x10
80003580:	00d8e6b3          	or	a3,a7,a3
80003584:	02f58eb3          	mul	t4,a1,a5
80003588:	00078893          	mv	a7,a5
8000358c:	01d6fe63          	bgeu	a3,t4,800035a8 <__umoddi3+0x324>
80003590:	01e686b3          	add	a3,a3,t5
80003594:	fff78893          	addi	a7,a5,-1
80003598:	01e6e863          	bltu	a3,t5,800035a8 <__umoddi3+0x324>
8000359c:	01d6f663          	bgeu	a3,t4,800035a8 <__umoddi3+0x324>
800035a0:	ffe78893          	addi	a7,a5,-2
800035a4:	01e686b3          	add	a3,a3,t5
800035a8:	41d686b3          	sub	a3,a3,t4
800035ac:	02e6feb3          	remu	t4,a3,a4
800035b0:	01081813          	slli	a6,a6,0x10
800035b4:	01085813          	srli	a6,a6,0x10
800035b8:	02e6d6b3          	divu	a3,a3,a4
800035bc:	010e9e93          	slli	t4,t4,0x10
800035c0:	010eeeb3          	or	t4,t4,a6
800035c4:	02d585b3          	mul	a1,a1,a3
800035c8:	00068793          	mv	a5,a3
800035cc:	00befe63          	bgeu	t4,a1,800035e8 <__umoddi3+0x364>
800035d0:	01ee8eb3          	add	t4,t4,t5
800035d4:	fff68793          	addi	a5,a3,-1
800035d8:	01eee863          	bltu	t4,t5,800035e8 <__umoddi3+0x364>
800035dc:	00bef663          	bgeu	t4,a1,800035e8 <__umoddi3+0x364>
800035e0:	ffe68793          	addi	a5,a3,-2
800035e4:	01ee8eb3          	add	t4,t4,t5
800035e8:	40be85b3          	sub	a1,t4,a1
800035ec:	01089893          	slli	a7,a7,0x10
800035f0:	00010eb7          	lui	t4,0x10
800035f4:	00f8e8b3          	or	a7,a7,a5
800035f8:	fffe8793          	addi	a5,t4,-1 # ffff <__stack_size+0xfbff>
800035fc:	00f8f833          	and	a6,a7,a5
80003600:	01065693          	srli	a3,a2,0x10
80003604:	0108d893          	srli	a7,a7,0x10
80003608:	00f677b3          	and	a5,a2,a5
8000360c:	02f80733          	mul	a4,a6,a5
80003610:	02f887b3          	mul	a5,a7,a5
80003614:	02d80833          	mul	a6,a6,a3
80003618:	02d888b3          	mul	a7,a7,a3
8000361c:	00f80833          	add	a6,a6,a5
80003620:	01075693          	srli	a3,a4,0x10
80003624:	010686b3          	add	a3,a3,a6
80003628:	00f6f463          	bgeu	a3,a5,80003630 <__umoddi3+0x3ac>
8000362c:	01d888b3          	add	a7,a7,t4
80003630:	000107b7          	lui	a5,0x10
80003634:	fff78793          	addi	a5,a5,-1 # ffff <__stack_size+0xfbff>
80003638:	0106d813          	srli	a6,a3,0x10
8000363c:	00f6f6b3          	and	a3,a3,a5
80003640:	01069693          	slli	a3,a3,0x10
80003644:	00f77733          	and	a4,a4,a5
80003648:	011808b3          	add	a7,a6,a7
8000364c:	00e68733          	add	a4,a3,a4
80003650:	0115e663          	bltu	a1,a7,8000365c <__umoddi3+0x3d8>
80003654:	01159e63          	bne	a1,a7,80003670 <__umoddi3+0x3ec>
80003658:	00e57c63          	bgeu	a0,a4,80003670 <__umoddi3+0x3ec>
8000365c:	40c70633          	sub	a2,a4,a2
80003660:	00c73733          	sltu	a4,a4,a2
80003664:	01e70733          	add	a4,a4,t5
80003668:	40e888b3          	sub	a7,a7,a4
8000366c:	00060713          	mv	a4,a2
80003670:	40e50733          	sub	a4,a0,a4
80003674:	00e53533          	sltu	a0,a0,a4
80003678:	411585b3          	sub	a1,a1,a7
8000367c:	40a585b3          	sub	a1,a1,a0
80003680:	01c597b3          	sll	a5,a1,t3
80003684:	00675733          	srl	a4,a4,t1
80003688:	00e7e533          	or	a0,a5,a4
8000368c:	0065d5b3          	srl	a1,a1,t1
80003690:	cd1ff06f          	j	80003360 <__umoddi3+0xdc>

80003694 <__adddf3>:
80003694:	fe010113          	addi	sp,sp,-32
80003698:	00112e23          	sw	ra,28(sp)
8000369c:	00812c23          	sw	s0,24(sp)
800036a0:	00912a23          	sw	s1,20(sp)
800036a4:	01212823          	sw	s2,16(sp)
800036a8:	01312623          	sw	s3,12(sp)
800036ac:	01412423          	sw	s4,8(sp)
800036b0:	002029f3          	frrm	s3
800036b4:	001008b7          	lui	a7,0x100
800036b8:	fff88893          	addi	a7,a7,-1 # fffff <__stack_size+0xffbff>
800036bc:	00b8f7b3          	and	a5,a7,a1
800036c0:	0145d413          	srli	s0,a1,0x14
800036c4:	01f5d493          	srli	s1,a1,0x1f
800036c8:	00d8f5b3          	and	a1,a7,a3
800036cc:	0146d893          	srli	a7,a3,0x14
800036d0:	01d55713          	srli	a4,a0,0x1d
800036d4:	7ff47413          	andi	s0,s0,2047
800036d8:	00379793          	slli	a5,a5,0x3
800036dc:	7ff8f893          	andi	a7,a7,2047
800036e0:	00f767b3          	or	a5,a4,a5
800036e4:	01f6de13          	srli	t3,a3,0x1f
800036e8:	01d65713          	srli	a4,a2,0x1d
800036ec:	00359593          	slli	a1,a1,0x3
800036f0:	411406b3          	sub	a3,s0,a7
800036f4:	00351513          	slli	a0,a0,0x3
800036f8:	00b76733          	or	a4,a4,a1
800036fc:	00361613          	slli	a2,a2,0x3
80003700:	00068813          	mv	a6,a3
80003704:	43c49463          	bne	s1,t3,80003b2c <__adddf3+0x498>
80003708:	14d05663          	blez	a3,80003854 <__adddf3+0x1c0>
8000370c:	04089e63          	bnez	a7,80003768 <__adddf3+0xd4>
80003710:	00c766b3          	or	a3,a4,a2
80003714:	00069863          	bnez	a3,80003724 <__adddf3+0x90>
80003718:	7ff00713          	li	a4,2047
8000371c:	36e81463          	bne	a6,a4,80003a84 <__adddf3+0x3f0>
80003720:	02c0006f          	j	8000374c <__adddf3+0xb8>
80003724:	fff80693          	addi	a3,a6,-1
80003728:	00069e63          	bnez	a3,80003744 <__adddf3+0xb0>
8000372c:	00a60633          	add	a2,a2,a0
80003730:	00e787b3          	add	a5,a5,a4
80003734:	00a636b3          	sltu	a3,a2,a0
80003738:	00d78733          	add	a4,a5,a3
8000373c:	00100813          	li	a6,1
80003740:	0a00006f          	j	800037e0 <__adddf3+0x14c>
80003744:	7ff00593          	li	a1,2047
80003748:	04b81863          	bne	a6,a1,80003798 <__adddf3+0x104>
8000374c:	00a7e733          	or	a4,a5,a0
80003750:	0e0702e3          	beqz	a4,80004034 <__adddf3+0x9a0>
80003754:	00979713          	slli	a4,a5,0x9
80003758:	00000413          	li	s0,0
8000375c:	28074063          	bltz	a4,800039dc <__adddf3+0x348>
80003760:	01000893          	li	a7,16
80003764:	2780006f          	j	800039dc <__adddf3+0x348>
80003768:	7ff00593          	li	a1,2047
8000376c:	02b41263          	bne	s0,a1,80003790 <__adddf3+0xfc>
80003770:	00a7e733          	or	a4,a5,a0
80003774:	0c0706e3          	beqz	a4,80004040 <__adddf3+0x9ac>
80003778:	00979713          	slli	a4,a5,0x9
8000377c:	7ff00813          	li	a6,2047
80003780:	00000413          	li	s0,0
80003784:	fc075ee3          	bgez	a4,80003760 <__adddf3+0xcc>
80003788:	00000893          	li	a7,0
8000378c:	2500006f          	j	800039dc <__adddf3+0x348>
80003790:	008005b7          	lui	a1,0x800
80003794:	00b76733          	or	a4,a4,a1
80003798:	03800593          	li	a1,56
8000379c:	0ad5c663          	blt	a1,a3,80003848 <__adddf3+0x1b4>
800037a0:	01f00593          	li	a1,31
800037a4:	06d5c863          	blt	a1,a3,80003814 <__adddf3+0x180>
800037a8:	02000813          	li	a6,32
800037ac:	40d80833          	sub	a6,a6,a3
800037b0:	00d658b3          	srl	a7,a2,a3
800037b4:	010715b3          	sll	a1,a4,a6
800037b8:	01061633          	sll	a2,a2,a6
800037bc:	0115e5b3          	or	a1,a1,a7
800037c0:	00c03633          	snez	a2,a2
800037c4:	00c5e633          	or	a2,a1,a2
800037c8:	00d756b3          	srl	a3,a4,a3
800037cc:	00a60633          	add	a2,a2,a0
800037d0:	00f686b3          	add	a3,a3,a5
800037d4:	00a637b3          	sltu	a5,a2,a0
800037d8:	00f68733          	add	a4,a3,a5
800037dc:	00040813          	mv	a6,s0
800037e0:	00871793          	slli	a5,a4,0x8
800037e4:	0807d663          	bgez	a5,80003870 <__adddf3+0x1dc>
800037e8:	00180813          	addi	a6,a6,1
800037ec:	7ff00793          	li	a5,2047
800037f0:	30f80663          	beq	a6,a5,80003afc <__adddf3+0x468>
800037f4:	ff8007b7          	lui	a5,0xff800
800037f8:	fff78793          	addi	a5,a5,-1 # ff7fffff <__global_pointer+0x7f7f87f7>
800037fc:	00165513          	srli	a0,a2,0x1
80003800:	00f777b3          	and	a5,a4,a5
80003804:	00167613          	andi	a2,a2,1
80003808:	00c56633          	or	a2,a0,a2
8000380c:	01f79513          	slli	a0,a5,0x1f
80003810:	26c0006f          	j	80003a7c <__adddf3+0x3e8>
80003814:	fe068593          	addi	a1,a3,-32
80003818:	02000893          	li	a7,32
8000381c:	00b755b3          	srl	a1,a4,a1
80003820:	00000813          	li	a6,0
80003824:	01168863          	beq	a3,a7,80003834 <__adddf3+0x1a0>
80003828:	04000813          	li	a6,64
8000382c:	40d806b3          	sub	a3,a6,a3
80003830:	00d71833          	sll	a6,a4,a3
80003834:	00c86633          	or	a2,a6,a2
80003838:	00c03633          	snez	a2,a2
8000383c:	00c5e633          	or	a2,a1,a2
80003840:	00000693          	li	a3,0
80003844:	f89ff06f          	j	800037cc <__adddf3+0x138>
80003848:	00c76633          	or	a2,a4,a2
8000384c:	00c03633          	snez	a2,a2
80003850:	ff1ff06f          	j	80003840 <__adddf3+0x1ac>
80003854:	12068c63          	beqz	a3,8000398c <__adddf3+0x2f8>
80003858:	40888833          	sub	a6,a7,s0
8000385c:	06041463          	bnez	s0,800038c4 <__adddf3+0x230>
80003860:	00a7e6b3          	or	a3,a5,a0
80003864:	00069e63          	bnez	a3,80003880 <__adddf3+0x1ec>
80003868:	7ff00793          	li	a5,2047
8000386c:	02f80e63          	beq	a6,a5,800038a8 <__adddf3+0x214>
80003870:	00070793          	mv	a5,a4
80003874:	00060513          	mv	a0,a2
80003878:	50080863          	beqz	a6,80003d88 <__adddf3+0x6f4>
8000387c:	2080006f          	j	80003a84 <__adddf3+0x3f0>
80003880:	fff80593          	addi	a1,a6,-1
80003884:	00059e63          	bnez	a1,800038a0 <__adddf3+0x20c>
80003888:	00c505b3          	add	a1,a0,a2
8000388c:	00c5b633          	sltu	a2,a1,a2
80003890:	00e787b3          	add	a5,a5,a4
80003894:	00c78733          	add	a4,a5,a2
80003898:	00058613          	mv	a2,a1
8000389c:	ea1ff06f          	j	8000373c <__adddf3+0xa8>
800038a0:	7ff00693          	li	a3,2047
800038a4:	04d81c63          	bne	a6,a3,800038fc <__adddf3+0x268>
800038a8:	00c76533          	or	a0,a4,a2
800038ac:	7a050063          	beqz	a0,8000404c <__adddf3+0x9b8>
800038b0:	00971793          	slli	a5,a4,0x9
800038b4:	7a07c063          	bltz	a5,80004054 <__adddf3+0x9c0>
800038b8:	00070793          	mv	a5,a4
800038bc:	00060513          	mv	a0,a2
800038c0:	ea1ff06f          	j	80003760 <__adddf3+0xcc>
800038c4:	7ff00693          	li	a3,2047
800038c8:	02d89463          	bne	a7,a3,800038f0 <__adddf3+0x25c>
800038cc:	00c76533          	or	a0,a4,a2
800038d0:	72050863          	beqz	a0,80004000 <__adddf3+0x96c>
800038d4:	00971793          	slli	a5,a4,0x9
800038d8:	7207cc63          	bltz	a5,80004010 <__adddf3+0x97c>
800038dc:	00070793          	mv	a5,a4
800038e0:	00060513          	mv	a0,a2
800038e4:	7ff00813          	li	a6,2047
800038e8:	00000413          	li	s0,0
800038ec:	e75ff06f          	j	80003760 <__adddf3+0xcc>
800038f0:	008006b7          	lui	a3,0x800
800038f4:	00d7e7b3          	or	a5,a5,a3
800038f8:	00080593          	mv	a1,a6
800038fc:	03800693          	li	a3,56
80003900:	08b6c063          	blt	a3,a1,80003980 <__adddf3+0x2ec>
80003904:	01f00693          	li	a3,31
80003908:	04b6c263          	blt	a3,a1,8000394c <__adddf3+0x2b8>
8000390c:	02000813          	li	a6,32
80003910:	40b80833          	sub	a6,a6,a1
80003914:	010796b3          	sll	a3,a5,a6
80003918:	00b55333          	srl	t1,a0,a1
8000391c:	01051533          	sll	a0,a0,a6
80003920:	0066e6b3          	or	a3,a3,t1
80003924:	00a03533          	snez	a0,a0
80003928:	00a6e533          	or	a0,a3,a0
8000392c:	00b7d7b3          	srl	a5,a5,a1
80003930:	00c506b3          	add	a3,a0,a2
80003934:	00e787b3          	add	a5,a5,a4
80003938:	00c6b733          	sltu	a4,a3,a2
8000393c:	00e78733          	add	a4,a5,a4
80003940:	00068613          	mv	a2,a3
80003944:	00088813          	mv	a6,a7
80003948:	e99ff06f          	j	800037e0 <__adddf3+0x14c>
8000394c:	fe058693          	addi	a3,a1,-32 # 7fffe0 <__stack_size+0x7ffbe0>
80003950:	02000313          	li	t1,32
80003954:	00d7d6b3          	srl	a3,a5,a3
80003958:	00000813          	li	a6,0
8000395c:	00658863          	beq	a1,t1,8000396c <__adddf3+0x2d8>
80003960:	04000813          	li	a6,64
80003964:	40b805b3          	sub	a1,a6,a1
80003968:	00b79833          	sll	a6,a5,a1
8000396c:	00a86533          	or	a0,a6,a0
80003970:	00a03533          	snez	a0,a0
80003974:	00a6e533          	or	a0,a3,a0
80003978:	00000793          	li	a5,0
8000397c:	fb5ff06f          	j	80003930 <__adddf3+0x29c>
80003980:	00a7e533          	or	a0,a5,a0
80003984:	00a03533          	snez	a0,a0
80003988:	ff1ff06f          	j	80003978 <__adddf3+0x2e4>
8000398c:	00140813          	addi	a6,s0,1
80003990:	7fe87693          	andi	a3,a6,2046
80003994:	0c069463          	bnez	a3,80003a5c <__adddf3+0x3c8>
80003998:	00a7e5b3          	or	a1,a5,a0
8000399c:	04041e63          	bnez	s0,800039f8 <__adddf3+0x364>
800039a0:	60058263          	beqz	a1,80003fa4 <__adddf3+0x910>
800039a4:	00c766b3          	or	a3,a4,a2
800039a8:	3e068063          	beqz	a3,80003d88 <__adddf3+0x6f4>
800039ac:	00c50633          	add	a2,a0,a2
800039b0:	00e787b3          	add	a5,a5,a4
800039b4:	00a63533          	sltu	a0,a2,a0
800039b8:	00a787b3          	add	a5,a5,a0
800039bc:	00879713          	slli	a4,a5,0x8
800039c0:	5e075463          	bgez	a4,80003fa8 <__adddf3+0x914>
800039c4:	ff800737          	lui	a4,0xff800
800039c8:	fff70713          	addi	a4,a4,-1 # ff7fffff <__global_pointer+0x7f7f87f7>
800039cc:	00e7f7b3          	and	a5,a5,a4
800039d0:	00060513          	mv	a0,a2
800039d4:	00000893          	li	a7,0
800039d8:	00100813          	li	a6,1
800039dc:	00757713          	andi	a4,a0,7
800039e0:	0e071263          	bnez	a4,80003ac4 <__adddf3+0x430>
800039e4:	74040663          	beqz	s0,80004130 <__adddf3+0xa9c>
800039e8:	0018f713          	andi	a4,a7,1
800039ec:	74070263          	beqz	a4,80004130 <__adddf3+0xa9c>
800039f0:	0028e893          	ori	a7,a7,2
800039f4:	73c0006f          	j	80004130 <__adddf3+0xa9c>
800039f8:	7ff00693          	li	a3,2047
800039fc:	04d41663          	bne	s0,a3,80003a48 <__adddf3+0x3b4>
80003a00:	7e058263          	beqz	a1,800041e4 <__adddf3+0xb50>
80003a04:	004006b7          	lui	a3,0x400
80003a08:	00d7f6b3          	and	a3,a5,a3
80003a0c:	0016b693          	seqz	a3,a3
80003a10:	00469693          	slli	a3,a3,0x4
80003a14:	70889063          	bne	a7,s0,80004114 <__adddf3+0xa80>
80003a18:	00068893          	mv	a7,a3
80003a1c:	00c766b3          	or	a3,a4,a2
80003a20:	00068863          	beqz	a3,80003a30 <__adddf3+0x39c>
80003a24:	00971693          	slli	a3,a4,0x9
80003a28:	0006c463          	bltz	a3,80003a30 <__adddf3+0x39c>
80003a2c:	01000893          	li	a7,16
80003a30:	6e059463          	bnez	a1,80004118 <__adddf3+0xa84>
80003a34:	00070793          	mv	a5,a4
80003a38:	00060513          	mv	a0,a2
80003a3c:	00000413          	li	s0,0
80003a40:	7ff00813          	li	a6,2047
80003a44:	f99ff06f          	j	800039dc <__adddf3+0x348>
80003a48:	00d89663          	bne	a7,a3,80003a54 <__adddf3+0x3c0>
80003a4c:	00000893          	li	a7,0
80003a50:	fcdff06f          	j	80003a1c <__adddf3+0x388>
80003a54:	00000893          	li	a7,0
80003a58:	fd9ff06f          	j	80003a30 <__adddf3+0x39c>
80003a5c:	7ff00693          	li	a3,2047
80003a60:	02d80663          	beq	a6,a3,80003a8c <__adddf3+0x3f8>
80003a64:	00c50633          	add	a2,a0,a2
80003a68:	00a63533          	sltu	a0,a2,a0
80003a6c:	00e787b3          	add	a5,a5,a4
80003a70:	00a787b3          	add	a5,a5,a0
80003a74:	01f79513          	slli	a0,a5,0x1f
80003a78:	00165613          	srli	a2,a2,0x1
80003a7c:	00c56533          	or	a0,a0,a2
80003a80:	0017d793          	srli	a5,a5,0x1
80003a84:	00000413          	li	s0,0
80003a88:	d01ff06f          	j	80003788 <__adddf3+0xf4>
80003a8c:	00098863          	beqz	s3,80003a9c <__adddf3+0x408>
80003a90:	00300793          	li	a5,3
80003a94:	00f99863          	bne	s3,a5,80003aa4 <__adddf3+0x410>
80003a98:	00049c63          	bnez	s1,80003ab0 <__adddf3+0x41c>
80003a9c:	7ff00813          	li	a6,2047
80003aa0:	06c0006f          	j	80003b0c <__adddf3+0x478>
80003aa4:	00200793          	li	a5,2
80003aa8:	00f99463          	bne	s3,a5,80003ab0 <__adddf3+0x41c>
80003aac:	fe0498e3          	bnez	s1,80003a9c <__adddf3+0x408>
80003ab0:	00000413          	li	s0,0
80003ab4:	fff00793          	li	a5,-1
80003ab8:	fff00513          	li	a0,-1
80003abc:	7fe00813          	li	a6,2046
80003ac0:	00500893          	li	a7,5
80003ac4:	00200713          	li	a4,2
80003ac8:	0018e893          	ori	a7,a7,1
80003acc:	60e98263          	beq	s3,a4,800040d0 <__adddf3+0xa3c>
80003ad0:	00300713          	li	a4,3
80003ad4:	5ee98863          	beq	s3,a4,800040c4 <__adddf3+0xa30>
80003ad8:	5e099e63          	bnez	s3,800040d4 <__adddf3+0xa40>
80003adc:	00f57713          	andi	a4,a0,15
80003ae0:	00400693          	li	a3,4
80003ae4:	5ed70863          	beq	a4,a3,800040d4 <__adddf3+0xa40>
80003ae8:	00450713          	addi	a4,a0,4
80003aec:	00a73533          	sltu	a0,a4,a0
80003af0:	00a787b3          	add	a5,a5,a0
80003af4:	00070513          	mv	a0,a4
80003af8:	5dc0006f          	j	800040d4 <__adddf3+0xa40>
80003afc:	00098863          	beqz	s3,80003b0c <__adddf3+0x478>
80003b00:	00300793          	li	a5,3
80003b04:	00f99c63          	bne	s3,a5,80003b1c <__adddf3+0x488>
80003b08:	50049c63          	bnez	s1,80004020 <__adddf3+0x98c>
80003b0c:	00000793          	li	a5,0
80003b10:	00000513          	li	a0,0
80003b14:	00500893          	li	a7,5
80003b18:	6180006f          	j	80004130 <__adddf3+0xa9c>
80003b1c:	00200793          	li	a5,2
80003b20:	50f99063          	bne	s3,a5,80004020 <__adddf3+0x98c>
80003b24:	fe0494e3          	bnez	s1,80003b0c <__adddf3+0x478>
80003b28:	f89ff06f          	j	80003ab0 <__adddf3+0x41c>
80003b2c:	0ed05a63          	blez	a3,80003c20 <__adddf3+0x58c>
80003b30:	08089e63          	bnez	a7,80003bcc <__adddf3+0x538>
80003b34:	00c766b3          	or	a3,a4,a2
80003b38:	be0680e3          	beqz	a3,80003718 <__adddf3+0x84>
80003b3c:	fff80693          	addi	a3,a6,-1
80003b40:	00069e63          	bnez	a3,80003b5c <__adddf3+0x4c8>
80003b44:	40c50633          	sub	a2,a0,a2
80003b48:	40e787b3          	sub	a5,a5,a4
80003b4c:	00c536b3          	sltu	a3,a0,a2
80003b50:	40d78733          	sub	a4,a5,a3
80003b54:	00100813          	li	a6,1
80003b58:	0540006f          	j	80003bac <__adddf3+0x518>
80003b5c:	7ff00593          	li	a1,2047
80003b60:	beb806e3          	beq	a6,a1,8000374c <__adddf3+0xb8>
80003b64:	03800593          	li	a1,56
80003b68:	0ad5c663          	blt	a1,a3,80003c14 <__adddf3+0x580>
80003b6c:	01f00593          	li	a1,31
80003b70:	06d5c863          	blt	a1,a3,80003be0 <__adddf3+0x54c>
80003b74:	02000813          	li	a6,32
80003b78:	40d80833          	sub	a6,a6,a3
80003b7c:	00d658b3          	srl	a7,a2,a3
80003b80:	010715b3          	sll	a1,a4,a6
80003b84:	01061633          	sll	a2,a2,a6
80003b88:	0115e5b3          	or	a1,a1,a7
80003b8c:	00c03633          	snez	a2,a2
80003b90:	00c5e633          	or	a2,a1,a2
80003b94:	00d756b3          	srl	a3,a4,a3
80003b98:	40c50633          	sub	a2,a0,a2
80003b9c:	40d786b3          	sub	a3,a5,a3
80003ba0:	00c537b3          	sltu	a5,a0,a2
80003ba4:	40f68733          	sub	a4,a3,a5
80003ba8:	00040813          	mv	a6,s0
80003bac:	00871793          	slli	a5,a4,0x8
80003bb0:	cc07d0e3          	bgez	a5,80003870 <__adddf3+0x1dc>
80003bb4:	00800937          	lui	s2,0x800
80003bb8:	fff90913          	addi	s2,s2,-1 # 7fffff <__stack_size+0x7ffbff>
80003bbc:	01277933          	and	s2,a4,s2
80003bc0:	00060a13          	mv	s4,a2
80003bc4:	00080413          	mv	s0,a6
80003bc8:	3000006f          	j	80003ec8 <__adddf3+0x834>
80003bcc:	7ff00593          	li	a1,2047
80003bd0:	bab400e3          	beq	s0,a1,80003770 <__adddf3+0xdc>
80003bd4:	008005b7          	lui	a1,0x800
80003bd8:	00b76733          	or	a4,a4,a1
80003bdc:	f89ff06f          	j	80003b64 <__adddf3+0x4d0>
80003be0:	fe068593          	addi	a1,a3,-32 # 3fffe0 <__stack_size+0x3ffbe0>
80003be4:	02000893          	li	a7,32
80003be8:	00b755b3          	srl	a1,a4,a1
80003bec:	00000813          	li	a6,0
80003bf0:	01168863          	beq	a3,a7,80003c00 <__adddf3+0x56c>
80003bf4:	04000813          	li	a6,64
80003bf8:	40d806b3          	sub	a3,a6,a3
80003bfc:	00d71833          	sll	a6,a4,a3
80003c00:	00c86633          	or	a2,a6,a2
80003c04:	00c03633          	snez	a2,a2
80003c08:	00c5e633          	or	a2,a1,a2
80003c0c:	00000693          	li	a3,0
80003c10:	f89ff06f          	j	80003b98 <__adddf3+0x504>
80003c14:	00c76633          	or	a2,a4,a2
80003c18:	00c03633          	snez	a2,a2
80003c1c:	ff1ff06f          	j	80003c0c <__adddf3+0x578>
80003c20:	12068c63          	beqz	a3,80003d58 <__adddf3+0x6c4>
80003c24:	40888833          	sub	a6,a7,s0
80003c28:	06041263          	bnez	s0,80003c8c <__adddf3+0x5f8>
80003c2c:	00a7e6b3          	or	a3,a5,a0
80003c30:	00069863          	bnez	a3,80003c40 <__adddf3+0x5ac>
80003c34:	7ff00793          	li	a5,2047
80003c38:	000e0493          	mv	s1,t3
80003c3c:	c31ff06f          	j	8000386c <__adddf3+0x1d8>
80003c40:	fff80313          	addi	t1,a6,-1
80003c44:	02031063          	bnez	t1,80003c64 <__adddf3+0x5d0>
80003c48:	40a605b3          	sub	a1,a2,a0
80003c4c:	00b63633          	sltu	a2,a2,a1
80003c50:	40f707b3          	sub	a5,a4,a5
80003c54:	40c78733          	sub	a4,a5,a2
80003c58:	000e0493          	mv	s1,t3
80003c5c:	00058613          	mv	a2,a1
80003c60:	ef5ff06f          	j	80003b54 <__adddf3+0x4c0>
80003c64:	7ff00693          	li	a3,2047
80003c68:	04d81e63          	bne	a6,a3,80003cc4 <__adddf3+0x630>
80003c6c:	00c76533          	or	a0,a4,a2
80003c70:	3e050863          	beqz	a0,80004060 <__adddf3+0x9cc>
80003c74:	00971793          	slli	a5,a4,0x9
80003c78:	3e07ca63          	bltz	a5,8000406c <__adddf3+0x9d8>
80003c7c:	00070793          	mv	a5,a4
80003c80:	00060513          	mv	a0,a2
80003c84:	000e0493          	mv	s1,t3
80003c88:	ad9ff06f          	j	80003760 <__adddf3+0xcc>
80003c8c:	7ff00693          	li	a3,2047
80003c90:	02d89463          	bne	a7,a3,80003cb8 <__adddf3+0x624>
80003c94:	00c76533          	or	a0,a4,a2
80003c98:	3e050263          	beqz	a0,8000407c <__adddf3+0x9e8>
80003c9c:	00971793          	slli	a5,a4,0x9
80003ca0:	3e07c463          	bltz	a5,80004088 <__adddf3+0x9f4>
80003ca4:	00070793          	mv	a5,a4
80003ca8:	00060513          	mv	a0,a2
80003cac:	7ff00813          	li	a6,2047
80003cb0:	000e0493          	mv	s1,t3
80003cb4:	c35ff06f          	j	800038e8 <__adddf3+0x254>
80003cb8:	008006b7          	lui	a3,0x800
80003cbc:	00d7e7b3          	or	a5,a5,a3
80003cc0:	00080313          	mv	t1,a6
80003cc4:	03800693          	li	a3,56
80003cc8:	0866c263          	blt	a3,t1,80003d4c <__adddf3+0x6b8>
80003ccc:	01f00693          	li	a3,31
80003cd0:	0466c463          	blt	a3,t1,80003d18 <__adddf3+0x684>
80003cd4:	02000693          	li	a3,32
80003cd8:	406686b3          	sub	a3,a3,t1
80003cdc:	00d795b3          	sll	a1,a5,a3
80003ce0:	00655833          	srl	a6,a0,t1
80003ce4:	00d51533          	sll	a0,a0,a3
80003ce8:	0105e5b3          	or	a1,a1,a6
80003cec:	00a03533          	snez	a0,a0
80003cf0:	00a5e533          	or	a0,a1,a0
80003cf4:	0067d7b3          	srl	a5,a5,t1
80003cf8:	40a605b3          	sub	a1,a2,a0
80003cfc:	40f707b3          	sub	a5,a4,a5
80003d00:	00b63733          	sltu	a4,a2,a1
80003d04:	40e78733          	sub	a4,a5,a4
80003d08:	00058613          	mv	a2,a1
80003d0c:	00088813          	mv	a6,a7
80003d10:	000e0493          	mv	s1,t3
80003d14:	e99ff06f          	j	80003bac <__adddf3+0x518>
80003d18:	fe030593          	addi	a1,t1,-32 # ffffe0 <__stack_size+0xfffbe0>
80003d1c:	02000813          	li	a6,32
80003d20:	00b7d5b3          	srl	a1,a5,a1
80003d24:	00000693          	li	a3,0
80003d28:	01030863          	beq	t1,a6,80003d38 <__adddf3+0x6a4>
80003d2c:	04000693          	li	a3,64
80003d30:	40668333          	sub	t1,a3,t1
80003d34:	006796b3          	sll	a3,a5,t1
80003d38:	00a6e533          	or	a0,a3,a0
80003d3c:	00a03533          	snez	a0,a0
80003d40:	00a5e533          	or	a0,a1,a0
80003d44:	00000793          	li	a5,0
80003d48:	fb1ff06f          	j	80003cf8 <__adddf3+0x664>
80003d4c:	00a7e533          	or	a0,a5,a0
80003d50:	00a03533          	snez	a0,a0
80003d54:	ff1ff06f          	j	80003d44 <__adddf3+0x6b0>
80003d58:	00140693          	addi	a3,s0,1
80003d5c:	7fe6f693          	andi	a3,a3,2046
80003d60:	12069e63          	bnez	a3,80003e9c <__adddf3+0x808>
80003d64:	00a7e833          	or	a6,a5,a0
80003d68:	00c765b3          	or	a1,a4,a2
80003d6c:	0c041863          	bnez	s0,80003e3c <__adddf3+0x7a8>
80003d70:	08081063          	bnez	a6,80003df0 <__adddf3+0x75c>
80003d74:	22059e63          	bnez	a1,80003fb0 <__adddf3+0x91c>
80003d78:	ffe98493          	addi	s1,s3,-2
80003d7c:	0014b493          	seqz	s1,s1
80003d80:	00000793          	li	a5,0
80003d84:	00000513          	li	a0,0
80003d88:	00f56733          	or	a4,a0,a5
80003d8c:	32070463          	beqz	a4,800040b4 <__adddf3+0xa20>
80003d90:	01f55713          	srli	a4,a0,0x1f
80003d94:	00179413          	slli	s0,a5,0x1
80003d98:	00e40433          	add	s0,s0,a4
80003d9c:	00151713          	slli	a4,a0,0x1
80003da0:	00777693          	andi	a3,a4,7
80003da4:	00000893          	li	a7,0
80003da8:	02068a63          	beqz	a3,80003ddc <__adddf3+0x748>
80003dac:	00200693          	li	a3,2
80003db0:	22d98a63          	beq	s3,a3,80003fe4 <__adddf3+0x950>
80003db4:	00300693          	li	a3,3
80003db8:	20d98863          	beq	s3,a3,80003fc8 <__adddf3+0x934>
80003dbc:	00100893          	li	a7,1
80003dc0:	00099e63          	bnez	s3,80003ddc <__adddf3+0x748>
80003dc4:	00f77693          	andi	a3,a4,15
80003dc8:	00400613          	li	a2,4
80003dcc:	00c68863          	beq	a3,a2,80003ddc <__adddf3+0x748>
80003dd0:	ffc73713          	sltiu	a4,a4,-4
80003dd4:	00174713          	xori	a4,a4,1
80003dd8:	00e40433          	add	s0,s0,a4
80003ddc:	01845413          	srli	s0,s0,0x18
80003de0:	00144413          	xori	s0,s0,1
80003de4:	00147413          	andi	s0,s0,1
80003de8:	00000813          	li	a6,0
80003dec:	bf1ff06f          	j	800039dc <__adddf3+0x348>
80003df0:	f8058ce3          	beqz	a1,80003d88 <__adddf3+0x6f4>
80003df4:	40c505b3          	sub	a1,a0,a2
80003df8:	00b53833          	sltu	a6,a0,a1
80003dfc:	40e786b3          	sub	a3,a5,a4
80003e00:	410686b3          	sub	a3,a3,a6
80003e04:	00869813          	slli	a6,a3,0x8
80003e08:	00085e63          	bgez	a6,80003e24 <__adddf3+0x790>
80003e0c:	40a60533          	sub	a0,a2,a0
80003e10:	40f707b3          	sub	a5,a4,a5
80003e14:	00a63633          	sltu	a2,a2,a0
80003e18:	40c787b3          	sub	a5,a5,a2
80003e1c:	000e0493          	mv	s1,t3
80003e20:	f69ff06f          	j	80003d88 <__adddf3+0x6f4>
80003e24:	00d5e533          	or	a0,a1,a3
80003e28:	18051a63          	bnez	a0,80003fbc <__adddf3+0x928>
80003e2c:	ffe98493          	addi	s1,s3,-2
80003e30:	0014b493          	seqz	s1,s1
80003e34:	00000793          	li	a5,0
80003e38:	f51ff06f          	j	80003d88 <__adddf3+0x6f4>
80003e3c:	7ff00693          	li	a3,2047
80003e40:	02d41263          	bne	s0,a3,80003e64 <__adddf3+0x7d0>
80003e44:	38080463          	beqz	a6,800041cc <__adddf3+0xb38>
80003e48:	004006b7          	lui	a3,0x400
80003e4c:	00d7f6b3          	and	a3,a5,a3
80003e50:	0016b693          	seqz	a3,a3
80003e54:	00469693          	slli	a3,a3,0x4
80003e58:	38889063          	bne	a7,s0,800041d8 <__adddf3+0xb44>
80003e5c:	00068893          	mv	a7,a3
80003e60:	00c0006f          	j	80003e6c <__adddf3+0x7d8>
80003e64:	02d89863          	bne	a7,a3,80003e94 <__adddf3+0x800>
80003e68:	00000893          	li	a7,0
80003e6c:	00058863          	beqz	a1,80003e7c <__adddf3+0x7e8>
80003e70:	00971693          	slli	a3,a4,0x9
80003e74:	0006c463          	bltz	a3,80003e7c <__adddf3+0x7e8>
80003e78:	01000893          	li	a7,16
80003e7c:	36081063          	bnez	a6,800041dc <__adddf3+0xb48>
80003e80:	20058e63          	beqz	a1,8000409c <__adddf3+0xa08>
80003e84:	00070793          	mv	a5,a4
80003e88:	00060513          	mv	a0,a2
80003e8c:	000e0493          	mv	s1,t3
80003e90:	badff06f          	j	80003a3c <__adddf3+0x3a8>
80003e94:	00000893          	li	a7,0
80003e98:	fe5ff06f          	j	80003e7c <__adddf3+0x7e8>
80003e9c:	40c50a33          	sub	s4,a0,a2
80003ea0:	014536b3          	sltu	a3,a0,s4
80003ea4:	40e78933          	sub	s2,a5,a4
80003ea8:	40d90933          	sub	s2,s2,a3
80003eac:	00891693          	slli	a3,s2,0x8
80003eb0:	0806d263          	bgez	a3,80003f34 <__adddf3+0x8a0>
80003eb4:	40a60a33          	sub	s4,a2,a0
80003eb8:	40f707b3          	sub	a5,a4,a5
80003ebc:	01463733          	sltu	a4,a2,s4
80003ec0:	40e78933          	sub	s2,a5,a4
80003ec4:	000e0493          	mv	s1,t3
80003ec8:	06090c63          	beqz	s2,80003f40 <__adddf3+0x8ac>
80003ecc:	00090513          	mv	a0,s2
80003ed0:	494020ef          	jal	ra,80006364 <__clzsi2>
80003ed4:	ff850813          	addi	a6,a0,-8
80003ed8:	01f00793          	li	a5,31
80003edc:	0707ca63          	blt	a5,a6,80003f50 <__adddf3+0x8bc>
80003ee0:	02000793          	li	a5,32
80003ee4:	410787b3          	sub	a5,a5,a6
80003ee8:	01091733          	sll	a4,s2,a6
80003eec:	00fa57b3          	srl	a5,s4,a5
80003ef0:	00e7e7b3          	or	a5,a5,a4
80003ef4:	010a1633          	sll	a2,s4,a6
80003ef8:	08884c63          	blt	a6,s0,80003f90 <__adddf3+0x8fc>
80003efc:	40880833          	sub	a6,a6,s0
80003f00:	00180593          	addi	a1,a6,1
80003f04:	01f00713          	li	a4,31
80003f08:	04b74c63          	blt	a4,a1,80003f60 <__adddf3+0x8cc>
80003f0c:	02000693          	li	a3,32
80003f10:	40b686b3          	sub	a3,a3,a1
80003f14:	00d79533          	sll	a0,a5,a3
80003f18:	00b65733          	srl	a4,a2,a1
80003f1c:	00d61633          	sll	a2,a2,a3
80003f20:	00e56533          	or	a0,a0,a4
80003f24:	00c03633          	snez	a2,a2
80003f28:	00c56533          	or	a0,a0,a2
80003f2c:	00b7d7b3          	srl	a5,a5,a1
80003f30:	e59ff06f          	j	80003d88 <__adddf3+0x6f4>
80003f34:	012a6533          	or	a0,s4,s2
80003f38:	f80518e3          	bnez	a0,80003ec8 <__adddf3+0x834>
80003f3c:	ef1ff06f          	j	80003e2c <__adddf3+0x798>
80003f40:	000a0513          	mv	a0,s4
80003f44:	420020ef          	jal	ra,80006364 <__clzsi2>
80003f48:	02050513          	addi	a0,a0,32
80003f4c:	f89ff06f          	j	80003ed4 <__adddf3+0x840>
80003f50:	fd850793          	addi	a5,a0,-40
80003f54:	00fa17b3          	sll	a5,s4,a5
80003f58:	00000613          	li	a2,0
80003f5c:	f9dff06f          	j	80003ef8 <__adddf3+0x864>
80003f60:	fe180813          	addi	a6,a6,-31
80003f64:	02000693          	li	a3,32
80003f68:	0107d833          	srl	a6,a5,a6
80003f6c:	00000713          	li	a4,0
80003f70:	00d58863          	beq	a1,a3,80003f80 <__adddf3+0x8ec>
80003f74:	04000713          	li	a4,64
80003f78:	40b70733          	sub	a4,a4,a1
80003f7c:	00e79733          	sll	a4,a5,a4
80003f80:	00e66733          	or	a4,a2,a4
80003f84:	00e03533          	snez	a0,a4
80003f88:	00a86533          	or	a0,a6,a0
80003f8c:	ea9ff06f          	j	80003e34 <__adddf3+0x7a0>
80003f90:	ff800737          	lui	a4,0xff800
80003f94:	fff70513          	addi	a0,a4,-1 # ff7fffff <__global_pointer+0x7f7f87f7>
80003f98:	41040833          	sub	a6,s0,a6
80003f9c:	00a7f733          	and	a4,a5,a0
80003fa0:	8d1ff06f          	j	80003870 <__adddf3+0x1dc>
80003fa4:	00070793          	mv	a5,a4
80003fa8:	00060513          	mv	a0,a2
80003fac:	dddff06f          	j	80003d88 <__adddf3+0x6f4>
80003fb0:	00070793          	mv	a5,a4
80003fb4:	00060513          	mv	a0,a2
80003fb8:	e65ff06f          	j	80003e1c <__adddf3+0x788>
80003fbc:	00068793          	mv	a5,a3
80003fc0:	00058513          	mv	a0,a1
80003fc4:	dc5ff06f          	j	80003d88 <__adddf3+0x6f4>
80003fc8:	00048893          	mv	a7,s1
80003fcc:	e00498e3          	bnez	s1,80003ddc <__adddf3+0x748>
80003fd0:	ff873713          	sltiu	a4,a4,-8
80003fd4:	00174713          	xori	a4,a4,1
80003fd8:	00e40433          	add	s0,s0,a4
80003fdc:	00100893          	li	a7,1
80003fe0:	dfdff06f          	j	80003ddc <__adddf3+0x748>
80003fe4:	00100893          	li	a7,1
80003fe8:	de048ae3          	beqz	s1,80003ddc <__adddf3+0x748>
80003fec:	ff873713          	sltiu	a4,a4,-8
80003ff0:	00174713          	xori	a4,a4,1
80003ff4:	00e40433          	add	s0,s0,a4
80003ff8:	00048893          	mv	a7,s1
80003ffc:	de1ff06f          	j	80003ddc <__adddf3+0x748>
80004000:	00000793          	li	a5,0
80004004:	7ff00813          	li	a6,2047
80004008:	00000893          	li	a7,0
8000400c:	1240006f          	j	80004130 <__adddf3+0xa9c>
80004010:	00070793          	mv	a5,a4
80004014:	00060513          	mv	a0,a2
80004018:	7ff00813          	li	a6,2047
8000401c:	a69ff06f          	j	80003a84 <__adddf3+0x3f0>
80004020:	fff00793          	li	a5,-1
80004024:	fff00513          	li	a0,-1
80004028:	7fe00813          	li	a6,2046
8000402c:	00000413          	li	s0,0
80004030:	a91ff06f          	j	80003ac0 <__adddf3+0x42c>
80004034:	00000793          	li	a5,0
80004038:	00000513          	li	a0,0
8000403c:	0f40006f          	j	80004130 <__adddf3+0xa9c>
80004040:	00000793          	li	a5,0
80004044:	00000513          	li	a0,0
80004048:	fbdff06f          	j	80004004 <__adddf3+0x970>
8000404c:	00000793          	li	a5,0
80004050:	fb9ff06f          	j	80004008 <__adddf3+0x974>
80004054:	00070793          	mv	a5,a4
80004058:	00060513          	mv	a0,a2
8000405c:	f2cff06f          	j	80003788 <__adddf3+0xf4>
80004060:	00000793          	li	a5,0
80004064:	000e0493          	mv	s1,t3
80004068:	fa1ff06f          	j	80004008 <__adddf3+0x974>
8000406c:	00070793          	mv	a5,a4
80004070:	00060513          	mv	a0,a2
80004074:	000e0493          	mv	s1,t3
80004078:	f10ff06f          	j	80003788 <__adddf3+0xf4>
8000407c:	00000793          	li	a5,0
80004080:	7ff00813          	li	a6,2047
80004084:	fe1ff06f          	j	80004064 <__adddf3+0x9d0>
80004088:	00070793          	mv	a5,a4
8000408c:	00060513          	mv	a0,a2
80004090:	7ff00813          	li	a6,2047
80004094:	000e0493          	mv	s1,t3
80004098:	9edff06f          	j	80003a84 <__adddf3+0x3f0>
8000409c:	00000513          	li	a0,0
800040a0:	00000493          	li	s1,0
800040a4:	004007b7          	lui	a5,0x400
800040a8:	7ff00813          	li	a6,2047
800040ac:	01000893          	li	a7,16
800040b0:	0800006f          	j	80004130 <__adddf3+0xa9c>
800040b4:	00000793          	li	a5,0
800040b8:	00000513          	li	a0,0
800040bc:	00000813          	li	a6,0
800040c0:	f49ff06f          	j	80004008 <__adddf3+0x974>
800040c4:	00049863          	bnez	s1,800040d4 <__adddf3+0xa40>
800040c8:	00850713          	addi	a4,a0,8
800040cc:	a21ff06f          	j	80003aec <__adddf3+0x458>
800040d0:	fe049ce3          	bnez	s1,800040c8 <__adddf3+0xa34>
800040d4:	90041ee3          	bnez	s0,800039f0 <__adddf3+0x35c>
800040d8:	0580006f          	j	80004130 <__adddf3+0xa9c>
800040dc:	00000513          	li	a0,0
800040e0:	02098463          	beqz	s3,80004108 <__adddf3+0xa74>
800040e4:	00300793          	li	a5,3
800040e8:	00f99a63          	bne	s3,a5,800040fc <__adddf3+0xa68>
800040ec:	00048e63          	beqz	s1,80004108 <__adddf3+0xa74>
800040f0:	fff00513          	li	a0,-1
800040f4:	7fe00813          	li	a6,2046
800040f8:	0100006f          	j	80004108 <__adddf3+0xa74>
800040fc:	00200793          	li	a5,2
80004100:	fef998e3          	bne	s3,a5,800040f0 <__adddf3+0xa5c>
80004104:	fe0486e3          	beqz	s1,800040f0 <__adddf3+0xa5c>
80004108:	0058e893          	ori	a7,a7,5
8000410c:	00050793          	mv	a5,a0
80004110:	0400006f          	j	80004150 <__adddf3+0xabc>
80004114:	00068893          	mv	a7,a3
80004118:	00c76733          	or	a4,a4,a2
8000411c:	920700e3          	beqz	a4,80003a3c <__adddf3+0x3a8>
80004120:	00000493          	li	s1,0
80004124:	004007b7          	lui	a5,0x400
80004128:	00000513          	li	a0,0
8000412c:	7ff00813          	li	a6,2047
80004130:	00879713          	slli	a4,a5,0x8
80004134:	00075e63          	bgez	a4,80004150 <__adddf3+0xabc>
80004138:	00180813          	addi	a6,a6,1
8000413c:	7ff00713          	li	a4,2047
80004140:	f8e80ee3          	beq	a6,a4,800040dc <__adddf3+0xa48>
80004144:	ff800737          	lui	a4,0xff800
80004148:	fff70713          	addi	a4,a4,-1 # ff7fffff <__global_pointer+0x7f7f87f7>
8000414c:	00e7f7b3          	and	a5,a5,a4
80004150:	01d79713          	slli	a4,a5,0x1d
80004154:	00355513          	srli	a0,a0,0x3
80004158:	00a76533          	or	a0,a4,a0
8000415c:	7ff00713          	li	a4,2047
80004160:	0037d793          	srli	a5,a5,0x3
80004164:	00e81e63          	bne	a6,a4,80004180 <__adddf3+0xaec>
80004168:	00f56533          	or	a0,a0,a5
8000416c:	00000793          	li	a5,0
80004170:	00050863          	beqz	a0,80004180 <__adddf3+0xaec>
80004174:	000807b7          	lui	a5,0x80
80004178:	00000513          	li	a0,0
8000417c:	00000493          	li	s1,0
80004180:	7ff00737          	lui	a4,0x7ff00
80004184:	01481813          	slli	a6,a6,0x14
80004188:	00c79793          	slli	a5,a5,0xc
8000418c:	00e87833          	and	a6,a6,a4
80004190:	00c7d793          	srli	a5,a5,0xc
80004194:	00f867b3          	or	a5,a6,a5
80004198:	01f49493          	slli	s1,s1,0x1f
8000419c:	0097e733          	or	a4,a5,s1
800041a0:	00070593          	mv	a1,a4
800041a4:	00088463          	beqz	a7,800041ac <__adddf3+0xb18>
800041a8:	0018a073          	csrs	fflags,a7
800041ac:	01c12083          	lw	ra,28(sp)
800041b0:	01812403          	lw	s0,24(sp)
800041b4:	01412483          	lw	s1,20(sp)
800041b8:	01012903          	lw	s2,16(sp)
800041bc:	00c12983          	lw	s3,12(sp)
800041c0:	00812a03          	lw	s4,8(sp)
800041c4:	02010113          	addi	sp,sp,32
800041c8:	00008067          	ret
800041cc:	c8888ee3          	beq	a7,s0,80003e68 <__adddf3+0x7d4>
800041d0:	00000893          	li	a7,0
800041d4:	cadff06f          	j	80003e80 <__adddf3+0x7ec>
800041d8:	00068893          	mv	a7,a3
800041dc:	860580e3          	beqz	a1,80003a3c <__adddf3+0x3a8>
800041e0:	f41ff06f          	j	80004120 <__adddf3+0xa8c>
800041e4:	868884e3          	beq	a7,s0,80003a4c <__adddf3+0x3b8>
800041e8:	00000893          	li	a7,0
800041ec:	849ff06f          	j	80003a34 <__adddf3+0x3a0>

800041f0 <__divdf3>:
800041f0:	fd010113          	addi	sp,sp,-48
800041f4:	02812423          	sw	s0,40(sp)
800041f8:	01512a23          	sw	s5,20(sp)
800041fc:	01812423          	sw	s8,8(sp)
80004200:	02112623          	sw	ra,44(sp)
80004204:	02912223          	sw	s1,36(sp)
80004208:	03212023          	sw	s2,32(sp)
8000420c:	01312e23          	sw	s3,28(sp)
80004210:	01412c23          	sw	s4,24(sp)
80004214:	01612823          	sw	s6,16(sp)
80004218:	01712623          	sw	s7,12(sp)
8000421c:	01912223          	sw	s9,4(sp)
80004220:	00050413          	mv	s0,a0
80004224:	00060c13          	mv	s8,a2
80004228:	00068a93          	mv	s5,a3
8000422c:	00202973          	frrm	s2
80004230:	0145d793          	srli	a5,a1,0x14
80004234:	00c59b93          	slli	s7,a1,0xc
80004238:	01579713          	slli	a4,a5,0x15
8000423c:	00cbdb93          	srli	s7,s7,0xc
80004240:	01f5da13          	srli	s4,a1,0x1f
80004244:	02070c63          	beqz	a4,8000427c <__divdf3+0x8c>
80004248:	7ff7fb13          	andi	s6,a5,2047
8000424c:	7ff00793          	li	a5,2047
80004250:	08fb0863          	beq	s6,a5,800042e0 <__divdf3+0xf0>
80004254:	01d55713          	srli	a4,a0,0x1d
80004258:	003b9b93          	slli	s7,s7,0x3
8000425c:	01776bb3          	or	s7,a4,s7
80004260:	008007b7          	lui	a5,0x800
80004264:	00fbebb3          	or	s7,s7,a5
80004268:	00351993          	slli	s3,a0,0x3
8000426c:	c01b0b13          	addi	s6,s6,-1023
80004270:	00000c93          	li	s9,0
80004274:	00000493          	li	s1,0
80004278:	0880006f          	j	80004300 <__divdf3+0x110>
8000427c:	00abe7b3          	or	a5,s7,a0
80004280:	0e078e63          	beqz	a5,8000437c <__divdf3+0x18c>
80004284:	040b8063          	beqz	s7,800042c4 <__divdf3+0xd4>
80004288:	000b8513          	mv	a0,s7
8000428c:	0d8020ef          	jal	ra,80006364 <__clzsi2>
80004290:	ff550713          	addi	a4,a0,-11
80004294:	01c00793          	li	a5,28
80004298:	02e7cc63          	blt	a5,a4,800042d0 <__divdf3+0xe0>
8000429c:	01d00693          	li	a3,29
800042a0:	ff850993          	addi	s3,a0,-8
800042a4:	40e686b3          	sub	a3,a3,a4
800042a8:	013b9bb3          	sll	s7,s7,s3
800042ac:	00d456b3          	srl	a3,s0,a3
800042b0:	0176ebb3          	or	s7,a3,s7
800042b4:	013419b3          	sll	s3,s0,s3
800042b8:	c0d00593          	li	a1,-1011
800042bc:	40a58b33          	sub	s6,a1,a0
800042c0:	fb1ff06f          	j	80004270 <__divdf3+0x80>
800042c4:	0a0020ef          	jal	ra,80006364 <__clzsi2>
800042c8:	02050513          	addi	a0,a0,32
800042cc:	fc5ff06f          	j	80004290 <__divdf3+0xa0>
800042d0:	fd850b93          	addi	s7,a0,-40
800042d4:	01741bb3          	sll	s7,s0,s7
800042d8:	00000993          	li	s3,0
800042dc:	fddff06f          	j	800042b8 <__divdf3+0xc8>
800042e0:	00abe433          	or	s0,s7,a0
800042e4:	0a040663          	beqz	s0,80004390 <__divdf3+0x1a0>
800042e8:	00cb9793          	slli	a5,s7,0xc
800042ec:	00050993          	mv	s3,a0
800042f0:	7ff00b13          	li	s6,2047
800042f4:	00300c93          	li	s9,3
800042f8:	01000493          	li	s1,16
800042fc:	f607cce3          	bltz	a5,80004274 <__divdf3+0x84>
80004300:	014ad713          	srli	a4,s5,0x14
80004304:	00ca9513          	slli	a0,s5,0xc
80004308:	01571693          	slli	a3,a4,0x15
8000430c:	000c0793          	mv	a5,s8
80004310:	00c55413          	srli	s0,a0,0xc
80004314:	7ff77593          	andi	a1,a4,2047
80004318:	01fada93          	srli	s5,s5,0x1f
8000431c:	08068463          	beqz	a3,800043a4 <__divdf3+0x1b4>
80004320:	7ff00713          	li	a4,2047
80004324:	0ee58663          	beq	a1,a4,80004410 <__divdf3+0x220>
80004328:	01dc5793          	srli	a5,s8,0x1d
8000432c:	00341513          	slli	a0,s0,0x3
80004330:	00a7e533          	or	a0,a5,a0
80004334:	00800437          	lui	s0,0x800
80004338:	00856433          	or	s0,a0,s0
8000433c:	003c1793          	slli	a5,s8,0x3
80004340:	c0158513          	addi	a0,a1,-1023 # 7ffc01 <__stack_size+0x7ff801>
80004344:	00000713          	li	a4,0
80004348:	002c9693          	slli	a3,s9,0x2
8000434c:	00e6e6b3          	or	a3,a3,a4
80004350:	40ab05b3          	sub	a1,s6,a0
80004354:	fff68693          	addi	a3,a3,-1 # 3fffff <__stack_size+0x3ffbff>
80004358:	00e00513          	li	a0,14
8000435c:	015a4633          	xor	a2,s4,s5
80004360:	10d56063          	bltu	a0,a3,80004460 <__divdf3+0x270>
80004364:	80007537          	lui	a0,0x80007
80004368:	00269693          	slli	a3,a3,0x2
8000436c:	b0050513          	addi	a0,a0,-1280 # 80006b00 <__global_pointer+0xfffff2f8>
80004370:	00a686b3          	add	a3,a3,a0
80004374:	0006a683          	lw	a3,0(a3)
80004378:	00068067          	jr	a3
8000437c:	00000b93          	li	s7,0
80004380:	00000993          	li	s3,0
80004384:	00000b13          	li	s6,0
80004388:	00100c93          	li	s9,1
8000438c:	ee9ff06f          	j	80004274 <__divdf3+0x84>
80004390:	00000b93          	li	s7,0
80004394:	00000993          	li	s3,0
80004398:	7ff00b13          	li	s6,2047
8000439c:	00200c93          	li	s9,2
800043a0:	ed5ff06f          	j	80004274 <__divdf3+0x84>
800043a4:	018467b3          	or	a5,s0,s8
800043a8:	08078463          	beqz	a5,80004430 <__divdf3+0x240>
800043ac:	04040263          	beqz	s0,800043f0 <__divdf3+0x200>
800043b0:	00040513          	mv	a0,s0
800043b4:	7b1010ef          	jal	ra,80006364 <__clzsi2>
800043b8:	00050593          	mv	a1,a0
800043bc:	ff558693          	addi	a3,a1,-11
800043c0:	01c00793          	li	a5,28
800043c4:	02d7ce63          	blt	a5,a3,80004400 <__divdf3+0x210>
800043c8:	01d00713          	li	a4,29
800043cc:	ff858793          	addi	a5,a1,-8
800043d0:	40d70733          	sub	a4,a4,a3
800043d4:	00f41533          	sll	a0,s0,a5
800043d8:	00ec5733          	srl	a4,s8,a4
800043dc:	00a76433          	or	s0,a4,a0
800043e0:	00fc17b3          	sll	a5,s8,a5
800043e4:	c0d00713          	li	a4,-1011
800043e8:	40b70533          	sub	a0,a4,a1
800043ec:	f59ff06f          	j	80004344 <__divdf3+0x154>
800043f0:	000c0513          	mv	a0,s8
800043f4:	771010ef          	jal	ra,80006364 <__clzsi2>
800043f8:	02050593          	addi	a1,a0,32
800043fc:	fc1ff06f          	j	800043bc <__divdf3+0x1cc>
80004400:	fd858513          	addi	a0,a1,-40
80004404:	00ac1433          	sll	s0,s8,a0
80004408:	00000793          	li	a5,0
8000440c:	fd9ff06f          	j	800043e4 <__divdf3+0x1f4>
80004410:	01846633          	or	a2,s0,s8
80004414:	02060863          	beqz	a2,80004444 <__divdf3+0x254>
80004418:	00c41713          	slli	a4,s0,0xc
8000441c:	7ff00513          	li	a0,2047
80004420:	02074c63          	bltz	a4,80004458 <__divdf3+0x268>
80004424:	00300713          	li	a4,3
80004428:	01000493          	li	s1,16
8000442c:	f1dff06f          	j	80004348 <__divdf3+0x158>
80004430:	00000413          	li	s0,0
80004434:	00000793          	li	a5,0
80004438:	00000513          	li	a0,0
8000443c:	00100713          	li	a4,1
80004440:	f09ff06f          	j	80004348 <__divdf3+0x158>
80004444:	00000413          	li	s0,0
80004448:	00000793          	li	a5,0
8000444c:	7ff00513          	li	a0,2047
80004450:	00200713          	li	a4,2
80004454:	ef5ff06f          	j	80004348 <__divdf3+0x158>
80004458:	00300713          	li	a4,3
8000445c:	eedff06f          	j	80004348 <__divdf3+0x158>
80004460:	01746663          	bltu	s0,s7,8000446c <__divdf3+0x27c>
80004464:	2e8b9663          	bne	s7,s0,80004750 <__divdf3+0x560>
80004468:	2ef9e463          	bltu	s3,a5,80004750 <__divdf3+0x560>
8000446c:	01fb9513          	slli	a0,s7,0x1f
80004470:	0019d713          	srli	a4,s3,0x1
80004474:	01f99693          	slli	a3,s3,0x1f
80004478:	001bdb93          	srli	s7,s7,0x1
8000447c:	00e569b3          	or	s3,a0,a4
80004480:	00841513          	slli	a0,s0,0x8
80004484:	0187d813          	srli	a6,a5,0x18
80004488:	00a86833          	or	a6,a6,a0
8000448c:	01055513          	srli	a0,a0,0x10
80004490:	02abd333          	divu	t1,s7,a0
80004494:	01081e13          	slli	t3,a6,0x10
80004498:	010e5e13          	srli	t3,t3,0x10
8000449c:	00879893          	slli	a7,a5,0x8
800044a0:	0109d793          	srli	a5,s3,0x10
800044a4:	02abfbb3          	remu	s7,s7,a0
800044a8:	00030f93          	mv	t6,t1
800044ac:	026e0733          	mul	a4,t3,t1
800044b0:	010b9b93          	slli	s7,s7,0x10
800044b4:	0177e7b3          	or	a5,a5,s7
800044b8:	00e7fe63          	bgeu	a5,a4,800044d4 <__divdf3+0x2e4>
800044bc:	010787b3          	add	a5,a5,a6
800044c0:	fff30f93          	addi	t6,t1,-1
800044c4:	0107e863          	bltu	a5,a6,800044d4 <__divdf3+0x2e4>
800044c8:	00e7f663          	bgeu	a5,a4,800044d4 <__divdf3+0x2e4>
800044cc:	ffe30f93          	addi	t6,t1,-2
800044d0:	010787b3          	add	a5,a5,a6
800044d4:	40e787b3          	sub	a5,a5,a4
800044d8:	02a7deb3          	divu	t4,a5,a0
800044dc:	01099993          	slli	s3,s3,0x10
800044e0:	0109d993          	srli	s3,s3,0x10
800044e4:	02a7f7b3          	remu	a5,a5,a0
800044e8:	000e8313          	mv	t1,t4
800044ec:	03de0733          	mul	a4,t3,t4
800044f0:	01079793          	slli	a5,a5,0x10
800044f4:	00f9e7b3          	or	a5,s3,a5
800044f8:	00e7fe63          	bgeu	a5,a4,80004514 <__divdf3+0x324>
800044fc:	010787b3          	add	a5,a5,a6
80004500:	fffe8313          	addi	t1,t4,-1
80004504:	0107e863          	bltu	a5,a6,80004514 <__divdf3+0x324>
80004508:	00e7f663          	bgeu	a5,a4,80004514 <__divdf3+0x324>
8000450c:	ffee8313          	addi	t1,t4,-2
80004510:	010787b3          	add	a5,a5,a6
80004514:	40e78733          	sub	a4,a5,a4
80004518:	010f9f93          	slli	t6,t6,0x10
8000451c:	000107b7          	lui	a5,0x10
80004520:	006fefb3          	or	t6,t6,t1
80004524:	fff78313          	addi	t1,a5,-1 # ffff <__stack_size+0xfbff>
80004528:	006fff33          	and	t5,t6,t1
8000452c:	010fd293          	srli	t0,t6,0x10
80004530:	0108de93          	srli	t4,a7,0x10
80004534:	0068f333          	and	t1,a7,t1
80004538:	026f0433          	mul	s0,t5,t1
8000453c:	026289b3          	mul	s3,t0,t1
80004540:	03ee8f33          	mul	t5,t4,t5
80004544:	013f03b3          	add	t2,t5,s3
80004548:	01045f13          	srli	t5,s0,0x10
8000454c:	007f0f33          	add	t5,t5,t2
80004550:	03d282b3          	mul	t0,t0,t4
80004554:	013f7463          	bgeu	t5,s3,8000455c <__divdf3+0x36c>
80004558:	00f282b3          	add	t0,t0,a5
8000455c:	000103b7          	lui	t2,0x10
80004560:	010f5793          	srli	a5,t5,0x10
80004564:	fff38393          	addi	t2,t2,-1 # ffff <__stack_size+0xfbff>
80004568:	005782b3          	add	t0,a5,t0
8000456c:	007f77b3          	and	a5,t5,t2
80004570:	01079793          	slli	a5,a5,0x10
80004574:	00747433          	and	s0,s0,t2
80004578:	008787b3          	add	a5,a5,s0
8000457c:	00576863          	bltu	a4,t0,8000458c <__divdf3+0x39c>
80004580:	000f8413          	mv	s0,t6
80004584:	04571463          	bne	a4,t0,800045cc <__divdf3+0x3dc>
80004588:	04f6f263          	bgeu	a3,a5,800045cc <__divdf3+0x3dc>
8000458c:	011686b3          	add	a3,a3,a7
80004590:	0116bf33          	sltu	t5,a3,a7
80004594:	010f0f33          	add	t5,t5,a6
80004598:	01e70733          	add	a4,a4,t5
8000459c:	ffff8413          	addi	s0,t6,-1
800045a0:	00e86663          	bltu	a6,a4,800045ac <__divdf3+0x3bc>
800045a4:	02e81463          	bne	a6,a4,800045cc <__divdf3+0x3dc>
800045a8:	0316e263          	bltu	a3,a7,800045cc <__divdf3+0x3dc>
800045ac:	00576663          	bltu	a4,t0,800045b8 <__divdf3+0x3c8>
800045b0:	00e29e63          	bne	t0,a4,800045cc <__divdf3+0x3dc>
800045b4:	00f6fc63          	bgeu	a3,a5,800045cc <__divdf3+0x3dc>
800045b8:	011686b3          	add	a3,a3,a7
800045bc:	0116bf33          	sltu	t5,a3,a7
800045c0:	010f0f33          	add	t5,t5,a6
800045c4:	ffef8413          	addi	s0,t6,-2
800045c8:	01e70733          	add	a4,a4,t5
800045cc:	40f68f33          	sub	t5,a3,a5
800045d0:	40570733          	sub	a4,a4,t0
800045d4:	01e6b6b3          	sltu	a3,a3,t5
800045d8:	40d70733          	sub	a4,a4,a3
800045dc:	fff00793          	li	a5,-1
800045e0:	12e80463          	beq	a6,a4,80004708 <__divdf3+0x518>
800045e4:	02a752b3          	divu	t0,a4,a0
800045e8:	010f5793          	srli	a5,t5,0x10
800045ec:	02a77733          	remu	a4,a4,a0
800045f0:	00028693          	mv	a3,t0
800045f4:	025e0fb3          	mul	t6,t3,t0
800045f8:	01071713          	slli	a4,a4,0x10
800045fc:	00e7e733          	or	a4,a5,a4
80004600:	01f77e63          	bgeu	a4,t6,8000461c <__divdf3+0x42c>
80004604:	01070733          	add	a4,a4,a6
80004608:	fff28693          	addi	a3,t0,-1
8000460c:	01076863          	bltu	a4,a6,8000461c <__divdf3+0x42c>
80004610:	01f77663          	bgeu	a4,t6,8000461c <__divdf3+0x42c>
80004614:	ffe28693          	addi	a3,t0,-2
80004618:	01070733          	add	a4,a4,a6
8000461c:	41f70733          	sub	a4,a4,t6
80004620:	02a75fb3          	divu	t6,a4,a0
80004624:	010f1793          	slli	a5,t5,0x10
80004628:	0107d793          	srli	a5,a5,0x10
8000462c:	02a77733          	remu	a4,a4,a0
80004630:	03fe0e33          	mul	t3,t3,t6
80004634:	01071713          	slli	a4,a4,0x10
80004638:	00e7e733          	or	a4,a5,a4
8000463c:	000f8793          	mv	a5,t6
80004640:	01c77e63          	bgeu	a4,t3,8000465c <__divdf3+0x46c>
80004644:	01070733          	add	a4,a4,a6
80004648:	ffff8793          	addi	a5,t6,-1
8000464c:	01076863          	bltu	a4,a6,8000465c <__divdf3+0x46c>
80004650:	01c77663          	bgeu	a4,t3,8000465c <__divdf3+0x46c>
80004654:	ffef8793          	addi	a5,t6,-2
80004658:	01070733          	add	a4,a4,a6
8000465c:	01069693          	slli	a3,a3,0x10
80004660:	00f6e6b3          	or	a3,a3,a5
80004664:	01069793          	slli	a5,a3,0x10
80004668:	0107d793          	srli	a5,a5,0x10
8000466c:	41c70733          	sub	a4,a4,t3
80004670:	0106de13          	srli	t3,a3,0x10
80004674:	02f30f33          	mul	t5,t1,a5
80004678:	026e0333          	mul	t1,t3,t1
8000467c:	03ce8e33          	mul	t3,t4,t3
80004680:	02fe8eb3          	mul	t4,t4,a5
80004684:	010f5793          	srli	a5,t5,0x10
80004688:	006e8eb3          	add	t4,t4,t1
8000468c:	01d787b3          	add	a5,a5,t4
80004690:	0067f663          	bgeu	a5,t1,8000469c <__divdf3+0x4ac>
80004694:	00010537          	lui	a0,0x10
80004698:	00ae0e33          	add	t3,t3,a0
8000469c:	0107d313          	srli	t1,a5,0x10
800046a0:	01c30333          	add	t1,t1,t3
800046a4:	00010e37          	lui	t3,0x10
800046a8:	fffe0e13          	addi	t3,t3,-1 # ffff <__stack_size+0xfbff>
800046ac:	01c7f533          	and	a0,a5,t3
800046b0:	01051513          	slli	a0,a0,0x10
800046b4:	01cf7f33          	and	t5,t5,t3
800046b8:	01e50533          	add	a0,a0,t5
800046bc:	00676863          	bltu	a4,t1,800046cc <__divdf3+0x4dc>
800046c0:	3e671463          	bne	a4,t1,80004aa8 <__divdf3+0x8b8>
800046c4:	00068793          	mv	a5,a3
800046c8:	04050063          	beqz	a0,80004708 <__divdf3+0x518>
800046cc:	00e80733          	add	a4,a6,a4
800046d0:	fff68793          	addi	a5,a3,-1
800046d4:	03076463          	bltu	a4,a6,800046fc <__divdf3+0x50c>
800046d8:	00676663          	bltu	a4,t1,800046e4 <__divdf3+0x4f4>
800046dc:	3c671463          	bne	a4,t1,80004aa4 <__divdf3+0x8b4>
800046e0:	02a8f063          	bgeu	a7,a0,80004700 <__divdf3+0x510>
800046e4:	ffe68793          	addi	a5,a3,-2
800046e8:	00189693          	slli	a3,a7,0x1
800046ec:	0116b8b3          	sltu	a7,a3,a7
800046f0:	01088833          	add	a6,a7,a6
800046f4:	01070733          	add	a4,a4,a6
800046f8:	00068893          	mv	a7,a3
800046fc:	00671463          	bne	a4,t1,80004704 <__divdf3+0x514>
80004700:	00a88463          	beq	a7,a0,80004708 <__divdf3+0x518>
80004704:	0017e793          	ori	a5,a5,1
80004708:	3ff58813          	addi	a6,a1,1023
8000470c:	19005a63          	blez	a6,800048a0 <__divdf3+0x6b0>
80004710:	0077f713          	andi	a4,a5,7
80004714:	0a070a63          	beqz	a4,800047c8 <__divdf3+0x5d8>
80004718:	00200713          	li	a4,2
8000471c:	0014e493          	ori	s1,s1,1
80004720:	0ae90263          	beq	s2,a4,800047c4 <__divdf3+0x5d4>
80004724:	00300713          	li	a4,3
80004728:	08e90863          	beq	s2,a4,800047b8 <__divdf3+0x5c8>
8000472c:	08091e63          	bnez	s2,800047c8 <__divdf3+0x5d8>
80004730:	00f7f713          	andi	a4,a5,15
80004734:	00400693          	li	a3,4
80004738:	08d70863          	beq	a4,a3,800047c8 <__divdf3+0x5d8>
8000473c:	00478713          	addi	a4,a5,4
80004740:	00f737b3          	sltu	a5,a4,a5
80004744:	00f40433          	add	s0,s0,a5
80004748:	00070793          	mv	a5,a4
8000474c:	07c0006f          	j	800047c8 <__divdf3+0x5d8>
80004750:	fff58593          	addi	a1,a1,-1
80004754:	00000693          	li	a3,0
80004758:	d29ff06f          	j	80004480 <__divdf3+0x290>
8000475c:	000a0613          	mv	a2,s4
80004760:	000b8413          	mv	s0,s7
80004764:	00098793          	mv	a5,s3
80004768:	000c8713          	mv	a4,s9
8000476c:	00300693          	li	a3,3
80004770:	32d70063          	beq	a4,a3,80004a90 <__divdf3+0x8a0>
80004774:	00100693          	li	a3,1
80004778:	30d70663          	beq	a4,a3,80004a84 <__divdf3+0x894>
8000477c:	00200693          	li	a3,2
80004780:	f8d714e3          	bne	a4,a3,80004708 <__divdf3+0x518>
80004784:	0100006f          	j	80004794 <__divdf3+0x5a4>
80004788:	000a8613          	mv	a2,s5
8000478c:	fe1ff06f          	j	8000476c <__divdf3+0x57c>
80004790:	0084e493          	ori	s1,s1,8
80004794:	00000513          	li	a0,0
80004798:	00000793          	li	a5,0
8000479c:	7ff00713          	li	a4,2047
800047a0:	05c0006f          	j	800047fc <__divdf3+0x60c>
800047a4:	00080437          	lui	s0,0x80
800047a8:	00000793          	li	a5,0
800047ac:	00000613          	li	a2,0
800047b0:	00300713          	li	a4,3
800047b4:	fb9ff06f          	j	8000476c <__divdf3+0x57c>
800047b8:	00061863          	bnez	a2,800047c8 <__divdf3+0x5d8>
800047bc:	00878713          	addi	a4,a5,8
800047c0:	f81ff06f          	j	80004740 <__divdf3+0x550>
800047c4:	fe061ce3          	bnez	a2,800047bc <__divdf3+0x5cc>
800047c8:	00741713          	slli	a4,s0,0x7
800047cc:	00075a63          	bgez	a4,800047e0 <__divdf3+0x5f0>
800047d0:	ff000737          	lui	a4,0xff000
800047d4:	fff70713          	addi	a4,a4,-1 # feffffff <__global_pointer+0x7eff87f7>
800047d8:	00e47433          	and	s0,s0,a4
800047dc:	40058813          	addi	a6,a1,1024
800047e0:	7fe00713          	li	a4,2046
800047e4:	07074e63          	blt	a4,a6,80004860 <__divdf3+0x670>
800047e8:	0037d713          	srli	a4,a5,0x3
800047ec:	01d41793          	slli	a5,s0,0x1d
800047f0:	00e7e7b3          	or	a5,a5,a4
800047f4:	00345513          	srli	a0,s0,0x3
800047f8:	00080713          	mv	a4,a6
800047fc:	01471713          	slli	a4,a4,0x14
80004800:	7ff006b7          	lui	a3,0x7ff00
80004804:	00c51513          	slli	a0,a0,0xc
80004808:	00d77733          	and	a4,a4,a3
8000480c:	00c55513          	srli	a0,a0,0xc
80004810:	00a76533          	or	a0,a4,a0
80004814:	01f61613          	slli	a2,a2,0x1f
80004818:	00c56733          	or	a4,a0,a2
8000481c:	00070593          	mv	a1,a4
80004820:	00078513          	mv	a0,a5
80004824:	00048463          	beqz	s1,8000482c <__divdf3+0x63c>
80004828:	0014a073          	csrs	fflags,s1
8000482c:	02c12083          	lw	ra,44(sp)
80004830:	02812403          	lw	s0,40(sp)
80004834:	02412483          	lw	s1,36(sp)
80004838:	02012903          	lw	s2,32(sp)
8000483c:	01c12983          	lw	s3,28(sp)
80004840:	01812a03          	lw	s4,24(sp)
80004844:	01412a83          	lw	s5,20(sp)
80004848:	01012b03          	lw	s6,16(sp)
8000484c:	00c12b83          	lw	s7,12(sp)
80004850:	00812c03          	lw	s8,8(sp)
80004854:	00412c83          	lw	s9,4(sp)
80004858:	03010113          	addi	sp,sp,48
8000485c:	00008067          	ret
80004860:	00200793          	li	a5,2
80004864:	02f90a63          	beq	s2,a5,80004898 <__divdf3+0x6a8>
80004868:	00300793          	li	a5,3
8000486c:	00f90a63          	beq	s2,a5,80004880 <__divdf3+0x690>
80004870:	00091a63          	bnez	s2,80004884 <__divdf3+0x694>
80004874:	00000793          	li	a5,0
80004878:	7ff00713          	li	a4,2047
8000487c:	0100006f          	j	8000488c <__divdf3+0x69c>
80004880:	fe060ae3          	beqz	a2,80004874 <__divdf3+0x684>
80004884:	fff00793          	li	a5,-1
80004888:	7fe00713          	li	a4,2046
8000488c:	0054e493          	ori	s1,s1,5
80004890:	00078513          	mv	a0,a5
80004894:	f69ff06f          	j	800047fc <__divdf3+0x60c>
80004898:	fc061ee3          	bnez	a2,80004874 <__divdf3+0x684>
8000489c:	fe9ff06f          	j	80004884 <__divdf3+0x694>
800048a0:	00100713          	li	a4,1
800048a4:	06081663          	bnez	a6,80004910 <__divdf3+0x720>
800048a8:	0077f693          	andi	a3,a5,7
800048ac:	00040713          	mv	a4,s0
800048b0:	04068a63          	beqz	a3,80004904 <__divdf3+0x714>
800048b4:	00200713          	li	a4,2
800048b8:	0014e493          	ori	s1,s1,1
800048bc:	04e90063          	beq	s2,a4,800048fc <__divdf3+0x70c>
800048c0:	00300713          	li	a4,3
800048c4:	02e90463          	beq	s2,a4,800048ec <__divdf3+0x6fc>
800048c8:	00040713          	mv	a4,s0
800048cc:	02091c63          	bnez	s2,80004904 <__divdf3+0x714>
800048d0:	00f7f693          	andi	a3,a5,15
800048d4:	00400513          	li	a0,4
800048d8:	02a68663          	beq	a3,a0,80004904 <__divdf3+0x714>
800048dc:	ffc7b713          	sltiu	a4,a5,-4
800048e0:	00174713          	xori	a4,a4,1
800048e4:	00870733          	add	a4,a4,s0
800048e8:	01c0006f          	j	80004904 <__divdf3+0x714>
800048ec:	00040713          	mv	a4,s0
800048f0:	00061a63          	bnez	a2,80004904 <__divdf3+0x714>
800048f4:	ff87b713          	sltiu	a4,a5,-8
800048f8:	fe9ff06f          	j	800048e0 <__divdf3+0x6f0>
800048fc:	00040713          	mv	a4,s0
80004900:	fe061ae3          	bnez	a2,800048f4 <__divdf3+0x704>
80004904:	01875713          	srli	a4,a4,0x18
80004908:	00174713          	xori	a4,a4,1
8000490c:	00177713          	andi	a4,a4,1
80004910:	00100513          	li	a0,1
80004914:	41050533          	sub	a0,a0,a6
80004918:	03800693          	li	a3,56
8000491c:	0ea6cc63          	blt	a3,a0,80004a14 <__divdf3+0x824>
80004920:	01f00693          	li	a3,31
80004924:	06a6c263          	blt	a3,a0,80004988 <__divdf3+0x798>
80004928:	41e58593          	addi	a1,a1,1054
8000492c:	00a7d833          	srl	a6,a5,a0
80004930:	00b416b3          	sll	a3,s0,a1
80004934:	00b797b3          	sll	a5,a5,a1
80004938:	0106e6b3          	or	a3,a3,a6
8000493c:	00f037b3          	snez	a5,a5
80004940:	00f6e7b3          	or	a5,a3,a5
80004944:	00a45533          	srl	a0,s0,a0
80004948:	0077f693          	andi	a3,a5,7
8000494c:	08068063          	beqz	a3,800049cc <__divdf3+0x7dc>
80004950:	00200693          	li	a3,2
80004954:	0014e493          	ori	s1,s1,1
80004958:	06d90863          	beq	s2,a3,800049c8 <__divdf3+0x7d8>
8000495c:	00300693          	li	a3,3
80004960:	04d90e63          	beq	s2,a3,800049bc <__divdf3+0x7cc>
80004964:	06091463          	bnez	s2,800049cc <__divdf3+0x7dc>
80004968:	00f7f693          	andi	a3,a5,15
8000496c:	00400593          	li	a1,4
80004970:	04b68e63          	beq	a3,a1,800049cc <__divdf3+0x7dc>
80004974:	00478693          	addi	a3,a5,4
80004978:	00f6b7b3          	sltu	a5,a3,a5
8000497c:	00f50533          	add	a0,a0,a5
80004980:	00068793          	mv	a5,a3
80004984:	0480006f          	j	800049cc <__divdf3+0x7dc>
80004988:	fe100693          	li	a3,-31
8000498c:	410686b3          	sub	a3,a3,a6
80004990:	02000893          	li	a7,32
80004994:	00d456b3          	srl	a3,s0,a3
80004998:	00000813          	li	a6,0
8000499c:	01150663          	beq	a0,a7,800049a8 <__divdf3+0x7b8>
800049a0:	43e58593          	addi	a1,a1,1086
800049a4:	00b41833          	sll	a6,s0,a1
800049a8:	00f867b3          	or	a5,a6,a5
800049ac:	00f037b3          	snez	a5,a5
800049b0:	00f6e7b3          	or	a5,a3,a5
800049b4:	00000513          	li	a0,0
800049b8:	f91ff06f          	j	80004948 <__divdf3+0x758>
800049bc:	00061863          	bnez	a2,800049cc <__divdf3+0x7dc>
800049c0:	00878693          	addi	a3,a5,8
800049c4:	fb5ff06f          	j	80004978 <__divdf3+0x788>
800049c8:	fe061ce3          	bnez	a2,800049c0 <__divdf3+0x7d0>
800049cc:	00851693          	slli	a3,a0,0x8
800049d0:	0006de63          	bgez	a3,800049ec <__divdf3+0x7fc>
800049d4:	0014e493          	ori	s1,s1,1
800049d8:	00000513          	li	a0,0
800049dc:	00000793          	li	a5,0
800049e0:	02071663          	bnez	a4,80004a0c <__divdf3+0x81c>
800049e4:	00100713          	li	a4,1
800049e8:	e15ff06f          	j	800047fc <__divdf3+0x60c>
800049ec:	0037d693          	srli	a3,a5,0x3
800049f0:	01d51793          	slli	a5,a0,0x1d
800049f4:	00d7e7b3          	or	a5,a5,a3
800049f8:	00355513          	srli	a0,a0,0x3
800049fc:	e00700e3          	beqz	a4,800047fc <__divdf3+0x60c>
80004a00:	0014f713          	andi	a4,s1,1
80004a04:	de070ce3          	beqz	a4,800047fc <__divdf3+0x60c>
80004a08:	00000713          	li	a4,0
80004a0c:	0024e493          	ori	s1,s1,2
80004a10:	dedff06f          	j	800047fc <__divdf3+0x60c>
80004a14:	0087e7b3          	or	a5,a5,s0
80004a18:	02078463          	beqz	a5,80004a40 <__divdf3+0x850>
80004a1c:	00200793          	li	a5,2
80004a20:	0014e493          	ori	s1,s1,1
80004a24:	02f90e63          	beq	s2,a5,80004a60 <__divdf3+0x870>
80004a28:	00300793          	li	a5,3
80004a2c:	02f90263          	beq	s2,a5,80004a50 <__divdf3+0x860>
80004a30:	00100793          	li	a5,1
80004a34:	00091463          	bnez	s2,80004a3c <__divdf3+0x84c>
80004a38:	00500793          	li	a5,5
80004a3c:	0037d793          	srli	a5,a5,0x3
80004a40:	0024e493          	ori	s1,s1,2
80004a44:	00000513          	li	a0,0
80004a48:	00000713          	li	a4,0
80004a4c:	db1ff06f          	j	800047fc <__divdf3+0x60c>
80004a50:	00900793          	li	a5,9
80004a54:	fe0604e3          	beqz	a2,80004a3c <__divdf3+0x84c>
80004a58:	00100793          	li	a5,1
80004a5c:	fe1ff06f          	j	80004a3c <__divdf3+0x84c>
80004a60:	00900793          	li	a5,9
80004a64:	fc061ce3          	bnez	a2,80004a3c <__divdf3+0x84c>
80004a68:	ff1ff06f          	j	80004a58 <__divdf3+0x868>
80004a6c:	00080537          	lui	a0,0x80
80004a70:	00000793          	li	a5,0
80004a74:	7ff00713          	li	a4,2047
80004a78:	00000613          	li	a2,0
80004a7c:	01000493          	li	s1,16
80004a80:	d7dff06f          	j	800047fc <__divdf3+0x60c>
80004a84:	00000513          	li	a0,0
80004a88:	00000793          	li	a5,0
80004a8c:	fbdff06f          	j	80004a48 <__divdf3+0x858>
80004a90:	00080537          	lui	a0,0x80
80004a94:	00000793          	li	a5,0
80004a98:	7ff00713          	li	a4,2047
80004a9c:	00000613          	li	a2,0
80004aa0:	d5dff06f          	j	800047fc <__divdf3+0x60c>
80004aa4:	00078693          	mv	a3,a5
80004aa8:	00068793          	mv	a5,a3
80004aac:	c59ff06f          	j	80004704 <__divdf3+0x514>

80004ab0 <__eqdf2>:
80004ab0:	002027f3          	frrm	a5
80004ab4:	001007b7          	lui	a5,0x100
80004ab8:	0145d713          	srli	a4,a1,0x14
80004abc:	fff78793          	addi	a5,a5,-1 # fffff <__stack_size+0xffbff>
80004ac0:	0146d893          	srli	a7,a3,0x14
80004ac4:	7ff77713          	andi	a4,a4,2047
80004ac8:	7ff00313          	li	t1,2047
80004acc:	00b7f833          	and	a6,a5,a1
80004ad0:	00050e93          	mv	t4,a0
80004ad4:	00d7f7b3          	and	a5,a5,a3
80004ad8:	01f5d593          	srli	a1,a1,0x1f
80004adc:	00060e13          	mv	t3,a2
80004ae0:	7ff8f893          	andi	a7,a7,2047
80004ae4:	01f6d693          	srli	a3,a3,0x1f
80004ae8:	00671a63          	bne	a4,t1,80004afc <__eqdf2+0x4c>
80004aec:	00a86333          	or	t1,a6,a0
80004af0:	04031e63          	bnez	t1,80004b4c <__eqdf2+0x9c>
80004af4:	06e89e63          	bne	a7,a4,80004b70 <__eqdf2+0xc0>
80004af8:	0080006f          	j	80004b00 <__eqdf2+0x50>
80004afc:	00689663          	bne	a7,t1,80004b08 <__eqdf2+0x58>
80004b00:	00c7e333          	or	t1,a5,a2
80004b04:	02031c63          	bnez	t1,80004b3c <__eqdf2+0x8c>
80004b08:	00100513          	li	a0,1
80004b0c:	07171463          	bne	a4,a7,80004b74 <__eqdf2+0xc4>
80004b10:	06f81263          	bne	a6,a5,80004b74 <__eqdf2+0xc4>
80004b14:	07de1063          	bne	t3,t4,80004b74 <__eqdf2+0xc4>
80004b18:	00d58e63          	beq	a1,a3,80004b34 <__eqdf2+0x84>
80004b1c:	04071c63          	bnez	a4,80004b74 <__eqdf2+0xc4>
80004b20:	00c86633          	or	a2,a6,a2
80004b24:	00c03533          	snez	a0,a2
80004b28:	00008067          	ret
80004b2c:	00186073          	csrsi	fflags,16
80004b30:	0400006f          	j	80004b70 <__eqdf2+0xc0>
80004b34:	00000513          	li	a0,0
80004b38:	00008067          	ret
80004b3c:	7ff00693          	li	a3,2047
80004b40:	02d71463          	bne	a4,a3,80004b68 <__eqdf2+0xb8>
80004b44:	00a86533          	or	a0,a6,a0
80004b48:	02050063          	beqz	a0,80004b68 <__eqdf2+0xb8>
80004b4c:	00c81713          	slli	a4,a6,0xc
80004b50:	fc075ee3          	bgez	a4,80004b2c <__eqdf2+0x7c>
80004b54:	7ff00713          	li	a4,2047
80004b58:	00100513          	li	a0,1
80004b5c:	00e89c63          	bne	a7,a4,80004b74 <__eqdf2+0xc4>
80004b60:	00c7e633          	or	a2,a5,a2
80004b64:	00060863          	beqz	a2,80004b74 <__eqdf2+0xc4>
80004b68:	00c79713          	slli	a4,a5,0xc
80004b6c:	fc0750e3          	bgez	a4,80004b2c <__eqdf2+0x7c>
80004b70:	00100513          	li	a0,1
80004b74:	00008067          	ret

80004b78 <__gedf2>:
80004b78:	00050793          	mv	a5,a0
80004b7c:	00202773          	frrm	a4
80004b80:	00100737          	lui	a4,0x100
80004b84:	fff70713          	addi	a4,a4,-1 # fffff <__stack_size+0xffbff>
80004b88:	0145d813          	srli	a6,a1,0x14
80004b8c:	00b778b3          	and	a7,a4,a1
80004b90:	00050313          	mv	t1,a0
80004b94:	7ff87813          	andi	a6,a6,2047
80004b98:	01f5d513          	srli	a0,a1,0x1f
80004b9c:	7ff00e93          	li	t4,2047
80004ba0:	0146d593          	srli	a1,a3,0x14
80004ba4:	00d77733          	and	a4,a4,a3
80004ba8:	00060e13          	mv	t3,a2
80004bac:	7ff5f593          	andi	a1,a1,2047
80004bb0:	01f6d693          	srli	a3,a3,0x1f
80004bb4:	01d81c63          	bne	a6,t4,80004bcc <__gedf2+0x54>
80004bb8:	00f8eeb3          	or	t4,a7,a5
80004bbc:	080e8c63          	beqz	t4,80004c54 <__gedf2+0xdc>
80004bc0:	00186073          	csrsi	fflags,16
80004bc4:	ffe00513          	li	a0,-2
80004bc8:	00008067          	ret
80004bcc:	01d59663          	bne	a1,t4,80004bd8 <__gedf2+0x60>
80004bd0:	00c76eb3          	or	t4,a4,a2
80004bd4:	fe0e96e3          	bnez	t4,80004bc0 <__gedf2+0x48>
80004bd8:	08081063          	bnez	a6,80004c58 <__gedf2+0xe0>
80004bdc:	00f8e7b3          	or	a5,a7,a5
80004be0:	0017b793          	seqz	a5,a5
80004be4:	00059663          	bnez	a1,80004bf0 <__gedf2+0x78>
80004be8:	00c76633          	or	a2,a4,a2
80004bec:	04060c63          	beqz	a2,80004c44 <__gedf2+0xcc>
80004bf0:	00079c63          	bnez	a5,80004c08 <__gedf2+0x90>
80004bf4:	00d51463          	bne	a0,a3,80004bfc <__gedf2+0x84>
80004bf8:	0305d063          	bge	a1,a6,80004c18 <__gedf2+0xa0>
80004bfc:	04050063          	beqz	a0,80004c3c <__gedf2+0xc4>
80004c00:	fff00513          	li	a0,-1
80004c04:	00008067          	ret
80004c08:	fff00513          	li	a0,-1
80004c0c:	00068a63          	beqz	a3,80004c20 <__gedf2+0xa8>
80004c10:	00068513          	mv	a0,a3
80004c14:	00008067          	ret
80004c18:	00b85663          	bge	a6,a1,80004c24 <__gedf2+0xac>
80004c1c:	fe0502e3          	beqz	a0,80004c00 <__gedf2+0x88>
80004c20:	00008067          	ret
80004c24:	fd176ce3          	bltu	a4,a7,80004bfc <__gedf2+0x84>
80004c28:	02e89263          	bne	a7,a4,80004c4c <__gedf2+0xd4>
80004c2c:	fc6e68e3          	bltu	t3,t1,80004bfc <__gedf2+0x84>
80004c30:	ffc366e3          	bltu	t1,t3,80004c1c <__gedf2+0xa4>
80004c34:	00000513          	li	a0,0
80004c38:	00008067          	ret
80004c3c:	00100513          	li	a0,1
80004c40:	00008067          	ret
80004c44:	fe0798e3          	bnez	a5,80004c34 <__gedf2+0xbc>
80004c48:	fb5ff06f          	j	80004bfc <__gedf2+0x84>
80004c4c:	fce8e8e3          	bltu	a7,a4,80004c1c <__gedf2+0xa4>
80004c50:	fe5ff06f          	j	80004c34 <__gedf2+0xbc>
80004c54:	f7058ee3          	beq	a1,a6,80004bd0 <__gedf2+0x58>
80004c58:	f8059ee3          	bnez	a1,80004bf4 <__gedf2+0x7c>
80004c5c:	00000793          	li	a5,0
80004c60:	f89ff06f          	j	80004be8 <__gedf2+0x70>

80004c64 <__ledf2>:
80004c64:	00050793          	mv	a5,a0
80004c68:	00202773          	frrm	a4
80004c6c:	00100737          	lui	a4,0x100
80004c70:	fff70713          	addi	a4,a4,-1 # fffff <__stack_size+0xffbff>
80004c74:	0145d813          	srli	a6,a1,0x14
80004c78:	00b778b3          	and	a7,a4,a1
80004c7c:	00050313          	mv	t1,a0
80004c80:	7ff87813          	andi	a6,a6,2047
80004c84:	01f5d513          	srli	a0,a1,0x1f
80004c88:	7ff00e93          	li	t4,2047
80004c8c:	0146d593          	srli	a1,a3,0x14
80004c90:	00d77733          	and	a4,a4,a3
80004c94:	00060e13          	mv	t3,a2
80004c98:	7ff5f593          	andi	a1,a1,2047
80004c9c:	01f6d693          	srli	a3,a3,0x1f
80004ca0:	01d81c63          	bne	a6,t4,80004cb8 <__ledf2+0x54>
80004ca4:	00f8eeb3          	or	t4,a7,a5
80004ca8:	080e8c63          	beqz	t4,80004d40 <__ledf2+0xdc>
80004cac:	00186073          	csrsi	fflags,16
80004cb0:	00200513          	li	a0,2
80004cb4:	00008067          	ret
80004cb8:	01d59663          	bne	a1,t4,80004cc4 <__ledf2+0x60>
80004cbc:	00c76eb3          	or	t4,a4,a2
80004cc0:	fe0e96e3          	bnez	t4,80004cac <__ledf2+0x48>
80004cc4:	08081063          	bnez	a6,80004d44 <__ledf2+0xe0>
80004cc8:	00f8e7b3          	or	a5,a7,a5
80004ccc:	0017b793          	seqz	a5,a5
80004cd0:	00059663          	bnez	a1,80004cdc <__ledf2+0x78>
80004cd4:	00c76633          	or	a2,a4,a2
80004cd8:	04060c63          	beqz	a2,80004d30 <__ledf2+0xcc>
80004cdc:	00079c63          	bnez	a5,80004cf4 <__ledf2+0x90>
80004ce0:	00d51463          	bne	a0,a3,80004ce8 <__ledf2+0x84>
80004ce4:	0305d063          	bge	a1,a6,80004d04 <__ledf2+0xa0>
80004ce8:	04050063          	beqz	a0,80004d28 <__ledf2+0xc4>
80004cec:	fff00513          	li	a0,-1
80004cf0:	00008067          	ret
80004cf4:	fff00513          	li	a0,-1
80004cf8:	00068a63          	beqz	a3,80004d0c <__ledf2+0xa8>
80004cfc:	00068513          	mv	a0,a3
80004d00:	00008067          	ret
80004d04:	00b85663          	bge	a6,a1,80004d10 <__ledf2+0xac>
80004d08:	fe0502e3          	beqz	a0,80004cec <__ledf2+0x88>
80004d0c:	00008067          	ret
80004d10:	fd176ce3          	bltu	a4,a7,80004ce8 <__ledf2+0x84>
80004d14:	02e89263          	bne	a7,a4,80004d38 <__ledf2+0xd4>
80004d18:	fc6e68e3          	bltu	t3,t1,80004ce8 <__ledf2+0x84>
80004d1c:	ffc366e3          	bltu	t1,t3,80004d08 <__ledf2+0xa4>
80004d20:	00000513          	li	a0,0
80004d24:	00008067          	ret
80004d28:	00100513          	li	a0,1
80004d2c:	00008067          	ret
80004d30:	fe0798e3          	bnez	a5,80004d20 <__ledf2+0xbc>
80004d34:	fb5ff06f          	j	80004ce8 <__ledf2+0x84>
80004d38:	fce8e8e3          	bltu	a7,a4,80004d08 <__ledf2+0xa4>
80004d3c:	fe5ff06f          	j	80004d20 <__ledf2+0xbc>
80004d40:	f7058ee3          	beq	a1,a6,80004cbc <__ledf2+0x58>
80004d44:	f8059ee3          	bnez	a1,80004ce0 <__ledf2+0x7c>
80004d48:	00000793          	li	a5,0
80004d4c:	f89ff06f          	j	80004cd4 <__ledf2+0x70>

80004d50 <__muldf3>:
80004d50:	fd010113          	addi	sp,sp,-48
80004d54:	02812423          	sw	s0,40(sp)
80004d58:	01612823          	sw	s6,16(sp)
80004d5c:	01912223          	sw	s9,4(sp)
80004d60:	02112623          	sw	ra,44(sp)
80004d64:	02912223          	sw	s1,36(sp)
80004d68:	03212023          	sw	s2,32(sp)
80004d6c:	01312e23          	sw	s3,28(sp)
80004d70:	01412c23          	sw	s4,24(sp)
80004d74:	01512a23          	sw	s5,20(sp)
80004d78:	01712623          	sw	s7,12(sp)
80004d7c:	01812423          	sw	s8,8(sp)
80004d80:	00050413          	mv	s0,a0
80004d84:	00060c93          	mv	s9,a2
80004d88:	00068b13          	mv	s6,a3
80004d8c:	00202973          	frrm	s2
80004d90:	0145d793          	srli	a5,a1,0x14
80004d94:	00c59993          	slli	s3,a1,0xc
80004d98:	01579713          	slli	a4,a5,0x15
80004d9c:	00c9d993          	srli	s3,s3,0xc
80004da0:	01f5da93          	srli	s5,a1,0x1f
80004da4:	02070c63          	beqz	a4,80004ddc <__muldf3+0x8c>
80004da8:	7ff7fb93          	andi	s7,a5,2047
80004dac:	7ff00793          	li	a5,2047
80004db0:	08fb8863          	beq	s7,a5,80004e40 <__muldf3+0xf0>
80004db4:	01d55793          	srli	a5,a0,0x1d
80004db8:	00399993          	slli	s3,s3,0x3
80004dbc:	0137e9b3          	or	s3,a5,s3
80004dc0:	008007b7          	lui	a5,0x800
80004dc4:	00f9e9b3          	or	s3,s3,a5
80004dc8:	00351a13          	slli	s4,a0,0x3
80004dcc:	c01b8b93          	addi	s7,s7,-1023
80004dd0:	00000c13          	li	s8,0
80004dd4:	00000493          	li	s1,0
80004dd8:	0880006f          	j	80004e60 <__muldf3+0x110>
80004ddc:	00a9e7b3          	or	a5,s3,a0
80004de0:	10078063          	beqz	a5,80004ee0 <__muldf3+0x190>
80004de4:	04098063          	beqz	s3,80004e24 <__muldf3+0xd4>
80004de8:	00098513          	mv	a0,s3
80004dec:	578010ef          	jal	ra,80006364 <__clzsi2>
80004df0:	ff550713          	addi	a4,a0,-11 # 7fff5 <__stack_size+0x7fbf5>
80004df4:	01c00793          	li	a5,28
80004df8:	02e7cc63          	blt	a5,a4,80004e30 <__muldf3+0xe0>
80004dfc:	01d00793          	li	a5,29
80004e00:	ff850a13          	addi	s4,a0,-8
80004e04:	40e787b3          	sub	a5,a5,a4
80004e08:	014999b3          	sll	s3,s3,s4
80004e0c:	00f457b3          	srl	a5,s0,a5
80004e10:	0137e9b3          	or	s3,a5,s3
80004e14:	01441a33          	sll	s4,s0,s4
80004e18:	c0d00b93          	li	s7,-1011
80004e1c:	40ab8bb3          	sub	s7,s7,a0
80004e20:	fb1ff06f          	j	80004dd0 <__muldf3+0x80>
80004e24:	540010ef          	jal	ra,80006364 <__clzsi2>
80004e28:	02050513          	addi	a0,a0,32
80004e2c:	fc5ff06f          	j	80004df0 <__muldf3+0xa0>
80004e30:	fd850993          	addi	s3,a0,-40
80004e34:	013419b3          	sll	s3,s0,s3
80004e38:	00000a13          	li	s4,0
80004e3c:	fddff06f          	j	80004e18 <__muldf3+0xc8>
80004e40:	00a9e433          	or	s0,s3,a0
80004e44:	0a040863          	beqz	s0,80004ef4 <__muldf3+0x1a4>
80004e48:	00c99793          	slli	a5,s3,0xc
80004e4c:	00050a13          	mv	s4,a0
80004e50:	7ff00b93          	li	s7,2047
80004e54:	00300c13          	li	s8,3
80004e58:	01000493          	li	s1,16
80004e5c:	f607cce3          	bltz	a5,80004dd4 <__muldf3+0x84>
80004e60:	014b5713          	srli	a4,s6,0x14
80004e64:	00cb1413          	slli	s0,s6,0xc
80004e68:	01571693          	slli	a3,a4,0x15
80004e6c:	000c8793          	mv	a5,s9
80004e70:	00c45413          	srli	s0,s0,0xc
80004e74:	7ff77513          	andi	a0,a4,2047
80004e78:	01fb5b13          	srli	s6,s6,0x1f
80004e7c:	08068663          	beqz	a3,80004f08 <__muldf3+0x1b8>
80004e80:	7ff00713          	li	a4,2047
80004e84:	0ee50663          	beq	a0,a4,80004f70 <__muldf3+0x220>
80004e88:	01dcd793          	srli	a5,s9,0x1d
80004e8c:	00341413          	slli	s0,s0,0x3
80004e90:	0087e433          	or	s0,a5,s0
80004e94:	008007b7          	lui	a5,0x800
80004e98:	00f46433          	or	s0,s0,a5
80004e9c:	c0150513          	addi	a0,a0,-1023
80004ea0:	003c9793          	slli	a5,s9,0x3
80004ea4:	00000713          	li	a4,0
80004ea8:	002c1693          	slli	a3,s8,0x2
80004eac:	00e6e6b3          	or	a3,a3,a4
80004eb0:	00ab8bb3          	add	s7,s7,a0
80004eb4:	fff68693          	addi	a3,a3,-1 # 7fefffff <__stack_size+0x7feffbff>
80004eb8:	00e00613          	li	a2,14
80004ebc:	016ac5b3          	xor	a1,s5,s6
80004ec0:	001b8513          	addi	a0,s7,1
80004ec4:	16d66a63          	bltu	a2,a3,80005038 <__muldf3+0x2e8>
80004ec8:	80007637          	lui	a2,0x80007
80004ecc:	00269693          	slli	a3,a3,0x2
80004ed0:	b3c60613          	addi	a2,a2,-1220 # 80006b3c <__global_pointer+0xfffff334>
80004ed4:	00c686b3          	add	a3,a3,a2
80004ed8:	0006a683          	lw	a3,0(a3)
80004edc:	00068067          	jr	a3
80004ee0:	00000993          	li	s3,0
80004ee4:	00000a13          	li	s4,0
80004ee8:	00000b93          	li	s7,0
80004eec:	00100c13          	li	s8,1
80004ef0:	ee5ff06f          	j	80004dd4 <__muldf3+0x84>
80004ef4:	00000993          	li	s3,0
80004ef8:	00000a13          	li	s4,0
80004efc:	7ff00b93          	li	s7,2047
80004f00:	00200c13          	li	s8,2
80004f04:	ed1ff06f          	j	80004dd4 <__muldf3+0x84>
80004f08:	019467b3          	or	a5,s0,s9
80004f0c:	08078263          	beqz	a5,80004f90 <__muldf3+0x240>
80004f10:	04040063          	beqz	s0,80004f50 <__muldf3+0x200>
80004f14:	00040513          	mv	a0,s0
80004f18:	44c010ef          	jal	ra,80006364 <__clzsi2>
80004f1c:	ff550693          	addi	a3,a0,-11
80004f20:	01c00793          	li	a5,28
80004f24:	02d7ce63          	blt	a5,a3,80004f60 <__muldf3+0x210>
80004f28:	01d00713          	li	a4,29
80004f2c:	ff850793          	addi	a5,a0,-8
80004f30:	40d70733          	sub	a4,a4,a3
80004f34:	00f41433          	sll	s0,s0,a5
80004f38:	00ecd733          	srl	a4,s9,a4
80004f3c:	00876433          	or	s0,a4,s0
80004f40:	00fc97b3          	sll	a5,s9,a5
80004f44:	c0d00713          	li	a4,-1011
80004f48:	40a70533          	sub	a0,a4,a0
80004f4c:	f59ff06f          	j	80004ea4 <__muldf3+0x154>
80004f50:	000c8513          	mv	a0,s9
80004f54:	410010ef          	jal	ra,80006364 <__clzsi2>
80004f58:	02050513          	addi	a0,a0,32
80004f5c:	fc1ff06f          	j	80004f1c <__muldf3+0x1cc>
80004f60:	fd850413          	addi	s0,a0,-40
80004f64:	008c9433          	sll	s0,s9,s0
80004f68:	00000793          	li	a5,0
80004f6c:	fd9ff06f          	j	80004f44 <__muldf3+0x1f4>
80004f70:	01946633          	or	a2,s0,s9
80004f74:	02060863          	beqz	a2,80004fa4 <__muldf3+0x254>
80004f78:	00c41713          	slli	a4,s0,0xc
80004f7c:	7ff00513          	li	a0,2047
80004f80:	02074c63          	bltz	a4,80004fb8 <__muldf3+0x268>
80004f84:	00300713          	li	a4,3
80004f88:	01000493          	li	s1,16
80004f8c:	f1dff06f          	j	80004ea8 <__muldf3+0x158>
80004f90:	00000413          	li	s0,0
80004f94:	00000793          	li	a5,0
80004f98:	00000513          	li	a0,0
80004f9c:	00100713          	li	a4,1
80004fa0:	f09ff06f          	j	80004ea8 <__muldf3+0x158>
80004fa4:	00000413          	li	s0,0
80004fa8:	00000793          	li	a5,0
80004fac:	7ff00513          	li	a0,2047
80004fb0:	00200713          	li	a4,2
80004fb4:	ef5ff06f          	j	80004ea8 <__muldf3+0x158>
80004fb8:	00300713          	li	a4,3
80004fbc:	eedff06f          	j	80004ea8 <__muldf3+0x158>
80004fc0:	00080437          	lui	s0,0x80
80004fc4:	00000793          	li	a5,0
80004fc8:	7ff00713          	li	a4,2047
80004fcc:	00000593          	li	a1,0
80004fd0:	01000493          	li	s1,16
80004fd4:	01471713          	slli	a4,a4,0x14
80004fd8:	7ff006b7          	lui	a3,0x7ff00
80004fdc:	00c41413          	slli	s0,s0,0xc
80004fe0:	00d77733          	and	a4,a4,a3
80004fe4:	00c45413          	srli	s0,s0,0xc
80004fe8:	01f59593          	slli	a1,a1,0x1f
80004fec:	00876433          	or	s0,a4,s0
80004ff0:	00b46733          	or	a4,s0,a1
80004ff4:	00078513          	mv	a0,a5
80004ff8:	00070593          	mv	a1,a4
80004ffc:	00048463          	beqz	s1,80005004 <__muldf3+0x2b4>
80005000:	0014a073          	csrs	fflags,s1
80005004:	02c12083          	lw	ra,44(sp)
80005008:	02812403          	lw	s0,40(sp)
8000500c:	02412483          	lw	s1,36(sp)
80005010:	02012903          	lw	s2,32(sp)
80005014:	01c12983          	lw	s3,28(sp)
80005018:	01812a03          	lw	s4,24(sp)
8000501c:	01412a83          	lw	s5,20(sp)
80005020:	01012b03          	lw	s6,16(sp)
80005024:	00c12b83          	lw	s7,12(sp)
80005028:	00812c03          	lw	s8,8(sp)
8000502c:	00412c83          	lw	s9,4(sp)
80005030:	03010113          	addi	sp,sp,48
80005034:	00008067          	ret
80005038:	00010637          	lui	a2,0x10
8000503c:	fff60713          	addi	a4,a2,-1 # ffff <__stack_size+0xfbff>
80005040:	010a5693          	srli	a3,s4,0x10
80005044:	0107de13          	srli	t3,a5,0x10
80005048:	00ea7a33          	and	s4,s4,a4
8000504c:	00e7f7b3          	and	a5,a5,a4
80005050:	034e0333          	mul	t1,t3,s4
80005054:	03478eb3          	mul	t4,a5,s4
80005058:	02f68f33          	mul	t5,a3,a5
8000505c:	01e30833          	add	a6,t1,t5
80005060:	010ed313          	srli	t1,t4,0x10
80005064:	01030333          	add	t1,t1,a6
80005068:	03c688b3          	mul	a7,a3,t3
8000506c:	01e37463          	bgeu	t1,t5,80005074 <__muldf3+0x324>
80005070:	00c888b3          	add	a7,a7,a2
80005074:	00e37833          	and	a6,t1,a4
80005078:	00eefeb3          	and	t4,t4,a4
8000507c:	01035613          	srli	a2,t1,0x10
80005080:	01081813          	slli	a6,a6,0x10
80005084:	01045313          	srli	t1,s0,0x10
80005088:	00e47433          	and	s0,s0,a4
8000508c:	01d80833          	add	a6,a6,t4
80005090:	028a0f33          	mul	t5,s4,s0
80005094:	02868eb3          	mul	t4,a3,s0
80005098:	03430a33          	mul	s4,t1,s4
8000509c:	01da0733          	add	a4,s4,t4
800050a0:	010f5a13          	srli	s4,t5,0x10
800050a4:	00ea0a33          	add	s4,s4,a4
800050a8:	026686b3          	mul	a3,a3,t1
800050ac:	01da7663          	bgeu	s4,t4,800050b8 <__muldf3+0x368>
800050b0:	00010737          	lui	a4,0x10
800050b4:	00e686b3          	add	a3,a3,a4
800050b8:	010a5e93          	srli	t4,s4,0x10
800050bc:	00de8eb3          	add	t4,t4,a3
800050c0:	000106b7          	lui	a3,0x10
800050c4:	fff68293          	addi	t0,a3,-1 # ffff <__stack_size+0xfbff>
800050c8:	005a7a33          	and	s4,s4,t0
800050cc:	005f7f33          	and	t5,t5,t0
800050d0:	0109d713          	srli	a4,s3,0x10
800050d4:	010a1a13          	slli	s4,s4,0x10
800050d8:	0059f9b3          	and	s3,s3,t0
800050dc:	01ea0a33          	add	s4,s4,t5
800050e0:	02ee02b3          	mul	t0,t3,a4
800050e4:	01460fb3          	add	t6,a2,s4
800050e8:	03378f33          	mul	t5,a5,s3
800050ec:	033e0e33          	mul	t3,t3,s3
800050f0:	010f5613          	srli	a2,t5,0x10
800050f4:	02f707b3          	mul	a5,a4,a5
800050f8:	00fe0e33          	add	t3,t3,a5
800050fc:	01c60633          	add	a2,a2,t3
80005100:	00f67463          	bgeu	a2,a5,80005108 <__muldf3+0x3b8>
80005104:	00d282b3          	add	t0,t0,a3
80005108:	000106b7          	lui	a3,0x10
8000510c:	fff68793          	addi	a5,a3,-1 # ffff <__stack_size+0xfbff>
80005110:	01065e13          	srli	t3,a2,0x10
80005114:	00f67633          	and	a2,a2,a5
80005118:	00ff7f33          	and	t5,t5,a5
8000511c:	01061613          	slli	a2,a2,0x10
80005120:	028987b3          	mul	a5,s3,s0
80005124:	01e60633          	add	a2,a2,t5
80005128:	005e0e33          	add	t3,t3,t0
8000512c:	02870433          	mul	s0,a4,s0
80005130:	02e30f33          	mul	t5,t1,a4
80005134:	0107d713          	srli	a4,a5,0x10
80005138:	03330333          	mul	t1,t1,s3
8000513c:	00830333          	add	t1,t1,s0
80005140:	00670333          	add	t1,a4,t1
80005144:	00837463          	bgeu	t1,s0,8000514c <__muldf3+0x3fc>
80005148:	00df0f33          	add	t5,t5,a3
8000514c:	00010737          	lui	a4,0x10
80005150:	fff70713          	addi	a4,a4,-1 # ffff <__stack_size+0xfbff>
80005154:	00e376b3          	and	a3,t1,a4
80005158:	00e7f7b3          	and	a5,a5,a4
8000515c:	01069693          	slli	a3,a3,0x10
80005160:	01f888b3          	add	a7,a7,t6
80005164:	00f686b3          	add	a3,a3,a5
80005168:	0148ba33          	sltu	s4,a7,s4
8000516c:	01d686b3          	add	a3,a3,t4
80005170:	01468733          	add	a4,a3,s4
80005174:	00c888b3          	add	a7,a7,a2
80005178:	00c8b633          	sltu	a2,a7,a2
8000517c:	01c70fb3          	add	t6,a4,t3
80005180:	00cf82b3          	add	t0,t6,a2
80005184:	01d6b6b3          	sltu	a3,a3,t4
80005188:	01473733          	sltu	a4,a4,s4
8000518c:	00e6e733          	or	a4,a3,a4
80005190:	00c2b633          	sltu	a2,t0,a2
80005194:	01035313          	srli	t1,t1,0x10
80005198:	01cfbe33          	sltu	t3,t6,t3
8000519c:	00670733          	add	a4,a4,t1
800051a0:	00ce6633          	or	a2,t3,a2
800051a4:	00989793          	slli	a5,a7,0x9
800051a8:	00c70733          	add	a4,a4,a2
800051ac:	01e70733          	add	a4,a4,t5
800051b0:	0107e7b3          	or	a5,a5,a6
800051b4:	00971713          	slli	a4,a4,0x9
800051b8:	00f037b3          	snez	a5,a5
800051bc:	0178d893          	srli	a7,a7,0x17
800051c0:	0172d413          	srli	s0,t0,0x17
800051c4:	0117e7b3          	or	a5,a5,a7
800051c8:	00929293          	slli	t0,t0,0x9
800051cc:	00771693          	slli	a3,a4,0x7
800051d0:	00876433          	or	s0,a4,s0
800051d4:	0057e7b3          	or	a5,a5,t0
800051d8:	0a06d063          	bgez	a3,80005278 <__muldf3+0x528>
800051dc:	0017d713          	srli	a4,a5,0x1
800051e0:	0017f793          	andi	a5,a5,1
800051e4:	00f767b3          	or	a5,a4,a5
800051e8:	01f41713          	slli	a4,s0,0x1f
800051ec:	00e7e7b3          	or	a5,a5,a4
800051f0:	00145413          	srli	s0,s0,0x1
800051f4:	3ff50813          	addi	a6,a0,1023
800051f8:	11005863          	blez	a6,80005308 <__muldf3+0x5b8>
800051fc:	0077f713          	andi	a4,a5,7
80005200:	08070863          	beqz	a4,80005290 <__muldf3+0x540>
80005204:	00200713          	li	a4,2
80005208:	0014e493          	ori	s1,s1,1
8000520c:	08e90063          	beq	s2,a4,8000528c <__muldf3+0x53c>
80005210:	00300713          	li	a4,3
80005214:	06e90663          	beq	s2,a4,80005280 <__muldf3+0x530>
80005218:	06091c63          	bnez	s2,80005290 <__muldf3+0x540>
8000521c:	00f7f713          	andi	a4,a5,15
80005220:	00400693          	li	a3,4
80005224:	06d70663          	beq	a4,a3,80005290 <__muldf3+0x540>
80005228:	00478713          	addi	a4,a5,4 # 800004 <__stack_size+0x7ffc04>
8000522c:	00f737b3          	sltu	a5,a4,a5
80005230:	00f40433          	add	s0,s0,a5
80005234:	00070793          	mv	a5,a4
80005238:	0580006f          	j	80005290 <__muldf3+0x540>
8000523c:	000a8593          	mv	a1,s5
80005240:	00098413          	mv	s0,s3
80005244:	000a0793          	mv	a5,s4
80005248:	000c0713          	mv	a4,s8
8000524c:	00200693          	li	a3,2
80005250:	28d70263          	beq	a4,a3,800054d4 <__muldf3+0x784>
80005254:	00300693          	li	a3,3
80005258:	28d70663          	beq	a4,a3,800054e4 <__muldf3+0x794>
8000525c:	00100693          	li	a3,1
80005260:	f8d71ae3          	bne	a4,a3,800051f4 <__muldf3+0x4a4>
80005264:	00000413          	li	s0,0
80005268:	00000793          	li	a5,0
8000526c:	2440006f          	j	800054b0 <__muldf3+0x760>
80005270:	000b0593          	mv	a1,s6
80005274:	fd9ff06f          	j	8000524c <__muldf3+0x4fc>
80005278:	000b8513          	mv	a0,s7
8000527c:	f79ff06f          	j	800051f4 <__muldf3+0x4a4>
80005280:	00059863          	bnez	a1,80005290 <__muldf3+0x540>
80005284:	00878713          	addi	a4,a5,8
80005288:	fa5ff06f          	j	8000522c <__muldf3+0x4dc>
8000528c:	fe059ce3          	bnez	a1,80005284 <__muldf3+0x534>
80005290:	00741713          	slli	a4,s0,0x7
80005294:	00075a63          	bgez	a4,800052a8 <__muldf3+0x558>
80005298:	ff000737          	lui	a4,0xff000
8000529c:	fff70713          	addi	a4,a4,-1 # feffffff <__global_pointer+0x7eff87f7>
800052a0:	00e47433          	and	s0,s0,a4
800052a4:	40050813          	addi	a6,a0,1024
800052a8:	7fe00713          	li	a4,2046
800052ac:	01074e63          	blt	a4,a6,800052c8 <__muldf3+0x578>
800052b0:	0037d713          	srli	a4,a5,0x3
800052b4:	01d41793          	slli	a5,s0,0x1d
800052b8:	00e7e7b3          	or	a5,a5,a4
800052bc:	00345413          	srli	s0,s0,0x3
800052c0:	00080713          	mv	a4,a6
800052c4:	d11ff06f          	j	80004fd4 <__muldf3+0x284>
800052c8:	00200793          	li	a5,2
800052cc:	02f90a63          	beq	s2,a5,80005300 <__muldf3+0x5b0>
800052d0:	00300793          	li	a5,3
800052d4:	00f90a63          	beq	s2,a5,800052e8 <__muldf3+0x598>
800052d8:	00091a63          	bnez	s2,800052ec <__muldf3+0x59c>
800052dc:	00000793          	li	a5,0
800052e0:	7ff00713          	li	a4,2047
800052e4:	0100006f          	j	800052f4 <__muldf3+0x5a4>
800052e8:	fe058ae3          	beqz	a1,800052dc <__muldf3+0x58c>
800052ec:	fff00793          	li	a5,-1
800052f0:	7fe00713          	li	a4,2046
800052f4:	0054e493          	ori	s1,s1,5
800052f8:	00078413          	mv	s0,a5
800052fc:	cd9ff06f          	j	80004fd4 <__muldf3+0x284>
80005300:	fc059ee3          	bnez	a1,800052dc <__muldf3+0x58c>
80005304:	fe9ff06f          	j	800052ec <__muldf3+0x59c>
80005308:	00100713          	li	a4,1
8000530c:	06081663          	bnez	a6,80005378 <__muldf3+0x628>
80005310:	0077f693          	andi	a3,a5,7
80005314:	00040713          	mv	a4,s0
80005318:	04068a63          	beqz	a3,8000536c <__muldf3+0x61c>
8000531c:	00200713          	li	a4,2
80005320:	0014e493          	ori	s1,s1,1
80005324:	04e90063          	beq	s2,a4,80005364 <__muldf3+0x614>
80005328:	00300713          	li	a4,3
8000532c:	02e90463          	beq	s2,a4,80005354 <__muldf3+0x604>
80005330:	00040713          	mv	a4,s0
80005334:	02091c63          	bnez	s2,8000536c <__muldf3+0x61c>
80005338:	00f7f693          	andi	a3,a5,15
8000533c:	00400613          	li	a2,4
80005340:	02c68663          	beq	a3,a2,8000536c <__muldf3+0x61c>
80005344:	ffc7b713          	sltiu	a4,a5,-4
80005348:	00174713          	xori	a4,a4,1
8000534c:	00870733          	add	a4,a4,s0
80005350:	01c0006f          	j	8000536c <__muldf3+0x61c>
80005354:	00040713          	mv	a4,s0
80005358:	00059a63          	bnez	a1,8000536c <__muldf3+0x61c>
8000535c:	ff87b713          	sltiu	a4,a5,-8
80005360:	fe9ff06f          	j	80005348 <__muldf3+0x5f8>
80005364:	00040713          	mv	a4,s0
80005368:	fe059ae3          	bnez	a1,8000535c <__muldf3+0x60c>
8000536c:	01875713          	srli	a4,a4,0x18
80005370:	00174713          	xori	a4,a4,1
80005374:	00177713          	andi	a4,a4,1
80005378:	00100693          	li	a3,1
8000537c:	410686b3          	sub	a3,a3,a6
80005380:	03800613          	li	a2,56
80005384:	0ed64c63          	blt	a2,a3,8000547c <__muldf3+0x72c>
80005388:	01f00613          	li	a2,31
8000538c:	06d64263          	blt	a2,a3,800053f0 <__muldf3+0x6a0>
80005390:	41e50513          	addi	a0,a0,1054
80005394:	00a41633          	sll	a2,s0,a0
80005398:	00d7d833          	srl	a6,a5,a3
8000539c:	00a797b3          	sll	a5,a5,a0
800053a0:	01066633          	or	a2,a2,a6
800053a4:	00f037b3          	snez	a5,a5
800053a8:	00f667b3          	or	a5,a2,a5
800053ac:	00d45433          	srl	s0,s0,a3
800053b0:	0077f693          	andi	a3,a5,7
800053b4:	08068063          	beqz	a3,80005434 <__muldf3+0x6e4>
800053b8:	00200693          	li	a3,2
800053bc:	0014e493          	ori	s1,s1,1
800053c0:	06d90863          	beq	s2,a3,80005430 <__muldf3+0x6e0>
800053c4:	00300693          	li	a3,3
800053c8:	04d90e63          	beq	s2,a3,80005424 <__muldf3+0x6d4>
800053cc:	06091463          	bnez	s2,80005434 <__muldf3+0x6e4>
800053d0:	00f7f693          	andi	a3,a5,15
800053d4:	00400613          	li	a2,4
800053d8:	04c68e63          	beq	a3,a2,80005434 <__muldf3+0x6e4>
800053dc:	00478693          	addi	a3,a5,4
800053e0:	00f6b7b3          	sltu	a5,a3,a5
800053e4:	00f40433          	add	s0,s0,a5
800053e8:	00068793          	mv	a5,a3
800053ec:	0480006f          	j	80005434 <__muldf3+0x6e4>
800053f0:	fe100613          	li	a2,-31
800053f4:	41060633          	sub	a2,a2,a6
800053f8:	02000893          	li	a7,32
800053fc:	00c45633          	srl	a2,s0,a2
80005400:	00000813          	li	a6,0
80005404:	01168663          	beq	a3,a7,80005410 <__muldf3+0x6c0>
80005408:	43e50513          	addi	a0,a0,1086
8000540c:	00a41833          	sll	a6,s0,a0
80005410:	00f867b3          	or	a5,a6,a5
80005414:	00f037b3          	snez	a5,a5
80005418:	00f667b3          	or	a5,a2,a5
8000541c:	00000413          	li	s0,0
80005420:	f91ff06f          	j	800053b0 <__muldf3+0x660>
80005424:	00059863          	bnez	a1,80005434 <__muldf3+0x6e4>
80005428:	00878693          	addi	a3,a5,8
8000542c:	fb5ff06f          	j	800053e0 <__muldf3+0x690>
80005430:	fe059ce3          	bnez	a1,80005428 <__muldf3+0x6d8>
80005434:	00841693          	slli	a3,s0,0x8
80005438:	0006de63          	bgez	a3,80005454 <__muldf3+0x704>
8000543c:	0014e493          	ori	s1,s1,1
80005440:	00000413          	li	s0,0
80005444:	00000793          	li	a5,0
80005448:	02071663          	bnez	a4,80005474 <__muldf3+0x724>
8000544c:	00100713          	li	a4,1
80005450:	b85ff06f          	j	80004fd4 <__muldf3+0x284>
80005454:	0037d693          	srli	a3,a5,0x3
80005458:	01d41793          	slli	a5,s0,0x1d
8000545c:	00d7e7b3          	or	a5,a5,a3
80005460:	00345413          	srli	s0,s0,0x3
80005464:	b60708e3          	beqz	a4,80004fd4 <__muldf3+0x284>
80005468:	0014f713          	andi	a4,s1,1
8000546c:	b60704e3          	beqz	a4,80004fd4 <__muldf3+0x284>
80005470:	00000713          	li	a4,0
80005474:	0024e493          	ori	s1,s1,2
80005478:	b5dff06f          	j	80004fd4 <__muldf3+0x284>
8000547c:	0087e7b3          	or	a5,a5,s0
80005480:	02078463          	beqz	a5,800054a8 <__muldf3+0x758>
80005484:	00200793          	li	a5,2
80005488:	0014e493          	ori	s1,s1,1
8000548c:	02f90e63          	beq	s2,a5,800054c8 <__muldf3+0x778>
80005490:	00300793          	li	a5,3
80005494:	02f90263          	beq	s2,a5,800054b8 <__muldf3+0x768>
80005498:	00100793          	li	a5,1
8000549c:	00091463          	bnez	s2,800054a4 <__muldf3+0x754>
800054a0:	00500793          	li	a5,5
800054a4:	0037d793          	srli	a5,a5,0x3
800054a8:	0024e493          	ori	s1,s1,2
800054ac:	00000413          	li	s0,0
800054b0:	00000713          	li	a4,0
800054b4:	b21ff06f          	j	80004fd4 <__muldf3+0x284>
800054b8:	00900793          	li	a5,9
800054bc:	fe0584e3          	beqz	a1,800054a4 <__muldf3+0x754>
800054c0:	00100793          	li	a5,1
800054c4:	fe1ff06f          	j	800054a4 <__muldf3+0x754>
800054c8:	00900793          	li	a5,9
800054cc:	fc059ce3          	bnez	a1,800054a4 <__muldf3+0x754>
800054d0:	ff1ff06f          	j	800054c0 <__muldf3+0x770>
800054d4:	00000413          	li	s0,0
800054d8:	00000793          	li	a5,0
800054dc:	7ff00713          	li	a4,2047
800054e0:	af5ff06f          	j	80004fd4 <__muldf3+0x284>
800054e4:	00080437          	lui	s0,0x80
800054e8:	00000793          	li	a5,0
800054ec:	7ff00713          	li	a4,2047
800054f0:	00000593          	li	a1,0
800054f4:	ae1ff06f          	j	80004fd4 <__muldf3+0x284>

800054f8 <__subdf3>:
800054f8:	fe010113          	addi	sp,sp,-32
800054fc:	00112e23          	sw	ra,28(sp)
80005500:	00812c23          	sw	s0,24(sp)
80005504:	00912a23          	sw	s1,20(sp)
80005508:	01212823          	sw	s2,16(sp)
8000550c:	01312623          	sw	s3,12(sp)
80005510:	01412423          	sw	s4,8(sp)
80005514:	002029f3          	frrm	s3
80005518:	001008b7          	lui	a7,0x100
8000551c:	fff88893          	addi	a7,a7,-1 # fffff <__stack_size+0xffbff>
80005520:	00b8f7b3          	and	a5,a7,a1
80005524:	01d55713          	srli	a4,a0,0x1d
80005528:	0145d413          	srli	s0,a1,0x14
8000552c:	01f5d493          	srli	s1,a1,0x1f
80005530:	00379793          	slli	a5,a5,0x3
80005534:	00d8f5b3          	and	a1,a7,a3
80005538:	00359593          	slli	a1,a1,0x3
8000553c:	0146d893          	srli	a7,a3,0x14
80005540:	00f767b3          	or	a5,a4,a5
80005544:	01d65713          	srli	a4,a2,0x1d
80005548:	00b76733          	or	a4,a4,a1
8000554c:	7ff8f893          	andi	a7,a7,2047
80005550:	7ff00593          	li	a1,2047
80005554:	7ff47413          	andi	s0,s0,2047
80005558:	00351513          	slli	a0,a0,0x3
8000555c:	01f6d693          	srli	a3,a3,0x1f
80005560:	00361613          	slli	a2,a2,0x3
80005564:	00b89663          	bne	a7,a1,80005570 <__subdf3+0x78>
80005568:	00c765b3          	or	a1,a4,a2
8000556c:	00059463          	bnez	a1,80005574 <__subdf3+0x7c>
80005570:	0016c693          	xori	a3,a3,1
80005574:	41140833          	sub	a6,s0,a7
80005578:	4e969e63          	bne	a3,s1,80005a74 <__subdf3+0x57c>
8000557c:	17005463          	blez	a6,800056e4 <__subdf3+0x1ec>
80005580:	06089a63          	bnez	a7,800055f4 <__subdf3+0xfc>
80005584:	00c766b3          	or	a3,a4,a2
80005588:	02069663          	bnez	a3,800055b4 <__subdf3+0xbc>
8000558c:	7ff00713          	li	a4,2047
80005590:	00000413          	li	s0,0
80005594:	2ce81e63          	bne	a6,a4,80005870 <__subdf3+0x378>
80005598:	00a7e733          	or	a4,a5,a0
8000559c:	1e0700e3          	beqz	a4,80005f7c <__subdf3+0xa84>
800055a0:	00400437          	lui	s0,0x400
800055a4:	0087f433          	and	s0,a5,s0
800055a8:	00143413          	seqz	s0,s0
800055ac:	00441413          	slli	s0,s0,0x4
800055b0:	2c00006f          	j	80005870 <__subdf3+0x378>
800055b4:	fff80693          	addi	a3,a6,-1
800055b8:	00069e63          	bnez	a3,800055d4 <__subdf3+0xdc>
800055bc:	00a60633          	add	a2,a2,a0
800055c0:	00e787b3          	add	a5,a5,a4
800055c4:	00a636b3          	sltu	a3,a2,a0
800055c8:	00d78733          	add	a4,a5,a3
800055cc:	00100813          	li	a6,1
800055d0:	0a00006f          	j	80005670 <__subdf3+0x178>
800055d4:	7ff00593          	li	a1,2047
800055d8:	04b81863          	bne	a6,a1,80005628 <__subdf3+0x130>
800055dc:	00a7e733          	or	a4,a5,a0
800055e0:	fc0710e3          	bnez	a4,800055a0 <__subdf3+0xa8>
800055e4:	00000793          	li	a5,0
800055e8:	00000513          	li	a0,0
800055ec:	00000413          	li	s0,0
800055f0:	3140006f          	j	80005904 <__subdf3+0x40c>
800055f4:	7ff00693          	li	a3,2047
800055f8:	02d41263          	bne	s0,a3,8000561c <__subdf3+0x124>
800055fc:	00a7e733          	or	a4,a5,a0
80005600:	180704e3          	beqz	a4,80005f88 <__subdf3+0xa90>
80005604:	00979713          	slli	a4,a5,0x9
80005608:	7ff00813          	li	a6,2047
8000560c:	00000893          	li	a7,0
80005610:	3a074e63          	bltz	a4,800059cc <__subdf3+0x4d4>
80005614:	01000413          	li	s0,16
80005618:	2580006f          	j	80005870 <__subdf3+0x378>
8000561c:	008006b7          	lui	a3,0x800
80005620:	00d76733          	or	a4,a4,a3
80005624:	00080693          	mv	a3,a6
80005628:	03800593          	li	a1,56
8000562c:	0ad5c663          	blt	a1,a3,800056d8 <__subdf3+0x1e0>
80005630:	01f00593          	li	a1,31
80005634:	06d5c863          	blt	a1,a3,800056a4 <__subdf3+0x1ac>
80005638:	02000813          	li	a6,32
8000563c:	40d80833          	sub	a6,a6,a3
80005640:	00d658b3          	srl	a7,a2,a3
80005644:	010715b3          	sll	a1,a4,a6
80005648:	01061633          	sll	a2,a2,a6
8000564c:	0115e5b3          	or	a1,a1,a7
80005650:	00c03633          	snez	a2,a2
80005654:	00c5e633          	or	a2,a1,a2
80005658:	00d756b3          	srl	a3,a4,a3
8000565c:	00a60633          	add	a2,a2,a0
80005660:	00f686b3          	add	a3,a3,a5
80005664:	00a637b3          	sltu	a5,a2,a0
80005668:	00f68733          	add	a4,a3,a5
8000566c:	00040813          	mv	a6,s0
80005670:	00871793          	slli	a5,a4,0x8
80005674:	0807d663          	bgez	a5,80005700 <__subdf3+0x208>
80005678:	00180813          	addi	a6,a6,1
8000567c:	7ff00793          	li	a5,2047
80005680:	3cf80263          	beq	a6,a5,80005a44 <__subdf3+0x54c>
80005684:	ff8007b7          	lui	a5,0xff800
80005688:	fff78793          	addi	a5,a5,-1 # ff7fffff <__global_pointer+0x7f7f87f7>
8000568c:	00165513          	srli	a0,a2,0x1
80005690:	00f777b3          	and	a5,a4,a5
80005694:	00167613          	andi	a2,a2,1
80005698:	00c56633          	or	a2,a0,a2
8000569c:	01f79513          	slli	a0,a5,0x1f
800056a0:	3200006f          	j	800059c0 <__subdf3+0x4c8>
800056a4:	fe068593          	addi	a1,a3,-32 # 7fffe0 <__stack_size+0x7ffbe0>
800056a8:	02000893          	li	a7,32
800056ac:	00b755b3          	srl	a1,a4,a1
800056b0:	00000813          	li	a6,0
800056b4:	01168863          	beq	a3,a7,800056c4 <__subdf3+0x1cc>
800056b8:	04000813          	li	a6,64
800056bc:	40d806b3          	sub	a3,a6,a3
800056c0:	00d71833          	sll	a6,a4,a3
800056c4:	00c86633          	or	a2,a6,a2
800056c8:	00c03633          	snez	a2,a2
800056cc:	00c5e633          	or	a2,a1,a2
800056d0:	00000693          	li	a3,0
800056d4:	f89ff06f          	j	8000565c <__subdf3+0x164>
800056d8:	00c76633          	or	a2,a4,a2
800056dc:	00c03633          	snez	a2,a2
800056e0:	ff1ff06f          	j	800056d0 <__subdf3+0x1d8>
800056e4:	12080e63          	beqz	a6,80005820 <__subdf3+0x328>
800056e8:	40888833          	sub	a6,a7,s0
800056ec:	06041663          	bnez	s0,80005758 <__subdf3+0x260>
800056f0:	00a7e6b3          	or	a3,a5,a0
800056f4:	00069e63          	bnez	a3,80005710 <__subdf3+0x218>
800056f8:	7ff00793          	li	a5,2047
800056fc:	02f80e63          	beq	a6,a5,80005738 <__subdf3+0x240>
80005700:	00070793          	mv	a5,a4
80005704:	00060513          	mv	a0,a2
80005708:	5c080463          	beqz	a6,80005cd0 <__subdf3+0x7d8>
8000570c:	2bc0006f          	j	800059c8 <__subdf3+0x4d0>
80005710:	fff80593          	addi	a1,a6,-1
80005714:	00059e63          	bnez	a1,80005730 <__subdf3+0x238>
80005718:	00c506b3          	add	a3,a0,a2
8000571c:	00c6b633          	sltu	a2,a3,a2
80005720:	00e787b3          	add	a5,a5,a4
80005724:	00c78733          	add	a4,a5,a2
80005728:	00068613          	mv	a2,a3
8000572c:	ea1ff06f          	j	800055cc <__subdf3+0xd4>
80005730:	7ff00693          	li	a3,2047
80005734:	04d81e63          	bne	a6,a3,80005790 <__subdf3+0x298>
80005738:	00c76533          	or	a0,a4,a2
8000573c:	00000793          	li	a5,0
80005740:	1c050263          	beqz	a0,80005904 <__subdf3+0x40c>
80005744:	00971793          	slli	a5,a4,0x9
80005748:	0407c6e3          	bltz	a5,80005f94 <__subdf3+0xa9c>
8000574c:	00070793          	mv	a5,a4
80005750:	00060513          	mv	a0,a2
80005754:	0280006f          	j	8000577c <__subdf3+0x284>
80005758:	7ff00693          	li	a3,2047
8000575c:	02d89463          	bne	a7,a3,80005784 <__subdf3+0x28c>
80005760:	00c76533          	or	a0,a4,a2
80005764:	7e050463          	beqz	a0,80005f4c <__subdf3+0xa54>
80005768:	00971793          	slli	a5,a4,0x9
8000576c:	7e07c663          	bltz	a5,80005f58 <__subdf3+0xa60>
80005770:	00070793          	mv	a5,a4
80005774:	00060513          	mv	a0,a2
80005778:	7ff00813          	li	a6,2047
8000577c:	00000893          	li	a7,0
80005780:	e95ff06f          	j	80005614 <__subdf3+0x11c>
80005784:	008006b7          	lui	a3,0x800
80005788:	00d7e7b3          	or	a5,a5,a3
8000578c:	00080593          	mv	a1,a6
80005790:	03800693          	li	a3,56
80005794:	08b6c063          	blt	a3,a1,80005814 <__subdf3+0x31c>
80005798:	01f00693          	li	a3,31
8000579c:	04b6c263          	blt	a3,a1,800057e0 <__subdf3+0x2e8>
800057a0:	02000813          	li	a6,32
800057a4:	40b80833          	sub	a6,a6,a1
800057a8:	010796b3          	sll	a3,a5,a6
800057ac:	00b55333          	srl	t1,a0,a1
800057b0:	01051533          	sll	a0,a0,a6
800057b4:	0066e6b3          	or	a3,a3,t1
800057b8:	00a03533          	snez	a0,a0
800057bc:	00a6e533          	or	a0,a3,a0
800057c0:	00b7d7b3          	srl	a5,a5,a1
800057c4:	00c506b3          	add	a3,a0,a2
800057c8:	00e787b3          	add	a5,a5,a4
800057cc:	00c6b733          	sltu	a4,a3,a2
800057d0:	00e78733          	add	a4,a5,a4
800057d4:	00068613          	mv	a2,a3
800057d8:	00088813          	mv	a6,a7
800057dc:	e95ff06f          	j	80005670 <__subdf3+0x178>
800057e0:	fe058693          	addi	a3,a1,-32
800057e4:	02000313          	li	t1,32
800057e8:	00d7d6b3          	srl	a3,a5,a3
800057ec:	00000813          	li	a6,0
800057f0:	00658863          	beq	a1,t1,80005800 <__subdf3+0x308>
800057f4:	04000813          	li	a6,64
800057f8:	40b805b3          	sub	a1,a6,a1
800057fc:	00b79833          	sll	a6,a5,a1
80005800:	00a86533          	or	a0,a6,a0
80005804:	00a03533          	snez	a0,a0
80005808:	00a6e533          	or	a0,a3,a0
8000580c:	00000793          	li	a5,0
80005810:	fb5ff06f          	j	800057c4 <__subdf3+0x2cc>
80005814:	00a7e533          	or	a0,a5,a0
80005818:	00a03533          	snez	a0,a0
8000581c:	ff1ff06f          	j	8000580c <__subdf3+0x314>
80005820:	00140813          	addi	a6,s0,1 # 400001 <__stack_size+0x3ffc01>
80005824:	7fe87693          	andi	a3,a6,2046
80005828:	16069c63          	bnez	a3,800059a0 <__subdf3+0x4a8>
8000582c:	00a7e6b3          	or	a3,a5,a0
80005830:	04041e63          	bnez	s0,8000588c <__subdf3+0x394>
80005834:	6a068e63          	beqz	a3,80005ef0 <__subdf3+0x9f8>
80005838:	00c766b3          	or	a3,a4,a2
8000583c:	48068a63          	beqz	a3,80005cd0 <__subdf3+0x7d8>
80005840:	00c50633          	add	a2,a0,a2
80005844:	00e787b3          	add	a5,a5,a4
80005848:	00a63533          	sltu	a0,a2,a0
8000584c:	00a787b3          	add	a5,a5,a0
80005850:	00879713          	slli	a4,a5,0x8
80005854:	6a075063          	bgez	a4,80005ef4 <__subdf3+0x9fc>
80005858:	ff800737          	lui	a4,0xff800
8000585c:	fff70713          	addi	a4,a4,-1 # ff7fffff <__global_pointer+0x7f7f87f7>
80005860:	00e7f7b3          	and	a5,a5,a4
80005864:	00060513          	mv	a0,a2
80005868:	00000893          	li	a7,0
8000586c:	00100813          	li	a6,1
80005870:	00757713          	andi	a4,a0,7
80005874:	18071c63          	bnez	a4,80005a0c <__subdf3+0x514>
80005878:	08088663          	beqz	a7,80005904 <__subdf3+0x40c>
8000587c:	00147713          	andi	a4,s0,1
80005880:	08070263          	beqz	a4,80005904 <__subdf3+0x40c>
80005884:	00246413          	ori	s0,s0,2
80005888:	07c0006f          	j	80005904 <__subdf3+0x40c>
8000588c:	7ff00593          	li	a1,2047
80005890:	02b41a63          	bne	s0,a1,800058c4 <__subdf3+0x3cc>
80005894:	7c068a63          	beqz	a3,80006068 <__subdf3+0xb70>
80005898:	00400437          	lui	s0,0x400
8000589c:	0087f433          	and	s0,a5,s0
800058a0:	00143413          	seqz	s0,s0
800058a4:	00441413          	slli	s0,s0,0x4
800058a8:	04b89263          	bne	a7,a1,800058ec <__subdf3+0x3f4>
800058ac:	00c765b3          	or	a1,a4,a2
800058b0:	00058e63          	beqz	a1,800058cc <__subdf3+0x3d4>
800058b4:	00971593          	slli	a1,a4,0x9
800058b8:	0005ca63          	bltz	a1,800058cc <__subdf3+0x3d4>
800058bc:	01000413          	li	s0,16
800058c0:	00c0006f          	j	800058cc <__subdf3+0x3d4>
800058c4:	00000413          	li	s0,0
800058c8:	feb882e3          	beq	a7,a1,800058ac <__subdf3+0x3b4>
800058cc:	02069063          	bnez	a3,800058ec <__subdf3+0x3f4>
800058d0:	00070793          	mv	a5,a4
800058d4:	00060513          	mv	a0,a2
800058d8:	00000893          	li	a7,0
800058dc:	7ff00813          	li	a6,2047
800058e0:	f91ff06f          	j	80005870 <__subdf3+0x378>
800058e4:	00000413          	li	s0,0
800058e8:	fc5ff06f          	j	800058ac <__subdf3+0x3b4>
800058ec:	00c76733          	or	a4,a4,a2
800058f0:	fe0704e3          	beqz	a4,800058d8 <__subdf3+0x3e0>
800058f4:	00000493          	li	s1,0
800058f8:	004007b7          	lui	a5,0x400
800058fc:	00000513          	li	a0,0
80005900:	7ff00813          	li	a6,2047
80005904:	00879713          	slli	a4,a5,0x8
80005908:	00075e63          	bgez	a4,80005924 <__subdf3+0x42c>
8000590c:	00180813          	addi	a6,a6,1
80005910:	7ff00713          	li	a4,2047
80005914:	70e80863          	beq	a6,a4,80006024 <__subdf3+0xb2c>
80005918:	ff800737          	lui	a4,0xff800
8000591c:	fff70713          	addi	a4,a4,-1 # ff7fffff <__global_pointer+0x7f7f87f7>
80005920:	00e7f7b3          	and	a5,a5,a4
80005924:	01d79713          	slli	a4,a5,0x1d
80005928:	00355513          	srli	a0,a0,0x3
8000592c:	00a76533          	or	a0,a4,a0
80005930:	7ff00713          	li	a4,2047
80005934:	0037d793          	srli	a5,a5,0x3
80005938:	00e81e63          	bne	a6,a4,80005954 <__subdf3+0x45c>
8000593c:	00f56533          	or	a0,a0,a5
80005940:	00000793          	li	a5,0
80005944:	00050863          	beqz	a0,80005954 <__subdf3+0x45c>
80005948:	000807b7          	lui	a5,0x80
8000594c:	00000513          	li	a0,0
80005950:	00000493          	li	s1,0
80005954:	7ff00737          	lui	a4,0x7ff00
80005958:	01481813          	slli	a6,a6,0x14
8000595c:	00c79793          	slli	a5,a5,0xc
80005960:	00e87833          	and	a6,a6,a4
80005964:	00c7d793          	srli	a5,a5,0xc
80005968:	00f867b3          	or	a5,a6,a5
8000596c:	01f49493          	slli	s1,s1,0x1f
80005970:	0097e733          	or	a4,a5,s1
80005974:	00070593          	mv	a1,a4
80005978:	00040463          	beqz	s0,80005980 <__subdf3+0x488>
8000597c:	00142073          	csrs	fflags,s0
80005980:	01c12083          	lw	ra,28(sp)
80005984:	01812403          	lw	s0,24(sp)
80005988:	01412483          	lw	s1,20(sp)
8000598c:	01012903          	lw	s2,16(sp)
80005990:	00c12983          	lw	s3,12(sp)
80005994:	00812a03          	lw	s4,8(sp)
80005998:	02010113          	addi	sp,sp,32
8000599c:	00008067          	ret
800059a0:	7ff00693          	li	a3,2047
800059a4:	02d80863          	beq	a6,a3,800059d4 <__subdf3+0x4dc>
800059a8:	00c50633          	add	a2,a0,a2
800059ac:	00a63533          	sltu	a0,a2,a0
800059b0:	00e787b3          	add	a5,a5,a4
800059b4:	00a787b3          	add	a5,a5,a0
800059b8:	01f79513          	slli	a0,a5,0x1f
800059bc:	00165613          	srli	a2,a2,0x1
800059c0:	00c56533          	or	a0,a0,a2
800059c4:	0017d793          	srli	a5,a5,0x1
800059c8:	00000893          	li	a7,0
800059cc:	00000413          	li	s0,0
800059d0:	ea1ff06f          	j	80005870 <__subdf3+0x378>
800059d4:	00098863          	beqz	s3,800059e4 <__subdf3+0x4ec>
800059d8:	00300793          	li	a5,3
800059dc:	00f99863          	bne	s3,a5,800059ec <__subdf3+0x4f4>
800059e0:	00049c63          	bnez	s1,800059f8 <__subdf3+0x500>
800059e4:	7ff00813          	li	a6,2047
800059e8:	06c0006f          	j	80005a54 <__subdf3+0x55c>
800059ec:	00200793          	li	a5,2
800059f0:	00f99463          	bne	s3,a5,800059f8 <__subdf3+0x500>
800059f4:	fe0498e3          	bnez	s1,800059e4 <__subdf3+0x4ec>
800059f8:	00000893          	li	a7,0
800059fc:	fff00793          	li	a5,-1
80005a00:	fff00513          	li	a0,-1
80005a04:	7fe00813          	li	a6,2046
80005a08:	00500413          	li	s0,5
80005a0c:	00200713          	li	a4,2
80005a10:	00146413          	ori	s0,s0,1
80005a14:	60e98263          	beq	s3,a4,80006018 <__subdf3+0xb20>
80005a18:	00300713          	li	a4,3
80005a1c:	5ee98863          	beq	s3,a4,8000600c <__subdf3+0xb14>
80005a20:	5e099e63          	bnez	s3,8000601c <__subdf3+0xb24>
80005a24:	00f57713          	andi	a4,a0,15
80005a28:	00400693          	li	a3,4
80005a2c:	5ed70863          	beq	a4,a3,8000601c <__subdf3+0xb24>
80005a30:	00450713          	addi	a4,a0,4
80005a34:	00a73533          	sltu	a0,a4,a0
80005a38:	00a787b3          	add	a5,a5,a0
80005a3c:	00070513          	mv	a0,a4
80005a40:	5dc0006f          	j	8000601c <__subdf3+0xb24>
80005a44:	00098863          	beqz	s3,80005a54 <__subdf3+0x55c>
80005a48:	00300793          	li	a5,3
80005a4c:	00f99c63          	bne	s3,a5,80005a64 <__subdf3+0x56c>
80005a50:	50049c63          	bnez	s1,80005f68 <__subdf3+0xa70>
80005a54:	00000793          	li	a5,0
80005a58:	00000513          	li	a0,0
80005a5c:	00500413          	li	s0,5
80005a60:	ea5ff06f          	j	80005904 <__subdf3+0x40c>
80005a64:	00200793          	li	a5,2
80005a68:	50f99063          	bne	s3,a5,80005f68 <__subdf3+0xa70>
80005a6c:	fe0494e3          	bnez	s1,80005a54 <__subdf3+0x55c>
80005a70:	f89ff06f          	j	800059f8 <__subdf3+0x500>
80005a74:	0f005c63          	blez	a6,80005b6c <__subdf3+0x674>
80005a78:	08089e63          	bnez	a7,80005b14 <__subdf3+0x61c>
80005a7c:	00c766b3          	or	a3,a4,a2
80005a80:	b00686e3          	beqz	a3,8000558c <__subdf3+0x94>
80005a84:	fff80693          	addi	a3,a6,-1
80005a88:	00069e63          	bnez	a3,80005aa4 <__subdf3+0x5ac>
80005a8c:	40c50633          	sub	a2,a0,a2
80005a90:	40e787b3          	sub	a5,a5,a4
80005a94:	00c536b3          	sltu	a3,a0,a2
80005a98:	40d78733          	sub	a4,a5,a3
80005a9c:	00100813          	li	a6,1
80005aa0:	0540006f          	j	80005af4 <__subdf3+0x5fc>
80005aa4:	7ff00593          	li	a1,2047
80005aa8:	b2b80ae3          	beq	a6,a1,800055dc <__subdf3+0xe4>
80005aac:	03800593          	li	a1,56
80005ab0:	0ad5c863          	blt	a1,a3,80005b60 <__subdf3+0x668>
80005ab4:	01f00593          	li	a1,31
80005ab8:	06d5ca63          	blt	a1,a3,80005b2c <__subdf3+0x634>
80005abc:	02000813          	li	a6,32
80005ac0:	40d80833          	sub	a6,a6,a3
80005ac4:	00d658b3          	srl	a7,a2,a3
80005ac8:	010715b3          	sll	a1,a4,a6
80005acc:	01061633          	sll	a2,a2,a6
80005ad0:	0115e5b3          	or	a1,a1,a7
80005ad4:	00c03633          	snez	a2,a2
80005ad8:	00c5e633          	or	a2,a1,a2
80005adc:	00d756b3          	srl	a3,a4,a3
80005ae0:	40c50633          	sub	a2,a0,a2
80005ae4:	40d786b3          	sub	a3,a5,a3
80005ae8:	00c537b3          	sltu	a5,a0,a2
80005aec:	40f68733          	sub	a4,a3,a5
80005af0:	00040813          	mv	a6,s0
80005af4:	00871793          	slli	a5,a4,0x8
80005af8:	c007d4e3          	bgez	a5,80005700 <__subdf3+0x208>
80005afc:	00800937          	lui	s2,0x800
80005b00:	fff90913          	addi	s2,s2,-1 # 7fffff <__stack_size+0x7ffbff>
80005b04:	01277933          	and	s2,a4,s2
80005b08:	00060a13          	mv	s4,a2
80005b0c:	00080413          	mv	s0,a6
80005b10:	3040006f          	j	80005e14 <__subdf3+0x91c>
80005b14:	7ff00693          	li	a3,2047
80005b18:	aed402e3          	beq	s0,a3,800055fc <__subdf3+0x104>
80005b1c:	008006b7          	lui	a3,0x800
80005b20:	00d76733          	or	a4,a4,a3
80005b24:	00080693          	mv	a3,a6
80005b28:	f85ff06f          	j	80005aac <__subdf3+0x5b4>
80005b2c:	fe068593          	addi	a1,a3,-32 # 7fffe0 <__stack_size+0x7ffbe0>
80005b30:	02000893          	li	a7,32
80005b34:	00b755b3          	srl	a1,a4,a1
80005b38:	00000813          	li	a6,0
80005b3c:	01168863          	beq	a3,a7,80005b4c <__subdf3+0x654>
80005b40:	04000813          	li	a6,64
80005b44:	40d806b3          	sub	a3,a6,a3
80005b48:	00d71833          	sll	a6,a4,a3
80005b4c:	00c86633          	or	a2,a6,a2
80005b50:	00c03633          	snez	a2,a2
80005b54:	00c5e633          	or	a2,a1,a2
80005b58:	00000693          	li	a3,0
80005b5c:	f85ff06f          	j	80005ae0 <__subdf3+0x5e8>
80005b60:	00c76633          	or	a2,a4,a2
80005b64:	00c03633          	snez	a2,a2
80005b68:	ff1ff06f          	j	80005b58 <__subdf3+0x660>
80005b6c:	12080a63          	beqz	a6,80005ca0 <__subdf3+0x7a8>
80005b70:	40888833          	sub	a6,a7,s0
80005b74:	06041263          	bnez	s0,80005bd8 <__subdf3+0x6e0>
80005b78:	00a7e5b3          	or	a1,a5,a0
80005b7c:	00059863          	bnez	a1,80005b8c <__subdf3+0x694>
80005b80:	7ff00793          	li	a5,2047
80005b84:	00068493          	mv	s1,a3
80005b88:	b75ff06f          	j	800056fc <__subdf3+0x204>
80005b8c:	fff80313          	addi	t1,a6,-1
80005b90:	02031063          	bnez	t1,80005bb0 <__subdf3+0x6b8>
80005b94:	40a605b3          	sub	a1,a2,a0
80005b98:	00b63633          	sltu	a2,a2,a1
80005b9c:	40f707b3          	sub	a5,a4,a5
80005ba0:	40c78733          	sub	a4,a5,a2
80005ba4:	00068493          	mv	s1,a3
80005ba8:	00058613          	mv	a2,a1
80005bac:	ef1ff06f          	j	80005a9c <__subdf3+0x5a4>
80005bb0:	7ff00593          	li	a1,2047
80005bb4:	04b81c63          	bne	a6,a1,80005c0c <__subdf3+0x714>
80005bb8:	00c76533          	or	a0,a4,a2
80005bbc:	3e050463          	beqz	a0,80005fa4 <__subdf3+0xaac>
80005bc0:	00971793          	slli	a5,a4,0x9
80005bc4:	3e07c663          	bltz	a5,80005fb0 <__subdf3+0xab8>
80005bc8:	00070793          	mv	a5,a4
80005bcc:	00060513          	mv	a0,a2
80005bd0:	00068493          	mv	s1,a3
80005bd4:	ba9ff06f          	j	8000577c <__subdf3+0x284>
80005bd8:	7ff00593          	li	a1,2047
80005bdc:	02b89263          	bne	a7,a1,80005c00 <__subdf3+0x708>
80005be0:	00c76533          	or	a0,a4,a2
80005be4:	3c050e63          	beqz	a0,80005fc0 <__subdf3+0xac8>
80005be8:	00971793          	slli	a5,a4,0x9
80005bec:	3e07c263          	bltz	a5,80005fd0 <__subdf3+0xad8>
80005bf0:	00070793          	mv	a5,a4
80005bf4:	00060513          	mv	a0,a2
80005bf8:	7ff00813          	li	a6,2047
80005bfc:	fd5ff06f          	j	80005bd0 <__subdf3+0x6d8>
80005c00:	008005b7          	lui	a1,0x800
80005c04:	00b7e7b3          	or	a5,a5,a1
80005c08:	00080313          	mv	t1,a6
80005c0c:	03800593          	li	a1,56
80005c10:	0865c263          	blt	a1,t1,80005c94 <__subdf3+0x79c>
80005c14:	01f00593          	li	a1,31
80005c18:	0465c463          	blt	a1,t1,80005c60 <__subdf3+0x768>
80005c1c:	02000813          	li	a6,32
80005c20:	40680833          	sub	a6,a6,t1
80005c24:	010795b3          	sll	a1,a5,a6
80005c28:	00655e33          	srl	t3,a0,t1
80005c2c:	01051533          	sll	a0,a0,a6
80005c30:	01c5e5b3          	or	a1,a1,t3
80005c34:	00a03533          	snez	a0,a0
80005c38:	00a5e533          	or	a0,a1,a0
80005c3c:	0067d7b3          	srl	a5,a5,t1
80005c40:	40a605b3          	sub	a1,a2,a0
80005c44:	40f707b3          	sub	a5,a4,a5
80005c48:	00b63733          	sltu	a4,a2,a1
80005c4c:	40e78733          	sub	a4,a5,a4
80005c50:	00058613          	mv	a2,a1
80005c54:	00088813          	mv	a6,a7
80005c58:	00068493          	mv	s1,a3
80005c5c:	e99ff06f          	j	80005af4 <__subdf3+0x5fc>
80005c60:	fe030593          	addi	a1,t1,-32
80005c64:	02000e13          	li	t3,32
80005c68:	00b7d5b3          	srl	a1,a5,a1
80005c6c:	00000813          	li	a6,0
80005c70:	01c30863          	beq	t1,t3,80005c80 <__subdf3+0x788>
80005c74:	04000813          	li	a6,64
80005c78:	40680333          	sub	t1,a6,t1
80005c7c:	00679833          	sll	a6,a5,t1
80005c80:	00a86533          	or	a0,a6,a0
80005c84:	00a03533          	snez	a0,a0
80005c88:	00a5e533          	or	a0,a1,a0
80005c8c:	00000793          	li	a5,0
80005c90:	fb1ff06f          	j	80005c40 <__subdf3+0x748>
80005c94:	00a7e533          	or	a0,a5,a0
80005c98:	00a03533          	snez	a0,a0
80005c9c:	ff1ff06f          	j	80005c8c <__subdf3+0x794>
80005ca0:	00140593          	addi	a1,s0,1 # 400001 <__stack_size+0x3ffc01>
80005ca4:	7fe5f593          	andi	a1,a1,2046
80005ca8:	14059063          	bnez	a1,80005de8 <__subdf3+0x8f0>
80005cac:	00a7e333          	or	t1,a5,a0
80005cb0:	00c765b3          	or	a1,a4,a2
80005cb4:	0c041863          	bnez	s0,80005d84 <__subdf3+0x88c>
80005cb8:	08031063          	bnez	t1,80005d38 <__subdf3+0x840>
80005cbc:	24059063          	bnez	a1,80005efc <__subdf3+0xa04>
80005cc0:	ffe98493          	addi	s1,s3,-2
80005cc4:	0014b493          	seqz	s1,s1
80005cc8:	00000793          	li	a5,0
80005ccc:	00000513          	li	a0,0
80005cd0:	00f56733          	or	a4,a0,a5
80005cd4:	32070463          	beqz	a4,80005ffc <__subdf3+0xb04>
80005cd8:	01f55713          	srli	a4,a0,0x1f
80005cdc:	00179893          	slli	a7,a5,0x1
80005ce0:	00e888b3          	add	a7,a7,a4
80005ce4:	00151713          	slli	a4,a0,0x1
80005ce8:	00777693          	andi	a3,a4,7
80005cec:	00000413          	li	s0,0
80005cf0:	02068a63          	beqz	a3,80005d24 <__subdf3+0x82c>
80005cf4:	00200693          	li	a3,2
80005cf8:	22d98c63          	beq	s3,a3,80005f30 <__subdf3+0xa38>
80005cfc:	00300693          	li	a3,3
80005d00:	20d98a63          	beq	s3,a3,80005f14 <__subdf3+0xa1c>
80005d04:	00100413          	li	s0,1
80005d08:	00099e63          	bnez	s3,80005d24 <__subdf3+0x82c>
80005d0c:	00f77693          	andi	a3,a4,15
80005d10:	00400613          	li	a2,4
80005d14:	00c68863          	beq	a3,a2,80005d24 <__subdf3+0x82c>
80005d18:	ffc73713          	sltiu	a4,a4,-4
80005d1c:	00174713          	xori	a4,a4,1
80005d20:	00e888b3          	add	a7,a7,a4
80005d24:	0188d893          	srli	a7,a7,0x18
80005d28:	0018c893          	xori	a7,a7,1
80005d2c:	0018f893          	andi	a7,a7,1
80005d30:	00000813          	li	a6,0
80005d34:	b3dff06f          	j	80005870 <__subdf3+0x378>
80005d38:	f8058ce3          	beqz	a1,80005cd0 <__subdf3+0x7d8>
80005d3c:	40c50833          	sub	a6,a0,a2
80005d40:	010538b3          	sltu	a7,a0,a6
80005d44:	40e785b3          	sub	a1,a5,a4
80005d48:	411585b3          	sub	a1,a1,a7
80005d4c:	00859893          	slli	a7,a1,0x8
80005d50:	0008de63          	bgez	a7,80005d6c <__subdf3+0x874>
80005d54:	40a60533          	sub	a0,a2,a0
80005d58:	40f707b3          	sub	a5,a4,a5
80005d5c:	00a63633          	sltu	a2,a2,a0
80005d60:	40c787b3          	sub	a5,a5,a2
80005d64:	00068493          	mv	s1,a3
80005d68:	f69ff06f          	j	80005cd0 <__subdf3+0x7d8>
80005d6c:	00b86533          	or	a0,a6,a1
80005d70:	18051c63          	bnez	a0,80005f08 <__subdf3+0xa10>
80005d74:	ffe98493          	addi	s1,s3,-2
80005d78:	0014b493          	seqz	s1,s1
80005d7c:	00000793          	li	a5,0
80005d80:	f51ff06f          	j	80005cd0 <__subdf3+0x7d8>
80005d84:	7ff00e13          	li	t3,2047
80005d88:	03c41863          	bne	s0,t3,80005db8 <__subdf3+0x8c0>
80005d8c:	2c030863          	beqz	t1,8000605c <__subdf3+0xb64>
80005d90:	00400437          	lui	s0,0x400
80005d94:	0087f433          	and	s0,a5,s0
80005d98:	00143413          	seqz	s0,s0
80005d9c:	00441413          	slli	s0,s0,0x4
80005da0:	05c89063          	bne	a7,t3,80005de0 <__subdf3+0x8e8>
80005da4:	00058e63          	beqz	a1,80005dc0 <__subdf3+0x8c8>
80005da8:	00971813          	slli	a6,a4,0x9
80005dac:	00084a63          	bltz	a6,80005dc0 <__subdf3+0x8c8>
80005db0:	01000413          	li	s0,16
80005db4:	00c0006f          	j	80005dc0 <__subdf3+0x8c8>
80005db8:	00000413          	li	s0,0
80005dbc:	ffc884e3          	beq	a7,t3,80005da4 <__subdf3+0x8ac>
80005dc0:	02031063          	bnez	t1,80005de0 <__subdf3+0x8e8>
80005dc4:	22058063          	beqz	a1,80005fe4 <__subdf3+0xaec>
80005dc8:	00070793          	mv	a5,a4
80005dcc:	00060513          	mv	a0,a2
80005dd0:	00068493          	mv	s1,a3
80005dd4:	b05ff06f          	j	800058d8 <__subdf3+0x3e0>
80005dd8:	00000413          	li	s0,0
80005ddc:	fc9ff06f          	j	80005da4 <__subdf3+0x8ac>
80005de0:	ae058ce3          	beqz	a1,800058d8 <__subdf3+0x3e0>
80005de4:	b11ff06f          	j	800058f4 <__subdf3+0x3fc>
80005de8:	40c50a33          	sub	s4,a0,a2
80005dec:	014535b3          	sltu	a1,a0,s4
80005df0:	40e78933          	sub	s2,a5,a4
80005df4:	40b90933          	sub	s2,s2,a1
80005df8:	00891593          	slli	a1,s2,0x8
80005dfc:	0805d263          	bgez	a1,80005e80 <__subdf3+0x988>
80005e00:	40a60a33          	sub	s4,a2,a0
80005e04:	40f707b3          	sub	a5,a4,a5
80005e08:	01463733          	sltu	a4,a2,s4
80005e0c:	40e78933          	sub	s2,a5,a4
80005e10:	00068493          	mv	s1,a3
80005e14:	06090c63          	beqz	s2,80005e8c <__subdf3+0x994>
80005e18:	00090513          	mv	a0,s2
80005e1c:	548000ef          	jal	ra,80006364 <__clzsi2>
80005e20:	ff850813          	addi	a6,a0,-8
80005e24:	01f00793          	li	a5,31
80005e28:	0707ca63          	blt	a5,a6,80005e9c <__subdf3+0x9a4>
80005e2c:	02000793          	li	a5,32
80005e30:	410787b3          	sub	a5,a5,a6
80005e34:	01091733          	sll	a4,s2,a6
80005e38:	00fa57b3          	srl	a5,s4,a5
80005e3c:	00e7e7b3          	or	a5,a5,a4
80005e40:	010a1633          	sll	a2,s4,a6
80005e44:	08884c63          	blt	a6,s0,80005edc <__subdf3+0x9e4>
80005e48:	40880833          	sub	a6,a6,s0
80005e4c:	00180593          	addi	a1,a6,1
80005e50:	01f00713          	li	a4,31
80005e54:	04b74c63          	blt	a4,a1,80005eac <__subdf3+0x9b4>
80005e58:	02000693          	li	a3,32
80005e5c:	40b686b3          	sub	a3,a3,a1
80005e60:	00d79533          	sll	a0,a5,a3
80005e64:	00b65733          	srl	a4,a2,a1
80005e68:	00d61633          	sll	a2,a2,a3
80005e6c:	00e56533          	or	a0,a0,a4
80005e70:	00c03633          	snez	a2,a2
80005e74:	00c56533          	or	a0,a0,a2
80005e78:	00b7d7b3          	srl	a5,a5,a1
80005e7c:	e55ff06f          	j	80005cd0 <__subdf3+0x7d8>
80005e80:	012a6533          	or	a0,s4,s2
80005e84:	f80518e3          	bnez	a0,80005e14 <__subdf3+0x91c>
80005e88:	eedff06f          	j	80005d74 <__subdf3+0x87c>
80005e8c:	000a0513          	mv	a0,s4
80005e90:	4d4000ef          	jal	ra,80006364 <__clzsi2>
80005e94:	02050513          	addi	a0,a0,32
80005e98:	f89ff06f          	j	80005e20 <__subdf3+0x928>
80005e9c:	fd850793          	addi	a5,a0,-40
80005ea0:	00fa17b3          	sll	a5,s4,a5
80005ea4:	00000613          	li	a2,0
80005ea8:	f9dff06f          	j	80005e44 <__subdf3+0x94c>
80005eac:	fe180813          	addi	a6,a6,-31
80005eb0:	02000693          	li	a3,32
80005eb4:	0107d833          	srl	a6,a5,a6
80005eb8:	00000713          	li	a4,0
80005ebc:	00d58863          	beq	a1,a3,80005ecc <__subdf3+0x9d4>
80005ec0:	04000713          	li	a4,64
80005ec4:	40b70733          	sub	a4,a4,a1
80005ec8:	00e79733          	sll	a4,a5,a4
80005ecc:	00e66733          	or	a4,a2,a4
80005ed0:	00e03533          	snez	a0,a4
80005ed4:	00a86533          	or	a0,a6,a0
80005ed8:	ea5ff06f          	j	80005d7c <__subdf3+0x884>
80005edc:	ff800737          	lui	a4,0xff800
80005ee0:	fff70513          	addi	a0,a4,-1 # ff7fffff <__global_pointer+0x7f7f87f7>
80005ee4:	41040833          	sub	a6,s0,a6
80005ee8:	00a7f733          	and	a4,a5,a0
80005eec:	815ff06f          	j	80005700 <__subdf3+0x208>
80005ef0:	00070793          	mv	a5,a4
80005ef4:	00060513          	mv	a0,a2
80005ef8:	dd9ff06f          	j	80005cd0 <__subdf3+0x7d8>
80005efc:	00070793          	mv	a5,a4
80005f00:	00060513          	mv	a0,a2
80005f04:	e61ff06f          	j	80005d64 <__subdf3+0x86c>
80005f08:	00058793          	mv	a5,a1
80005f0c:	00080513          	mv	a0,a6
80005f10:	dc1ff06f          	j	80005cd0 <__subdf3+0x7d8>
80005f14:	00048413          	mv	s0,s1
80005f18:	e00496e3          	bnez	s1,80005d24 <__subdf3+0x82c>
80005f1c:	ff873713          	sltiu	a4,a4,-8
80005f20:	00174713          	xori	a4,a4,1
80005f24:	00e888b3          	add	a7,a7,a4
80005f28:	00100413          	li	s0,1
80005f2c:	df9ff06f          	j	80005d24 <__subdf3+0x82c>
80005f30:	00100413          	li	s0,1
80005f34:	de0488e3          	beqz	s1,80005d24 <__subdf3+0x82c>
80005f38:	ff873713          	sltiu	a4,a4,-8
80005f3c:	00174713          	xori	a4,a4,1
80005f40:	00e888b3          	add	a7,a7,a4
80005f44:	00048413          	mv	s0,s1
80005f48:	dddff06f          	j	80005d24 <__subdf3+0x82c>
80005f4c:	00000793          	li	a5,0
80005f50:	7ff00813          	li	a6,2047
80005f54:	e98ff06f          	j	800055ec <__subdf3+0xf4>
80005f58:	00070793          	mv	a5,a4
80005f5c:	00060513          	mv	a0,a2
80005f60:	7ff00813          	li	a6,2047
80005f64:	a65ff06f          	j	800059c8 <__subdf3+0x4d0>
80005f68:	fff00793          	li	a5,-1
80005f6c:	fff00513          	li	a0,-1
80005f70:	7fe00813          	li	a6,2046
80005f74:	00000893          	li	a7,0
80005f78:	a91ff06f          	j	80005a08 <__subdf3+0x510>
80005f7c:	00000793          	li	a5,0
80005f80:	00000513          	li	a0,0
80005f84:	981ff06f          	j	80005904 <__subdf3+0x40c>
80005f88:	00000793          	li	a5,0
80005f8c:	00000513          	li	a0,0
80005f90:	fc1ff06f          	j	80005f50 <__subdf3+0xa58>
80005f94:	00070793          	mv	a5,a4
80005f98:	00060513          	mv	a0,a2
80005f9c:	00000893          	li	a7,0
80005fa0:	8d1ff06f          	j	80005870 <__subdf3+0x378>
80005fa4:	00000793          	li	a5,0
80005fa8:	00068493          	mv	s1,a3
80005fac:	959ff06f          	j	80005904 <__subdf3+0x40c>
80005fb0:	00070793          	mv	a5,a4
80005fb4:	00060513          	mv	a0,a2
80005fb8:	00068493          	mv	s1,a3
80005fbc:	fe1ff06f          	j	80005f9c <__subdf3+0xaa4>
80005fc0:	00000793          	li	a5,0
80005fc4:	7ff00813          	li	a6,2047
80005fc8:	00068493          	mv	s1,a3
80005fcc:	e20ff06f          	j	800055ec <__subdf3+0xf4>
80005fd0:	00070793          	mv	a5,a4
80005fd4:	00060513          	mv	a0,a2
80005fd8:	7ff00813          	li	a6,2047
80005fdc:	00068493          	mv	s1,a3
80005fe0:	9e9ff06f          	j	800059c8 <__subdf3+0x4d0>
80005fe4:	00000513          	li	a0,0
80005fe8:	00000493          	li	s1,0
80005fec:	004007b7          	lui	a5,0x400
80005ff0:	7ff00813          	li	a6,2047
80005ff4:	01000413          	li	s0,16
80005ff8:	90dff06f          	j	80005904 <__subdf3+0x40c>
80005ffc:	00000793          	li	a5,0
80006000:	00000513          	li	a0,0
80006004:	00000813          	li	a6,0
80006008:	de4ff06f          	j	800055ec <__subdf3+0xf4>
8000600c:	00049863          	bnez	s1,8000601c <__subdf3+0xb24>
80006010:	00850713          	addi	a4,a0,8
80006014:	a21ff06f          	j	80005a34 <__subdf3+0x53c>
80006018:	fe049ce3          	bnez	s1,80006010 <__subdf3+0xb18>
8000601c:	860894e3          	bnez	a7,80005884 <__subdf3+0x38c>
80006020:	8e5ff06f          	j	80005904 <__subdf3+0x40c>
80006024:	00000513          	li	a0,0
80006028:	02098463          	beqz	s3,80006050 <__subdf3+0xb58>
8000602c:	00300793          	li	a5,3
80006030:	00f99a63          	bne	s3,a5,80006044 <__subdf3+0xb4c>
80006034:	00048e63          	beqz	s1,80006050 <__subdf3+0xb58>
80006038:	fff00513          	li	a0,-1
8000603c:	7fe00813          	li	a6,2046
80006040:	0100006f          	j	80006050 <__subdf3+0xb58>
80006044:	00200793          	li	a5,2
80006048:	fef998e3          	bne	s3,a5,80006038 <__subdf3+0xb40>
8000604c:	fe0486e3          	beqz	s1,80006038 <__subdf3+0xb40>
80006050:	00546413          	ori	s0,s0,5
80006054:	00050793          	mv	a5,a0
80006058:	8cdff06f          	j	80005924 <__subdf3+0x42c>
8000605c:	d6888ee3          	beq	a7,s0,80005dd8 <__subdf3+0x8e0>
80006060:	00000413          	li	s0,0
80006064:	d61ff06f          	j	80005dc4 <__subdf3+0x8cc>
80006068:	86888ee3          	beq	a7,s0,800058e4 <__subdf3+0x3ec>
8000606c:	00000413          	li	s0,0
80006070:	861ff06f          	j	800058d0 <__subdf3+0x3d8>

80006074 <__fixdfsi>:
80006074:	00050813          	mv	a6,a0
80006078:	002027f3          	frrm	a5
8000607c:	001007b7          	lui	a5,0x100
80006080:	0145d613          	srli	a2,a1,0x14
80006084:	fff78693          	addi	a3,a5,-1 # fffff <__stack_size+0xffbff>
80006088:	7ff67613          	andi	a2,a2,2047
8000608c:	3fe00713          	li	a4,1022
80006090:	00b6f6b3          	and	a3,a3,a1
80006094:	01f5d593          	srli	a1,a1,0x1f
80006098:	00c74a63          	blt	a4,a2,800060ac <__fixdfsi+0x38>
8000609c:	0a061e63          	bnez	a2,80006158 <__fixdfsi+0xe4>
800060a0:	00a6e533          	or	a0,a3,a0
800060a4:	0a051a63          	bnez	a0,80006158 <__fixdfsi+0xe4>
800060a8:	00008067          	ret
800060ac:	41d00713          	li	a4,1053
800060b0:	02c75e63          	bge	a4,a2,800060ec <__fixdfsi+0x78>
800060b4:	80000737          	lui	a4,0x80000
800060b8:	fff74713          	not	a4,a4
800060bc:	00e58533          	add	a0,a1,a4
800060c0:	0a058263          	beqz	a1,80006164 <__fixdfsi+0xf0>
800060c4:	41e00793          	li	a5,1054
800060c8:	01000713          	li	a4,16
800060cc:	04f61c63          	bne	a2,a5,80006124 <__fixdfsi+0xb0>
800060d0:	00b69793          	slli	a5,a3,0xb
800060d4:	01585693          	srli	a3,a6,0x15
800060d8:	00d7e7b3          	or	a5,a5,a3
800060dc:	04079463          	bnez	a5,80006124 <__fixdfsi+0xb0>
800060e0:	00b81713          	slli	a4,a6,0xb
800060e4:	08071463          	bnez	a4,8000616c <__fixdfsi+0xf8>
800060e8:	00008067          	ret
800060ec:	43300513          	li	a0,1075
800060f0:	40c50533          	sub	a0,a0,a2
800060f4:	01f00713          	li	a4,31
800060f8:	00f6e7b3          	or	a5,a3,a5
800060fc:	02a74863          	blt	a4,a0,8000612c <__fixdfsi+0xb8>
80006100:	bed60613          	addi	a2,a2,-1043
80006104:	00c816b3          	sll	a3,a6,a2
80006108:	00c797b3          	sll	a5,a5,a2
8000610c:	00a85533          	srl	a0,a6,a0
80006110:	00d03733          	snez	a4,a3
80006114:	00a7e533          	or	a0,a5,a0
80006118:	00058463          	beqz	a1,80006120 <__fixdfsi+0xac>
8000611c:	40a00533          	neg	a0,a0
80006120:	00070463          	beqz	a4,80006128 <__fixdfsi+0xb4>
80006124:	00172073          	csrs	fflags,a4
80006128:	00008067          	ret
8000612c:	02000693          	li	a3,32
80006130:	00000713          	li	a4,0
80006134:	00d50663          	beq	a0,a3,80006140 <__fixdfsi+0xcc>
80006138:	c0d60693          	addi	a3,a2,-1011
8000613c:	00d79733          	sll	a4,a5,a3
80006140:	41300513          	li	a0,1043
80006144:	01076733          	or	a4,a4,a6
80006148:	40c50533          	sub	a0,a0,a2
8000614c:	00e03733          	snez	a4,a4
80006150:	00a7d533          	srl	a0,a5,a0
80006154:	fc5ff06f          	j	80006118 <__fixdfsi+0xa4>
80006158:	00000513          	li	a0,0
8000615c:	00100713          	li	a4,1
80006160:	fc5ff06f          	j	80006124 <__fixdfsi+0xb0>
80006164:	01000713          	li	a4,16
80006168:	fbdff06f          	j	80006124 <__fixdfsi+0xb0>
8000616c:	00058713          	mv	a4,a1
80006170:	fb5ff06f          	j	80006124 <__fixdfsi+0xb0>

80006174 <__fixunsdfsi>:
80006174:	002027f3          	frrm	a5
80006178:	00100837          	lui	a6,0x100
8000617c:	0145d693          	srli	a3,a1,0x14
80006180:	fff80793          	addi	a5,a6,-1 # fffff <__stack_size+0xffbff>
80006184:	7ff6f693          	andi	a3,a3,2047
80006188:	3fe00613          	li	a2,1022
8000618c:	00b7f7b3          	and	a5,a5,a1
80006190:	01f5d713          	srli	a4,a1,0x1f
80006194:	00d64a63          	blt	a2,a3,800061a8 <__fixunsdfsi+0x34>
80006198:	08069863          	bnez	a3,80006228 <__fixunsdfsi+0xb4>
8000619c:	00a7e533          	or	a0,a5,a0
800061a0:	08051463          	bnez	a0,80006228 <__fixunsdfsi+0xb4>
800061a4:	00008067          	ret
800061a8:	41f00613          	li	a2,1055
800061ac:	40e60633          	sub	a2,a2,a4
800061b0:	04c6d063          	bge	a3,a2,800061f0 <__fixunsdfsi+0x7c>
800061b4:	08071063          	bnez	a4,80006234 <__fixunsdfsi+0xc0>
800061b8:	43300613          	li	a2,1075
800061bc:	0107e5b3          	or	a1,a5,a6
800061c0:	40d60633          	sub	a2,a2,a3
800061c4:	01f00793          	li	a5,31
800061c8:	02c7ca63          	blt	a5,a2,800061fc <__fixunsdfsi+0x88>
800061cc:	bed68693          	addi	a3,a3,-1043
800061d0:	00d51733          	sll	a4,a0,a3
800061d4:	00d595b3          	sll	a1,a1,a3
800061d8:	00c55533          	srl	a0,a0,a2
800061dc:	00e037b3          	snez	a5,a4
800061e0:	00a5e533          	or	a0,a1,a0
800061e4:	00078463          	beqz	a5,800061ec <__fixunsdfsi+0x78>
800061e8:	0017a073          	csrs	fflags,a5
800061ec:	00008067          	ret
800061f0:	fff70513          	addi	a0,a4,-1 # 7fffffff <__global_pointer+0xffff87f7>
800061f4:	01000793          	li	a5,16
800061f8:	ff1ff06f          	j	800061e8 <__fixunsdfsi+0x74>
800061fc:	02000713          	li	a4,32
80006200:	00000793          	li	a5,0
80006204:	00e60663          	beq	a2,a4,80006210 <__fixunsdfsi+0x9c>
80006208:	c0d68713          	addi	a4,a3,-1011
8000620c:	00e597b3          	sll	a5,a1,a4
80006210:	00a7e7b3          	or	a5,a5,a0
80006214:	41300513          	li	a0,1043
80006218:	40d50533          	sub	a0,a0,a3
8000621c:	00f037b3          	snez	a5,a5
80006220:	00a5d533          	srl	a0,a1,a0
80006224:	fc1ff06f          	j	800061e4 <__fixunsdfsi+0x70>
80006228:	00000513          	li	a0,0
8000622c:	00100793          	li	a5,1
80006230:	fb9ff06f          	j	800061e8 <__fixunsdfsi+0x74>
80006234:	00000513          	li	a0,0
80006238:	fbdff06f          	j	800061f4 <__fixunsdfsi+0x80>

8000623c <__floatsidf>:
8000623c:	ff010113          	addi	sp,sp,-16
80006240:	00112623          	sw	ra,12(sp)
80006244:	00812423          	sw	s0,8(sp)
80006248:	00912223          	sw	s1,4(sp)
8000624c:	08050663          	beqz	a0,800062d8 <__floatsidf+0x9c>
80006250:	41f55793          	srai	a5,a0,0x1f
80006254:	00a7c433          	xor	s0,a5,a0
80006258:	40f40433          	sub	s0,s0,a5
8000625c:	01f55493          	srli	s1,a0,0x1f
80006260:	00040513          	mv	a0,s0
80006264:	100000ef          	jal	ra,80006364 <__clzsi2>
80006268:	41e00713          	li	a4,1054
8000626c:	00a00793          	li	a5,10
80006270:	40a70733          	sub	a4,a4,a0
80006274:	04a7c863          	blt	a5,a0,800062c4 <__floatsidf+0x88>
80006278:	00b00793          	li	a5,11
8000627c:	40a787b3          	sub	a5,a5,a0
80006280:	01550513          	addi	a0,a0,21
80006284:	00f457b3          	srl	a5,s0,a5
80006288:	00a41433          	sll	s0,s0,a0
8000628c:	00048513          	mv	a0,s1
80006290:	00c79793          	slli	a5,a5,0xc
80006294:	01471713          	slli	a4,a4,0x14
80006298:	00c7d793          	srli	a5,a5,0xc
8000629c:	01f51513          	slli	a0,a0,0x1f
800062a0:	00f767b3          	or	a5,a4,a5
800062a4:	00c12083          	lw	ra,12(sp)
800062a8:	00a7e733          	or	a4,a5,a0
800062ac:	00040513          	mv	a0,s0
800062b0:	00812403          	lw	s0,8(sp)
800062b4:	00412483          	lw	s1,4(sp)
800062b8:	00070593          	mv	a1,a4
800062bc:	01010113          	addi	sp,sp,16
800062c0:	00008067          	ret
800062c4:	ff550513          	addi	a0,a0,-11
800062c8:	00a417b3          	sll	a5,s0,a0
800062cc:	00048513          	mv	a0,s1
800062d0:	00000413          	li	s0,0
800062d4:	fbdff06f          	j	80006290 <__floatsidf+0x54>
800062d8:	00000713          	li	a4,0
800062dc:	00000793          	li	a5,0
800062e0:	ff1ff06f          	j	800062d0 <__floatsidf+0x94>

800062e4 <__floatunsidf>:
800062e4:	ff010113          	addi	sp,sp,-16
800062e8:	00812423          	sw	s0,8(sp)
800062ec:	00112623          	sw	ra,12(sp)
800062f0:	00050413          	mv	s0,a0
800062f4:	06050263          	beqz	a0,80006358 <__floatunsidf+0x74>
800062f8:	06c000ef          	jal	ra,80006364 <__clzsi2>
800062fc:	41e00713          	li	a4,1054
80006300:	00a00793          	li	a5,10
80006304:	40a70733          	sub	a4,a4,a0
80006308:	04a7c063          	blt	a5,a0,80006348 <__floatunsidf+0x64>
8000630c:	00b00793          	li	a5,11
80006310:	40a787b3          	sub	a5,a5,a0
80006314:	01550513          	addi	a0,a0,21
80006318:	00f457b3          	srl	a5,s0,a5
8000631c:	00a41433          	sll	s0,s0,a0
80006320:	00c12083          	lw	ra,12(sp)
80006324:	00040513          	mv	a0,s0
80006328:	00c79793          	slli	a5,a5,0xc
8000632c:	00812403          	lw	s0,8(sp)
80006330:	01471713          	slli	a4,a4,0x14
80006334:	00c7d793          	srli	a5,a5,0xc
80006338:	00f766b3          	or	a3,a4,a5
8000633c:	00068593          	mv	a1,a3
80006340:	01010113          	addi	sp,sp,16
80006344:	00008067          	ret
80006348:	ff550793          	addi	a5,a0,-11
8000634c:	00f417b3          	sll	a5,s0,a5
80006350:	00000413          	li	s0,0
80006354:	fcdff06f          	j	80006320 <__floatunsidf+0x3c>
80006358:	00000793          	li	a5,0
8000635c:	00000713          	li	a4,0
80006360:	fc1ff06f          	j	80006320 <__floatunsidf+0x3c>

80006364 <__clzsi2>:
80006364:	000107b7          	lui	a5,0x10
80006368:	02f57a63          	bgeu	a0,a5,8000639c <__clzsi2+0x38>
8000636c:	0ff00793          	li	a5,255
80006370:	00a7b7b3          	sltu	a5,a5,a0
80006374:	00379793          	slli	a5,a5,0x3
80006378:	80007737          	lui	a4,0x80007
8000637c:	02000693          	li	a3,32
80006380:	40f686b3          	sub	a3,a3,a5
80006384:	00f55533          	srl	a0,a0,a5
80006388:	b7870793          	addi	a5,a4,-1160 # 80006b78 <__global_pointer+0xfffff370>
8000638c:	00a78533          	add	a0,a5,a0
80006390:	00054503          	lbu	a0,0(a0)
80006394:	40a68533          	sub	a0,a3,a0
80006398:	00008067          	ret
8000639c:	01000737          	lui	a4,0x1000
800063a0:	01000793          	li	a5,16
800063a4:	fce56ae3          	bltu	a0,a4,80006378 <__clzsi2+0x14>
800063a8:	01800793          	li	a5,24
800063ac:	fcdff06f          	j	80006378 <__clzsi2+0x14>

800063b0 <atexit>:
800063b0:	00050593          	mv	a1,a0
800063b4:	00000693          	li	a3,0
800063b8:	00000613          	li	a2,0
800063bc:	00000513          	li	a0,0
800063c0:	2300006f          	j	800065f0 <__register_exitproc>

800063c4 <exit>:
800063c4:	ff010113          	addi	sp,sp,-16
800063c8:	00000593          	li	a1,0
800063cc:	00812423          	sw	s0,8(sp)
800063d0:	00112623          	sw	ra,12(sp)
800063d4:	00050413          	mv	s0,a0
800063d8:	2b4000ef          	jal	ra,8000668c <__call_exitprocs>
800063dc:	800077b7          	lui	a5,0x80007
800063e0:	4c87a503          	lw	a0,1224(a5) # 800074c8 <__global_pointer+0xfffffcc0>
800063e4:	03c52783          	lw	a5,60(a0)
800063e8:	00078463          	beqz	a5,800063f0 <exit+0x2c>
800063ec:	000780e7          	jalr	a5
800063f0:	00040513          	mv	a0,s0
800063f4:	de4fa0ef          	jal	ra,800009d8 <_exit>

800063f8 <memcpy>:
800063f8:	00a5c7b3          	xor	a5,a1,a0
800063fc:	0037f793          	andi	a5,a5,3
80006400:	00c508b3          	add	a7,a0,a2
80006404:	06079263          	bnez	a5,80006468 <memcpy+0x70>
80006408:	00300793          	li	a5,3
8000640c:	04c7fe63          	bgeu	a5,a2,80006468 <memcpy+0x70>
80006410:	00357793          	andi	a5,a0,3
80006414:	00050713          	mv	a4,a0
80006418:	06079863          	bnez	a5,80006488 <memcpy+0x90>
8000641c:	ffc8f613          	andi	a2,a7,-4
80006420:	fe060793          	addi	a5,a2,-32
80006424:	08f76c63          	bltu	a4,a5,800064bc <memcpy+0xc4>
80006428:	02c77c63          	bgeu	a4,a2,80006460 <memcpy+0x68>
8000642c:	00058693          	mv	a3,a1
80006430:	00070793          	mv	a5,a4
80006434:	0006a803          	lw	a6,0(a3)
80006438:	00478793          	addi	a5,a5,4
8000643c:	00468693          	addi	a3,a3,4
80006440:	ff07ae23          	sw	a6,-4(a5)
80006444:	fec7e8e3          	bltu	a5,a2,80006434 <memcpy+0x3c>
80006448:	fff60793          	addi	a5,a2,-1
8000644c:	40e787b3          	sub	a5,a5,a4
80006450:	ffc7f793          	andi	a5,a5,-4
80006454:	00478793          	addi	a5,a5,4
80006458:	00f70733          	add	a4,a4,a5
8000645c:	00f585b3          	add	a1,a1,a5
80006460:	01176863          	bltu	a4,a7,80006470 <memcpy+0x78>
80006464:	00008067          	ret
80006468:	00050713          	mv	a4,a0
8000646c:	ff157ce3          	bgeu	a0,a7,80006464 <memcpy+0x6c>
80006470:	0005c783          	lbu	a5,0(a1) # 800000 <__stack_size+0x7ffc00>
80006474:	00170713          	addi	a4,a4,1 # 1000001 <__stack_size+0xfffc01>
80006478:	00158593          	addi	a1,a1,1
8000647c:	fef70fa3          	sb	a5,-1(a4)
80006480:	ff1768e3          	bltu	a4,a7,80006470 <memcpy+0x78>
80006484:	00008067          	ret
80006488:	0005c683          	lbu	a3,0(a1)
8000648c:	00170713          	addi	a4,a4,1
80006490:	00377793          	andi	a5,a4,3
80006494:	fed70fa3          	sb	a3,-1(a4)
80006498:	00158593          	addi	a1,a1,1
8000649c:	f80780e3          	beqz	a5,8000641c <memcpy+0x24>
800064a0:	0005c683          	lbu	a3,0(a1)
800064a4:	00170713          	addi	a4,a4,1
800064a8:	00377793          	andi	a5,a4,3
800064ac:	fed70fa3          	sb	a3,-1(a4)
800064b0:	00158593          	addi	a1,a1,1
800064b4:	fc079ae3          	bnez	a5,80006488 <memcpy+0x90>
800064b8:	f65ff06f          	j	8000641c <memcpy+0x24>
800064bc:	0045a683          	lw	a3,4(a1)
800064c0:	0005a283          	lw	t0,0(a1)
800064c4:	0085af83          	lw	t6,8(a1)
800064c8:	00c5af03          	lw	t5,12(a1)
800064cc:	0105ae83          	lw	t4,16(a1)
800064d0:	0145ae03          	lw	t3,20(a1)
800064d4:	0185a303          	lw	t1,24(a1)
800064d8:	01c5a803          	lw	a6,28(a1)
800064dc:	00d72223          	sw	a3,4(a4)
800064e0:	0205a683          	lw	a3,32(a1)
800064e4:	00572023          	sw	t0,0(a4)
800064e8:	01f72423          	sw	t6,8(a4)
800064ec:	01e72623          	sw	t5,12(a4)
800064f0:	01d72823          	sw	t4,16(a4)
800064f4:	01c72a23          	sw	t3,20(a4)
800064f8:	00672c23          	sw	t1,24(a4)
800064fc:	01072e23          	sw	a6,28(a4)
80006500:	02d72023          	sw	a3,32(a4)
80006504:	02470713          	addi	a4,a4,36
80006508:	02458593          	addi	a1,a1,36
8000650c:	faf768e3          	bltu	a4,a5,800064bc <memcpy+0xc4>
80006510:	f19ff06f          	j	80006428 <memcpy+0x30>

80006514 <memset>:
80006514:	00f00313          	li	t1,15
80006518:	00050713          	mv	a4,a0
8000651c:	02c37e63          	bgeu	t1,a2,80006558 <memset+0x44>
80006520:	00f77793          	andi	a5,a4,15
80006524:	0a079063          	bnez	a5,800065c4 <memset+0xb0>
80006528:	08059263          	bnez	a1,800065ac <memset+0x98>
8000652c:	ff067693          	andi	a3,a2,-16
80006530:	00f67613          	andi	a2,a2,15
80006534:	00e686b3          	add	a3,a3,a4
80006538:	00b72023          	sw	a1,0(a4)
8000653c:	00b72223          	sw	a1,4(a4)
80006540:	00b72423          	sw	a1,8(a4)
80006544:	00b72623          	sw	a1,12(a4)
80006548:	01070713          	addi	a4,a4,16
8000654c:	fed766e3          	bltu	a4,a3,80006538 <memset+0x24>
80006550:	00061463          	bnez	a2,80006558 <memset+0x44>
80006554:	00008067          	ret
80006558:	40c306b3          	sub	a3,t1,a2
8000655c:	00269693          	slli	a3,a3,0x2
80006560:	00000297          	auipc	t0,0x0
80006564:	005686b3          	add	a3,a3,t0
80006568:	00c68067          	jr	12(a3)
8000656c:	00b70723          	sb	a1,14(a4)
80006570:	00b706a3          	sb	a1,13(a4)
80006574:	00b70623          	sb	a1,12(a4)
80006578:	00b705a3          	sb	a1,11(a4)
8000657c:	00b70523          	sb	a1,10(a4)
80006580:	00b704a3          	sb	a1,9(a4)
80006584:	00b70423          	sb	a1,8(a4)
80006588:	00b703a3          	sb	a1,7(a4)
8000658c:	00b70323          	sb	a1,6(a4)
80006590:	00b702a3          	sb	a1,5(a4)
80006594:	00b70223          	sb	a1,4(a4)
80006598:	00b701a3          	sb	a1,3(a4)
8000659c:	00b70123          	sb	a1,2(a4)
800065a0:	00b700a3          	sb	a1,1(a4)
800065a4:	00b70023          	sb	a1,0(a4)
800065a8:	00008067          	ret
800065ac:	0ff5f593          	andi	a1,a1,255
800065b0:	00859693          	slli	a3,a1,0x8
800065b4:	00d5e5b3          	or	a1,a1,a3
800065b8:	01059693          	slli	a3,a1,0x10
800065bc:	00d5e5b3          	or	a1,a1,a3
800065c0:	f6dff06f          	j	8000652c <memset+0x18>
800065c4:	00279693          	slli	a3,a5,0x2
800065c8:	00000297          	auipc	t0,0x0
800065cc:	005686b3          	add	a3,a3,t0
800065d0:	00008293          	mv	t0,ra
800065d4:	fa0680e7          	jalr	-96(a3)
800065d8:	00028093          	mv	ra,t0
800065dc:	ff078793          	addi	a5,a5,-16
800065e0:	40f70733          	sub	a4,a4,a5
800065e4:	00f60633          	add	a2,a2,a5
800065e8:	f6c378e3          	bgeu	t1,a2,80006558 <memset+0x44>
800065ec:	f3dff06f          	j	80006528 <memset+0x14>

800065f0 <__register_exitproc>:
800065f0:	800077b7          	lui	a5,0x80007
800065f4:	4c87a703          	lw	a4,1224(a5) # 800074c8 <__global_pointer+0xfffffcc0>
800065f8:	14872783          	lw	a5,328(a4)
800065fc:	04078c63          	beqz	a5,80006654 <__register_exitproc+0x64>
80006600:	0047a703          	lw	a4,4(a5)
80006604:	01f00813          	li	a6,31
80006608:	06e84e63          	blt	a6,a4,80006684 <__register_exitproc+0x94>
8000660c:	00271813          	slli	a6,a4,0x2
80006610:	02050663          	beqz	a0,8000663c <__register_exitproc+0x4c>
80006614:	01078333          	add	t1,a5,a6
80006618:	08c32423          	sw	a2,136(t1)
8000661c:	1887a883          	lw	a7,392(a5)
80006620:	00100613          	li	a2,1
80006624:	00e61633          	sll	a2,a2,a4
80006628:	00c8e8b3          	or	a7,a7,a2
8000662c:	1917a423          	sw	a7,392(a5)
80006630:	10d32423          	sw	a3,264(t1)
80006634:	00200693          	li	a3,2
80006638:	02d50463          	beq	a0,a3,80006660 <__register_exitproc+0x70>
8000663c:	00170713          	addi	a4,a4,1
80006640:	00e7a223          	sw	a4,4(a5)
80006644:	010787b3          	add	a5,a5,a6
80006648:	00b7a423          	sw	a1,8(a5)
8000664c:	00000513          	li	a0,0
80006650:	00008067          	ret
80006654:	14c70793          	addi	a5,a4,332
80006658:	14f72423          	sw	a5,328(a4)
8000665c:	fa5ff06f          	j	80006600 <__register_exitproc+0x10>
80006660:	18c7a683          	lw	a3,396(a5)
80006664:	00170713          	addi	a4,a4,1
80006668:	00e7a223          	sw	a4,4(a5)
8000666c:	00c6e633          	or	a2,a3,a2
80006670:	18c7a623          	sw	a2,396(a5)
80006674:	010787b3          	add	a5,a5,a6
80006678:	00b7a423          	sw	a1,8(a5)
8000667c:	00000513          	li	a0,0
80006680:	00008067          	ret
80006684:	fff00513          	li	a0,-1
80006688:	00008067          	ret

8000668c <__call_exitprocs>:
8000668c:	fd010113          	addi	sp,sp,-48
80006690:	800077b7          	lui	a5,0x80007
80006694:	01412c23          	sw	s4,24(sp)
80006698:	4c87aa03          	lw	s4,1224(a5) # 800074c8 <__global_pointer+0xfffffcc0>
8000669c:	03212023          	sw	s2,32(sp)
800066a0:	02112623          	sw	ra,44(sp)
800066a4:	148a2903          	lw	s2,328(s4)
800066a8:	02812423          	sw	s0,40(sp)
800066ac:	02912223          	sw	s1,36(sp)
800066b0:	01312e23          	sw	s3,28(sp)
800066b4:	01512a23          	sw	s5,20(sp)
800066b8:	01612823          	sw	s6,16(sp)
800066bc:	01712623          	sw	s7,12(sp)
800066c0:	01812423          	sw	s8,8(sp)
800066c4:	04090063          	beqz	s2,80006704 <__call_exitprocs+0x78>
800066c8:	00050b13          	mv	s6,a0
800066cc:	00058b93          	mv	s7,a1
800066d0:	00100a93          	li	s5,1
800066d4:	fff00993          	li	s3,-1
800066d8:	00492483          	lw	s1,4(s2)
800066dc:	fff48413          	addi	s0,s1,-1
800066e0:	02044263          	bltz	s0,80006704 <__call_exitprocs+0x78>
800066e4:	00249493          	slli	s1,s1,0x2
800066e8:	009904b3          	add	s1,s2,s1
800066ec:	040b8463          	beqz	s7,80006734 <__call_exitprocs+0xa8>
800066f0:	1044a783          	lw	a5,260(s1)
800066f4:	05778063          	beq	a5,s7,80006734 <__call_exitprocs+0xa8>
800066f8:	fff40413          	addi	s0,s0,-1 # 3fffff <__stack_size+0x3ffbff>
800066fc:	ffc48493          	addi	s1,s1,-4
80006700:	ff3416e3          	bne	s0,s3,800066ec <__call_exitprocs+0x60>
80006704:	02c12083          	lw	ra,44(sp)
80006708:	02812403          	lw	s0,40(sp)
8000670c:	02412483          	lw	s1,36(sp)
80006710:	02012903          	lw	s2,32(sp)
80006714:	01c12983          	lw	s3,28(sp)
80006718:	01812a03          	lw	s4,24(sp)
8000671c:	01412a83          	lw	s5,20(sp)
80006720:	01012b03          	lw	s6,16(sp)
80006724:	00c12b83          	lw	s7,12(sp)
80006728:	00812c03          	lw	s8,8(sp)
8000672c:	03010113          	addi	sp,sp,48
80006730:	00008067          	ret
80006734:	00492783          	lw	a5,4(s2)
80006738:	0044a683          	lw	a3,4(s1)
8000673c:	fff78793          	addi	a5,a5,-1
80006740:	04878e63          	beq	a5,s0,8000679c <__call_exitprocs+0x110>
80006744:	0004a223          	sw	zero,4(s1)
80006748:	fa0688e3          	beqz	a3,800066f8 <__call_exitprocs+0x6c>
8000674c:	18892783          	lw	a5,392(s2)
80006750:	008a9733          	sll	a4,s5,s0
80006754:	00492c03          	lw	s8,4(s2)
80006758:	00f777b3          	and	a5,a4,a5
8000675c:	02079263          	bnez	a5,80006780 <__call_exitprocs+0xf4>
80006760:	000680e7          	jalr	a3
80006764:	00492703          	lw	a4,4(s2)
80006768:	148a2783          	lw	a5,328(s4)
8000676c:	01871463          	bne	a4,s8,80006774 <__call_exitprocs+0xe8>
80006770:	f8f904e3          	beq	s2,a5,800066f8 <__call_exitprocs+0x6c>
80006774:	f80788e3          	beqz	a5,80006704 <__call_exitprocs+0x78>
80006778:	00078913          	mv	s2,a5
8000677c:	f5dff06f          	j	800066d8 <__call_exitprocs+0x4c>
80006780:	18c92783          	lw	a5,396(s2)
80006784:	0844a583          	lw	a1,132(s1)
80006788:	00f77733          	and	a4,a4,a5
8000678c:	00071c63          	bnez	a4,800067a4 <__call_exitprocs+0x118>
80006790:	000b0513          	mv	a0,s6
80006794:	000680e7          	jalr	a3
80006798:	fcdff06f          	j	80006764 <__call_exitprocs+0xd8>
8000679c:	00892223          	sw	s0,4(s2)
800067a0:	fa9ff06f          	j	80006748 <__call_exitprocs+0xbc>
800067a4:	00058513          	mv	a0,a1
800067a8:	000680e7          	jalr	a3
800067ac:	fb9ff06f          	j	80006764 <__call_exitprocs+0xd8>

Disassembly of section .rodata:

800067b0 <pow10.1699-0x300>:
800067b0:	6150                	flw	fa2,4(a0)
800067b2:	64657373          	csrrci	t1,0x646,10
800067b6:	0a21                	addi	s4,s4,8
800067b8:	0000                	unimp
800067ba:	0000                	unimp
800067bc:	6146                	flw	ft2,80(sp)
800067be:	6c69                	lui	s8,0x1a
800067c0:	6465                	lui	s0,0x19
800067c2:	0a21                	addi	s4,s4,8
800067c4:	0000                	unimp
800067c6:	0000                	unimp
800067c8:	2a2a                	fld	fs4,136(sp)
800067ca:	202a                	fld	ft0,136(sp)
800067cc:	7265                	lui	tp,0xffff9
800067ce:	6f72                	flw	ft10,28(sp)
800067d0:	3a72                	fld	fs4,312(sp)
800067d2:	5b20                	lw	s0,112(a4)
800067d4:	6425                	lui	s0,0x9
800067d6:	205d                	jal	8000687c <__call_exitprocs+0x1f0>
800067d8:	7825                	lui	a6,0xfffe9
800067da:	202c                	fld	fa1,64(s0)
800067dc:	7865                	lui	a6,0xffff9
800067de:	6570                	flw	fa2,76(a0)
800067e0:	64657463          	bgeu	a0,t1,80006e28 <__clz_tab+0x2b0>
800067e4:	2520                	fld	fs0,72(a0)
800067e6:	0a78                	addi	a4,sp,284
800067e8:	0000                	unimp
800067ea:	0000                	unimp
800067ec:	626f6c47          	fmsub.d	fs8,ft10,ft6,fa2,unknown
800067f0:	6c61                	lui	s8,0x18
800067f2:	4d20                	lw	s0,88(a0)
800067f4:	6d65                	lui	s10,0x19
800067f6:	2079726f          	jal	tp,8009e1fc <__global_pointer+0x969f4>
800067fa:	6554                	flw	fa3,12(a0)
800067fc:	000a7473          	csrrci	s0,ustatus,20
80006800:	63617453          	0x63617453
80006804:	654d206b          	0x654d206b
80006808:	6f6d                	lui	t5,0x1b
8000680a:	7972                	flw	fs2,60(sp)
8000680c:	5420                	lw	s0,104(s0)
8000680e:	7365                	lui	t1,0xffff9
80006810:	0a74                	addi	a3,sp,284
80006812:	0000                	unimp
80006814:	72616853          	0x72616853
80006818:	6465                	lui	s0,0x19
8000681a:	4d20                	lw	s0,88(a0)
8000681c:	6d65                	lui	s10,0x19
8000681e:	2079726f          	jal	tp,8009e224 <__global_pointer+0x96a1c>
80006822:	6554                	flw	fa3,12(a0)
80006824:	000a7473          	csrrci	s0,ustatus,20
80006828:	4d54                	lw	a3,28(a0)
8000682a:	65542043          	0x65542043
8000682e:	000a7473          	csrrci	s0,ustatus,20
80006832:	0000                	unimp
80006834:	5250                	lw	a2,36(a2)
80006836:	4445                	li	s0,17
80006838:	5420                	lw	s0,104(s0)
8000683a:	7365                	lui	t1,0xffff9
8000683c:	0a74                	addi	a3,sp,284
8000683e:	0000                	unimp
80006840:	61707357          	0x61707357
80006844:	54206e77          	0x54206e77
80006848:	7365                	lui	t1,0xffff9
8000684a:	0a74                	addi	a3,sp,284
8000684c:	0000                	unimp
8000684e:	0000                	unimp
80006850:	746e6f43          	0x746e6f43
80006854:	6f72                	flw	ft10,28(sp)
80006856:	206c                	fld	fa1,192(s0)
80006858:	6944                	flw	fs1,20(a0)
8000685a:	6576                	flw	fa0,92(sp)
8000685c:	6772                	flw	fa4,28(sp)
8000685e:	6e65                	lui	t3,0x19
80006860:	54206563          	bltu	zero,sp,80006daa <__clz_tab+0x232>
80006864:	7365                	lui	t1,0xffff9
80006866:	0a74                	addi	a3,sp,284
80006868:	0000                	unimp
8000686a:	0000                	unimp
8000686c:	77617053          	0x77617053
80006870:	546e                	lw	s0,248(sp)
80006872:	7361                	lui	t1,0xffff8
80006874:	5420736b          	0x5420736b
80006878:	7365                	lui	t1,0xffff9
8000687a:	0a74                	addi	a3,sp,284
8000687c:	0000                	unimp
8000687e:	0000                	unimp
80006880:	69726553          	0x69726553
80006884:	6c61                	lui	s8,0x18
80006886:	5420                	lw	s0,104(s0)
80006888:	7365                	lui	t1,0xffff9
8000688a:	0a74                	addi	a3,sp,284
8000688c:	0000                	unimp
8000688e:	0000                	unimp
80006890:	6854                	flw	fa3,20(s0)
80006892:	6572                	flw	fa0,28(sp)
80006894:	6461                	lui	s0,0x18
80006896:	4d20                	lw	s0,88(a0)
80006898:	7361                	lui	t1,0xffff8
8000689a:	6554206b          	0x6554206b
8000689e:	000a7473          	csrrci	s0,ustatus,20
800068a2:	0000                	unimp
800068a4:	6142                	flw	ft2,16(sp)
800068a6:	7272                	flw	ft4,60(sp)
800068a8:	6569                	lui	a0,0x1a
800068aa:	2072                	fld	ft0,280(sp)
800068ac:	6554                	flw	fa3,12(a0)
800068ae:	000a7473          	csrrci	s0,ustatus,20
800068b2:	0000                	unimp
800068b4:	6e66                	flw	ft8,88(sp)
800068b6:	0069                	c.nop	26
800068b8:	6e66                	flw	ft8,88(sp)
800068ba:	2b69                	jal	80006e54 <__clz_tab+0x2dc>
800068bc:	0000                	unimp
800068be:	0000                	unimp
800068c0:	616e                	flw	ft2,216(sp)
800068c2:	006e                	c.slli	zero,0x1b
800068c4:	6e66                	flw	ft8,88(sp)
800068c6:	2d69                	jal	80006f60 <__clz_tab+0x3e8>
800068c8:	0000                	unimp
800068ca:	0000                	unimp
800068cc:	b9b0                	fsd	fa2,112(a1)
800068ce:	ffff                	0xffff
800068d0:	b924                	fsd	fs1,112(a0)
800068d2:	ffff                	0xffff
800068d4:	b924                	fsd	fs1,112(a0)
800068d6:	ffff                	0xffff
800068d8:	b9a4                	fsd	fs1,112(a1)
800068da:	ffff                	0xffff
800068dc:	b924                	fsd	fs1,112(a0)
800068de:	ffff                	0xffff
800068e0:	b924                	fsd	fs1,112(a0)
800068e2:	ffff                	0xffff
800068e4:	b924                	fsd	fs1,112(a0)
800068e6:	ffff                	0xffff
800068e8:	b924                	fsd	fs1,112(a0)
800068ea:	ffff                	0xffff
800068ec:	b924                	fsd	fs1,112(a0)
800068ee:	ffff                	0xffff
800068f0:	b924                	fsd	fs1,112(a0)
800068f2:	ffff                	0xffff
800068f4:	b924                	fsd	fs1,112(a0)
800068f6:	ffff                	0xffff
800068f8:	b998                	fsd	fa4,48(a1)
800068fa:	ffff                	0xffff
800068fc:	b924                	fsd	fs1,112(a0)
800068fe:	ffff                	0xffff
80006900:	b98c                	fsd	fa1,48(a1)
80006902:	ffff                	0xffff
80006904:	b924                	fsd	fs1,112(a0)
80006906:	ffff                	0xffff
80006908:	b924                	fsd	fs1,112(a0)
8000690a:	ffff                	0xffff
8000690c:	b980                	fsd	fs0,48(a1)
8000690e:	ffff                	0xffff
80006910:	b978                	fsd	fa4,240(a0)
80006912:	ffff                	0xffff
80006914:	b98c                	fsd	fa1,48(a1)
80006916:	ffff                	0xffff
80006918:	bbf0                	fsd	fa2,240(a5)
8000691a:	ffff                	0xffff
8000691c:	b98c                	fsd	fa1,48(a1)
8000691e:	ffff                	0xffff
80006920:	bbd4                	fsd	fa3,176(a5)
80006922:	ffff                	0xffff
80006924:	b98c                	fsd	fa1,48(a1)
80006926:	ffff                	0xffff
80006928:	b98c                	fsd	fa1,48(a1)
8000692a:	ffff                	0xffff
8000692c:	b98c                	fsd	fa1,48(a1)
8000692e:	ffff                	0xffff
80006930:	b98c                	fsd	fa1,48(a1)
80006932:	ffff                	0xffff
80006934:	b98c                	fsd	fa1,48(a1)
80006936:	ffff                	0xffff
80006938:	b98c                	fsd	fa1,48(a1)
8000693a:	ffff                	0xffff
8000693c:	b98c                	fsd	fa1,48(a1)
8000693e:	ffff                	0xffff
80006940:	b9b8                	fsd	fa4,112(a1)
80006942:	ffff                	0xffff
80006944:	b98c                	fsd	fa1,48(a1)
80006946:	ffff                	0xffff
80006948:	b98c                	fsd	fa1,48(a1)
8000694a:	ffff                	0xffff
8000694c:	b98c                	fsd	fa1,48(a1)
8000694e:	ffff                	0xffff
80006950:	b98c                	fsd	fa1,48(a1)
80006952:	ffff                	0xffff
80006954:	b98c                	fsd	fa1,48(a1)
80006956:	ffff                	0xffff
80006958:	b9b8                	fsd	fa4,112(a1)
8000695a:	ffff                	0xffff
8000695c:	bc8c                	fsd	fa1,56(s1)
8000695e:	ffff                	0xffff
80006960:	b838                	fsd	fa4,112(s0)
80006962:	ffff                	0xffff
80006964:	b838                	fsd	fa4,112(s0)
80006966:	ffff                	0xffff
80006968:	b838                	fsd	fa4,112(s0)
8000696a:	ffff                	0xffff
8000696c:	b838                	fsd	fa4,112(s0)
8000696e:	ffff                	0xffff
80006970:	b838                	fsd	fa4,112(s0)
80006972:	ffff                	0xffff
80006974:	b838                	fsd	fa4,112(s0)
80006976:	ffff                	0xffff
80006978:	b838                	fsd	fa4,112(s0)
8000697a:	ffff                	0xffff
8000697c:	b838                	fsd	fa4,112(s0)
8000697e:	ffff                	0xffff
80006980:	b838                	fsd	fa4,112(s0)
80006982:	ffff                	0xffff
80006984:	b838                	fsd	fa4,112(s0)
80006986:	ffff                	0xffff
80006988:	b838                	fsd	fa4,112(s0)
8000698a:	ffff                	0xffff
8000698c:	b838                	fsd	fa4,112(s0)
8000698e:	ffff                	0xffff
80006990:	b838                	fsd	fa4,112(s0)
80006992:	ffff                	0xffff
80006994:	b838                	fsd	fa4,112(s0)
80006996:	ffff                	0xffff
80006998:	b838                	fsd	fa4,112(s0)
8000699a:	ffff                	0xffff
8000699c:	b838                	fsd	fa4,112(s0)
8000699e:	ffff                	0xffff
800069a0:	b838                	fsd	fa4,112(s0)
800069a2:	ffff                	0xffff
800069a4:	b838                	fsd	fa4,112(s0)
800069a6:	ffff                	0xffff
800069a8:	b838                	fsd	fa4,112(s0)
800069aa:	ffff                	0xffff
800069ac:	b838                	fsd	fa4,112(s0)
800069ae:	ffff                	0xffff
800069b0:	b838                	fsd	fa4,112(s0)
800069b2:	ffff                	0xffff
800069b4:	b838                	fsd	fa4,112(s0)
800069b6:	ffff                	0xffff
800069b8:	b838                	fsd	fa4,112(s0)
800069ba:	ffff                	0xffff
800069bc:	b838                	fsd	fa4,112(s0)
800069be:	ffff                	0xffff
800069c0:	b838                	fsd	fa4,112(s0)
800069c2:	ffff                	0xffff
800069c4:	b838                	fsd	fa4,112(s0)
800069c6:	ffff                	0xffff
800069c8:	b838                	fsd	fa4,112(s0)
800069ca:	ffff                	0xffff
800069cc:	b838                	fsd	fa4,112(s0)
800069ce:	ffff                	0xffff
800069d0:	b838                	fsd	fa4,112(s0)
800069d2:	ffff                	0xffff
800069d4:	b838                	fsd	fa4,112(s0)
800069d6:	ffff                	0xffff
800069d8:	b838                	fsd	fa4,112(s0)
800069da:	ffff                	0xffff
800069dc:	bdd8                	fsd	fa4,184(a1)
800069de:	ffff                	0xffff
800069e0:	bbb4                	fsd	fa3,112(a5)
800069e2:	ffff                	0xffff
800069e4:	bdd8                	fsd	fa4,184(a1)
800069e6:	ffff                	0xffff
800069e8:	b838                	fsd	fa4,112(s0)
800069ea:	ffff                	0xffff
800069ec:	b838                	fsd	fa4,112(s0)
800069ee:	ffff                	0xffff
800069f0:	b838                	fsd	fa4,112(s0)
800069f2:	ffff                	0xffff
800069f4:	b838                	fsd	fa4,112(s0)
800069f6:	ffff                	0xffff
800069f8:	b838                	fsd	fa4,112(s0)
800069fa:	ffff                	0xffff
800069fc:	b838                	fsd	fa4,112(s0)
800069fe:	ffff                	0xffff
80006a00:	b838                	fsd	fa4,112(s0)
80006a02:	ffff                	0xffff
80006a04:	b838                	fsd	fa4,112(s0)
80006a06:	ffff                	0xffff
80006a08:	b838                	fsd	fa4,112(s0)
80006a0a:	ffff                	0xffff
80006a0c:	b838                	fsd	fa4,112(s0)
80006a0e:	ffff                	0xffff
80006a10:	b838                	fsd	fa4,112(s0)
80006a12:	ffff                	0xffff
80006a14:	b838                	fsd	fa4,112(s0)
80006a16:	ffff                	0xffff
80006a18:	b838                	fsd	fa4,112(s0)
80006a1a:	ffff                	0xffff
80006a1c:	b838                	fsd	fa4,112(s0)
80006a1e:	ffff                	0xffff
80006a20:	b838                	fsd	fa4,112(s0)
80006a22:	ffff                	0xffff
80006a24:	b838                	fsd	fa4,112(s0)
80006a26:	ffff                	0xffff
80006a28:	babc                	fsd	fa5,112(a3)
80006a2a:	ffff                	0xffff
80006a2c:	b838                	fsd	fa4,112(s0)
80006a2e:	ffff                	0xffff
80006a30:	b838                	fsd	fa4,112(s0)
80006a32:	ffff                	0xffff
80006a34:	b838                	fsd	fa4,112(s0)
80006a36:	ffff                	0xffff
80006a38:	b838                	fsd	fa4,112(s0)
80006a3a:	ffff                	0xffff
80006a3c:	b838                	fsd	fa4,112(s0)
80006a3e:	ffff                	0xffff
80006a40:	b838                	fsd	fa4,112(s0)
80006a42:	ffff                	0xffff
80006a44:	b838                	fsd	fa4,112(s0)
80006a46:	ffff                	0xffff
80006a48:	b838                	fsd	fa4,112(s0)
80006a4a:	ffff                	0xffff
80006a4c:	b838                	fsd	fa4,112(s0)
80006a4e:	ffff                	0xffff
80006a50:	babc                	fsd	fa5,112(a3)
80006a52:	ffff                	0xffff
80006a54:	bd34                	fsd	fa3,120(a0)
80006a56:	ffff                	0xffff
80006a58:	babc                	fsd	fa5,112(a3)
80006a5a:	ffff                	0xffff
80006a5c:	bdd8                	fsd	fa4,184(a1)
80006a5e:	ffff                	0xffff
80006a60:	bbb4                	fsd	fa3,112(a5)
80006a62:	ffff                	0xffff
80006a64:	bdd8                	fsd	fa4,184(a1)
80006a66:	ffff                	0xffff
80006a68:	b838                	fsd	fa4,112(s0)
80006a6a:	ffff                	0xffff
80006a6c:	babc                	fsd	fa5,112(a3)
80006a6e:	ffff                	0xffff
80006a70:	b838                	fsd	fa4,112(s0)
80006a72:	ffff                	0xffff
80006a74:	b838                	fsd	fa4,112(s0)
80006a76:	ffff                	0xffff
80006a78:	b838                	fsd	fa4,112(s0)
80006a7a:	ffff                	0xffff
80006a7c:	b838                	fsd	fa4,112(s0)
80006a7e:	ffff                	0xffff
80006a80:	b838                	fsd	fa4,112(s0)
80006a82:	ffff                	0xffff
80006a84:	babc                	fsd	fa5,112(a3)
80006a86:	ffff                	0xffff
80006a88:	bca8                	fsd	fa0,120(s1)
80006a8a:	ffff                	0xffff
80006a8c:	b838                	fsd	fa4,112(s0)
80006a8e:	ffff                	0xffff
80006a90:	b838                	fsd	fa4,112(s0)
80006a92:	ffff                	0xffff
80006a94:	bbf8                	fsd	fa4,240(a5)
80006a96:	ffff                	0xffff
80006a98:	b838                	fsd	fa4,112(s0)
80006a9a:	ffff                	0xffff
80006a9c:	babc                	fsd	fa5,112(a3)
80006a9e:	ffff                	0xffff
80006aa0:	b838                	fsd	fa4,112(s0)
80006aa2:	ffff                	0xffff
80006aa4:	b838                	fsd	fa4,112(s0)
80006aa6:	ffff                	0xffff
80006aa8:	babc                	fsd	fa5,112(a3)
80006aaa:	ffff                	0xffff
80006aac:	0000                	unimp
	...

80006ab0 <pow10.1699>:
80006ab0:	0000                	unimp
80006ab2:	0000                	unimp
80006ab4:	0000                	unimp
80006ab6:	3ff0                	fld	fa2,248(a5)
80006ab8:	0000                	unimp
80006aba:	0000                	unimp
80006abc:	0000                	unimp
80006abe:	4024                	lw	s1,64(s0)
80006ac0:	0000                	unimp
80006ac2:	0000                	unimp
80006ac4:	0000                	unimp
80006ac6:	4059                	c.li	zero,22
80006ac8:	0000                	unimp
80006aca:	0000                	unimp
80006acc:	4000                	lw	s0,0(s0)
80006ace:	0000408f          	0x408f
80006ad2:	0000                	unimp
80006ad4:	8800                	0x8800
80006ad6:	000040c3          	fmadd.s	ft1,ft0,ft0,ft0,rmm
80006ada:	0000                	unimp
80006adc:	6a00                	flw	fs0,16(a2)
80006ade:	40f8                	lw	a4,68(s1)
80006ae0:	0000                	unimp
80006ae2:	0000                	unimp
80006ae4:	8480                	0x8480
80006ae6:	412e                	lw	sp,200(sp)
80006ae8:	0000                	unimp
80006aea:	0000                	unimp
80006aec:	12d0                	addi	a2,sp,356
80006aee:	00004163          	bltz	zero,80006af0 <pow10.1699+0x40>
80006af2:	0000                	unimp
80006af4:	d784                	sw	s1,40(a5)
80006af6:	00004197          	auipc	gp,0x4
80006afa:	0000                	unimp
80006afc:	cd65                	beqz	a0,80006bf4 <__clz_tab+0x7c>
80006afe:	41cd                	li	gp,19
80006b00:	4790                	lw	a2,8(a5)
80006b02:	8000                	0x8000
80006b04:	4a84                	lw	s1,16(a3)
80006b06:	8000                	0x8000
80006b08:	4788                	lw	a0,8(a5)
80006b0a:	8000                	0x8000
80006b0c:	4a84                	lw	s1,16(a3)
80006b0e:	8000                	0x8000
80006b10:	4a6c                	lw	a1,84(a2)
80006b12:	8000                	0x8000
80006b14:	4a84                	lw	s1,16(a3)
80006b16:	8000                	0x8000
80006b18:	4788                	lw	a0,8(a5)
80006b1a:	8000                	0x8000
80006b1c:	4794                	lw	a3,8(a5)
80006b1e:	8000                	0x8000
80006b20:	4794                	lw	a3,8(a5)
80006b22:	8000                	0x8000
80006b24:	4a6c                	lw	a1,84(a2)
80006b26:	8000                	0x8000
80006b28:	4788                	lw	a0,8(a5)
80006b2a:	8000                	0x8000
80006b2c:	475c                	lw	a5,12(a4)
80006b2e:	8000                	0x8000
80006b30:	475c                	lw	a5,12(a4)
80006b32:	8000                	0x8000
80006b34:	475c                	lw	a5,12(a4)
80006b36:	8000                	0x8000
80006b38:	47a4                	lw	s1,72(a5)
80006b3a:	8000                	0x8000
80006b3c:	524c                	lw	a1,36(a2)
80006b3e:	8000                	0x8000
80006b40:	524c                	lw	a1,36(a2)
80006b42:	8000                	0x8000
80006b44:	5270                	lw	a2,100(a2)
80006b46:	8000                	0x8000
80006b48:	5240                	lw	s0,36(a2)
80006b4a:	8000                	0x8000
80006b4c:	5240                	lw	s0,36(a2)
80006b4e:	8000                	0x8000
80006b50:	4fc0                	lw	s0,28(a5)
80006b52:	8000                	0x8000
80006b54:	5270                	lw	a2,100(a2)
80006b56:	8000                	0x8000
80006b58:	5240                	lw	s0,36(a2)
80006b5a:	8000                	0x8000
80006b5c:	4fc0                	lw	s0,28(a5)
80006b5e:	8000                	0x8000
80006b60:	5240                	lw	s0,36(a2)
80006b62:	8000                	0x8000
80006b64:	5270                	lw	a2,100(a2)
80006b66:	8000                	0x8000
80006b68:	523c                	lw	a5,96(a2)
80006b6a:	8000                	0x8000
80006b6c:	523c                	lw	a5,96(a2)
80006b6e:	8000                	0x8000
80006b70:	523c                	lw	a5,96(a2)
80006b72:	8000                	0x8000
80006b74:	54e4                	lw	s1,108(s1)
80006b76:	8000                	0x8000

80006b78 <__clz_tab>:
80006b78:	0100                	addi	s0,sp,128
80006b7a:	0202                	c.slli64	tp
80006b7c:	03030303          	lb	t1,48(t1) # ffff8030 <__global_pointer+0x7fff0828>
80006b80:	0404                	addi	s1,sp,512
80006b82:	0404                	addi	s1,sp,512
80006b84:	0404                	addi	s1,sp,512
80006b86:	0404                	addi	s1,sp,512
80006b88:	0505                	addi	a0,a0,1
80006b8a:	0505                	addi	a0,a0,1
80006b8c:	0505                	addi	a0,a0,1
80006b8e:	0505                	addi	a0,a0,1
80006b90:	0505                	addi	a0,a0,1
80006b92:	0505                	addi	a0,a0,1
80006b94:	0505                	addi	a0,a0,1
80006b96:	0505                	addi	a0,a0,1
80006b98:	0606                	slli	a2,a2,0x1
80006b9a:	0606                	slli	a2,a2,0x1
80006b9c:	0606                	slli	a2,a2,0x1
80006b9e:	0606                	slli	a2,a2,0x1
80006ba0:	0606                	slli	a2,a2,0x1
80006ba2:	0606                	slli	a2,a2,0x1
80006ba4:	0606                	slli	a2,a2,0x1
80006ba6:	0606                	slli	a2,a2,0x1
80006ba8:	0606                	slli	a2,a2,0x1
80006baa:	0606                	slli	a2,a2,0x1
80006bac:	0606                	slli	a2,a2,0x1
80006bae:	0606                	slli	a2,a2,0x1
80006bb0:	0606                	slli	a2,a2,0x1
80006bb2:	0606                	slli	a2,a2,0x1
80006bb4:	0606                	slli	a2,a2,0x1
80006bb6:	0606                	slli	a2,a2,0x1
80006bb8:	07070707          	0x7070707
80006bbc:	07070707          	0x7070707
80006bc0:	07070707          	0x7070707
80006bc4:	07070707          	0x7070707
80006bc8:	07070707          	0x7070707
80006bcc:	07070707          	0x7070707
80006bd0:	07070707          	0x7070707
80006bd4:	07070707          	0x7070707
80006bd8:	07070707          	0x7070707
80006bdc:	07070707          	0x7070707
80006be0:	07070707          	0x7070707
80006be4:	07070707          	0x7070707
80006be8:	07070707          	0x7070707
80006bec:	07070707          	0x7070707
80006bf0:	07070707          	0x7070707
80006bf4:	07070707          	0x7070707
80006bf8:	0808                	addi	a0,sp,16
80006bfa:	0808                	addi	a0,sp,16
80006bfc:	0808                	addi	a0,sp,16
80006bfe:	0808                	addi	a0,sp,16
80006c00:	0808                	addi	a0,sp,16
80006c02:	0808                	addi	a0,sp,16
80006c04:	0808                	addi	a0,sp,16
80006c06:	0808                	addi	a0,sp,16
80006c08:	0808                	addi	a0,sp,16
80006c0a:	0808                	addi	a0,sp,16
80006c0c:	0808                	addi	a0,sp,16
80006c0e:	0808                	addi	a0,sp,16
80006c10:	0808                	addi	a0,sp,16
80006c12:	0808                	addi	a0,sp,16
80006c14:	0808                	addi	a0,sp,16
80006c16:	0808                	addi	a0,sp,16
80006c18:	0808                	addi	a0,sp,16
80006c1a:	0808                	addi	a0,sp,16
80006c1c:	0808                	addi	a0,sp,16
80006c1e:	0808                	addi	a0,sp,16
80006c20:	0808                	addi	a0,sp,16
80006c22:	0808                	addi	a0,sp,16
80006c24:	0808                	addi	a0,sp,16
80006c26:	0808                	addi	a0,sp,16
80006c28:	0808                	addi	a0,sp,16
80006c2a:	0808                	addi	a0,sp,16
80006c2c:	0808                	addi	a0,sp,16
80006c2e:	0808                	addi	a0,sp,16
80006c30:	0808                	addi	a0,sp,16
80006c32:	0808                	addi	a0,sp,16
80006c34:	0808                	addi	a0,sp,16
80006c36:	0808                	addi	a0,sp,16
80006c38:	0808                	addi	a0,sp,16
80006c3a:	0808                	addi	a0,sp,16
80006c3c:	0808                	addi	a0,sp,16
80006c3e:	0808                	addi	a0,sp,16
80006c40:	0808                	addi	a0,sp,16
80006c42:	0808                	addi	a0,sp,16
80006c44:	0808                	addi	a0,sp,16
80006c46:	0808                	addi	a0,sp,16
80006c48:	0808                	addi	a0,sp,16
80006c4a:	0808                	addi	a0,sp,16
80006c4c:	0808                	addi	a0,sp,16
80006c4e:	0808                	addi	a0,sp,16
80006c50:	0808                	addi	a0,sp,16
80006c52:	0808                	addi	a0,sp,16
80006c54:	0808                	addi	a0,sp,16
80006c56:	0808                	addi	a0,sp,16
80006c58:	0808                	addi	a0,sp,16
80006c5a:	0808                	addi	a0,sp,16
80006c5c:	0808                	addi	a0,sp,16
80006c5e:	0808                	addi	a0,sp,16
80006c60:	0808                	addi	a0,sp,16
80006c62:	0808                	addi	a0,sp,16
80006c64:	0808                	addi	a0,sp,16
80006c66:	0808                	addi	a0,sp,16
80006c68:	0808                	addi	a0,sp,16
80006c6a:	0808                	addi	a0,sp,16
80006c6c:	0808                	addi	a0,sp,16
80006c6e:	0808                	addi	a0,sp,16
80006c70:	0808                	addi	a0,sp,16
80006c72:	0808                	addi	a0,sp,16
80006c74:	0808                	addi	a0,sp,16
80006c76:	0808                	addi	a0,sp,16

Disassembly of section .eh_frame:

80006c78 <.eh_frame>:
80006c78:	0010                	0x10
80006c7a:	0000                	unimp
80006c7c:	0000                	unimp
80006c7e:	0000                	unimp
80006c80:	00527a03          	0x527a03
80006c84:	7c01                	lui	s8,0xfffe0
80006c86:	0101                	addi	sp,sp,0
80006c88:	00020d1b          	0x20d1b
80006c8c:	0020                	addi	s0,sp,8
80006c8e:	0000                	unimp
80006c90:	0018                	0x18
80006c92:	0000                	unimp
80006c94:	93d8                	0x93d8
80006c96:	ffff                	0xffff
80006c98:	0098                	addi	a4,sp,64
80006c9a:	0000                	unimp
80006c9c:	4400                	lw	s0,8(s0)
80006c9e:	100e                	c.slli	zero,0x23
80006ca0:	8148                	0x8148
80006ca2:	8801                	andi	s0,s0,0
80006ca4:	0202                	c.slli64	tp
80006ca6:	0a6c                	addi	a1,sp,284
80006ca8:	48c1                	li	a7,16
80006caa:	44c8                	lw	a0,12(s1)
80006cac:	000e                	c.slli	zero,0x3
80006cae:	0b44                	addi	s1,sp,404
80006cb0:	0010                	0x10
80006cb2:	0000                	unimp
80006cb4:	003c                	addi	a5,sp,8
80006cb6:	0000                	unimp
80006cb8:	9464                	0x9464
80006cba:	ffff                	0xffff
80006cbc:	0028                	addi	a0,sp,8
80006cbe:	0000                	unimp
80006cc0:	0000                	unimp
80006cc2:	0000                	unimp
80006cc4:	0010                	0x10
80006cc6:	0000                	unimp
80006cc8:	0050                	addi	a2,sp,4
80006cca:	0000                	unimp
80006ccc:	9478                	0x9478
80006cce:	ffff                	0xffff
80006cd0:	0020                	addi	s0,sp,8
80006cd2:	0000                	unimp
80006cd4:	0000                	unimp
80006cd6:	0000                	unimp
80006cd8:	0010                	0x10
80006cda:	0000                	unimp
80006cdc:	0064                	addi	s1,sp,12
80006cde:	0000                	unimp
80006ce0:	9484                	0x9484
80006ce2:	ffff                	0xffff
80006ce4:	001c                	0x1c
80006ce6:	0000                	unimp
80006ce8:	0000                	unimp
80006cea:	0000                	unimp
80006cec:	0010                	0x10
80006cee:	0000                	unimp
80006cf0:	0078                	addi	a4,sp,12
80006cf2:	0000                	unimp
80006cf4:	948c                	0x948c
80006cf6:	ffff                	0xffff
80006cf8:	0060                	addi	s0,sp,12
80006cfa:	0000                	unimp
80006cfc:	0000                	unimp
80006cfe:	0000                	unimp
80006d00:	0030                	addi	a2,sp,8
80006d02:	0000                	unimp
80006d04:	008c                	addi	a1,sp,64
80006d06:	0000                	unimp
80006d08:	94d8                	0x94d8
80006d0a:	ffff                	0xffff
80006d0c:	008c                	addi	a1,sp,64
80006d0e:	0000                	unimp
80006d10:	4400                	lw	s0,8(s0)
80006d12:	200e                	fld	ft0,192(sp)
80006d14:	8158                	0x8158
80006d16:	8801                	andi	s0,s0,0
80006d18:	8902                	jr	s2
80006d1a:	93049203          	lh	tp,-1744(s1)
80006d1e:	9405                	srai	s0,s0,0x21
80006d20:	0206                	slli	tp,tp,0x1
80006d22:	0a48                	addi	a0,sp,276
80006d24:	44c1                	li	s1,16
80006d26:	44c8                	lw	a0,12(s1)
80006d28:	44c9                	li	s1,18
80006d2a:	44d2                	lw	s1,20(sp)
80006d2c:	48d4                	lw	a3,20(s1)
80006d2e:	000e44d3          	fadd.s	fs1,ft8,ft0,rmm
80006d32:	0b44                	addi	s1,sp,404
80006d34:	0030                	addi	a2,sp,8
80006d36:	0000                	unimp
80006d38:	00c0                	addi	s0,sp,68
80006d3a:	0000                	unimp
80006d3c:	9530                	0x9530
80006d3e:	ffff                	0xffff
80006d40:	0090                	addi	a2,sp,64
80006d42:	0000                	unimp
80006d44:	4400                	lw	s0,8(s0)
80006d46:	200e                	fld	ft0,192(sp)
80006d48:	8158                	0x8158
80006d4a:	8801                	andi	s0,s0,0
80006d4c:	8902                	jr	s2
80006d4e:	93049203          	lh	tp,-1744(s1)
80006d52:	9405                	srai	s0,s0,0x21
80006d54:	0206                	slli	tp,tp,0x1
80006d56:	0a4c                	addi	a1,sp,276
80006d58:	44c1                	li	s1,16
80006d5a:	44c8                	lw	a0,12(s1)
80006d5c:	44c9                	li	s1,18
80006d5e:	44d2                	lw	s1,20(sp)
80006d60:	48d4                	lw	a3,20(s1)
80006d62:	000e44d3          	fadd.s	fs1,ft8,ft0,rmm
80006d66:	0b44                	addi	s1,sp,404
80006d68:	0010                	0x10
80006d6a:	0000                	unimp
80006d6c:	00f4                	addi	a3,sp,76
80006d6e:	0000                	unimp
80006d70:	958c                	0x958c
80006d72:	ffff                	0xffff
80006d74:	000c                	0xc
80006d76:	0000                	unimp
80006d78:	0000                	unimp
80006d7a:	0000                	unimp
80006d7c:	0010                	0x10
80006d7e:	0000                	unimp
80006d80:	0108                	addi	a0,sp,128
80006d82:	0000                	unimp
80006d84:	9584                	0x9584
80006d86:	ffff                	0xffff
80006d88:	0010                	0x10
80006d8a:	0000                	unimp
80006d8c:	0000                	unimp
80006d8e:	0000                	unimp
80006d90:	001c                	0x1c
80006d92:	0000                	unimp
80006d94:	011c                	addi	a5,sp,128
80006d96:	0000                	unimp
80006d98:	9580                	0x9580
80006d9a:	ffff                	0xffff
80006d9c:	006c                	addi	a1,sp,12
80006d9e:	0000                	unimp
80006da0:	4400                	lw	s0,8(s0)
80006da2:	100e                	c.slli	zero,0x23
80006da4:	814c                	0x814c
80006da6:	0201                	addi	tp,tp,0
80006da8:	c144                	sw	s1,4(a0)
80006daa:	0e54                	addi	a3,sp,788
80006dac:	0000                	unimp
80006dae:	0000                	unimp
80006db0:	001c                	0x1c
80006db2:	0000                	unimp
80006db4:	013c                	addi	a5,sp,136
80006db6:	0000                	unimp
80006db8:	95cc                	0x95cc
80006dba:	ffff                	0xffff
80006dbc:	006c                	addi	a1,sp,12
80006dbe:	0000                	unimp
80006dc0:	4400                	lw	s0,8(s0)
80006dc2:	300e                	fld	ft0,224(sp)
80006dc4:	814c                	0x814c
80006dc6:	0201                	addi	tp,tp,0
80006dc8:	c154                	sw	a3,4(a0)
80006dca:	0e44                	addi	s1,sp,788
80006dcc:	0000                	unimp
80006dce:	0000                	unimp
80006dd0:	001c                	0x1c
80006dd2:	0000                	unimp
80006dd4:	015c                	addi	a5,sp,132
80006dd6:	0000                	unimp
80006dd8:	9618                	0x9618
80006dda:	ffff                	0xffff
80006ddc:	006c                	addi	a1,sp,12
80006dde:	0000                	unimp
80006de0:	4400                	lw	s0,8(s0)
80006de2:	100e                	c.slli	zero,0x23
80006de4:	814c                	0x814c
80006de6:	0201                	addi	tp,tp,0
80006de8:	c144                	sw	s1,4(a0)
80006dea:	0e54                	addi	a3,sp,788
80006dec:	0000                	unimp
80006dee:	0000                	unimp
80006df0:	0010                	0x10
80006df2:	0000                	unimp
80006df4:	017c                	addi	a5,sp,140
80006df6:	0000                	unimp
80006df8:	9664                	0x9664
80006dfa:	ffff                	0xffff
80006dfc:	0020                	addi	s0,sp,8
80006dfe:	0000                	unimp
80006e00:	0000                	unimp
80006e02:	0000                	unimp
80006e04:	0020                	addi	s0,sp,8
80006e06:	0000                	unimp
80006e08:	0190                	addi	a2,sp,192
80006e0a:	0000                	unimp
80006e0c:	9670                	0x9670
80006e0e:	ffff                	0xffff
80006e10:	005c                	addi	a5,sp,4
80006e12:	0000                	unimp
80006e14:	4400                	lw	s0,8(s0)
80006e16:	100e                	c.slli	zero,0x23
80006e18:	8150                	0x8150
80006e1a:	8801                	andi	s0,s0,0
80006e1c:	0202                	c.slli64	tp
80006e1e:	c834                	sw	a3,80(s0)
80006e20:	c144                	sw	s1,4(a0)
80006e22:	0e4c                	addi	a1,sp,788
80006e24:	0000                	unimp
80006e26:	0000                	unimp
80006e28:	0010                	0x10
80006e2a:	0000                	unimp
80006e2c:	01b4                	addi	a3,sp,200
80006e2e:	0000                	unimp
80006e30:	96a8                	0x96a8
80006e32:	ffff                	0xffff
80006e34:	0020                	addi	s0,sp,8
80006e36:	0000                	unimp
80006e38:	0000                	unimp
80006e3a:	0000                	unimp
80006e3c:	0024                	addi	s1,sp,8
80006e3e:	0000                	unimp
80006e40:	01c8                	addi	a0,sp,196
80006e42:	0000                	unimp
80006e44:	96b4                	0x96b4
80006e46:	ffff                	0xffff
80006e48:	00fc                	addi	a5,sp,76
80006e4a:	0000                	unimp
80006e4c:	4400                	lw	s0,8(s0)
80006e4e:	100e                	c.slli	zero,0x23
80006e50:	8154                	0x8154
80006e52:	8801                	andi	s0,s0,0
80006e54:	8902                	jr	s2
80006e56:	c1d00203          	lb	tp,-995(zero) # fffffc1d <__global_pointer+0x7fff8415>
80006e5a:	c848                	sw	a0,20(s0)
80006e5c:	c944                	sw	s1,20(a0)
80006e5e:	0e44                	addi	s1,sp,788
80006e60:	0000                	unimp
80006e62:	0000                	unimp
80006e64:	001c                	0x1c
80006e66:	0000                	unimp
80006e68:	01f0                	addi	a2,sp,204
80006e6a:	0000                	unimp
80006e6c:	9788                	0x9788
80006e6e:	ffff                	0xffff
80006e70:	0060                	addi	s0,sp,12
80006e72:	0000                	unimp
80006e74:	4400                	lw	s0,8(s0)
80006e76:	100e                	c.slli	zero,0x23
80006e78:	814c                	0x814c
80006e7a:	0201                	addi	tp,tp,0
80006e7c:	c148                	sw	a0,4(a0)
80006e7e:	0e44                	addi	s1,sp,788
80006e80:	0000                	unimp
80006e82:	0000                	unimp
80006e84:	0010                	0x10
80006e86:	0000                	unimp
80006e88:	0210                	addi	a2,sp,256
80006e8a:	0000                	unimp
80006e8c:	97c8                	0x97c8
80006e8e:	ffff                	0xffff
80006e90:	009c                	addi	a5,sp,64
80006e92:	0000                	unimp
80006e94:	0000                	unimp
80006e96:	0000                	unimp
80006e98:	0020                	addi	s0,sp,8
80006e9a:	0000                	unimp
80006e9c:	0224                	addi	s1,sp,264
80006e9e:	0000                	unimp
80006ea0:	9850                	0x9850
80006ea2:	ffff                	0xffff
80006ea4:	005c                	addi	a5,sp,4
80006ea6:	0000                	unimp
80006ea8:	4400                	lw	s0,8(s0)
80006eaa:	100e                	c.slli	zero,0x23
80006eac:	8150                	0x8150
80006eae:	8801                	andi	s0,s0,0
80006eb0:	0202                	c.slli64	tp
80006eb2:	c834                	sw	a3,80(s0)
80006eb4:	c144                	sw	s1,4(a0)
80006eb6:	0e4c                	addi	a1,sp,788
80006eb8:	0000                	unimp
80006eba:	0000                	unimp
80006ebc:	0020                	addi	s0,sp,8
80006ebe:	0000                	unimp
80006ec0:	0248                	addi	a0,sp,260
80006ec2:	0000                	unimp
80006ec4:	9888                	0x9888
80006ec6:	ffff                	0xffff
80006ec8:	00a0                	addi	s0,sp,72
80006eca:	0000                	unimp
80006ecc:	4400                	lw	s0,8(s0)
80006ece:	200e                	fld	ft0,192(sp)
80006ed0:	8150                	0x8150
80006ed2:	8801                	andi	s0,s0,0
80006ed4:	0202                	c.slli64	tp
80006ed6:	c180                	sw	s0,0(a1)
80006ed8:	c844                	sw	s1,20(s0)
80006eda:	0e44                	addi	s1,sp,788
80006edc:	0000                	unimp
80006ede:	0000                	unimp
80006ee0:	0018                	0x18
80006ee2:	0000                	unimp
80006ee4:	026c                	addi	a1,sp,268
80006ee6:	0000                	unimp
80006ee8:	9904                	0x9904
80006eea:	ffff                	0xffff
80006eec:	0030                	addi	a2,sp,8
80006eee:	0000                	unimp
80006ef0:	4400                	lw	s0,8(s0)
80006ef2:	200e                	fld	ft0,192(sp)
80006ef4:	8158                	0x8158
80006ef6:	4c01                	li	s8,0
80006ef8:	44c1                	li	s1,16
80006efa:	000e                	c.slli	zero,0x3
80006efc:	0020                	addi	s0,sp,8
80006efe:	0000                	unimp
80006f00:	0288                	addi	a0,sp,320
80006f02:	0000                	unimp
80006f04:	9918                	0x9918
80006f06:	ffff                	0xffff
80006f08:	005c                	addi	a5,sp,4
80006f0a:	0000                	unimp
80006f0c:	4400                	lw	s0,8(s0)
80006f0e:	100e                	c.slli	zero,0x23
80006f10:	8150                	0x8150
80006f12:	8801                	andi	s0,s0,0
80006f14:	0202                	c.slli64	tp
80006f16:	c834                	sw	a3,80(s0)
80006f18:	c144                	sw	s1,4(a0)
80006f1a:	0e4c                	addi	a1,sp,788
80006f1c:	0000                	unimp
80006f1e:	0000                	unimp
80006f20:	001c                	0x1c
80006f22:	0000                	unimp
80006f24:	02ac                	addi	a1,sp,328
80006f26:	0000                	unimp
80006f28:	9950                	0x9950
80006f2a:	ffff                	0xffff
80006f2c:	0050                	addi	a2,sp,4
80006f2e:	0000                	unimp
80006f30:	4400                	lw	s0,8(s0)
80006f32:	100e                	c.slli	zero,0x23
80006f34:	8148                	0x8148
80006f36:	8801                	andi	s0,s0,0
80006f38:	6002                	flw	ft0,0(sp)
80006f3a:	54c1                	li	s1,-16
80006f3c:	4cc8                	lw	a0,28(s1)
80006f3e:	000e                	c.slli	zero,0x3
80006f40:	0020                	addi	s0,sp,8
80006f42:	0000                	unimp
80006f44:	02cc                	addi	a1,sp,324
80006f46:	0000                	unimp
80006f48:	9980                	0x9980
80006f4a:	ffff                	0xffff
80006f4c:	0068                	addi	a0,sp,12
80006f4e:	0000                	unimp
80006f50:	4400                	lw	s0,8(s0)
80006f52:	100e                	c.slli	zero,0x23
80006f54:	8150                	0x8150
80006f56:	8801                	andi	s0,s0,0
80006f58:	0202                	c.slli64	tp
80006f5a:	c840                	sw	s0,20(s0)
80006f5c:	c144                	sw	s1,4(a0)
80006f5e:	0e4c                	addi	a1,sp,788
80006f60:	0000                	unimp
80006f62:	0000                	unimp
80006f64:	001c                	0x1c
80006f66:	0000                	unimp
80006f68:	02f0                	addi	a2,sp,332
80006f6a:	0000                	unimp
80006f6c:	99c4                	0x99c4
80006f6e:	ffff                	0xffff
80006f70:	00a8                	addi	a0,sp,72
80006f72:	0000                	unimp
80006f74:	4400                	lw	s0,8(s0)
80006f76:	100e                	c.slli	zero,0x23
80006f78:	814c                	0x814c
80006f7a:	0201                	addi	tp,tp,0
80006f7c:	c190                	sw	a2,0(a1)
80006f7e:	0e44                	addi	s1,sp,788
80006f80:	0000                	unimp
80006f82:	0000                	unimp
80006f84:	0010                	0x10
80006f86:	0000                	unimp
80006f88:	0310                	addi	a2,sp,384
80006f8a:	0000                	unimp
80006f8c:	bec4                	fsd	fs1,184(a3)
80006f8e:	ffff                	0xffff
80006f90:	0434                	addi	a3,sp,520
80006f92:	0000                	unimp
80006f94:	0000                	unimp
80006f96:	0000                	unimp
80006f98:	0010                	0x10
80006f9a:	0000                	unimp
80006f9c:	0324                	addi	s1,sp,392
80006f9e:	0000                	unimp
80006fa0:	c2e4                	sw	s1,68(a3)
80006fa2:	ffff                	0xffff
80006fa4:	0410                	addi	a2,sp,512
80006fa6:	0000                	unimp
80006fa8:	0000                	unimp
	...

Disassembly of section .init_array:

80007000 <__init_array_start>:
80007000:	0104                	addi	s1,sp,128
80007002:	8000                	0x8000

Disassembly of section .data:

80007008 <impure_data>:
80007008:	0000                	unimp
8000700a:	0000                	unimp
8000700c:	72f4                	flw	fa3,100(a3)
8000700e:	8000                	0x8000
80007010:	735c                	flw	fa5,36(a4)
80007012:	8000                	0x8000
80007014:	73c4                	flw	fs1,36(a5)
80007016:	8000                	0x8000
	...
800070b0:	0001                	nop
800070b2:	0000                	unimp
800070b4:	0000                	unimp
800070b6:	0000                	unimp
800070b8:	330e                	fld	ft6,224(sp)
800070ba:	abcd                	j	800076ac <__BSS_END__+0x28>
800070bc:	1234                	addi	a3,sp,296
800070be:	e66d                	bnez	a2,800071a8 <impure_data+0x1a0>
800070c0:	deec                	sw	a1,124(a3)
800070c2:	0005                	c.nop	1
800070c4:	0000000b          	0xb
	...

Disassembly of section .sdata:

80007430 <__SDATA_BEGIN__>:
80007430:	ffff                	0xffff
80007432:	ffff                	0xffff
80007434:	ffff                	0xffff
80007436:	ffff7fef          	jal	t6,7ffff434 <__stack_size+0x7ffff034>
8000743a:	ffff                	0xffff
8000743c:	ffff                	0xffff
8000743e:	79fbffef          	jal	t6,800c73dc <__global_pointer+0xbfbd4>
80007442:	509f 4413 3fd3      	0x3fd34413509f
80007448:	8b60c8b3          	0x8b60c8b3
8000744c:	8a28                	0x8a28
8000744e:	3fc6                	fld	ft11,112(sp)
80007450:	0000                	unimp
80007452:	0000                	unimp
80007454:	0000                	unimp
80007456:	3ff8                	fld	fa4,248(a5)
80007458:	4361                	li	t1,24
8000745a:	87a7636f          	jal	t1,7ff7d4d4 <__stack_size+0x7ff7d0d4>
8000745e:	3fd2                	fld	ft11,304(sp)
80007460:	a371                	j	800079ec <__global_pointer+0x1e4>
80007462:	0979                	addi	s2,s2,30
80007464:	400a934f          	fnmadd.s	ft6,fs5,ft0,fs0,rtz
80007468:	0000                	unimp
8000746a:	0000                	unimp
8000746c:	0000                	unimp
8000746e:	3fe0                	fld	fs0,248(a5)
80007470:	5516                	lw	a0,100(sp)
80007472:	bbb5                	j	800071ee <impure_data+0x1e6>
80007474:	6bb1                	lui	s7,0xc
80007476:	4002                	0x4002
80007478:	fefa39ef          	jal	s3,7ffab466 <__stack_size+0x7ffab066>
8000747c:	2e42                	fld	ft8,16(sp)
8000747e:	3fe6                	fld	ft11,120(sp)
80007480:	0000                	unimp
80007482:	0000                	unimp
80007484:	0000                	unimp
80007486:	402c                	lw	a1,64(s0)
80007488:	0000                	unimp
8000748a:	0000                	unimp
8000748c:	0000                	unimp
8000748e:	4024                	lw	s1,64(s0)
80007490:	0000                	unimp
80007492:	0000                	unimp
80007494:	0000                	unimp
80007496:	4018                	lw	a4,0(s0)
80007498:	0000                	unimp
8000749a:	0000                	unimp
8000749c:	0000                	unimp
8000749e:	4000                	lw	s0,0(s0)
800074a0:	0000                	unimp
800074a2:	0000                	unimp
800074a4:	0000                	unimp
800074a6:	3ff0                	fld	fa2,248(a5)
800074a8:	432d                	li	t1,11
800074aa:	eb1c                	fsw	fa5,16(a4)
800074ac:	36e2                	fld	fa3,56(sp)
800074ae:	3f1a                	fld	ft10,416(sp)
800074b0:	0000                	unimp
800074b2:	0000                	unimp
800074b4:	8480                	0x8480
800074b6:	412e                	lw	sp,200(sp)
800074b8:	0000                	unimp
800074ba:	0000                	unimp
800074bc:	cd65                	beqz	a0,800075b4 <tmask_buffer+0x10>
800074be:	41cd                	li	gp,19
800074c0:	0000                	unimp
800074c2:	0000                	unimp
800074c4:	cd65                	beqz	a0,800075bc <tmask_buffer+0x18>
800074c6:	c1cd                	beqz	a1,80007568 <st_buffer_dst+0x4>

800074c8 <_global_impure_ptr>:
800074c8:	7008                	flw	fa0,32(s0)
800074ca:	8000                	0x8000

Disassembly of section .sbss:

800074cc <barrier_ctr>:
800074cc:	0000                	unimp
	...

800074d0 <barrier_stall>:
800074d0:	0000                	unimp
	...

Disassembly of section .bss:

800074d4 <barrier_buffer>:
	...

800074f4 <dvg_buffer>:
	...

80007504 <global_buffer>:
	...

80007524 <pred_buffer>:
	...

80007544 <sr_buffer>:
	...

80007564 <st_buffer_dst>:
	...

80007584 <st_buffer_src>:
	...

800075a4 <tmask_buffer>:
	...

800075c4 <tmc_buffer>:
	...

800075e4 <wspawn_buffer>:
	...

80007604 <g_wspawn_args>:
	...

Disassembly of section .comment:

00000000 <.comment>:
   0:	3a434347          	fmsub.d	ft6,ft6,ft4,ft7,rmm
   4:	2820                	fld	fs0,80(s0)
   6:	29554e47          	fmsub.s	ft8,fa0,fs5,ft5,rmm
   a:	3920                	fld	fs0,112(a0)
   c:	322e                	fld	ft4,232(sp)
   e:	302e                	fld	ft0,232(sp)
	...

Disassembly of section .riscv.attributes:

00000000 <.riscv.attributes>:
   0:	2541                	jal	680 <__stack_size+0x280>
   2:	0000                	unimp
   4:	7200                	flw	fs0,32(a2)
   6:	7369                	lui	t1,0xffffa
   8:	01007663          	bgeu	zero,a6,14 <__stack_usage+0x14>
   c:	0000001b          	0x1b
  10:	1004                	addi	s1,sp,32
  12:	7205                	lui	tp,0xfffe1
  14:	3376                	fld	ft6,376(sp)
  16:	6932                	flw	fs2,12(sp)
  18:	7032                	flw	ft0,44(sp)
  1a:	5f30                	lw	a2,120(a4)
  1c:	326d                	jal	fffff9c6 <__global_pointer+0x7fff81be>
  1e:	3070                	fld	fa2,224(s0)
  20:	665f 7032 0030      	0x307032665f

Disassembly of section .debug_aranges:

00000000 <.debug_aranges>:
   0:	001c                	0x1c
   2:	0000                	unimp
   4:	0002                	c.slli64	zero
   6:	0000                	unimp
   8:	0000                	unimp
   a:	0004                	0x4
	...
  20:	001c                	0x1c
  22:	0000                	unimp
  24:	0002                	c.slli64	zero
  26:	0000127b          	0x127b
  2a:	0004                	0x4
	...
  40:	001c                	0x1c
  42:	0000                	unimp
  44:	0002                	c.slli64	zero
  46:	00002547          	fmsub.s	fa0,ft0,ft0,ft0,rdn
  4a:	0004                	0x4
  4c:	0000                	unimp
  4e:	0000                	unimp
  50:	2e50                	fld	fa2,152(a2)
  52:	8000                	0x8000
  54:	0434                	addi	a3,sp,520
	...
  5e:	0000                	unimp
  60:	001c                	0x1c
  62:	0000                	unimp
  64:	0002                	c.slli64	zero
  66:	378c                	fld	fa1,40(a5)
  68:	0000                	unimp
  6a:	0004                	0x4
  6c:	0000                	unimp
  6e:	0000                	unimp
  70:	3284                	fld	fs1,32(a3)
  72:	8000                	0x8000
  74:	0410                	addi	a2,sp,512
	...
  7e:	0000                	unimp
  80:	001c                	0x1c
  82:	0000                	unimp
  84:	0002                	c.slli64	zero
  86:	4a2d                	li	s4,11
  88:	0000                	unimp
  8a:	0004                	0x4
  8c:	0000                	unimp
  8e:	0000                	unimp
  90:	3694                	fld	fa3,40(a3)
  92:	8000                	0x8000
  94:	0b5c                	addi	a5,sp,404
	...
  9e:	0000                	unimp
  a0:	001c                	0x1c
  a2:	0000                	unimp
  a4:	0002                	c.slli64	zero
  a6:	5011                	c.li	zero,-28
  a8:	0000                	unimp
  aa:	0004                	0x4
  ac:	0000                	unimp
  ae:	0000                	unimp
  b0:	41f0                	lw	a2,68(a1)
  b2:	8000                	0x8000
  b4:	08c0                	addi	s0,sp,84
	...
  be:	0000                	unimp
  c0:	001c                	0x1c
  c2:	0000                	unimp
  c4:	0002                	c.slli64	zero
  c6:	5780                	lw	s0,40(a5)
  c8:	0000                	unimp
  ca:	0004                	0x4
  cc:	0000                	unimp
  ce:	0000                	unimp
  d0:	4ab0                	lw	a2,80(a3)
  d2:	8000                	0x8000
  d4:	00c8                	addi	a0,sp,68
	...
  de:	0000                	unimp
  e0:	001c                	0x1c
  e2:	0000                	unimp
  e4:	0002                	c.slli64	zero
  e6:	5a21                	li	s4,-24
  e8:	0000                	unimp
  ea:	0004                	0x4
  ec:	0000                	unimp
  ee:	0000                	unimp
  f0:	4b78                	lw	a4,84(a4)
  f2:	8000                	0x8000
  f4:	00ec                	addi	a1,sp,76
	...
  fe:	0000                	unimp
 100:	001c                	0x1c
 102:	0000                	unimp
 104:	0002                	c.slli64	zero
 106:	5cad                	li	s9,-21
 108:	0000                	unimp
 10a:	0004                	0x4
 10c:	0000                	unimp
 10e:	0000                	unimp
 110:	4c64                	lw	s1,92(s0)
 112:	8000                	0x8000
 114:	00ec                	addi	a1,sp,76
	...
 11e:	0000                	unimp
 120:	001c                	0x1c
 122:	0000                	unimp
 124:	0002                	c.slli64	zero
 126:	5f39                	li	t5,-18
 128:	0000                	unimp
 12a:	0004                	0x4
 12c:	0000                	unimp
 12e:	0000                	unimp
 130:	4d50                	lw	a2,28(a0)
 132:	8000                	0x8000
 134:	07a8                	addi	a0,sp,968
	...
 13e:	0000                	unimp
 140:	001c                	0x1c
 142:	0000                	unimp
 144:	0002                	c.slli64	zero
 146:	66d4                	flw	fa3,12(a3)
 148:	0000                	unimp
 14a:	0004                	0x4
 14c:	0000                	unimp
 14e:	0000                	unimp
 150:	54f8                	lw	a4,108(s1)
 152:	8000                	0x8000
 154:	0b7c                	addi	a5,sp,412
	...
 15e:	0000                	unimp
 160:	001c                	0x1c
 162:	0000                	unimp
 164:	0002                	c.slli64	zero
 166:	6cb8                	flw	fa4,88(s1)
 168:	0000                	unimp
 16a:	0004                	0x4
 16c:	0000                	unimp
 16e:	0000                	unimp
 170:	6074                	flw	fa3,68(s0)
 172:	8000                	0x8000
 174:	0100                	addi	s0,sp,128
	...
 17e:	0000                	unimp
 180:	001c                	0x1c
 182:	0000                	unimp
 184:	0002                	c.slli64	zero
 186:	6ed5                	lui	t4,0x15
 188:	0000                	unimp
 18a:	0004                	0x4
 18c:	0000                	unimp
 18e:	0000                	unimp
 190:	6174                	flw	fa3,68(a0)
 192:	8000                	0x8000
 194:	00c8                	addi	a0,sp,68
	...
 19e:	0000                	unimp
 1a0:	001c                	0x1c
 1a2:	0000                	unimp
 1a4:	0002                	c.slli64	zero
 1a6:	70da                	flw	ft1,180(sp)
 1a8:	0000                	unimp
 1aa:	0004                	0x4
 1ac:	0000                	unimp
 1ae:	0000                	unimp
 1b0:	623c                	flw	fa5,64(a2)
 1b2:	8000                	0x8000
 1b4:	00a8                	addi	a0,sp,72
	...
 1be:	0000                	unimp
 1c0:	001c                	0x1c
 1c2:	0000                	unimp
 1c4:	0002                	c.slli64	zero
 1c6:	7396                	flw	ft7,100(sp)
 1c8:	0000                	unimp
 1ca:	0004                	0x4
 1cc:	0000                	unimp
 1ce:	0000                	unimp
 1d0:	62e4                	flw	fs1,68(a3)
 1d2:	8000                	0x8000
 1d4:	0080                	addi	s0,sp,64
	...
 1de:	0000                	unimp
 1e0:	0014                	0x14
 1e2:	0000                	unimp
 1e4:	0002                	c.slli64	zero
 1e6:	7645                	lui	a2,0xffff1
 1e8:	0000                	unimp
 1ea:	0004                	0x4
	...
 1f8:	001c                	0x1c
 1fa:	0000                	unimp
 1fc:	0002                	c.slli64	zero
 1fe:	000081af          	0x81af
 202:	0004                	0x4
 204:	0000                	unimp
 206:	0000                	unimp
 208:	6364                	flw	fs1,68(a4)
 20a:	8000                	0x8000
 20c:	004c                	addi	a1,sp,4
	...

Disassembly of section .debug_info:

00000000 <.debug_info>:
       0:	00001277          	0x1277
       4:	0004                	0x4
       6:	0000                	unimp
       8:	0000                	unimp
       a:	0104                	addi	s1,sp,128
       c:	04e2                	slli	s1,s1,0x18
       e:	0000                	unimp
      10:	6d0c                	flw	fa1,24(a0)
      12:	0004                	0x4
      14:	d500                	sw	s0,40(a0)
      16:	0001                	nop
	...
      24:	0200                	addi	s0,sp,256
      26:	0708                	addi	a0,sp,896
      28:	02ca                	slli	t0,t0,0x12
      2a:	0000                	unimp
      2c:	0402                	c.slli64	s0
      2e:	0002d407          	0x2d407
      32:	0300                	addi	s0,sp,384
      34:	0504                	addi	s1,sp,640
      36:	6e69                	lui	t3,0x1a
      38:	0074                	addi	a3,sp,12
      3a:	0802                	c.slli64	a6
      3c:	f105                	bnez	a0,ffffff5c <__global_pointer+0x7fff8754>
      3e:	02000003          	lb	zero,32(zero) # 20 <__stack_usage+0x20>
      42:	0410                	addi	a2,sp,512
      44:	00c0                	addi	s0,sp,68
      46:	0000                	unimp
      48:	0102                	c.slli64	sp
      4a:	aa06                	fsd	ft1,272(sp)
      4c:	0006                	c.slli	zero,0x1
      4e:	0200                	addi	s0,sp,256
      50:	0801                	addi	a6,a6,0
      52:	06a8                	addi	a0,sp,840
      54:	0000                	unimp
      56:	0202                	c.slli64	tp
      58:	0005                	c.nop	1
      5a:	0000                	unimp
      5c:	0200                	addi	s0,sp,256
      5e:	0702                	c.slli64	a4
      60:	02ea                	slli	t0,t0,0x1a
      62:	0000                	unimp
      64:	0402                	c.slli64	s0
      66:	f605                	bnez	a2,ffffff8e <__global_pointer+0x7fff8786>
      68:	02000003          	lb	zero,32(zero) # 20 <__stack_usage+0x20>
      6c:	0704                	addi	s1,sp,896
      6e:	000002cf          	fnmadd.s	ft5,ft0,ft0,ft0,rne
      72:	4604                	lw	s1,8(a2)
      74:	02000003          	lb	zero,32(zero) # 20 <__stack_usage+0x20>
      78:	015e                	slli	sp,sp,0x17
      7a:	00002c17          	auipc	s8,0x2
      7e:	0500                	addi	s0,sp,640
      80:	0425                	addi	s0,s0,9
      82:	0000                	unimp
      84:	640e2e03          	lw	t3,1600(t3) # 1a640 <__stack_size+0x1a240>
      88:	0000                	unimp
      8a:	0500                	addi	s0,sp,640
      8c:	00000627          	0x627
      90:	640e7403          	0x640e7403
      94:	0000                	unimp
      96:	0500                	addi	s0,sp,640
      98:	0712                	slli	a4,a4,0x4
      9a:	0000                	unimp
      9c:	33179303          	lh	t1,817(a5)
      a0:	0000                	unimp
      a2:	0600                	addi	s0,sp,768
      a4:	0304                	addi	s1,sp,384
      a6:	03a5                	addi	t2,t2,9
      a8:	00c5                	addi	ra,ra,17
      aa:	0000                	unimp
      ac:	00033107          	fld	ft2,0(t1) # ffffa000 <__global_pointer+0x7fff27f8>
      b0:	0300                	addi	s0,sp,384
      b2:	00720ca7          	0x720ca7
      b6:	0000                	unimp
      b8:	00029c07          	0x29c07
      bc:	0300                	addi	s0,sp,384
      be:	13a8                	addi	a0,sp,488
      c0:	00c5                	addi	ra,ra,17
      c2:	0000                	unimp
      c4:	0800                	addi	s0,sp,16
      c6:	0000004f          	fnmadd.s	ft0,ft0,ft0,ft0,rne
      ca:	00d5                	addi	ra,ra,21
      cc:	0000                	unimp
      ce:	2c09                	jal	2e0 <__stack_usage+0x2e0>
      d0:	0000                	unimp
      d2:	0300                	addi	s0,sp,384
      d4:	0a00                	addi	s0,sp,272
      d6:	0308                	addi	a0,sp,384
      d8:	09a2                	slli	s3,s3,0x8
      da:	00f9                	addi	ra,ra,30
      dc:	0000                	unimp
      de:	0003970b          	0x3970b
      e2:	0300                	addi	s0,sp,384
      e4:	07a4                	addi	s1,sp,968
      e6:	00000033          	add	zero,zero,zero
      ea:	0b00                	addi	s0,sp,400
      ec:	0619                	addi	a2,a2,6
      ee:	0000                	unimp
      f0:	a305a903          	lw	s2,-1488(a1)
      f4:	0000                	unimp
      f6:	0400                	addi	s0,sp,512
      f8:	0500                	addi	s0,sp,640
      fa:	044a                	slli	s0,s0,0x12
      fc:	0000                	unimp
      fe:	d503aa03          	lw	s4,-688(t2)
     102:	0000                	unimp
     104:	0c00                	addi	s0,sp,528
     106:	0504                	addi	s1,sp,640
     108:	000006bb          	0x6bb
     10c:	1604                	addi	s1,sp,800
     10e:	6b19                	lui	s6,0x6
     110:	0000                	unimp
     112:	0500                	addi	s0,sp,640
     114:	0455                	addi	s0,s0,21
     116:	0000                	unimp
     118:	0c05                	addi	s8,s8,1
     11a:	330d                	jal	fffffe3c <__global_pointer+0x7fff8634>
     11c:	0000                	unimp
     11e:	0500                	addi	s0,sp,640
     120:	000004cb          	fnmsub.s	fs1,ft0,ft0,ft0,rne
     124:	2304                	fld	fs1,0(a4)
     126:	0001131b          	0x1131b
     12a:	0d00                	addi	s0,sp,656
     12c:	03d0                	addi	a2,sp,452
     12e:	0000                	unimp
     130:	0418                	addi	a4,sp,512
     132:	0834                	addi	a3,sp,24
     134:	0185                	addi	gp,gp,1
     136:	0000                	unimp
     138:	0007d40b          	0x7d40b
     13c:	0400                	addi	s0,sp,512
     13e:	1336                	slli	t1,t1,0x2d
     140:	0185                	addi	gp,gp,1
     142:	0000                	unimp
     144:	0e00                	addi	s0,sp,784
     146:	6b5f 0400 0737      	0x73704006b5f
     14c:	00000033          	add	zero,zero,zero
     150:	0b04                	addi	s1,sp,400
     152:	05f6                	slli	a1,a1,0x1d
     154:	0000                	unimp
     156:	3704                	fld	fs1,40(a4)
     158:	0000330b          	0x330b
     15c:	0800                	addi	s0,sp,16
     15e:	0002400b          	0x2400b
     162:	0400                	addi	s0,sp,512
     164:	00331437          	lui	s0,0x331
     168:	0000                	unimp
     16a:	0b0c                	addi	a1,sp,400
     16c:	0000016b          	0x16b
     170:	3704                	fld	fs1,40(a4)
     172:	0000331b          	0x331b
     176:	1000                	addi	s0,sp,32
     178:	5f0e                	lw	t5,224(sp)
     17a:	0078                	addi	a4,sp,12
     17c:	3804                	fld	fs1,48(s0)
     17e:	00018b0b          	0x18b0b
     182:	1400                	addi	s0,sp,544
     184:	0f00                	addi	s0,sp,912
     186:	2b04                	fld	fs1,16(a4)
     188:	0001                	nop
     18a:	0800                	addi	s0,sp,16
     18c:	00000107          	0x107
     190:	0000019b          	0x19b
     194:	2c09                	jal	3a6 <__stack_usage+0x3a6>
     196:	0000                	unimp
     198:	0000                	unimp
     19a:	0d00                	addi	s0,sp,656
     19c:	027f                	0x27f
     19e:	0000                	unimp
     1a0:	0424                	addi	s1,sp,520
     1a2:	083c                	addi	a5,sp,24
     1a4:	021e                	slli	tp,tp,0x7
     1a6:	0000                	unimp
     1a8:	0000f80b          	0xf80b
     1ac:	0400                	addi	s0,sp,512
     1ae:	093e                	slli	s2,s2,0xf
     1b0:	00000033          	add	zero,zero,zero
     1b4:	0b00                	addi	s0,sp,400
     1b6:	0770                	addi	a2,sp,908
     1b8:	0000                	unimp
     1ba:	3f04                	fld	fs1,56(a4)
     1bc:	3309                	jal	fffffebe <__global_pointer+0x7fff86b6>
     1be:	0000                	unimp
     1c0:	0400                	addi	s0,sp,512
     1c2:	0001140b          	0x1140b
     1c6:	0400                	addi	s0,sp,512
     1c8:	0940                	addi	s0,sp,148
     1ca:	00000033          	add	zero,zero,zero
     1ce:	0b08                	addi	a0,sp,400
     1d0:	07c5                	addi	a5,a5,17
     1d2:	0000                	unimp
     1d4:	4104                	lw	s1,0(a0)
     1d6:	3309                	jal	fffffed8 <__global_pointer+0x7fff86d0>
     1d8:	0000                	unimp
     1da:	0c00                	addi	s0,sp,528
     1dc:	0003ff0b          	0x3ff0b
     1e0:	0400                	addi	s0,sp,512
     1e2:	0942                	slli	s2,s2,0x10
     1e4:	00000033          	add	zero,zero,zero
     1e8:	0b10                	addi	a2,sp,400
     1ea:	038d                	addi	t2,t2,3
     1ec:	0000                	unimp
     1ee:	4304                	lw	s1,0(a4)
     1f0:	3309                	jal	fffffef2 <__global_pointer+0x7fff86ea>
     1f2:	0000                	unimp
     1f4:	1400                	addi	s0,sp,544
     1f6:	0006fb0b          	0x6fb0b
     1fa:	0400                	addi	s0,sp,512
     1fc:	0944                	addi	s1,sp,148
     1fe:	00000033          	add	zero,zero,zero
     202:	0b18                	addi	a4,sp,400
     204:	07ac                	addi	a1,sp,968
     206:	0000                	unimp
     208:	4504                	lw	s1,8(a0)
     20a:	3309                	jal	ffffff0c <__global_pointer+0x7fff8704>
     20c:	0000                	unimp
     20e:	1c00                	addi	s0,sp,560
     210:	0007560b          	0x7560b
     214:	0400                	addi	s0,sp,512
     216:	0946                	slli	s2,s2,0x11
     218:	00000033          	add	zero,zero,zero
     21c:	0020                	addi	s0,sp,8
     21e:	3110                	fld	fa2,32(a0)
     220:	0001                	nop
     222:	0800                	addi	s0,sp,16
     224:	0401                	addi	s0,s0,0
     226:	0263084f          	fnmadd.d	fa6,ft6,ft6,ft0,rne
     22a:	0000                	unimp
     22c:	0002330b          	0x2330b
     230:	0400                	addi	s0,sp,512
     232:	0a50                	addi	a2,sp,276
     234:	00000263          	beqz	zero,238 <__stack_usage+0x238>
     238:	0b00                	addi	s0,sp,400
     23a:	000004a7          	0x4a7
     23e:	5104                	lw	s1,32(a0)
     240:	6309                	lui	t1,0x2
     242:	0002                	c.slli64	zero
     244:	8000                	0x8000
     246:	9f11                	0x9f11
     248:	0006                	c.slli	zero,0x1
     24a:	0400                	addi	s0,sp,512
     24c:	01070a53          	fadd.s	fs4,fa4,fa6,rne
     250:	0000                	unimp
     252:	0100                	addi	s0,sp,128
     254:	6311                	lui	t1,0x4
     256:	0001                	nop
     258:	0400                	addi	s0,sp,512
     25a:	0a56                	slli	s4,s4,0x15
     25c:	00000107          	0x107
     260:	0104                	addi	s1,sp,128
     262:	0800                	addi	s0,sp,16
     264:	0105                	addi	sp,sp,1
     266:	0000                	unimp
     268:	00000273          	0x273
     26c:	2c09                	jal	47e <__stack_size+0x7e>
     26e:	0000                	unimp
     270:	1f00                	addi	s0,sp,944
     272:	1000                	addi	s0,sp,32
     274:	0408                	addi	a0,sp,512
     276:	0000                	unimp
     278:	0190                	addi	a2,sp,192
     27a:	6204                	flw	fs1,0(a2)
     27c:	b608                	fsd	fa0,40(a2)
     27e:	0002                	c.slli64	zero
     280:	0b00                	addi	s0,sp,400
     282:	07d4                	addi	a3,sp,964
     284:	0000                	unimp
     286:	6304                	flw	fs1,0(a4)
     288:	b612                	fsd	ft4,296(sp)
     28a:	0002                	c.slli64	zero
     28c:	0000                	unimp
     28e:	0005df0b          	0x5df0b
     292:	0400                	addi	s0,sp,512
     294:	0664                	addi	s1,sp,780
     296:	00000033          	add	zero,zero,zero
     29a:	0b04                	addi	s1,sp,400
     29c:	0000023b          	0x23b
     2a0:	6604                	flw	fs1,8(a2)
     2a2:	bc09                	j	fffffcb4 <__global_pointer+0x7fff84ac>
     2a4:	0002                	c.slli64	zero
     2a6:	0800                	addi	s0,sp,16
     2a8:	0001310b          	0x1310b
     2ac:	0400                	addi	s0,sp,512
     2ae:	021e1e67          	0x21e1e67
     2b2:	0000                	unimp
     2b4:	0088                	addi	a0,sp,64
     2b6:	0273040f          	0x273040f
     2ba:	0000                	unimp
     2bc:	cc08                	sw	a0,24(s0)
     2be:	0002                	c.slli64	zero
     2c0:	cc00                	sw	s0,24(s0)
     2c2:	0002                	c.slli64	zero
     2c4:	0900                	addi	s0,sp,144
     2c6:	002c                	addi	a1,sp,8
     2c8:	0000                	unimp
     2ca:	001f 040f 02d2      	0x2d2040f001f
     2d0:	0000                	unimp
     2d2:	0d12                	slli	s10,s10,0x4
     2d4:	07be                	slli	a5,a5,0xf
     2d6:	0000                	unimp
     2d8:	0408                	addi	a0,sp,512
     2da:	087a                	slli	a6,a6,0x1e
     2dc:	000002fb          	0x2fb
     2e0:	00010e0b          	0x10e0b
     2e4:	0400                	addi	s0,sp,512
     2e6:	02fb117b          	0x2fb117b
     2ea:	0000                	unimp
     2ec:	0b00                	addi	s0,sp,400
     2ee:	001c                	0x1c
     2f0:	0000                	unimp
     2f2:	7c04                	flw	fs1,56(s0)
     2f4:	3306                	fld	ft6,96(sp)
     2f6:	0000                	unimp
     2f8:	0400                	addi	s0,sp,512
     2fa:	0f00                	addi	s0,sp,912
     2fc:	4f04                	lw	s1,24(a4)
     2fe:	0000                	unimp
     300:	0d00                	addi	s0,sp,656
     302:	000005bb          	0x5bb
     306:	0468                	addi	a0,sp,524
     308:	08ba                	slli	a7,a7,0xe
     30a:	0444                	addi	s1,sp,516
     30c:	0000                	unimp
     30e:	5f0e                	lw	t5,224(sp)
     310:	0070                	addi	a2,sp,12
     312:	bb04                	fsd	fs1,48(a4)
     314:	fb12                	fsw	ft4,180(sp)
     316:	0002                	c.slli64	zero
     318:	0000                	unimp
     31a:	5f0e                	lw	t5,224(sp)
     31c:	0072                	c.slli	zero,0x1c
     31e:	bc04                	fsd	fs1,56(s0)
     320:	00003307          	fld	ft6,0(zero) # 0 <__stack_usage>
     324:	0400                	addi	s0,sp,512
     326:	5f0e                	lw	t5,224(sp)
     328:	bd040077          	0xbd040077
     32c:	00003307          	fld	ft6,0(zero) # 0 <__stack_usage>
     330:	0800                	addi	s0,sp,16
     332:	00015c0b          	0x15c0b
     336:	0400                	addi	s0,sp,512
     338:	09be                	slli	s3,s3,0xf
     33a:	0056                	c.slli	zero,0x15
     33c:	0000                	unimp
     33e:	0b0c                	addi	a1,sp,400
     340:	000002ab          	0x2ab
     344:	bf04                	fsd	fs1,56(a4)
     346:	5609                	li	a2,-30
     348:	0000                	unimp
     34a:	0e00                	addi	s0,sp,784
     34c:	5f0e                	lw	t5,224(sp)
     34e:	6662                	flw	fa2,24(sp)
     350:	0400                	addi	s0,sp,512
     352:	11c0                	addi	s0,sp,228
     354:	000002d3          	fadd.s	ft5,ft0,ft0,rne
     358:	0b10                	addi	a2,sp,400
     35a:	00a8                	addi	a0,sp,72
     35c:	0000                	unimp
     35e:	c104                	sw	s1,0(a0)
     360:	00003307          	fld	ft6,0(zero) # 0 <__stack_usage>
     364:	1800                	addi	s0,sp,48
     366:	00013f0b          	0x13f0b
     36a:	0400                	addi	s0,sp,512
     36c:	0ac8                	addi	a0,sp,340
     36e:	0105                	addi	sp,sp,1
     370:	0000                	unimp
     372:	0b1c                	addi	a5,sp,400
     374:	00000467          	jalr	s0,zero # 0 <__stack_usage>
     378:	ca04                	sw	s1,16(a2)
     37a:	c81d                	beqz	s0,3b0 <__stack_usage+0x3b0>
     37c:	0005                	c.nop	1
     37e:	2000                	fld	fs0,0(s0)
     380:	0003860b          	0x3860b
     384:	0400                	addi	s0,sp,512
     386:	1dcc                	addi	a1,sp,756
     388:	000005f7          	0x5f7
     38c:	0b24                	addi	s1,sp,408
     38e:	0621                	addi	a2,a2,8
     390:	0000                	unimp
     392:	cf04                	sw	s1,24(a4)
     394:	1b0d                	addi	s6,s6,-29
     396:	0006                	c.slli	zero,0x1
     398:	2800                	fld	fs0,16(s0)
     39a:	0001010b          	0x1010b
     39e:	0400                	addi	s0,sp,512
     3a0:	09d0                	addi	a2,sp,212
     3a2:	0635                	addi	a2,a2,13
     3a4:	0000                	unimp
     3a6:	0e2c                	addi	a1,sp,792
     3a8:	755f 0062 d304      	0xd3040062755f
     3ae:	d311                	beqz	a4,2b2 <__stack_usage+0x2b2>
     3b0:	0002                	c.slli64	zero
     3b2:	3000                	fld	fs0,32(s0)
     3b4:	5f0e                	lw	t5,224(sp)
     3b6:	7075                	c.lui	zero,0xffffd
     3b8:	0400                	addi	s0,sp,512
     3ba:	12d4                	addi	a3,sp,356
     3bc:	000002fb          	0x2fb
     3c0:	0e38                	addi	a4,sp,792
     3c2:	755f 0072 d504      	0xd5040072755f
     3c8:	00003307          	fld	ft6,0(zero) # 0 <__stack_usage>
     3cc:	3c00                	fld	fs0,56(s0)
     3ce:	0001080b          	0x1080b
     3d2:	0400                	addi	s0,sp,512
     3d4:	11d8                	addi	a4,sp,228
     3d6:	0000063b          	0x63b
     3da:	0b40                	addi	s0,sp,404
     3dc:	073e                	slli	a4,a4,0xf
     3de:	0000                	unimp
     3e0:	d904                	sw	s1,48(a0)
     3e2:	4b11                	li	s6,4
     3e4:	0006                	c.slli	zero,0x1
     3e6:	4300                	lw	s0,0(a4)
     3e8:	5f0e                	lw	t5,224(sp)
     3ea:	626c                	flw	fa1,68(a2)
     3ec:	0400                	addi	s0,sp,512
     3ee:	11dc                	addi	a5,sp,228
     3f0:	000002d3          	fadd.s	ft5,ft0,ft0,rne
     3f4:	0b44                	addi	s1,sp,404
     3f6:	0638                	addi	a4,sp,776
     3f8:	0000                	unimp
     3fa:	df04                	sw	s1,56(a4)
     3fc:	00003307          	fld	ft6,0(zero) # 0 <__stack_usage>
     400:	4c00                	lw	s0,24(s0)
     402:	0003c80b          	0x3c80b
     406:	0400                	addi	s0,sp,512
     408:	0ae0                	addi	s0,sp,348
     40a:	007f                	0x7f
     40c:	0000                	unimp
     40e:	0b50                	addi	a2,sp,404
     410:	0000005b          	0x5b
     414:	e304                	fsw	fs1,0(a4)
     416:	6212                	flw	ft4,4(sp)
     418:	0004                	0x4
     41a:	5400                	lw	s0,40(s0)
     41c:	00034d0b          	0x34d0b
     420:	0400                	addi	s0,sp,512
     422:	011f0ce7          	jalr	s9,17(t5) # 1b011 <__stack_size+0x1ac11>
     426:	0000                	unimp
     428:	0b58                	addi	a4,sp,404
     42a:	00000293          	li	t0,0
     42e:	e904                	fsw	fs1,16(a0)
     430:	f90e                	fsw	ft3,176(sp)
     432:	0000                	unimp
     434:	5c00                	lw	s0,56(s0)
     436:	0004d40b          	0x4d40b
     43a:	0400                	addi	s0,sp,512
     43c:	09ea                	slli	s3,s3,0x1a
     43e:	00000033          	add	zero,zero,zero
     442:	0064                	addi	s1,sp,12
     444:	00009713          	slli	a4,ra,0x0
     448:	6200                	flw	fs0,0(a2)
     44a:	0004                	0x4
     44c:	1400                	addi	s0,sp,544
     44e:	0462                	slli	s0,s0,0x18
     450:	0000                	unimp
     452:	0514                	addi	a3,sp,640
     454:	0001                	nop
     456:	1400                	addi	s0,sp,544
     458:	05b6                	slli	a1,a1,0xd
     45a:	0000                	unimp
     45c:	3314                	fld	fa3,32(a4)
     45e:	0000                	unimp
     460:	0000                	unimp
     462:	046d040f          	0x46d040f
     466:	0000                	unimp
     468:	6215                	lui	tp,0x5
     46a:	0004                	0x4
     46c:	1600                	addi	s0,sp,800
     46e:	05fe                	slli	a1,a1,0x1f
     470:	0000                	unimp
     472:	0428                	addi	a0,sp,520
     474:	6504                	flw	fs1,8(a0)
     476:	0802                	c.slli64	a6
     478:	05b6                	slli	a1,a1,0xd
     47a:	0000                	unimp
     47c:	0004c417          	auipc	s0,0x4c
     480:	0400                	addi	s0,sp,512
     482:	33070267          	jalr	tp,816(a4)
     486:	0000                	unimp
     488:	0000                	unimp
     48a:	00070b17          	auipc	s6,0x70
     48e:	0400                	addi	s0,sp,512
     490:	026c                	addi	a1,sp,268
     492:	0006a70b          	0x6a70b
     496:	0400                	addi	s0,sp,512
     498:	0006f317          	auipc	t1,0x6f
     49c:	0400                	addi	s0,sp,512
     49e:	026c                	addi	a1,sp,268
     4a0:	a714                	fsd	fa3,8(a4)
     4a2:	0006                	c.slli	zero,0x1
     4a4:	0800                	addi	s0,sp,16
     4a6:	00024617          	auipc	a2,0x24
     4aa:	0400                	addi	s0,sp,512
     4ac:	026c                	addi	a1,sp,268
     4ae:	a71e                	fsd	ft7,392(sp)
     4b0:	0006                	c.slli	zero,0x1
     4b2:	0c00                	addi	s0,sp,528
     4b4:	0005da17          	auipc	s4,0x5d
     4b8:	0400                	addi	s0,sp,512
     4ba:	026e                	slli	tp,tp,0x1b
     4bc:	3308                	fld	fa0,32(a4)
     4be:	0000                	unimp
     4c0:	1000                	addi	s0,sp,32
     4c2:	00002a17          	auipc	s4,0x2
     4c6:	0400                	addi	s0,sp,512
     4c8:	a708026f          	jal	tp,fff80738 <__global_pointer+0x7ff78f30>
     4cc:	0008                	0x8
     4ce:	1400                	addi	s0,sp,544
     4d0:	00026617          	auipc	a2,0x26
     4d4:	0400                	addi	s0,sp,512
     4d6:	0272                	slli	tp,tp,0x1c
     4d8:	00003307          	fld	ft6,0(zero) # 0 <__stack_usage>
     4dc:	3000                	fld	fs0,32(s0)
     4de:	0005e417          	auipc	s0,0x5e
     4e2:	0400                	addi	s0,sp,512
     4e4:	bc160273          	0xbc160273
     4e8:	0008                	0x8
     4ea:	3400                	fld	fs0,40(s0)
     4ec:	00041a17          	auipc	s4,0x41
     4f0:	0400                	addi	s0,sp,512
     4f2:	0275                	addi	tp,tp,29
     4f4:	00003307          	fld	ft6,0(zero) # 0 <__stack_usage>
     4f8:	3800                	fld	fs0,48(s0)
     4fa:	0005ec17          	auipc	s8,0x5e
     4fe:	0400                	addi	s0,sp,512
     500:	cd0a0277          	0xcd0a0277
     504:	0008                	0x8
     506:	3c00                	fld	fs0,56(s0)
     508:	00032917          	auipc	s2,0x32
     50c:	0400                	addi	s0,sp,512
     50e:	027a                	slli	tp,tp,0x1e
     510:	00018513          	mv	a0,gp
     514:	4000                	lw	s0,0(s0)
     516:	00017717          	auipc	a4,0x17
     51a:	0400                	addi	s0,sp,512
     51c:	3307027b          	0x3307027b
     520:	0000                	unimp
     522:	4400                	lw	s0,8(s0)
     524:	0007a717          	auipc	a4,0x7a
     528:	0400                	addi	s0,sp,512
     52a:	027c                	addi	a5,sp,268
     52c:	00018513          	mv	a0,gp
     530:	4800                	lw	s0,16(s0)
     532:	00043617          	auipc	a2,0x43
     536:	0400                	addi	s0,sp,512
     538:	027d                	addi	tp,tp,31
     53a:	d314                	sw	a3,32(a4)
     53c:	0008                	0x8
     53e:	4c00                	lw	s0,24(s0)
     540:	0002a317          	auipc	t1,0x2a
     544:	0400                	addi	s0,sp,512
     546:	0280                	addi	s0,sp,320
     548:	00003307          	fld	ft6,0(zero) # 0 <__stack_usage>
     54c:	5000                	lw	s0,32(s0)
     54e:	0001ae17          	auipc	t3,0x1a
     552:	0400                	addi	s0,sp,512
     554:	0281                	addi	t0,t0,0
     556:	b609                	j	58 <__stack_usage+0x58>
     558:	0005                	c.nop	1
     55a:	5400                	lw	s0,40(s0)
     55c:	0004bd17          	auipc	s10,0x4b
     560:	0400                	addi	s0,sp,512
     562:	02a4                	addi	s1,sp,328
     564:	00088207          	0x88207
     568:	5800                	lw	s0,48(s0)
     56a:	0818                	addi	a4,sp,16
     56c:	0004                	0x4
     56e:	0400                	addi	s0,sp,512
     570:	02a8                	addi	a0,sp,328
     572:	0002b613          	sltiu	a2,t0,0
     576:	4800                	lw	s0,16(s0)
     578:	1801                	addi	a6,a6,-32
     57a:	00000307          	0x307
     57e:	a904                	fsd	fs1,16(a0)
     580:	1202                	slli	tp,tp,0x20
     582:	00000273          	0x273
     586:	014c                	addi	a1,sp,132
     588:	2518                	fld	fa4,8(a0)
     58a:	04000007          	0x4000007
     58e:	02ad                	addi	t0,t0,11
     590:	e40c                	fsw	fa1,8(s0)
     592:	0008                	0x8
     594:	dc00                	sw	s0,56(s0)
     596:	1802                	slli	a6,a6,0x20
     598:	00000147          	fmsub.s	ft2,ft0,ft0,ft0,rne
     59c:	b204                	fsd	fs1,32(a2)
     59e:	1002                	c.slli	zero,0x20
     5a0:	0668                	addi	a0,sp,780
     5a2:	0000                	unimp
     5a4:	02e0                	addi	s0,sp,332
     5a6:	2c18                	fld	fa4,24(s0)
     5a8:	0001                	nop
     5aa:	0400                	addi	s0,sp,512
     5ac:	02b4                	addi	a3,sp,328
     5ae:	f00a                	fsw	ft2,32(sp)
     5b0:	0008                	0x8
     5b2:	ec00                	fsw	fs0,24(s0)
     5b4:	0002                	c.slli64	zero
     5b6:	05bc040f          	0x5bc040f
     5ba:	0000                	unimp
     5bc:	0102                	c.slli64	sp
     5be:	b108                	fsd	fa0,32(a0)
     5c0:	0006                	c.slli	zero,0x1
     5c2:	1500                	addi	s0,sp,672
     5c4:	05bc                	addi	a5,sp,712
     5c6:	0000                	unimp
     5c8:	0444040f          	0x444040f
     5cc:	0000                	unimp
     5ce:	00009713          	slli	a4,ra,0x0
     5d2:	ec00                	fsw	fs0,24(s0)
     5d4:	0005                	c.nop	1
     5d6:	1400                	addi	s0,sp,544
     5d8:	0462                	slli	s0,s0,0x18
     5da:	0000                	unimp
     5dc:	0514                	addi	a3,sp,640
     5de:	0001                	nop
     5e0:	1400                	addi	s0,sp,544
     5e2:	05ec                	addi	a1,sp,716
     5e4:	0000                	unimp
     5e6:	3314                	fld	fa3,32(a4)
     5e8:	0000                	unimp
     5ea:	0000                	unimp
     5ec:	05c3040f          	0x5c3040f
     5f0:	0000                	unimp
     5f2:	ec15                	bnez	s0,62e <__stack_size+0x22e>
     5f4:	0005                	c.nop	1
     5f6:	0f00                	addi	s0,sp,912
     5f8:	ce04                	sw	s1,24(a2)
     5fa:	0005                	c.nop	1
     5fc:	1300                	addi	s0,sp,416
     5fe:	0000008b          	0x8b
     602:	0000061b          	0x61b
     606:	6214                	flw	fa3,0(a2)
     608:	0004                	0x4
     60a:	1400                	addi	s0,sp,544
     60c:	0105                	addi	sp,sp,1
     60e:	0000                	unimp
     610:	8b14                	0x8b14
     612:	0000                	unimp
     614:	1400                	addi	s0,sp,544
     616:	00000033          	add	zero,zero,zero
     61a:	0f00                	addi	s0,sp,912
     61c:	fd04                	fsw	fs1,56(a0)
     61e:	0005                	c.nop	1
     620:	1300                	addi	s0,sp,416
     622:	00000033          	add	zero,zero,zero
     626:	0635                	addi	a2,a2,13
     628:	0000                	unimp
     62a:	6214                	flw	fa3,0(a2)
     62c:	0004                	0x4
     62e:	1400                	addi	s0,sp,544
     630:	0105                	addi	sp,sp,1
     632:	0000                	unimp
     634:	0f00                	addi	s0,sp,912
     636:	2104                	fld	fs1,0(a0)
     638:	0006                	c.slli	zero,0x1
     63a:	0800                	addi	s0,sp,16
     63c:	0000004f          	fnmadd.s	ft0,ft0,ft0,ft0,rne
     640:	0000064b          	fnmsub.s	fa2,ft0,ft0,ft0,rne
     644:	2c09                	jal	856 <__stack_size+0x456>
     646:	0000                	unimp
     648:	0200                	addi	s0,sp,256
     64a:	0800                	addi	s0,sp,16
     64c:	0000004f          	fnmadd.s	ft0,ft0,ft0,ft0,rne
     650:	0000065b          	0x65b
     654:	2c09                	jal	866 <__stack_size+0x466>
     656:	0000                	unimp
     658:	0000                	unimp
     65a:	0400                	addi	s0,sp,512
     65c:	0170                	addi	a2,sp,140
     65e:	0000                	unimp
     660:	2404                	fld	fs1,8(s0)
     662:	1a01                	addi	s4,s4,-32
     664:	0301                	addi	t1,t1,0
     666:	0000                	unimp
     668:	0519                	addi	a0,a0,6
     66a:	0c000007          	0xc000007
     66e:	2804                	fld	fs1,16(s0)
     670:	0801                	addi	a6,a6,0
     672:	06a1                	addi	a3,a3,8
     674:	0000                	unimp
     676:	0007d417          	auipc	s0,0x7d
     67a:	0400                	addi	s0,sp,512
     67c:	012a                	slli	sp,sp,0xa
     67e:	a111                	j	a82 <__stack_size+0x682>
     680:	0006                	c.slli	zero,0x1
     682:	0000                	unimp
     684:	0002c317          	auipc	t1,0x2c
     688:	0400                	addi	s0,sp,512
     68a:	3307012b          	0x3307012b
     68e:	0000                	unimp
     690:	0400                	addi	s0,sp,512
     692:	0004dc17          	auipc	s8,0x4d
     696:	0400                	addi	s0,sp,512
     698:	012c                	addi	a1,sp,136
     69a:	0006a70b          	0x6a70b
     69e:	0800                	addi	s0,sp,16
     6a0:	0f00                	addi	s0,sp,912
     6a2:	6804                	flw	fs1,16(s0)
     6a4:	0006                	c.slli	zero,0x1
     6a6:	0f00                	addi	s0,sp,912
     6a8:	5b04                	lw	s1,48(a4)
     6aa:	0006                	c.slli	zero,0x1
     6ac:	1900                	addi	s0,sp,176
     6ae:	0022                	c.slli	zero,0x8
     6b0:	0000                	unimp
     6b2:	040e                	slli	s0,s0,0x3
     6b4:	0144                	addi	s1,sp,132
     6b6:	e608                	fsw	fa0,8(a2)
     6b8:	0006                	c.slli	zero,0x1
     6ba:	1700                	addi	s0,sp,928
     6bc:	0000066f          	jal	a2,6bc <__stack_size+0x2bc>
     6c0:	4504                	lw	s1,8(a0)
     6c2:	1201                	addi	tp,tp,-32
     6c4:	06e6                	slli	a3,a3,0x19
     6c6:	0000                	unimp
     6c8:	1700                	addi	s0,sp,928
     6ca:	00000363          	beqz	zero,6d0 <__stack_size+0x2d0>
     6ce:	4604                	lw	s1,8(a2)
     6d0:	1201                	addi	tp,tp,-32
     6d2:	06e6                	slli	a3,a3,0x19
     6d4:	0000                	unimp
     6d6:	1706                	slli	a4,a4,0x21
     6d8:	06b6                	slli	a3,a3,0xd
     6da:	0000                	unimp
     6dc:	4704                	lw	s1,8(a4)
     6de:	1201                	addi	tp,tp,-32
     6e0:	005d                	c.nop	23
     6e2:	0000                	unimp
     6e4:	000c                	0xc
     6e6:	5d08                	lw	a0,56(a0)
     6e8:	0000                	unimp
     6ea:	f600                	fsw	fs0,40(a2)
     6ec:	0006                	c.slli	zero,0x1
     6ee:	0900                	addi	s0,sp,144
     6f0:	002c                	addi	a1,sp,8
     6f2:	0000                	unimp
     6f4:	0002                	c.slli64	zero
     6f6:	d01a                	sw	t1,32(sp)
     6f8:	8504                	0x8504
     6fa:	0702                	c.slli64	a4
     6fc:	0000080b          	0x80b
     700:	00039f17          	auipc	t5,0x39
     704:	0400                	addi	s0,sp,512
     706:	2c180287          	0x2c180287
     70a:	0000                	unimp
     70c:	0000                	unimp
     70e:	00068b17          	auipc	s6,0x68
     712:	0400                	addi	s0,sp,512
     714:	0288                	addi	a0,sp,320
     716:	b612                	fsd	ft4,296(sp)
     718:	0005                	c.nop	1
     71a:	0400                	addi	s0,sp,512
     71c:	00031c17          	auipc	s8,0x31
     720:	0400                	addi	s0,sp,512
     722:	0289                	addi	t0,t0,2
     724:	0b10                	addi	a2,sp,400
     726:	0008                	0x8
     728:	0800                	addi	s0,sp,16
     72a:	00076117          	auipc	sp,0x76
     72e:	0400                	addi	s0,sp,512
     730:	028a                	slli	t0,t0,0x2
     732:	00019b17          	auipc	s6,0x19
     736:	2400                	fld	fs0,8(s0)
     738:	00024e17          	auipc	t3,0x24
     73c:	0400                	addi	s0,sp,512
     73e:	330f028b          	0x330f028b
     742:	0000                	unimp
     744:	4800                	lw	s0,16(s0)
     746:	0007cf17          	auipc	t5,0x7c
     74a:	0400                	addi	s0,sp,512
     74c:	028c                	addi	a1,sp,320
     74e:	252c                	fld	fa1,72(a0)
     750:	0000                	unimp
     752:	5000                	lw	s0,32(s0)
     754:	00077917          	auipc	s2,0x77
     758:	0400                	addi	s0,sp,512
     75a:	028d                	addi	t0,t0,3
     75c:	ad1a                	fsd	ft6,152(sp)
     75e:	0006                	c.slli	zero,0x1
     760:	5800                	lw	s0,48(s0)
     762:	0005cd17          	auipc	s10,0x5c
     766:	0400                	addi	s0,sp,512
     768:	028e                	slli	t0,t0,0x3
     76a:	f916                	fsw	ft5,176(sp)
     76c:	0000                	unimp
     76e:	6800                	flw	fs0,16(s0)
     770:	00079917          	auipc	s2,0x79
     774:	0400                	addi	s0,sp,512
     776:	f916028f          	0xf916028f
     77a:	0000                	unimp
     77c:	7000                	flw	fs0,32(s0)
     77e:	00011e17          	auipc	t3,0x11
     782:	0400                	addi	s0,sp,512
     784:	0290                	addi	a2,sp,320
     786:	f916                	fsw	ft5,176(sp)
     788:	0000                	unimp
     78a:	7800                	flw	fs0,48(s0)
     78c:	00071b17          	auipc	s6,0x71
     790:	0400                	addi	s0,sp,512
     792:	0291                	addi	t0,t0,4
     794:	1b10                	addi	a2,sp,432
     796:	0008                	0x8
     798:	8000                	0x8000
     79a:	00031017          	auipc	zero,0x31
     79e:	0400                	addi	s0,sp,512
     7a0:	0292                	slli	t0,t0,0x4
     7a2:	2b10                	fld	fa2,16(a4)
     7a4:	0008                	0x8
     7a6:	8800                	0x8800
     7a8:	00004e17          	auipc	t3,0x4
     7ac:	0400                	addi	s0,sp,512
     7ae:	330f0293          	addi	t0,t5,816 # 7ca76 <__stack_size+0x7c676>
     7b2:	0000                	unimp
     7b4:	a000                	fsd	fs0,0(s0)
     7b6:	0001c717          	auipc	a4,0x1c
     7ba:	0400                	addi	s0,sp,512
     7bc:	0294                	addi	a3,sp,320
     7be:	f916                	fsw	ft5,176(sp)
     7c0:	0000                	unimp
     7c2:	a400                	fsd	fs0,8(s0)
     7c4:	0000e117          	auipc	sp,0xe
     7c8:	0400                	addi	s0,sp,512
     7ca:	0295                	addi	t0,t0,5
     7cc:	f916                	fsw	ft5,176(sp)
     7ce:	0000                	unimp
     7d0:	ac00                	fsd	fs0,24(s0)
     7d2:	0001b617          	auipc	a2,0x1b
     7d6:	0400                	addi	s0,sp,512
     7d8:	0296                	slli	t0,t0,0x5
     7da:	f916                	fsw	ft5,176(sp)
     7dc:	0000                	unimp
     7de:	b400                	fsd	fs0,40(s0)
     7e0:	00006117          	auipc	sp,0x6
     7e4:	0400                	addi	s0,sp,512
     7e6:	f9160297          	auipc	t0,0xf9160
     7ea:	0000                	unimp
     7ec:	bc00                	fsd	fs0,56(s0)
     7ee:	00008d17          	auipc	s10,0x8
     7f2:	0400                	addi	s0,sp,512
     7f4:	0298                	addi	a4,sp,320
     7f6:	f916                	fsw	ft5,176(sp)
     7f8:	0000                	unimp
     7fa:	c400                	sw	s0,8(s0)
     7fc:	0004c217          	auipc	tp,0x4c
     800:	0400                	addi	s0,sp,512
     802:	0299                	addi	t0,t0,6
     804:	3308                	fld	fa0,32(a4)
     806:	0000                	unimp
     808:	cc00                	sw	s0,24(s0)
     80a:	0800                	addi	s0,sp,16
     80c:	05bc                	addi	a5,sp,712
     80e:	0000                	unimp
     810:	0000081b          	0x81b
     814:	2c09                	jal	a26 <__stack_size+0x626>
     816:	0000                	unimp
     818:	1900                	addi	s0,sp,176
     81a:	0800                	addi	s0,sp,16
     81c:	05bc                	addi	a5,sp,712
     81e:	0000                	unimp
     820:	0000082b          	0x82b
     824:	2c09                	jal	a36 <__stack_size+0x636>
     826:	0000                	unimp
     828:	0700                	addi	s0,sp,896
     82a:	0800                	addi	s0,sp,16
     82c:	05bc                	addi	a5,sp,712
     82e:	0000                	unimp
     830:	0000083b          	0x83b
     834:	2c09                	jal	a46 <__stack_size+0x646>
     836:	0000                	unimp
     838:	1700                	addi	s0,sp,928
     83a:	1a00                	addi	s0,sp,304
     83c:	04f0                	addi	a2,sp,588
     83e:	029e                	slli	t0,t0,0x7
     840:	00086207          	0x86207
     844:	1700                	addi	s0,sp,928
     846:	00000337          	lui	t1,0x0
     84a:	a104                	fsd	fs1,0(a0)
     84c:	1b02                	slli	s6,s6,0x20
     84e:	0862                	slli	a6,a6,0x18
     850:	0000                	unimp
     852:	1700                	addi	s0,sp,928
     854:	025d                	addi	tp,tp,23
     856:	0000                	unimp
     858:	a204                	fsd	fs1,0(a2)
     85a:	1802                	slli	a6,a6,0x20
     85c:	0872                	slli	a6,a6,0x1c
     85e:	0000                	unimp
     860:	0078                	addi	a4,sp,12
     862:	fb08                	fsw	fa0,48(a4)
     864:	0002                	c.slli64	zero
     866:	7200                	flw	fs0,32(a2)
     868:	0008                	0x8
     86a:	0900                	addi	s0,sp,144
     86c:	002c                	addi	a1,sp,8
     86e:	0000                	unimp
     870:	001d                	c.nop	7
     872:	2c08                	fld	fa0,24(s0)
     874:	0000                	unimp
     876:	8200                	0x8200
     878:	0008                	0x8
     87a:	0900                	addi	s0,sp,144
     87c:	002c                	addi	a1,sp,8
     87e:	0000                	unimp
     880:	001d                	c.nop	7
     882:	8304f01b          	0x8304f01b
     886:	0302                	c.slli64	t1
     888:	000008a7          	0x8a7
     88c:	fe1c                	fsw	fa5,56(a2)
     88e:	0005                	c.nop	1
     890:	0400                	addi	s0,sp,512
     892:	029a                	slli	t0,t0,0x6
     894:	0006f60b          	0x6f60b
     898:	1c00                	addi	s0,sp,560
     89a:	0744                	addi	s1,sp,900
     89c:	0000                	unimp
     89e:	a304                	fsd	fs1,0(a4)
     8a0:	0b02                	c.slli64	s6
     8a2:	0000083b          	0x83b
     8a6:	0800                	addi	s0,sp,16
     8a8:	05bc                	addi	a5,sp,712
     8aa:	0000                	unimp
     8ac:	000008b7          	lui	a7,0x0
     8b0:	2c09                	jal	ac2 <__stack_size+0x6c2>
     8b2:	0000                	unimp
     8b4:	1800                	addi	s0,sp,48
     8b6:	1d00                	addi	s0,sp,688
     8b8:	00d6                	slli	ra,ra,0x15
     8ba:	0000                	unimp
     8bc:	08b7040f          	0x8b7040f
     8c0:	0000                	unimp
     8c2:	cd1e                	sw	t2,152(sp)
     8c4:	0008                	0x8
     8c6:	1400                	addi	s0,sp,544
     8c8:	0462                	slli	s0,s0,0x18
     8ca:	0000                	unimp
     8cc:	0f00                	addi	s0,sp,912
     8ce:	c204                	sw	s1,0(a2)
     8d0:	0008                	0x8
     8d2:	0f00                	addi	s0,sp,912
     8d4:	8504                	0x8504
     8d6:	0001                	nop
     8d8:	1e00                	addi	s0,sp,816
     8da:	08e4                	addi	s1,sp,92
     8dc:	0000                	unimp
     8de:	3314                	fld	fa3,32(a4)
     8e0:	0000                	unimp
     8e2:	0000                	unimp
     8e4:	08ea040f          	0x8ea040f
     8e8:	0000                	unimp
     8ea:	08d9040f          	0x8d9040f
     8ee:	0000                	unimp
     8f0:	5b08                	lw	a0,48(a4)
     8f2:	0006                	c.slli	zero,0x1
     8f4:	0000                	unimp
     8f6:	0009                	c.nop	2
     8f8:	0900                	addi	s0,sp,144
     8fa:	002c                	addi	a1,sp,8
     8fc:	0000                	unimp
     8fe:	0002                	c.slli64	zero
     900:	df1f 0006 0400      	0x4000006df1f
     906:	62170333          	0x62170333
     90a:	0004                	0x4
     90c:	1f00                	addi	s0,sp,944
     90e:	06d8                	addi	a4,sp,836
     910:	0000                	unimp
     912:	3404                	fld	fs1,40(s0)
     914:	04681d03          	lh	s10,70(a6) # ffff9046 <__global_pointer+0x7fff183e>
     918:	0000                	unimp
     91a:	f208                	fsw	fa0,32(a2)
     91c:	0005                	c.nop	1
     91e:	2500                	fld	fs0,8(a0)
     920:	0009                	c.nop	2
     922:	2000                	fld	fs0,0(s0)
     924:	1500                	addi	s0,sp,672
     926:	091a                	slli	s2,s2,0x6
     928:	0000                	unimp
     92a:	a121                	j	d32 <__stack_size+0x932>
     92c:	0001                	nop
     92e:	0600                	addi	s0,sp,768
     930:	2414                	fld	fa3,8(s0)
     932:	0925                	addi	s2,s2,9
     934:	0000                	unimp
     936:	c321                	beqz	a4,976 <__stack_size+0x576>
     938:	0005                	c.nop	1
     93a:	0600                	addi	s0,sp,768
     93c:	1515                	addi	a0,a0,-27
     93e:	00000033          	add	zero,zero,zero
     942:	0948040f          	0x948040f
     946:	0000                	unimp
     948:	00003313          	sltiu	t1,zero,0
     94c:	5c00                	lw	s0,56(s0)
     94e:	0009                	c.nop	2
     950:	1400                	addi	s0,sp,544
     952:	095c                	addi	a5,sp,148
     954:	0000                	unimp
     956:	5c14                	lw	a3,56(s0)
     958:	0009                	c.nop	2
     95a:	0000                	unimp
     95c:	0962040f          	0x962040f
     960:	0000                	unimp
     962:	2122                	fld	ft2,8(sp)
     964:	0410                	addi	a2,sp,512
     966:	0000                	unimp
     968:	b60e6707          	0xb60e6707
     96c:	0005                	c.nop	1
     96e:	2100                	fld	fs0,0(a0)
     970:	033e                	slli	t1,t1,0xf
     972:	0000                	unimp
     974:	1008                	addi	a0,sp,32
     976:	00097b0f          	0x97b0f
     97a:	0f00                	addi	s0,sp,912
     97c:	b604                	fsd	fs1,40(a2)
     97e:	0005                	c.nop	1
     980:	2100                	fld	fs0,0(a0)
     982:	00000413          	li	s0,0
     986:	fc08                	fsw	fa0,56(s0)
     988:	b60e                	fsd	ft3,296(sp)
     98a:	0005                	c.nop	1
     98c:	2100                	fld	fs0,0(a0)
     98e:	00b1                	addi	ra,ra,12
     990:	0000                	unimp
     992:	fd08                	fsw	fa0,56(a0)
     994:	330c                	fld	fa1,32(a4)
     996:	0000                	unimp
     998:	2100                	fld	fs0,0(a0)
     99a:	0675                	addi	a2,a2,29
     99c:	0000                	unimp
     99e:	fd08                	fsw	fa0,56(a0)
     9a0:	3314                	fld	fa3,32(a4)
     9a2:	0000                	unimp
     9a4:	2100                	fld	fs0,0(a0)
     9a6:	0788                	addi	a0,sp,960
     9a8:	0000                	unimp
     9aa:	fd08                	fsw	fa0,56(a0)
     9ac:	331c                	fld	fa5,32(a4)
     9ae:	0000                	unimp
     9b0:	2100                	fld	fs0,0(a0)
     9b2:	037d                	addi	t1,t1,31
     9b4:	0000                	unimp
     9b6:	ff08                	fsw	fa0,56(a4)
     9b8:	330c                	fld	fa1,32(a4)
     9ba:	0000                	unimp
     9bc:	2100                	fld	fs0,0(a0)
     9be:	0440                	addi	s0,sp,516
     9c0:	0000                	unimp
     9c2:	9a09                	andi	a2,a2,-30
     9c4:	6416                	flw	fs0,68(sp)
     9c6:	0000                	unimp
     9c8:	2100                	fld	fs0,0(a0)
     9ca:	0035                	c.nop	13
     9cc:	0000                	unimp
     9ce:	9b09                	andi	a4,a4,-30
     9d0:	3315                	jal	6f4 <__stack_size+0x2f4>
     9d2:	0000                	unimp
     9d4:	0800                	addi	s0,sp,16
     9d6:	05b6                	slli	a1,a1,0xd
     9d8:	0000                	unimp
     9da:	09e5                	addi	s3,s3,25
     9dc:	0000                	unimp
     9de:	2c09                	jal	bf0 <__stack_size+0x7f0>
     9e0:	0000                	unimp
     9e2:	0100                	addi	s0,sp,128
     9e4:	2100                	fld	fs0,0(a0)
     9e6:	00f0                	addi	a2,sp,76
     9e8:	0000                	unimp
     9ea:	9e09                	0x9e09
     9ec:	0009d517          	auipc	a0,0x9d
     9f0:	0500                	addi	s0,sp,640
     9f2:	02b1                	addi	t0,t0,12
     9f4:	0000                	unimp
     9f6:	2a0a                	fld	fs4,128(sp)
     9f8:	2c16                	fld	fs8,320(sp)
     9fa:	0000                	unimp
     9fc:	0500                	addi	s0,sp,640
     9fe:	05b1                	addi	a1,a1,12
     a00:	0000                	unimp
     a02:	2f0a                	fld	ft10,128(sp)
     a04:	0915                	addi	s2,s2,5
     a06:	000a                	c.slli	zero,0x2
     a08:	0f00                	addi	s0,sp,912
     a0a:	0f04                	addi	s1,sp,912
     a0c:	000a                	c.slli	zero,0x2
     a0e:	1300                	addi	s0,sp,416
     a10:	09f1                	addi	s3,s3,28
     a12:	0000                	unimp
     a14:	0a1e                	slli	s4,s4,0x7
     a16:	0000                	unimp
     a18:	5c14                	lw	a3,56(s0)
     a1a:	0009                	c.nop	2
     a1c:	0000                	unimp
     a1e:	da05                	beqz	a2,94e <__stack_size+0x54e>
     a20:	0a000007          	0xa000007
     a24:	0f36                	slli	t5,t5,0xd
     a26:	0942                	slli	s2,s2,0x10
     a28:	0000                	unimp
     a2a:	0a21                	addi	s4,s4,8
     a2c:	0000                	unimp
     a2e:	0a00                	addi	s0,sp,272
     a30:	09fd12bb          	0x9fd12bb
     a34:	0000                	unimp
     a36:	c321                	beqz	a4,a76 <__stack_size+0x676>
     a38:	0006                	c.slli	zero,0x1
     a3a:	0a00                	addi	s0,sp,272
     a3c:	10be                	slli	ra,ra,0x2f
     a3e:	0a1e                	slli	s4,s4,0x7
     a40:	0000                	unimp
     a42:	00028423          	sb	zero,8(t0) # f91607ee <__global_pointer+0x79158fe6>
     a46:	0700                	addi	s0,sp,896
     a48:	2c04                	fld	fs1,24(s0)
     a4a:	0000                	unimp
     a4c:	0b00                	addi	s0,sp,400
     a4e:	0618                	addi	a4,sp,768
     a50:	0a7f                	0xa7f
     a52:	0000                	unimp
     a54:	9d24                	0x9d24
     a56:	0004                	0x4
     a58:	0000                	unimp
     a5a:	5824                	lw	s1,112(s0)
     a5c:	01000003          	lb	zero,16(zero) # 10 <__stack_usage+0x10>
     a60:	d824                	sw	s1,112(s0)
     a62:	02000003          	lb	zero,32(zero) # 20 <__stack_usage+0x20>
     a66:	ac24                	fsd	fs1,88(s0)
     a68:	03000003          	lb	zero,48(zero) # 30 <__stack_usage+0x30>
     a6c:	9424                	0x9424
     a6e:	0004                	0x4
     a70:	0400                	addi	s0,sp,512
     a72:	8f24                	0x8f24
     a74:	05000007          	0x5000007
     a78:	7e24                	flw	fs1,120(a2)
     a7a:	06000007          	0x6000007
     a7e:	2100                	fld	fs0,0(a0)
     a80:	00cc                	addi	a1,sp,68
     a82:	0000                	unimp
     a84:	421c210b          	0x421c210b
     a88:	000a                	c.slli	zero,0x2
     a8a:	2300                	fld	fs0,0(a4)
     a8c:	000003b7          	lui	t2,0x0
     a90:	002c0407          	0x2c0407
     a94:	0000                	unimp
     a96:	b006230b          	0xb006230b
     a9a:	000a                	c.slli	zero,0x2
     a9c:	2400                	fld	fs0,8(s0)
     a9e:	000005a7          	0x5a7
     aa2:	2400                	fld	fs0,8(s0)
     aa4:	000004b3          	add	s1,zero,zero
     aa8:	2401                	jal	ca8 <__stack_size+0x8a8>
     aaa:	0698                	addi	a4,sp,832
     aac:	0000                	unimp
     aae:	0002                	c.slli64	zero
     ab0:	4f21                	li	t5,8
     ab2:	0001                	nop
     ab4:	0b00                	addi	s0,sp,400
     ab6:	1e28                	addi	a0,sp,824
     ab8:	00000a8b          	0xa8b
     abc:	00007023          	0x7023
     ac0:	0700                	addi	s0,sp,896
     ac2:	2c04                	fld	fs1,24(s0)
     ac4:	0000                	unimp
     ac6:	0b00                	addi	s0,sp,400
     ac8:	0adb062b          	0xadb062b
     acc:	0000                	unimp
     ace:	4124                	lw	s1,64(a0)
     ad0:	0006                	c.slli	zero,0x1
     ad2:	0000                	unimp
     ad4:	2f24                	fld	fs1,88(a4)
     ad6:	0006                	c.slli	zero,0x1
     ad8:	0100                	addi	s0,sp,128
     ada:	2100                	fld	fs0,0(a0)
     adc:	0189                	addi	gp,gp,2
     ade:	0000                	unimp
     ae0:	bc2a2f0b          	0xbc2a2f0b
     ae4:	000a                	c.slli	zero,0x2
     ae6:	2100                	fld	fs0,0(a0)
     ae8:	036e                	slli	t1,t1,0x1b
     aea:	0000                	unimp
     aec:	290c                	fld	fa1,16(a0)
     aee:	251a                	fld	fa0,384(sp)
     af0:	0009                	c.nop	2
     af2:	2100                	fld	fs0,0(a0)
     af4:	065f 0000 380c      	0x380c0000065f
     afa:	251a                	fld	fa0,384(sp)
     afc:	0009                	c.nop	2
     afe:	0500                	addi	s0,sp,640
     b00:	07b6                	slli	a5,a5,0xd
     b02:	0000                	unimp
     b04:	7b0d                	lui	s6,0xfffe3
     b06:	4f16                	lw	t5,68(sp)
     b08:	0000                	unimp
     b0a:	1500                	addi	s0,sp,672
     b0c:	0aff                	0xaff
     b0e:	0000                	unimp
     b10:	8205                	srli	a2,a2,0x1
     b12:	0001                	nop
     b14:	0d00                	addi	s0,sp,656
     b16:	0f80                	addi	s0,sp,976
     b18:	00000033          	add	zero,zero,zero
     b1c:	8105                	srli	a0,a0,0x1
     b1e:	0001                	nop
     b20:	0d00                	addi	s0,sp,656
     b22:	1681                	addi	a3,a3,-32
     b24:	002c                	addi	a1,sp,8
     b26:	0000                	unimp
     b28:	ec05                	bnez	s0,b60 <__stack_size+0x760>
     b2a:	0006                	c.slli	zero,0x1
     b2c:	0d00                	addi	s0,sp,656
     b2e:	0f84                	addi	s1,sp,976
     b30:	003a                	c.slli	zero,0xe
     b32:	0000                	unimp
     b34:	eb05                	bnez	a4,b64 <__stack_size+0x764>
     b36:	0006                	c.slli	zero,0x1
     b38:	0d00                	addi	s0,sp,656
     b3a:	1685                	addi	a3,a3,-31
     b3c:	0025                	c.nop	9
     b3e:	0000                	unimp
     b40:	0402                	c.slli64	s0
     b42:	eb04                	fsw	fs1,16(a4)
     b44:	02000003          	lb	zero,32(zero) # 20 <__stack_usage+0x20>
     b48:	0308                	addi	a0,sp,384
     b4a:	000003e3          	beqz	zero,1350 <__stack_size+0xf50>
     b4e:	0802                	c.slli64	a6
     b50:	c504                	sw	s1,8(a0)
     b52:	0000                	unimp
     b54:	0200                	addi	s0,sp,256
     b56:	0310                	addi	a2,sp,384
     b58:	0000003f b8032002 	0xb80320020000003f
     b60:	0000                	unimp
     b62:	1900                	addi	s0,sp,176
     b64:	02e1                	addi	t0,t0,24
     b66:	0000                	unimp
     b68:	0d08                	addi	a0,sp,656
     b6a:	01ed                	addi	gp,gp,27
     b6c:	8e0a                	mv	t3,sp
     b6e:	2500000b          	0x2500000b
     b72:	6f6c                	flw	fa1,92(a4)
     b74:	ed0d0077          	0xed0d0077
     b78:	1a01                	addi	s4,s4,-32
     b7a:	0b10                	addi	a2,sp,400
     b7c:	0000                	unimp
     b7e:	1700                	addi	s0,sp,928
     b80:	067c                	addi	a5,sp,780
     b82:	0000                	unimp
     b84:	ed0d                	bnez	a0,bbe <__stack_size+0x7be>
     b86:	1f01                	addi	t5,t5,-32
     b88:	0b10                	addi	a2,sp,400
     b8a:	0000                	unimp
     b8c:	0004                	0x4
     b8e:	f40d081b          	0xf40d081b
     b92:	0901                	addi	s2,s2,0
     b94:	0bb0                	addi	a2,sp,472
     b96:	0000                	unimp
     b98:	7326                	flw	ft6,104(sp)
     b9a:	0d00                	addi	s0,sp,656
     b9c:	01f6                	slli	gp,gp,0x1d
     b9e:	000b6313          	ori	t1,s6,0
     ba2:	2600                	fld	fs0,8(a2)
     ba4:	6c6c                	flw	fa1,92(s0)
     ba6:	0d00                	addi	s0,sp,656
     ba8:	280a01f7          	0x280a01f7
     bac:	0000000b          	0xb
     bb0:	bb04                	fsd	fs1,48(a4)
     bb2:	0002                	c.slli64	zero
     bb4:	0d00                	addi	s0,sp,656
     bb6:	01f8                	addi	a4,sp,204
     bb8:	000b8e03          	lb	t3,0(s7) # c000 <__stack_size+0xbc00>
     bbc:	1500                	addi	s0,sp,672
     bbe:	0bb0                	addi	a2,sp,472
     bc0:	0000                	unimp
     bc2:	0b08                	addi	a0,sp,400
     bc4:	d200000b          	0xd200000b
     bc8:	0900000b          	0x900000b
     bcc:	002c                	addi	a1,sp,8
     bce:	0000                	unimp
     bd0:	00ff                	0xff
     bd2:	c215                	beqz	a2,bf6 <__stack_size+0x7f6>
     bd4:	1f00000b          	0x1f00000b
     bd8:	0000072f          	0x72f
     bdc:	fc0d                	bnez	s0,b16 <__stack_size+0x716>
     bde:	1601                	addi	a2,a2,-32
     be0:	0bd2                	slli	s7,s7,0x14
     be2:	0000                	unimp
     be4:	fd1f 0002 0d00      	0xd000002fd1f
     bea:	0202                	c.slli64	tp
     bec:	d216                	sw	t0,36(sp)
     bee:	2700000b          	0x2700000b
     bf2:	0649                	addi	a2,a2,18
     bf4:	0000                	unimp
     bf6:	cf01                	beqz	a4,c0e <__stack_size+0x80e>
     bf8:	0104                	addi	s1,sp,128
     bfa:	0b28                	addi	a0,sp,408
	...
     c04:	0000                	unimp
     c06:	9c01                	0x9c01
     c08:	00000f03          	lb	t5,0(zero) # 0 <__stack_usage>
     c0c:	7528                	flw	fa0,104(a0)
     c0e:	0100                	addi	s0,sp,128
     c10:	281204cf          	fnmadd.s	fs1,ft4,ft1,ft5,rne
     c14:	0000000b          	0xb
     c18:	0000                	unimp
     c1a:	2800                	fld	fs0,16(s0)
     c1c:	0076                	c.slli	zero,0x1d
     c1e:	cf01                	beqz	a4,c36 <__stack_size+0x836>
     c20:	1c04                	addi	s1,sp,560
     c22:	0b28                	addi	a0,sp,408
     c24:	0000                	unimp
     c26:	00c8                	addi	a0,sp,68
     c28:	0000                	unimp
     c2a:	6329                	lui	t1,0xa
     c2c:	0100                	addi	s0,sp,128
     c2e:	04d1                	addi	s1,s1,20
     c30:	1009                	c.nop	-30
     c32:	f000000b          	0xf000000b
     c36:	0000                	unimp
     c38:	2900                	fld	fs0,16(a0)
     c3a:	7575                	lui	a0,0xffffd
     c3c:	0100                	addi	s0,sp,128
     c3e:	04d2                	slli	s1,s1,0x14
     c40:	000bb00b          	0xbb00b
     c44:	1c00                	addi	s0,sp,560
     c46:	0001                	nop
     c48:	2900                	fld	fs0,16(a0)
     c4a:	7676                	flw	fa2,124(sp)
     c4c:	0100                	addi	s0,sp,128
     c4e:	b00b04d3          	0xb00b04d3
     c52:	3400000b          	0x3400000b
     c56:	0001                	nop
     c58:	2900                	fld	fs0,16(a0)
     c5a:	d4010077          	0xd4010077
     c5e:	0a04                	addi	s1,sp,272
     c60:	0b28                	addi	a0,sp,408
     c62:	0000                	unimp
     c64:	014c                	addi	a1,sp,132
     c66:	0000                	unimp
     c68:	032a                	slli	t1,t1,0xa
     c6a:	0000000f          	fence	unknown,unknown
     c6e:	0000                	unimp
     c70:	0000                	unimp
     c72:	0000                	unimp
     c74:	0100                	addi	s0,sp,128
     c76:	04dd                	addi	s1,s1,23
     c78:	0f2b2b07          	flw	fs6,242(s6) # fffe30f2 <__global_pointer+0x7ffdb8ea>
     c7c:	0000                	unimp
     c7e:	0164                	addi	s1,sp,140
     c80:	0000                	unimp
     c82:	202c                	fld	fa1,64(s0)
     c84:	2c00000f          	0x2c00000f
     c88:	0f15                	addi	t5,t5,5
     c8a:	0000                	unimp
     c8c:	002d                	c.nop	11
     c8e:	0000                	unimp
     c90:	2e00                	fld	fs0,24(a2)
     c92:	00000f37          	lui	t5,0x0
     c96:	432e                	lw	t1,200(sp)
     c98:	2e00000f          	0x2e00000f
     c9c:	00000f4f          	fnmadd.s	ft10,ft0,ft0,ft0,rne
     ca0:	000f5b2f          	0xf5b2f
     ca4:	8400                	0x8400
     ca6:	0001                	nop
     ca8:	2f00                	fld	fs0,24(a4)
     caa:	00000f67          	jalr	t5,zero # 0 <__stack_usage>
     cae:	022a                	slli	tp,tp,0xa
     cb0:	0000                	unimp
     cb2:	000f732f          	0xf732f
     cb6:	3d00                	fld	fs0,56(a0)
     cb8:	0002                	c.slli64	zero
     cba:	2f00                	fld	fs0,24(a4)
     cbc:	0f7f                	0xf7f
     cbe:	0000                	unimp
     cc0:	02ad                	addi	t0,t0,11
     cc2:	0000                	unimp
     cc4:	000f8b2f          	0xf8b2f
     cc8:	f700                	fsw	fs0,40(a4)
     cca:	0002                	c.slli64	zero
     ccc:	2f00                	fld	fs0,24(a4)
     cce:	00000f97          	auipc	t6,0x0
     cd2:	0315                	addi	t1,t1,5
     cd4:	0000                	unimp
     cd6:	000fa32f          	amoadd.w	t1,zero,(t6)
     cda:	3e00                	fld	fs0,56(a2)
     cdc:	2f000003          	lb	zero,752(zero) # 2f0 <__stack_usage+0x2f0>
     ce0:	00000faf          	0xfaf
     ce4:	0368                	addi	a0,sp,396
     ce6:	0000                	unimp
     ce8:	000fba2f          	0xfba2f
     cec:	8600                	0x8600
     cee:	2e000003          	lb	zero,736(zero) # 2e0 <__stack_usage+0x2e0>
     cf2:	0fc6                	slli	t6,t6,0x11
     cf4:	0000                	unimp
     cf6:	d230                	sw	a2,96(a2)
     cf8:	2000000f          	0x2000000f
     cfc:	0000                	unimp
     cfe:	1600                	addi	s0,sp,800
     d00:	000d                	c.nop	3
     d02:	2f00                	fld	fs0,24(a4)
     d04:	00000fd7          	0xfd7
     d08:	03c5                	addi	t2,t2,17
     d0a:	0000                	unimp
     d0c:	000fe42f          	0xfe42f
     d10:	0100                	addi	s0,sp,128
     d12:	0004                	0x4
     d14:	0000                	unimp
     d16:	f231                	bnez	a2,c5a <__stack_size+0x85a>
     d18:	0000000f          	fence	unknown,unknown
     d1c:	0000                	unimp
     d1e:	0000                	unimp
     d20:	0000                	unimp
     d22:	6700                	flw	fs0,8(a4)
     d24:	000d                	c.nop	3
     d26:	2f00                	fld	fs0,24(a4)
     d28:	00000ff7          	0xff7
     d2c:	0414                	addi	a3,sp,512
     d2e:	0000                	unimp
     d30:	0010042f          	0x10042f
     d34:	3600                	fld	fs0,40(a2)
     d36:	0004                	0x4
     d38:	2f00                	fld	fs0,24(a4)
     d3a:	1011                	c.nop	-28
     d3c:	0000                	unimp
     d3e:	045a                	slli	s0,s0,0x16
     d40:	0000                	unimp
     d42:	00101e2f          	0x101e2f
     d46:	7800                	flw	fs0,48(s0)
     d48:	0004                	0x4
     d4a:	2f00                	fld	fs0,24(a4)
     d4c:	0000102b          	0x102b
     d50:	0496                	slli	s1,s1,0x5
     d52:	0000                	unimp
     d54:	0010382f          	0x10382f
     d58:	d100                	sw	s0,32(a0)
     d5a:	0004                	0x4
     d5c:	2f00                	fld	fs0,24(a4)
     d5e:	1045                	c.nop	-15
     d60:	0000                	unimp
     d62:	000004ef          	jal	s1,d62 <__stack_size+0x962>
     d66:	3000                	fld	fs0,32(s0)
     d68:	1168                	addi	a0,sp,172
     d6a:	0000                	unimp
     d6c:	0038                	addi	a4,sp,8
     d6e:	0000                	unimp
     d70:	0e26                	slli	t3,t3,0x9
     d72:	0000                	unimp
     d74:	0011692f          	0x11692f
     d78:	0d00                	addi	s0,sp,656
     d7a:	0005                	c.nop	1
     d7c:	2f00                	fld	fs0,24(a4)
     d7e:	1175                	addi	sp,sp,-3
     d80:	0000                	unimp
     d82:	0520                	addi	s0,sp,648
     d84:	0000                	unimp
     d86:	8130                	0x8130
     d88:	0011                	c.nop	4
     d8a:	5000                	lw	s0,32(s0)
     d8c:	0000                	unimp
     d8e:	d300                	sw	s0,32(a4)
     d90:	000d                	c.nop	3
     d92:	2f00                	fld	fs0,24(a4)
     d94:	1186                	slli	gp,gp,0x21
     d96:	0000                	unimp
     d98:	0561                	addi	a0,a0,24
     d9a:	0000                	unimp
     d9c:	0011932f          	0x11932f
     da0:	7400                	flw	fs0,40(s0)
     da2:	0005                	c.nop	1
     da4:	2f00                	fld	fs0,24(a4)
     da6:	11a0                	addi	s0,sp,232
     da8:	0000                	unimp
     daa:	0598                	addi	a4,sp,704
     dac:	0000                	unimp
     dae:	0011ad2f          	amoadd.w	s10,ra,(gp)
     db2:	b600                	fsd	fs0,40(a2)
     db4:	0005                	c.nop	1
     db6:	2f00                	fld	fs0,24(a4)
     db8:	11ba                	slli	gp,gp,0x2e
     dba:	0000                	unimp
     dbc:	05d4                	addi	a3,sp,708
     dbe:	0000                	unimp
     dc0:	0011c72f          	0x11c72f
     dc4:	0f00                	addi	s0,sp,912
     dc6:	0006                	c.slli	zero,0x1
     dc8:	2f00                	fld	fs0,24(a4)
     dca:	11d4                	addi	a3,sp,228
     dcc:	0000                	unimp
     dce:	0638                	addi	a4,sp,776
     dd0:	0000                	unimp
     dd2:	3200                	fld	fs0,32(a2)
     dd4:	11e2                	slli	gp,gp,0x38
     dd6:	0000                	unimp
     dd8:	0080                	addi	s0,sp,64
     dda:	0000                	unimp
     ddc:	0011e72f          	0x11e72f
     de0:	6600                	flw	fs0,8(a2)
     de2:	0006                	c.slli	zero,0x1
     de4:	2f00                	fld	fs0,24(a4)
     de6:	11f4                	addi	a3,sp,236
     de8:	0000                	unimp
     dea:	0679                	addi	a2,a2,30
     dec:	0000                	unimp
     dee:	0012012f          	0x12012f
     df2:	cc00                	sw	s0,24(s0)
     df4:	0006                	c.slli	zero,0x1
     df6:	2f00                	fld	fs0,24(a4)
     df8:	120e                	slli	tp,tp,0x23
     dfa:	0000                	unimp
     dfc:	06df 0000 1b2f      	0x1b2f000006df
     e02:	0012                	c.slli	zero,0x4
     e04:	f200                	fsw	fs0,32(a2)
     e06:	0006                	c.slli	zero,0x1
     e08:	2f00                	fld	fs0,24(a4)
     e0a:	1228                	addi	a0,sp,296
     e0c:	0000                	unimp
     e0e:	0745                	addi	a4,a4,17
     e10:	0000                	unimp
     e12:	0012352f          	0x12352f
     e16:	5800                	lw	s0,48(s0)
     e18:	2f000007          	0x2f000007
     e1c:	1242                	slli	tp,tp,0x30
     e1e:	0000                	unimp
     e20:	0789                	addi	a5,a5,2
     e22:	0000                	unimp
     e24:	0000                	unimp
     e26:	5330                	lw	a2,96(a4)
     e28:	0010                	0x10
     e2a:	b000                	fsd	fs0,32(s0)
     e2c:	0000                	unimp
     e2e:	4600                	lw	s0,8(a2)
     e30:	000e                	c.slli	zero,0x3
     e32:	2f00                	fld	fs0,24(a4)
     e34:	1058                	addi	a4,sp,36
     e36:	0000                	unimp
     e38:	079c                	addi	a5,sp,960
     e3a:	0000                	unimp
     e3c:	0010652f          	0x10652f
     e40:	d800                	sw	s0,48(s0)
     e42:	00000007          	0x7
     e46:	d431                	beqz	s0,d92 <__stack_size+0x992>
     e48:	0010                	0x10
	...
     e52:	9700                	0x9700
     e54:	000e                	c.slli	zero,0x3
     e56:	2f00                	fld	fs0,24(a4)
     e58:	10d9                	addi	ra,ra,-10
     e5a:	0000                	unimp
     e5c:	07f6                	slli	a5,a5,0x1d
     e5e:	0000                	unimp
     e60:	0010e62f          	0x10e62f
     e64:	1800                	addi	s0,sp,48
     e66:	0008                	0x8
     e68:	2f00                	fld	fs0,24(a4)
     e6a:	000010f3          	csrrw	ra,ustatus,zero
     e6e:	083c                	addi	a5,sp,24
     e70:	0000                	unimp
     e72:	0011002f          	0x11002f
     e76:	5a00                	lw	s0,48(a2)
     e78:	0008                	0x8
     e7a:	2f00                	fld	fs0,24(a4)
     e7c:	110d                	addi	sp,sp,-29
     e7e:	0000                	unimp
     e80:	0878                	addi	a4,sp,28
     e82:	0000                	unimp
     e84:	00111a2f          	0x111a2f
     e88:	a100                	fsd	fs0,0(a0)
     e8a:	0008                	0x8
     e8c:	2f00                	fld	fs0,24(a4)
     e8e:	00001127          	0x1127
     e92:	000008bf 10733000 	0x10733000000008bf
     e9a:	0000                	unimp
     e9c:	00c8                	addi	a0,sp,68
     e9e:	0000                	unimp
     ea0:	0ee4                	addi	s1,sp,860
     ea2:	0000                	unimp
     ea4:	0010782f          	0x10782f
     ea8:	dd00                	sw	s0,56(a0)
     eaa:	0008                	0x8
     eac:	2f00                	fld	fs0,24(a4)
     eae:	1085                	addi	ra,ra,-31
     eb0:	0000                	unimp
     eb2:	08f0                	addi	a2,sp,92
     eb4:	0000                	unimp
     eb6:	0010922f          	0x10922f
     eba:	1400                	addi	s0,sp,544
     ebc:	0009                	c.nop	2
     ebe:	2f00                	fld	fs0,24(a4)
     ec0:	109f 0000 0932      	0x9320000109f
     ec6:	0000                	unimp
     ec8:	0010ac2f          	amoadd.w	s8,ra,(ra)
     ecc:	5000                	lw	s0,32(s0)
     ece:	0009                	c.nop	2
     ed0:	2f00                	fld	fs0,24(a4)
     ed2:	10b9                	addi	ra,ra,-18
     ed4:	0000                	unimp
     ed6:	0984                	addi	s1,sp,208
     ed8:	0000                	unimp
     eda:	0010c62f          	0x10c62f
     ede:	ad00                	fsd	fs0,24(a0)
     ee0:	0009                	c.nop	2
     ee2:	0000                	unimp
     ee4:	3532                	fld	fa0,296(sp)
     ee6:	0011                	c.nop	4
     ee8:	e000                	fsw	fs0,0(s0)
     eea:	0000                	unimp
     eec:	2f00                	fld	fs0,24(a4)
     eee:	113a                	slli	sp,sp,0x2e
     ef0:	0000                	unimp
     ef2:	000009db          	0x9db
     ef6:	0011472f          	0x11472f
     efa:	f900                	fsw	fs0,48(a0)
     efc:	0009                	c.nop	2
     efe:	0000                	unimp
     f00:	0000                	unimp
     f02:	3300                	fld	fs0,32(a4)
     f04:	0652                	slli	a2,a2,0x14
     f06:	0000                	unimp
     f08:	f701                	bnez	a4,e10 <__stack_size+0xa10>
     f0a:	0b340103          	lb	sp,179(s0) # 7d729 <__stack_size+0x7d329>
     f0e:	0000                	unimp
     f10:	00127403          	0x127403
     f14:	3400                	fld	fs0,40(s0)
     f16:	006e                	c.slli	zero,0x1b
     f18:	f701                	bnez	a4,e20 <__stack_size+0xa20>
     f1a:	0b341703          	lh	a4,179(s0)
     f1e:	0000                	unimp
     f20:	6434                	flw	fa3,72(s0)
     f22:	0100                	addi	s0,sp,128
     f24:	342203f7          	0x342203f7
     f28:	3400000b          	0x3400000b
     f2c:	7072                	flw	ft0,60(sp)
     f2e:	0100                	addi	s0,sp,128
     f30:	742e03f7          	0x742e03f7
     f34:	0012                	c.slli	zero,0x4
     f36:	3500                	fld	fs0,40(a0)
     f38:	6e6e                	flw	ft8,216(sp)
     f3a:	0100                	addi	s0,sp,128
     f3c:	03f9                	addi	t2,t2,30
     f3e:	bd11                	j	d52 <__stack_size+0x952>
     f40:	3500000b          	0x3500000b
     f44:	6464                	flw	fs1,76(s0)
     f46:	0100                	addi	s0,sp,128
     f48:	03fa                	slli	t2,t2,0x1e
     f4a:	bd11                	j	d5e <__stack_size+0x95e>
     f4c:	3500000b          	0x3500000b
     f50:	7272                	flw	ft4,60(sp)
     f52:	0100                	addi	s0,sp,128
     f54:	b00b03fb          	0xb00b03fb
     f58:	3500000b          	0x3500000b
     f5c:	3064                	fld	fs1,224(s0)
     f5e:	0100                	addi	s0,sp,128
     f60:	03fc                	addi	a5,sp,460
     f62:	1c0a                	slli	s8,s8,0x22
     f64:	3500000b          	0x3500000b
     f68:	3164                	fld	fs1,224(a0)
     f6a:	0100                	addi	s0,sp,128
     f6c:	03fc                	addi	a5,sp,460
     f6e:	1c0e                	slli	s8,s8,0x23
     f70:	3500000b          	0x3500000b
     f74:	306e                	fld	ft0,248(sp)
     f76:	0100                	addi	s0,sp,128
     f78:	03fc                	addi	a5,sp,460
     f7a:	1c12                	slli	s8,s8,0x24
     f7c:	3500000b          	0x3500000b
     f80:	316e                	fld	ft2,248(sp)
     f82:	0100                	addi	s0,sp,128
     f84:	03fc                	addi	a5,sp,460
     f86:	1c16                	slli	s8,s8,0x25
     f88:	3500000b          	0x3500000b
     f8c:	326e                	fld	ft4,248(sp)
     f8e:	0100                	addi	s0,sp,128
     f90:	03fc                	addi	a5,sp,460
     f92:	1c1a                	slli	s8,s8,0x26
     f94:	3500000b          	0x3500000b
     f98:	3071                	jal	824 <__stack_size+0x424>
     f9a:	0100                	addi	s0,sp,128
     f9c:	03fd                	addi	t2,t2,31
     f9e:	1c0a                	slli	s8,s8,0x22
     fa0:	3500000b          	0x3500000b
     fa4:	3171                	jal	c30 <__stack_size+0x830>
     fa6:	0100                	addi	s0,sp,128
     fa8:	03fd                	addi	t2,t2,31
     faa:	1c0e                	slli	s8,s8,0x23
     fac:	3500000b          	0x3500000b
     fb0:	0062                	c.slli	zero,0x18
     fb2:	fe01                	bnez	a2,eca <__stack_size+0xaca>
     fb4:	0b1c0a03          	lb	s4,177(s8) # 317cd <__stack_size+0x313cd>
     fb8:	0000                	unimp
     fba:	6235                	lui	tp,0xd
     fbc:	006d                	c.nop	27
     fbe:	fe01                	bnez	a2,ed6 <__stack_size+0xad6>
     fc0:	0b1c0d03          	lb	s10,177(s8)
     fc4:	0000                	unimp
     fc6:	7735                	lui	a4,0xfffed
     fc8:	c7010077          	0xc7010077
     fcc:	1104                	addi	s1,sp,160
     fce:	0bbd                	addi	s7,s7,15
     fd0:	0000                	unimp
     fd2:	f236                	fsw	fa3,36(sp)
     fd4:	3700000f          	0x3700000f
     fd8:	000006d3          	fadd.s	fa3,ft0,ft0,rne
     fdc:	2e01                	jal	12ec <__stack_size+0xeec>
     fde:	0404                	addi	s1,sp,512
     fe0:	0b1c                	addi	a5,sp,400
     fe2:	0000                	unimp
     fe4:	5f35                	li	t5,-19
     fe6:	615f 0100 042e      	0x42e0100615f
     fec:	1c04                	addi	s1,sp,560
     fee:	0000000b          	0xb
     ff2:	5336                	lw	t1,108(sp)
     ff4:	0010                	0x10
     ff6:	3700                	fld	fs0,40(a4)
     ff8:	000000a3          	sb	zero,1(zero) # 1 <__stack_usage+0x1>
     ffc:	3a01                	jal	90c <__stack_size+0x50c>
     ffe:	0404                	addi	s1,sp,512
    1000:	0b1c                	addi	a5,sp,400
    1002:	0000                	unimp
    1004:	00009e37          	lui	t3,0x9
    1008:	0100                	addi	s0,sp,128
    100a:	043a                	slli	s0,s0,0xe
    100c:	1c04                	addi	s1,sp,560
    100e:	3700000b          	0x3700000b
    1012:	0686                	slli	a3,a3,0x1
    1014:	0000                	unimp
    1016:	3a01                	jal	926 <__stack_size+0x526>
    1018:	0404                	addi	s1,sp,512
    101a:	0b1c                	addi	a5,sp,400
    101c:	0000                	unimp
    101e:	00068137          	lui	sp,0x68
    1022:	0100                	addi	s0,sp,128
    1024:	043a                	slli	s0,s0,0xe
    1026:	1c04                	addi	s1,sp,560
    1028:	3700000b          	0x3700000b
    102c:	0751                	addi	a4,a4,20
    102e:	0000                	unimp
    1030:	3a01                	jal	940 <__stack_size+0x540>
    1032:	0404                	addi	s1,sp,512
    1034:	0b1c                	addi	a5,sp,400
    1036:	0000                	unimp
    1038:	00074c37          	lui	s8,0x74
    103c:	0100                	addi	s0,sp,128
    103e:	043a                	slli	s0,s0,0xe
    1040:	1c04                	addi	s1,sp,560
    1042:	3500000b          	0x3500000b
    1046:	5f5f 006d 3a01      	0x3a01006d5f5f
    104c:	0404                	addi	s1,sp,512
    104e:	0b1c                	addi	a5,sp,400
    1050:	0000                	unimp
    1052:	3600                	fld	fs0,40(a2)
    1054:	00001073          	csrw	ustatus,zero
    1058:	0006d337          	lui	t1,0x6d
    105c:	0100                	addi	s0,sp,128
    105e:	0446                	slli	s0,s0,0x11
    1060:	1c04                	addi	s1,sp,560
    1062:	3500000b          	0x3500000b
    1066:	5f5f 0061 4601      	0x460100615f5f
    106c:	0404                	addi	s1,sp,512
    106e:	0b1c                	addi	a5,sp,400
    1070:	0000                	unimp
    1072:	3600                	fld	fs0,40(a2)
    1074:	10d4                	addi	a3,sp,100
    1076:	0000                	unimp
    1078:	0000a337          	lui	t1,0xa
    107c:	0100                	addi	s0,sp,128
    107e:	045f 1c08 000b      	0xb1c08045f
    1084:	3700                	fld	fs0,40(a4)
    1086:	009e                	slli	ra,ra,0x7
    1088:	0000                	unimp
    108a:	5f01                	li	t5,-32
    108c:	0804                	addi	s1,sp,16
    108e:	0b1c                	addi	a5,sp,400
    1090:	0000                	unimp
    1092:	00068637          	lui	a2,0x68
    1096:	0100                	addi	s0,sp,128
    1098:	045f 1c08 000b      	0xb1c08045f
    109e:	3700                	fld	fs0,40(a4)
    10a0:	0681                	addi	a3,a3,0
    10a2:	0000                	unimp
    10a4:	5f01                	li	t5,-32
    10a6:	0804                	addi	s1,sp,16
    10a8:	0b1c                	addi	a5,sp,400
    10aa:	0000                	unimp
    10ac:	00075137          	lui	sp,0x75
    10b0:	0100                	addi	s0,sp,128
    10b2:	045f 1c08 000b      	0xb1c08045f
    10b8:	3700                	fld	fs0,40(a4)
    10ba:	074c                	addi	a1,sp,900
    10bc:	0000                	unimp
    10be:	5f01                	li	t5,-32
    10c0:	0804                	addi	s1,sp,16
    10c2:	0b1c                	addi	a5,sp,400
    10c4:	0000                	unimp
    10c6:	5f35                	li	t5,-19
    10c8:	6d5f 0100 045f      	0x45f01006d5f
    10ce:	1c08                	addi	a0,sp,560
    10d0:	0000000b          	0xb
    10d4:	3536                	fld	fa0,360(sp)
    10d6:	0011                	c.nop	4
    10d8:	3700                	fld	fs0,40(a4)
    10da:	000000a3          	sb	zero,1(zero) # 1 <__stack_usage+0x1>
    10de:	6401                	0x6401
    10e0:	0404                	addi	s1,sp,512
    10e2:	0b1c                	addi	a5,sp,400
    10e4:	0000                	unimp
    10e6:	00009e37          	lui	t3,0x9
    10ea:	0100                	addi	s0,sp,128
    10ec:	0464                	addi	s1,sp,524
    10ee:	1c04                	addi	s1,sp,560
    10f0:	3700000b          	0x3700000b
    10f4:	0686                	slli	a3,a3,0x1
    10f6:	0000                	unimp
    10f8:	6401                	0x6401
    10fa:	0404                	addi	s1,sp,512
    10fc:	0b1c                	addi	a5,sp,400
    10fe:	0000                	unimp
    1100:	00068137          	lui	sp,0x68
    1104:	0100                	addi	s0,sp,128
    1106:	0464                	addi	s1,sp,524
    1108:	1c04                	addi	s1,sp,560
    110a:	3700000b          	0x3700000b
    110e:	0751                	addi	a4,a4,20
    1110:	0000                	unimp
    1112:	6401                	0x6401
    1114:	0404                	addi	s1,sp,512
    1116:	0b1c                	addi	a5,sp,400
    1118:	0000                	unimp
    111a:	00074c37          	lui	s8,0x74
    111e:	0100                	addi	s0,sp,128
    1120:	0464                	addi	s1,sp,524
    1122:	1c04                	addi	s1,sp,560
    1124:	3500000b          	0x3500000b
    1128:	5f5f 006d 6401      	0x6401006d5f5f
    112e:	0404                	addi	s1,sp,512
    1130:	0b1c                	addi	a5,sp,400
    1132:	0000                	unimp
    1134:	3600                	fld	fs0,40(a2)
    1136:	1155                	addi	sp,sp,-11
    1138:	0000                	unimp
    113a:	0006d337          	lui	t1,0x6d
    113e:	0100                	addi	s0,sp,128
    1140:	1c040487          	0x1c040487
    1144:	3500000b          	0x3500000b
    1148:	5f5f 0061 8701      	0x870100615f5f
    114e:	0404                	addi	s1,sp,512
    1150:	0b1c                	addi	a5,sp,400
    1152:	0000                	unimp
    1154:	3600                	fld	fs0,40(a2)
    1156:	1168                	addi	a0,sp,172
    1158:	0000                	unimp
    115a:	5f35                	li	t5,-19
    115c:	785f 0100 0495      	0x4950100785f
    1162:	1c05                	addi	s8,s8,-31
    1164:	0000000b          	0xb
    1168:	3538                	fld	fa4,104(a0)
    116a:	316d                	jal	e14 <__stack_size+0xa14>
    116c:	0100                	addi	s0,sp,128
    116e:	04a5                	addi	s1,s1,9
    1170:	000b1c0f          	0xb1c0f
    1174:	3500                	fld	fs0,40(a0)
    1176:	306d                	jal	a20 <__stack_size+0x620>
    1178:	0100                	addi	s0,sp,128
    117a:	04a5                	addi	s1,s1,9
    117c:	000b1c13          	slli	s8,s6,0x0
    1180:	3600                	fld	fs0,40(a2)
    1182:	11e2                	slli	gp,gp,0x38
    1184:	0000                	unimp
    1186:	0000a337          	lui	t1,0xa
    118a:	0100                	addi	s0,sp,128
    118c:	04b0                	addi	a2,sp,584
    118e:	1c08                	addi	a0,sp,560
    1190:	3700000b          	0x3700000b
    1194:	009e                	slli	ra,ra,0x7
    1196:	0000                	unimp
    1198:	b001                	j	998 <__stack_size+0x598>
    119a:	0804                	addi	s1,sp,16
    119c:	0b1c                	addi	a5,sp,400
    119e:	0000                	unimp
    11a0:	00068637          	lui	a2,0x68
    11a4:	0100                	addi	s0,sp,128
    11a6:	04b0                	addi	a2,sp,584
    11a8:	1c08                	addi	a0,sp,560
    11aa:	3700000b          	0x3700000b
    11ae:	0681                	addi	a3,a3,0
    11b0:	0000                	unimp
    11b2:	b001                	j	9b2 <__stack_size+0x5b2>
    11b4:	0804                	addi	s1,sp,16
    11b6:	0b1c                	addi	a5,sp,400
    11b8:	0000                	unimp
    11ba:	00075137          	lui	sp,0x75
    11be:	0100                	addi	s0,sp,128
    11c0:	04b0                	addi	a2,sp,584
    11c2:	1c08                	addi	a0,sp,560
    11c4:	3700000b          	0x3700000b
    11c8:	074c                	addi	a1,sp,900
    11ca:	0000                	unimp
    11cc:	b001                	j	9cc <__stack_size+0x5cc>
    11ce:	0804                	addi	s1,sp,16
    11d0:	0b1c                	addi	a5,sp,400
    11d2:	0000                	unimp
    11d4:	5f35                	li	t5,-19
    11d6:	6d5f 0100 04b0      	0x4b001006d5f
    11dc:	1c08                	addi	a0,sp,560
    11de:	0000000b          	0xb
    11e2:	5036                	0x5036
    11e4:	0012                	c.slli	zero,0x4
    11e6:	3700                	fld	fs0,40(a4)
    11e8:	0605                	addi	a2,a2,1
    11ea:	0000                	unimp
    11ec:	b101                	j	dec <__stack_size+0x9ec>
    11ee:	0804                	addi	s1,sp,16
    11f0:	0b1c                	addi	a5,sp,400
    11f2:	0000                	unimp
    11f4:	00060a37          	lui	s4,0x60
    11f8:	0100                	addi	s0,sp,128
    11fa:	04b1                	addi	s1,s1,12
    11fc:	1c08                	addi	a0,sp,560
    11fe:	3700000b          	0x3700000b
    1202:	0000060f          	0x60f
    1206:	b101                	j	e06 <__stack_size+0xa06>
    1208:	0804                	addi	s1,sp,16
    120a:	0b1c                	addi	a5,sp,400
    120c:	0000                	unimp
    120e:	00061437          	lui	s0,0x61
    1212:	0100                	addi	s0,sp,128
    1214:	04b1                	addi	s1,s1,12
    1216:	1c08                	addi	a0,sp,560
    1218:	3700000b          	0x3700000b
    121c:	0369                	addi	t1,t1,26
    121e:	0000                	unimp
    1220:	b101                	j	e20 <__stack_size+0xa20>
    1222:	0804                	addi	s1,sp,16
    1224:	0b1c                	addi	a5,sp,400
    1226:	0000                	unimp
    1228:	00043137          	lui	sp,0x43
    122c:	0100                	addi	s0,sp,128
    122e:	04b1                	addi	s1,s1,12
    1230:	1c08                	addi	a0,sp,560
    1232:	3700000b          	0x3700000b
    1236:	00000353          	fadd.s	ft6,ft0,ft0,rne
    123a:	b101                	j	e3a <__stack_size+0xa3a>
    123c:	0804                	addi	s1,sp,16
    123e:	0b1c                	addi	a5,sp,400
    1240:	0000                	unimp
    1242:	00042c37          	lui	s8,0x42
    1246:	0100                	addi	s0,sp,128
    1248:	04b1                	addi	s1,s1,12
    124a:	1c08                	addi	a0,sp,560
    124c:	0000000b          	0xb
    1250:	6336                	flw	ft6,76(sp)
    1252:	0012                	c.slli	zero,0x4
    1254:	3500                	fld	fs0,40(a0)
    1256:	5f5f 0078 b601      	0xb60100785f5f
    125c:	0504                	addi	s1,sp,640
    125e:	0b1c                	addi	a5,sp,400
    1260:	0000                	unimp
    1262:	3800                	fld	fs0,48(s0)
    1264:	5f35                	li	t5,-19
    1266:	785f 0100 04be      	0x4be0100785f
    126c:	1c05                	addi	s8,s8,-31
    126e:	0000000b          	0xb
    1272:	0000                	unimp
    1274:	0b34040f          	0xb34040f
    1278:	0000                	unimp
    127a:	c800                	sw	s0,16(s0)
    127c:	0012                	c.slli	zero,0x4
    127e:	0400                	addi	s0,sp,512
    1280:	e400                	fsw	fs0,8(s0)
    1282:	0002                	c.slli64	zero
    1284:	0400                	addi	s0,sp,512
    1286:	e201                	bnez	a2,1286 <__stack_size+0xe86>
    1288:	0004                	0x4
    128a:	0c00                	addi	s0,sp,528
    128c:	046d                	addi	s0,s0,27
    128e:	0000                	unimp
    1290:	01d5                	addi	gp,gp,21
	...
    129a:	0000                	unimp
    129c:	09d2                	slli	s3,s3,0x14
    129e:	0000                	unimp
    12a0:	0402                	c.slli64	s0
    12a2:	0002d407          	0x2d407
    12a6:	0200                	addi	s0,sp,256
    12a8:	0708                	addi	a0,sp,896
    12aa:	02ca                	slli	t0,t0,0x12
    12ac:	0000                	unimp
    12ae:	69050403          	lb	s0,1680(a0) # ffffd690 <__global_pointer+0x7fff5e88>
    12b2:	746e                	flw	fs0,248(sp)
    12b4:	0200                	addi	s0,sp,256
    12b6:	0508                	addi	a0,sp,640
    12b8:	03f1                	addi	t2,t2,28
    12ba:	0000                	unimp
    12bc:	1002                	c.slli	zero,0x20
    12be:	c004                	sw	s1,0(s0)
    12c0:	0000                	unimp
    12c2:	0200                	addi	s0,sp,256
    12c4:	0601                	addi	a2,a2,0
    12c6:	06aa                	slli	a3,a3,0xa
    12c8:	0000                	unimp
    12ca:	0102                	c.slli64	sp
    12cc:	a808                	fsd	fa0,16(s0)
    12ce:	0006                	c.slli	zero,0x1
    12d0:	0200                	addi	s0,sp,256
    12d2:	0502                	c.slli64	a0
    12d4:	0000                	unimp
    12d6:	0000                	unimp
    12d8:	0202                	c.slli64	tp
    12da:	0002ea07          	0x2ea07
    12de:	0200                	addi	s0,sp,256
    12e0:	0504                	addi	s1,sp,640
    12e2:	03f6                	slli	t2,t2,0x1d
    12e4:	0000                	unimp
    12e6:	0402                	c.slli64	s0
    12e8:	0002cf07          	flq	ft10,0(t0)
    12ec:	0400                	addi	s0,sp,512
    12ee:	0346                	slli	t1,t1,0x11
    12f0:	0000                	unimp
    12f2:	5e02                	lw	t3,32(sp)
    12f4:	1701                	addi	a4,a4,-32
    12f6:	0025                	c.nop	9
    12f8:	0000                	unimp
    12fa:	2505                	jal	191a <__stack_size+0x151a>
    12fc:	0004                	0x4
    12fe:	0300                	addi	s0,sp,384
    1300:	0e2e                	slli	t3,t3,0xb
    1302:	0064                	addi	s1,sp,12
    1304:	0000                	unimp
    1306:	2705                	jal	1a26 <__stack_size+0x1626>
    1308:	0006                	c.slli	zero,0x1
    130a:	0300                	addi	s0,sp,384
    130c:	0e74                	addi	a3,sp,796
    130e:	0064                	addi	s1,sp,12
    1310:	0000                	unimp
    1312:	1205                	addi	tp,tp,-31
    1314:	03000007          	0x3000007
    1318:	00331793          	slli	a5,t1,0x3
    131c:	0000                	unimp
    131e:	0406                	slli	s0,s0,0x1
    1320:	c503a503          	lw	a0,-944(t2) # fffffc50 <__global_pointer+0x7fff8448>
    1324:	0000                	unimp
    1326:	0700                	addi	s0,sp,896
    1328:	0331                	addi	t1,t1,12
    132a:	0000                	unimp
    132c:	720ca703          	lw	a4,1824(s9)
    1330:	0000                	unimp
    1332:	0700                	addi	s0,sp,896
    1334:	029c                	addi	a5,sp,320
    1336:	0000                	unimp
    1338:	c513a803          	lw	a6,-943(t2)
    133c:	0000                	unimp
    133e:	0000                	unimp
    1340:	4f08                	lw	a0,24(a4)
    1342:	0000                	unimp
    1344:	d500                	sw	s0,40(a0)
    1346:	0000                	unimp
    1348:	0900                	addi	s0,sp,144
    134a:	0025                	c.nop	9
    134c:	0000                	unimp
    134e:	080a0003          	lb	zero,128(s4) # 60080 <__stack_size+0x5fc80>
    1352:	f909a203          	lw	tp,-112(s3)
    1356:	0000                	unimp
    1358:	0b00                	addi	s0,sp,400
    135a:	00000397          	auipc	t2,0x0
    135e:	3307a403          	lw	s0,816(a5)
    1362:	0000                	unimp
    1364:	0000                	unimp
    1366:	0006190b          	0x6190b
    136a:	0300                	addi	s0,sp,384
    136c:	05a9                	addi	a1,a1,10
    136e:	000000a3          	sb	zero,1(zero) # 1 <__stack_usage+0x1>
    1372:	0004                	0x4
    1374:	4a05                	li	s4,1
    1376:	0004                	0x4
    1378:	0300                	addi	s0,sp,384
    137a:	03aa                	slli	t2,t2,0xa
    137c:	00d5                	addi	ra,ra,21
    137e:	0000                	unimp
    1380:	040c                	addi	a1,sp,512
    1382:	bb05                	j	10b2 <__stack_size+0xcb2>
    1384:	0006                	c.slli	zero,0x1
    1386:	0400                	addi	s0,sp,512
    1388:	1916                	slli	s2,s2,0x25
    138a:	0000006b          	0x6b
    138e:	5505                	li	a0,-31
    1390:	0004                	0x4
    1392:	0500                	addi	s0,sp,640
    1394:	0d0c                	addi	a1,sp,656
    1396:	00000033          	add	zero,zero,zero
    139a:	cb05                	beqz	a4,13ca <__stack_size+0xfca>
    139c:	0004                	0x4
    139e:	0400                	addi	s0,sp,512
    13a0:	01131b23          	sh	a7,22(t1) # a016 <__stack_size+0x9c16>
    13a4:	0000                	unimp
    13a6:	d00d                	beqz	s0,12c8 <__stack_size+0xec8>
    13a8:	18000003          	lb	zero,384(zero) # 180 <__stack_usage+0x180>
    13ac:	3404                	fld	fs1,40(s0)
    13ae:	8508                	0x8508
    13b0:	0001                	nop
    13b2:	0b00                	addi	s0,sp,400
    13b4:	07d4                	addi	a3,sp,964
    13b6:	0000                	unimp
    13b8:	3604                	fld	fs1,40(a2)
    13ba:	00018513          	mv	a0,gp
    13be:	0000                	unimp
    13c0:	5f0e                	lw	t5,224(sp)
    13c2:	3704006b          	0x3704006b
    13c6:	00003307          	fld	ft6,0(zero) # 0 <__stack_usage>
    13ca:	0400                	addi	s0,sp,512
    13cc:	0005f60b          	0x5f60b
    13d0:	0400                	addi	s0,sp,512
    13d2:	00330b37          	lui	s6,0x330
    13d6:	0000                	unimp
    13d8:	0b08                	addi	a0,sp,400
    13da:	0240                	addi	s0,sp,260
    13dc:	0000                	unimp
    13de:	3704                	fld	fs1,40(a4)
    13e0:	3314                	fld	fa3,32(a4)
    13e2:	0000                	unimp
    13e4:	0c00                	addi	s0,sp,528
    13e6:	00016b0b          	0x16b0b
    13ea:	0400                	addi	s0,sp,512
    13ec:	00331b37          	lui	s6,0x331
    13f0:	0000                	unimp
    13f2:	0e10                	addi	a2,sp,784
    13f4:	785f 0400 0b38      	0xb380400785f
    13fa:	0000018b          	0x18b
    13fe:	0014                	0x14
    1400:	012b040f          	0x12b040f
    1404:	0000                	unimp
    1406:	0708                	addi	a0,sp,896
    1408:	0001                	nop
    140a:	9b00                	0x9b00
    140c:	0001                	nop
    140e:	0900                	addi	s0,sp,144
    1410:	0025                	c.nop	9
    1412:	0000                	unimp
    1414:	0000                	unimp
    1416:	7f0d                	lui	t5,0xfffe3
    1418:	0002                	c.slli64	zero
    141a:	2400                	fld	fs0,8(s0)
    141c:	3c04                	fld	fs1,56(s0)
    141e:	1e08                	addi	a0,sp,816
    1420:	0002                	c.slli64	zero
    1422:	0b00                	addi	s0,sp,400
    1424:	00f8                	addi	a4,sp,76
    1426:	0000                	unimp
    1428:	3e04                	fld	fs1,56(a2)
    142a:	3309                	jal	112c <__stack_size+0xd2c>
    142c:	0000                	unimp
    142e:	0000                	unimp
    1430:	0007700b          	0x7700b
    1434:	0400                	addi	s0,sp,512
    1436:	0033093f 0b040000 	0xb0400000033093f
    143e:	0114                	addi	a3,sp,128
    1440:	0000                	unimp
    1442:	4004                	lw	s1,0(s0)
    1444:	3309                	jal	1146 <__stack_size+0xd46>
    1446:	0000                	unimp
    1448:	0800                	addi	s0,sp,16
    144a:	0007c50b          	0x7c50b
    144e:	0400                	addi	s0,sp,512
    1450:	0941                	addi	s2,s2,16
    1452:	00000033          	add	zero,zero,zero
    1456:	0b0c                	addi	a1,sp,400
    1458:	03ff                	0x3ff
    145a:	0000                	unimp
    145c:	4204                	lw	s1,0(a2)
    145e:	3309                	jal	1160 <__stack_size+0xd60>
    1460:	0000                	unimp
    1462:	1000                	addi	s0,sp,32
    1464:	00038d0b          	0x38d0b
    1468:	0400                	addi	s0,sp,512
    146a:	00330943          	fmadd.s	fs2,ft6,ft3,ft0,rne
    146e:	0000                	unimp
    1470:	0b14                	addi	a3,sp,400
    1472:	000006fb          	0x6fb
    1476:	4404                	lw	s1,8(s0)
    1478:	3309                	jal	117a <__stack_size+0xd7a>
    147a:	0000                	unimp
    147c:	1800                	addi	s0,sp,48
    147e:	0007ac0b          	0x7ac0b
    1482:	0400                	addi	s0,sp,512
    1484:	0945                	addi	s2,s2,17
    1486:	00000033          	add	zero,zero,zero
    148a:	0b1c                	addi	a5,sp,400
    148c:	0756                	slli	a4,a4,0x15
    148e:	0000                	unimp
    1490:	4604                	lw	s1,8(a2)
    1492:	3309                	jal	1194 <__stack_size+0xd94>
    1494:	0000                	unimp
    1496:	2000                	fld	fs0,0(s0)
    1498:	1000                	addi	s0,sp,32
    149a:	0131                	addi	sp,sp,12
    149c:	0000                	unimp
    149e:	0108                	addi	a0,sp,128
    14a0:	4f04                	lw	s1,24(a4)
    14a2:	6308                	flw	fa0,0(a4)
    14a4:	0002                	c.slli64	zero
    14a6:	0b00                	addi	s0,sp,400
    14a8:	00000233          	add	tp,zero,zero
    14ac:	5004                	lw	s1,32(s0)
    14ae:	630a                	flw	ft6,128(sp)
    14b0:	0002                	c.slli64	zero
    14b2:	0000                	unimp
    14b4:	0004a70b          	0x4a70b
    14b8:	0400                	addi	s0,sp,512
    14ba:	0951                	addi	s2,s2,20
    14bc:	00000263          	beqz	zero,14c0 <__stack_size+0x10c0>
    14c0:	1180                	addi	s0,sp,224
    14c2:	069f 0000 5304      	0x53040000069f
    14c8:	070a                	slli	a4,a4,0x2
    14ca:	0001                	nop
    14cc:	0000                	unimp
    14ce:	1101                	addi	sp,sp,-32
    14d0:	00000163          	beqz	zero,14d2 <__stack_size+0x10d2>
    14d4:	5604                	lw	s1,40(a2)
    14d6:	070a                	slli	a4,a4,0x2
    14d8:	0001                	nop
    14da:	0400                	addi	s0,sp,512
    14dc:	0001                	nop
    14de:	0508                	addi	a0,sp,640
    14e0:	0001                	nop
    14e2:	7300                	flw	fs0,32(a4)
    14e4:	0002                	c.slli64	zero
    14e6:	0900                	addi	s0,sp,144
    14e8:	0025                	c.nop	9
    14ea:	0000                	unimp
    14ec:	001f 0810 0004      	0x40810001f
    14f2:	9000                	0x9000
    14f4:	0401                	addi	s0,s0,0
    14f6:	0862                	slli	a6,a6,0x18
    14f8:	02b6                	slli	t0,t0,0xd
    14fa:	0000                	unimp
    14fc:	0007d40b          	0x7d40b
    1500:	0400                	addi	s0,sp,512
    1502:	02b61263          	bne	a2,a1,1526 <__stack_size+0x1126>
    1506:	0000                	unimp
    1508:	0b00                	addi	s0,sp,400
    150a:	05df 0000 6404      	0x6404000005df
    1510:	3306                	fld	ft6,96(sp)
    1512:	0000                	unimp
    1514:	0400                	addi	s0,sp,512
    1516:	00023b0b          	0x23b0b
    151a:	0400                	addi	s0,sp,512
    151c:	0966                	slli	s2,s2,0x19
    151e:	02bc                	addi	a5,sp,328
    1520:	0000                	unimp
    1522:	0b08                	addi	a0,sp,400
    1524:	0131                	addi	sp,sp,12
    1526:	0000                	unimp
    1528:	6704                	flw	fs1,8(a4)
    152a:	1e1e                	slli	t3,t3,0x27
    152c:	0002                	c.slli64	zero
    152e:	8800                	0x8800
    1530:	0f00                	addi	s0,sp,912
    1532:	7304                	flw	fs1,32(a4)
    1534:	0002                	c.slli64	zero
    1536:	0800                	addi	s0,sp,16
    1538:	02cc                	addi	a1,sp,324
    153a:	0000                	unimp
    153c:	02cc                	addi	a1,sp,324
    153e:	0000                	unimp
    1540:	2509                	jal	1b42 <__stack_size+0x1742>
    1542:	0000                	unimp
    1544:	1f00                	addi	s0,sp,944
    1546:	0f00                	addi	s0,sp,912
    1548:	d204                	sw	s1,32(a2)
    154a:	0002                	c.slli64	zero
    154c:	1200                	addi	s0,sp,288
    154e:	be0d                	j	1080 <__stack_size+0xc80>
    1550:	08000007          	0x8000007
    1554:	7a04                	flw	fs1,48(a2)
    1556:	fb08                	fsw	fa0,48(a4)
    1558:	0002                	c.slli64	zero
    155a:	0b00                	addi	s0,sp,400
    155c:	010e                	slli	sp,sp,0x3
    155e:	0000                	unimp
    1560:	7b04                	flw	fs1,48(a4)
    1562:	fb11                	bnez	a4,1476 <__stack_size+0x1076>
    1564:	0002                	c.slli64	zero
    1566:	0000                	unimp
    1568:	00001c0b          	0x1c0b
    156c:	0400                	addi	s0,sp,512
    156e:	067c                	addi	a5,sp,780
    1570:	00000033          	add	zero,zero,zero
    1574:	0004                	0x4
    1576:	004f040f          	0x4f040f
    157a:	0000                	unimp
    157c:	bb0d                	j	12ae <__stack_size+0xeae>
    157e:	0005                	c.nop	1
    1580:	6800                	flw	fs0,16(s0)
    1582:	ba04                	fsd	fs1,48(a2)
    1584:	4408                	lw	a0,8(s0)
    1586:	0004                	0x4
    1588:	0e00                	addi	s0,sp,784
    158a:	705f 0400 12bb      	0x12bb0400705f
    1590:	000002fb          	0x2fb
    1594:	0e00                	addi	s0,sp,784
    1596:	725f 0400 07bc      	0x7bc0400725f
    159c:	00000033          	add	zero,zero,zero
    15a0:	0e04                	addi	s1,sp,784
    15a2:	775f 0400 07bd      	0x7bd0400775f
    15a8:	00000033          	add	zero,zero,zero
    15ac:	0b08                	addi	a0,sp,400
    15ae:	015c                	addi	a5,sp,132
    15b0:	0000                	unimp
    15b2:	be04                	fsd	fs1,56(a2)
    15b4:	5609                	li	a2,-30
    15b6:	0000                	unimp
    15b8:	0c00                	addi	s0,sp,528
    15ba:	0002ab0b          	0x2ab0b
    15be:	0400                	addi	s0,sp,512
    15c0:	005609bf 0e0e0000 	0xe0e0000005609bf
    15c8:	625f 0066 c004      	0xc0040066625f
    15ce:	d311                	beqz	a4,14d2 <__stack_size+0x10d2>
    15d0:	0002                	c.slli64	zero
    15d2:	1000                	addi	s0,sp,32
    15d4:	0000a80b          	0xa80b
    15d8:	0400                	addi	s0,sp,512
    15da:	07c1                	addi	a5,a5,16
    15dc:	00000033          	add	zero,zero,zero
    15e0:	0b18                	addi	a4,sp,400
    15e2:	0000013f 050ac804 	0x50ac8040000013f
    15ea:	0001                	nop
    15ec:	1c00                	addi	s0,sp,560
    15ee:	0004670b          	0x4670b
    15f2:	0400                	addi	s0,sp,512
    15f4:	1dca                	slli	s11,s11,0x32
    15f6:	05c8                	addi	a0,sp,708
    15f8:	0000                	unimp
    15fa:	0b20                	addi	s0,sp,408
    15fc:	0386                	slli	t2,t2,0x1
    15fe:	0000                	unimp
    1600:	cc04                	sw	s1,24(s0)
    1602:	f71d                	bnez	a4,1530 <__stack_size+0x1130>
    1604:	0005                	c.nop	1
    1606:	2400                	fld	fs0,8(s0)
    1608:	0006210b          	0x6210b
    160c:	0400                	addi	s0,sp,512
    160e:	061b0dcf          	fnmadd.q	fs11,fs6,ft1,ft0,rne
    1612:	0000                	unimp
    1614:	0b28                	addi	a0,sp,408
    1616:	0101                	addi	sp,sp,0
    1618:	0000                	unimp
    161a:	d004                	sw	s1,32(s0)
    161c:	3509                	jal	141e <__stack_size+0x101e>
    161e:	0006                	c.slli	zero,0x1
    1620:	2c00                	fld	fs0,24(s0)
    1622:	5f0e                	lw	t5,224(sp)
    1624:	6275                	lui	tp,0x1d
    1626:	0400                	addi	s0,sp,512
    1628:	02d311d3          	fadd.d	ft3,ft6,fa3,rtz
    162c:	0000                	unimp
    162e:	0e30                	addi	a2,sp,792
    1630:	755f 0070 d404      	0xd4040070755f
    1636:	fb12                	fsw	ft4,180(sp)
    1638:	0002                	c.slli64	zero
    163a:	3800                	fld	fs0,48(s0)
    163c:	5f0e                	lw	t5,224(sp)
    163e:	7275                	lui	tp,0xffffd
    1640:	0400                	addi	s0,sp,512
    1642:	07d5                	addi	a5,a5,21
    1644:	00000033          	add	zero,zero,zero
    1648:	0b3c                	addi	a5,sp,408
    164a:	0108                	addi	a0,sp,128
    164c:	0000                	unimp
    164e:	d804                	sw	s1,48(s0)
    1650:	3b11                	jal	1364 <__stack_size+0xf64>
    1652:	0006                	c.slli	zero,0x1
    1654:	4000                	lw	s0,0(s0)
    1656:	00073e0b          	0x73e0b
    165a:	0400                	addi	s0,sp,512
    165c:	11d9                	addi	gp,gp,-10
    165e:	0000064b          	fnmsub.s	fa2,ft0,ft0,ft0,rne
    1662:	6c5f0e43          	0x6c5f0e43
    1666:	0062                	c.slli	zero,0x18
    1668:	dc04                	sw	s1,56(s0)
    166a:	d311                	beqz	a4,156e <__stack_size+0x116e>
    166c:	0002                	c.slli64	zero
    166e:	4400                	lw	s0,8(s0)
    1670:	0006380b          	0x6380b
    1674:	0400                	addi	s0,sp,512
    1676:	07df 0033 0000      	0x3307df
    167c:	0b4c                	addi	a1,sp,404
    167e:	03c8                	addi	a0,sp,452
    1680:	0000                	unimp
    1682:	e004                	fsw	fs1,0(s0)
    1684:	7f0a                	flw	ft10,160(sp)
    1686:	0000                	unimp
    1688:	5000                	lw	s0,32(s0)
    168a:	00005b0b          	0x5b0b
    168e:	0400                	addi	s0,sp,512
    1690:	046212e3          	bne	tp,t1,1ed4 <__stack_size+0x1ad4>
    1694:	0000                	unimp
    1696:	0b54                	addi	a3,sp,404
    1698:	034d                	addi	t1,t1,19
    169a:	0000                	unimp
    169c:	e704                	fsw	fs1,8(a4)
    169e:	1f0c                	addi	a1,sp,944
    16a0:	0001                	nop
    16a2:	5800                	lw	s0,48(s0)
    16a4:	0002930b          	0x2930b
    16a8:	0400                	addi	s0,sp,512
    16aa:	0ee9                	addi	t4,t4,26
    16ac:	00f9                	addi	ra,ra,30
    16ae:	0000                	unimp
    16b0:	0b5c                	addi	a5,sp,404
    16b2:	04d4                	addi	a3,sp,580
    16b4:	0000                	unimp
    16b6:	ea04                	fsw	fs1,16(a2)
    16b8:	3309                	jal	13ba <__stack_size+0xfba>
    16ba:	0000                	unimp
    16bc:	6400                	flw	fs0,8(s0)
    16be:	1300                	addi	s0,sp,416
    16c0:	00000097          	auipc	ra,0x0
    16c4:	0462                	slli	s0,s0,0x18
    16c6:	0000                	unimp
    16c8:	6214                	flw	fa3,0(a2)
    16ca:	0004                	0x4
    16cc:	1400                	addi	s0,sp,544
    16ce:	0105                	addi	sp,sp,1
    16d0:	0000                	unimp
    16d2:	b614                	fsd	fa3,40(a2)
    16d4:	0005                	c.nop	1
    16d6:	1400                	addi	s0,sp,544
    16d8:	00000033          	add	zero,zero,zero
    16dc:	0f00                	addi	s0,sp,912
    16de:	6d04                	flw	fs1,24(a0)
    16e0:	0004                	0x4
    16e2:	1500                	addi	s0,sp,672
    16e4:	0462                	slli	s0,s0,0x18
    16e6:	0000                	unimp
    16e8:	fe16                	fsw	ft5,60(sp)
    16ea:	0005                	c.nop	1
    16ec:	2800                	fld	fs0,16(s0)
    16ee:	0404                	addi	s1,sp,512
    16f0:	0265                	addi	tp,tp,25
    16f2:	b608                	fsd	fa0,40(a2)
    16f4:	0005                	c.nop	1
    16f6:	1700                	addi	s0,sp,928
    16f8:	04c4                	addi	s1,sp,580
    16fa:	0000                	unimp
    16fc:	6704                	flw	fs1,8(a4)
    16fe:	0702                	c.slli64	a4
    1700:	00000033          	add	zero,zero,zero
    1704:	1700                	addi	s0,sp,928
    1706:	0000070b          	0x70b
    170a:	6c04                	flw	fs1,24(s0)
    170c:	0b02                	c.slli64	s6
    170e:	000006a7          	0x6a7
    1712:	1704                	addi	s1,sp,928
    1714:	000006f3          	0x6f3
    1718:	6c04                	flw	fs1,24(s0)
    171a:	1402                	slli	s0,s0,0x20
    171c:	000006a7          	0x6a7
    1720:	1708                	addi	a0,sp,928
    1722:	0246                	slli	tp,tp,0x11
    1724:	0000                	unimp
    1726:	6c04                	flw	fs1,24(s0)
    1728:	1e02                	slli	t3,t3,0x20
    172a:	000006a7          	0x6a7
    172e:	170c                	addi	a1,sp,928
    1730:	05da                	slli	a1,a1,0x16
    1732:	0000                	unimp
    1734:	6e04                	flw	fs1,24(a2)
    1736:	0802                	c.slli64	a6
    1738:	00000033          	add	zero,zero,zero
    173c:	1710                	addi	a2,sp,928
    173e:	002a                	c.slli	zero,0xa
    1740:	0000                	unimp
    1742:	6f04                	flw	fs1,24(a4)
    1744:	0802                	c.slli64	a6
    1746:	000008a7          	0x8a7
    174a:	1714                	addi	a3,sp,928
    174c:	0266                	slli	tp,tp,0x19
    174e:	0000                	unimp
    1750:	7204                	flw	fs1,32(a2)
    1752:	0702                	c.slli64	a4
    1754:	00000033          	add	zero,zero,zero
    1758:	1730                	addi	a2,sp,936
    175a:	05e4                	addi	s1,sp,716
    175c:	0000                	unimp
    175e:	7304                	flw	fs1,32(a4)
    1760:	1602                	slli	a2,a2,0x20
    1762:	08bc                	addi	a5,sp,88
    1764:	0000                	unimp
    1766:	1734                	addi	a3,sp,936
    1768:	041a                	slli	s0,s0,0x6
    176a:	0000                	unimp
    176c:	7504                	flw	fs1,40(a0)
    176e:	0702                	c.slli64	a4
    1770:	00000033          	add	zero,zero,zero
    1774:	1738                	addi	a4,sp,936
    1776:	05ec                	addi	a1,sp,716
    1778:	0000                	unimp
    177a:	7704                	flw	fs1,40(a4)
    177c:	0a02                	c.slli64	s4
    177e:	08cd                	addi	a7,a7,19
    1780:	0000                	unimp
    1782:	173c                	addi	a5,sp,936
    1784:	0329                	addi	t1,t1,10
    1786:	0000                	unimp
    1788:	7a04                	flw	fs1,48(a2)
    178a:	1302                	slli	t1,t1,0x20
    178c:	0185                	addi	gp,gp,1
    178e:	0000                	unimp
    1790:	1740                	addi	s0,sp,932
    1792:	00000177          	0x177
    1796:	7b04                	flw	fs1,48(a4)
    1798:	0702                	c.slli64	a4
    179a:	00000033          	add	zero,zero,zero
    179e:	1744                	addi	s1,sp,932
    17a0:	000007a7          	0x7a7
    17a4:	7c04                	flw	fs1,56(s0)
    17a6:	1302                	slli	t1,t1,0x20
    17a8:	0185                	addi	gp,gp,1
    17aa:	0000                	unimp
    17ac:	1748                	addi	a0,sp,932
    17ae:	0436                	slli	s0,s0,0xd
    17b0:	0000                	unimp
    17b2:	7d04                	flw	fs1,56(a0)
    17b4:	1402                	slli	s0,s0,0x20
    17b6:	000008d3          	fadd.s	fa7,ft0,ft0,rne
    17ba:	174c                	addi	a1,sp,932
    17bc:	000002a3          	sb	zero,5(zero) # 5 <__stack_usage+0x5>
    17c0:	8004                	0x8004
    17c2:	0702                	c.slli64	a4
    17c4:	00000033          	add	zero,zero,zero
    17c8:	1750                	addi	a2,sp,932
    17ca:	01ae                	slli	gp,gp,0xb
    17cc:	0000                	unimp
    17ce:	8104                	0x8104
    17d0:	0902                	c.slli64	s2
    17d2:	05b6                	slli	a1,a1,0xd
    17d4:	0000                	unimp
    17d6:	1754                	addi	a3,sp,932
    17d8:	04bd                	addi	s1,s1,15
    17da:	0000                	unimp
    17dc:	a404                	fsd	fs1,8(s0)
    17de:	0702                	c.slli64	a4
    17e0:	0882                	c.slli64	a7
    17e2:	0000                	unimp
    17e4:	1858                	addi	a4,sp,52
    17e6:	0408                	addi	a0,sp,512
    17e8:	0000                	unimp
    17ea:	a804                	fsd	fs1,16(s0)
    17ec:	1302                	slli	t1,t1,0x20
    17ee:	02b6                	slli	t0,t0,0xd
    17f0:	0000                	unimp
    17f2:	0148                	addi	a0,sp,132
    17f4:	0718                	addi	a4,sp,896
    17f6:	04000003          	lb	zero,64(zero) # 40 <__stack_usage+0x40>
    17fa:	02a9                	addi	t0,t0,10
    17fc:	7312                	flw	ft6,36(sp)
    17fe:	0002                	c.slli64	zero
    1800:	4c00                	lw	s0,24(s0)
    1802:	1801                	addi	a6,a6,-32
    1804:	0725                	addi	a4,a4,9
    1806:	0000                	unimp
    1808:	ad04                	fsd	fs1,24(a0)
    180a:	0c02                	c.slli64	s8
    180c:	08e4                	addi	s1,sp,92
    180e:	0000                	unimp
    1810:	02dc                	addi	a5,sp,324
    1812:	4718                	lw	a4,8(a4)
    1814:	0001                	nop
    1816:	0400                	addi	s0,sp,512
    1818:	02b2                	slli	t0,t0,0xc
    181a:	6810                	flw	fa2,16(s0)
    181c:	0006                	c.slli	zero,0x1
    181e:	e000                	fsw	fs0,0(s0)
    1820:	1802                	slli	a6,a6,0x20
    1822:	012c                	addi	a1,sp,136
    1824:	0000                	unimp
    1826:	b404                	fsd	fs1,40(s0)
    1828:	0a02                	c.slli64	s4
    182a:	08f0                	addi	a2,sp,92
    182c:	0000                	unimp
    182e:	02ec                	addi	a1,sp,332
    1830:	0f00                	addi	s0,sp,912
    1832:	bc04                	fsd	fs1,56(s0)
    1834:	0005                	c.nop	1
    1836:	0200                	addi	s0,sp,256
    1838:	0801                	addi	a6,a6,0
    183a:	06b1                	addi	a3,a3,12
    183c:	0000                	unimp
    183e:	bc15                	j	1272 <__stack_size+0xe72>
    1840:	0005                	c.nop	1
    1842:	0f00                	addi	s0,sp,912
    1844:	4404                	lw	s1,8(s0)
    1846:	0004                	0x4
    1848:	1300                	addi	s0,sp,416
    184a:	00000097          	auipc	ra,0x0
    184e:	05ec                	addi	a1,sp,716
    1850:	0000                	unimp
    1852:	6214                	flw	fa3,0(a2)
    1854:	0004                	0x4
    1856:	1400                	addi	s0,sp,544
    1858:	0105                	addi	sp,sp,1
    185a:	0000                	unimp
    185c:	ec14                	fsw	fa3,24(s0)
    185e:	0005                	c.nop	1
    1860:	1400                	addi	s0,sp,544
    1862:	00000033          	add	zero,zero,zero
    1866:	0f00                	addi	s0,sp,912
    1868:	c304                	sw	s1,0(a4)
    186a:	0005                	c.nop	1
    186c:	1500                	addi	s0,sp,672
    186e:	05ec                	addi	a1,sp,716
    1870:	0000                	unimp
    1872:	05ce040f          	0x5ce040f
    1876:	0000                	unimp
    1878:	00008b13          	mv	s6,ra
    187c:	1b00                	addi	s0,sp,432
    187e:	0006                	c.slli	zero,0x1
    1880:	1400                	addi	s0,sp,544
    1882:	0462                	slli	s0,s0,0x18
    1884:	0000                	unimp
    1886:	0514                	addi	a3,sp,640
    1888:	0001                	nop
    188a:	1400                	addi	s0,sp,544
    188c:	0000008b          	0x8b
    1890:	3314                	fld	fa3,32(a4)
    1892:	0000                	unimp
    1894:	0000                	unimp
    1896:	05fd040f          	0x5fd040f
    189a:	0000                	unimp
    189c:	00003313          	sltiu	t1,zero,0
    18a0:	3500                	fld	fs0,40(a0)
    18a2:	0006                	c.slli	zero,0x1
    18a4:	1400                	addi	s0,sp,544
    18a6:	0462                	slli	s0,s0,0x18
    18a8:	0000                	unimp
    18aa:	0514                	addi	a3,sp,640
    18ac:	0001                	nop
    18ae:	0000                	unimp
    18b0:	0621040f          	0x621040f
    18b4:	0000                	unimp
    18b6:	4f08                	lw	a0,24(a4)
    18b8:	0000                	unimp
    18ba:	4b00                	lw	s0,16(a4)
    18bc:	0006                	c.slli	zero,0x1
    18be:	0900                	addi	s0,sp,144
    18c0:	0025                	c.nop	9
    18c2:	0000                	unimp
    18c4:	0002                	c.slli64	zero
    18c6:	4f08                	lw	a0,24(a4)
    18c8:	0000                	unimp
    18ca:	5b00                	lw	s0,48(a4)
    18cc:	0006                	c.slli	zero,0x1
    18ce:	0900                	addi	s0,sp,144
    18d0:	0025                	c.nop	9
    18d2:	0000                	unimp
    18d4:	0000                	unimp
    18d6:	7004                	flw	fs1,32(s0)
    18d8:	0001                	nop
    18da:	0400                	addi	s0,sp,512
    18dc:	0124                	addi	s1,sp,136
    18de:	011a                	slli	sp,sp,0x6
    18e0:	19000003          	lb	zero,400(zero) # 190 <__stack_usage+0x190>
    18e4:	0705                	addi	a4,a4,1
    18e6:	0000                	unimp
    18e8:	040c                	addi	a1,sp,512
    18ea:	0128                	addi	a0,sp,136
    18ec:	a108                	fsd	fa0,0(a0)
    18ee:	0006                	c.slli	zero,0x1
    18f0:	1700                	addi	s0,sp,928
    18f2:	07d4                	addi	a3,sp,964
    18f4:	0000                	unimp
    18f6:	2a04                	fld	fs1,16(a2)
    18f8:	1101                	addi	sp,sp,-32
    18fa:	06a1                	addi	a3,a3,8
    18fc:	0000                	unimp
    18fe:	1700                	addi	s0,sp,928
    1900:	000002c3          	fmadd.s	ft5,ft0,ft0,ft0,rne
    1904:	2b04                	fld	fs1,16(a4)
    1906:	0701                	addi	a4,a4,0
    1908:	00000033          	add	zero,zero,zero
    190c:	1704                	addi	s1,sp,928
    190e:	04dc                	addi	a5,sp,580
    1910:	0000                	unimp
    1912:	2c04                	fld	fs1,24(s0)
    1914:	0b01                	addi	s6,s6,0
    1916:	000006a7          	0x6a7
    191a:	0008                	0x8
    191c:	0668040f          	0x668040f
    1920:	0000                	unimp
    1922:	065b040f          	0x65b040f
    1926:	0000                	unimp
    1928:	2219                	jal	1a2e <__stack_size+0x162e>
    192a:	0000                	unimp
    192c:	0e00                	addi	s0,sp,784
    192e:	4404                	lw	s1,8(s0)
    1930:	0801                	addi	a6,a6,0
    1932:	06e6                	slli	a3,a3,0x19
    1934:	0000                	unimp
    1936:	00066f17          	auipc	t5,0x66
    193a:	0400                	addi	s0,sp,512
    193c:	0145                	addi	sp,sp,17
    193e:	e612                	fsw	ft4,12(sp)
    1940:	0006                	c.slli	zero,0x1
    1942:	0000                	unimp
    1944:	00036317          	auipc	t1,0x36
    1948:	0400                	addi	s0,sp,512
    194a:	0146                	slli	sp,sp,0x11
    194c:	e612                	fsw	ft4,12(sp)
    194e:	0006                	c.slli	zero,0x1
    1950:	0600                	addi	s0,sp,768
    1952:	0006b617          	auipc	a2,0x6b
    1956:	0400                	addi	s0,sp,512
    1958:	5d120147          	0x5d120147
    195c:	0000                	unimp
    195e:	0c00                	addi	s0,sp,528
    1960:	0800                	addi	s0,sp,16
    1962:	005d                	c.nop	23
    1964:	0000                	unimp
    1966:	06f6                	slli	a3,a3,0x1d
    1968:	0000                	unimp
    196a:	2509                	jal	1f6c <__stack_size+0x1b6c>
    196c:	0000                	unimp
    196e:	0200                	addi	s0,sp,256
    1970:	1a00                	addi	s0,sp,304
    1972:	04d0                	addi	a2,sp,580
    1974:	0285                	addi	t0,t0,1
    1976:	00080b07          	0x80b07
    197a:	1700                	addi	s0,sp,928
    197c:	039f 0000 8704      	0x87040000039f
    1982:	1802                	slli	a6,a6,0x20
    1984:	0025                	c.nop	9
    1986:	0000                	unimp
    1988:	1700                	addi	s0,sp,928
    198a:	0000068b          	0x68b
    198e:	8804                	0x8804
    1990:	1202                	slli	tp,tp,0x20
    1992:	05b6                	slli	a1,a1,0xd
    1994:	0000                	unimp
    1996:	1704                	addi	s1,sp,928
    1998:	031c                	addi	a5,sp,384
    199a:	0000                	unimp
    199c:	8904                	0x8904
    199e:	1002                	c.slli	zero,0x20
    19a0:	0000080b          	0x80b
    19a4:	1708                	addi	a0,sp,928
    19a6:	0761                	addi	a4,a4,24
    19a8:	0000                	unimp
    19aa:	8a04                	0x8a04
    19ac:	1702                	slli	a4,a4,0x20
    19ae:	0000019b          	0x19b
    19b2:	1724                	addi	s1,sp,936
    19b4:	024e                	slli	tp,tp,0x13
    19b6:	0000                	unimp
    19b8:	8b04                	0x8b04
    19ba:	0f02                	c.slli64	t5
    19bc:	00000033          	add	zero,zero,zero
    19c0:	1748                	addi	a0,sp,932
    19c2:	000007cf          	fnmadd.s	fa5,ft0,ft0,ft0,rne
    19c6:	8c04                	0x8c04
    19c8:	2c02                	fld	fs8,0(sp)
    19ca:	002c                	addi	a1,sp,8
    19cc:	0000                	unimp
    19ce:	1750                	addi	a2,sp,932
    19d0:	0779                	addi	a4,a4,30
    19d2:	0000                	unimp
    19d4:	8d04                	0x8d04
    19d6:	1a02                	slli	s4,s4,0x20
    19d8:	06ad                	addi	a3,a3,11
    19da:	0000                	unimp
    19dc:	1758                	addi	a4,sp,932
    19de:	05cd                	addi	a1,a1,19
    19e0:	0000                	unimp
    19e2:	8e04                	0x8e04
    19e4:	1602                	slli	a2,a2,0x20
    19e6:	00f9                	addi	ra,ra,30
    19e8:	0000                	unimp
    19ea:	1768                	addi	a0,sp,940
    19ec:	0799                	addi	a5,a5,6
    19ee:	0000                	unimp
    19f0:	8f04                	0x8f04
    19f2:	1602                	slli	a2,a2,0x20
    19f4:	00f9                	addi	ra,ra,30
    19f6:	0000                	unimp
    19f8:	1770                	addi	a2,sp,940
    19fa:	011e                	slli	sp,sp,0x7
    19fc:	0000                	unimp
    19fe:	9004                	0x9004
    1a00:	1602                	slli	a2,a2,0x20
    1a02:	00f9                	addi	ra,ra,30
    1a04:	0000                	unimp
    1a06:	1778                	addi	a4,sp,940
    1a08:	0000071b          	0x71b
    1a0c:	9104                	0x9104
    1a0e:	1002                	c.slli	zero,0x20
    1a10:	0000081b          	0x81b
    1a14:	1780                	addi	s0,sp,992
    1a16:	0310                	addi	a2,sp,384
    1a18:	0000                	unimp
    1a1a:	9204                	0x9204
    1a1c:	1002                	c.slli	zero,0x20
    1a1e:	0000082b          	0x82b
    1a22:	1788                	addi	a0,sp,992
    1a24:	004e                	c.slli	zero,0x13
    1a26:	0000                	unimp
    1a28:	9304                	0x9304
    1a2a:	0f02                	c.slli64	t5
    1a2c:	00000033          	add	zero,zero,zero
    1a30:	17a0                	addi	s0,sp,1000
    1a32:	000001c7          	fmsub.s	ft3,ft0,ft0,ft0,rne
    1a36:	9404                	0x9404
    1a38:	1602                	slli	a2,a2,0x20
    1a3a:	00f9                	addi	ra,ra,30
    1a3c:	0000                	unimp
    1a3e:	17a4                	addi	s1,sp,1000
    1a40:	00e1                	addi	ra,ra,24
    1a42:	0000                	unimp
    1a44:	9504                	0x9504
    1a46:	1602                	slli	a2,a2,0x20
    1a48:	00f9                	addi	ra,ra,30
    1a4a:	0000                	unimp
    1a4c:	17ac                	addi	a1,sp,1000
    1a4e:	01b6                	slli	gp,gp,0xd
    1a50:	0000                	unimp
    1a52:	9604                	0x9604
    1a54:	1602                	slli	a2,a2,0x20
    1a56:	00f9                	addi	ra,ra,30
    1a58:	0000                	unimp
    1a5a:	17b4                	addi	a3,sp,1000
    1a5c:	0061                	c.nop	24
    1a5e:	0000                	unimp
    1a60:	9704                	0x9704
    1a62:	1602                	slli	a2,a2,0x20
    1a64:	00f9                	addi	ra,ra,30
    1a66:	0000                	unimp
    1a68:	17bc                	addi	a5,sp,1000
    1a6a:	008d                	addi	ra,ra,3
    1a6c:	0000                	unimp
    1a6e:	9804                	0x9804
    1a70:	1602                	slli	a2,a2,0x20
    1a72:	00f9                	addi	ra,ra,30
    1a74:	0000                	unimp
    1a76:	17c4                	addi	s1,sp,996
    1a78:	04c2                	slli	s1,s1,0x10
    1a7a:	0000                	unimp
    1a7c:	9904                	0x9904
    1a7e:	0802                	c.slli64	a6
    1a80:	00000033          	add	zero,zero,zero
    1a84:	00cc                	addi	a1,sp,68
    1a86:	bc08                	fsd	fa0,56(s0)
    1a88:	0005                	c.nop	1
    1a8a:	1b00                	addi	s0,sp,432
    1a8c:	0008                	0x8
    1a8e:	0900                	addi	s0,sp,144
    1a90:	0025                	c.nop	9
    1a92:	0000                	unimp
    1a94:	0019                	c.nop	6
    1a96:	bc08                	fsd	fa0,56(s0)
    1a98:	0005                	c.nop	1
    1a9a:	2b00                	fld	fs0,16(a4)
    1a9c:	0008                	0x8
    1a9e:	0900                	addi	s0,sp,144
    1aa0:	0025                	c.nop	9
    1aa2:	0000                	unimp
    1aa4:	bc080007          	0xbc080007
    1aa8:	0005                	c.nop	1
    1aaa:	3b00                	fld	fs0,48(a4)
    1aac:	0008                	0x8
    1aae:	0900                	addi	s0,sp,144
    1ab0:	0025                	c.nop	9
    1ab2:	0000                	unimp
    1ab4:	f01a0017          	auipc	zero,0xf01a0
    1ab8:	9e04                	0x9e04
    1aba:	0702                	c.slli64	a4
    1abc:	0862                	slli	a6,a6,0x18
    1abe:	0000                	unimp
    1ac0:	00033717          	auipc	a4,0x33
    1ac4:	0400                	addi	s0,sp,512
    1ac6:	02a1                	addi	t0,t0,8
    1ac8:	0008621b          	0x8621b
    1acc:	0000                	unimp
    1ace:	00025d17          	auipc	s10,0x25
    1ad2:	0400                	addi	s0,sp,512
    1ad4:	02a2                	slli	t0,t0,0x8
    1ad6:	7218                	flw	fa4,32(a2)
    1ad8:	0008                	0x8
    1ada:	7800                	flw	fs0,48(s0)
    1adc:	0800                	addi	s0,sp,16
    1ade:	000002fb          	0x2fb
    1ae2:	0872                	slli	a6,a6,0x1c
    1ae4:	0000                	unimp
    1ae6:	2509                	jal	20e8 <__stack_size+0x1ce8>
    1ae8:	0000                	unimp
    1aea:	1d00                	addi	s0,sp,688
    1aec:	0800                	addi	s0,sp,16
    1aee:	0025                	c.nop	9
    1af0:	0000                	unimp
    1af2:	0882                	c.slli64	a7
    1af4:	0000                	unimp
    1af6:	2509                	jal	20f8 <__stack_size+0x1cf8>
    1af8:	0000                	unimp
    1afa:	1d00                	addi	s0,sp,688
    1afc:	1b00                	addi	s0,sp,432
    1afe:	04f0                	addi	a2,sp,588
    1b00:	a7030283          	lb	t0,-1424(t1) # 373b4 <__stack_size+0x36fb4>
    1b04:	0008                	0x8
    1b06:	1c00                	addi	s0,sp,560
    1b08:	05fe                	slli	a1,a1,0x1f
    1b0a:	0000                	unimp
    1b0c:	9a04                	0x9a04
    1b0e:	0b02                	c.slli64	s6
    1b10:	06f6                	slli	a3,a3,0x1d
    1b12:	0000                	unimp
    1b14:	441c                	lw	a5,8(s0)
    1b16:	04000007          	0x4000007
    1b1a:	3b0b02a3          	sb	a6,933(s6) # 3313a5 <__stack_size+0x330fa5>
    1b1e:	0008                	0x8
    1b20:	0000                	unimp
    1b22:	bc08                	fsd	fa0,56(s0)
    1b24:	0005                	c.nop	1
    1b26:	b700                	fsd	fs0,40(a4)
    1b28:	0008                	0x8
    1b2a:	0900                	addi	s0,sp,144
    1b2c:	0025                	c.nop	9
    1b2e:	0000                	unimp
    1b30:	0018                	0x18
    1b32:	d61d                	beqz	a2,1a60 <__stack_size+0x1660>
    1b34:	0000                	unimp
    1b36:	0f00                	addi	s0,sp,912
    1b38:	b704                	fsd	fs1,40(a4)
    1b3a:	0008                	0x8
    1b3c:	1e00                	addi	s0,sp,816
    1b3e:	08cd                	addi	a7,a7,19
    1b40:	0000                	unimp
    1b42:	6214                	flw	fa3,0(a2)
    1b44:	0004                	0x4
    1b46:	0000                	unimp
    1b48:	08c2040f          	0x8c2040f
    1b4c:	0000                	unimp
    1b4e:	0185040f          	0x185040f
    1b52:	0000                	unimp
    1b54:	e41e                	fsw	ft7,8(sp)
    1b56:	0008                	0x8
    1b58:	1400                	addi	s0,sp,544
    1b5a:	00000033          	add	zero,zero,zero
    1b5e:	0f00                	addi	s0,sp,912
    1b60:	ea04                	fsw	fs1,16(a2)
    1b62:	0008                	0x8
    1b64:	0f00                	addi	s0,sp,912
    1b66:	d904                	sw	s1,48(a0)
    1b68:	0008                	0x8
    1b6a:	0800                	addi	s0,sp,16
    1b6c:	0000065b          	0x65b
    1b70:	0900                	addi	s0,sp,144
    1b72:	0000                	unimp
    1b74:	2509                	jal	2176 <__stack_size+0x1d76>
    1b76:	0000                	unimp
    1b78:	0200                	addi	s0,sp,256
    1b7a:	1f00                	addi	s0,sp,944
    1b7c:	06df 0000 3304      	0x3304000006df
    1b82:	04621703          	lh	a4,70(tp) # ffffd046 <__global_pointer+0x7fff583e>
    1b86:	0000                	unimp
    1b88:	d81f 0006 0400      	0x4000006d81f
    1b8e:	0334                	addi	a3,sp,392
    1b90:	681d                	lui	a6,0x7
    1b92:	0004                	0x4
    1b94:	0800                	addi	s0,sp,16
    1b96:	05f2                	slli	a1,a1,0x1c
    1b98:	0000                	unimp
    1b9a:	0925                	addi	s2,s2,9
    1b9c:	0000                	unimp
    1b9e:	0020                	addi	s0,sp,8
    1ba0:	1a15                	addi	s4,s4,-27
    1ba2:	0009                	c.nop	2
    1ba4:	2100                	fld	fs0,0(a0)
    1ba6:	01a1                	addi	gp,gp,8
    1ba8:	0000                	unimp
    1baa:	1406                	slli	s0,s0,0x21
    1bac:	2524                	fld	fs1,72(a0)
    1bae:	0009                	c.nop	2
    1bb0:	2100                	fld	fs0,0(a0)
    1bb2:	000005c3          	fmadd.s	fa1,ft0,ft0,ft0,rne
    1bb6:	1506                	slli	a0,a0,0x21
    1bb8:	3315                	jal	18dc <__stack_size+0x14dc>
    1bba:	0000                	unimp
    1bbc:	0f00                	addi	s0,sp,912
    1bbe:	4804                	lw	s1,16(s0)
    1bc0:	0009                	c.nop	2
    1bc2:	1300                	addi	s0,sp,416
    1bc4:	00000033          	add	zero,zero,zero
    1bc8:	095c                	addi	a5,sp,148
    1bca:	0000                	unimp
    1bcc:	5c14                	lw	a3,56(s0)
    1bce:	0009                	c.nop	2
    1bd0:	1400                	addi	s0,sp,544
    1bd2:	095c                	addi	a5,sp,148
    1bd4:	0000                	unimp
    1bd6:	0f00                	addi	s0,sp,912
    1bd8:	6204                	flw	fs1,0(a2)
    1bda:	0009                	c.nop	2
    1bdc:	2200                	fld	fs0,0(a2)
    1bde:	1021                	c.nop	-24
    1be0:	0004                	0x4
    1be2:	0700                	addi	s0,sp,896
    1be4:	05b60e67          	jalr	t3,91(a2) # 6c9ad <__stack_size+0x6c5ad>
    1be8:	0000                	unimp
    1bea:	3e21                	jal	1702 <__stack_size+0x1302>
    1bec:	08000003          	lb	zero,128(zero) # 80 <__stack_usage+0x80>
    1bf0:	0f10                	addi	a2,sp,912
    1bf2:	0000097b          	0x97b
    1bf6:	05b6040f          	0x5b6040f
    1bfa:	0000                	unimp
    1bfc:	1321                	addi	t1,t1,-24
    1bfe:	0004                	0x4
    1c00:	0800                	addi	s0,sp,16
    1c02:	0efc                	addi	a5,sp,860
    1c04:	05b6                	slli	a1,a1,0xd
    1c06:	0000                	unimp
    1c08:	b121                	j	1810 <__stack_size+0x1410>
    1c0a:	0000                	unimp
    1c0c:	0800                	addi	s0,sp,16
    1c0e:	0cfd                	addi	s9,s9,31
    1c10:	00000033          	add	zero,zero,zero
    1c14:	7521                	lui	a0,0xfffe8
    1c16:	0006                	c.slli	zero,0x1
    1c18:	0800                	addi	s0,sp,16
    1c1a:	14fd                	addi	s1,s1,-1
    1c1c:	00000033          	add	zero,zero,zero
    1c20:	8821                	andi	s0,s0,8
    1c22:	08000007          	0x8000007
    1c26:	1cfd                	addi	s9,s9,-1
    1c28:	00000033          	add	zero,zero,zero
    1c2c:	7d21                	lui	s10,0xfffe8
    1c2e:	08000003          	lb	zero,128(zero) # 80 <__stack_usage+0x80>
    1c32:	0cff                	0xcff
    1c34:	00000033          	add	zero,zero,zero
    1c38:	4021                	c.li	zero,8
    1c3a:	0004                	0x4
    1c3c:	0900                	addi	s0,sp,144
    1c3e:	169a                	slli	a3,a3,0x26
    1c40:	0064                	addi	s1,sp,12
    1c42:	0000                	unimp
    1c44:	3521                	jal	1a4c <__stack_size+0x164c>
    1c46:	0000                	unimp
    1c48:	0900                	addi	s0,sp,144
    1c4a:	0033159b          	0x33159b
    1c4e:	0000                	unimp
    1c50:	b608                	fsd	fa0,40(a2)
    1c52:	0005                	c.nop	1
    1c54:	e500                	fsw	fs0,8(a0)
    1c56:	0009                	c.nop	2
    1c58:	0900                	addi	s0,sp,144
    1c5a:	0025                	c.nop	9
    1c5c:	0000                	unimp
    1c5e:	0001                	nop
    1c60:	f021                	bnez	s0,1ba0 <__stack_size+0x17a0>
    1c62:	0000                	unimp
    1c64:	0900                	addi	s0,sp,144
    1c66:	179e                	slli	a5,a5,0x27
    1c68:	09d5                	addi	s3,s3,21
    1c6a:	0000                	unimp
    1c6c:	b105                	j	188c <__stack_size+0x148c>
    1c6e:	0002                	c.slli64	zero
    1c70:	0a00                	addi	s0,sp,272
    1c72:	162a                	slli	a2,a2,0x2a
    1c74:	0025                	c.nop	9
    1c76:	0000                	unimp
    1c78:	b105                	j	1898 <__stack_size+0x1498>
    1c7a:	0005                	c.nop	1
    1c7c:	0a00                	addi	s0,sp,272
    1c7e:	0a09152f          	0xa09152f
    1c82:	0000                	unimp
    1c84:	0a0f040f          	0xa0f040f
    1c88:	0000                	unimp
    1c8a:	0009f113          	andi	sp,s3,0
    1c8e:	1e00                	addi	s0,sp,816
    1c90:	000a                	c.slli	zero,0x2
    1c92:	1400                	addi	s0,sp,544
    1c94:	095c                	addi	a5,sp,148
    1c96:	0000                	unimp
    1c98:	0500                	addi	s0,sp,640
    1c9a:	07da                	slli	a5,a5,0x16
    1c9c:	0000                	unimp
    1c9e:	360a                	fld	fa2,160(sp)
    1ca0:	0009420f          	0x9420f
    1ca4:	2100                	fld	fs0,0(a0)
    1ca6:	000a                	c.slli	zero,0x2
    1ca8:	0000                	unimp
    1caa:	bb0a                	fsd	ft2,432(sp)
    1cac:	fd12                	fsw	ft4,184(sp)
    1cae:	0009                	c.nop	2
    1cb0:	2100                	fld	fs0,0(a0)
    1cb2:	000006c3          	fmadd.s	fa3,ft0,ft0,ft0,rne
    1cb6:	be0a                	fsd	ft2,312(sp)
    1cb8:	1e10                	addi	a2,sp,816
    1cba:	000a                	c.slli	zero,0x2
    1cbc:	2300                	fld	fs0,0(a4)
    1cbe:	0284                	addi	s1,sp,320
    1cc0:	0000                	unimp
    1cc2:	00250407          	0x250407
    1cc6:	0000                	unimp
    1cc8:	7f06180b          	0x7f06180b
    1ccc:	000a                	c.slli	zero,0x2
    1cce:	2400                	fld	fs0,8(s0)
    1cd0:	049d                	addi	s1,s1,7
    1cd2:	0000                	unimp
    1cd4:	2400                	fld	fs0,8(s0)
    1cd6:	0358                	addi	a4,sp,388
    1cd8:	0000                	unimp
