
kernel.elf:     file format elf32-littleriscv


Disassembly of section .init:

80000000 <_start>:
80000000:	fc102573          	csrr	a0,0xfc1
80000004:	00000597          	auipc	a1,0x0
80000008:	16458593          	addi	a1,a1,356 # 80000168 <init_regs>
8000000c:	00b5106b          	0xb5106b
80000010:	158000ef          	jal	ra,80000168 <init_regs>
80000014:	00100513          	li	a0,1
80000018:	0005006b          	0x5006b
8000001c:	fc102573          	csrr	a0,0xfc1
80000020:	00000597          	auipc	a1,0x0
80000024:	19458593          	addi	a1,a1,404 # 800001b4 <__init_tls>
80000028:	00b5106b          	0xb5106b
8000002c:	188000ef          	jal	ra,800001b4 <__init_tls>
80000030:	00100513          	li	a0,1
80000034:	0005006b          	0x5006b
80000038:	00001517          	auipc	a0,0x1
8000003c:	3fc50513          	addi	a0,a0,1020 # 80001434 <g_wspawn_args>
80000040:	00001617          	auipc	a2,0x1
80000044:	47460613          	addi	a2,a2,1140 # 800014b4 <__BSS_END__>
80000048:	40a60633          	sub	a2,a2,a0
8000004c:	00000593          	li	a1,0
80000050:	091000ef          	jal	ra,800008e0 <memset>
80000054:	00000517          	auipc	a0,0x0
80000058:	25050513          	addi	a0,a0,592 # 800002a4 <__libc_fini_array>
8000005c:	720000ef          	jal	ra,8000077c <atexit>
80000060:	1b0000ef          	jal	ra,80000210 <__libc_init_array>
80000064:	008000ef          	jal	ra,8000006c <main>
80000068:	7280006f          	j	80000790 <exit>

Disassembly of section .text:

8000006c <main>:
8000006c:	7ffff7b7          	lui	a5,0x7ffff
80000070:	0007a503          	lw	a0,0(a5) # 7ffff000 <__stack_size+0x7fffec00>
80000074:	800005b7          	lui	a1,0x80000
80000078:	7ffff637          	lui	a2,0x7ffff
8000007c:	09c58593          	addi	a1,a1,156 # 8000009c <__global_pointer+0xffffe894>
80000080:	3900006f          	j	80000410 <vx_spawn_tasks>

80000084 <register_fini>:
80000084:	00000793          	li	a5,0
80000088:	00078863          	beqz	a5,80000098 <register_fini+0x14>
8000008c:	80000537          	lui	a0,0x80000
80000090:	2a450513          	addi	a0,a0,676 # 800002a4 <__global_pointer+0xffffea9c>
80000094:	6e80006f          	j	8000077c <atexit>
80000098:	00008067          	ret

8000009c <kernel_body>:
8000009c:	0045a683          	lw	a3,4(a1)
800000a0:	80000737          	lui	a4,0x80000
800000a4:	00251813          	slli	a6,a0,0x2
800000a8:	00170793          	addi	a5,a4,1 # 80000001 <__global_pointer+0xffffe7f9>
800000ac:	01068633          	add	a2,a3,a6
800000b0:	00f507b3          	add	a5,a0,a5
800000b4:	0085a683          	lw	a3,8(a1)
800000b8:	0017b793          	seqz	a5,a5
800000bc:	00062583          	lw	a1,0(a2) # 7ffff000 <__stack_size+0x7fffec00>
800000c0:	0007a06b          	0x7a06b
800000c4:	fff74713          	not	a4,a4
800000c8:	00000613          	li	a2,0
800000cc:	00e50463          	beq	a0,a4,800000d4 <kernel_body+0x38>
800000d0:	00258613          	addi	a2,a1,2
800000d4:	0000306b          	0x306b
800000d8:	00252713          	slti	a4,a0,2
800000dc:	00174713          	xori	a4,a4,1
800000e0:	0007206b          	0x7206b
800000e4:	00100793          	li	a5,1
800000e8:	04a7d863          	bge	a5,a0,80000138 <kernel_body+0x9c>
800000ec:	00352793          	slti	a5,a0,3
800000f0:	0017c793          	xori	a5,a5,1
800000f4:	0007a06b          	0x7a06b
800000f8:	ffe50793          	addi	a5,a0,-2
800000fc:	00f037b3          	snez	a5,a5
80000100:	00c787b3          	add	a5,a5,a2
80000104:	00578793          	addi	a5,a5,5
80000108:	0000306b          	0x306b
8000010c:	0000306b          	0x306b
80000110:	fff54713          	not	a4,a0
80000114:	01f75713          	srli	a4,a4,0x1f
80000118:	0007206b          	0x7206b
8000011c:	00000713          	li	a4,0
80000120:	00054463          	bltz	a0,80000128 <kernel_body+0x8c>
80000124:	00778713          	addi	a4,a5,7
80000128:	0000306b          	0x306b
8000012c:	010687b3          	add	a5,a3,a6
80000130:	00e7a023          	sw	a4,0(a5)
80000134:	00008067          	ret
80000138:	fff50793          	addi	a5,a0,-1
8000013c:	0017b793          	seqz	a5,a5
80000140:	0007a06b          	0x7a06b
80000144:	00c787b3          	add	a5,a5,a2
80000148:	00378793          	addi	a5,a5,3
8000014c:	0000306b          	0x306b
80000150:	fbdff06f          	j	8000010c <kernel_body+0x70>

80000154 <_exit>:
80000154:	00050413          	mv	s0,a0
80000158:	410000ef          	jal	ra,80000568 <vx_perf_dump>
8000015c:	00040193          	mv	gp,s0
80000160:	00000513          	li	a0,0
80000164:	0005006b          	0x5006b

80000168 <init_regs>:
80000168:	fff00513          	li	a0,-1
8000016c:	0005006b          	0x5006b
80000170:	00001197          	auipc	gp,0x1
80000174:	69818193          	addi	gp,gp,1688 # 80001808 <__global_pointer>
80000178:	ff000137          	lui	sp,0xff000
8000017c:	cc102573          	csrr	a0,0xcc1
80000180:	00a51593          	slli	a1,a0,0xa
80000184:	40b10133          	sub	sp,sp,a1
80000188:	00000593          	li	a1,0
8000018c:	02b50533          	mul	a0,a0,a1
80000190:	00001217          	auipc	tp,0x1
80000194:	36320213          	addi	tp,tp,867 # 800014f3 <__BSS_END__+0x3f>
80000198:	00a20233          	add	tp,tp,a0
8000019c:	fc027213          	andi	tp,tp,-64
800001a0:	cc3026f3          	csrr	a3,0xcc3
800001a4:	00068663          	beqz	a3,800001b0 <RETURN>
800001a8:	00000513          	li	a0,0
800001ac:	0005006b          	0x5006b

800001b0 <RETURN>:
800001b0:	00008067          	ret

800001b4 <__init_tls>:
800001b4:	ff010113          	addi	sp,sp,-16 # fefffff0 <__global_pointer+0x7effe7e8>
800001b8:	00112623          	sw	ra,12(sp)
800001bc:	00812423          	sw	s0,8(sp)
800001c0:	fff00793          	li	a5,-1
800001c4:	0007806b          	0x7806b
800001c8:	00000613          	li	a2,0
800001cc:	00020513          	mv	a0,tp
800001d0:	00001597          	auipc	a1,0x1
800001d4:	e3058593          	addi	a1,a1,-464 # 80001000 <__init_array_start>
800001d8:	00020413          	mv	s0,tp
800001dc:	5e8000ef          	jal	ra,800007c4 <memcpy>
800001e0:	00000513          	li	a0,0
800001e4:	00000613          	li	a2,0
800001e8:	00000593          	li	a1,0
800001ec:	00a40533          	add	a0,s0,a0
800001f0:	6f0000ef          	jal	ra,800008e0 <memset>
800001f4:	cc3027f3          	csrr	a5,0xcc3
800001f8:	0017b793          	seqz	a5,a5
800001fc:	0007806b          	0x7806b
80000200:	00c12083          	lw	ra,12(sp)
80000204:	00812403          	lw	s0,8(sp)
80000208:	01010113          	addi	sp,sp,16
8000020c:	00008067          	ret

80000210 <__libc_init_array>:
80000210:	ff010113          	addi	sp,sp,-16
80000214:	00812423          	sw	s0,8(sp)
80000218:	01212023          	sw	s2,0(sp)
8000021c:	00001417          	auipc	s0,0x1
80000220:	de440413          	addi	s0,s0,-540 # 80001000 <__init_array_start>
80000224:	00001917          	auipc	s2,0x1
80000228:	ddc90913          	addi	s2,s2,-548 # 80001000 <__init_array_start>
8000022c:	40890933          	sub	s2,s2,s0
80000230:	00112623          	sw	ra,12(sp)
80000234:	00912223          	sw	s1,4(sp)
80000238:	40295913          	srai	s2,s2,0x2
8000023c:	00090e63          	beqz	s2,80000258 <__libc_init_array+0x48>
80000240:	00000493          	li	s1,0
80000244:	00042783          	lw	a5,0(s0)
80000248:	00148493          	addi	s1,s1,1
8000024c:	00440413          	addi	s0,s0,4
80000250:	000780e7          	jalr	a5
80000254:	fe9918e3          	bne	s2,s1,80000244 <__libc_init_array+0x34>
80000258:	00001417          	auipc	s0,0x1
8000025c:	da840413          	addi	s0,s0,-600 # 80001000 <__init_array_start>
80000260:	00001917          	auipc	s2,0x1
80000264:	da490913          	addi	s2,s2,-604 # 80001004 <__fini_array_end>
80000268:	40890933          	sub	s2,s2,s0
8000026c:	40295913          	srai	s2,s2,0x2
80000270:	00090e63          	beqz	s2,8000028c <__libc_init_array+0x7c>
80000274:	00000493          	li	s1,0
80000278:	00042783          	lw	a5,0(s0)
8000027c:	00148493          	addi	s1,s1,1
80000280:	00440413          	addi	s0,s0,4
80000284:	000780e7          	jalr	a5
80000288:	fe9918e3          	bne	s2,s1,80000278 <__libc_init_array+0x68>
8000028c:	00c12083          	lw	ra,12(sp)
80000290:	00812403          	lw	s0,8(sp)
80000294:	00412483          	lw	s1,4(sp)
80000298:	00012903          	lw	s2,0(sp)
8000029c:	01010113          	addi	sp,sp,16
800002a0:	00008067          	ret

800002a4 <__libc_fini_array>:
800002a4:	ff010113          	addi	sp,sp,-16
800002a8:	00812423          	sw	s0,8(sp)
800002ac:	00001797          	auipc	a5,0x1
800002b0:	d5878793          	addi	a5,a5,-680 # 80001004 <__fini_array_end>
800002b4:	00001417          	auipc	s0,0x1
800002b8:	d5040413          	addi	s0,s0,-688 # 80001004 <__fini_array_end>
800002bc:	408787b3          	sub	a5,a5,s0
800002c0:	00912223          	sw	s1,4(sp)
800002c4:	00112623          	sw	ra,12(sp)
800002c8:	4027d493          	srai	s1,a5,0x2
800002cc:	02048063          	beqz	s1,800002ec <__libc_fini_array+0x48>
800002d0:	ffc78793          	addi	a5,a5,-4
800002d4:	00878433          	add	s0,a5,s0
800002d8:	00042783          	lw	a5,0(s0)
800002dc:	fff48493          	addi	s1,s1,-1
800002e0:	ffc40413          	addi	s0,s0,-4
800002e4:	000780e7          	jalr	a5
800002e8:	fe0498e3          	bnez	s1,800002d8 <__libc_fini_array+0x34>
800002ec:	00c12083          	lw	ra,12(sp)
800002f0:	00812403          	lw	s0,8(sp)
800002f4:	00412483          	lw	s1,4(sp)
800002f8:	01010113          	addi	sp,sp,16
800002fc:	00008067          	ret

80000300 <spawn_tasks_all_stub>:
80000300:	ff010113          	addi	sp,sp,-16
80000304:	00112623          	sw	ra,12(sp)
80000308:	00812423          	sw	s0,8(sp)
8000030c:	00912223          	sw	s1,4(sp)
80000310:	01212023          	sw	s2,0(sp)
80000314:	cc5027f3          	csrr	a5,0xcc5
80000318:	cc302773          	csrr	a4,0xcc3
8000031c:	cc0026f3          	csrr	a3,0xcc0
80000320:	fc0025f3          	csrr	a1,0xfc0
80000324:	00279613          	slli	a2,a5,0x2
80000328:	00001797          	auipc	a5,0x1
8000032c:	10c78793          	addi	a5,a5,268 # 80001434 <g_wspawn_args>
80000330:	00c787b3          	add	a5,a5,a2
80000334:	0007a483          	lw	s1,0(a5)
80000338:	0104a403          	lw	s0,16(s1)
8000033c:	00c4a603          	lw	a2,12(s1)
80000340:	00872933          	slt	s2,a4,s0
80000344:	00040793          	mv	a5,s0
80000348:	00c90933          	add	s2,s2,a2
8000034c:	02e60433          	mul	s0,a2,a4
80000350:	00f75463          	bge	a4,a5,80000358 <spawn_tasks_all_stub+0x58>
80000354:	00070793          	mv	a5,a4
80000358:	00f40433          	add	s0,s0,a5
8000035c:	0084a703          	lw	a4,8(s1)
80000360:	02b40433          	mul	s0,s0,a1
80000364:	02d907b3          	mul	a5,s2,a3
80000368:	00e40433          	add	s0,s0,a4
8000036c:	00f40433          	add	s0,s0,a5
80000370:	00890933          	add	s2,s2,s0
80000374:	01245e63          	bge	s0,s2,80000390 <spawn_tasks_all_stub+0x90>
80000378:	0004a783          	lw	a5,0(s1)
8000037c:	0044a583          	lw	a1,4(s1)
80000380:	00040513          	mv	a0,s0
80000384:	00140413          	addi	s0,s0,1
80000388:	000780e7          	jalr	a5
8000038c:	fe8916e3          	bne	s2,s0,80000378 <spawn_tasks_all_stub+0x78>
80000390:	0144a703          	lw	a4,20(s1)
80000394:	00000793          	li	a5,0
80000398:	00e7c06b          	0xe7c06b
8000039c:	00c12083          	lw	ra,12(sp)
800003a0:	00812403          	lw	s0,8(sp)
800003a4:	00412483          	lw	s1,4(sp)
800003a8:	00012903          	lw	s2,0(sp)
800003ac:	01010113          	addi	sp,sp,16
800003b0:	00008067          	ret

800003b4 <spawn_tasks_rem_stub>:
800003b4:	cc5027f3          	csrr	a5,0xcc5
800003b8:	cc202573          	csrr	a0,0xcc2
800003bc:	00279713          	slli	a4,a5,0x2
800003c0:	00001797          	auipc	a5,0x1
800003c4:	07478793          	addi	a5,a5,116 # 80001434 <g_wspawn_args>
800003c8:	00e787b3          	add	a5,a5,a4
800003cc:	0007a783          	lw	a5,0(a5)
800003d0:	0087a703          	lw	a4,8(a5)
800003d4:	0007a303          	lw	t1,0(a5)
800003d8:	0047a583          	lw	a1,4(a5)
800003dc:	00e50533          	add	a0,a0,a4
800003e0:	00030067          	jr	t1

800003e4 <spawn_tasks_all_cb>:
800003e4:	ff010113          	addi	sp,sp,-16
800003e8:	00112623          	sw	ra,12(sp)
800003ec:	fff00793          	li	a5,-1
800003f0:	0007806b          	0x7806b
800003f4:	f0dff0ef          	jal	ra,80000300 <spawn_tasks_all_stub>
800003f8:	cc3027f3          	csrr	a5,0xcc3
800003fc:	0017b793          	seqz	a5,a5
80000400:	0007806b          	0x7806b
80000404:	00c12083          	lw	ra,12(sp)
80000408:	01010113          	addi	sp,sp,16
8000040c:	00008067          	ret

80000410 <vx_spawn_tasks>:
80000410:	fd010113          	addi	sp,sp,-48
80000414:	02112623          	sw	ra,44(sp)
80000418:	02812423          	sw	s0,40(sp)
8000041c:	02912223          	sw	s1,36(sp)
80000420:	03212023          	sw	s2,32(sp)
80000424:	fc2026f3          	csrr	a3,0xfc2
80000428:	fc1028f3          	csrr	a7,0xfc1
8000042c:	fc0024f3          	csrr	s1,0xfc0
80000430:	cc5027f3          	csrr	a5,0xcc5
80000434:	01f00713          	li	a4,31
80000438:	08f74863          	blt	a4,a5,800004c8 <vx_spawn_tasks+0xb8>
8000043c:	03148833          	mul	a6,s1,a7
80000440:	00100713          	li	a4,1
80000444:	00a85463          	bge	a6,a0,8000044c <vx_spawn_tasks+0x3c>
80000448:	03054733          	div	a4,a0,a6
8000044c:	08e6ca63          	blt	a3,a4,800004e0 <vx_spawn_tasks+0xd0>
80000450:	06e7dc63          	bge	a5,a4,800004c8 <vx_spawn_tasks+0xb8>
80000454:	fff68693          	addi	a3,a3,-1
80000458:	02e54333          	div	t1,a0,a4
8000045c:	00030813          	mv	a6,t1
80000460:	00f69663          	bne	a3,a5,8000046c <vx_spawn_tasks+0x5c>
80000464:	02e56533          	rem	a0,a0,a4
80000468:	00650833          	add	a6,a0,t1
8000046c:	02984933          	div	s2,a6,s1
80000470:	02986433          	rem	s0,a6,s1
80000474:	07194c63          	blt	s2,a7,800004ec <vx_spawn_tasks+0xdc>
80000478:	00100513          	li	a0,1
8000047c:	031946b3          	div	a3,s2,a7
80000480:	00068663          	beqz	a3,8000048c <vx_spawn_tasks+0x7c>
80000484:	00068513          	mv	a0,a3
80000488:	031966b3          	rem	a3,s2,a7
8000048c:	00001717          	auipc	a4,0x1
80000490:	fa870713          	addi	a4,a4,-88 # 80001434 <g_wspawn_args>
80000494:	00b12423          	sw	a1,8(sp)
80000498:	00c12623          	sw	a2,12(sp)
8000049c:	00a12a23          	sw	a0,20(sp)
800004a0:	00d12c23          	sw	a3,24(sp)
800004a4:	00012e23          	sw	zero,28(sp)
800004a8:	02f30333          	mul	t1,t1,a5
800004ac:	00279793          	slli	a5,a5,0x2
800004b0:	00f707b3          	add	a5,a4,a5
800004b4:	00810713          	addi	a4,sp,8
800004b8:	00e7a023          	sw	a4,0(a5)
800004bc:	00612823          	sw	t1,16(sp)
800004c0:	03204c63          	bgtz	s2,800004f8 <vx_spawn_tasks+0xe8>
800004c4:	06041663          	bnez	s0,80000530 <vx_spawn_tasks+0x120>
800004c8:	02c12083          	lw	ra,44(sp)
800004cc:	02812403          	lw	s0,40(sp)
800004d0:	02412483          	lw	s1,36(sp)
800004d4:	02012903          	lw	s2,32(sp)
800004d8:	03010113          	addi	sp,sp,48
800004dc:	00008067          	ret
800004e0:	00068713          	mv	a4,a3
800004e4:	f6e7c8e3          	blt	a5,a4,80000454 <vx_spawn_tasks+0x44>
800004e8:	fe1ff06f          	j	800004c8 <vx_spawn_tasks+0xb8>
800004ec:	00000693          	li	a3,0
800004f0:	00100513          	li	a0,1
800004f4:	f99ff06f          	j	8000048c <vx_spawn_tasks+0x7c>
800004f8:	00090793          	mv	a5,s2
800004fc:	0128d463          	bge	a7,s2,80000504 <vx_spawn_tasks+0xf4>
80000500:	00088793          	mv	a5,a7
80000504:	00f12e23          	sw	a5,28(sp)
80000508:	00000717          	auipc	a4,0x0
8000050c:	edc70713          	addi	a4,a4,-292 # 800003e4 <spawn_tasks_all_cb>
80000510:	00e7906b          	0xe7906b
80000514:	fff00793          	li	a5,-1
80000518:	0007806b          	0x7806b
8000051c:	de5ff0ef          	jal	ra,80000300 <spawn_tasks_all_stub>
80000520:	cc3027f3          	csrr	a5,0xcc3
80000524:	0017b793          	seqz	a5,a5
80000528:	0007806b          	0x7806b
8000052c:	f8040ee3          	beqz	s0,800004c8 <vx_spawn_tasks+0xb8>
80000530:	029904b3          	mul	s1,s2,s1
80000534:	00100913          	li	s2,1
80000538:	00891833          	sll	a6,s2,s0
8000053c:	fff80813          	addi	a6,a6,-1
80000540:	00912823          	sw	s1,16(sp)
80000544:	0008006b          	0x8006b
80000548:	e6dff0ef          	jal	ra,800003b4 <spawn_tasks_rem_stub>
8000054c:	0009006b          	0x9006b
80000550:	02c12083          	lw	ra,44(sp)
80000554:	02812403          	lw	s0,40(sp)
80000558:	02412483          	lw	s1,36(sp)
8000055c:	02012903          	lw	s2,32(sp)
80000560:	03010113          	addi	sp,sp,48
80000564:	00008067          	ret

80000568 <vx_perf_dump>:
80000568:	cc5027f3          	csrr	a5,0xcc5
8000056c:	00ff0737          	lui	a4,0xff0
80000570:	00e787b3          	add	a5,a5,a4
80000574:	00879793          	slli	a5,a5,0x8
80000578:	b0002773          	csrr	a4,mcycle
8000057c:	00e7a023          	sw	a4,0(a5)
80000580:	b0102773          	csrr	a4,0xb01
80000584:	00e7a223          	sw	a4,4(a5)
80000588:	b0202773          	csrr	a4,minstret
8000058c:	00e7a423          	sw	a4,8(a5)
80000590:	b0302773          	csrr	a4,mhpmcounter3
80000594:	00e7a623          	sw	a4,12(a5)
80000598:	b0402773          	csrr	a4,mhpmcounter4
8000059c:	00e7a823          	sw	a4,16(a5)
800005a0:	b0502773          	csrr	a4,mhpmcounter5
800005a4:	00e7aa23          	sw	a4,20(a5)
800005a8:	b0602773          	csrr	a4,mhpmcounter6
800005ac:	00e7ac23          	sw	a4,24(a5)
800005b0:	b0702773          	csrr	a4,mhpmcounter7
800005b4:	00e7ae23          	sw	a4,28(a5)
800005b8:	b0802773          	csrr	a4,mhpmcounter8
800005bc:	02e7a023          	sw	a4,32(a5)
800005c0:	b0902773          	csrr	a4,mhpmcounter9
800005c4:	02e7a223          	sw	a4,36(a5)
800005c8:	b0a02773          	csrr	a4,mhpmcounter10
800005cc:	02e7a423          	sw	a4,40(a5)
800005d0:	b0b02773          	csrr	a4,mhpmcounter11
800005d4:	02e7a623          	sw	a4,44(a5)
800005d8:	b0c02773          	csrr	a4,mhpmcounter12
800005dc:	02e7a823          	sw	a4,48(a5)
800005e0:	b0d02773          	csrr	a4,mhpmcounter13
800005e4:	02e7aa23          	sw	a4,52(a5)
800005e8:	b0e02773          	csrr	a4,mhpmcounter14
800005ec:	02e7ac23          	sw	a4,56(a5)
800005f0:	b0f02773          	csrr	a4,mhpmcounter15
800005f4:	02e7ae23          	sw	a4,60(a5)
800005f8:	b1002773          	csrr	a4,mhpmcounter16
800005fc:	04e7a023          	sw	a4,64(a5)
80000600:	b1102773          	csrr	a4,mhpmcounter17
80000604:	04e7a223          	sw	a4,68(a5)
80000608:	b1202773          	csrr	a4,mhpmcounter18
8000060c:	04e7a423          	sw	a4,72(a5)
80000610:	b1302773          	csrr	a4,mhpmcounter19
80000614:	04e7a623          	sw	a4,76(a5)
80000618:	b1402773          	csrr	a4,mhpmcounter20
8000061c:	04e7a823          	sw	a4,80(a5)
80000620:	b1502773          	csrr	a4,mhpmcounter21
80000624:	04e7aa23          	sw	a4,84(a5)
80000628:	b1602773          	csrr	a4,mhpmcounter22
8000062c:	04e7ac23          	sw	a4,88(a5)
80000630:	b1702773          	csrr	a4,mhpmcounter23
80000634:	04e7ae23          	sw	a4,92(a5)
80000638:	b1802773          	csrr	a4,mhpmcounter24
8000063c:	06e7a023          	sw	a4,96(a5)
80000640:	b1902773          	csrr	a4,mhpmcounter25
80000644:	06e7a223          	sw	a4,100(a5)
80000648:	b1a02773          	csrr	a4,mhpmcounter26
8000064c:	06e7a423          	sw	a4,104(a5)
80000650:	b1b02773          	csrr	a4,mhpmcounter27
80000654:	06e7a623          	sw	a4,108(a5)
80000658:	b1c02773          	csrr	a4,mhpmcounter28
8000065c:	06e7a823          	sw	a4,112(a5)
80000660:	b1d02773          	csrr	a4,mhpmcounter29
80000664:	06e7aa23          	sw	a4,116(a5)
80000668:	b1e02773          	csrr	a4,mhpmcounter30
8000066c:	06e7ac23          	sw	a4,120(a5)
80000670:	b1f02773          	csrr	a4,mhpmcounter31
80000674:	06e7ae23          	sw	a4,124(a5)
80000678:	b8002773          	csrr	a4,mcycleh
8000067c:	08e7a023          	sw	a4,128(a5)
80000680:	b8102773          	csrr	a4,0xb81
80000684:	08e7a223          	sw	a4,132(a5)
80000688:	b8202773          	csrr	a4,minstreth
8000068c:	08e7a423          	sw	a4,136(a5)
80000690:	b8302773          	csrr	a4,mhpmcounter3h
80000694:	08e7a623          	sw	a4,140(a5)
80000698:	b8402773          	csrr	a4,mhpmcounter4h
8000069c:	08e7a823          	sw	a4,144(a5)
800006a0:	b8502773          	csrr	a4,mhpmcounter5h
800006a4:	08e7aa23          	sw	a4,148(a5)
800006a8:	b8602773          	csrr	a4,mhpmcounter6h
800006ac:	08e7ac23          	sw	a4,152(a5)
800006b0:	b8702773          	csrr	a4,mhpmcounter7h
800006b4:	08e7ae23          	sw	a4,156(a5)
800006b8:	b8802773          	csrr	a4,mhpmcounter8h
800006bc:	0ae7a023          	sw	a4,160(a5)
800006c0:	b8902773          	csrr	a4,mhpmcounter9h
800006c4:	0ae7a223          	sw	a4,164(a5)
800006c8:	b8a02773          	csrr	a4,mhpmcounter10h
800006cc:	0ae7a423          	sw	a4,168(a5)
800006d0:	b8b02773          	csrr	a4,mhpmcounter11h
800006d4:	0ae7a623          	sw	a4,172(a5)
800006d8:	b8c02773          	csrr	a4,mhpmcounter12h
800006dc:	0ae7a823          	sw	a4,176(a5)
800006e0:	b8d02773          	csrr	a4,mhpmcounter13h
800006e4:	0ae7aa23          	sw	a4,180(a5)
800006e8:	b8e02773          	csrr	a4,mhpmcounter14h
800006ec:	0ae7ac23          	sw	a4,184(a5)
800006f0:	b8f02773          	csrr	a4,mhpmcounter15h
800006f4:	0ae7ae23          	sw	a4,188(a5)
800006f8:	b9002773          	csrr	a4,mhpmcounter16h
800006fc:	0ce7a023          	sw	a4,192(a5)
80000700:	b9102773          	csrr	a4,mhpmcounter17h
80000704:	0ce7a223          	sw	a4,196(a5)
80000708:	b9202773          	csrr	a4,mhpmcounter18h
8000070c:	0ce7a423          	sw	a4,200(a5)
80000710:	b9302773          	csrr	a4,mhpmcounter19h
80000714:	0ce7a623          	sw	a4,204(a5)
80000718:	b9402773          	csrr	a4,mhpmcounter20h
8000071c:	0ce7a823          	sw	a4,208(a5)
80000720:	b9502773          	csrr	a4,mhpmcounter21h
80000724:	0ce7aa23          	sw	a4,212(a5)
80000728:	b9602773          	csrr	a4,mhpmcounter22h
8000072c:	0ce7ac23          	sw	a4,216(a5)
80000730:	b9702773          	csrr	a4,mhpmcounter23h
80000734:	0ce7ae23          	sw	a4,220(a5)
80000738:	b9802773          	csrr	a4,mhpmcounter24h
8000073c:	0ee7a023          	sw	a4,224(a5)
80000740:	b9902773          	csrr	a4,mhpmcounter25h
80000744:	0ee7a223          	sw	a4,228(a5)
80000748:	b9a02773          	csrr	a4,mhpmcounter26h
8000074c:	0ee7a423          	sw	a4,232(a5)
80000750:	b9b02773          	csrr	a4,mhpmcounter27h
80000754:	0ee7a623          	sw	a4,236(a5)
80000758:	b9c02773          	csrr	a4,mhpmcounter28h
8000075c:	0ee7a823          	sw	a4,240(a5)
80000760:	b9d02773          	csrr	a4,mhpmcounter29h
80000764:	0ee7aa23          	sw	a4,244(a5)
80000768:	b9e02773          	csrr	a4,mhpmcounter30h
8000076c:	0ee7ac23          	sw	a4,248(a5)
80000770:	b9f02773          	csrr	a4,mhpmcounter31h
80000774:	0ee7ae23          	sw	a4,252(a5)
80000778:	00008067          	ret

8000077c <atexit>:
8000077c:	00050593          	mv	a1,a0
80000780:	00000693          	li	a3,0
80000784:	00000613          	li	a2,0
80000788:	00000513          	li	a0,0
8000078c:	2300006f          	j	800009bc <__register_exitproc>

80000790 <exit>:
80000790:	ff010113          	addi	sp,sp,-16
80000794:	00000593          	li	a1,0
80000798:	00812423          	sw	s0,8(sp)
8000079c:	00112623          	sw	ra,12(sp)
800007a0:	00050413          	mv	s0,a0
800007a4:	2b4000ef          	jal	ra,80000a58 <__call_exitprocs>
800007a8:	800017b7          	lui	a5,0x80001
800007ac:	4307a503          	lw	a0,1072(a5) # 80001430 <__global_pointer+0xfffffc28>
800007b0:	03c52783          	lw	a5,60(a0)
800007b4:	00078463          	beqz	a5,800007bc <exit+0x2c>
800007b8:	000780e7          	jalr	a5
800007bc:	00040513          	mv	a0,s0
800007c0:	995ff0ef          	jal	ra,80000154 <_exit>

800007c4 <memcpy>:
800007c4:	00a5c7b3          	xor	a5,a1,a0
800007c8:	0037f793          	andi	a5,a5,3
800007cc:	00c508b3          	add	a7,a0,a2
800007d0:	06079263          	bnez	a5,80000834 <memcpy+0x70>
800007d4:	00300793          	li	a5,3
800007d8:	04c7fe63          	bgeu	a5,a2,80000834 <memcpy+0x70>
800007dc:	00357793          	andi	a5,a0,3
800007e0:	00050713          	mv	a4,a0
800007e4:	06079863          	bnez	a5,80000854 <memcpy+0x90>
800007e8:	ffc8f613          	andi	a2,a7,-4
800007ec:	fe060793          	addi	a5,a2,-32
800007f0:	08f76c63          	bltu	a4,a5,80000888 <memcpy+0xc4>
800007f4:	02c77c63          	bgeu	a4,a2,8000082c <memcpy+0x68>
800007f8:	00058693          	mv	a3,a1
800007fc:	00070793          	mv	a5,a4
80000800:	0006a803          	lw	a6,0(a3)
80000804:	00478793          	addi	a5,a5,4
80000808:	00468693          	addi	a3,a3,4
8000080c:	ff07ae23          	sw	a6,-4(a5)
80000810:	fec7e8e3          	bltu	a5,a2,80000800 <memcpy+0x3c>
80000814:	fff60793          	addi	a5,a2,-1
80000818:	40e787b3          	sub	a5,a5,a4
8000081c:	ffc7f793          	andi	a5,a5,-4
80000820:	00478793          	addi	a5,a5,4
80000824:	00f70733          	add	a4,a4,a5
80000828:	00f585b3          	add	a1,a1,a5
8000082c:	01176863          	bltu	a4,a7,8000083c <memcpy+0x78>
80000830:	00008067          	ret
80000834:	00050713          	mv	a4,a0
80000838:	ff157ce3          	bgeu	a0,a7,80000830 <memcpy+0x6c>
8000083c:	0005c783          	lbu	a5,0(a1)
80000840:	00170713          	addi	a4,a4,1 # ff0001 <__stack_size+0xfefc01>
80000844:	00158593          	addi	a1,a1,1
80000848:	fef70fa3          	sb	a5,-1(a4)
8000084c:	ff1768e3          	bltu	a4,a7,8000083c <memcpy+0x78>
80000850:	00008067          	ret
80000854:	0005c683          	lbu	a3,0(a1)
80000858:	00170713          	addi	a4,a4,1
8000085c:	00377793          	andi	a5,a4,3
80000860:	fed70fa3          	sb	a3,-1(a4)
80000864:	00158593          	addi	a1,a1,1
80000868:	f80780e3          	beqz	a5,800007e8 <memcpy+0x24>
8000086c:	0005c683          	lbu	a3,0(a1)
80000870:	00170713          	addi	a4,a4,1
80000874:	00377793          	andi	a5,a4,3
80000878:	fed70fa3          	sb	a3,-1(a4)
8000087c:	00158593          	addi	a1,a1,1
80000880:	fc079ae3          	bnez	a5,80000854 <memcpy+0x90>
80000884:	f65ff06f          	j	800007e8 <memcpy+0x24>
80000888:	0045a683          	lw	a3,4(a1)
8000088c:	0005a283          	lw	t0,0(a1)
80000890:	0085af83          	lw	t6,8(a1)
80000894:	00c5af03          	lw	t5,12(a1)
80000898:	0105ae83          	lw	t4,16(a1)
8000089c:	0145ae03          	lw	t3,20(a1)
800008a0:	0185a303          	lw	t1,24(a1)
800008a4:	01c5a803          	lw	a6,28(a1)
800008a8:	00d72223          	sw	a3,4(a4)
800008ac:	0205a683          	lw	a3,32(a1)
800008b0:	00572023          	sw	t0,0(a4)
800008b4:	01f72423          	sw	t6,8(a4)
800008b8:	01e72623          	sw	t5,12(a4)
800008bc:	01d72823          	sw	t4,16(a4)
800008c0:	01c72a23          	sw	t3,20(a4)
800008c4:	00672c23          	sw	t1,24(a4)
800008c8:	01072e23          	sw	a6,28(a4)
800008cc:	02d72023          	sw	a3,32(a4)
800008d0:	02470713          	addi	a4,a4,36
800008d4:	02458593          	addi	a1,a1,36
800008d8:	faf768e3          	bltu	a4,a5,80000888 <memcpy+0xc4>
800008dc:	f19ff06f          	j	800007f4 <memcpy+0x30>

800008e0 <memset>:
800008e0:	00f00313          	li	t1,15
800008e4:	00050713          	mv	a4,a0
800008e8:	02c37e63          	bgeu	t1,a2,80000924 <memset+0x44>
800008ec:	00f77793          	andi	a5,a4,15
800008f0:	0a079063          	bnez	a5,80000990 <memset+0xb0>
800008f4:	08059263          	bnez	a1,80000978 <memset+0x98>
800008f8:	ff067693          	andi	a3,a2,-16
800008fc:	00f67613          	andi	a2,a2,15
80000900:	00e686b3          	add	a3,a3,a4
80000904:	00b72023          	sw	a1,0(a4)
80000908:	00b72223          	sw	a1,4(a4)
8000090c:	00b72423          	sw	a1,8(a4)
80000910:	00b72623          	sw	a1,12(a4)
80000914:	01070713          	addi	a4,a4,16
80000918:	fed766e3          	bltu	a4,a3,80000904 <memset+0x24>
8000091c:	00061463          	bnez	a2,80000924 <memset+0x44>
80000920:	00008067          	ret
80000924:	40c306b3          	sub	a3,t1,a2
80000928:	00269693          	slli	a3,a3,0x2
8000092c:	00000297          	auipc	t0,0x0
80000930:	005686b3          	add	a3,a3,t0
80000934:	00c68067          	jr	12(a3)
80000938:	00b70723          	sb	a1,14(a4)
8000093c:	00b706a3          	sb	a1,13(a4)
80000940:	00b70623          	sb	a1,12(a4)
80000944:	00b705a3          	sb	a1,11(a4)
80000948:	00b70523          	sb	a1,10(a4)
8000094c:	00b704a3          	sb	a1,9(a4)
80000950:	00b70423          	sb	a1,8(a4)
80000954:	00b703a3          	sb	a1,7(a4)
80000958:	00b70323          	sb	a1,6(a4)
8000095c:	00b702a3          	sb	a1,5(a4)
80000960:	00b70223          	sb	a1,4(a4)
80000964:	00b701a3          	sb	a1,3(a4)
80000968:	00b70123          	sb	a1,2(a4)
8000096c:	00b700a3          	sb	a1,1(a4)
80000970:	00b70023          	sb	a1,0(a4)
80000974:	00008067          	ret
80000978:	0ff5f593          	andi	a1,a1,255
8000097c:	00859693          	slli	a3,a1,0x8
80000980:	00d5e5b3          	or	a1,a1,a3
80000984:	01059693          	slli	a3,a1,0x10
80000988:	00d5e5b3          	or	a1,a1,a3
8000098c:	f6dff06f          	j	800008f8 <memset+0x18>
80000990:	00279693          	slli	a3,a5,0x2
80000994:	00000297          	auipc	t0,0x0
80000998:	005686b3          	add	a3,a3,t0
8000099c:	00008293          	mv	t0,ra
800009a0:	fa0680e7          	jalr	-96(a3)
800009a4:	00028093          	mv	ra,t0
800009a8:	ff078793          	addi	a5,a5,-16
800009ac:	40f70733          	sub	a4,a4,a5
800009b0:	00f60633          	add	a2,a2,a5
800009b4:	f6c378e3          	bgeu	t1,a2,80000924 <memset+0x44>
800009b8:	f3dff06f          	j	800008f4 <memset+0x14>

800009bc <__register_exitproc>:
800009bc:	800017b7          	lui	a5,0x80001
800009c0:	4307a703          	lw	a4,1072(a5) # 80001430 <__global_pointer+0xfffffc28>
800009c4:	14872783          	lw	a5,328(a4)
800009c8:	04078c63          	beqz	a5,80000a20 <__register_exitproc+0x64>
800009cc:	0047a703          	lw	a4,4(a5)
800009d0:	01f00813          	li	a6,31
800009d4:	06e84e63          	blt	a6,a4,80000a50 <__register_exitproc+0x94>
800009d8:	00271813          	slli	a6,a4,0x2
800009dc:	02050663          	beqz	a0,80000a08 <__register_exitproc+0x4c>
800009e0:	01078333          	add	t1,a5,a6
800009e4:	08c32423          	sw	a2,136(t1)
800009e8:	1887a883          	lw	a7,392(a5)
800009ec:	00100613          	li	a2,1
800009f0:	00e61633          	sll	a2,a2,a4
800009f4:	00c8e8b3          	or	a7,a7,a2
800009f8:	1917a423          	sw	a7,392(a5)
800009fc:	10d32423          	sw	a3,264(t1)
80000a00:	00200693          	li	a3,2
80000a04:	02d50463          	beq	a0,a3,80000a2c <__register_exitproc+0x70>
80000a08:	00170713          	addi	a4,a4,1
80000a0c:	00e7a223          	sw	a4,4(a5)
80000a10:	010787b3          	add	a5,a5,a6
80000a14:	00b7a423          	sw	a1,8(a5)
80000a18:	00000513          	li	a0,0
80000a1c:	00008067          	ret
80000a20:	14c70793          	addi	a5,a4,332
80000a24:	14f72423          	sw	a5,328(a4)
80000a28:	fa5ff06f          	j	800009cc <__register_exitproc+0x10>
80000a2c:	18c7a683          	lw	a3,396(a5)
80000a30:	00170713          	addi	a4,a4,1
80000a34:	00e7a223          	sw	a4,4(a5)
80000a38:	00c6e633          	or	a2,a3,a2
80000a3c:	18c7a623          	sw	a2,396(a5)
80000a40:	010787b3          	add	a5,a5,a6
80000a44:	00b7a423          	sw	a1,8(a5)
80000a48:	00000513          	li	a0,0
80000a4c:	00008067          	ret
80000a50:	fff00513          	li	a0,-1
80000a54:	00008067          	ret

80000a58 <__call_exitprocs>:
80000a58:	fd010113          	addi	sp,sp,-48
80000a5c:	800017b7          	lui	a5,0x80001
80000a60:	01412c23          	sw	s4,24(sp)
80000a64:	4307aa03          	lw	s4,1072(a5) # 80001430 <__global_pointer+0xfffffc28>
80000a68:	03212023          	sw	s2,32(sp)
80000a6c:	02112623          	sw	ra,44(sp)
80000a70:	148a2903          	lw	s2,328(s4)
80000a74:	02812423          	sw	s0,40(sp)
80000a78:	02912223          	sw	s1,36(sp)
80000a7c:	01312e23          	sw	s3,28(sp)
80000a80:	01512a23          	sw	s5,20(sp)
80000a84:	01612823          	sw	s6,16(sp)
80000a88:	01712623          	sw	s7,12(sp)
80000a8c:	01812423          	sw	s8,8(sp)
80000a90:	04090063          	beqz	s2,80000ad0 <__call_exitprocs+0x78>
80000a94:	00050b13          	mv	s6,a0
80000a98:	00058b93          	mv	s7,a1
80000a9c:	00100a93          	li	s5,1
80000aa0:	fff00993          	li	s3,-1
80000aa4:	00492483          	lw	s1,4(s2)
80000aa8:	fff48413          	addi	s0,s1,-1
80000aac:	02044263          	bltz	s0,80000ad0 <__call_exitprocs+0x78>
80000ab0:	00249493          	slli	s1,s1,0x2
80000ab4:	009904b3          	add	s1,s2,s1
80000ab8:	040b8463          	beqz	s7,80000b00 <__call_exitprocs+0xa8>
80000abc:	1044a783          	lw	a5,260(s1)
80000ac0:	05778063          	beq	a5,s7,80000b00 <__call_exitprocs+0xa8>
80000ac4:	fff40413          	addi	s0,s0,-1
80000ac8:	ffc48493          	addi	s1,s1,-4
80000acc:	ff3416e3          	bne	s0,s3,80000ab8 <__call_exitprocs+0x60>
80000ad0:	02c12083          	lw	ra,44(sp)
80000ad4:	02812403          	lw	s0,40(sp)
80000ad8:	02412483          	lw	s1,36(sp)
80000adc:	02012903          	lw	s2,32(sp)
80000ae0:	01c12983          	lw	s3,28(sp)
80000ae4:	01812a03          	lw	s4,24(sp)
80000ae8:	01412a83          	lw	s5,20(sp)
80000aec:	01012b03          	lw	s6,16(sp)
80000af0:	00c12b83          	lw	s7,12(sp)
80000af4:	00812c03          	lw	s8,8(sp)
80000af8:	03010113          	addi	sp,sp,48
80000afc:	00008067          	ret
80000b00:	00492783          	lw	a5,4(s2)
80000b04:	0044a683          	lw	a3,4(s1)
80000b08:	fff78793          	addi	a5,a5,-1
80000b0c:	04878e63          	beq	a5,s0,80000b68 <__call_exitprocs+0x110>
80000b10:	0004a223          	sw	zero,4(s1)
80000b14:	fa0688e3          	beqz	a3,80000ac4 <__call_exitprocs+0x6c>
80000b18:	18892783          	lw	a5,392(s2)
80000b1c:	008a9733          	sll	a4,s5,s0
80000b20:	00492c03          	lw	s8,4(s2)
80000b24:	00f777b3          	and	a5,a4,a5
80000b28:	02079263          	bnez	a5,80000b4c <__call_exitprocs+0xf4>
80000b2c:	000680e7          	jalr	a3
80000b30:	00492703          	lw	a4,4(s2)
80000b34:	148a2783          	lw	a5,328(s4)
80000b38:	01871463          	bne	a4,s8,80000b40 <__call_exitprocs+0xe8>
80000b3c:	f8f904e3          	beq	s2,a5,80000ac4 <__call_exitprocs+0x6c>
80000b40:	f80788e3          	beqz	a5,80000ad0 <__call_exitprocs+0x78>
80000b44:	00078913          	mv	s2,a5
80000b48:	f5dff06f          	j	80000aa4 <__call_exitprocs+0x4c>
80000b4c:	18c92783          	lw	a5,396(s2)
80000b50:	0844a583          	lw	a1,132(s1)
80000b54:	00f77733          	and	a4,a4,a5
80000b58:	00071c63          	bnez	a4,80000b70 <__call_exitprocs+0x118>
80000b5c:	000b0513          	mv	a0,s6
80000b60:	000680e7          	jalr	a3
80000b64:	fcdff06f          	j	80000b30 <__call_exitprocs+0xd8>
80000b68:	00892223          	sw	s0,4(s2)
80000b6c:	fa9ff06f          	j	80000b14 <__call_exitprocs+0xbc>
80000b70:	00058513          	mv	a0,a1
80000b74:	000680e7          	jalr	a3
80000b78:	fb9ff06f          	j	80000b30 <__call_exitprocs+0xd8>

Disassembly of section .init_array:

80001000 <__init_array_start>:
80001000:	0084                	addi	s1,sp,64
80001002:	8000                	0x8000

Disassembly of section .data:

80001008 <impure_data>:
80001008:	0000                	unimp
8000100a:	0000                	unimp
8000100c:	12f4                	addi	a3,sp,364
8000100e:	8000                	0x8000
80001010:	135c                	addi	a5,sp,420
80001012:	8000                	0x8000
80001014:	13c4                	addi	s1,sp,484
80001016:	8000                	0x8000
	...
800010b0:	0001                	nop
800010b2:	0000                	unimp
800010b4:	0000                	unimp
800010b6:	0000                	unimp
800010b8:	330e                	fld	ft6,224(sp)
800010ba:	abcd                	j	800016ac <__BSS_END__+0x1f8>
800010bc:	1234                	addi	a3,sp,296
800010be:	e66d                	bnez	a2,800011a8 <impure_data+0x1a0>
800010c0:	deec                	sw	a1,124(a3)
800010c2:	0005                	c.nop	1
800010c4:	0000000b          	0xb
	...

Disassembly of section .sdata:

80001430 <_global_impure_ptr>:
80001430:	1008                	addi	a0,sp,32
80001432:	8000                	0x8000

Disassembly of section .bss:

80001434 <g_wspawn_args>:
	...

Disassembly of section .comment:

00000000 <.comment>:
   0:	3a434347          	fmsub.d	ft6,ft6,ft4,ft7,rmm
   4:	2820                	fld	fs0,80(s0)
   6:	29554e47          	fmsub.s	ft8,fa0,fs5,ft5,rmm
   a:	3920                	fld	fs0,112(a0)
   c:	322e                	fld	ft4,232(sp)
   e:	302e                	fld	ft0,232(sp)
	...

Disassembly of section .riscv.attributes:

00000000 <.riscv.attributes>:
   0:	2541                	jal	680 <__stack_size+0x280>
   2:	0000                	unimp
   4:	7200                	flw	fs0,32(a2)
   6:	7369                	lui	t1,0xffffa
   8:	01007663          	bgeu	zero,a6,14 <__stack_usage+0x14>
   c:	0000001b          	0x1b
  10:	1004                	addi	s1,sp,32
  12:	7205                	lui	tp,0xfffe1
  14:	3376                	fld	ft6,376(sp)
  16:	6932                	flw	fs2,12(sp)
  18:	7032                	flw	ft0,44(sp)
  1a:	5f30                	lw	a2,120(a4)
  1c:	326d                	jal	fffff9c6 <__global_pointer+0x7fffe1be>
  1e:	3070                	fld	fa2,224(s0)
  20:	665f 7032 0030      	0x307032665f
