
kernel.elf:     file format elf32-littleriscv


Disassembly of section .init:

80000000 <_start>:
80000000:	00000597          	auipc	a1,0x0
80000004:	17458593          	addi	a1,a1,372 # 80000174 <vx_set_sp>
80000008:	fc102573          	csrr	a0,0xfc1
8000000c:	00b5106b          	0xb5106b
80000010:	164000ef          	jal	ra,80000174 <vx_set_sp>
80000014:	00100513          	li	a0,1
80000018:	0005006b          	0x5006b
8000001c:	00002517          	auipc	a0,0x2
80000020:	dc050513          	addi	a0,a0,-576 # 80001ddc <g_wspawn_args>
80000024:	00002617          	auipc	a2,0x2
80000028:	e3860613          	addi	a2,a2,-456 # 80001e5c <__BSS_END__>
8000002c:	40a60633          	sub	a2,a2,a0
80000030:	00000593          	li	a1,0
80000034:	6d8000ef          	jal	ra,8000070c <memset>
80000038:	00000517          	auipc	a0,0x0
8000003c:	5dc50513          	addi	a0,a0,1500 # 80000614 <__libc_fini_array>
80000040:	58c000ef          	jal	ra,800005cc <atexit>
80000044:	62c000ef          	jal	ra,80000670 <__libc_init_array>
80000048:	008000ef          	jal	ra,80000050 <main>
8000004c:	5940006f          	j	800005e0 <exit>

Disassembly of section .text:

80000050 <main>:
80000050:	7ffff7b7          	lui	a5,0x7ffff
80000054:	0007a503          	lw	a0,0(a5) # 7ffff000 <__stack_size+0x7fffec00>
80000058:	800005b7          	lui	a1,0x80000
8000005c:	7ffff637          	lui	a2,0x7ffff
80000060:	08058593          	addi	a1,a1,128 # 80000080 <__stack_top+0x81000080>
80000064:	20c0006f          	j	80000270 <vx_spawn_tasks>

80000068 <register_fini>:
80000068:	00000793          	li	a5,0
8000006c:	00078863          	beqz	a5,8000007c <register_fini+0x14>
80000070:	80000537          	lui	a0,0x80000
80000074:	61450513          	addi	a0,a0,1556 # 80000614 <__stack_top+0x81000614>
80000078:	5540006f          	j	800005cc <atexit>
8000007c:	00008067          	ret

80000080 <kernel_body>:
80000080:	0085a783          	lw	a5,8(a1)
80000084:	00c5a603          	lw	a2,12(a1)
80000088:	0105a703          	lw	a4,16(a1)
8000008c:	02f506b3          	mul	a3,a0,a5
80000090:	0145a883          	lw	a7,20(a1)
80000094:	0c078863          	beqz	a5,80000164 <kernel_body+0xe4>
80000098:	00d78833          	add	a6,a5,a3
8000009c:	f0000653          	fmv.w.x	fa2,zero
800000a0:	00269693          	slli	a3,a3,0x2
800000a4:	00281813          	slli	a6,a6,0x2
800000a8:	00c686b3          	add	a3,a3,a2
800000ac:	00c80833          	add	a6,a6,a2
800000b0:	40c888b3          	sub	a7,a7,a2
800000b4:	0006a583          	lw	a1,0(a3)
800000b8:	0086a603          	lw	a2,8(a3)
800000bc:	00c6a503          	lw	a0,12(a3)
800000c0:	00259593          	slli	a1,a1,0x2
800000c4:	00b705b3          	add	a1,a4,a1
800000c8:	0005a787          	flw	fa5,0(a1)
800000cc:	0046a583          	lw	a1,4(a3)
800000d0:	00261613          	slli	a2,a2,0x2
800000d4:	10f677d3          	fmul.s	fa5,fa2,fa5
800000d8:	00259593          	slli	a1,a1,0x2
800000dc:	00b705b3          	add	a1,a4,a1
800000e0:	0005a687          	flw	fa3,0(a1)
800000e4:	00c70633          	add	a2,a4,a2
800000e8:	00062707          	flw	fa4,0(a2) # 7ffff000 <__stack_size+0x7fffec00>
800000ec:	10d7f7d3          	fmul.s	fa5,fa5,fa3
800000f0:	00251513          	slli	a0,a0,0x2
800000f4:	00a70533          	add	a0,a4,a0
800000f8:	0106a583          	lw	a1,16(a3)
800000fc:	0146a603          	lw	a2,20(a3)
80000100:	10e7f7d3          	fmul.s	fa5,fa5,fa4
80000104:	00052707          	flw	fa4,0(a0)
80000108:	00259593          	slli	a1,a1,0x2
8000010c:	00b705b3          	add	a1,a4,a1
80000110:	0005a687          	flw	fa3,0(a1)
80000114:	10e7f7d3          	fmul.s	fa5,fa5,fa4
80000118:	00261613          	slli	a2,a2,0x2
8000011c:	00c70633          	add	a2,a4,a2
80000120:	00062707          	flw	fa4,0(a2)
80000124:	0186a583          	lw	a1,24(a3)
80000128:	10d7f7d3          	fmul.s	fa5,fa5,fa3
8000012c:	01c6a603          	lw	a2,28(a3)
80000130:	00259593          	slli	a1,a1,0x2
80000134:	00b705b3          	add	a1,a4,a1
80000138:	00261613          	slli	a2,a2,0x2
8000013c:	10e7f7d3          	fmul.s	fa5,fa5,fa4
80000140:	0005a707          	flw	fa4,0(a1)
80000144:	00c70633          	add	a2,a4,a2
80000148:	00d887b3          	add	a5,a7,a3
8000014c:	00468693          	addi	a3,a3,4
80000150:	10e7f7d3          	fmul.s	fa5,fa5,fa4
80000154:	00062707          	flw	fa4,0(a2)
80000158:	10f777d3          	fmul.s	fa5,fa4,fa5
8000015c:	00f7a027          	fsw	fa5,0(a5)
80000160:	f4d81ae3          	bne	a6,a3,800000b4 <kernel_body+0x34>
80000164:	00008067          	ret

80000168 <_exit>:
80000168:	250000ef          	jal	ra,800003b8 <vx_perf_dump>
8000016c:	00000513          	li	a0,0
80000170:	0005006b          	0x5006b

80000174 <vx_set_sp>:
80000174:	fc002573          	csrr	a0,0xfc0
80000178:	0005006b          	0x5006b
8000017c:	00002197          	auipc	gp,0x2
80000180:	03418193          	addi	gp,gp,52 # 800021b0 <__global_pointer>
80000184:	7f000117          	auipc	sp,0x7f000
80000188:	e7c10113          	addi	sp,sp,-388 # ff000000 <__stack_top>
8000018c:	40000593          	li	a1,1024
80000190:	cc102673          	csrr	a2,0xcc1
80000194:	02c585b3          	mul	a1,a1,a2
80000198:	40b10133          	sub	sp,sp,a1
8000019c:	cc3026f3          	csrr	a3,0xcc3
800001a0:	00068663          	beqz	a3,800001ac <RETURN>
800001a4:	00000513          	li	a0,0
800001a8:	0005006b          	0x5006b

800001ac <RETURN>:
800001ac:	00008067          	ret

800001b0 <spawn_tasks_callback>:
800001b0:	fe010113          	addi	sp,sp,-32
800001b4:	00112e23          	sw	ra,28(sp)
800001b8:	00812c23          	sw	s0,24(sp)
800001bc:	00912a23          	sw	s1,20(sp)
800001c0:	01212823          	sw	s2,16(sp)
800001c4:	01312623          	sw	s3,12(sp)
800001c8:	fc0027f3          	csrr	a5,0xfc0
800001cc:	0007806b          	0x7806b
800001d0:	cc5026f3          	csrr	a3,0xcc5
800001d4:	cc3029f3          	csrr	s3,0xcc3
800001d8:	cc002773          	csrr	a4,0xcc0
800001dc:	fc002673          	csrr	a2,0xfc0
800001e0:	800027b7          	lui	a5,0x80002
800001e4:	00269693          	slli	a3,a3,0x2
800001e8:	ddc78793          	addi	a5,a5,-548 # 80001ddc <__stack_top+0x81001ddc>
800001ec:	00d787b3          	add	a5,a5,a3
800001f0:	0007a483          	lw	s1,0(a5)
800001f4:	0104a403          	lw	s0,16(s1)
800001f8:	00c4a683          	lw	a3,12(s1)
800001fc:	0089a933          	slt	s2,s3,s0
80000200:	00040793          	mv	a5,s0
80000204:	00d90933          	add	s2,s2,a3
80000208:	03368433          	mul	s0,a3,s3
8000020c:	00f9d463          	bge	s3,a5,80000214 <spawn_tasks_callback+0x64>
80000210:	00098793          	mv	a5,s3
80000214:	00f40433          	add	s0,s0,a5
80000218:	0084a683          	lw	a3,8(s1)
8000021c:	02c40433          	mul	s0,s0,a2
80000220:	02e907b3          	mul	a5,s2,a4
80000224:	00d40433          	add	s0,s0,a3
80000228:	00f40433          	add	s0,s0,a5
8000022c:	00890933          	add	s2,s2,s0
80000230:	01245e63          	bge	s0,s2,8000024c <spawn_tasks_callback+0x9c>
80000234:	0004a783          	lw	a5,0(s1)
80000238:	0044a583          	lw	a1,4(s1)
8000023c:	00040513          	mv	a0,s0
80000240:	00140413          	addi	s0,s0,1
80000244:	000780e7          	jalr	a5
80000248:	fe8916e3          	bne	s2,s0,80000234 <spawn_tasks_callback+0x84>
8000024c:	0019b993          	seqz	s3,s3
80000250:	0009806b          	0x9806b
80000254:	01c12083          	lw	ra,28(sp)
80000258:	01812403          	lw	s0,24(sp)
8000025c:	01412483          	lw	s1,20(sp)
80000260:	01012903          	lw	s2,16(sp)
80000264:	00c12983          	lw	s3,12(sp)
80000268:	02010113          	addi	sp,sp,32
8000026c:	00008067          	ret

80000270 <vx_spawn_tasks>:
80000270:	fc010113          	addi	sp,sp,-64
80000274:	02112e23          	sw	ra,60(sp)
80000278:	02812c23          	sw	s0,56(sp)
8000027c:	02912a23          	sw	s1,52(sp)
80000280:	03212823          	sw	s2,48(sp)
80000284:	03312623          	sw	s3,44(sp)
80000288:	fc2026f3          	csrr	a3,0xfc2
8000028c:	fc102873          	csrr	a6,0xfc1
80000290:	fc002473          	csrr	s0,0xfc0
80000294:	cc5027f3          	csrr	a5,0xcc5
80000298:	01f00713          	li	a4,31
8000029c:	0cf74463          	blt	a4,a5,80000364 <vx_spawn_tasks+0xf4>
800002a0:	030408b3          	mul	a7,s0,a6
800002a4:	00100713          	li	a4,1
800002a8:	00a8d463          	bge	a7,a0,800002b0 <vx_spawn_tasks+0x40>
800002ac:	03154733          	div	a4,a0,a7
800002b0:	0ce6c863          	blt	a3,a4,80000380 <vx_spawn_tasks+0x110>
800002b4:	0ae7d863          	bge	a5,a4,80000364 <vx_spawn_tasks+0xf4>
800002b8:	fff68693          	addi	a3,a3,-1
800002bc:	02e54333          	div	t1,a0,a4
800002c0:	00030893          	mv	a7,t1
800002c4:	00f69663          	bne	a3,a5,800002d0 <vx_spawn_tasks+0x60>
800002c8:	02e56533          	rem	a0,a0,a4
800002cc:	006508b3          	add	a7,a0,t1
800002d0:	0288c4b3          	div	s1,a7,s0
800002d4:	0288e933          	rem	s2,a7,s0
800002d8:	0b04ca63          	blt	s1,a6,8000038c <vx_spawn_tasks+0x11c>
800002dc:	00100693          	li	a3,1
800002e0:	0304c733          	div	a4,s1,a6
800002e4:	00070663          	beqz	a4,800002f0 <vx_spawn_tasks+0x80>
800002e8:	00070693          	mv	a3,a4
800002ec:	0304e733          	rem	a4,s1,a6
800002f0:	800029b7          	lui	s3,0x80002
800002f4:	ddc98993          	addi	s3,s3,-548 # 80001ddc <__stack_top+0x81001ddc>
800002f8:	00e12e23          	sw	a4,28(sp)
800002fc:	00c10713          	addi	a4,sp,12
80000300:	00b12623          	sw	a1,12(sp)
80000304:	00c12823          	sw	a2,16(sp)
80000308:	00d12c23          	sw	a3,24(sp)
8000030c:	02f30333          	mul	t1,t1,a5
80000310:	00279793          	slli	a5,a5,0x2
80000314:	00f987b3          	add	a5,s3,a5
80000318:	00e7a023          	sw	a4,0(a5)
8000031c:	00612a23          	sw	t1,20(sp)
80000320:	06904c63          	bgtz	s1,80000398 <vx_spawn_tasks+0x128>
80000324:	04090063          	beqz	s2,80000364 <vx_spawn_tasks+0xf4>
80000328:	02848433          	mul	s0,s1,s0
8000032c:	00812a23          	sw	s0,20(sp)
80000330:	0009006b          	0x9006b
80000334:	cc5027f3          	csrr	a5,0xcc5
80000338:	cc202573          	csrr	a0,0xcc2
8000033c:	00279793          	slli	a5,a5,0x2
80000340:	00f989b3          	add	s3,s3,a5
80000344:	0009a783          	lw	a5,0(s3)
80000348:	0087a683          	lw	a3,8(a5)
8000034c:	0007a703          	lw	a4,0(a5)
80000350:	0047a583          	lw	a1,4(a5)
80000354:	00d50533          	add	a0,a0,a3
80000358:	000700e7          	jalr	a4
8000035c:	00100793          	li	a5,1
80000360:	0007806b          	0x7806b
80000364:	03c12083          	lw	ra,60(sp)
80000368:	03812403          	lw	s0,56(sp)
8000036c:	03412483          	lw	s1,52(sp)
80000370:	03012903          	lw	s2,48(sp)
80000374:	02c12983          	lw	s3,44(sp)
80000378:	04010113          	addi	sp,sp,64
8000037c:	00008067          	ret
80000380:	00068713          	mv	a4,a3
80000384:	f2e7cae3          	blt	a5,a4,800002b8 <vx_spawn_tasks+0x48>
80000388:	fddff06f          	j	80000364 <vx_spawn_tasks+0xf4>
8000038c:	00000713          	li	a4,0
80000390:	00100693          	li	a3,1
80000394:	f5dff06f          	j	800002f0 <vx_spawn_tasks+0x80>
80000398:	00048713          	mv	a4,s1
8000039c:	00985463          	bge	a6,s1,800003a4 <vx_spawn_tasks+0x134>
800003a0:	00080713          	mv	a4,a6
800003a4:	800007b7          	lui	a5,0x80000
800003a8:	1b078793          	addi	a5,a5,432 # 800001b0 <__stack_top+0x810001b0>
800003ac:	00f7106b          	0xf7106b
800003b0:	e01ff0ef          	jal	ra,800001b0 <spawn_tasks_callback>
800003b4:	f71ff06f          	j	80000324 <vx_spawn_tasks+0xb4>

800003b8 <vx_perf_dump>:
800003b8:	cc5027f3          	csrr	a5,0xcc5
800003bc:	00ff0737          	lui	a4,0xff0
800003c0:	00e787b3          	add	a5,a5,a4
800003c4:	00879793          	slli	a5,a5,0x8
800003c8:	b0002773          	csrr	a4,mcycle
800003cc:	00e7a023          	sw	a4,0(a5)
800003d0:	b0102773          	csrr	a4,0xb01
800003d4:	00e7a223          	sw	a4,4(a5)
800003d8:	b0202773          	csrr	a4,minstret
800003dc:	00e7a423          	sw	a4,8(a5)
800003e0:	b0302773          	csrr	a4,mhpmcounter3
800003e4:	00e7a623          	sw	a4,12(a5)
800003e8:	b0402773          	csrr	a4,mhpmcounter4
800003ec:	00e7a823          	sw	a4,16(a5)
800003f0:	b0502773          	csrr	a4,mhpmcounter5
800003f4:	00e7aa23          	sw	a4,20(a5)
800003f8:	b0602773          	csrr	a4,mhpmcounter6
800003fc:	00e7ac23          	sw	a4,24(a5)
80000400:	b0702773          	csrr	a4,mhpmcounter7
80000404:	00e7ae23          	sw	a4,28(a5)
80000408:	b0802773          	csrr	a4,mhpmcounter8
8000040c:	02e7a023          	sw	a4,32(a5)
80000410:	b0902773          	csrr	a4,mhpmcounter9
80000414:	02e7a223          	sw	a4,36(a5)
80000418:	b0a02773          	csrr	a4,mhpmcounter10
8000041c:	02e7a423          	sw	a4,40(a5)
80000420:	b0b02773          	csrr	a4,mhpmcounter11
80000424:	02e7a623          	sw	a4,44(a5)
80000428:	b0c02773          	csrr	a4,mhpmcounter12
8000042c:	02e7a823          	sw	a4,48(a5)
80000430:	b0d02773          	csrr	a4,mhpmcounter13
80000434:	02e7aa23          	sw	a4,52(a5)
80000438:	b0e02773          	csrr	a4,mhpmcounter14
8000043c:	02e7ac23          	sw	a4,56(a5)
80000440:	b0f02773          	csrr	a4,mhpmcounter15
80000444:	02e7ae23          	sw	a4,60(a5)
80000448:	b1002773          	csrr	a4,mhpmcounter16
8000044c:	04e7a023          	sw	a4,64(a5)
80000450:	b1102773          	csrr	a4,mhpmcounter17
80000454:	04e7a223          	sw	a4,68(a5)
80000458:	b1202773          	csrr	a4,mhpmcounter18
8000045c:	04e7a423          	sw	a4,72(a5)
80000460:	b1302773          	csrr	a4,mhpmcounter19
80000464:	04e7a623          	sw	a4,76(a5)
80000468:	b1402773          	csrr	a4,mhpmcounter20
8000046c:	04e7a823          	sw	a4,80(a5)
80000470:	b1502773          	csrr	a4,mhpmcounter21
80000474:	04e7aa23          	sw	a4,84(a5)
80000478:	b1602773          	csrr	a4,mhpmcounter22
8000047c:	04e7ac23          	sw	a4,88(a5)
80000480:	b1702773          	csrr	a4,mhpmcounter23
80000484:	04e7ae23          	sw	a4,92(a5)
80000488:	b1802773          	csrr	a4,mhpmcounter24
8000048c:	06e7a023          	sw	a4,96(a5)
80000490:	b1902773          	csrr	a4,mhpmcounter25
80000494:	06e7a223          	sw	a4,100(a5)
80000498:	b1a02773          	csrr	a4,mhpmcounter26
8000049c:	06e7a423          	sw	a4,104(a5)
800004a0:	b1b02773          	csrr	a4,mhpmcounter27
800004a4:	06e7a623          	sw	a4,108(a5)
800004a8:	b1c02773          	csrr	a4,mhpmcounter28
800004ac:	06e7a823          	sw	a4,112(a5)
800004b0:	b1d02773          	csrr	a4,mhpmcounter29
800004b4:	06e7aa23          	sw	a4,116(a5)
800004b8:	b1e02773          	csrr	a4,mhpmcounter30
800004bc:	06e7ac23          	sw	a4,120(a5)
800004c0:	b1f02773          	csrr	a4,mhpmcounter31
800004c4:	06e7ae23          	sw	a4,124(a5)
800004c8:	b8002773          	csrr	a4,mcycleh
800004cc:	08e7a023          	sw	a4,128(a5)
800004d0:	b8102773          	csrr	a4,0xb81
800004d4:	08e7a223          	sw	a4,132(a5)
800004d8:	b8202773          	csrr	a4,minstreth
800004dc:	08e7a423          	sw	a4,136(a5)
800004e0:	b8302773          	csrr	a4,mhpmcounter3h
800004e4:	08e7a623          	sw	a4,140(a5)
800004e8:	b8402773          	csrr	a4,mhpmcounter4h
800004ec:	08e7a823          	sw	a4,144(a5)
800004f0:	b8502773          	csrr	a4,mhpmcounter5h
800004f4:	08e7aa23          	sw	a4,148(a5)
800004f8:	b8602773          	csrr	a4,mhpmcounter6h
800004fc:	08e7ac23          	sw	a4,152(a5)
80000500:	b8702773          	csrr	a4,mhpmcounter7h
80000504:	08e7ae23          	sw	a4,156(a5)
80000508:	b8802773          	csrr	a4,mhpmcounter8h
8000050c:	0ae7a023          	sw	a4,160(a5)
80000510:	b8902773          	csrr	a4,mhpmcounter9h
80000514:	0ae7a223          	sw	a4,164(a5)
80000518:	b8a02773          	csrr	a4,mhpmcounter10h
8000051c:	0ae7a423          	sw	a4,168(a5)
80000520:	b8b02773          	csrr	a4,mhpmcounter11h
80000524:	0ae7a623          	sw	a4,172(a5)
80000528:	b8c02773          	csrr	a4,mhpmcounter12h
8000052c:	0ae7a823          	sw	a4,176(a5)
80000530:	b8d02773          	csrr	a4,mhpmcounter13h
80000534:	0ae7aa23          	sw	a4,180(a5)
80000538:	b8e02773          	csrr	a4,mhpmcounter14h
8000053c:	0ae7ac23          	sw	a4,184(a5)
80000540:	b8f02773          	csrr	a4,mhpmcounter15h
80000544:	0ae7ae23          	sw	a4,188(a5)
80000548:	b9002773          	csrr	a4,mhpmcounter16h
8000054c:	0ce7a023          	sw	a4,192(a5)
80000550:	b9102773          	csrr	a4,mhpmcounter17h
80000554:	0ce7a223          	sw	a4,196(a5)
80000558:	b9202773          	csrr	a4,mhpmcounter18h
8000055c:	0ce7a423          	sw	a4,200(a5)
80000560:	b9302773          	csrr	a4,mhpmcounter19h
80000564:	0ce7a623          	sw	a4,204(a5)
80000568:	b9402773          	csrr	a4,mhpmcounter20h
8000056c:	0ce7a823          	sw	a4,208(a5)
80000570:	b9502773          	csrr	a4,mhpmcounter21h
80000574:	0ce7aa23          	sw	a4,212(a5)
80000578:	b9602773          	csrr	a4,mhpmcounter22h
8000057c:	0ce7ac23          	sw	a4,216(a5)
80000580:	b9702773          	csrr	a4,mhpmcounter23h
80000584:	0ce7ae23          	sw	a4,220(a5)
80000588:	b9802773          	csrr	a4,mhpmcounter24h
8000058c:	0ee7a023          	sw	a4,224(a5)
80000590:	b9902773          	csrr	a4,mhpmcounter25h
80000594:	0ee7a223          	sw	a4,228(a5)
80000598:	b9a02773          	csrr	a4,mhpmcounter26h
8000059c:	0ee7a423          	sw	a4,232(a5)
800005a0:	b9b02773          	csrr	a4,mhpmcounter27h
800005a4:	0ee7a623          	sw	a4,236(a5)
800005a8:	b9c02773          	csrr	a4,mhpmcounter28h
800005ac:	0ee7a823          	sw	a4,240(a5)
800005b0:	b9d02773          	csrr	a4,mhpmcounter29h
800005b4:	0ee7aa23          	sw	a4,244(a5)
800005b8:	b9e02773          	csrr	a4,mhpmcounter30h
800005bc:	0ee7ac23          	sw	a4,248(a5)
800005c0:	b9f02773          	csrr	a4,mhpmcounter31h
800005c4:	0ee7ae23          	sw	a4,252(a5)
800005c8:	00008067          	ret

800005cc <atexit>:
800005cc:	00050593          	mv	a1,a0
800005d0:	00000693          	li	a3,0
800005d4:	00000613          	li	a2,0
800005d8:	00000513          	li	a0,0
800005dc:	20c0006f          	j	800007e8 <__register_exitproc>

800005e0 <exit>:
800005e0:	ff010113          	addi	sp,sp,-16
800005e4:	00000593          	li	a1,0
800005e8:	00812423          	sw	s0,8(sp)
800005ec:	00112623          	sw	ra,12(sp)
800005f0:	00050413          	mv	s0,a0
800005f4:	290000ef          	jal	ra,80000884 <__call_exitprocs>
800005f8:	800027b7          	lui	a5,0x80002
800005fc:	dd87a503          	lw	a0,-552(a5) # 80001dd8 <__stack_top+0x81001dd8>
80000600:	03c52783          	lw	a5,60(a0)
80000604:	00078463          	beqz	a5,8000060c <exit+0x2c>
80000608:	000780e7          	jalr	a5
8000060c:	00040513          	mv	a0,s0
80000610:	b59ff0ef          	jal	ra,80000168 <_exit>

80000614 <__libc_fini_array>:
80000614:	ff010113          	addi	sp,sp,-16
80000618:	00812423          	sw	s0,8(sp)
8000061c:	800027b7          	lui	a5,0x80002
80000620:	80002437          	lui	s0,0x80002
80000624:	9ac40413          	addi	s0,s0,-1620 # 800019ac <__stack_top+0x810019ac>
80000628:	9ac78793          	addi	a5,a5,-1620 # 800019ac <__stack_top+0x810019ac>
8000062c:	408787b3          	sub	a5,a5,s0
80000630:	00912223          	sw	s1,4(sp)
80000634:	00112623          	sw	ra,12(sp)
80000638:	4027d493          	srai	s1,a5,0x2
8000063c:	02048063          	beqz	s1,8000065c <__libc_fini_array+0x48>
80000640:	ffc78793          	addi	a5,a5,-4
80000644:	00878433          	add	s0,a5,s0
80000648:	00042783          	lw	a5,0(s0)
8000064c:	fff48493          	addi	s1,s1,-1
80000650:	ffc40413          	addi	s0,s0,-4
80000654:	000780e7          	jalr	a5
80000658:	fe0498e3          	bnez	s1,80000648 <__libc_fini_array+0x34>
8000065c:	00c12083          	lw	ra,12(sp)
80000660:	00812403          	lw	s0,8(sp)
80000664:	00412483          	lw	s1,4(sp)
80000668:	01010113          	addi	sp,sp,16
8000066c:	00008067          	ret

80000670 <__libc_init_array>:
80000670:	ff010113          	addi	sp,sp,-16
80000674:	00812423          	sw	s0,8(sp)
80000678:	01212023          	sw	s2,0(sp)
8000067c:	80002437          	lui	s0,0x80002
80000680:	80002937          	lui	s2,0x80002
80000684:	9a840793          	addi	a5,s0,-1624 # 800019a8 <__stack_top+0x810019a8>
80000688:	9a890913          	addi	s2,s2,-1624 # 800019a8 <__stack_top+0x810019a8>
8000068c:	40f90933          	sub	s2,s2,a5
80000690:	00112623          	sw	ra,12(sp)
80000694:	00912223          	sw	s1,4(sp)
80000698:	40295913          	srai	s2,s2,0x2
8000069c:	02090063          	beqz	s2,800006bc <__libc_init_array+0x4c>
800006a0:	9a840413          	addi	s0,s0,-1624
800006a4:	00000493          	li	s1,0
800006a8:	00042783          	lw	a5,0(s0)
800006ac:	00148493          	addi	s1,s1,1
800006b0:	00440413          	addi	s0,s0,4
800006b4:	000780e7          	jalr	a5
800006b8:	fe9918e3          	bne	s2,s1,800006a8 <__libc_init_array+0x38>
800006bc:	80002437          	lui	s0,0x80002
800006c0:	80002937          	lui	s2,0x80002
800006c4:	9a840793          	addi	a5,s0,-1624 # 800019a8 <__stack_top+0x810019a8>
800006c8:	9ac90913          	addi	s2,s2,-1620 # 800019ac <__stack_top+0x810019ac>
800006cc:	40f90933          	sub	s2,s2,a5
800006d0:	40295913          	srai	s2,s2,0x2
800006d4:	02090063          	beqz	s2,800006f4 <__libc_init_array+0x84>
800006d8:	9a840413          	addi	s0,s0,-1624
800006dc:	00000493          	li	s1,0
800006e0:	00042783          	lw	a5,0(s0)
800006e4:	00148493          	addi	s1,s1,1
800006e8:	00440413          	addi	s0,s0,4
800006ec:	000780e7          	jalr	a5
800006f0:	fe9918e3          	bne	s2,s1,800006e0 <__libc_init_array+0x70>
800006f4:	00c12083          	lw	ra,12(sp)
800006f8:	00812403          	lw	s0,8(sp)
800006fc:	00412483          	lw	s1,4(sp)
80000700:	00012903          	lw	s2,0(sp)
80000704:	01010113          	addi	sp,sp,16
80000708:	00008067          	ret

8000070c <memset>:
8000070c:	00f00313          	li	t1,15
80000710:	00050713          	mv	a4,a0
80000714:	02c37e63          	bgeu	t1,a2,80000750 <memset+0x44>
80000718:	00f77793          	andi	a5,a4,15
8000071c:	0a079063          	bnez	a5,800007bc <memset+0xb0>
80000720:	08059263          	bnez	a1,800007a4 <memset+0x98>
80000724:	ff067693          	andi	a3,a2,-16
80000728:	00f67613          	andi	a2,a2,15
8000072c:	00e686b3          	add	a3,a3,a4
80000730:	00b72023          	sw	a1,0(a4) # ff0000 <__stack_size+0xfefc00>
80000734:	00b72223          	sw	a1,4(a4)
80000738:	00b72423          	sw	a1,8(a4)
8000073c:	00b72623          	sw	a1,12(a4)
80000740:	01070713          	addi	a4,a4,16
80000744:	fed766e3          	bltu	a4,a3,80000730 <memset+0x24>
80000748:	00061463          	bnez	a2,80000750 <memset+0x44>
8000074c:	00008067          	ret
80000750:	40c306b3          	sub	a3,t1,a2
80000754:	00269693          	slli	a3,a3,0x2
80000758:	00000297          	auipc	t0,0x0
8000075c:	005686b3          	add	a3,a3,t0
80000760:	00c68067          	jr	12(a3)
80000764:	00b70723          	sb	a1,14(a4)
80000768:	00b706a3          	sb	a1,13(a4)
8000076c:	00b70623          	sb	a1,12(a4)
80000770:	00b705a3          	sb	a1,11(a4)
80000774:	00b70523          	sb	a1,10(a4)
80000778:	00b704a3          	sb	a1,9(a4)
8000077c:	00b70423          	sb	a1,8(a4)
80000780:	00b703a3          	sb	a1,7(a4)
80000784:	00b70323          	sb	a1,6(a4)
80000788:	00b702a3          	sb	a1,5(a4)
8000078c:	00b70223          	sb	a1,4(a4)
80000790:	00b701a3          	sb	a1,3(a4)
80000794:	00b70123          	sb	a1,2(a4)
80000798:	00b700a3          	sb	a1,1(a4)
8000079c:	00b70023          	sb	a1,0(a4)
800007a0:	00008067          	ret
800007a4:	0ff5f593          	andi	a1,a1,255
800007a8:	00859693          	slli	a3,a1,0x8
800007ac:	00d5e5b3          	or	a1,a1,a3
800007b0:	01059693          	slli	a3,a1,0x10
800007b4:	00d5e5b3          	or	a1,a1,a3
800007b8:	f6dff06f          	j	80000724 <memset+0x18>
800007bc:	00279693          	slli	a3,a5,0x2
800007c0:	00000297          	auipc	t0,0x0
800007c4:	005686b3          	add	a3,a3,t0
800007c8:	00008293          	mv	t0,ra
800007cc:	fa0680e7          	jalr	-96(a3)
800007d0:	00028093          	mv	ra,t0
800007d4:	ff078793          	addi	a5,a5,-16
800007d8:	40f70733          	sub	a4,a4,a5
800007dc:	00f60633          	add	a2,a2,a5
800007e0:	f6c378e3          	bgeu	t1,a2,80000750 <memset+0x44>
800007e4:	f3dff06f          	j	80000720 <memset+0x14>

800007e8 <__register_exitproc>:
800007e8:	800027b7          	lui	a5,0x80002
800007ec:	dd87a703          	lw	a4,-552(a5) # 80001dd8 <__stack_top+0x81001dd8>
800007f0:	14872783          	lw	a5,328(a4)
800007f4:	04078c63          	beqz	a5,8000084c <__register_exitproc+0x64>
800007f8:	0047a703          	lw	a4,4(a5)
800007fc:	01f00813          	li	a6,31
80000800:	06e84e63          	blt	a6,a4,8000087c <__register_exitproc+0x94>
80000804:	00271813          	slli	a6,a4,0x2
80000808:	02050663          	beqz	a0,80000834 <__register_exitproc+0x4c>
8000080c:	01078333          	add	t1,a5,a6
80000810:	08c32423          	sw	a2,136(t1)
80000814:	1887a883          	lw	a7,392(a5)
80000818:	00100613          	li	a2,1
8000081c:	00e61633          	sll	a2,a2,a4
80000820:	00c8e8b3          	or	a7,a7,a2
80000824:	1917a423          	sw	a7,392(a5)
80000828:	10d32423          	sw	a3,264(t1)
8000082c:	00200693          	li	a3,2
80000830:	02d50463          	beq	a0,a3,80000858 <__register_exitproc+0x70>
80000834:	00170713          	addi	a4,a4,1
80000838:	00e7a223          	sw	a4,4(a5)
8000083c:	010787b3          	add	a5,a5,a6
80000840:	00b7a423          	sw	a1,8(a5)
80000844:	00000513          	li	a0,0
80000848:	00008067          	ret
8000084c:	14c70793          	addi	a5,a4,332
80000850:	14f72423          	sw	a5,328(a4)
80000854:	fa5ff06f          	j	800007f8 <__register_exitproc+0x10>
80000858:	18c7a683          	lw	a3,396(a5)
8000085c:	00170713          	addi	a4,a4,1
80000860:	00e7a223          	sw	a4,4(a5)
80000864:	00c6e633          	or	a2,a3,a2
80000868:	18c7a623          	sw	a2,396(a5)
8000086c:	010787b3          	add	a5,a5,a6
80000870:	00b7a423          	sw	a1,8(a5)
80000874:	00000513          	li	a0,0
80000878:	00008067          	ret
8000087c:	fff00513          	li	a0,-1
80000880:	00008067          	ret

80000884 <__call_exitprocs>:
80000884:	fd010113          	addi	sp,sp,-48
80000888:	800027b7          	lui	a5,0x80002
8000088c:	01412c23          	sw	s4,24(sp)
80000890:	dd87aa03          	lw	s4,-552(a5) # 80001dd8 <__stack_top+0x81001dd8>
80000894:	03212023          	sw	s2,32(sp)
80000898:	02112623          	sw	ra,44(sp)
8000089c:	148a2903          	lw	s2,328(s4)
800008a0:	02812423          	sw	s0,40(sp)
800008a4:	02912223          	sw	s1,36(sp)
800008a8:	01312e23          	sw	s3,28(sp)
800008ac:	01512a23          	sw	s5,20(sp)
800008b0:	01612823          	sw	s6,16(sp)
800008b4:	01712623          	sw	s7,12(sp)
800008b8:	01812423          	sw	s8,8(sp)
800008bc:	04090063          	beqz	s2,800008fc <__call_exitprocs+0x78>
800008c0:	00050b13          	mv	s6,a0
800008c4:	00058b93          	mv	s7,a1
800008c8:	00100a93          	li	s5,1
800008cc:	fff00993          	li	s3,-1
800008d0:	00492483          	lw	s1,4(s2)
800008d4:	fff48413          	addi	s0,s1,-1
800008d8:	02044263          	bltz	s0,800008fc <__call_exitprocs+0x78>
800008dc:	00249493          	slli	s1,s1,0x2
800008e0:	009904b3          	add	s1,s2,s1
800008e4:	040b8463          	beqz	s7,8000092c <__call_exitprocs+0xa8>
800008e8:	1044a783          	lw	a5,260(s1)
800008ec:	05778063          	beq	a5,s7,8000092c <__call_exitprocs+0xa8>
800008f0:	fff40413          	addi	s0,s0,-1
800008f4:	ffc48493          	addi	s1,s1,-4
800008f8:	ff3416e3          	bne	s0,s3,800008e4 <__call_exitprocs+0x60>
800008fc:	02c12083          	lw	ra,44(sp)
80000900:	02812403          	lw	s0,40(sp)
80000904:	02412483          	lw	s1,36(sp)
80000908:	02012903          	lw	s2,32(sp)
8000090c:	01c12983          	lw	s3,28(sp)
80000910:	01812a03          	lw	s4,24(sp)
80000914:	01412a83          	lw	s5,20(sp)
80000918:	01012b03          	lw	s6,16(sp)
8000091c:	00c12b83          	lw	s7,12(sp)
80000920:	00812c03          	lw	s8,8(sp)
80000924:	03010113          	addi	sp,sp,48
80000928:	00008067          	ret
8000092c:	00492783          	lw	a5,4(s2)
80000930:	0044a683          	lw	a3,4(s1)
80000934:	fff78793          	addi	a5,a5,-1
80000938:	04878e63          	beq	a5,s0,80000994 <__call_exitprocs+0x110>
8000093c:	0004a223          	sw	zero,4(s1)
80000940:	fa0688e3          	beqz	a3,800008f0 <__call_exitprocs+0x6c>
80000944:	18892783          	lw	a5,392(s2)
80000948:	008a9733          	sll	a4,s5,s0
8000094c:	00492c03          	lw	s8,4(s2)
80000950:	00f777b3          	and	a5,a4,a5
80000954:	02079263          	bnez	a5,80000978 <__call_exitprocs+0xf4>
80000958:	000680e7          	jalr	a3
8000095c:	00492703          	lw	a4,4(s2)
80000960:	148a2783          	lw	a5,328(s4)
80000964:	01871463          	bne	a4,s8,8000096c <__call_exitprocs+0xe8>
80000968:	f8f904e3          	beq	s2,a5,800008f0 <__call_exitprocs+0x6c>
8000096c:	f80788e3          	beqz	a5,800008fc <__call_exitprocs+0x78>
80000970:	00078913          	mv	s2,a5
80000974:	f5dff06f          	j	800008d0 <__call_exitprocs+0x4c>
80000978:	18c92783          	lw	a5,396(s2)
8000097c:	0844a583          	lw	a1,132(s1)
80000980:	00f77733          	and	a4,a4,a5
80000984:	00071c63          	bnez	a4,8000099c <__call_exitprocs+0x118>
80000988:	000b0513          	mv	a0,s6
8000098c:	000680e7          	jalr	a3
80000990:	fcdff06f          	j	8000095c <__call_exitprocs+0xd8>
80000994:	00892223          	sw	s0,4(s2)
80000998:	fa9ff06f          	j	80000940 <__call_exitprocs+0xbc>
8000099c:	00058513          	mv	a0,a1
800009a0:	000680e7          	jalr	a3
800009a4:	fb9ff06f          	j	8000095c <__call_exitprocs+0xd8>

Disassembly of section .init_array:

800019a8 <__init_array_start>:
800019a8:	0068                	addi	a0,sp,12
800019aa:	8000                	0x8000

Disassembly of section .data:

800019b0 <impure_data>:
800019b0:	0000                	unimp
800019b2:	0000                	unimp
800019b4:	1c9c                	addi	a5,sp,624
800019b6:	8000                	0x8000
800019b8:	1d04                	addi	s1,sp,688
800019ba:	8000                	0x8000
800019bc:	1d6c                	addi	a1,sp,700
800019be:	8000                	0x8000
	...
80001a58:	0001                	nop
80001a5a:	0000                	unimp
80001a5c:	0000                	unimp
80001a5e:	0000                	unimp
80001a60:	330e                	fld	ft6,224(sp)
80001a62:	abcd                	j	80002054 <__BSS_END__+0x1f8>
80001a64:	1234                	addi	a3,sp,296
80001a66:	e66d                	bnez	a2,80001b50 <impure_data+0x1a0>
80001a68:	deec                	sw	a1,124(a3)
80001a6a:	0005                	c.nop	1
80001a6c:	0000000b          	0xb
	...

Disassembly of section .sdata:

80001dd8 <_global_impure_ptr>:
80001dd8:	19b0                	addi	a2,sp,248
80001dda:	8000                	0x8000

Disassembly of section .bss:

80001ddc <g_wspawn_args>:
	...

Disassembly of section .comment:

00000000 <.comment>:
   0:	3a434347          	fmsub.d	ft6,ft6,ft4,ft7,rmm
   4:	2820                	fld	fs0,80(s0)
   6:	29554e47          	fmsub.s	ft8,fa0,fs5,ft5,rmm
   a:	3920                	fld	fs0,112(a0)
   c:	322e                	fld	ft4,232(sp)
   e:	302e                	fld	ft0,232(sp)
	...

Disassembly of section .riscv.attributes:

00000000 <.riscv.attributes>:
   0:	2541                	jal	680 <__stack_size+0x280>
   2:	0000                	unimp
   4:	7200                	flw	fs0,32(a2)
   6:	7369                	lui	t1,0xffffa
   8:	01007663          	bgeu	zero,a6,14 <__stack_usage+0x14>
   c:	0000001b          	0x1b
  10:	1004                	addi	s1,sp,32
  12:	7205                	lui	tp,0xfffe1
  14:	3376                	fld	ft6,376(sp)
  16:	6932                	flw	fs2,12(sp)
  18:	7032                	flw	ft0,44(sp)
  1a:	5f30                	lw	a2,120(a4)
  1c:	326d                	jal	fffff9c6 <__stack_top+0xfff9c6>
  1e:	3070                	fld	fa2,224(s0)
  20:	665f 7032 0030      	0x307032665f
