
/tmp/pocl_vortex_kernel-1e-61-ae-14-72.elf:	file format ELF32-riscv


Disassembly of section .init:

80000000 _start:
80000000: 97 15 00 00                  	auipc	a1, 1
80000004: 93 85 45 88                  	addi	a1, a1, -1916
80000008: 73 25 10 fc                  	csrr	a0, 4033
8000000c: 6b 10 b5 00                  	<unknown>
80000010: ef 00 50 07                  	jal	2164
80000014: 13 05 10 00                  	addi	a0, zero, 1
80000018: 6b 00 05 00                  	<unknown>
8000001c: 17 15 00 00                  	auipc	a0, 1
80000020: 13 05 c5 41                  	addi	a0, a0, 1052
80000024: 17 16 00 00                  	auipc	a2, 1
80000028: 13 06 86 45                  	addi	a2, a2, 1112
8000002c: 33 06 a6 40                  	sub	a2, a2, a0
80000030: 93 05 00 00                  	mv	a1, zero
80000034: ef 00 90 3d                  	jal	3032
80000038: 17 15 00 00                  	auipc	a0, 1
8000003c: 13 05 c5 ad                  	addi	a0, a0, -1316
80000040: ef 00 10 28                  	jal	2688
80000044: ef 00 d0 32                  	jal	2860
80000048: ef 00 c0 40                  	jal	1036
8000004c: 6f 00 50 29                  	j	2708

Disassembly of section .text:

80000050 register_fini:
80000050: 93 07 00 00                  	mv	a5, zero
80000054: 63 88 07 00                  	beqz	a5, 16
80000058: 37 15 00 80                  	lui	a0, 524289
8000005c: 13 05 45 b1                  	addi	a0, a0, -1260
80000060: 6f 00 10 26                  	j	2656
80000064: 67 80 00 00                  	ret

80000068 kernel_spawn_callback:
80000068: 13 01 01 fd                  	addi	sp, sp, -48
8000006c: 23 26 11 02                  	sw	ra, 44(sp)
80000070: 23 24 81 02                  	sw	s0, 40(sp)
80000074: 23 22 91 02                  	sw	s1, 36(sp)
80000078: 23 20 21 03                  	sw	s2, 32(sp)
8000007c: 23 2e 31 01                  	sw	s3, 28(sp)
80000080: 23 2c 41 01                  	sw	s4, 24(sp)
80000084: 23 2a 51 01                  	sw	s5, 20(sp)
80000088: 23 28 61 01                  	sw	s6, 16(sp)
8000008c: 23 26 71 01                  	sw	s7, 12(sp)
80000090: 23 24 81 01                  	sw	s8, 8(sp)
80000094: ef 00 50 08                  	jal	2180
80000098: ef 00 10 03                  	jal	2096
8000009c: ef 00 50 07                  	jal	2164
800000a0: 93 04 05 00                  	mv	s1, a0
800000a4: ef 00 50 04                  	jal	2116
800000a8: 93 09 05 00                  	mv	s3, a0
800000ac: ef 00 d0 04                  	jal	2124
800000b0: 13 09 05 00                  	mv	s2, a0
800000b4: ef 00 50 06                  	jal	2148
800000b8: b7 15 00 80                  	lui	a1, 524289
800000bc: 93 85 c5 43                  	addi	a1, a1, 1084
800000c0: 13 96 24 00                  	slli	a2, s1, 2
800000c4: b3 05 b6 00                  	add	a1, a2, a1
800000c8: 03 ac 05 00                  	lw	s8, 0(a1)
800000cc: 83 26 4c 01                  	lw	a3, 20(s8)
800000d0: 83 25 0c 01                  	lw	a1, 16(s8)
800000d4: 13 86 06 00                  	mv	a2, a3
800000d8: 63 c4 36 01                  	blt	a3, s3, 8
800000dc: 13 86 09 00                  	mv	a2, s3
800000e0: b3 a6 d9 00                  	slt	a3, s3, a3
800000e4: b3 86 d5 00                  	add	a3, a1, a3
800000e8: 13 07 10 00                  	addi	a4, zero, 1
800000ec: 63 c8 e6 08                  	blt	a3, a4, 144
800000f0: 33 87 35 03                  	mul	a4, a1, s3
800000f4: 83 25 0c 00                  	lw	a1, 0(s8)
800000f8: 33 06 e6 00                  	add	a2, a2, a4
800000fc: 03 27 cc 00                  	lw	a4, 12(s8)
80000100: 33 05 a6 02                  	mul	a0, a2, a0
80000104: 03 aa 05 00                  	lw	s4, 0(a1)
80000108: 03 a6 45 00                  	lw	a2, 4(a1)
8000010c: 33 05 e5 00                  	add	a0, a0, a4
80000110: 33 87 26 03                  	mul	a4, a3, s2
80000114: 33 04 e5 00                  	add	s0, a0, a4
80000118: 33 09 46 03                  	mul	s2, a2, s4
8000011c: b3 0a d4 00                  	add	s5, s0, a3
80000120: 33 0b c0 40                  	neg	s6, a2
80000124: b3 0b 20 41                  	neg	s7, s2
80000128: 33 46 24 03                  	div	a2, s0, s2
8000012c: 33 85 cb 02                  	mul	a0, s7, a2
80000130: 33 05 a4 00                  	add	a0, s0, a0
80000134: b3 46 45 03                  	div	a3, a0, s4
80000138: 03 a5 c5 00                  	lw	a0, 12(a1)
8000013c: 33 07 cb 02                  	mul	a4, s6, a2
80000140: 33 07 d7 40                  	sub	a4, a4, a3
80000144: 33 07 ea 02                  	mul	a4, s4, a4
80000148: 33 08 e5 00                  	add	a6, a0, a4
8000014c: 03 a7 05 01                  	lw	a4, 16(a1)
80000150: 83 a4 45 01                  	lw	s1, 20(a1)
80000154: 83 27 4c 00                  	lw	a5, 4(s8)
80000158: 03 25 8c 00                  	lw	a0, 8(s8)
8000015c: b3 06 d7 00                  	add	a3, a4, a3
80000160: 33 87 c4 00                  	add	a4, s1, a2
80000164: 33 06 04 01                  	add	a2, s0, a6
80000168: e7 80 07 00                  	jalr	a5
8000016c: 13 04 14 00                  	addi	s0, s0, 1
80000170: 63 56 54 01                  	bge	s0, s5, 12
80000174: 83 25 0c 00                  	lw	a1, 0(s8)
80000178: 6f f0 1f fb                  	j	-80
8000017c: 13 b5 19 00                  	seqz	a0, s3
80000180: 03 2c 81 00                  	lw	s8, 8(sp)
80000184: 83 2b c1 00                  	lw	s7, 12(sp)
80000188: 03 2b 01 01                  	lw	s6, 16(sp)
8000018c: 83 2a 41 01                  	lw	s5, 20(sp)
80000190: 03 2a 81 01                  	lw	s4, 24(sp)
80000194: 83 29 c1 01                  	lw	s3, 28(sp)
80000198: 03 29 01 02                  	lw	s2, 32(sp)
8000019c: 83 24 41 02                  	lw	s1, 36(sp)
800001a0: 03 24 81 02                  	lw	s0, 40(sp)
800001a4: 83 20 c1 02                  	lw	ra, 44(sp)
800001a8: 13 01 01 03                  	addi	sp, sp, 48
800001ac: 6f 00 c0 71                  	j	1820

800001b0 kernel_spawn_remaining_callback:
800001b0: 13 01 01 ff                  	addi	sp, sp, -16
800001b4: 23 26 11 00                  	sw	ra, 12(sp)
800001b8: 23 24 81 00                  	sw	s0, 8(sp)
800001bc: ef 00 c0 70                  	jal	1804
800001c0: ef 00 00 75                  	jal	1872
800001c4: 13 04 05 00                  	mv	s0, a0
800001c8: ef 00 00 74                  	jal	1856
800001cc: b7 15 00 80                  	lui	a1, 524289
800001d0: 93 85 c5 43                  	addi	a1, a1, 1084
800001d4: 13 16 24 00                  	slli	a2, s0, 2
800001d8: b3 05 b6 00                  	add	a1, a2, a1
800001dc: 03 a6 05 00                  	lw	a2, 0(a1)
800001e0: 83 25 06 00                  	lw	a1, 0(a2)
800001e4: 83 26 c6 00                  	lw	a3, 12(a2)
800001e8: 03 a7 05 00                  	lw	a4, 0(a1)
800001ec: 83 a7 45 00                  	lw	a5, 4(a1)
800001f0: 33 85 a6 00                  	add	a0, a3, a0
800001f4: b3 86 e7 02                  	mul	a3, a5, a4
800001f8: b3 47 d5 02                  	div	a5, a0, a3
800001fc: b3 86 d7 02                  	mul	a3, a5, a3
80000200: 03 a4 c5 00                  	lw	s0, 12(a1)
80000204: 33 05 d5 40                  	sub	a0, a0, a3
80000208: b3 46 e5 02                  	div	a3, a0, a4
8000020c: 33 88 e6 02                  	mul	a6, a3, a4
80000210: b3 08 a4 00                  	add	a7, s0, a0
80000214: 03 a7 05 01                  	lw	a4, 16(a1)
80000218: 03 a4 45 01                  	lw	s0, 20(a1)
8000021c: 83 22 46 00                  	lw	t0, 4(a2)
80000220: 03 25 86 00                  	lw	a0, 8(a2)
80000224: 33 86 08 41                  	sub	a2, a7, a6
80000228: b3 06 d7 00                  	add	a3, a4, a3
8000022c: 33 07 f4 00                  	add	a4, s0, a5
80000230: e7 80 02 00                  	jalr	t0
80000234: 13 05 10 00                  	addi	a0, zero, 1
80000238: 03 24 81 00                  	lw	s0, 8(sp)
8000023c: 83 20 c1 00                  	lw	ra, 12(sp)
80000240: 13 01 01 01                  	addi	sp, sp, 16
80000244: 6f 00 40 68                  	j	1668

80000248 kernel_spawn:
80000248: 13 01 01 fc                  	addi	sp, sp, -64
8000024c: 23 2e 11 02                  	sw	ra, 60(sp)
80000250: 23 2c 81 02                  	sw	s0, 56(sp)
80000254: 23 2a 91 02                  	sw	s1, 52(sp)
80000258: 23 28 21 03                  	sw	s2, 48(sp)
8000025c: 23 26 31 03                  	sw	s3, 44(sp)
80000260: 23 24 41 03                  	sw	s4, 40(sp)
80000264: 23 22 51 03                  	sw	s5, 36(sp)
80000268: 23 20 61 03                  	sw	s6, 32(sp)
8000026c: 23 2e 71 01                  	sw	s7, 28(sp)
80000270: 23 2c 81 01                  	sw	s8, 24(sp)
80000274: 93 04 05 00                  	mv	s1, a0
80000278: 83 2b 05 00                  	lw	s7, 0(a0)
8000027c: 03 24 45 00                  	lw	s0, 4(a0)
80000280: 03 2c 85 00                  	lw	s8, 8(a0)
80000284: 13 09 06 00                  	mv	s2, a2
80000288: 93 89 05 00                  	mv	s3, a1
8000028c: ef 00 c0 69                  	jal	1692
80000290: 13 0b 05 00                  	mv	s6, a0
80000294: ef 00 c0 68                  	jal	1676
80000298: 13 0a 05 00                  	mv	s4, a0
8000029c: ef 00 c0 67                  	jal	1660
800002a0: 93 0a 05 00                  	mv	s5, a0
800002a4: ef 00 c0 66                  	jal	1644
800002a8: 93 05 f0 00                  	addi	a1, zero, 15
800002ac: 63 cc a5 16                  	blt	a1, a0, 376
800002b0: b3 05 74 03                  	mul	a1, s0, s7
800002b4: 33 86 85 03                  	mul	a2, a1, s8
800002b8: b3 85 4a 03                  	mul	a1, s5, s4
800002bc: 93 06 10 00                  	addi	a3, zero, 1
800002c0: 63 c8 c5 00                  	blt	a1, a2, 16
800002c4: 63 da 66 01                  	bge	a3, s6, 20
800002c8: 63 4c d5 00                  	blt	a0, a3, 24
800002cc: 6f 00 80 15                  	j	344
800002d0: b3 46 b6 02                  	div	a3, a2, a1
800002d4: e3 ca 66 ff                  	blt	a3, s6, -12
800002d8: 93 06 0b 00                  	mv	a3, s6
800002dc: 63 54 d5 14                  	bge	a0, a3, 328
800002e0: 13 07 fb ff                  	addi	a4, s6, -1
800002e4: b3 45 d6 02                  	div	a1, a2, a3
800002e8: 63 0e e5 00                  	beq	a0, a4, 28
800002ec: 13 06 00 00                  	mv	a2, zero
800002f0: b3 06 b6 00                  	add	a3, a2, a1
800002f4: 33 c6 56 03                  	div	a2, a3, s5
800002f8: 13 07 00 00                  	mv	a4, zero
800002fc: 63 50 46 03                  	bge	a2, s4, 32
80000300: 6f 00 00 02                  	j	32
80000304: b3 86 d5 02                  	mul	a3, a1, a3
80000308: 33 06 d6 40                  	sub	a2, a2, a3
8000030c: b3 06 b6 00                  	add	a3, a2, a1
80000310: 33 c6 56 03                  	div	a2, a3, s5
80000314: 13 07 00 00                  	mv	a4, zero
80000318: 63 44 46 01                  	blt	a2, s4, 8
8000031c: 33 47 46 03                  	div	a4, a2, s4
80000320: 93 07 00 00                  	mv	a5, zero
80000324: b3 0a 56 03                  	mul	s5, a2, s5
80000328: 13 04 10 00                  	addi	s0, zero, 1
8000032c: 63 08 07 00                  	beqz	a4, 16
80000330: b3 07 47 03                  	mul	a5, a4, s4
80000334: b3 07 f6 40                  	sub	a5, a2, a5
80000338: 13 04 07 00                  	mv	s0, a4
8000033c: 33 8b 56 41                  	sub	s6, a3, s5
80000340: 23 20 91 00                  	sw	s1, 0(sp)
80000344: 23 22 31 01                  	sw	s3, 4(sp)
80000348: 23 24 21 01                  	sw	s2, 8(sp)
8000034c: b3 85 a5 02                  	mul	a1, a1, a0
80000350: 23 26 b1 00                  	sw	a1, 12(sp)
80000354: 23 28 81 00                  	sw	s0, 16(sp)
80000358: 23 2a f1 00                  	sw	a5, 20(sp)
8000035c: b7 15 00 80                  	lui	a1, 524289
80000360: 93 85 c5 43                  	addi	a1, a1, 1084
80000364: 13 15 25 00                  	slli	a0, a0, 2
80000368: 33 05 b5 00                  	add	a0, a0, a1
8000036c: 93 05 01 00                  	mv	a1, sp
80000370: 93 06 20 00                  	addi	a3, zero, 2
80000374: 23 20 b5 00                  	sw	a1, 0(a0)
80000378: 63 40 d6 02                  	blt	a2, a3, 32
8000037c: 63 44 46 01                  	blt	a2, s4, 8
80000380: 13 06 0a 00                  	mv	a2, s4
80000384: 37 05 00 80                  	lui	a0, 524288
80000388: 93 05 85 06                  	addi	a1, a0, 104
8000038c: 13 05 06 00                  	mv	a0, a2
80000390: ef 00 00 53                  	jal	1328
80000394: ef f0 5f cd                  	jal	-812
80000398: 63 06 0b 08                  	beqz	s6, 140
8000039c: 23 26 51 01                  	sw	s5, 12(sp)
800003a0: 13 05 0b 00                  	mv	a0, s6
800003a4: ef 00 40 52                  	jal	1316
800003a8: ef 00 80 56                  	jal	1384
800003ac: 13 04 05 00                  	mv	s0, a0
800003b0: ef 00 80 55                  	jal	1368
800003b4: b7 15 00 80                  	lui	a1, 524289
800003b8: 93 85 c5 43                  	addi	a1, a1, 1084
800003bc: 13 16 24 00                  	slli	a2, s0, 2
800003c0: b3 05 b6 00                  	add	a1, a2, a1
800003c4: 03 a6 05 00                  	lw	a2, 0(a1)
800003c8: 83 25 06 00                  	lw	a1, 0(a2)
800003cc: 83 26 c6 00                  	lw	a3, 12(a2)
800003d0: 03 a7 05 00                  	lw	a4, 0(a1)
800003d4: 83 a7 45 00                  	lw	a5, 4(a1)
800003d8: 33 85 a6 00                  	add	a0, a3, a0
800003dc: b3 86 e7 02                  	mul	a3, a5, a4
800003e0: b3 47 d5 02                  	div	a5, a0, a3
800003e4: b3 86 d7 02                  	mul	a3, a5, a3
800003e8: 83 a4 c5 00                  	lw	s1, 12(a1)
800003ec: 33 05 d5 40                  	sub	a0, a0, a3
800003f0: b3 46 e5 02                  	div	a3, a0, a4
800003f4: 33 88 e6 02                  	mul	a6, a3, a4
800003f8: b3 84 a4 00                  	add	s1, s1, a0
800003fc: 03 a4 05 01                  	lw	s0, 16(a1)
80000400: 03 a7 45 01                  	lw	a4, 20(a1)
80000404: 83 28 46 00                  	lw	a7, 4(a2)
80000408: 03 25 86 00                  	lw	a0, 8(a2)
8000040c: 33 86 04 41                  	sub	a2, s1, a6
80000410: b3 06 d4 00                  	add	a3, s0, a3
80000414: 33 07 f7 00                  	add	a4, a4, a5
80000418: e7 80 08 00                  	jalr	a7
8000041c: 13 05 10 00                  	addi	a0, zero, 1
80000420: ef 00 80 4a                  	jal	1192
80000424: 03 2c 81 01                  	lw	s8, 24(sp)
80000428: 83 2b c1 01                  	lw	s7, 28(sp)
8000042c: 03 2b 01 02                  	lw	s6, 32(sp)
80000430: 83 2a 41 02                  	lw	s5, 36(sp)
80000434: 03 2a 81 02                  	lw	s4, 40(sp)
80000438: 83 29 c1 02                  	lw	s3, 44(sp)
8000043c: 03 29 01 03                  	lw	s2, 48(sp)
80000440: 83 24 41 03                  	lw	s1, 52(sp)
80000444: 03 24 81 03                  	lw	s0, 56(sp)
80000448: 83 20 c1 03                  	lw	ra, 60(sp)
8000044c: 13 01 01 04                  	addi	sp, sp, 64
80000450: 67 80 00 00                  	ret

80000454 main:
80000454: 13 01 01 ff                  	addi	sp, sp, -16
80000458: 23 26 11 00                  	sw	ra, 12(sp)
8000045c: 37 05 00 80                  	lui	a0, 524288
80000460: 93 05 c5 5e                  	addi	a1, a0, 1516
80000464: 37 05 ff 7f                  	lui	a0, 524272
80000468: 13 06 45 03                  	addi	a2, a0, 52
8000046c: 37 05 ff 7f                  	lui	a0, 524272
80000470: ef f0 9f dd                  	jal	-552
80000474: 13 05 00 00                  	mv	a0, zero
80000478: 83 20 c1 00                  	lw	ra, 12(sp)
8000047c: 13 01 01 01                  	addi	sp, sp, 16
80000480: 67 80 00 00                  	ret

80000484 _Z8_cl_sqrtf:
80000484: 13 01 01 ff                  	addi	sp, sp, -16
80000488: 23 26 11 00                  	sw	ra, 12(sp)
8000048c: 23 24 81 00                  	sw	s0, 8(sp)
80000490: 13 04 01 01                  	addi	s0, sp, 16
80000494: 03 24 81 00                  	lw	s0, 8(sp)
80000498: 83 20 c1 00                  	lw	ra, 12(sp)
8000049c: 13 01 01 01                  	addi	sp, sp, 16
800004a0: 17 03 00 00                  	auipc	t1, 0
800004a4: 67 00 03 4a                  	jr	1184(t1)

800004a8 _pocl_kernel_NearestNeighbor:
800004a8: 13 01 01 fc                  	addi	sp, sp, -64
800004ac: 23 2e 11 02                  	sw	ra, 60(sp)
800004b0: 23 2c 81 02                  	sw	s0, 56(sp)
800004b4: 23 2a 91 02                  	sw	s1, 52(sp)
800004b8: 23 28 21 03                  	sw	s2, 48(sp)
800004bc: 23 26 31 03                  	sw	s3, 44(sp)
800004c0: 23 24 41 03                  	sw	s4, 40(sp)
800004c4: 23 22 51 03                  	sw	s5, 36(sp)
800004c8: 23 20 61 03                  	sw	s6, 32(sp)
800004cc: 23 2e 71 01                  	sw	s7, 28(sp)
800004d0: 23 2c 81 01                  	sw	s8, 24(sp)
800004d4: 23 2a 91 01                  	sw	s9, 20(sp)
800004d8: 23 28 a1 01                  	sw	s10, 16(sp)
800004dc: 23 26 b1 01                  	sw	s11, 12(sp)
800004e0: 27 24 81 00                  	fsw	fs0, 8(sp)
800004e4: 27 22 91 00                  	fsw	fs1, 4(sp)
800004e8: 13 04 01 04                  	addi	s0, sp, 64
800004ec: 13 71 c1 ff                  	andi	sp, sp, -4
800004f0: 53 84 b5 20                  	fmv.s	fs0, fa1
800004f4: d3 04 a5 20                  	fmv.s	fs1, fa0
800004f8: 93 09 06 00                  	mv	s3, a2
800004fc: 13 09 00 00                  	mv	s2, zero
80000500: 03 ab 86 01                  	lw	s6, 24(a3)
80000504: 03 a6 c6 00                  	lw	a2, 12(a3)
80000508: 03 aa c6 01                  	lw	s4, 28(a3)
8000050c: 83 a6 06 02                  	lw	a3, 32(a3)
80000510: 23 20 d1 00                  	sw	a3, 0(sp)
80000514: b3 06 eb 02                  	mul	a3, s6, a4
80000518: 33 0d d6 00                  	add	s10, a2, a3
8000051c: 13 16 3d 00                  	slli	a2, s10, 3
80000520: 33 05 c5 00                  	add	a0, a0, a2
80000524: 13 16 2d 00                  	slli	a2, s10, 2
80000528: b3 8b c5 00                  	add	s7, a1, a2
8000052c: 93 0a 45 00                  	addi	s5, a0, 4
80000530: 6f 00 00 01                  	j	16
80000534: 13 09 19 00                  	addi	s2, s2, 1
80000538: 03 25 01 00                  	lw	a0, 0(sp)
8000053c: 63 74 a9 06                  	bgeu	s2, a0, 104
80000540: 93 0c 00 00                  	mv	s9, zero
80000544: 6f 00 c0 00                  	j	12
80000548: 93 8c 1c 00                  	addi	s9, s9, 1
8000054c: e3 f4 4c ff                  	bgeu	s9, s4, -24
80000550: 93 04 00 00                  	mv	s1, zero
80000554: 93 8d 0b 00                  	mv	s11, s7
80000558: 13 8c 0a 00                  	mv	s8, s5
8000055c: 6f 00 40 01                  	j	20
80000560: 93 84 14 00                  	addi	s1, s1, 1
80000564: 13 0c 8c 00                  	addi	s8, s8, 8
80000568: 93 8d 4d 00                  	addi	s11, s11, 4
8000056c: e3 fe 64 fd                  	bgeu	s1, s6, -36
80000570: 33 05 9d 00                  	add	a0, s10, s1
80000574: e3 56 35 ff                  	bge	a0, s3, -20
80000578: 07 20 cc ff                  	flw	ft0, -4(s8)
8000057c: 87 20 0c 00                  	flw	ft1, 0(s8)
80000580: 53 f0 04 08                  	fsub.s	ft0, fs1, ft0
80000584: d3 70 14 08                  	fsub.s	ft1, fs0, ft1
80000588: d3 f0 10 10                  	fmul.s	ft1, ft1, ft1
8000058c: 53 70 00 10                  	fmul.s	ft0, ft0, ft0
80000590: 53 75 10 00                  	fadd.s	fa0, ft0, ft1
80000594: 97 00 00 00                  	auipc	ra, 0
80000598: e7 80 00 ef                  	jalr	-272(ra)
8000059c: 27 a0 ad 00                  	fsw	fa0, 0(s11)
800005a0: 6f f0 1f fc                  	j	-64
800005a4: 13 01 04 fc                  	addi	sp, s0, -64
800005a8: 87 24 41 00                  	flw	fs1, 4(sp)
800005ac: 07 24 81 00                  	flw	fs0, 8(sp)
800005b0: 83 2d c1 00                  	lw	s11, 12(sp)
800005b4: 03 2d 01 01                  	lw	s10, 16(sp)
800005b8: 83 2c 41 01                  	lw	s9, 20(sp)
800005bc: 03 2c 81 01                  	lw	s8, 24(sp)
800005c0: 83 2b c1 01                  	lw	s7, 28(sp)
800005c4: 03 2b 01 02                  	lw	s6, 32(sp)
800005c8: 83 2a 41 02                  	lw	s5, 36(sp)
800005cc: 03 2a 81 02                  	lw	s4, 40(sp)
800005d0: 83 29 c1 02                  	lw	s3, 44(sp)
800005d4: 03 29 01 03                  	lw	s2, 48(sp)
800005d8: 83 24 41 03                  	lw	s1, 52(sp)
800005dc: 03 24 81 03                  	lw	s0, 56(sp)
800005e0: 83 20 c1 03                  	lw	ra, 60(sp)
800005e4: 13 01 01 04                  	addi	sp, sp, 64
800005e8: 67 80 00 00                  	ret

800005ec _pocl_kernel_NearestNeighbor_workgroup:
800005ec: 13 01 01 fc                  	addi	sp, sp, -64
800005f0: 23 2e 11 02                  	sw	ra, 60(sp)
800005f4: 23 2c 81 02                  	sw	s0, 56(sp)
800005f8: 23 2a 91 02                  	sw	s1, 52(sp)
800005fc: 23 28 21 03                  	sw	s2, 48(sp)
80000600: 23 26 31 03                  	sw	s3, 44(sp)
80000604: 23 24 41 03                  	sw	s4, 40(sp)
80000608: 23 22 51 03                  	sw	s5, 36(sp)
8000060c: 23 20 61 03                  	sw	s6, 32(sp)
80000610: 23 2e 71 01                  	sw	s7, 28(sp)
80000614: 23 2c 81 01                  	sw	s8, 24(sp)
80000618: 23 2a 91 01                  	sw	s9, 20(sp)
8000061c: 23 28 a1 01                  	sw	s10, 16(sp)
80000620: 23 26 b1 01                  	sw	s11, 12(sp)
80000624: 27 24 81 00                  	fsw	fs0, 8(sp)
80000628: 27 22 91 00                  	fsw	fs1, 4(sp)
8000062c: 83 26 05 00                  	lw	a3, 0(a0)
80000630: 13 09 00 00                  	mv	s2, zero
80000634: 83 a6 06 00                  	lw	a3, 0(a3)
80000638: 03 27 45 00                  	lw	a4, 4(a0)
8000063c: 83 27 85 00                  	lw	a5, 8(a0)
80000640: 83 24 c5 00                  	lw	s1, 12(a0)
80000644: 03 25 05 01                  	lw	a0, 16(a0)
80000648: 03 27 07 00                  	lw	a4, 0(a4)
8000064c: 83 aa 07 00                  	lw	s5, 0(a5)
80000650: 07 a4 04 00                  	flw	fs0, 0(s1)
80000654: 87 24 05 00                  	flw	fs1, 0(a0)
80000658: 83 ac 85 01                  	lw	s9, 24(a1)
8000065c: 03 a5 c5 00                  	lw	a0, 12(a1)
80000660: 83 a9 c5 01                  	lw	s3, 28(a1)
80000664: 03 aa 05 02                  	lw	s4, 32(a1)
80000668: b3 85 cc 02                  	mul	a1, s9, a2
8000066c: 33 0d b5 00                  	add	s10, a0, a1
80000670: 13 15 3d 00                  	slli	a0, s10, 3
80000674: 33 85 a6 00                  	add	a0, a3, a0
80000678: 93 15 2d 00                  	slli	a1, s10, 2
8000067c: 33 0b b7 00                  	add	s6, a4, a1
80000680: 93 0b 45 00                  	addi	s7, a0, 4
80000684: 6f 00 c0 00                  	j	12
80000688: 13 09 19 00                  	addi	s2, s2, 1
8000068c: 63 74 49 07                  	bgeu	s2, s4, 104
80000690: 13 0c 00 00                  	mv	s8, zero
80000694: 6f 00 c0 00                  	j	12
80000698: 13 0c 1c 00                  	addi	s8, s8, 1
8000069c: e3 76 3c ff                  	bgeu	s8, s3, -20
800006a0: 13 04 00 00                  	mv	s0, zero
800006a4: 93 0d 0b 00                  	mv	s11, s6
800006a8: 93 84 0b 00                  	mv	s1, s7
800006ac: 6f 00 40 01                  	j	20
800006b0: 13 04 14 00                  	addi	s0, s0, 1
800006b4: 93 84 84 00                  	addi	s1, s1, 8
800006b8: 93 8d 4d 00                  	addi	s11, s11, 4
800006bc: e3 7e 94 fd                  	bgeu	s0, s9, -36
800006c0: 33 05 8d 00                  	add	a0, s10, s0
800006c4: e3 56 55 ff                  	bge	a0, s5, -20
800006c8: 07 a0 c4 ff                  	flw	ft0, -4(s1)
800006cc: 87 a0 04 00                  	flw	ft1, 0(s1)
800006d0: 53 70 04 08                  	fsub.s	ft0, fs0, ft0
800006d4: d3 f0 14 08                  	fsub.s	ft1, fs1, ft1
800006d8: d3 f0 10 10                  	fmul.s	ft1, ft1, ft1
800006dc: 53 70 00 10                  	fmul.s	ft0, ft0, ft0
800006e0: 53 75 10 00                  	fadd.s	fa0, ft0, ft1
800006e4: 97 00 00 00                  	auipc	ra, 0
800006e8: e7 80 00 da                  	jalr	-608(ra)
800006ec: 27 a0 ad 00                  	fsw	fa0, 0(s11)
800006f0: 6f f0 1f fc                  	j	-64
800006f4: 87 24 41 00                  	flw	fs1, 4(sp)
800006f8: 07 24 81 00                  	flw	fs0, 8(sp)
800006fc: 83 2d c1 00                  	lw	s11, 12(sp)
80000700: 03 2d 01 01                  	lw	s10, 16(sp)
80000704: 83 2c 41 01                  	lw	s9, 20(sp)
80000708: 03 2c 81 01                  	lw	s8, 24(sp)
8000070c: 83 2b c1 01                  	lw	s7, 28(sp)
80000710: 03 2b 01 02                  	lw	s6, 32(sp)
80000714: 83 2a 41 02                  	lw	s5, 36(sp)
80000718: 03 2a 81 02                  	lw	s4, 40(sp)
8000071c: 83 29 c1 02                  	lw	s3, 44(sp)
80000720: 03 29 01 03                  	lw	s2, 48(sp)
80000724: 83 24 41 03                  	lw	s1, 52(sp)
80000728: 03 24 81 03                  	lw	s0, 56(sp)
8000072c: 83 20 c1 03                  	lw	ra, 60(sp)
80000730: 13 01 01 04                  	addi	sp, sp, 64
80000734: 67 80 00 00                  	ret

80000738 _pocl_kernel_NearestNeighbor_workgroup_fast:
80000738: 13 01 01 fc                  	addi	sp, sp, -64
8000073c: 23 2e 11 02                  	sw	ra, 60(sp)
80000740: 23 2c 81 02                  	sw	s0, 56(sp)
80000744: 23 2a 91 02                  	sw	s1, 52(sp)
80000748: 23 28 21 03                  	sw	s2, 48(sp)
8000074c: 23 26 31 03                  	sw	s3, 44(sp)
80000750: 23 24 41 03                  	sw	s4, 40(sp)
80000754: 23 22 51 03                  	sw	s5, 36(sp)
80000758: 23 20 61 03                  	sw	s6, 32(sp)
8000075c: 23 2e 71 01                  	sw	s7, 28(sp)
80000760: 23 2c 81 01                  	sw	s8, 24(sp)
80000764: 23 2a 91 01                  	sw	s9, 20(sp)
80000768: 23 28 a1 01                  	sw	s10, 16(sp)
8000076c: 23 26 b1 01                  	sw	s11, 12(sp)
80000770: 27 24 81 00                  	fsw	fs0, 8(sp)
80000774: 27 22 91 00                  	fsw	fs1, 4(sp)
80000778: 13 09 00 00                  	mv	s2, zero
8000077c: 83 26 05 00                  	lw	a3, 0(a0)
80000780: 03 27 85 00                  	lw	a4, 8(a0)
80000784: 83 27 c5 00                  	lw	a5, 12(a0)
80000788: 83 24 05 01                  	lw	s1, 16(a0)
8000078c: 03 25 45 00                  	lw	a0, 4(a0)
80000790: 83 2a 07 00                  	lw	s5, 0(a4)
80000794: 07 a4 07 00                  	flw	fs0, 0(a5)
80000798: 87 a4 04 00                  	flw	fs1, 0(s1)
8000079c: 83 ac 85 01                  	lw	s9, 24(a1)
800007a0: 03 a7 c5 00                  	lw	a4, 12(a1)
800007a4: 83 a9 c5 01                  	lw	s3, 28(a1)
800007a8: 03 aa 05 02                  	lw	s4, 32(a1)
800007ac: b3 85 cc 02                  	mul	a1, s9, a2
800007b0: 33 0d b7 00                  	add	s10, a4, a1
800007b4: 93 15 3d 00                  	slli	a1, s10, 3
800007b8: b3 85 b6 00                  	add	a1, a3, a1
800007bc: 13 16 2d 00                  	slli	a2, s10, 2
800007c0: 33 0b c5 00                  	add	s6, a0, a2
800007c4: 93 8b 45 00                  	addi	s7, a1, 4
800007c8: 6f 00 c0 00                  	j	12
800007cc: 13 09 19 00                  	addi	s2, s2, 1
800007d0: 63 74 49 07                  	bgeu	s2, s4, 104
800007d4: 13 0c 00 00                  	mv	s8, zero
800007d8: 6f 00 c0 00                  	j	12
800007dc: 13 0c 1c 00                  	addi	s8, s8, 1
800007e0: e3 76 3c ff                  	bgeu	s8, s3, -20
800007e4: 13 04 00 00                  	mv	s0, zero
800007e8: 93 0d 0b 00                  	mv	s11, s6
800007ec: 93 84 0b 00                  	mv	s1, s7
800007f0: 6f 00 40 01                  	j	20
800007f4: 13 04 14 00                  	addi	s0, s0, 1
800007f8: 93 84 84 00                  	addi	s1, s1, 8
800007fc: 93 8d 4d 00                  	addi	s11, s11, 4
80000800: e3 7e 94 fd                  	bgeu	s0, s9, -36
80000804: 33 05 8d 00                  	add	a0, s10, s0
80000808: e3 56 55 ff                  	bge	a0, s5, -20
8000080c: 07 a0 c4 ff                  	flw	ft0, -4(s1)
80000810: 87 a0 04 00                  	flw	ft1, 0(s1)
80000814: 53 70 04 08                  	fsub.s	ft0, fs0, ft0
80000818: d3 f0 14 08                  	fsub.s	ft1, fs1, ft1
8000081c: d3 f0 10 10                  	fmul.s	ft1, ft1, ft1
80000820: 53 70 00 10                  	fmul.s	ft0, ft0, ft0
80000824: 53 75 10 00                  	fadd.s	fa0, ft0, ft1
80000828: 97 00 00 00                  	auipc	ra, 0
8000082c: e7 80 c0 c5                  	jalr	-932(ra)
80000830: 27 a0 ad 00                  	fsw	fa0, 0(s11)
80000834: 6f f0 1f fc                  	j	-64
80000838: 87 24 41 00                  	flw	fs1, 4(sp)
8000083c: 07 24 81 00                  	flw	fs0, 8(sp)
80000840: 83 2d c1 00                  	lw	s11, 12(sp)
80000844: 03 2d 01 01                  	lw	s10, 16(sp)
80000848: 83 2c 41 01                  	lw	s9, 20(sp)
8000084c: 03 2c 81 01                  	lw	s8, 24(sp)
80000850: 83 2b c1 01                  	lw	s7, 28(sp)
80000854: 03 2b 01 02                  	lw	s6, 32(sp)
80000858: 83 2a 41 02                  	lw	s5, 36(sp)
8000085c: 03 2a 81 02                  	lw	s4, 40(sp)
80000860: 83 29 c1 02                  	lw	s3, 44(sp)
80000864: 03 29 01 03                  	lw	s2, 48(sp)
80000868: 83 24 41 03                  	lw	s1, 52(sp)
8000086c: 03 24 81 03                  	lw	s0, 56(sp)
80000870: 83 20 c1 03                  	lw	ra, 60(sp)
80000874: 13 01 01 04                  	addi	sp, sp, 64
80000878: 67 80 00 00                  	ret

8000087c _exit:
8000087c: 13 05 00 00                  	mv	a0, zero
80000880: 6b 00 05 00                  	<unknown>

80000884 vx_set_sp:
80000884: 73 25 00 fc                  	csrr	a0, 4032
80000888: 6b 00 05 00                  	<unknown>
8000088c: 97 11 00 00                  	auipc	gp, 1
80000890: 93 81 c1 f7                  	addi	gp, gp, -132
80000894: 17 f1 ff 7e                  	auipc	sp, 520191
80000898: 13 01 c1 76                  	addi	sp, sp, 1900
8000089c: 93 05 00 40                  	addi	a1, zero, 1024
800008a0: 73 26 10 cc                  	csrr	a2, 3265
800008a4: b3 85 c5 02                  	mul	a1, a1, a2
800008a8: 33 01 b1 40                  	sub	sp, sp, a1
800008ac: f3 26 30 cc                  	csrr	a3, 3267
800008b0: 63 86 06 00                  	beqz	a3, 12
800008b4: 13 05 00 00                  	mv	a0, zero
800008b8: 6b 00 05 00                  	<unknown>

800008bc RETURN:
800008bc: 67 80 00 00                  	ret

800008c0 vx_wspawn:
800008c0: 6b 10 b5 00                  	<unknown>
800008c4: 67 80 00 00                  	ret

800008c8 vx_tmc:
800008c8: 6b 00 05 00                  	<unknown>
800008cc: 67 80 00 00                  	ret

800008d0 vx_barrier:
800008d0: 6b 40 b5 00                  	<unknown>
800008d4: 67 80 00 00                  	ret

800008d8 vx_split:
800008d8: 6b 20 05 00                  	<unknown>
800008dc: 67 80 00 00                  	ret

800008e0 vx_join:
800008e0: 6b 30 00 00                  	<unknown>
800008e4: 67 80 00 00                  	ret

800008e8 vx_warp_id:
800008e8: 73 25 30 cc                  	csrr	a0, 3267
800008ec: 67 80 00 00                  	ret

800008f0 vx_warp_gid:
800008f0: 73 25 40 f1                  	csrr	a0, mhartid
800008f4: 67 80 00 00                  	ret

800008f8 vx_thread_id:
800008f8: 73 25 00 cc                  	csrr	a0, 3264
800008fc: 67 80 00 00                  	ret

80000900 vx_thread_lid:
80000900: 73 25 10 cc                  	csrr	a0, 3265
80000904: 67 80 00 00                  	ret

80000908 vx_thread_gid:
80000908: 73 25 20 cc                  	csrr	a0, 3266
8000090c: 67 80 00 00                  	ret

80000910 vx_core_id:
80000910: 73 25 50 cc                  	csrr	a0, 3269
80000914: 67 80 00 00                  	ret

80000918 vx_num_threads:
80000918: 73 25 00 fc                  	csrr	a0, 4032
8000091c: 67 80 00 00                  	ret

80000920 vx_num_warps:
80000920: 73 25 10 fc                  	csrr	a0, 4033
80000924: 67 80 00 00                  	ret

80000928 vx_num_cores:
80000928: 73 25 20 fc                  	csrr	a0, 4034
8000092c: 67 80 00 00                  	ret

80000930 vx_num_cycles:
80000930: 73 25 00 b0                  	csrr	a0, mcycle
80000934: 67 80 00 00                  	ret

80000938 vx_num_instrs:
80000938: 73 25 20 b0                  	csrr	a0, minstret
8000093c: 67 80 00 00                  	ret

80000940 sqrtf:
80000940: 13 01 01 fe                  	addi	sp, sp, -32
80000944: 27 26 81 00                  	fsw	fs0, 12(sp)
80000948: 23 2e 11 00                  	sw	ra, 28(sp)
8000094c: 53 04 a5 20                  	fmv.s	fs0, fa0
80000950: 27 24 91 00                  	fsw	fs1, 8(sp)
80000954: ef 00 00 06                  	jal	96
80000958: b7 17 00 80                  	lui	a5, 524289
8000095c: 03 a7 87 43                  	lw	a4, 1080(a5)
80000960: 93 07 f0 ff                  	addi	a5, zero, -1
80000964: 63 0c f7 00                  	beq	a4, a5, 24
80000968: d3 27 84 a0                  	feq.s	a5, fs0, fs0
8000096c: 63 88 07 00                  	beqz	a5, 16
80000970: d3 04 00 f0                  	fmv.w.x	fs1, zero
80000974: d3 17 94 a0                  	flt.s	a5, fs0, fs1
80000978: 63 9c 07 00                  	bnez	a5, 24
8000097c: 83 20 c1 01                  	lw	ra, 28(sp)
80000980: 07 24 c1 00                  	flw	fs0, 12(sp)
80000984: 87 24 81 00                  	flw	fs1, 8(sp)
80000988: 13 01 01 02                  	addi	sp, sp, 32
8000098c: 67 80 00 00                  	ret
80000990: ef 00 40 14                  	jal	324
80000994: 83 20 c1 01                  	lw	ra, 28(sp)
80000998: 93 07 10 02                  	addi	a5, zero, 33
8000099c: 23 20 f5 00                  	sw	a5, 0(a0)
800009a0: 53 f5 94 18                  	fdiv.s	fa0, fs1, fs1
800009a4: 07 24 c1 00                  	flw	fs0, 12(sp)
800009a8: 87 24 81 00                  	flw	fs1, 8(sp)
800009ac: 13 01 01 02                  	addi	sp, sp, 32
800009b0: 67 80 00 00                  	ret

800009b4 __ieee754_sqrtf:
800009b4: d3 06 05 e0                  	fmv.x.w	a3, fa0
800009b8: 37 07 80 7f                  	lui	a4, 522240
800009bc: 93 97 16 00                  	slli	a5, a3, 1
800009c0: 93 d7 17 00                  	srli	a5, a5, 1
800009c4: 63 f2 e7 0c                  	bgeu	a5, a4, 196
800009c8: 53 05 05 e0                  	fmv.x.w	a0, fa0
800009cc: 63 8a 07 0a                  	beqz	a5, 180
800009d0: 93 87 06 00                  	mv	a5, a3
800009d4: 63 c6 06 0c                  	bltz	a3, 204
800009d8: 33 76 d7 00                  	and	a2, a4, a3
800009dc: 13 d7 76 41                  	srai	a4, a3, 23
800009e0: 63 14 06 02                  	bnez	a2, 40
800009e4: 37 06 80 00                  	lui	a2, 2048
800009e8: b3 76 d6 00                  	and	a3, a2, a3
800009ec: 63 94 06 0c                  	bnez	a3, 200
800009f0: 93 97 17 00                  	slli	a5, a5, 1
800009f4: 93 95 87 00                  	slli	a1, a5, 8
800009f8: 13 86 06 00                  	mv	a2, a3
800009fc: 93 86 16 00                  	addi	a3, a3, 1
80000a00: e3 d8 05 fe                  	bgez	a1, -16
80000a04: 33 07 c7 40                  	sub	a4, a4, a2
80000a08: b7 06 80 00                  	lui	a3, 2048
80000a0c: 13 86 f6 ff                  	addi	a2, a3, -1
80000a10: b3 f7 c7 00                  	and	a5, a5, a2
80000a14: 13 07 17 f8                  	addi	a4, a4, -127
80000a18: b3 e6 d7 00                  	or	a3, a5, a3
80000a1c: 13 76 17 00                  	andi	a2, a4, 1
80000a20: 93 97 16 00                  	slli	a5, a3, 1
80000a24: 63 1a 06 06                  	bnez	a2, 116
80000a28: 13 58 17 40                  	srai	a6, a4, 1
80000a2c: 93 06 90 01                  	addi	a3, zero, 25
80000a30: 13 05 00 00                  	mv	a0, zero
80000a34: 93 05 00 00                  	mv	a1, zero
80000a38: 37 07 00 01                  	lui	a4, 4096
80000a3c: 33 86 e5 00                  	add	a2, a1, a4
80000a40: 93 86 f6 ff                  	addi	a3, a3, -1
80000a44: 63 c8 c7 00                  	blt	a5, a2, 16
80000a48: b3 05 e6 00                  	add	a1, a2, a4
80000a4c: b3 87 c7 40                  	sub	a5, a5, a2
80000a50: 33 05 e5 00                  	add	a0, a0, a4
80000a54: 93 97 17 00                  	slli	a5, a5, 1
80000a58: 13 57 17 00                  	srli	a4, a4, 1
80000a5c: e3 90 06 fe                  	bnez	a3, -32
80000a60: 63 86 07 00                  	beqz	a5, 12
80000a64: 13 05 15 00                  	addi	a0, a0, 1
80000a68: 13 75 e5 ff                  	andi	a0, a0, -2
80000a6c: 13 55 15 40                  	srai	a0, a0, 1
80000a70: b7 07 00 3f                  	lui	a5, 258048
80000a74: 33 05 f5 00                  	add	a0, a0, a5
80000a78: 13 17 78 01                  	slli	a4, a6, 23
80000a7c: 33 05 a7 00                  	add	a0, a4, a0
80000a80: 53 05 05 f0                  	fmv.w.x	fa0, a0
80000a84: 67 80 00 00                  	ret
80000a88: c3 77 a5 50                  	fmadd.s	fa5, fa0, fa0, fa0
80000a8c: 53 85 07 e0                  	fmv.x.w	a0, fa5
80000a90: 53 05 05 f0                  	fmv.w.x	fa0, a0
80000a94: 67 80 00 00                  	ret
80000a98: 93 97 26 00                  	slli	a5, a3, 2
80000a9c: 6f f0 df f8                  	j	-116
80000aa0: d3 77 a5 08                  	fsub.s	fa5, fa0, fa0
80000aa4: d3 f7 f7 18                  	fdiv.s	fa5, fa5, fa5
80000aa8: 53 85 07 e0                  	fmv.x.w	a0, fa5
80000aac: 53 05 05 f0                  	fmv.w.x	fa0, a0
80000ab0: 67 80 00 00                  	ret
80000ab4: 13 06 f0 ff                  	addi	a2, zero, -1
80000ab8: 33 07 c7 40                  	sub	a4, a4, a2
80000abc: 6f f0 df f4                  	j	-180

80000ac0 atexit:
80000ac0: 93 05 05 00                  	mv	a1, a0
80000ac4: 93 06 00 00                  	mv	a3, zero
80000ac8: 13 06 00 00                  	mv	a2, zero
80000acc: 13 05 00 00                  	mv	a0, zero
80000ad0: 6f 00 80 21                  	j	536

80000ad4 __errno:
80000ad4: b7 17 00 80                  	lui	a5, 524289
80000ad8: 03 a5 47 43                  	lw	a0, 1076(a5)
80000adc: 67 80 00 00                  	ret

80000ae0 exit:
80000ae0: 13 01 01 ff                  	addi	sp, sp, -16
80000ae4: 93 05 00 00                  	mv	a1, zero
80000ae8: 23 24 81 00                  	sw	s0, 8(sp)
80000aec: 23 26 11 00                  	sw	ra, 12(sp)
80000af0: 13 04 05 00                  	mv	s0, a0
80000af4: ef 00 00 29                  	jal	656
80000af8: b7 17 00 80                  	lui	a5, 524289
80000afc: 03 a5 07 43                  	lw	a0, 1072(a5)
80000b00: 83 27 c5 03                  	lw	a5, 60(a0)
80000b04: 63 84 07 00                  	beqz	a5, 8
80000b08: e7 80 07 00                  	jalr	a5
80000b0c: 13 05 04 00                  	mv	a0, s0
80000b10: ef f0 df d6                  	jal	-660

80000b14 __libc_fini_array:
80000b14: 13 01 01 ff                  	addi	sp, sp, -16
80000b18: 23 24 81 00                  	sw	s0, 8(sp)
80000b1c: b7 17 00 80                  	lui	a5, 524289
80000b20: 37 14 00 80                  	lui	s0, 524289
80000b24: 13 04 44 00                  	addi	s0, s0, 4
80000b28: 93 87 47 00                  	addi	a5, a5, 4
80000b2c: b3 87 87 40                  	sub	a5, a5, s0
80000b30: 23 22 91 00                  	sw	s1, 4(sp)
80000b34: 23 26 11 00                  	sw	ra, 12(sp)
80000b38: 93 d4 27 40                  	srai	s1, a5, 2
80000b3c: 63 80 04 02                  	beqz	s1, 32
80000b40: 93 87 c7 ff                  	addi	a5, a5, -4
80000b44: 33 84 87 00                  	add	s0, a5, s0
80000b48: 83 27 04 00                  	lw	a5, 0(s0)
80000b4c: 93 84 f4 ff                  	addi	s1, s1, -1
80000b50: 13 04 c4 ff                  	addi	s0, s0, -4
80000b54: e7 80 07 00                  	jalr	a5
80000b58: e3 98 04 fe                  	bnez	s1, -16
80000b5c: 83 20 c1 00                  	lw	ra, 12(sp)
80000b60: 03 24 81 00                  	lw	s0, 8(sp)
80000b64: 83 24 41 00                  	lw	s1, 4(sp)
80000b68: 13 01 01 01                  	addi	sp, sp, 16
80000b6c: 67 80 00 00                  	ret

80000b70 __libc_init_array:
80000b70: 13 01 01 ff                  	addi	sp, sp, -16
80000b74: 23 24 81 00                  	sw	s0, 8(sp)
80000b78: 23 20 21 01                  	sw	s2, 0(sp)
80000b7c: 37 14 00 80                  	lui	s0, 524289
80000b80: 37 19 00 80                  	lui	s2, 524289
80000b84: 93 07 04 00                  	mv	a5, s0
80000b88: 13 09 09 00                  	mv	s2, s2
80000b8c: 33 09 f9 40                  	sub	s2, s2, a5
80000b90: 23 26 11 00                  	sw	ra, 12(sp)
80000b94: 23 22 91 00                  	sw	s1, 4(sp)
80000b98: 13 59 29 40                  	srai	s2, s2, 2
80000b9c: 63 00 09 02                  	beqz	s2, 32
80000ba0: 13 04 04 00                  	mv	s0, s0
80000ba4: 93 04 00 00                  	mv	s1, zero
80000ba8: 83 27 04 00                  	lw	a5, 0(s0)
80000bac: 93 84 14 00                  	addi	s1, s1, 1
80000bb0: 13 04 44 00                  	addi	s0, s0, 4
80000bb4: e7 80 07 00                  	jalr	a5
80000bb8: e3 18 99 fe                  	bne	s2, s1, -16
80000bbc: 37 14 00 80                  	lui	s0, 524289
80000bc0: 37 19 00 80                  	lui	s2, 524289
80000bc4: 93 07 04 00                  	mv	a5, s0
80000bc8: 13 09 49 00                  	addi	s2, s2, 4
80000bcc: 33 09 f9 40                  	sub	s2, s2, a5
80000bd0: 13 59 29 40                  	srai	s2, s2, 2
80000bd4: 63 00 09 02                  	beqz	s2, 32
80000bd8: 13 04 04 00                  	mv	s0, s0
80000bdc: 93 04 00 00                  	mv	s1, zero
80000be0: 83 27 04 00                  	lw	a5, 0(s0)
80000be4: 93 84 14 00                  	addi	s1, s1, 1
80000be8: 13 04 44 00                  	addi	s0, s0, 4
80000bec: e7 80 07 00                  	jalr	a5
80000bf0: e3 18 99 fe                  	bne	s2, s1, -16
80000bf4: 83 20 c1 00                  	lw	ra, 12(sp)
80000bf8: 03 24 81 00                  	lw	s0, 8(sp)
80000bfc: 83 24 41 00                  	lw	s1, 4(sp)
80000c00: 03 29 01 00                  	lw	s2, 0(sp)
80000c04: 13 01 01 01                  	addi	sp, sp, 16
80000c08: 67 80 00 00                  	ret

80000c0c memset:
80000c0c: 13 03 f0 00                  	addi	t1, zero, 15
80000c10: 13 07 05 00                  	mv	a4, a0
80000c14: 63 7e c3 02                  	bgeu	t1, a2, 60
80000c18: 93 77 f7 00                  	andi	a5, a4, 15
80000c1c: 63 90 07 0a                  	bnez	a5, 160
80000c20: 63 92 05 08                  	bnez	a1, 132
80000c24: 93 76 06 ff                  	andi	a3, a2, -16
80000c28: 13 76 f6 00                  	andi	a2, a2, 15
80000c2c: b3 86 e6 00                  	add	a3, a3, a4
80000c30: 23 20 b7 00                  	sw	a1, 0(a4)
80000c34: 23 22 b7 00                  	sw	a1, 4(a4)
80000c38: 23 24 b7 00                  	sw	a1, 8(a4)
80000c3c: 23 26 b7 00                  	sw	a1, 12(a4)
80000c40: 13 07 07 01                  	addi	a4, a4, 16
80000c44: e3 66 d7 fe                  	bltu	a4, a3, -20
80000c48: 63 14 06 00                  	bnez	a2, 8
80000c4c: 67 80 00 00                  	ret
80000c50: b3 06 c3 40                  	sub	a3, t1, a2
80000c54: 93 96 26 00                  	slli	a3, a3, 2
80000c58: 97 02 00 00                  	auipc	t0, 0
80000c5c: b3 86 56 00                  	add	a3, a3, t0
80000c60: 67 80 c6 00                  	jr	12(a3)
80000c64: 23 07 b7 00                  	sb	a1, 14(a4)
80000c68: a3 06 b7 00                  	sb	a1, 13(a4)
80000c6c: 23 06 b7 00                  	sb	a1, 12(a4)
80000c70: a3 05 b7 00                  	sb	a1, 11(a4)
80000c74: 23 05 b7 00                  	sb	a1, 10(a4)
80000c78: a3 04 b7 00                  	sb	a1, 9(a4)
80000c7c: 23 04 b7 00                  	sb	a1, 8(a4)
80000c80: a3 03 b7 00                  	sb	a1, 7(a4)
80000c84: 23 03 b7 00                  	sb	a1, 6(a4)
80000c88: a3 02 b7 00                  	sb	a1, 5(a4)
80000c8c: 23 02 b7 00                  	sb	a1, 4(a4)
80000c90: a3 01 b7 00                  	sb	a1, 3(a4)
80000c94: 23 01 b7 00                  	sb	a1, 2(a4)
80000c98: a3 00 b7 00                  	sb	a1, 1(a4)
80000c9c: 23 00 b7 00                  	sb	a1, 0(a4)
80000ca0: 67 80 00 00                  	ret
80000ca4: 93 f5 f5 0f                  	andi	a1, a1, 255
80000ca8: 93 96 85 00                  	slli	a3, a1, 8
80000cac: b3 e5 d5 00                  	or	a1, a1, a3
80000cb0: 93 96 05 01                  	slli	a3, a1, 16
80000cb4: b3 e5 d5 00                  	or	a1, a1, a3
80000cb8: 6f f0 df f6                  	j	-148
80000cbc: 93 96 27 00                  	slli	a3, a5, 2
80000cc0: 97 02 00 00                  	auipc	t0, 0
80000cc4: b3 86 56 00                  	add	a3, a3, t0
80000cc8: 93 82 00 00                  	mv	t0, ra
80000ccc: e7 80 06 fa                  	jalr	-96(a3)
80000cd0: 93 80 02 00                  	mv	ra, t0
80000cd4: 93 87 07 ff                  	addi	a5, a5, -16
80000cd8: 33 07 f7 40                  	sub	a4, a4, a5
80000cdc: 33 06 f6 00                  	add	a2, a2, a5
80000ce0: e3 78 c3 f6                  	bgeu	t1, a2, -144
80000ce4: 6f f0 df f3                  	j	-196

80000ce8 __register_exitproc:
80000ce8: b7 17 00 80                  	lui	a5, 524289
80000cec: 03 a7 07 43                  	lw	a4, 1072(a5)
80000cf0: 83 27 87 14                  	lw	a5, 328(a4)
80000cf4: 63 8c 07 04                  	beqz	a5, 88
80000cf8: 03 a7 47 00                  	lw	a4, 4(a5)
80000cfc: 13 08 f0 01                  	addi	a6, zero, 31
80000d00: 63 4e e8 06                  	blt	a6, a4, 124
80000d04: 13 18 27 00                  	slli	a6, a4, 2
80000d08: 63 06 05 02                  	beqz	a0, 44
80000d0c: 33 83 07 01                  	add	t1, a5, a6
80000d10: 23 24 c3 08                  	sw	a2, 136(t1)
80000d14: 83 a8 87 18                  	lw	a7, 392(a5)
80000d18: 13 06 10 00                  	addi	a2, zero, 1
80000d1c: 33 16 e6 00                  	sll	a2, a2, a4
80000d20: b3 e8 c8 00                  	or	a7, a7, a2
80000d24: 23 a4 17 19                  	sw	a7, 392(a5)
80000d28: 23 24 d3 10                  	sw	a3, 264(t1)
80000d2c: 93 06 20 00                  	addi	a3, zero, 2
80000d30: 63 04 d5 02                  	beq	a0, a3, 40
80000d34: 13 07 17 00                  	addi	a4, a4, 1
80000d38: 23 a2 e7 00                  	sw	a4, 4(a5)
80000d3c: b3 87 07 01                  	add	a5, a5, a6
80000d40: 23 a4 b7 00                  	sw	a1, 8(a5)
80000d44: 13 05 00 00                  	mv	a0, zero
80000d48: 67 80 00 00                  	ret
80000d4c: 93 07 c7 14                  	addi	a5, a4, 332
80000d50: 23 24 f7 14                  	sw	a5, 328(a4)
80000d54: 6f f0 5f fa                  	j	-92
80000d58: 83 a6 c7 18                  	lw	a3, 396(a5)
80000d5c: 13 07 17 00                  	addi	a4, a4, 1
80000d60: 23 a2 e7 00                  	sw	a4, 4(a5)
80000d64: 33 e6 c6 00                  	or	a2, a3, a2
80000d68: 23 a6 c7 18                  	sw	a2, 396(a5)
80000d6c: b3 87 07 01                  	add	a5, a5, a6
80000d70: 23 a4 b7 00                  	sw	a1, 8(a5)
80000d74: 13 05 00 00                  	mv	a0, zero
80000d78: 67 80 00 00                  	ret
80000d7c: 13 05 f0 ff                  	addi	a0, zero, -1
80000d80: 67 80 00 00                  	ret

80000d84 __call_exitprocs:
80000d84: 13 01 01 fd                  	addi	sp, sp, -48
80000d88: b7 17 00 80                  	lui	a5, 524289
80000d8c: 23 2c 41 01                  	sw	s4, 24(sp)
80000d90: 03 aa 07 43                  	lw	s4, 1072(a5)
80000d94: 23 20 21 03                  	sw	s2, 32(sp)
80000d98: 23 26 11 02                  	sw	ra, 44(sp)
80000d9c: 03 29 8a 14                  	lw	s2, 328(s4)
80000da0: 23 24 81 02                  	sw	s0, 40(sp)
80000da4: 23 22 91 02                  	sw	s1, 36(sp)
80000da8: 23 2e 31 01                  	sw	s3, 28(sp)
80000dac: 23 2a 51 01                  	sw	s5, 20(sp)
80000db0: 23 28 61 01                  	sw	s6, 16(sp)
80000db4: 23 26 71 01                  	sw	s7, 12(sp)
80000db8: 23 24 81 01                  	sw	s8, 8(sp)
80000dbc: 63 00 09 04                  	beqz	s2, 64
80000dc0: 13 0b 05 00                  	mv	s6, a0
80000dc4: 93 8b 05 00                  	mv	s7, a1
80000dc8: 93 0a 10 00                  	addi	s5, zero, 1
80000dcc: 93 09 f0 ff                  	addi	s3, zero, -1
80000dd0: 83 24 49 00                  	lw	s1, 4(s2)
80000dd4: 13 84 f4 ff                  	addi	s0, s1, -1
80000dd8: 63 42 04 02                  	bltz	s0, 36
80000ddc: 93 94 24 00                  	slli	s1, s1, 2
80000de0: b3 04 99 00                  	add	s1, s2, s1
80000de4: 63 84 0b 04                  	beqz	s7, 72
80000de8: 83 a7 44 10                  	lw	a5, 260(s1)
80000dec: 63 80 77 05                  	beq	a5, s7, 64
80000df0: 13 04 f4 ff                  	addi	s0, s0, -1
80000df4: 93 84 c4 ff                  	addi	s1, s1, -4
80000df8: e3 16 34 ff                  	bne	s0, s3, -20
80000dfc: 83 20 c1 02                  	lw	ra, 44(sp)
80000e00: 03 24 81 02                  	lw	s0, 40(sp)
80000e04: 83 24 41 02                  	lw	s1, 36(sp)
80000e08: 03 29 01 02                  	lw	s2, 32(sp)
80000e0c: 83 29 c1 01                  	lw	s3, 28(sp)
80000e10: 03 2a 81 01                  	lw	s4, 24(sp)
80000e14: 83 2a 41 01                  	lw	s5, 20(sp)
80000e18: 03 2b 01 01                  	lw	s6, 16(sp)
80000e1c: 83 2b c1 00                  	lw	s7, 12(sp)
80000e20: 03 2c 81 00                  	lw	s8, 8(sp)
80000e24: 13 01 01 03                  	addi	sp, sp, 48
80000e28: 67 80 00 00                  	ret
80000e2c: 83 27 49 00                  	lw	a5, 4(s2)
80000e30: 83 a6 44 00                  	lw	a3, 4(s1)
80000e34: 93 87 f7 ff                  	addi	a5, a5, -1
80000e38: 63 8e 87 04                  	beq	a5, s0, 92
80000e3c: 23 a2 04 00                  	sw	zero, 4(s1)
80000e40: e3 88 06 fa                  	beqz	a3, -80
80000e44: 83 27 89 18                  	lw	a5, 392(s2)
80000e48: 33 97 8a 00                  	sll	a4, s5, s0
80000e4c: 03 2c 49 00                  	lw	s8, 4(s2)
80000e50: b3 77 f7 00                  	and	a5, a4, a5
80000e54: 63 92 07 02                  	bnez	a5, 36
80000e58: e7 80 06 00                  	jalr	a3
80000e5c: 03 27 49 00                  	lw	a4, 4(s2)
80000e60: 83 27 8a 14                  	lw	a5, 328(s4)
80000e64: 63 14 87 01                  	bne	a4, s8, 8
80000e68: e3 04 f9 f8                  	beq	s2, a5, -120
80000e6c: e3 88 07 f8                  	beqz	a5, -112
80000e70: 13 89 07 00                  	mv	s2, a5
80000e74: 6f f0 df f5                  	j	-164
80000e78: 83 27 c9 18                  	lw	a5, 396(s2)
80000e7c: 83 a5 44 08                  	lw	a1, 132(s1)
80000e80: 33 77 f7 00                  	and	a4, a4, a5
80000e84: 63 1c 07 00                  	bnez	a4, 24
80000e88: 13 05 0b 00                  	mv	a0, s6
80000e8c: e7 80 06 00                  	jalr	a3
80000e90: 6f f0 df fc                  	j	-52
80000e94: 23 22 89 00                  	sw	s0, 4(s2)
80000e98: 6f f0 9f fa                  	j	-88
80000e9c: 13 85 05 00                  	mv	a0, a1
80000ea0: e7 80 06 00                  	jalr	a3
80000ea4: 6f f0 9f fb                  	j	-72

Disassembly of section .init_array:

80001000 __preinit_array_start:
80001000: 50 00                        	<unknown>
80001002: 00 80                        	<unknown>

Disassembly of section .data:

80001008 impure_data:
80001008: 00 00                        	<unknown>
8000100a: 00 00                        	<unknown>
8000100c: f4 12                        	<unknown>
8000100e: 00 80                        	<unknown>
80001010: 5c 13                        	<unknown>
80001012: 00 80                        	<unknown>
80001014: c4 13                        	<unknown>
80001016: 00 80                        	<unknown>
		...
800010b0: 01 00                        	<unknown>
800010b2: 00 00                        	<unknown>
800010b4: 00 00                        	<unknown>
800010b6: 00 00                        	<unknown>
800010b8: 0e 33                        	<unknown>
800010ba: cd ab                        	<unknown>
800010bc: 34 12                        	<unknown>
800010be: 6d e6                        	<unknown>
800010c0: ec de                        	<unknown>
800010c2: 05 00                        	<unknown>
800010c4: 0b 00 00 00                  	<unknown>
		...

Disassembly of section .sdata:

80001430 _global_impure_ptr:
80001430: 08 10                        	<unknown>
80001432: 00 80                        	<unknown>

80001434 _impure_ptr:
80001434: 08 10                        	<unknown>
80001436: 00 80                        	<unknown>

Disassembly of section .sbss:

80001438 __fdlib_version:
...

Disassembly of section .bss:

8000143c g_wspawn_args:
...

Disassembly of section .comment:

00000000 .comment:
       0: 63 6c 61 6e                  	bltu	sp, t1, 1784
       4: 67 20 76 65                  	<unknown>
       8: 72 73                        	<unknown>
       a: 69 6f                        	<unknown>
       c: 6e 20                        	<unknown>
       e: 31 30                        	<unknown>
      10: 2e 30                        	<unknown>
      12: 2e 30                        	<unknown>
      14: 20 28                        	<unknown>
      16: 68 74                        	<unknown>
      18: 74 70                        	<unknown>
      1a: 73 3a 2f 2f                  	csrrc	s4, 754, t5
      1e: 67 69 74 68                  	<unknown>
      22: 75 62                        	<unknown>
      24: 2e 63                        	<unknown>
      26: 6f 6d 2f 6c                  	jal	s10, 1009346
      2a: 6c 76                        	<unknown>
      2c: 6d 2f                        	<unknown>
      2e: 6c 6c                        	<unknown>
      30: 76 6d                        	<unknown>
      32: 2d 70                        	<unknown>
      34: 72 6f                        	<unknown>
      36: 6a 65                        	<unknown>
      38: 63 74 2e 67                  	bgeu	t3, s2, 1640
      3c: 69 74                        	<unknown>
      3e: 20 37                        	<unknown>
      40: 33 63 35 33                  	<unknown>
      44: 65 36                        	<unknown>
      46: 31 32                        	<unknown>
      48: 61 61                        	<unknown>
      4a: 31 32                        	<unknown>
      4c: 35 61                        	<unknown>
      4e: 32 34                        	<unknown>
      50: 65 62                        	<unknown>
      52: 32 63                        	<unknown>
      54: 37 35 32 34                  	lui	a0, 213795
      58: 31 62                        	<unknown>
      5a: 32 65                        	<unknown>
      5c: 62 62                        	<unknown>
      5e: 64 35                        	<unknown>
      60: 36 30                        	<unknown>
      62: 62 38                        	<unknown>
      64: 35 63                        	<unknown>
      66: 37 29 00 47                  	lui	s2, 290818
      6a: 43 43 3a 20                  	fmadd.s	ft6, fs4, ft3, ft4, rmm
      6e: 28 47                        	<unknown>
      70: 4e 55                        	<unknown>
      72: 29 20                        	<unknown>
      74: 39 2e                        	<unknown>
      76: 32 2e                        	<unknown>
      78: 30 00                        	<unknown>

Disassembly of section .riscv.attributes:

00000000 .riscv.attributes:
       0: 41 25                        	<unknown>
       2: 00 00                        	<unknown>
       4: 00 72                        	<unknown>
       6: 69 73                        	<unknown>
       8: 63 76 00 01                  	bgeu	zero, a6, 12
       c: 1b 00 00 00                  	<unknown>
      10: 04 10                        	<unknown>
      12: 05 72                        	<unknown>
      14: 76 33                        	<unknown>
      16: 32 69                        	<unknown>
      18: 32 70                        	<unknown>
      1a: 30 5f                        	<unknown>
      1c: 6d 32                        	<unknown>
      1e: 70 30                        	<unknown>
      20: 5f 66 32 70                  	<unknown>
      24: 30 00                        	<unknown>

Disassembly of section .symtab:

00000000 .symtab:
		...
      14: 00 00                        	<unknown>
      16: 00 80                        	<unknown>
      18: 00 00                        	<unknown>
      1a: 00 00                        	<unknown>
      1c: 03 00 01 00                  	lb	zero, 0(sp)
      20: 00 00                        	<unknown>
      22: 00 00                        	<unknown>
      24: 50 00                        	<unknown>
      26: 00 80                        	<unknown>
      28: 00 00                        	<unknown>
      2a: 00 00                        	<unknown>
      2c: 03 00 02 00                  	lb	zero, 0(tp)
      30: 00 00                        	<unknown>
      32: 00 00                        	<unknown>
      34: 00 10                        	<unknown>
      36: 00 80                        	<unknown>
      38: 00 00                        	<unknown>
      3a: 00 00                        	<unknown>
      3c: 03 00 03 00                  	lb	zero, 0(t1)
      40: 00 00                        	<unknown>
      42: 00 00                        	<unknown>
      44: 08 10                        	<unknown>
      46: 00 80                        	<unknown>
      48: 00 00                        	<unknown>
      4a: 00 00                        	<unknown>
      4c: 03 00 04 00                  	lb	zero, 0(s0)
      50: 00 00                        	<unknown>
      52: 00 00                        	<unknown>
      54: 30 14                        	<unknown>
      56: 00 80                        	<unknown>
      58: 00 00                        	<unknown>
      5a: 00 00                        	<unknown>
      5c: 03 00 05 00                  	lb	zero, 0(a0)
      60: 00 00                        	<unknown>
      62: 00 00                        	<unknown>
      64: 38 14                        	<unknown>
      66: 00 80                        	<unknown>
      68: 00 00                        	<unknown>
      6a: 00 00                        	<unknown>
      6c: 03 00 06 00                  	lb	zero, 0(a2)
      70: 00 00                        	<unknown>
      72: 00 00                        	<unknown>
      74: 3c 14                        	<unknown>
      76: 00 80                        	<unknown>
      78: 00 00                        	<unknown>
      7a: 00 00                        	<unknown>
      7c: 03 00 07 00                  	lb	zero, 0(a4)
		...
      8c: 03 00 08 00                  	lb	zero, 0(a6)
		...
      9c: 03 00 09 00                  	lb	zero, 0(s2)
      a0: 01 00                        	<unknown>
		...
      aa: 00 00                        	<unknown>
      ac: 04 00                        	<unknown>
      ae: f1 ff                        	<unknown>
      b0: 0e 00                        	<unknown>
      b2: 00 00                        	<unknown>
      b4: bc 08                        	<unknown>
      b6: 00 80                        	<unknown>
      b8: 00 00                        	<unknown>
      ba: 00 00                        	<unknown>
      bc: 00 00                        	<unknown>
      be: 02 00                        	<unknown>
      c0: 15 00                        	<unknown>
		...
      ca: 00 00                        	<unknown>
      cc: 04 00                        	<unknown>
      ce: f1 ff                        	<unknown>
      d0: 25 00                        	<unknown>
      d2: 00 00                        	<unknown>
      d4: 50 00                        	<unknown>
      d6: 00 80                        	<unknown>
      d8: 18 00                        	<unknown>
      da: 00 00                        	<unknown>
      dc: 02 00                        	<unknown>
      de: 02 00                        	<unknown>
      e0: 33 00 00 00                  	add	zero, zero, zero
		...
      ec: 04 00                        	<unknown>
      ee: f1 ff                        	<unknown>
      f0: 57 00 00 00                  	<unknown>
		...
      fc: 04 00                        	<unknown>
      fe: f1 ff                        	<unknown>
     100: 63 00 00 00                  	beqz	zero, 0
     104: 84 04                        	<unknown>
     106: 00 80                        	<unknown>
     108: 24 00                        	<unknown>
     10a: 00 00                        	<unknown>
     10c: 02 00                        	<unknown>
     10e: 02 00                        	<unknown>
     110: 70 00                        	<unknown>
		...
     11a: 00 00                        	<unknown>
     11c: 04 00                        	<unknown>
     11e: f1 ff                        	<unknown>
     120: 7a 00                        	<unknown>
		...
     12a: 00 00                        	<unknown>
     12c: 04 00                        	<unknown>
     12e: f1 ff                        	<unknown>
     130: 9c 00                        	<unknown>
		...
     13a: 00 00                        	<unknown>
     13c: 04 00                        	<unknown>
     13e: f1 ff                        	<unknown>
     140: 84 00                        	<unknown>
		...
     14a: 00 00                        	<unknown>
     14c: 04 00                        	<unknown>
     14e: f1 ff                        	<unknown>
     150: 9e 00                        	<unknown>
		...
     15a: 00 00                        	<unknown>
     15c: 04 00                        	<unknown>
     15e: f1 ff                        	<unknown>
     160: 8c 00                        	<unknown>
		...
     16a: 00 00                        	<unknown>
     16c: 04 00                        	<unknown>
     16e: f1 ff                        	<unknown>
     170: 93 00 00 00                  	mv	ra, zero
		...
     17c: 04 00                        	<unknown>
     17e: f1 ff                        	<unknown>
     180: 9a 00                        	<unknown>
		...
     18a: 00 00                        	<unknown>
     18c: 04 00                        	<unknown>
     18e: f1 ff                        	<unknown>
     190: a5 00                        	<unknown>
		...
     19a: 00 00                        	<unknown>
     19c: 04 00                        	<unknown>
     19e: f1 ff                        	<unknown>
     1a0: ae 00                        	<unknown>
     1a2: 00 00                        	<unknown>
     1a4: 08 10                        	<unknown>
     1a6: 00 80                        	<unknown>
     1a8: 28 04                        	<unknown>
     1aa: 00 00                        	<unknown>
     1ac: 01 00                        	<unknown>
     1ae: 04 00                        	<unknown>
		...
     1bc: 04 00                        	<unknown>
     1be: f1 ff                        	<unknown>
     1c0: ba 00                        	<unknown>
     1c2: 00 00                        	<unknown>
     1c4: 04 10                        	<unknown>
     1c6: 00 80                        	<unknown>
     1c8: 00 00                        	<unknown>
     1ca: 00 00                        	<unknown>
     1cc: 00 00                        	<unknown>
     1ce: 03 00 cb 00                  	lb	zero, 12(s6)
     1d2: 00 00                        	<unknown>
     1d4: 04 10                        	<unknown>
     1d6: 00 80                        	<unknown>
     1d8: 00 00                        	<unknown>
     1da: 00 00                        	<unknown>
     1dc: 00 00                        	<unknown>
     1de: 03 00 de 00                  	lb	zero, 13(t3)
     1e2: 00 00                        	<unknown>
     1e4: 04 10                        	<unknown>
     1e6: 00 80                        	<unknown>
     1e8: 00 00                        	<unknown>
     1ea: 00 00                        	<unknown>
     1ec: 00 00                        	<unknown>
     1ee: 03 00 ef 00                  	lb	zero, 14(t5)
     1f2: 00 00                        	<unknown>
     1f4: 00 10                        	<unknown>
     1f6: 00 80                        	<unknown>
     1f8: 00 00                        	<unknown>
     1fa: 00 00                        	<unknown>
     1fc: 00 00                        	<unknown>
     1fe: 03 00 03 01                  	lb	zero, 16(t1)
     202: 00 00                        	<unknown>
     204: 00 10                        	<unknown>
     206: 00 80                        	<unknown>
     208: 00 00                        	<unknown>
     20a: 00 00                        	<unknown>
     20c: 00 00                        	<unknown>
     20e: 03 00 16 01                  	lb	zero, 17(a2)
     212: 00 00                        	<unknown>
     214: 00 10                        	<unknown>
     216: 00 80                        	<unknown>
     218: 00 00                        	<unknown>
     21a: 00 00                        	<unknown>
     21c: 00 00                        	<unknown>
     21e: 03 00 2c 01                  	lb	zero, 18(s8)
     222: 00 00                        	<unknown>
     224: 10 09                        	<unknown>
     226: 00 80                        	<unknown>
     228: 00 00                        	<unknown>
     22a: 00 00                        	<unknown>
     22c: 12 00                        	<unknown>
     22e: 02 00                        	<unknown>
     230: 37 01 00 00                  	lui	sp, 0
		...
     23c: 10 00                        	<unknown>
     23e: f1 ff                        	<unknown>
     240: 45 01                        	<unknown>
     242: 00 00                        	<unknown>
     244: c0 08                        	<unknown>
     246: 00 80                        	<unknown>
     248: 00 00                        	<unknown>
     24a: 00 00                        	<unknown>
     24c: 12 00                        	<unknown>
     24e: 02 00                        	<unknown>
     250: 4f 01 00 00                  	fnmadd.s	ft2, ft0, ft0, ft0, rne
     254: d4 0a                        	<unknown>
     256: 00 80                        	<unknown>
     258: 0c 00                        	<unknown>
     25a: 00 00                        	<unknown>
     25c: 12 00                        	<unknown>
     25e: 02 00                        	<unknown>
     260: 57 01 00 00                  	<unknown>
     264: 00 04                        	<unknown>
     266: 00 00                        	<unknown>
     268: 00 00                        	<unknown>
     26a: 00 00                        	<unknown>
     26c: 10 00                        	<unknown>
     26e: f1 ff                        	<unknown>
     270: 64 01                        	<unknown>
     272: 00 00                        	<unknown>
     274: 3c 14                        	<unknown>
     276: 00 80                        	<unknown>
     278: 40 00                        	<unknown>
     27a: 00 00                        	<unknown>
     27c: 11 00                        	<unknown>
     27e: 07 00 72 01                  	<unknown>
     282: 00 00                        	<unknown>
     284: c8 08                        	<unknown>
     286: 00 80                        	<unknown>
     288: 00 00                        	<unknown>
     28a: 00 00                        	<unknown>
     28c: 12 00                        	<unknown>
     28e: 02 00                        	<unknown>
     290: 79 01                        	<unknown>
     292: 00 00                        	<unknown>
     294: 30 14                        	<unknown>
     296: 00 80                        	<unknown>
     298: 00 00                        	<unknown>
     29a: 00 00                        	<unknown>
     29c: 10 00                        	<unknown>
     29e: 05 00                        	<unknown>
     2a0: b8 02                        	<unknown>
     2a2: 00 00                        	<unknown>
     2a4: 40 09                        	<unknown>
     2a6: 00 80                        	<unknown>
     2a8: 74 00                        	<unknown>
     2aa: 00 00                        	<unknown>
     2ac: 12 00                        	<unknown>
     2ae: 02 00                        	<unknown>
     2b0: 89 01                        	<unknown>
     2b2: 00 00                        	<unknown>
     2b4: 68 00                        	<unknown>
     2b6: 00 80                        	<unknown>
     2b8: 48 01                        	<unknown>
     2ba: 00 00                        	<unknown>
     2bc: 12 00                        	<unknown>
     2be: 02 00                        	<unknown>
     2c0: 9f 01 00 00                  	<unknown>
     2c4: 08 18                        	<unknown>
     2c6: 00 80                        	<unknown>
     2c8: 00 00                        	<unknown>
     2ca: 00 00                        	<unknown>
     2cc: 10 00                        	<unknown>
     2ce: f1 ff                        	<unknown>
     2d0: b0 01                        	<unknown>
     2d2: 00 00                        	<unknown>
     2d4: e0 08                        	<unknown>
     2d6: 00 80                        	<unknown>
     2d8: 00 00                        	<unknown>
     2da: 00 00                        	<unknown>
     2dc: 12 00                        	<unknown>
     2de: 02 00                        	<unknown>
     2e0: b8 01                        	<unknown>
     2e2: 00 00                        	<unknown>
     2e4: 20 09                        	<unknown>
     2e6: 00 80                        	<unknown>
     2e8: 00 00                        	<unknown>
     2ea: 00 00                        	<unknown>
     2ec: 12 00                        	<unknown>
     2ee: 02 00                        	<unknown>
     2f0: c5 01                        	<unknown>
     2f2: 00 00                        	<unknown>
     2f4: 48 02                        	<unknown>
     2f6: 00 80                        	<unknown>
     2f8: 0c 02                        	<unknown>
     2fa: 00 00                        	<unknown>
     2fc: 12 00                        	<unknown>
     2fe: 02 00                        	<unknown>
     300: d2 01                        	<unknown>
     302: 00 00                        	<unknown>
     304: d8 08                        	<unknown>
     306: 00 80                        	<unknown>
     308: 00 00                        	<unknown>
     30a: 00 00                        	<unknown>
     30c: 12 00                        	<unknown>
     30e: 02 00                        	<unknown>
     310: db 01 00 00                  	<unknown>
     314: 38 14                        	<unknown>
     316: 00 80                        	<unknown>
     318: 04 00                        	<unknown>
     31a: 00 00                        	<unknown>
     31c: 11 00                        	<unknown>
     31e: 06 00                        	<unknown>
     320: eb 01 00 00                  	<unknown>
     324: 30 14                        	<unknown>
     326: 00 80                        	<unknown>
     328: 04 00                        	<unknown>
     32a: 00 00                        	<unknown>
     32c: 11 00                        	<unknown>
     32e: 05 00                        	<unknown>
     330: fe 01                        	<unknown>
     332: 00 00                        	<unknown>
     334: 70 0b                        	<unknown>
     336: 00 80                        	<unknown>
     338: 9c 00                        	<unknown>
     33a: 00 00                        	<unknown>
     33c: 12 00                        	<unknown>
     33e: 02 00                        	<unknown>
     340: 10 02                        	<unknown>
     342: 00 00                        	<unknown>
     344: 18 09                        	<unknown>
     346: 00 80                        	<unknown>
     348: 00 00                        	<unknown>
     34a: 00 00                        	<unknown>
     34c: 12 00                        	<unknown>
     34e: 02 00                        	<unknown>
     350: 1f 02 00 00                  	<unknown>
     354: e8 08                        	<unknown>
     356: 00 80                        	<unknown>
     358: 00 00                        	<unknown>
     35a: 00 00                        	<unknown>
     35c: 12 00                        	<unknown>
     35e: 02 00                        	<unknown>
     360: 2a 02                        	<unknown>
     362: 00 00                        	<unknown>
     364: f8 08                        	<unknown>
     366: 00 80                        	<unknown>
     368: 00 00                        	<unknown>
     36a: 00 00                        	<unknown>
     36c: 12 00                        	<unknown>
     36e: 02 00                        	<unknown>
     370: 37 02 00 00                  	lui	tp, 0
     374: 14 0b                        	<unknown>
     376: 00 80                        	<unknown>
     378: 5c 00                        	<unknown>
     37a: 00 00                        	<unknown>
     37c: 12 00                        	<unknown>
     37e: 02 00                        	<unknown>
     380: 49 02                        	<unknown>
     382: 00 00                        	<unknown>
     384: 00 00                        	<unknown>
     386: 00 ff                        	<unknown>
     388: 00 00                        	<unknown>
     38a: 00 00                        	<unknown>
     38c: 10 00                        	<unknown>
     38e: f1 ff                        	<unknown>
     390: 55 02                        	<unknown>
     392: 00 00                        	<unknown>
     394: 84 08                        	<unknown>
     396: 00 80                        	<unknown>
     398: 00 00                        	<unknown>
     39a: 00 00                        	<unknown>
     39c: 12 00                        	<unknown>
     39e: 02 00                        	<unknown>
     3a0: 5f 02 00 00                  	<unknown>
     3a4: d0 08                        	<unknown>
     3a6: 00 80                        	<unknown>
     3a8: 00 00                        	<unknown>
     3aa: 00 00                        	<unknown>
     3ac: 12 00                        	<unknown>
     3ae: 02 00                        	<unknown>
     3b0: 6a 02                        	<unknown>
     3b2: 00 00                        	<unknown>
     3b4: 84 0d                        	<unknown>
     3b6: 00 80                        	<unknown>
     3b8: 24 01                        	<unknown>
     3ba: 00 00                        	<unknown>
     3bc: 12 00                        	<unknown>
     3be: 02 00                        	<unknown>
     3c0: a0 02                        	<unknown>
     3c2: 00 00                        	<unknown>
     3c4: 00 00                        	<unknown>
     3c6: 00 80                        	<unknown>
     3c8: 50 00                        	<unknown>
     3ca: 00 00                        	<unknown>
     3cc: 12 00                        	<unknown>
     3ce: 01 00                        	<unknown>
     3d0: 7b 02 00 00                  	<unknown>
     3d4: e8 0c                        	<unknown>
     3d6: 00 80                        	<unknown>
     3d8: 9c 00                        	<unknown>
     3da: 00 00                        	<unknown>
     3dc: 12 00                        	<unknown>
     3de: 02 00                        	<unknown>
     3e0: 8f 02 00 00                  	<unknown>
     3e4: 7c 14                        	<unknown>
     3e6: 00 80                        	<unknown>
     3e8: 00 00                        	<unknown>
     3ea: 00 00                        	<unknown>
     3ec: 10 00                        	<unknown>
     3ee: 07 00 9b 02                  	<unknown>
     3f2: 00 00                        	<unknown>
     3f4: 38 14                        	<unknown>
     3f6: 00 80                        	<unknown>
     3f8: 00 00                        	<unknown>
     3fa: 00 00                        	<unknown>
     3fc: 10 00                        	<unknown>
     3fe: 06 00                        	<unknown>
     400: a7 02 00 00                  	<unknown>
     404: 0c 0c                        	<unknown>
     406: 00 80                        	<unknown>
     408: dc 00                        	<unknown>
     40a: 00 00                        	<unknown>
     40c: 12 00                        	<unknown>
     40e: 02 00                        	<unknown>
     410: ae 02                        	<unknown>
     412: 00 00                        	<unknown>
     414: b4 09                        	<unknown>
     416: 00 80                        	<unknown>
     418: 0c 01                        	<unknown>
     41a: 00 00                        	<unknown>
     41c: 12 00                        	<unknown>
     41e: 02 00                        	<unknown>
     420: be 02                        	<unknown>
     422: 00 00                        	<unknown>
     424: 54 04                        	<unknown>
     426: 00 80                        	<unknown>
     428: 30 00                        	<unknown>
     42a: 00 00                        	<unknown>
     42c: 12 00                        	<unknown>
     42e: 02 00                        	<unknown>
     430: c3 02 00 00                  	fmadd.s	ft5, ft0, ft0, ft0, rne
     434: 38 07                        	<unknown>
     436: 00 80                        	<unknown>
     438: 44 01                        	<unknown>
     43a: 00 00                        	<unknown>
     43c: 12 00                        	<unknown>
     43e: 02 00                        	<unknown>
     440: ef 02 00 00                  	jal	t0, 0
     444: 30 09                        	<unknown>
     446: 00 80                        	<unknown>
     448: 00 00                        	<unknown>
     44a: 00 00                        	<unknown>
     44c: 12 00                        	<unknown>
     44e: 02 00                        	<unknown>
     450: fd 02                        	<unknown>
     452: 00 00                        	<unknown>
     454: c0 0a                        	<unknown>
     456: 00 80                        	<unknown>
     458: 14 00                        	<unknown>
     45a: 00 00                        	<unknown>
     45c: 12 00                        	<unknown>
     45e: 02 00                        	<unknown>
     460: f2 01                        	<unknown>
     462: 00 00                        	<unknown>
     464: 34 14                        	<unknown>
     466: 00 80                        	<unknown>
     468: 04 00                        	<unknown>
     46a: 00 00                        	<unknown>
     46c: 11 00                        	<unknown>
     46e: 05 00                        	<unknown>
     470: 04 03                        	<unknown>
     472: 00 00                        	<unknown>
     474: 08 09                        	<unknown>
     476: 00 80                        	<unknown>
     478: 00 00                        	<unknown>
     47a: 00 00                        	<unknown>
     47c: 12 00                        	<unknown>
     47e: 02 00                        	<unknown>
     480: 12 03                        	<unknown>
     482: 00 00                        	<unknown>
     484: 28 09                        	<unknown>
     486: 00 80                        	<unknown>
     488: 00 00                        	<unknown>
     48a: 00 00                        	<unknown>
     48c: 12 00                        	<unknown>
     48e: 02 00                        	<unknown>
     490: 1f 03 00 00                  	<unknown>
     494: f0 08                        	<unknown>
     496: 00 80                        	<unknown>
     498: 00 00                        	<unknown>
     49a: 00 00                        	<unknown>
     49c: 12 00                        	<unknown>
     49e: 02 00                        	<unknown>
     4a0: 2b 03 00 00                  	<unknown>
     4a4: ec 05                        	<unknown>
     4a6: 00 80                        	<unknown>
     4a8: 4c 01                        	<unknown>
     4aa: 00 00                        	<unknown>
     4ac: 12 00                        	<unknown>
     4ae: 02 00                        	<unknown>
     4b0: 52 03                        	<unknown>
     4b2: 00 00                        	<unknown>
     4b4: 08 10                        	<unknown>
     4b6: 00 80                        	<unknown>
     4b8: 00 00                        	<unknown>
     4ba: 00 00                        	<unknown>
     4bc: 10 00                        	<unknown>
     4be: 04 00                        	<unknown>
     4c0: 61 03                        	<unknown>
     4c2: 00 00                        	<unknown>
     4c4: 38 14                        	<unknown>
     4c6: 00 80                        	<unknown>
     4c8: 00 00                        	<unknown>
     4ca: 00 00                        	<unknown>
     4cc: 10 00                        	<unknown>
     4ce: 05 00                        	<unknown>
     4d0: c6 00                        	<unknown>
     4d2: 00 00                        	<unknown>
     4d4: 7c 14                        	<unknown>
     4d6: 00 80                        	<unknown>
     4d8: 00 00                        	<unknown>
     4da: 00 00                        	<unknown>
     4dc: 10 00                        	<unknown>
     4de: 07 00 68 03                  	<unknown>
     4e2: 00 00                        	<unknown>
     4e4: a8 04                        	<unknown>
     4e6: 00 80                        	<unknown>
     4e8: 44 01                        	<unknown>
     4ea: 00 00                        	<unknown>
     4ec: 12 00                        	<unknown>
     4ee: 02 00                        	<unknown>
     4f0: b4 03                        	<unknown>
     4f2: 00 00                        	<unknown>
     4f4: e0 0a                        	<unknown>
     4f6: 00 80                        	<unknown>
     4f8: 34 00                        	<unknown>
     4fa: 00 00                        	<unknown>
     4fc: 12 00                        	<unknown>
     4fe: 02 00                        	<unknown>
     500: 85 03                        	<unknown>
     502: 00 00                        	<unknown>
     504: b0 01                        	<unknown>
     506: 00 80                        	<unknown>
     508: 98 00                        	<unknown>
     50a: 00 00                        	<unknown>
     50c: 12 00                        	<unknown>
     50e: 02 00                        	<unknown>
     510: a5 03                        	<unknown>
     512: 00 00                        	<unknown>
     514: 00 09                        	<unknown>
     516: 00 80                        	<unknown>
     518: 00 00                        	<unknown>
     51a: 00 00                        	<unknown>
     51c: 12 00                        	<unknown>
     51e: 02 00                        	<unknown>
     520: b3 03 00 00                  	add	t2, zero, zero
     524: 7c 08                        	<unknown>
     526: 00 80                        	<unknown>
     528: 00 00                        	<unknown>
     52a: 00 00                        	<unknown>
     52c: 12 00                        	<unknown>
     52e: 02 00                        	<unknown>
     530: b9 03                        	<unknown>
     532: 00 00                        	<unknown>
     534: 38 09                        	<unknown>
     536: 00 80                        	<unknown>
     538: 00 00                        	<unknown>
     53a: 00 00                        	<unknown>
     53c: 12 00                        	<unknown>
     53e: 02 00                        	<unknown>

Disassembly of section .strtab:

00000000 .strtab:
       0: 00 76                        	<unknown>
       2: 78 5f                        	<unknown>
       4: 73 74 61 72                  	csrrci	s0, 1830, 2
       8: 74 2e                        	<unknown>
       a: 53 2e 6f 00                  	fadd.s	ft8, ft10, ft6, rdn
       e: 52 45                        	<unknown>
      10: 54 55                        	<unknown>
      12: 52 4e                        	<unknown>
      14: 00 5f                        	<unknown>
      16: 5f 63 61 6c                  	<unknown>
      1a: 6c 5f                        	<unknown>
      1c: 61 74                        	<unknown>
      1e: 65 78                        	<unknown>
      20: 69 74                        	<unknown>
      22: 2e 63                        	<unknown>
      24: 00 72                        	<unknown>
      26: 65 67                        	<unknown>
      28: 69 73                        	<unknown>
      2a: 74 65                        	<unknown>
      2c: 72 5f                        	<unknown>
      2e: 66 69                        	<unknown>
      30: 6e 69                        	<unknown>
      32: 00 70                        	<unknown>
      34: 6f 63 6c 5f                  	jal	t1, 812534
      38: 76 6f                        	<unknown>
      3a: 72 74                        	<unknown>
      3c: 65 78                        	<unknown>
      3e: 5f 6b 65 72                  	<unknown>
      42: 6e 65                        	<unknown>
      44: 6c 2d                        	<unknown>
      46: 36 35                        	<unknown>
      48: 2d 62                        	<unknown>
      4a: 62 2d                        	<unknown>
      4c: 30 66                        	<unknown>
      4e: 2d 37                        	<unknown>
      50: 34 2d                        	<unknown>
      52: 62 31                        	<unknown>
      54: 2e 63                        	<unknown>
      56: 00 70                        	<unknown>
      58: 61 72                        	<unknown>
      5a: 61 6c                        	<unknown>
      5c: 6c 65                        	<unknown>
      5e: 6c 5f                        	<unknown>
      60: 62 63                        	<unknown>
      62: 00 5f                        	<unknown>
      64: 5a 38                        	<unknown>
      66: 5f 63 6c 5f                  	<unknown>
      6a: 73 71 72 74                  	csrrci	sp, 1863, 4
      6e: 66 00                        	<unknown>
      70: 77 66 5f 73                  	<unknown>
      74: 71 72                        	<unknown>
      76: 74 2e                        	<unknown>
      78: 63 00 65 66                  	beq	a0, t1, 1632
      7c: 5f 73 71 72                  	<unknown>
      80: 74 2e                        	<unknown>
      82: 63 00 65 72                  	beq	a0, t1, 1824
      86: 72 6e                        	<unknown>
      88: 6f 2e 63 00                  	jal	t3, 204806
      8c: 66 69                        	<unknown>
      8e: 6e 69                        	<unknown>
      90: 2e 63                        	<unknown>
      92: 00 69                        	<unknown>
      94: 6e 69                        	<unknown>
      96: 74 2e                        	<unknown>
      98: 63 00 5f 5f                  	beq	t5, s5, 1504
      9c: 61 74                        	<unknown>
      9e: 65 78                        	<unknown>
      a0: 69 74                        	<unknown>
      a2: 2e 63                        	<unknown>
      a4: 00 69                        	<unknown>
      a6: 6d 70                        	<unknown>
      a8: 75 72                        	<unknown>
      aa: 65 2e                        	<unknown>
      ac: 63 00 69 6d                  	beq	s2, s6, 1728
      b0: 70 75                        	<unknown>
      b2: 72 65                        	<unknown>
      b4: 5f 64 61 74                  	<unknown>
      b8: 61 00                        	<unknown>
      ba: 5f 5f 66 69                  	<unknown>
      be: 6e 69                        	<unknown>
      c0: 5f 61 72 72                  	<unknown>
      c4: 61 79                        	<unknown>
      c6: 5f 65 6e 64                  	<unknown>
      ca: 00 5f                        	<unknown>
      cc: 5f 66 69 6e                  	<unknown>
      d0: 69 5f                        	<unknown>
      d2: 61 72                        	<unknown>
      d4: 72 61                        	<unknown>
      d6: 79 5f                        	<unknown>
      d8: 73 74 61 72                  	csrrci	s0, 1830, 2
      dc: 74 00                        	<unknown>
      de: 5f 5f 69 6e                  	<unknown>
      e2: 69 74                        	<unknown>
      e4: 5f 61 72 72                  	<unknown>
      e8: 61 79                        	<unknown>
      ea: 5f 65 6e 64                  	<unknown>
      ee: 00 5f                        	<unknown>
      f0: 5f 70 72 65                  	<unknown>
      f4: 69 6e                        	<unknown>
      f6: 69 74                        	<unknown>
      f8: 5f 61 72 72                  	<unknown>
      fc: 61 79                        	<unknown>
      fe: 5f 65 6e 64                  	<unknown>
     102: 00 5f                        	<unknown>
     104: 5f 69 6e 69                  	<unknown>
     108: 74 5f                        	<unknown>
     10a: 61 72                        	<unknown>
     10c: 72 61                        	<unknown>
     10e: 79 5f                        	<unknown>
     110: 73 74 61 72                  	csrrci	s0, 1830, 2
     114: 74 00                        	<unknown>
     116: 5f 5f 70 72                  	<unknown>
     11a: 65 69                        	<unknown>
     11c: 6e 69                        	<unknown>
     11e: 74 5f                        	<unknown>
     120: 61 72                        	<unknown>
     122: 72 61                        	<unknown>
     124: 79 5f                        	<unknown>
     126: 73 74 61 72                  	csrrci	s0, 1830, 2
     12a: 74 00                        	<unknown>
     12c: 76 78                        	<unknown>
     12e: 5f 63 6f 72                  	<unknown>
     132: 65 5f                        	<unknown>
     134: 69 64                        	<unknown>
     136: 00 5f                        	<unknown>
     138: 5f 73 74 61                  	<unknown>
     13c: 63 6b 5f 75                  	bltu	t5, s5, 1878
     140: 73 61 67 65                  	csrrsi	sp, 1622, 14
     144: 00 76                        	<unknown>
     146: 78 5f                        	<unknown>
     148: 77 73 70 61                  	<unknown>
     14c: 77 6e 00 5f                  	<unknown>
     150: 5f 65 72 72                  	<unknown>
     154: 6e 6f                        	<unknown>
     156: 00 5f                        	<unknown>
     158: 5f 73 74 61                  	<unknown>
     15c: 63 6b 5f 73                  	bltu	t5, s5, 1846
     160: 69 7a                        	<unknown>
     162: 65 00                        	<unknown>
     164: 67 5f 77 73                  	<unknown>
     168: 70 61                        	<unknown>
     16a: 77 6e 5f 61                  	<unknown>
     16e: 72 67                        	<unknown>
     170: 73 00 76 78                  	<unknown>
     174: 5f 74 6d 63                  	<unknown>
     178: 00 5f                        	<unknown>
     17a: 5f 53 44 41                  	<unknown>
     17e: 54 41                        	<unknown>
     180: 5f 42 45 47                  	<unknown>
     184: 49 4e                        	<unknown>
     186: 5f 5f 00 6b                  	<unknown>
     18a: 65 72                        	<unknown>
     18c: 6e 65                        	<unknown>
     18e: 6c 5f                        	<unknown>
     190: 73 70 61 77                  	csrci	1910, 2
     194: 6e 5f                        	<unknown>
     196: 63 61 6c 6c                  	bltu	s8, t1, 1730
     19a: 62 61                        	<unknown>
     19c: 63 6b 00 5f                  	bltu	zero, a6, 1526
     1a0: 5f 67 6c 6f                  	<unknown>
     1a4: 62 61                        	<unknown>
     1a6: 6c 5f                        	<unknown>
     1a8: 70 6f                        	<unknown>
     1aa: 69 6e                        	<unknown>
     1ac: 74 65                        	<unknown>
     1ae: 72 00                        	<unknown>
     1b0: 76 78                        	<unknown>
     1b2: 5f 6a 6f 69                  	<unknown>
     1b6: 6e 00                        	<unknown>
     1b8: 76 78                        	<unknown>
     1ba: 5f 6e 75 6d                  	<unknown>
     1be: 5f 77 61 72                  	<unknown>
     1c2: 70 73                        	<unknown>
     1c4: 00 6b                        	<unknown>
     1c6: 65 72                        	<unknown>
     1c8: 6e 65                        	<unknown>
     1ca: 6c 5f                        	<unknown>
     1cc: 73 70 61 77                  	csrci	1910, 2
     1d0: 6e 00                        	<unknown>
     1d2: 76 78                        	<unknown>
     1d4: 5f 73 70 6c                  	<unknown>
     1d8: 69 74                        	<unknown>
     1da: 00 5f                        	<unknown>
     1dc: 5f 66 64 6c                  	<unknown>
     1e0: 69 62                        	<unknown>
     1e2: 5f 76 65 72                  	<unknown>
     1e6: 73 69 6f 6e                  	csrrsi	s2, 1766, 30
     1ea: 00 5f                        	<unknown>
     1ec: 67 6c 6f 62                  	<unknown>
     1f0: 61 6c                        	<unknown>
     1f2: 5f 69 6d 70                  	<unknown>
     1f6: 75 72                        	<unknown>
     1f8: 65 5f                        	<unknown>
     1fa: 70 74                        	<unknown>
     1fc: 72 00                        	<unknown>
     1fe: 5f 5f 6c 69                  	<unknown>
     202: 62 63                        	<unknown>
     204: 5f 69 6e 69                  	<unknown>
     208: 74 5f                        	<unknown>
     20a: 61 72                        	<unknown>
     20c: 72 61                        	<unknown>
     20e: 79 00                        	<unknown>
     210: 76 78                        	<unknown>
     212: 5f 6e 75 6d                  	<unknown>
     216: 5f 74 68 72                  	<unknown>
     21a: 65 61                        	<unknown>
     21c: 64 73                        	<unknown>
     21e: 00 76                        	<unknown>
     220: 78 5f                        	<unknown>
     222: 77 61 72 70                  	<unknown>
     226: 5f 69 64 00                  	<unknown>
     22a: 76 78                        	<unknown>
     22c: 5f 74 68 72                  	<unknown>
     230: 65 61                        	<unknown>
     232: 64 5f                        	<unknown>
     234: 69 64                        	<unknown>
     236: 00 5f                        	<unknown>
     238: 5f 6c 69 62                  	<unknown>
     23c: 63 5f 66 69                  	bge	a2, s6, 1694
     240: 6e 69                        	<unknown>
     242: 5f 61 72 72                  	<unknown>
     246: 61 79                        	<unknown>
     248: 00 5f                        	<unknown>
     24a: 5f 73 74 61                  	<unknown>
     24e: 63 6b 5f 74                  	bltu	t5, t0, 1878
     252: 6f 70 00 76                  	j	30560
     256: 78 5f                        	<unknown>
     258: 73 65 74 5f                  	csrrsi	a0, 1527, 8
     25c: 73 70 00 76                  	csrci	1888, 0
     260: 78 5f                        	<unknown>
     262: 62 61                        	<unknown>
     264: 72 72                        	<unknown>
     266: 69 65                        	<unknown>
     268: 72 00                        	<unknown>
     26a: 5f 5f 63 61                  	<unknown>
     26e: 6c 6c                        	<unknown>
     270: 5f 65 78 69                  	<unknown>
     274: 74 70                        	<unknown>
     276: 72 6f                        	<unknown>
     278: 63 73 00 5f                  	bgeu	zero, a6, 1510
     27c: 5f 72 65 67                  	<unknown>
     280: 69 73                        	<unknown>
     282: 74 65                        	<unknown>
     284: 72 5f                        	<unknown>
     286: 65 78                        	<unknown>
     288: 69 74                        	<unknown>
     28a: 70 72                        	<unknown>
     28c: 6f 63 00 5f                  	jal	t1, 26096
     290: 5f 42 53 53                  	<unknown>
     294: 5f 45 4e 44                  	<unknown>
     298: 5f 5f 00 5f                  	<unknown>
     29c: 5f 62 73 73                  	<unknown>
     2a0: 5f 73 74 61                  	<unknown>
     2a4: 72 74                        	<unknown>
     2a6: 00 6d                        	<unknown>
     2a8: 65 6d                        	<unknown>
     2aa: 73 65 74 00                  	csrrsi	a0, 7, 8
     2ae: 5f 5f 69 65                  	<unknown>
     2b2: 65 65                        	<unknown>
     2b4: 37 35 34 5f                  	lui	a0, 389955
     2b8: 73 71 72 74                  	csrrci	sp, 1863, 4
     2bc: 66 00                        	<unknown>
     2be: 6d 61                        	<unknown>
     2c0: 69 6e                        	<unknown>
     2c2: 00 5f                        	<unknown>
     2c4: 70 6f                        	<unknown>
     2c6: 63 6c 5f 6b                  	bltu	t5, s5, 1720
     2ca: 65 72                        	<unknown>
     2cc: 6e 65                        	<unknown>
     2ce: 6c 5f                        	<unknown>
     2d0: 4e 65                        	<unknown>
     2d2: 61 72                        	<unknown>
     2d4: 65 73                        	<unknown>
     2d6: 74 4e                        	<unknown>
     2d8: 65 69                        	<unknown>
     2da: 67 68 62 6f                  	<unknown>
     2de: 72 5f                        	<unknown>
     2e0: 77 6f 72 6b                  	<unknown>
     2e4: 67 72 6f 75                  	<unknown>
     2e8: 70 5f                        	<unknown>
     2ea: 66 61                        	<unknown>
     2ec: 73 74 00 76                  	csrrci	s0, 1888, 0
     2f0: 78 5f                        	<unknown>
     2f2: 6e 75                        	<unknown>
     2f4: 6d 5f                        	<unknown>
     2f6: 63 79 63 6c                  	bgeu	t1, t1, 1746
     2fa: 65 73                        	<unknown>
     2fc: 00 61                        	<unknown>
     2fe: 74 65                        	<unknown>
     300: 78 69                        	<unknown>
     302: 74 00                        	<unknown>
     304: 76 78                        	<unknown>
     306: 5f 74 68 72                  	<unknown>
     30a: 65 61                        	<unknown>
     30c: 64 5f                        	<unknown>
     30e: 67 69 64 00                  	<unknown>
     312: 76 78                        	<unknown>
     314: 5f 6e 75 6d                  	<unknown>
     318: 5f 63 6f 72                  	<unknown>
     31c: 65 73                        	<unknown>
     31e: 00 76                        	<unknown>
     320: 78 5f                        	<unknown>
     322: 77 61 72 70                  	<unknown>
     326: 5f 67 69 64                  	<unknown>
     32a: 00 5f                        	<unknown>
     32c: 70 6f                        	<unknown>
     32e: 63 6c 5f 6b                  	bltu	t5, s5, 1720
     332: 65 72                        	<unknown>
     334: 6e 65                        	<unknown>
     336: 6c 5f                        	<unknown>
     338: 4e 65                        	<unknown>
     33a: 61 72                        	<unknown>
     33c: 65 73                        	<unknown>
     33e: 74 4e                        	<unknown>
     340: 65 69                        	<unknown>
     342: 67 68 62 6f                  	<unknown>
     346: 72 5f                        	<unknown>
     348: 77 6f 72 6b                  	<unknown>
     34c: 67 72 6f 75                  	<unknown>
     350: 70 00                        	<unknown>
     352: 5f 5f 44 41                  	<unknown>
     356: 54 41                        	<unknown>
     358: 5f 42 45 47                  	<unknown>
     35c: 49 4e                        	<unknown>
     35e: 5f 5f 00 5f                  	<unknown>
     362: 65 64                        	<unknown>
     364: 61 74                        	<unknown>
     366: 61 00                        	<unknown>
     368: 5f 70 6f 63                  	<unknown>
     36c: 6c 5f                        	<unknown>
     36e: 6b 65 72 6e                  	<unknown>
     372: 65 6c                        	<unknown>
     374: 5f 4e 65 61                  	<unknown>
     378: 72 65                        	<unknown>
     37a: 73 74 4e 65                  	csrrci	s0, 1620, 28
     37e: 69 67                        	<unknown>
     380: 68 62                        	<unknown>
     382: 6f 72 00 6b                  	jal	tp, 30384
     386: 65 72                        	<unknown>
     388: 6e 65                        	<unknown>
     38a: 6c 5f                        	<unknown>
     38c: 73 70 61 77                  	csrci	1910, 2
     390: 6e 5f                        	<unknown>
     392: 72 65                        	<unknown>
     394: 6d 61                        	<unknown>
     396: 69 6e                        	<unknown>
     398: 69 6e                        	<unknown>
     39a: 67 5f 63 61                  	<unknown>
     39e: 6c 6c                        	<unknown>
     3a0: 62 61                        	<unknown>
     3a2: 63 6b 00 76                  	bltu	zero, zero, 1910
     3a6: 78 5f                        	<unknown>
     3a8: 74 68                        	<unknown>
     3aa: 72 65                        	<unknown>
     3ac: 61 64                        	<unknown>
     3ae: 5f 6c 69 64                  	<unknown>
     3b2: 00 5f                        	<unknown>
     3b4: 65 78                        	<unknown>
     3b6: 69 74                        	<unknown>
     3b8: 00 76                        	<unknown>
     3ba: 78 5f                        	<unknown>
     3bc: 6e 75                        	<unknown>
     3be: 6d 5f                        	<unknown>
     3c0: 69 6e                        	<unknown>
     3c2: 73 74 72 73                  	csrrci	s0, 1847, 4
     3c6: 00                           	<unknown>

Disassembly of section .shstrtab:

00000000 .shstrtab:
       0: 00 2e                        	<unknown>
       2: 73 79 6d 74                  	csrrci	s2, 1862, 26
       6: 61 62                        	<unknown>
       8: 00 2e                        	<unknown>
       a: 73 74 72 74                  	csrrci	s0, 1863, 4
       e: 61 62                        	<unknown>
      10: 00 2e                        	<unknown>
      12: 73 68 73 74                  	csrrsi	a6, 1863, 6
      16: 72 74                        	<unknown>
      18: 61 62                        	<unknown>
      1a: 00 2e                        	<unknown>
      1c: 69 6e                        	<unknown>
      1e: 69 74                        	<unknown>
      20: 00 2e                        	<unknown>
      22: 74 65                        	<unknown>
      24: 78 74                        	<unknown>
      26: 00 2e                        	<unknown>
      28: 69 6e                        	<unknown>
      2a: 69 74                        	<unknown>
      2c: 5f 61 72 72                  	<unknown>
      30: 61 79                        	<unknown>
      32: 00 2e                        	<unknown>
      34: 64 61                        	<unknown>
      36: 74 61                        	<unknown>
      38: 00 2e                        	<unknown>
      3a: 73 64 61 74                  	csrrsi	s0, 1862, 2
      3e: 61 00                        	<unknown>
      40: 2e 73                        	<unknown>
      42: 62 73                        	<unknown>
      44: 73 00 2e 62                  	<unknown>
      48: 73 73 00 2e                  	csrrci	t1, 736, 0
      4c: 63 6f 6d 6d                  	bltu	s10, s6, 1758
      50: 65 6e                        	<unknown>
      52: 74 00                        	<unknown>
      54: 2e 72                        	<unknown>
      56: 69 73                        	<unknown>
      58: 63 76 2e 61                  	bgeu	t3, s2, 1548
      5c: 74 74                        	<unknown>
      5e: 72 69                        	<unknown>
      60: 62 75                        	<unknown>
      62: 74 65                        	<unknown>
      64: 73                           	<unknown>
      65: 00                           	<unknown>
