
vx_dev_main.elf:     file format elf32-littleriscv


Disassembly of section .text:

80000000 <_start>:
80000000:	00001197          	auipc	gp,0x1
80000004:	e9418193          	addi	gp,gp,-364 # 80000e94 <__global_pointer$>
80000008:	00018513          	mv	a0,gp
8000000c:	00018613          	mv	a2,gp
80000010:	40a60633          	sub	a2,a2,a0
80000014:	00000593          	li	a1,0
80000018:	309000ef          	jal	ra,80000b20 <memset>
8000001c:	00001517          	auipc	a0,0x1
80000020:	d6050513          	addi	a0,a0,-672 # 80000d7c <atexit>
80000024:	00050863          	beqz	a0,80000034 <_start+0x34>
80000028:	00001517          	auipc	a0,0x1
8000002c:	cf850513          	addi	a0,a0,-776 # 80000d20 <__libc_fini_array>
80000030:	54d000ef          	jal	ra,80000d7c <atexit>
80000034:	251000ef          	jal	ra,80000a84 <__libc_init_array>
80000038:	00012503          	lw	a0,0(sp)
8000003c:	00410593          	addi	a1,sp,4
80000040:	00000613          	li	a2,0
80000044:	0d5000ef          	jal	ra,80000918 <main>
80000048:	2090006f          	j	80000a50 <exit>

8000004c <__do_global_dtors_aux>:
8000004c:	810007b7          	lui	a5,0x81000
80000050:	6d07c703          	lbu	a4,1744(a5) # 810006d0 <z+0xffffffb8>
80000054:	04071463          	bnez	a4,8000009c <__do_global_dtors_aux+0x50>
80000058:	ff010113          	addi	sp,sp,-16
8000005c:	00812423          	sw	s0,8(sp)
80000060:	00078413          	mv	s0,a5
80000064:	000007b7          	lui	a5,0x0
80000068:	00112623          	sw	ra,12(sp)
8000006c:	00078793          	mv	a5,a5
80000070:	00078a63          	beqz	a5,80000084 <__do_global_dtors_aux+0x38>
80000074:	81000537          	lui	a0,0x81000
80000078:	6b850513          	addi	a0,a0,1720 # 810006b8 <z+0xffffffa0>
8000007c:	00000097          	auipc	ra,0x0
80000080:	000000e7          	jalr	zero # 0 <_start-0x80000000>
80000084:	00100793          	li	a5,1
80000088:	00c12083          	lw	ra,12(sp)
8000008c:	6cf40823          	sb	a5,1744(s0)
80000090:	00812403          	lw	s0,8(sp)
80000094:	01010113          	addi	sp,sp,16
80000098:	00008067          	ret
8000009c:	00008067          	ret

800000a0 <frame_dummy>:
800000a0:	000007b7          	lui	a5,0x0
800000a4:	00078793          	mv	a5,a5
800000a8:	00078e63          	beqz	a5,800000c4 <frame_dummy+0x24>
800000ac:	810005b7          	lui	a1,0x81000
800000b0:	81000537          	lui	a0,0x81000
800000b4:	6d458593          	addi	a1,a1,1748 # 810006d4 <z+0xffffffbc>
800000b8:	6b850513          	addi	a0,a0,1720 # 810006b8 <z+0xffffffa0>
800000bc:	00000317          	auipc	t1,0x0
800000c0:	00000067          	jr	zero # 0 <_start-0x80000000>
800000c4:	00008067          	ret

800000c8 <vx_wspawn>:
800000c8:	00b5106b          	0xb5106b
800000cc:	00008067          	ret

800000d0 <vx_tmc>:
800000d0:	0005006b          	0x5006b
800000d4:	00008067          	ret

800000d8 <vx_barrier>:
800000d8:	00b5406b          	0xb5406b
800000dc:	00008067          	ret

800000e0 <vx_split>:
800000e0:	0005206b          	0x5206b
800000e4:	00008067          	ret

800000e8 <vx_join>:
800000e8:	0000306b          	0x306b
800000ec:	00008067          	ret

800000f0 <vx_warpID>:
800000f0:	02102573          	csrr	a0,0x21
800000f4:	00008067          	ret

800000f8 <vx_threadID>:
800000f8:	02002573          	csrr	a0,0x20
800000fc:	00008067          	ret

80000100 <vx_resetStack>:
80000100:	00400513          	li	a0,4
80000104:	0005006b          	0x5006b
80000108:	021026f3          	csrr	a3,0x21
8000010c:	00f69693          	slli	a3,a3,0xf
80000110:	02002673          	csrr	a2,0x20
80000114:	00a61593          	slli	a1,a2,0xa
80000118:	00261613          	slli	a2,a2,0x2
8000011c:	6ffff137          	lui	sp,0x6ffff
80000120:	40b10133          	sub	sp,sp,a1
80000124:	40d10133          	sub	sp,sp,a3
80000128:	00c10133          	add	sp,sp,a2
8000012c:	021026f3          	csrr	a3,0x21
80000130:	00068663          	beqz	a3,8000013c <RETURN>
80000134:	00000513          	li	a0,0
80000138:	0005006b          	0x5006b

8000013c <RETURN>:
8000013c:	00008067          	ret

80000140 <vx_print_str>:
80000140:	ff410113          	addi	sp,sp,-12 # 6fffeff4 <_start-0x1000100c>
80000144:	00112023          	sw	ra,0(sp)
80000148:	00b12223          	sw	a1,4(sp)

8000014c <bl>:
8000014c:	00054583          	lbu	a1,0(a0)
80000150:	00058863          	beqz	a1,80000160 <be>
80000154:	01c000ef          	jal	ra,80000170 <vx_printc>
80000158:	00150513          	addi	a0,a0,1
8000015c:	ff1ff06f          	j	8000014c <bl>

80000160 <be>:
80000160:	00012083          	lw	ra,0(sp)
80000164:	00412583          	lw	a1,4(sp)
80000168:	00c10113          	addi	sp,sp,12
8000016c:	00008067          	ret

80000170 <vx_printc>:
80000170:	000102b7          	lui	t0,0x10
80000174:	00b2a023          	sw	a1,0(t0) # 10000 <_start-0x7fff0000>
80000178:	00008067          	ret

8000017c <vx_print_hex>:
8000017c:	fd010113          	addi	sp,sp,-48
80000180:	02112623          	sw	ra,44(sp)
80000184:	02812423          	sw	s0,40(sp)
80000188:	03010413          	addi	s0,sp,48
8000018c:	fca42e23          	sw	a0,-36(s0)
80000190:	fdc42703          	lw	a4,-36(s0)
80000194:	00f00793          	li	a5,15
80000198:	02e7e463          	bltu	a5,a4,800001c0 <vx_print_hex+0x44>
8000019c:	810007b7          	lui	a5,0x81000
800001a0:	14078713          	addi	a4,a5,320 # 81000140 <z+0xfffffa28>
800001a4:	fdc42783          	lw	a5,-36(s0)
800001a8:	00279793          	slli	a5,a5,0x2
800001ac:	00f707b3          	add	a5,a4,a5
800001b0:	0007a783          	lw	a5,0(a5)
800001b4:	00078513          	mv	a0,a5
800001b8:	f89ff0ef          	jal	ra,80000140 <vx_print_str>
800001bc:	0740006f          	j	80000230 <vx_print_hex+0xb4>
800001c0:	02000793          	li	a5,32
800001c4:	fef42623          	sw	a5,-20(s0)
800001c8:	fe0405a3          	sb	zero,-21(s0)
800001cc:	fec42783          	lw	a5,-20(s0)
800001d0:	ffc78793          	addi	a5,a5,-4
800001d4:	fdc42703          	lw	a4,-36(s0)
800001d8:	00f757b3          	srl	a5,a4,a5
800001dc:	00f7f793          	andi	a5,a5,15
800001e0:	fef42223          	sw	a5,-28(s0)
800001e4:	fe442783          	lw	a5,-28(s0)
800001e8:	00078663          	beqz	a5,800001f4 <vx_print_hex+0x78>
800001ec:	00100793          	li	a5,1
800001f0:	fef405a3          	sb	a5,-21(s0)
800001f4:	feb44783          	lbu	a5,-21(s0)
800001f8:	02078263          	beqz	a5,8000021c <vx_print_hex+0xa0>
800001fc:	810007b7          	lui	a5,0x81000
80000200:	14078713          	addi	a4,a5,320 # 81000140 <z+0xfffffa28>
80000204:	fe442783          	lw	a5,-28(s0)
80000208:	00279793          	slli	a5,a5,0x2
8000020c:	00f707b3          	add	a5,a4,a5
80000210:	0007a783          	lw	a5,0(a5)
80000214:	00078513          	mv	a0,a5
80000218:	f29ff0ef          	jal	ra,80000140 <vx_print_str>
8000021c:	fec42783          	lw	a5,-20(s0)
80000220:	ffc78793          	addi	a5,a5,-4
80000224:	fef42623          	sw	a5,-20(s0)
80000228:	fec42783          	lw	a5,-20(s0)
8000022c:	faf040e3          	bgtz	a5,800001cc <vx_print_hex+0x50>
80000230:	02c12083          	lw	ra,44(sp)
80000234:	02812403          	lw	s0,40(sp)
80000238:	03010113          	addi	sp,sp,48
8000023c:	00008067          	ret

80000240 <vx_printf>:
80000240:	fe010113          	addi	sp,sp,-32
80000244:	00112e23          	sw	ra,28(sp)
80000248:	00812c23          	sw	s0,24(sp)
8000024c:	02010413          	addi	s0,sp,32
80000250:	fea42623          	sw	a0,-20(s0)
80000254:	feb42423          	sw	a1,-24(s0)
80000258:	fec42503          	lw	a0,-20(s0)
8000025c:	ee5ff0ef          	jal	ra,80000140 <vx_print_str>
80000260:	fe842503          	lw	a0,-24(s0)
80000264:	f19ff0ef          	jal	ra,8000017c <vx_print_hex>
80000268:	810007b7          	lui	a5,0x81000
8000026c:	04078513          	addi	a0,a5,64 # 81000040 <z+0xfffff928>
80000270:	ed1ff0ef          	jal	ra,80000140 <vx_print_str>
80000274:	00000013          	nop
80000278:	01c12083          	lw	ra,28(sp)
8000027c:	01812403          	lw	s0,24(sp)
80000280:	02010113          	addi	sp,sp,32
80000284:	00008067          	ret

80000288 <setup_call>:
80000288:	fe010113          	addi	sp,sp,-32
8000028c:	00112e23          	sw	ra,28(sp)
80000290:	00812c23          	sw	s0,24(sp)
80000294:	02010413          	addi	s0,sp,32
80000298:	810007b7          	lui	a5,0x81000
8000029c:	6f47a783          	lw	a5,1780(a5) # 810006f4 <z+0xffffffdc>
800002a0:	00078513          	mv	a0,a5
800002a4:	e2dff0ef          	jal	ra,800000d0 <vx_tmc>
800002a8:	810007b7          	lui	a5,0x81000
800002ac:	6f07a703          	lw	a4,1776(a5) # 810006f0 <z+0xffffffd8>
800002b0:	810007b7          	lui	a5,0x81000
800002b4:	6ec7a783          	lw	a5,1772(a5) # 810006ec <z+0xffffffd4>
800002b8:	00078513          	mv	a0,a5
800002bc:	000700e7          	jalr	a4
800002c0:	e31ff0ef          	jal	ra,800000f0 <vx_warpID>
800002c4:	fea42623          	sw	a0,-20(s0)
800002c8:	fec42783          	lw	a5,-20(s0)
800002cc:	00078863          	beqz	a5,800002dc <setup_call+0x54>
800002d0:	00000513          	li	a0,0
800002d4:	dfdff0ef          	jal	ra,800000d0 <vx_tmc>
800002d8:	00c0006f          	j	800002e4 <setup_call+0x5c>
800002dc:	00100513          	li	a0,1
800002e0:	df1ff0ef          	jal	ra,800000d0 <vx_tmc>
800002e4:	00000013          	nop
800002e8:	01c12083          	lw	ra,28(sp)
800002ec:	01812403          	lw	s0,24(sp)
800002f0:	02010113          	addi	sp,sp,32
800002f4:	00008067          	ret

800002f8 <vx_spawnWarps>:
800002f8:	fe010113          	addi	sp,sp,-32
800002fc:	00112e23          	sw	ra,28(sp)
80000300:	00812c23          	sw	s0,24(sp)
80000304:	02010413          	addi	s0,sp,32
80000308:	fea42623          	sw	a0,-20(s0)
8000030c:	feb42423          	sw	a1,-24(s0)
80000310:	fec42223          	sw	a2,-28(s0)
80000314:	fed42023          	sw	a3,-32(s0)
80000318:	810007b7          	lui	a5,0x81000
8000031c:	fe442703          	lw	a4,-28(s0)
80000320:	6ee7a823          	sw	a4,1776(a5) # 810006f0 <z+0xffffffd8>
80000324:	810007b7          	lui	a5,0x81000
80000328:	fe042703          	lw	a4,-32(s0)
8000032c:	6ee7a623          	sw	a4,1772(a5) # 810006ec <z+0xffffffd4>
80000330:	810007b7          	lui	a5,0x81000
80000334:	fe842703          	lw	a4,-24(s0)
80000338:	6ee7aa23          	sw	a4,1780(a5) # 810006f4 <z+0xffffffdc>
8000033c:	800007b7          	lui	a5,0x80000
80000340:	28878793          	addi	a5,a5,648 # 80000288 <z+0xfefffb70>
80000344:	00078593          	mv	a1,a5
80000348:	fec42503          	lw	a0,-20(s0)
8000034c:	d7dff0ef          	jal	ra,800000c8 <vx_wspawn>
80000350:	f39ff0ef          	jal	ra,80000288 <setup_call>
80000354:	00000013          	nop
80000358:	01c12083          	lw	ra,28(sp)
8000035c:	01812403          	lw	s0,24(sp)
80000360:	02010113          	addi	sp,sp,32
80000364:	00008067          	ret

80000368 <test_tmc>:
80000368:	fe010113          	addi	sp,sp,-32
8000036c:	00112e23          	sw	ra,28(sp)
80000370:	00812c23          	sw	s0,24(sp)
80000374:	02010413          	addi	s0,sp,32
80000378:	810007b7          	lui	a5,0x81000
8000037c:	08478513          	addi	a0,a5,132 # 81000084 <z+0xfffff96c>
80000380:	dc1ff0ef          	jal	ra,80000140 <vx_print_str>
80000384:	00400513          	li	a0,4
80000388:	d49ff0ef          	jal	ra,800000d0 <vx_tmc>
8000038c:	d6dff0ef          	jal	ra,800000f8 <vx_threadID>
80000390:	fea42623          	sw	a0,-20(s0)
80000394:	fec42703          	lw	a4,-20(s0)
80000398:	810007b7          	lui	a5,0x81000
8000039c:	1c078693          	addi	a3,a5,448 # 810001c0 <z+0xfffffaa8>
800003a0:	fec42783          	lw	a5,-20(s0)
800003a4:	00279793          	slli	a5,a5,0x2
800003a8:	00f687b3          	add	a5,a3,a5
800003ac:	00e7a023          	sw	a4,0(a5)
800003b0:	00100513          	li	a0,1
800003b4:	d1dff0ef          	jal	ra,800000d0 <vx_tmc>
800003b8:	810007b7          	lui	a5,0x81000
800003bc:	1c078793          	addi	a5,a5,448 # 810001c0 <z+0xfffffaa8>
800003c0:	0007a783          	lw	a5,0(a5)
800003c4:	00078513          	mv	a0,a5
800003c8:	db5ff0ef          	jal	ra,8000017c <vx_print_hex>
800003cc:	810007b7          	lui	a5,0x81000
800003d0:	09478513          	addi	a0,a5,148 # 81000094 <z+0xfffff97c>
800003d4:	d6dff0ef          	jal	ra,80000140 <vx_print_str>
800003d8:	810007b7          	lui	a5,0x81000
800003dc:	1c078793          	addi	a5,a5,448 # 810001c0 <z+0xfffffaa8>
800003e0:	0047a783          	lw	a5,4(a5)
800003e4:	00078513          	mv	a0,a5
800003e8:	d95ff0ef          	jal	ra,8000017c <vx_print_hex>
800003ec:	810007b7          	lui	a5,0x81000
800003f0:	09478513          	addi	a0,a5,148 # 81000094 <z+0xfffff97c>
800003f4:	d4dff0ef          	jal	ra,80000140 <vx_print_str>
800003f8:	810007b7          	lui	a5,0x81000
800003fc:	1c078793          	addi	a5,a5,448 # 810001c0 <z+0xfffffaa8>
80000400:	0087a783          	lw	a5,8(a5)
80000404:	00078513          	mv	a0,a5
80000408:	d75ff0ef          	jal	ra,8000017c <vx_print_hex>
8000040c:	810007b7          	lui	a5,0x81000
80000410:	09478513          	addi	a0,a5,148 # 81000094 <z+0xfffff97c>
80000414:	d2dff0ef          	jal	ra,80000140 <vx_print_str>
80000418:	810007b7          	lui	a5,0x81000
8000041c:	1c078793          	addi	a5,a5,448 # 810001c0 <z+0xfffffaa8>
80000420:	00c7a783          	lw	a5,12(a5)
80000424:	00078513          	mv	a0,a5
80000428:	d55ff0ef          	jal	ra,8000017c <vx_print_hex>
8000042c:	810007b7          	lui	a5,0x81000
80000430:	09478513          	addi	a0,a5,148 # 81000094 <z+0xfffff97c>
80000434:	d0dff0ef          	jal	ra,80000140 <vx_print_str>
80000438:	00000013          	nop
8000043c:	01c12083          	lw	ra,28(sp)
80000440:	01812403          	lw	s0,24(sp)
80000444:	02010113          	addi	sp,sp,32
80000448:	00008067          	ret

8000044c <test_divergence>:
8000044c:	fe010113          	addi	sp,sp,-32
80000450:	00112e23          	sw	ra,28(sp)
80000454:	00812c23          	sw	s0,24(sp)
80000458:	02010413          	addi	s0,sp,32
8000045c:	c9dff0ef          	jal	ra,800000f8 <vx_threadID>
80000460:	fea42623          	sw	a0,-20(s0)
80000464:	fec42783          	lw	a5,-20(s0)
80000468:	0027b793          	sltiu	a5,a5,2
8000046c:	fef405a3          	sb	a5,-21(s0)
80000470:	feb44783          	lbu	a5,-21(s0)
80000474:	00078513          	mv	a0,a5
80000478:	c69ff0ef          	jal	ra,800000e0 <vx_split>
8000047c:	feb44783          	lbu	a5,-21(s0)
80000480:	06078463          	beqz	a5,800004e8 <test_divergence+0x9c>
80000484:	fec42783          	lw	a5,-20(s0)
80000488:	0017b793          	seqz	a5,a5
8000048c:	fef404a3          	sb	a5,-23(s0)
80000490:	fe944783          	lbu	a5,-23(s0)
80000494:	00078513          	mv	a0,a5
80000498:	c49ff0ef          	jal	ra,800000e0 <vx_split>
8000049c:	fe944783          	lbu	a5,-23(s0)
800004a0:	02078263          	beqz	a5,800004c4 <test_divergence+0x78>
800004a4:	810007b7          	lui	a5,0x81000
800004a8:	70878713          	addi	a4,a5,1800 # 81000708 <z+0xfffffff0>
800004ac:	fec42783          	lw	a5,-20(s0)
800004b0:	00279793          	slli	a5,a5,0x2
800004b4:	00f707b3          	add	a5,a4,a5
800004b8:	00a00713          	li	a4,10
800004bc:	00e7a023          	sw	a4,0(a5)
800004c0:	0200006f          	j	800004e0 <test_divergence+0x94>
800004c4:	810007b7          	lui	a5,0x81000
800004c8:	70878713          	addi	a4,a5,1800 # 81000708 <z+0xfffffff0>
800004cc:	fec42783          	lw	a5,-20(s0)
800004d0:	00279793          	slli	a5,a5,0x2
800004d4:	00f707b3          	add	a5,a4,a5
800004d8:	00b00713          	li	a4,11
800004dc:	00e7a023          	sw	a4,0(a5)
800004e0:	c09ff0ef          	jal	ra,800000e8 <vx_join>
800004e4:	0640006f          	j	80000548 <test_divergence+0xfc>
800004e8:	fec42783          	lw	a5,-20(s0)
800004ec:	0037b793          	sltiu	a5,a5,3
800004f0:	fef40523          	sb	a5,-22(s0)
800004f4:	fea44783          	lbu	a5,-22(s0)
800004f8:	00078513          	mv	a0,a5
800004fc:	be5ff0ef          	jal	ra,800000e0 <vx_split>
80000500:	fea44783          	lbu	a5,-22(s0)
80000504:	02078263          	beqz	a5,80000528 <test_divergence+0xdc>
80000508:	810007b7          	lui	a5,0x81000
8000050c:	70878713          	addi	a4,a5,1800 # 81000708 <z+0xfffffff0>
80000510:	fec42783          	lw	a5,-20(s0)
80000514:	00279793          	slli	a5,a5,0x2
80000518:	00f707b3          	add	a5,a4,a5
8000051c:	00c00713          	li	a4,12
80000520:	00e7a023          	sw	a4,0(a5)
80000524:	0200006f          	j	80000544 <test_divergence+0xf8>
80000528:	810007b7          	lui	a5,0x81000
8000052c:	70878713          	addi	a4,a5,1800 # 81000708 <z+0xfffffff0>
80000530:	fec42783          	lw	a5,-20(s0)
80000534:	00279793          	slli	a5,a5,0x2
80000538:	00f707b3          	add	a5,a4,a5
8000053c:	00d00713          	li	a4,13
80000540:	00e7a023          	sw	a4,0(a5)
80000544:	ba5ff0ef          	jal	ra,800000e8 <vx_join>
80000548:	ba1ff0ef          	jal	ra,800000e8 <vx_join>
8000054c:	810007b7          	lui	a5,0x81000
80000550:	70878793          	addi	a5,a5,1800 # 81000708 <z+0xfffffff0>
80000554:	0007a783          	lw	a5,0(a5)
80000558:	00078513          	mv	a0,a5
8000055c:	c21ff0ef          	jal	ra,8000017c <vx_print_hex>
80000560:	810007b7          	lui	a5,0x81000
80000564:	09478513          	addi	a0,a5,148 # 81000094 <z+0xfffff97c>
80000568:	bd9ff0ef          	jal	ra,80000140 <vx_print_str>
8000056c:	810007b7          	lui	a5,0x81000
80000570:	70878793          	addi	a5,a5,1800 # 81000708 <z+0xfffffff0>
80000574:	0047a783          	lw	a5,4(a5)
80000578:	00078513          	mv	a0,a5
8000057c:	c01ff0ef          	jal	ra,8000017c <vx_print_hex>
80000580:	810007b7          	lui	a5,0x81000
80000584:	09478513          	addi	a0,a5,148 # 81000094 <z+0xfffff97c>
80000588:	bb9ff0ef          	jal	ra,80000140 <vx_print_str>
8000058c:	810007b7          	lui	a5,0x81000
80000590:	70878793          	addi	a5,a5,1800 # 81000708 <z+0xfffffff0>
80000594:	0087a783          	lw	a5,8(a5)
80000598:	00078513          	mv	a0,a5
8000059c:	be1ff0ef          	jal	ra,8000017c <vx_print_hex>
800005a0:	810007b7          	lui	a5,0x81000
800005a4:	09478513          	addi	a0,a5,148 # 81000094 <z+0xfffff97c>
800005a8:	b99ff0ef          	jal	ra,80000140 <vx_print_str>
800005ac:	810007b7          	lui	a5,0x81000
800005b0:	70878793          	addi	a5,a5,1800 # 81000708 <z+0xfffffff0>
800005b4:	00c7a783          	lw	a5,12(a5)
800005b8:	00078513          	mv	a0,a5
800005bc:	bc1ff0ef          	jal	ra,8000017c <vx_print_hex>
800005c0:	810007b7          	lui	a5,0x81000
800005c4:	09478513          	addi	a0,a5,148 # 81000094 <z+0xfffff97c>
800005c8:	b79ff0ef          	jal	ra,80000140 <vx_print_str>
800005cc:	00000013          	nop
800005d0:	01c12083          	lw	ra,28(sp)
800005d4:	01812403          	lw	s0,24(sp)
800005d8:	02010113          	addi	sp,sp,32
800005dc:	00008067          	ret

800005e0 <simple_kernel>:
800005e0:	fe010113          	addi	sp,sp,-32
800005e4:	00112e23          	sw	ra,28(sp)
800005e8:	00812c23          	sw	s0,24(sp)
800005ec:	02010413          	addi	s0,sp,32
800005f0:	b01ff0ef          	jal	ra,800000f0 <vx_warpID>
800005f4:	fea42623          	sw	a0,-20(s0)
800005f8:	810007b7          	lui	a5,0x81000
800005fc:	6f878713          	addi	a4,a5,1784 # 810006f8 <z+0xffffffe0>
80000600:	fec42783          	lw	a5,-20(s0)
80000604:	00279793          	slli	a5,a5,0x2
80000608:	00f707b3          	add	a5,a4,a5
8000060c:	fec42703          	lw	a4,-20(s0)
80000610:	00e7a023          	sw	a4,0(a5)
80000614:	fec42783          	lw	a5,-20(s0)
80000618:	00078663          	beqz	a5,80000624 <simple_kernel+0x44>
8000061c:	00000513          	li	a0,0
80000620:	ab1ff0ef          	jal	ra,800000d0 <vx_tmc>
80000624:	00000013          	nop
80000628:	01c12083          	lw	ra,28(sp)
8000062c:	01812403          	lw	s0,24(sp)
80000630:	02010113          	addi	sp,sp,32
80000634:	00008067          	ret

80000638 <test_wsapwn>:
80000638:	fe010113          	addi	sp,sp,-32
8000063c:	00112e23          	sw	ra,28(sp)
80000640:	00812c23          	sw	s0,24(sp)
80000644:	02010413          	addi	s0,sp,32
80000648:	800007b7          	lui	a5,0x80000
8000064c:	5e078793          	addi	a5,a5,1504 # 800005e0 <z+0xfefffec8>
80000650:	fef42623          	sw	a5,-20(s0)
80000654:	fec42583          	lw	a1,-20(s0)
80000658:	00400513          	li	a0,4
8000065c:	a6dff0ef          	jal	ra,800000c8 <vx_wspawn>
80000660:	f81ff0ef          	jal	ra,800005e0 <simple_kernel>
80000664:	810007b7          	lui	a5,0x81000
80000668:	6f878793          	addi	a5,a5,1784 # 810006f8 <z+0xffffffe0>
8000066c:	0007a783          	lw	a5,0(a5)
80000670:	00078513          	mv	a0,a5
80000674:	b09ff0ef          	jal	ra,8000017c <vx_print_hex>
80000678:	810007b7          	lui	a5,0x81000
8000067c:	09478513          	addi	a0,a5,148 # 81000094 <z+0xfffff97c>
80000680:	ac1ff0ef          	jal	ra,80000140 <vx_print_str>
80000684:	810007b7          	lui	a5,0x81000
80000688:	6f878793          	addi	a5,a5,1784 # 810006f8 <z+0xffffffe0>
8000068c:	0047a783          	lw	a5,4(a5)
80000690:	00078513          	mv	a0,a5
80000694:	ae9ff0ef          	jal	ra,8000017c <vx_print_hex>
80000698:	810007b7          	lui	a5,0x81000
8000069c:	09478513          	addi	a0,a5,148 # 81000094 <z+0xfffff97c>
800006a0:	aa1ff0ef          	jal	ra,80000140 <vx_print_str>
800006a4:	810007b7          	lui	a5,0x81000
800006a8:	6f878793          	addi	a5,a5,1784 # 810006f8 <z+0xffffffe0>
800006ac:	0087a783          	lw	a5,8(a5)
800006b0:	00078513          	mv	a0,a5
800006b4:	ac9ff0ef          	jal	ra,8000017c <vx_print_hex>
800006b8:	810007b7          	lui	a5,0x81000
800006bc:	09478513          	addi	a0,a5,148 # 81000094 <z+0xfffff97c>
800006c0:	a81ff0ef          	jal	ra,80000140 <vx_print_str>
800006c4:	810007b7          	lui	a5,0x81000
800006c8:	6f878793          	addi	a5,a5,1784 # 810006f8 <z+0xffffffe0>
800006cc:	00c7a783          	lw	a5,12(a5)
800006d0:	00078513          	mv	a0,a5
800006d4:	aa9ff0ef          	jal	ra,8000017c <vx_print_hex>
800006d8:	810007b7          	lui	a5,0x81000
800006dc:	09478513          	addi	a0,a5,148 # 81000094 <z+0xfffff97c>
800006e0:	a61ff0ef          	jal	ra,80000140 <vx_print_str>
800006e4:	00000013          	nop
800006e8:	01c12083          	lw	ra,28(sp)
800006ec:	01812403          	lw	s0,24(sp)
800006f0:	02010113          	addi	sp,sp,32
800006f4:	00008067          	ret

800006f8 <intrinsics_tests>:
800006f8:	ff010113          	addi	sp,sp,-16
800006fc:	00112623          	sw	ra,12(sp)
80000700:	00812423          	sw	s0,8(sp)
80000704:	01010413          	addi	s0,sp,16
80000708:	c61ff0ef          	jal	ra,80000368 <test_tmc>
8000070c:	810007b7          	lui	a5,0x81000
80000710:	09878513          	addi	a0,a5,152 # 81000098 <z+0xfffff980>
80000714:	a2dff0ef          	jal	ra,80000140 <vx_print_str>
80000718:	00400513          	li	a0,4
8000071c:	9b5ff0ef          	jal	ra,800000d0 <vx_tmc>
80000720:	d2dff0ef          	jal	ra,8000044c <test_divergence>
80000724:	00100513          	li	a0,1
80000728:	9a9ff0ef          	jal	ra,800000d0 <vx_tmc>
8000072c:	810007b7          	lui	a5,0x81000
80000730:	0ac78513          	addi	a0,a5,172 # 810000ac <z+0xfffff994>
80000734:	a0dff0ef          	jal	ra,80000140 <vx_print_str>
80000738:	f01ff0ef          	jal	ra,80000638 <test_wsapwn>
8000073c:	00000013          	nop
80000740:	00c12083          	lw	ra,12(sp)
80000744:	00812403          	lw	s0,8(sp)
80000748:	01010113          	addi	sp,sp,16
8000074c:	00008067          	ret

80000750 <mat_add_kernel>:
80000750:	fc010113          	addi	sp,sp,-64
80000754:	02112e23          	sw	ra,60(sp)
80000758:	02812c23          	sw	s0,56(sp)
8000075c:	04010413          	addi	s0,sp,64
80000760:	fca42623          	sw	a0,-52(s0)
80000764:	fcc42783          	lw	a5,-52(s0)
80000768:	fef42623          	sw	a5,-20(s0)
8000076c:	985ff0ef          	jal	ra,800000f0 <vx_warpID>
80000770:	fea42423          	sw	a0,-24(s0)
80000774:	985ff0ef          	jal	ra,800000f8 <vx_threadID>
80000778:	fea42223          	sw	a0,-28(s0)
8000077c:	fec42783          	lw	a5,-20(s0)
80000780:	0107a783          	lw	a5,16(a5)
80000784:	fe842703          	lw	a4,-24(s0)
80000788:	00f77e63          	bgeu	a4,a5,800007a4 <mat_add_kernel+0x54>
8000078c:	fec42783          	lw	a5,-20(s0)
80000790:	00c7a783          	lw	a5,12(a5)
80000794:	fe442703          	lw	a4,-28(s0)
80000798:	00f77663          	bgeu	a4,a5,800007a4 <mat_add_kernel+0x54>
8000079c:	00100793          	li	a5,1
800007a0:	0080006f          	j	800007a8 <mat_add_kernel+0x58>
800007a4:	00000793          	li	a5,0
800007a8:	fef401a3          	sb	a5,-29(s0)
800007ac:	fe344783          	lbu	a5,-29(s0)
800007b0:	0017f793          	andi	a5,a5,1
800007b4:	fef401a3          	sb	a5,-29(s0)
800007b8:	fe344783          	lbu	a5,-29(s0)
800007bc:	00078513          	mv	a0,a5
800007c0:	921ff0ef          	jal	ra,800000e0 <vx_split>
800007c4:	fe344783          	lbu	a5,-29(s0)
800007c8:	06078663          	beqz	a5,80000834 <mat_add_kernel+0xe4>
800007cc:	fec42783          	lw	a5,-20(s0)
800007d0:	00c7a703          	lw	a4,12(a5)
800007d4:	fe842783          	lw	a5,-24(s0)
800007d8:	02f707b3          	mul	a5,a4,a5
800007dc:	fe442703          	lw	a4,-28(s0)
800007e0:	00f707b3          	add	a5,a4,a5
800007e4:	fcf42e23          	sw	a5,-36(s0)
800007e8:	fec42783          	lw	a5,-20(s0)
800007ec:	0007a703          	lw	a4,0(a5)
800007f0:	fdc42783          	lw	a5,-36(s0)
800007f4:	00279793          	slli	a5,a5,0x2
800007f8:	00f707b3          	add	a5,a4,a5
800007fc:	0007a683          	lw	a3,0(a5)
80000800:	fec42783          	lw	a5,-20(s0)
80000804:	0047a703          	lw	a4,4(a5)
80000808:	fdc42783          	lw	a5,-36(s0)
8000080c:	00279793          	slli	a5,a5,0x2
80000810:	00f707b3          	add	a5,a4,a5
80000814:	0007a703          	lw	a4,0(a5)
80000818:	fec42783          	lw	a5,-20(s0)
8000081c:	0087a603          	lw	a2,8(a5)
80000820:	fdc42783          	lw	a5,-36(s0)
80000824:	00279793          	slli	a5,a5,0x2
80000828:	00f607b3          	add	a5,a2,a5
8000082c:	00e68733          	add	a4,a3,a4
80000830:	00e7a023          	sw	a4,0(a5)
80000834:	8b5ff0ef          	jal	ra,800000e8 <vx_join>
80000838:	00000013          	nop
8000083c:	03c12083          	lw	ra,60(sp)
80000840:	03812403          	lw	s0,56(sp)
80000844:	04010113          	addi	sp,sp,64
80000848:	00008067          	ret

8000084c <vx_print_mat>:
8000084c:	fd010113          	addi	sp,sp,-48
80000850:	02112623          	sw	ra,44(sp)
80000854:	02812423          	sw	s0,40(sp)
80000858:	03010413          	addi	s0,sp,48
8000085c:	fca42e23          	sw	a0,-36(s0)
80000860:	fcb42c23          	sw	a1,-40(s0)
80000864:	fcc42a23          	sw	a2,-44(s0)
80000868:	810007b7          	lui	a5,0x81000
8000086c:	0f878513          	addi	a0,a5,248 # 810000f8 <z+0xfffff9e0>
80000870:	8d1ff0ef          	jal	ra,80000140 <vx_print_str>
80000874:	fe042623          	sw	zero,-20(s0)
80000878:	07c0006f          	j	800008f4 <vx_print_mat+0xa8>
8000087c:	fe042423          	sw	zero,-24(s0)
80000880:	0500006f          	j	800008d0 <vx_print_mat+0x84>
80000884:	fec42703          	lw	a4,-20(s0)
80000888:	fd442783          	lw	a5,-44(s0)
8000088c:	02f70733          	mul	a4,a4,a5
80000890:	fe842783          	lw	a5,-24(s0)
80000894:	00f707b3          	add	a5,a4,a5
80000898:	fef42223          	sw	a5,-28(s0)
8000089c:	fe442783          	lw	a5,-28(s0)
800008a0:	00279793          	slli	a5,a5,0x2
800008a4:	fdc42703          	lw	a4,-36(s0)
800008a8:	00f707b3          	add	a5,a4,a5
800008ac:	0007a783          	lw	a5,0(a5)
800008b0:	00078513          	mv	a0,a5
800008b4:	8c9ff0ef          	jal	ra,8000017c <vx_print_hex>
800008b8:	810007b7          	lui	a5,0x81000
800008bc:	11078513          	addi	a0,a5,272 # 81000110 <z+0xfffff9f8>
800008c0:	881ff0ef          	jal	ra,80000140 <vx_print_str>
800008c4:	fe842783          	lw	a5,-24(s0)
800008c8:	00178793          	addi	a5,a5,1
800008cc:	fef42423          	sw	a5,-24(s0)
800008d0:	fe842703          	lw	a4,-24(s0)
800008d4:	fd442783          	lw	a5,-44(s0)
800008d8:	faf746e3          	blt	a4,a5,80000884 <vx_print_mat+0x38>
800008dc:	810007b7          	lui	a5,0x81000
800008e0:	11478513          	addi	a0,a5,276 # 81000114 <z+0xfffff9fc>
800008e4:	85dff0ef          	jal	ra,80000140 <vx_print_str>
800008e8:	fec42783          	lw	a5,-20(s0)
800008ec:	00178793          	addi	a5,a5,1
800008f0:	fef42623          	sw	a5,-20(s0)
800008f4:	fec42703          	lw	a4,-20(s0)
800008f8:	fd842783          	lw	a5,-40(s0)
800008fc:	f8f740e3          	blt	a4,a5,8000087c <vx_print_mat+0x30>
80000900:	00000013          	nop
80000904:	00000013          	nop
80000908:	02c12083          	lw	ra,44(sp)
8000090c:	02812403          	lw	s0,40(sp)
80000910:	03010113          	addi	sp,sp,48
80000914:	00008067          	ret

80000918 <main>:
80000918:	fd010113          	addi	sp,sp,-48
8000091c:	02112623          	sw	ra,44(sp)
80000920:	02812423          	sw	s0,40(sp)
80000924:	03010413          	addi	s0,sp,48
80000928:	00100513          	li	a0,1
8000092c:	fa4ff0ef          	jal	ra,800000d0 <vx_tmc>
80000930:	810007b7          	lui	a5,0x81000
80000934:	11878513          	addi	a0,a5,280 # 81000118 <z+0xfffffa00>
80000938:	809ff0ef          	jal	ra,80000140 <vx_print_str>
8000093c:	810007b7          	lui	a5,0x81000
80000940:	12c78513          	addi	a0,a5,300 # 8100012c <z+0xfffffa14>
80000944:	ffcff0ef          	jal	ra,80000140 <vx_print_str>
80000948:	810007b7          	lui	a5,0x81000
8000094c:	21078793          	addi	a5,a5,528 # 81000210 <z+0xfffffaf8>
80000950:	fcf42a23          	sw	a5,-44(s0)
80000954:	810007b7          	lui	a5,0x81000
80000958:	25078793          	addi	a5,a5,592 # 81000250 <z+0xfffffb38>
8000095c:	fcf42c23          	sw	a5,-40(s0)
80000960:	810007b7          	lui	a5,0x81000
80000964:	71878793          	addi	a5,a5,1816 # 81000718 <z+0x0>
80000968:	fcf42e23          	sw	a5,-36(s0)
8000096c:	00400793          	li	a5,4
80000970:	fef42023          	sw	a5,-32(s0)
80000974:	00400793          	li	a5,4
80000978:	fef42223          	sw	a5,-28(s0)
8000097c:	00400793          	li	a5,4
80000980:	fef42623          	sw	a5,-20(s0)
80000984:	00400793          	li	a5,4
80000988:	fef42423          	sw	a5,-24(s0)
8000098c:	fec42703          	lw	a4,-20(s0)
80000990:	fe842583          	lw	a1,-24(s0)
80000994:	fd440793          	addi	a5,s0,-44
80000998:	00078693          	mv	a3,a5
8000099c:	8bc18613          	addi	a2,gp,-1860 # 80000750 <mat_add_kernel>
800009a0:	00070513          	mv	a0,a4
800009a4:	955ff0ef          	jal	ra,800002f8 <vx_spawnWarps>
800009a8:	fe442783          	lw	a5,-28(s0)
800009ac:	00078713          	mv	a4,a5
800009b0:	fe042783          	lw	a5,-32(s0)
800009b4:	00078613          	mv	a2,a5
800009b8:	00070593          	mv	a1,a4
800009bc:	810007b7          	lui	a5,0x81000
800009c0:	71878513          	addi	a0,a5,1816 # 81000718 <z+0x0>
800009c4:	e89ff0ef          	jal	ra,8000084c <vx_print_mat>
800009c8:	810007b7          	lui	a5,0x81000
800009cc:	71878793          	addi	a5,a5,1816 # 81000718 <z+0x0>
800009d0:	fcf42a23          	sw	a5,-44(s0)
800009d4:	810007b7          	lui	a5,0x81000
800009d8:	25078793          	addi	a5,a5,592 # 81000250 <z+0xfffffb38>
800009dc:	fcf42c23          	sw	a5,-40(s0)
800009e0:	810007b7          	lui	a5,0x81000
800009e4:	71878793          	addi	a5,a5,1816 # 81000718 <z+0x0>
800009e8:	fcf42e23          	sw	a5,-36(s0)
800009ec:	00400793          	li	a5,4
800009f0:	fef42023          	sw	a5,-32(s0)
800009f4:	00400793          	li	a5,4
800009f8:	fef42223          	sw	a5,-28(s0)
800009fc:	fec42703          	lw	a4,-20(s0)
80000a00:	fe842583          	lw	a1,-24(s0)
80000a04:	fd440793          	addi	a5,s0,-44
80000a08:	00078693          	mv	a3,a5
80000a0c:	8bc18613          	addi	a2,gp,-1860 # 80000750 <mat_add_kernel>
80000a10:	00070513          	mv	a0,a4
80000a14:	8e5ff0ef          	jal	ra,800002f8 <vx_spawnWarps>
80000a18:	fe442783          	lw	a5,-28(s0)
80000a1c:	00078713          	mv	a4,a5
80000a20:	fe042783          	lw	a5,-32(s0)
80000a24:	00078613          	mv	a2,a5
80000a28:	00070593          	mv	a1,a4
80000a2c:	810007b7          	lui	a5,0x81000
80000a30:	71878513          	addi	a0,a5,1816 # 81000718 <z+0x0>
80000a34:	e19ff0ef          	jal	ra,8000084c <vx_print_mat>
80000a38:	00000793          	li	a5,0
80000a3c:	00078513          	mv	a0,a5
80000a40:	02c12083          	lw	ra,44(sp)
80000a44:	02812403          	lw	s0,40(sp)
80000a48:	03010113          	addi	sp,sp,48
80000a4c:	00008067          	ret

80000a50 <exit>:
80000a50:	ff010113          	addi	sp,sp,-16
80000a54:	00000593          	li	a1,0
80000a58:	00812423          	sw	s0,8(sp)
80000a5c:	00112623          	sw	ra,12(sp)
80000a60:	00050413          	mv	s0,a0
80000a64:	198000ef          	jal	ra,80000bfc <__call_exitprocs>
80000a68:	810007b7          	lui	a5,0x81000
80000a6c:	13c7a503          	lw	a0,316(a5) # 8100013c <z+0xfffffa24>
80000a70:	03c52783          	lw	a5,60(a0)
80000a74:	00078463          	beqz	a5,80000a7c <exit+0x2c>
80000a78:	000780e7          	jalr	a5
80000a7c:	00040513          	mv	a0,s0
80000a80:	3ac000ef          	jal	ra,80000e2c <_exit>

80000a84 <__libc_init_array>:
80000a84:	ff010113          	addi	sp,sp,-16
80000a88:	00812423          	sw	s0,8(sp)
80000a8c:	01212023          	sw	s2,0(sp)
80000a90:	00000437          	lui	s0,0x0
80000a94:	00000937          	lui	s2,0x0
80000a98:	00040793          	mv	a5,s0
80000a9c:	00090913          	mv	s2,s2
80000aa0:	40f90933          	sub	s2,s2,a5
80000aa4:	00112623          	sw	ra,12(sp)
80000aa8:	00912223          	sw	s1,4(sp)
80000aac:	40295913          	srai	s2,s2,0x2
80000ab0:	02090063          	beqz	s2,80000ad0 <__libc_init_array+0x4c>
80000ab4:	00040413          	mv	s0,s0
80000ab8:	00000493          	li	s1,0
80000abc:	00042783          	lw	a5,0(s0) # 0 <_start-0x80000000>
80000ac0:	00148493          	addi	s1,s1,1
80000ac4:	00440413          	addi	s0,s0,4
80000ac8:	000780e7          	jalr	a5
80000acc:	fe9918e3          	bne	s2,s1,80000abc <__libc_init_array+0x38>
80000ad0:	00000437          	lui	s0,0x0
80000ad4:	00000937          	lui	s2,0x0
80000ad8:	00040793          	mv	a5,s0
80000adc:	00090913          	mv	s2,s2
80000ae0:	40f90933          	sub	s2,s2,a5
80000ae4:	40295913          	srai	s2,s2,0x2
80000ae8:	02090063          	beqz	s2,80000b08 <__libc_init_array+0x84>
80000aec:	00040413          	mv	s0,s0
80000af0:	00000493          	li	s1,0
80000af4:	00042783          	lw	a5,0(s0) # 0 <_start-0x80000000>
80000af8:	00148493          	addi	s1,s1,1
80000afc:	00440413          	addi	s0,s0,4
80000b00:	000780e7          	jalr	a5
80000b04:	fe9918e3          	bne	s2,s1,80000af4 <__libc_init_array+0x70>
80000b08:	00c12083          	lw	ra,12(sp)
80000b0c:	00812403          	lw	s0,8(sp)
80000b10:	00412483          	lw	s1,4(sp)
80000b14:	00012903          	lw	s2,0(sp)
80000b18:	01010113          	addi	sp,sp,16
80000b1c:	00008067          	ret

80000b20 <memset>:
80000b20:	00f00313          	li	t1,15
80000b24:	00050713          	mv	a4,a0
80000b28:	02c37e63          	bgeu	t1,a2,80000b64 <memset+0x44>
80000b2c:	00f77793          	andi	a5,a4,15
80000b30:	0a079063          	bnez	a5,80000bd0 <memset+0xb0>
80000b34:	08059263          	bnez	a1,80000bb8 <memset+0x98>
80000b38:	ff067693          	andi	a3,a2,-16
80000b3c:	00f67613          	andi	a2,a2,15
80000b40:	00e686b3          	add	a3,a3,a4
80000b44:	00b72023          	sw	a1,0(a4)
80000b48:	00b72223          	sw	a1,4(a4)
80000b4c:	00b72423          	sw	a1,8(a4)
80000b50:	00b72623          	sw	a1,12(a4)
80000b54:	01070713          	addi	a4,a4,16
80000b58:	fed766e3          	bltu	a4,a3,80000b44 <memset+0x24>
80000b5c:	00061463          	bnez	a2,80000b64 <memset+0x44>
80000b60:	00008067          	ret
80000b64:	40c306b3          	sub	a3,t1,a2
80000b68:	00269693          	slli	a3,a3,0x2
80000b6c:	00000297          	auipc	t0,0x0
80000b70:	005686b3          	add	a3,a3,t0
80000b74:	00c68067          	jr	12(a3)
80000b78:	00b70723          	sb	a1,14(a4)
80000b7c:	00b706a3          	sb	a1,13(a4)
80000b80:	00b70623          	sb	a1,12(a4)
80000b84:	00b705a3          	sb	a1,11(a4)
80000b88:	00b70523          	sb	a1,10(a4)
80000b8c:	00b704a3          	sb	a1,9(a4)
80000b90:	00b70423          	sb	a1,8(a4)
80000b94:	00b703a3          	sb	a1,7(a4)
80000b98:	00b70323          	sb	a1,6(a4)
80000b9c:	00b702a3          	sb	a1,5(a4)
80000ba0:	00b70223          	sb	a1,4(a4)
80000ba4:	00b701a3          	sb	a1,3(a4)
80000ba8:	00b70123          	sb	a1,2(a4)
80000bac:	00b700a3          	sb	a1,1(a4)
80000bb0:	00b70023          	sb	a1,0(a4)
80000bb4:	00008067          	ret
80000bb8:	0ff5f593          	andi	a1,a1,255
80000bbc:	00859693          	slli	a3,a1,0x8
80000bc0:	00d5e5b3          	or	a1,a1,a3
80000bc4:	01059693          	slli	a3,a1,0x10
80000bc8:	00d5e5b3          	or	a1,a1,a3
80000bcc:	f6dff06f          	j	80000b38 <memset+0x18>
80000bd0:	00279693          	slli	a3,a5,0x2
80000bd4:	00000297          	auipc	t0,0x0
80000bd8:	005686b3          	add	a3,a3,t0
80000bdc:	00008293          	mv	t0,ra
80000be0:	fa0680e7          	jalr	-96(a3)
80000be4:	00028093          	mv	ra,t0
80000be8:	ff078793          	addi	a5,a5,-16
80000bec:	40f70733          	sub	a4,a4,a5
80000bf0:	00f60633          	add	a2,a2,a5
80000bf4:	f6c378e3          	bgeu	t1,a2,80000b64 <memset+0x44>
80000bf8:	f3dff06f          	j	80000b34 <memset+0x14>

80000bfc <__call_exitprocs>:
80000bfc:	fd010113          	addi	sp,sp,-48
80000c00:	810007b7          	lui	a5,0x81000
80000c04:	01412c23          	sw	s4,24(sp)
80000c08:	13c7aa03          	lw	s4,316(a5) # 8100013c <z+0xfffffa24>
80000c0c:	03212023          	sw	s2,32(sp)
80000c10:	02112623          	sw	ra,44(sp)
80000c14:	148a2903          	lw	s2,328(s4)
80000c18:	02812423          	sw	s0,40(sp)
80000c1c:	02912223          	sw	s1,36(sp)
80000c20:	01312e23          	sw	s3,28(sp)
80000c24:	01512a23          	sw	s5,20(sp)
80000c28:	01612823          	sw	s6,16(sp)
80000c2c:	01712623          	sw	s7,12(sp)
80000c30:	01812423          	sw	s8,8(sp)
80000c34:	04090063          	beqz	s2,80000c74 <__call_exitprocs+0x78>
80000c38:	00050b13          	mv	s6,a0
80000c3c:	00058b93          	mv	s7,a1
80000c40:	00100a93          	li	s5,1
80000c44:	fff00993          	li	s3,-1
80000c48:	00492483          	lw	s1,4(s2) # 4 <_start-0x7ffffffc>
80000c4c:	fff48413          	addi	s0,s1,-1
80000c50:	02044263          	bltz	s0,80000c74 <__call_exitprocs+0x78>
80000c54:	00249493          	slli	s1,s1,0x2
80000c58:	009904b3          	add	s1,s2,s1
80000c5c:	040b8463          	beqz	s7,80000ca4 <__call_exitprocs+0xa8>
80000c60:	1044a783          	lw	a5,260(s1)
80000c64:	05778063          	beq	a5,s7,80000ca4 <__call_exitprocs+0xa8>
80000c68:	fff40413          	addi	s0,s0,-1
80000c6c:	ffc48493          	addi	s1,s1,-4
80000c70:	ff3416e3          	bne	s0,s3,80000c5c <__call_exitprocs+0x60>
80000c74:	02c12083          	lw	ra,44(sp)
80000c78:	02812403          	lw	s0,40(sp)
80000c7c:	02412483          	lw	s1,36(sp)
80000c80:	02012903          	lw	s2,32(sp)
80000c84:	01c12983          	lw	s3,28(sp)
80000c88:	01812a03          	lw	s4,24(sp)
80000c8c:	01412a83          	lw	s5,20(sp)
80000c90:	01012b03          	lw	s6,16(sp)
80000c94:	00c12b83          	lw	s7,12(sp)
80000c98:	00812c03          	lw	s8,8(sp)
80000c9c:	03010113          	addi	sp,sp,48
80000ca0:	00008067          	ret
80000ca4:	00492783          	lw	a5,4(s2)
80000ca8:	0044a683          	lw	a3,4(s1)
80000cac:	fff78793          	addi	a5,a5,-1
80000cb0:	04878e63          	beq	a5,s0,80000d0c <__call_exitprocs+0x110>
80000cb4:	0004a223          	sw	zero,4(s1)
80000cb8:	fa0688e3          	beqz	a3,80000c68 <__call_exitprocs+0x6c>
80000cbc:	18892783          	lw	a5,392(s2)
80000cc0:	008a9733          	sll	a4,s5,s0
80000cc4:	00492c03          	lw	s8,4(s2)
80000cc8:	00f777b3          	and	a5,a4,a5
80000ccc:	02079263          	bnez	a5,80000cf0 <__call_exitprocs+0xf4>
80000cd0:	000680e7          	jalr	a3
80000cd4:	00492703          	lw	a4,4(s2)
80000cd8:	148a2783          	lw	a5,328(s4)
80000cdc:	01871463          	bne	a4,s8,80000ce4 <__call_exitprocs+0xe8>
80000ce0:	f8f904e3          	beq	s2,a5,80000c68 <__call_exitprocs+0x6c>
80000ce4:	f80788e3          	beqz	a5,80000c74 <__call_exitprocs+0x78>
80000ce8:	00078913          	mv	s2,a5
80000cec:	f5dff06f          	j	80000c48 <__call_exitprocs+0x4c>
80000cf0:	18c92783          	lw	a5,396(s2)
80000cf4:	0844a583          	lw	a1,132(s1)
80000cf8:	00f77733          	and	a4,a4,a5
80000cfc:	00071c63          	bnez	a4,80000d14 <__call_exitprocs+0x118>
80000d00:	000b0513          	mv	a0,s6
80000d04:	000680e7          	jalr	a3
80000d08:	fcdff06f          	j	80000cd4 <__call_exitprocs+0xd8>
80000d0c:	00892223          	sw	s0,4(s2)
80000d10:	fa9ff06f          	j	80000cb8 <__call_exitprocs+0xbc>
80000d14:	00058513          	mv	a0,a1
80000d18:	000680e7          	jalr	a3
80000d1c:	fb9ff06f          	j	80000cd4 <__call_exitprocs+0xd8>

80000d20 <__libc_fini_array>:
80000d20:	ff010113          	addi	sp,sp,-16
80000d24:	00812423          	sw	s0,8(sp)
80000d28:	000007b7          	lui	a5,0x0
80000d2c:	00000437          	lui	s0,0x0
80000d30:	00040413          	mv	s0,s0
80000d34:	00078793          	mv	a5,a5
80000d38:	408787b3          	sub	a5,a5,s0
80000d3c:	00912223          	sw	s1,4(sp)
80000d40:	00112623          	sw	ra,12(sp)
80000d44:	4027d493          	srai	s1,a5,0x2
80000d48:	02048063          	beqz	s1,80000d68 <__libc_fini_array+0x48>
80000d4c:	ffc78793          	addi	a5,a5,-4 # fffffffc <z+0x7efff8e4>
80000d50:	00878433          	add	s0,a5,s0
80000d54:	00042783          	lw	a5,0(s0) # 0 <_start-0x80000000>
80000d58:	fff48493          	addi	s1,s1,-1
80000d5c:	ffc40413          	addi	s0,s0,-4
80000d60:	000780e7          	jalr	a5
80000d64:	fe0498e3          	bnez	s1,80000d54 <__libc_fini_array+0x34>
80000d68:	00c12083          	lw	ra,12(sp)
80000d6c:	00812403          	lw	s0,8(sp)
80000d70:	00412483          	lw	s1,4(sp)
80000d74:	01010113          	addi	sp,sp,16
80000d78:	00008067          	ret

80000d7c <atexit>:
80000d7c:	00050593          	mv	a1,a0
80000d80:	00000693          	li	a3,0
80000d84:	00000613          	li	a2,0
80000d88:	00000513          	li	a0,0
80000d8c:	0040006f          	j	80000d90 <__register_exitproc>

80000d90 <__register_exitproc>:
80000d90:	810007b7          	lui	a5,0x81000
80000d94:	13c7a703          	lw	a4,316(a5) # 8100013c <z+0xfffffa24>
80000d98:	14872783          	lw	a5,328(a4)
80000d9c:	04078c63          	beqz	a5,80000df4 <__register_exitproc+0x64>
80000da0:	0047a703          	lw	a4,4(a5)
80000da4:	01f00813          	li	a6,31
80000da8:	06e84e63          	blt	a6,a4,80000e24 <__register_exitproc+0x94>
80000dac:	00271813          	slli	a6,a4,0x2
80000db0:	02050663          	beqz	a0,80000ddc <__register_exitproc+0x4c>
80000db4:	01078333          	add	t1,a5,a6
80000db8:	08c32423          	sw	a2,136(t1) # 80000144 <vx_print_str+0x4>
80000dbc:	1887a883          	lw	a7,392(a5)
80000dc0:	00100613          	li	a2,1
80000dc4:	00e61633          	sll	a2,a2,a4
80000dc8:	00c8e8b3          	or	a7,a7,a2
80000dcc:	1917a423          	sw	a7,392(a5)
80000dd0:	10d32423          	sw	a3,264(t1)
80000dd4:	00200693          	li	a3,2
80000dd8:	02d50463          	beq	a0,a3,80000e00 <__register_exitproc+0x70>
80000ddc:	00170713          	addi	a4,a4,1
80000de0:	00e7a223          	sw	a4,4(a5)
80000de4:	010787b3          	add	a5,a5,a6
80000de8:	00b7a423          	sw	a1,8(a5)
80000dec:	00000513          	li	a0,0
80000df0:	00008067          	ret
80000df4:	14c70793          	addi	a5,a4,332
80000df8:	14f72423          	sw	a5,328(a4)
80000dfc:	fa5ff06f          	j	80000da0 <__register_exitproc+0x10>
80000e00:	18c7a683          	lw	a3,396(a5)
80000e04:	00170713          	addi	a4,a4,1
80000e08:	00e7a223          	sw	a4,4(a5)
80000e0c:	00c6e633          	or	a2,a3,a2
80000e10:	18c7a623          	sw	a2,396(a5)
80000e14:	010787b3          	add	a5,a5,a6
80000e18:	00b7a423          	sw	a1,8(a5)
80000e1c:	00000513          	li	a0,0
80000e20:	00008067          	ret
80000e24:	fff00513          	li	a0,-1
80000e28:	00008067          	ret

80000e2c <_exit>:
80000e2c:	00000593          	li	a1,0
80000e30:	00000613          	li	a2,0
80000e34:	00000693          	li	a3,0
80000e38:	00000713          	li	a4,0
80000e3c:	00000793          	li	a5,0
80000e40:	05d00893          	li	a7,93
80000e44:	00000073          	ecall
80000e48:	00054463          	bltz	a0,80000e50 <_exit+0x24>
80000e4c:	0000006f          	j	80000e4c <_exit+0x20>
80000e50:	ff010113          	addi	sp,sp,-16
80000e54:	00812423          	sw	s0,8(sp)
80000e58:	00050413          	mv	s0,a0
80000e5c:	00112623          	sw	ra,12(sp)
80000e60:	40800433          	neg	s0,s0
80000e64:	00c000ef          	jal	ra,80000e70 <__errno>
80000e68:	00852023          	sw	s0,0(a0)
80000e6c:	0000006f          	j	80000e6c <_exit+0x40>

80000e70 <__errno>:
80000e70:	810007b7          	lui	a5,0x81000
80000e74:	6c07a503          	lw	a0,1728(a5) # 810006c0 <z+0xffffffa8>
80000e78:	00008067          	ret

80000e7c <register_fini>:
80000e7c:	000007b7          	lui	a5,0x0
80000e80:	00078793          	mv	a5,a5
80000e84:	00078663          	beqz	a5,80000e90 <register_fini+0x14>
80000e88:	e8c18513          	addi	a0,gp,-372 # 80000d20 <__libc_fini_array>
80000e8c:	ef1ff06f          	j	80000d7c <atexit>
80000e90:	00008067          	ret

Disassembly of section .rodata:

81000000 <.rodata>:
81000000:	0030                	addi	a2,sp,8
81000002:	0000                	unimp
81000004:	0031                	c.nop	12
81000006:	0000                	unimp
81000008:	0032                	c.slli	zero,0xc
8100000a:	0000                	unimp
8100000c:	00000033          	add	zero,zero,zero
81000010:	0034                	addi	a3,sp,8
81000012:	0000                	unimp
81000014:	0035                	c.nop	13
81000016:	0000                	unimp
81000018:	0036                	c.slli	zero,0xd
8100001a:	0000                	unimp
8100001c:	00000037          	lui	zero,0x0
81000020:	0038                	addi	a4,sp,8
81000022:	0000                	unimp
81000024:	0039                	c.nop	14
81000026:	0000                	unimp
81000028:	0061                	c.nop	24
8100002a:	0000                	unimp
8100002c:	0062                	c.slli	zero,0x18
8100002e:	0000                	unimp
81000030:	00000063          	beqz	zero,81000030 <__global_pointer$+0xfff19c>
81000034:	0064                	addi	s1,sp,12
81000036:	0000                	unimp
81000038:	0065                	c.nop	25
8100003a:	0000                	unimp
8100003c:	0066                	c.slli	zero,0x19
8100003e:	0000                	unimp
81000040:	000a                	c.slli	zero,0x2
81000042:	0000                	unimp
81000044:	0030                	addi	a2,sp,8
81000046:	0000                	unimp
81000048:	0031                	c.nop	12
8100004a:	0000                	unimp
8100004c:	0032                	c.slli	zero,0xc
8100004e:	0000                	unimp
81000050:	00000033          	add	zero,zero,zero
81000054:	0034                	addi	a3,sp,8
81000056:	0000                	unimp
81000058:	0035                	c.nop	13
8100005a:	0000                	unimp
8100005c:	0036                	c.slli	zero,0xd
8100005e:	0000                	unimp
81000060:	00000037          	lui	zero,0x0
81000064:	0038                	addi	a4,sp,8
81000066:	0000                	unimp
81000068:	0039                	c.nop	14
8100006a:	0000                	unimp
8100006c:	0061                	c.nop	24
8100006e:	0000                	unimp
81000070:	0062                	c.slli	zero,0x18
81000072:	0000                	unimp
81000074:	00000063          	beqz	zero,81000074 <__global_pointer$+0xfff1e0>
81000078:	0064                	addi	s1,sp,12
8100007a:	0000                	unimp
8100007c:	0065                	c.nop	25
8100007e:	0000                	unimp
81000080:	0066                	c.slli	zero,0x19
81000082:	0000                	unimp
81000084:	6574                	flw	fa3,76(a0)
81000086:	6e697473          	csrrci	s0,0x6e6,18
8100008a:	6d745f67          	0x6d745f67
8100008e:	00000a63          	beqz	zero,810000a2 <__global_pointer$+0xfff20e>
81000092:	0000                	unimp
81000094:	000a                	c.slli	zero,0x2
81000096:	0000                	unimp
81000098:	6574                	flw	fa3,76(a0)
8100009a:	645f7473          	csrrci	s0,0x645,30
8100009e:	7669                	lui	a2,0xffffa
810000a0:	7265                	lui	tp,0xffff9
810000a2:	636e6567          	0x636e6567
810000a6:	0a65                	addi	s4,s4,25
810000a8:	0000                	unimp
810000aa:	0000                	unimp
810000ac:	6574                	flw	fa3,76(a0)
810000ae:	735f7473          	csrrci	s0,0x735,30
810000b2:	6170                	flw	fa2,68(a0)
810000b4:	000a6e77          	0xa6e77
810000b8:	0030                	addi	a2,sp,8
810000ba:	0000                	unimp
810000bc:	0031                	c.nop	12
810000be:	0000                	unimp
810000c0:	0032                	c.slli	zero,0xc
810000c2:	0000                	unimp
810000c4:	00000033          	add	zero,zero,zero
810000c8:	0034                	addi	a3,sp,8
810000ca:	0000                	unimp
810000cc:	0035                	c.nop	13
810000ce:	0000                	unimp
810000d0:	0036                	c.slli	zero,0xd
810000d2:	0000                	unimp
810000d4:	00000037          	lui	zero,0x0
810000d8:	0038                	addi	a4,sp,8
810000da:	0000                	unimp
810000dc:	0039                	c.nop	14
810000de:	0000                	unimp
810000e0:	0061                	c.nop	24
810000e2:	0000                	unimp
810000e4:	0062                	c.slli	zero,0x18
810000e6:	0000                	unimp
810000e8:	00000063          	beqz	zero,810000e8 <__global_pointer$+0xfff254>
810000ec:	0064                	addi	s1,sp,12
810000ee:	0000                	unimp
810000f0:	0065                	c.nop	25
810000f2:	0000                	unimp
810000f4:	0066                	c.slli	zero,0x19
810000f6:	0000                	unimp
810000f8:	2d2d                	jal	81000732 <z+0x1a>
810000fa:	2d2d                	jal	81000734 <z+0x1c>
810000fc:	2d2d                	jal	81000736 <z+0x1e>
810000fe:	2d2d                	jal	81000738 <z+0x20>
81000100:	2d2d                	jal	8100073a <z+0x22>
81000102:	2d2d                	jal	8100073c <z+0x24>
81000104:	2d2d                	jal	8100073e <z+0x26>
81000106:	2d2d                	jal	81000740 <z+0x28>
81000108:	2d2d                	jal	81000742 <z+0x2a>
8100010a:	2d2d                	jal	81000744 <z+0x2c>
8100010c:	0a2d                	addi	s4,s4,11
8100010e:	0000                	unimp
81000110:	0020                	addi	s0,sp,8
81000112:	0000                	unimp
81000114:	000a                	c.slli	zero,0x2
81000116:	0000                	unimp
81000118:	666e6f43          	fmadd.q	ft10,ft8,ft6,fa2,unknown
8100011c:	7269                	lui	tp,0xffffa
8100011e:	206d                	jal	810001c8 <tmc_array+0x8>
81000120:	6544                	flw	fs1,12(a0)
81000122:	2076                	fld	ft0,344(sp)
81000124:	614d                	addi	sp,sp,176
81000126:	6e69                	lui	t3,0x1a
81000128:	000a                	c.slli	zero,0x2
8100012a:	0000                	unimp
8100012c:	7876                	flw	fa6,124(sp)
8100012e:	735f 6170 6e77      	0x6e776170735f
81000134:	70726157          	0x70726157
81000138:	          	0xa73

Disassembly of section .srodata:

8100013c <_global_impure_ptr>:
8100013c:	0290                	addi	a2,sp,320
8100013e:	8100                	0x8100

Disassembly of section .data:

81000140 <hextoa>:
81000140:	0000                	unimp
81000142:	8100                	0x8100
81000144:	0004                	0x4
81000146:	8100                	0x8100
81000148:	0008                	0x8
8100014a:	8100                	0x8100
8100014c:	000c                	0xc
8100014e:	8100                	0x8100
81000150:	0010                	0x10
81000152:	8100                	0x8100
81000154:	0014                	0x14
81000156:	8100                	0x8100
81000158:	0018                	0x18
8100015a:	8100                	0x8100
8100015c:	001c                	0x1c
8100015e:	8100                	0x8100
81000160:	0020                	addi	s0,sp,8
81000162:	8100                	0x8100
81000164:	0024                	addi	s1,sp,8
81000166:	8100                	0x8100
81000168:	0028                	addi	a0,sp,8
8100016a:	8100                	0x8100
8100016c:	002c                	addi	a1,sp,8
8100016e:	8100                	0x8100
81000170:	0030                	addi	a2,sp,8
81000172:	8100                	0x8100
81000174:	0034                	addi	a3,sp,8
81000176:	8100                	0x8100
81000178:	0038                	addi	a4,sp,8
8100017a:	8100                	0x8100
8100017c:	003c                	addi	a5,sp,8
8100017e:	8100                	0x8100

81000180 <hextoa>:
81000180:	0044                	addi	s1,sp,4
81000182:	8100                	0x8100
81000184:	0048                	addi	a0,sp,4
81000186:	8100                	0x8100
81000188:	004c                	addi	a1,sp,4
8100018a:	8100                	0x8100
8100018c:	0050                	addi	a2,sp,4
8100018e:	8100                	0x8100
81000190:	0054                	addi	a3,sp,4
81000192:	8100                	0x8100
81000194:	0058                	addi	a4,sp,4
81000196:	8100                	0x8100
81000198:	005c                	addi	a5,sp,4
8100019a:	8100                	0x8100
8100019c:	0060                	addi	s0,sp,12
8100019e:	8100                	0x8100
810001a0:	0064                	addi	s1,sp,12
810001a2:	8100                	0x8100
810001a4:	0068                	addi	a0,sp,12
810001a6:	8100                	0x8100
810001a8:	006c                	addi	a1,sp,12
810001aa:	8100                	0x8100
810001ac:	0070                	addi	a2,sp,12
810001ae:	8100                	0x8100
810001b0:	0074                	addi	a3,sp,12
810001b2:	8100                	0x8100
810001b4:	0078                	addi	a4,sp,12
810001b6:	8100                	0x8100
810001b8:	007c                	addi	a5,sp,12
810001ba:	8100                	0x8100
810001bc:	0080                	addi	s0,sp,64
810001be:	8100                	0x8100

810001c0 <tmc_array>:
810001c0:	0005                	c.nop	1
810001c2:	0000                	unimp
810001c4:	0005                	c.nop	1
810001c6:	0000                	unimp
810001c8:	0005                	c.nop	1
810001ca:	0000                	unimp
810001cc:	0005                	c.nop	1
	...

810001d0 <hextoa>:
810001d0:	00b8                	addi	a4,sp,72
810001d2:	8100                	0x8100
810001d4:	00bc                	addi	a5,sp,72
810001d6:	8100                	0x8100
810001d8:	00c0                	addi	s0,sp,68
810001da:	8100                	0x8100
810001dc:	00c4                	addi	s1,sp,68
810001de:	8100                	0x8100
810001e0:	00c8                	addi	a0,sp,68
810001e2:	8100                	0x8100
810001e4:	00cc                	addi	a1,sp,68
810001e6:	8100                	0x8100
810001e8:	00d0                	addi	a2,sp,68
810001ea:	8100                	0x8100
810001ec:	00d4                	addi	a3,sp,68
810001ee:	8100                	0x8100
810001f0:	00d8                	addi	a4,sp,68
810001f2:	8100                	0x8100
810001f4:	00dc                	addi	a5,sp,68
810001f6:	8100                	0x8100
810001f8:	00e0                	addi	s0,sp,76
810001fa:	8100                	0x8100
810001fc:	00e4                	addi	s1,sp,76
810001fe:	8100                	0x8100
81000200:	00e8                	addi	a0,sp,76
81000202:	8100                	0x8100
81000204:	00ec                	addi	a1,sp,76
81000206:	8100                	0x8100
81000208:	00f0                	addi	a2,sp,76
8100020a:	8100                	0x8100
8100020c:	00f4                	addi	a3,sp,76
8100020e:	8100                	0x8100

81000210 <x>:
81000210:	0005                	c.nop	1
81000212:	0000                	unimp
81000214:	0005                	c.nop	1
81000216:	0000                	unimp
81000218:	0005                	c.nop	1
8100021a:	0000                	unimp
8100021c:	0005                	c.nop	1
8100021e:	0000                	unimp
81000220:	0006                	c.slli	zero,0x1
81000222:	0000                	unimp
81000224:	0006                	c.slli	zero,0x1
81000226:	0000                	unimp
81000228:	0006                	c.slli	zero,0x1
8100022a:	0000                	unimp
8100022c:	0006                	c.slli	zero,0x1
8100022e:	0000                	unimp
81000230:	00000007          	0x7
81000234:	00000007          	0x7
81000238:	00000007          	0x7
8100023c:	00000007          	0x7
81000240:	0008                	0x8
81000242:	0000                	unimp
81000244:	0008                	0x8
81000246:	0000                	unimp
81000248:	0008                	0x8
8100024a:	0000                	unimp
8100024c:	0008                	0x8
	...

81000250 <y>:
81000250:	0001                	nop
81000252:	0000                	unimp
81000254:	0001                	nop
81000256:	0000                	unimp
81000258:	0001                	nop
8100025a:	0000                	unimp
8100025c:	0001                	nop
8100025e:	0000                	unimp
81000260:	0001                	nop
81000262:	0000                	unimp
81000264:	0001                	nop
81000266:	0000                	unimp
81000268:	0001                	nop
8100026a:	0000                	unimp
8100026c:	0001                	nop
8100026e:	0000                	unimp
81000270:	0001                	nop
81000272:	0000                	unimp
81000274:	0001                	nop
81000276:	0000                	unimp
81000278:	0001                	nop
8100027a:	0000                	unimp
8100027c:	0001                	nop
8100027e:	0000                	unimp
81000280:	0001                	nop
81000282:	0000                	unimp
81000284:	0001                	nop
81000286:	0000                	unimp
81000288:	0001                	nop
8100028a:	0000                	unimp
8100028c:	0001                	nop
	...

81000290 <impure_data>:
81000290:	0000                	unimp
81000292:	0000                	unimp
81000294:	057c                	addi	a5,sp,652
81000296:	8100                	0x8100
81000298:	05e4                	addi	s1,sp,716
8100029a:	8100                	0x8100
8100029c:	064c                	addi	a1,sp,772
8100029e:	8100                	0x8100
	...
81000338:	0001                	nop
8100033a:	0000                	unimp
8100033c:	0000                	unimp
8100033e:	0000                	unimp
81000340:	330e                	fld	ft6,224(sp)
81000342:	abcd                	j	81000934 <z+0x21c>
81000344:	1234                	addi	a3,sp,296
81000346:	e66d                	bnez	a2,81000430 <impure_data+0x1a0>
81000348:	deec                	sw	a1,124(a3)
8100034a:	0005                	c.nop	1
8100034c:	0000000b          	0xb
	...

Disassembly of section .eh_frame:

810006b8 <__FRAME_END__>:
810006b8:	0000                	unimp
	...

Disassembly of section .sdata:

810006bc <__dso_handle>:
810006bc:	0000                	unimp
	...

810006c0 <_impure_ptr>:
810006c0:	0290                	addi	a2,sp,320
810006c2:	8100                	0x8100

Disassembly of section .fini_array:

810006c4 <__do_global_dtors_aux_fini_array_entry>:
810006c4:	004c                	addi	a1,sp,4
810006c6:	8000                	0x8000

Disassembly of section .init_array:

810006c8 <__frame_dummy_init_array_entry>:
810006c8:	00a0                	addi	s0,sp,72
810006ca:	8000                	0x8000

Disassembly of section .init_array.00000:

810006cc <.init_array.00000>:
810006cc:	0e7c                	addi	a5,sp,796
810006ce:	8000                	0x8000

Disassembly of section .bss:

810006d0 <completed.5490>:
810006d0:	0000                	unimp
	...

810006d4 <object.5495>:
	...

810006ec <global_argument_struct>:
810006ec:	0000                	unimp
	...

810006f0 <global_function_pointer>:
810006f0:	0000                	unimp
	...

810006f4 <global_num_threads>:
810006f4:	0000                	unimp
	...

810006f8 <wsapwn_arr>:
	...

81000708 <div_arr>:
	...

81000718 <z>:
	...

Disassembly of section .comment:

82000000 <.comment>:
82000000:	3a434347          	fmsub.d	ft6,ft6,ft4,ft7,rmm
82000004:	2820                	fld	fs0,80(s0)
82000006:	29554e47          	fmsub.s	ft8,fa0,fs5,ft5,rmm
8200000a:	3920                	fld	fs0,112(a0)
8200000c:	322e                	fld	ft4,232(sp)
8200000e:	302e                	fld	ft0,232(sp)
	...

Disassembly of section .riscv.attributes:

00000000 <.riscv.attributes>:
   0:	2041                	jal	80 <_start-0x7fffff80>
   2:	0000                	unimp
   4:	7200                	flw	fs0,32(a2)
   6:	7369                	lui	t1,0xffffa
   8:	01007663          	bgeu	zero,a6,14 <_start-0x7fffffec>
   c:	0016                	c.slli	zero,0x5
   e:	0000                	unimp
  10:	1004                	addi	s1,sp,32
  12:	7205                	lui	tp,0xfffe1
  14:	3376                	fld	ft6,376(sp)
  16:	6932                	flw	fs2,12(sp)
  18:	7032                	flw	ft0,44(sp)
  1a:	5f30                	lw	a2,120(a4)
  1c:	326d                	jal	fffff9c6 <z+0x7efff2ae>
  1e:	3070                	fld	fa2,224(s0)
	...
