
/tmp/pocl_vortex_kernel-4a-97-7b-60-b1.elf:	file format ELF32-riscv


Disassembly of section .init:

80000000 _start:
80000000: 97 05 00 00                  	auipc	a1, 0
80000004: 93 85 85 63                  	addi	a1, a1, 1592
80000008: 73 25 60 02                  	csrr	a0, 38
8000000c: 6b 10 b5 00                  	<unknown>
80000010: ef 00 80 62                  	jal	1576
80000014: 13 05 10 00                  	addi	a0, zero, 1
80000018: 6b 00 05 00                  	<unknown>
8000001c: 13 85 c1 c2                  	addi	a0, gp, -980
80000020: 13 86 01 c3                  	addi	a2, gp, -976
80000024: 33 06 a6 40                  	sub	a2, a2, a0
80000028: 93 05 00 00                  	mv	a1, zero
8000002c: ef 00 10 00                  	jal	2048
80000030: 17 05 00 00                  	auipc	a0, 0
80000034: 13 05 45 70                  	addi	a0, a0, 1796
80000038: ef 00 80 6b                  	jal	1720
8000003c: ef 00 40 75                  	jal	1876
80000040: ef 00 c0 13                  	jal	316
80000044: 6f 00 00 6c                  	j	1728

Disassembly of section .text:

80000048 register_fini:
80000048: 93 07 00 00                  	mv	a5, zero
8000004c: 63 88 07 00                  	beqz	a5, 16
80000050: 37 05 00 80                  	lui	a0, 524288
80000054: 13 05 45 73                  	addi	a0, a0, 1844
80000058: 6f 00 80 69                  	j	1688
8000005c: 67 80 00 00                  	ret

80000060 kernel_spawn_runonce:
80000060: 13 01 01 ff                  	addi	sp, sp, -16
80000064: 23 26 11 00                  	sw	ra, 12(sp)
80000068: 23 24 81 00                  	sw	s0, 8(sp)
8000006c: 23 22 91 00                  	sw	s1, 4(sp)
80000070: 03 a5 c1 c2                  	lw	a0, -980(gp)
80000074: 03 25 c5 00                  	lw	a0, 12(a0)
80000078: ef 00 80 60                  	jal	1544
8000007c: ef 00 40 63                  	jal	1588
80000080: 13 04 05 00                  	mv	s0, a0
80000084: ef 00 40 62                  	jal	1572
80000088: 83 a5 c1 c2                  	lw	a1, -980(gp)
8000008c: 83 a7 45 00                  	lw	a5, 4(a1)
80000090: 03 a6 85 00                  	lw	a2, 8(a1)
80000094: 83 a5 05 00                  	lw	a1, 0(a1)
80000098: 93 06 05 00                  	mv	a3, a0
8000009c: 13 05 06 00                  	mv	a0, a2
800000a0: 13 06 04 00                  	mv	a2, s0
800000a4: 13 07 00 00                  	mv	a4, zero
800000a8: e7 80 07 00                  	jalr	a5
800000ac: ef 00 40 5f                  	jal	1524
800000b0: 13 35 15 00                  	seqz	a0, a0
800000b4: 83 24 41 00                  	lw	s1, 4(sp)
800000b8: 03 24 81 00                  	lw	s0, 8(sp)
800000bc: 83 20 c1 00                  	lw	ra, 12(sp)
800000c0: 13 01 01 01                  	addi	sp, sp, 16
800000c4: 6f 00 c0 5b                  	j	1468

800000c8 kernel_spawn:
800000c8: 13 01 01 fe                  	addi	sp, sp, -32
800000cc: 23 2e 11 00                  	sw	ra, 28(sp)
800000d0: 23 2c 81 00                  	sw	s0, 24(sp)
800000d4: 23 2a 91 00                  	sw	s1, 20(sp)
800000d8: 93 06 05 00                  	mv	a3, a0
800000dc: 03 25 85 00                  	lw	a0, 8(a0)
800000e0: 13 07 10 00                  	addi	a4, zero, 1
800000e4: 63 62 a7 08                  	bltu	a4, a0, 132
800000e8: 23 20 d1 00                  	sw	a3, 0(sp)
800000ec: 23 22 b1 00                  	sw	a1, 4(sp)
800000f0: 23 24 c1 00                  	sw	a2, 8(sp)
800000f4: 03 a5 06 00                  	lw	a0, 0(a3)
800000f8: 23 26 a1 00                  	sw	a0, 12(sp)
800000fc: 93 05 01 00                  	mv	a1, sp
80000100: 23 a6 b1 c2                  	sw	a1, -980(gp)
80000104: 03 a6 46 00                  	lw	a2, 4(a3)
80000108: 93 05 20 00                  	addi	a1, zero, 2
8000010c: 63 6e b6 00                  	bltu	a2, a1, 28
80000110: 37 05 00 80                  	lui	a0, 524288
80000114: 93 05 05 06                  	addi	a1, a0, 96
80000118: 13 05 06 00                  	mv	a0, a2
8000011c: ef 00 c0 55                  	jal	1372
80000120: 03 a5 c1 c2                  	lw	a0, -980(gp)
80000124: 03 25 c5 00                  	lw	a0, 12(a0)
80000128: ef 00 80 55                  	jal	1368
8000012c: ef 00 40 58                  	jal	1412
80000130: 13 04 05 00                  	mv	s0, a0
80000134: ef 00 40 57                  	jal	1396
80000138: 83 a5 c1 c2                  	lw	a1, -980(gp)
8000013c: 83 a7 45 00                  	lw	a5, 4(a1)
80000140: 03 a6 85 00                  	lw	a2, 8(a1)
80000144: 83 a5 05 00                  	lw	a1, 0(a1)
80000148: 93 06 05 00                  	mv	a3, a0
8000014c: 13 05 06 00                  	mv	a0, a2
80000150: 13 06 04 00                  	mv	a2, s0
80000154: 13 07 00 00                  	mv	a4, zero
80000158: e7 80 07 00                  	jalr	a5
8000015c: ef 00 40 54                  	jal	1348
80000160: 13 35 15 00                  	seqz	a0, a0
80000164: ef 00 c0 51                  	jal	1308
80000168: 83 24 41 01                  	lw	s1, 20(sp)
8000016c: 03 24 81 01                  	lw	s0, 24(sp)
80000170: 83 20 c1 01                  	lw	ra, 28(sp)
80000174: 13 01 01 02                  	addi	sp, sp, 32
80000178: 67 80 00 00                  	ret

8000017c main:
8000017c: 13 01 01 fe                  	addi	sp, sp, -32
80000180: 23 2e 11 00                  	sw	ra, 28(sp)
80000184: 23 2c 81 00                  	sw	s0, 24(sp)
80000188: 23 2a 91 00                  	sw	s1, 20(sp)
8000018c: b7 05 ff 7f                  	lui	a1, 524272
80000190: 03 a5 85 00                  	lw	a0, 8(a1)
80000194: 13 06 10 00                  	addi	a2, zero, 1
80000198: 63 68 a6 08                  	bltu	a2, a0, 144
8000019c: 23 20 b1 00                  	sw	a1, 0(sp)
800001a0: 37 05 00 80                  	lui	a0, 524288
800001a4: 13 05 05 39                  	addi	a0, a0, 912
800001a8: 23 22 a1 00                  	sw	a0, 4(sp)
800001ac: 13 85 45 03                  	addi	a0, a1, 52
800001b0: 23 24 a1 00                  	sw	a0, 8(sp)
800001b4: 03 a5 05 00                  	lw	a0, 0(a1)
800001b8: 23 26 a1 00                  	sw	a0, 12(sp)
800001bc: 13 06 01 00                  	mv	a2, sp
800001c0: 23 a6 c1 c2                  	sw	a2, -980(gp)
800001c4: 03 a6 45 00                  	lw	a2, 4(a1)
800001c8: 93 05 20 00                  	addi	a1, zero, 2
800001cc: 63 6e b6 00                  	bltu	a2, a1, 28
800001d0: 37 05 00 80                  	lui	a0, 524288
800001d4: 93 05 05 06                  	addi	a1, a0, 96
800001d8: 13 05 06 00                  	mv	a0, a2
800001dc: ef 00 c0 49                  	jal	1180
800001e0: 03 a5 c1 c2                  	lw	a0, -980(gp)
800001e4: 03 25 c5 00                  	lw	a0, 12(a0)
800001e8: ef 00 80 49                  	jal	1176
800001ec: ef 00 40 4c                  	jal	1220
800001f0: 13 04 05 00                  	mv	s0, a0
800001f4: ef 00 40 4b                  	jal	1204
800001f8: 83 a5 c1 c2                  	lw	a1, -980(gp)
800001fc: 83 a7 45 00                  	lw	a5, 4(a1)
80000200: 03 a6 85 00                  	lw	a2, 8(a1)
80000204: 83 a5 05 00                  	lw	a1, 0(a1)
80000208: 93 06 05 00                  	mv	a3, a0
8000020c: 13 05 06 00                  	mv	a0, a2
80000210: 13 06 04 00                  	mv	a2, s0
80000214: 13 07 00 00                  	mv	a4, zero
80000218: e7 80 07 00                  	jalr	a5
8000021c: ef 00 40 48                  	jal	1156
80000220: 13 35 15 00                  	seqz	a0, a0
80000224: ef 00 c0 45                  	jal	1116
80000228: 13 05 00 00                  	mv	a0, zero
8000022c: 83 24 41 01                  	lw	s1, 20(sp)
80000230: 03 24 81 01                  	lw	s0, 24(sp)
80000234: 83 20 c1 01                  	lw	ra, 28(sp)
80000238: 13 01 01 02                  	addi	sp, sp, 32
8000023c: 67 80 00 00                  	ret

80000240 _pocl_kernel_Fan1:
80000240: 13 01 01 fc                  	addi	sp, sp, -64
80000244: 23 2e 11 02                  	sw	ra, 60(sp)
80000248: 23 2c 81 02                  	sw	s0, 56(sp)
8000024c: 23 2a 91 02                  	sw	s1, 52(sp)
80000250: 23 28 21 03                  	sw	s2, 48(sp)
80000254: 23 26 31 03                  	sw	s3, 44(sp)
80000258: 23 24 41 03                  	sw	s4, 40(sp)
8000025c: 23 22 51 03                  	sw	s5, 36(sp)
80000260: 23 20 61 03                  	sw	s6, 32(sp)
80000264: 23 2e 71 01                  	sw	s7, 28(sp)
80000268: 23 2c 81 01                  	sw	s8, 24(sp)
8000026c: 23 2a 91 01                  	sw	s9, 20(sp)
80000270: 23 28 a1 01                  	sw	s10, 16(sp)
80000274: 23 26 b1 01                  	sw	s11, 12(sp)
80000278: 13 04 01 04                  	addi	s0, sp, 64
8000027c: 13 71 c1 ff                  	andi	sp, sp, -4
80000280: 13 89 05 00                  	mv	s2, a1
80000284: 13 0a 05 00                  	mv	s4, a0
80000288: 13 05 00 00                  	mv	a0, zero
8000028c: 03 ac 87 01                  	lw	s8, 24(a5)
80000290: 83 a5 c7 01                  	lw	a1, 28(a5)
80000294: 23 24 b1 00                  	sw	a1, 8(sp)
80000298: 83 a5 07 02                  	lw	a1, 32(a5)
8000029c: 23 20 b1 00                  	sw	a1, 0(sp)
800002a0: 83 a8 c7 00                  	lw	a7, 12(a5)
800002a4: b3 05 0c 03                  	<unknown>
800002a8: 13 16 27 00                  	slli	a2, a4, 2
800002ac: b3 07 c9 00                  	add	a5, s2, a2
800002b0: b3 04 d7 02                  	<unknown>
800002b4: 93 94 24 00                  	slli	s1, s1, 2
800002b8: b3 8b 97 00                  	add	s7, a5, s1
800002bc: 93 47 f7 ff                  	not	a5, a4
800002c0: 33 8d d7 00                  	add	s10, a5, a3
800002c4: 33 87 e8 00                  	add	a4, a7, a4
800002c8: 33 07 b7 00                  	add	a4, a4, a1
800002cc: 13 07 17 00                  	addi	a4, a4, 1
800002d0: 33 87 e6 02                  	<unknown>
800002d4: 13 17 27 00                  	slli	a4, a4, 2
800002d8: b3 0a c7 00                  	add	s5, a4, a2
800002dc: 93 9d 26 00                  	slli	s11, a3, 2
800002e0: b3 84 b8 00                  	add	s1, a7, a1
800002e4: 6f 00 40 01                  	j	20
800002e8: 03 25 41 00                  	lw	a0, 4(sp)
800002ec: 13 05 15 00                  	addi	a0, a0, 1
800002f0: 83 25 01 00                  	lw	a1, 0(sp)
800002f4: 63 7e b5 04                  	bgeu	a0, a1, 92
800002f8: 23 22 a1 00                  	sw	a0, 4(sp)
800002fc: 13 0b 00 00                  	mv	s6, zero
80000300: 6f 00 00 01                  	j	16
80000304: 13 0b 1b 00                  	addi	s6, s6, 1
80000308: 03 25 81 00                  	lw	a0, 8(sp)
8000030c: e3 7e ab fc                  	bgeu	s6, a0, -36
80000310: 93 09 00 00                  	mv	s3, zero
80000314: 93 8c 0a 00                  	mv	s9, s5
80000318: 6f 00 00 01                  	j	16
8000031c: 93 89 19 00                  	addi	s3, s3, 1
80000320: b3 8c bc 01                  	add	s9, s9, s11
80000324: e3 f0 89 ff                  	bgeu	s3, s8, -32
80000328: 33 85 34 01                  	add	a0, s1, s3
8000032c: e3 58 a5 ff                  	bge	a0, s10, -16
80000330: 33 05 99 01                  	add	a0, s2, s9
80000334: 03 25 05 00                  	lw	a0, 0(a0)
80000338: 83 a5 0b 00                  	lw	a1, 0(s7)
8000033c: 97 00 00 00                  	auipc	ra, 0
80000340: e7 80 40 78                  	jalr	1924(ra)
80000344: b3 05 9a 01                  	add	a1, s4, s9
80000348: 23 a0 a5 00                  	sw	a0, 0(a1)
8000034c: 6f f0 1f fd                  	j	-48
80000350: 13 01 04 fc                  	addi	sp, s0, -64
80000354: 83 2d c1 00                  	lw	s11, 12(sp)
80000358: 03 2d 01 01                  	lw	s10, 16(sp)
8000035c: 83 2c 41 01                  	lw	s9, 20(sp)
80000360: 03 2c 81 01                  	lw	s8, 24(sp)
80000364: 83 2b c1 01                  	lw	s7, 28(sp)
80000368: 03 2b 01 02                  	lw	s6, 32(sp)
8000036c: 83 2a 41 02                  	lw	s5, 36(sp)
80000370: 03 2a 81 02                  	lw	s4, 40(sp)
80000374: 83 29 c1 02                  	lw	s3, 44(sp)
80000378: 03 29 01 03                  	lw	s2, 48(sp)
8000037c: 83 24 41 03                  	lw	s1, 52(sp)
80000380: 03 24 81 03                  	lw	s0, 56(sp)
80000384: 83 20 c1 03                  	lw	ra, 60(sp)
80000388: 13 01 01 04                  	addi	sp, sp, 64
8000038c: 67 80 00 00                  	ret

80000390 _pocl_kernel_Fan1_workgroup:
80000390: 13 01 01 fc                  	addi	sp, sp, -64
80000394: 23 2e 11 02                  	sw	ra, 60(sp)
80000398: 23 2c 81 02                  	sw	s0, 56(sp)
8000039c: 23 2a 91 02                  	sw	s1, 52(sp)
800003a0: 23 28 21 03                  	sw	s2, 48(sp)
800003a4: 23 26 31 03                  	sw	s3, 44(sp)
800003a8: 23 24 41 03                  	sw	s4, 40(sp)
800003ac: 23 22 51 03                  	sw	s5, 36(sp)
800003b0: 23 20 61 03                  	sw	s6, 32(sp)
800003b4: 23 2e 71 01                  	sw	s7, 28(sp)
800003b8: 23 2c 81 01                  	sw	s8, 24(sp)
800003bc: 23 2a 91 01                  	sw	s9, 20(sp)
800003c0: 23 28 a1 01                  	sw	s10, 16(sp)
800003c4: 23 26 b1 01                  	sw	s11, 12(sp)
800003c8: 13 07 00 00                  	mv	a4, zero
800003cc: 83 26 05 00                  	lw	a3, 0(a0)
800003d0: 83 24 45 00                  	lw	s1, 4(a0)
800003d4: 83 27 c5 00                  	lw	a5, 12(a0)
800003d8: 03 25 05 01                  	lw	a0, 16(a0)
800003dc: 83 a9 06 00                  	lw	s3, 0(a3)
800003e0: 03 ab 04 00                  	lw	s6, 0(s1)
800003e4: 83 a6 07 00                  	lw	a3, 0(a5)
800003e8: 03 25 05 00                  	lw	a0, 0(a0)
800003ec: 83 ac 85 01                  	lw	s9, 24(a1)
800003f0: 03 aa c5 01                  	lw	s4, 28(a1)
800003f4: 83 a7 05 02                  	lw	a5, 32(a1)
800003f8: 23 22 f1 00                  	sw	a5, 4(sp)
800003fc: 83 a5 c5 00                  	lw	a1, 12(a1)
80000400: 33 86 cc 02                  	<unknown>
80000404: 13 14 25 00                  	slli	s0, a0, 2
80000408: b3 07 8b 00                  	add	a5, s6, s0
8000040c: b3 04 d5 02                  	<unknown>
80000410: 93 94 24 00                  	slli	s1, s1, 2
80000414: b3 8b 97 00                  	add	s7, a5, s1
80000418: 93 47 f5 ff                  	not	a5, a0
8000041c: 33 8d f6 00                  	add	s10, a3, a5
80000420: 33 85 a5 00                  	add	a0, a1, a0
80000424: 33 05 c5 00                  	add	a0, a0, a2
80000428: 13 05 15 00                  	addi	a0, a0, 1
8000042c: 33 85 a6 02                  	<unknown>
80000430: 13 15 25 00                  	slli	a0, a0, 2
80000434: 33 09 85 00                  	add	s2, a0, s0
80000438: 93 94 26 00                  	slli	s1, a3, 2
8000043c: 33 84 c5 00                  	add	s0, a1, a2
80000440: 6f 00 40 01                  	j	20
80000444: 03 27 81 00                  	lw	a4, 8(sp)
80000448: 13 07 17 00                  	addi	a4, a4, 1
8000044c: 03 25 41 00                  	lw	a0, 4(sp)
80000450: 63 7c a7 04                  	bgeu	a4, a0, 88
80000454: 23 24 e1 00                  	sw	a4, 8(sp)
80000458: 93 0d 00 00                  	mv	s11, zero
8000045c: 6f 00 c0 00                  	j	12
80000460: 93 8d 1d 00                  	addi	s11, s11, 1
80000464: e3 f0 4d ff                  	bgeu	s11, s4, -32
80000468: 93 0a 00 00                  	mv	s5, zero
8000046c: 13 0c 09 00                  	mv	s8, s2
80000470: 6f 00 00 01                  	j	16
80000474: 93 8a 1a 00                  	addi	s5, s5, 1
80000478: 33 0c 9c 00                  	add	s8, s8, s1
8000047c: e3 f2 9a ff                  	bgeu	s5, s9, -28
80000480: 33 05 54 01                  	add	a0, s0, s5
80000484: e3 58 a5 ff                  	bge	a0, s10, -16
80000488: 33 05 8b 01                  	add	a0, s6, s8
8000048c: 03 25 05 00                  	lw	a0, 0(a0)
80000490: 83 a5 0b 00                  	lw	a1, 0(s7)
80000494: 97 00 00 00                  	auipc	ra, 0
80000498: e7 80 c0 62                  	jalr	1580(ra)
8000049c: b3 85 89 01                  	add	a1, s3, s8
800004a0: 23 a0 a5 00                  	sw	a0, 0(a1)
800004a4: 6f f0 1f fd                  	j	-48
800004a8: 83 2d c1 00                  	lw	s11, 12(sp)
800004ac: 03 2d 01 01                  	lw	s10, 16(sp)
800004b0: 83 2c 41 01                  	lw	s9, 20(sp)
800004b4: 03 2c 81 01                  	lw	s8, 24(sp)
800004b8: 83 2b c1 01                  	lw	s7, 28(sp)
800004bc: 03 2b 01 02                  	lw	s6, 32(sp)
800004c0: 83 2a 41 02                  	lw	s5, 36(sp)
800004c4: 03 2a 81 02                  	lw	s4, 40(sp)
800004c8: 83 29 c1 02                  	lw	s3, 44(sp)
800004cc: 03 29 01 03                  	lw	s2, 48(sp)
800004d0: 83 24 41 03                  	lw	s1, 52(sp)
800004d4: 03 24 81 03                  	lw	s0, 56(sp)
800004d8: 83 20 c1 03                  	lw	ra, 60(sp)
800004dc: 13 01 01 04                  	addi	sp, sp, 64
800004e0: 67 80 00 00                  	ret

800004e4 _pocl_kernel_Fan1_workgroup_fast:
800004e4: 13 01 01 fc                  	addi	sp, sp, -64
800004e8: 23 2e 11 02                  	sw	ra, 60(sp)
800004ec: 23 2c 81 02                  	sw	s0, 56(sp)
800004f0: 23 2a 91 02                  	sw	s1, 52(sp)
800004f4: 23 28 21 03                  	sw	s2, 48(sp)
800004f8: 23 26 31 03                  	sw	s3, 44(sp)
800004fc: 23 24 41 03                  	sw	s4, 40(sp)
80000500: 23 22 51 03                  	sw	s5, 36(sp)
80000504: 23 20 61 03                  	sw	s6, 32(sp)
80000508: 23 2e 71 01                  	sw	s7, 28(sp)
8000050c: 23 2c 81 01                  	sw	s8, 24(sp)
80000510: 23 2a 91 01                  	sw	s9, 20(sp)
80000514: 23 28 a1 01                  	sw	s10, 16(sp)
80000518: 23 26 b1 01                  	sw	s11, 12(sp)
8000051c: 13 07 00 00                  	mv	a4, zero
80000520: 83 26 c5 00                  	lw	a3, 12(a0)
80000524: 83 27 05 01                  	lw	a5, 16(a0)
80000528: 83 29 05 00                  	lw	s3, 0(a0)
8000052c: 03 2b 45 00                  	lw	s6, 4(a0)
80000530: 03 a5 06 00                  	lw	a0, 0(a3)
80000534: 83 a6 07 00                  	lw	a3, 0(a5)
80000538: 83 ac 85 01                  	lw	s9, 24(a1)
8000053c: 03 aa c5 01                  	lw	s4, 28(a1)
80000540: 83 a7 05 02                  	lw	a5, 32(a1)
80000544: 23 22 f1 00                  	sw	a5, 4(sp)
80000548: 83 a5 c5 00                  	lw	a1, 12(a1)
8000054c: 33 86 cc 02                  	<unknown>
80000550: 13 94 26 00                  	slli	s0, a3, 2
80000554: b3 07 8b 00                  	add	a5, s6, s0
80000558: b3 84 a6 02                  	<unknown>
8000055c: 93 94 24 00                  	slli	s1, s1, 2
80000560: b3 8b 97 00                  	add	s7, a5, s1
80000564: 93 c7 f6 ff                  	not	a5, a3
80000568: 33 0d f5 00                  	add	s10, a0, a5
8000056c: b3 86 d5 00                  	add	a3, a1, a3
80000570: b3 86 c6 00                  	add	a3, a3, a2
80000574: 93 86 16 00                  	addi	a3, a3, 1
80000578: b3 06 d5 02                  	<unknown>
8000057c: 93 96 26 00                  	slli	a3, a3, 2
80000580: 33 89 86 00                  	add	s2, a3, s0
80000584: 93 14 25 00                  	slli	s1, a0, 2
80000588: 33 84 c5 00                  	add	s0, a1, a2
8000058c: 6f 00 40 01                  	j	20
80000590: 03 27 81 00                  	lw	a4, 8(sp)
80000594: 13 07 17 00                  	addi	a4, a4, 1
80000598: 03 25 41 00                  	lw	a0, 4(sp)
8000059c: 63 7c a7 04                  	bgeu	a4, a0, 88
800005a0: 23 24 e1 00                  	sw	a4, 8(sp)
800005a4: 93 0d 00 00                  	mv	s11, zero
800005a8: 6f 00 c0 00                  	j	12
800005ac: 93 8d 1d 00                  	addi	s11, s11, 1
800005b0: e3 f0 4d ff                  	bgeu	s11, s4, -32
800005b4: 93 0a 00 00                  	mv	s5, zero
800005b8: 13 0c 09 00                  	mv	s8, s2
800005bc: 6f 00 00 01                  	j	16
800005c0: 93 8a 1a 00                  	addi	s5, s5, 1
800005c4: 33 0c 9c 00                  	add	s8, s8, s1
800005c8: e3 f2 9a ff                  	bgeu	s5, s9, -28
800005cc: 33 05 54 01                  	add	a0, s0, s5
800005d0: e3 58 a5 ff                  	bge	a0, s10, -16
800005d4: 33 05 8b 01                  	add	a0, s6, s8
800005d8: 03 25 05 00                  	lw	a0, 0(a0)
800005dc: 83 a5 0b 00                  	lw	a1, 0(s7)
800005e0: 97 00 00 00                  	auipc	ra, 0
800005e4: e7 80 00 4e                  	jalr	1248(ra)
800005e8: b3 85 89 01                  	add	a1, s3, s8
800005ec: 23 a0 a5 00                  	sw	a0, 0(a1)
800005f0: 6f f0 1f fd                  	j	-48
800005f4: 83 2d c1 00                  	lw	s11, 12(sp)
800005f8: 03 2d 01 01                  	lw	s10, 16(sp)
800005fc: 83 2c 41 01                  	lw	s9, 20(sp)
80000600: 03 2c 81 01                  	lw	s8, 24(sp)
80000604: 83 2b c1 01                  	lw	s7, 28(sp)
80000608: 03 2b 01 02                  	lw	s6, 32(sp)
8000060c: 83 2a 41 02                  	lw	s5, 36(sp)
80000610: 03 2a 81 02                  	lw	s4, 40(sp)
80000614: 83 29 c1 02                  	lw	s3, 44(sp)
80000618: 03 29 01 03                  	lw	s2, 48(sp)
8000061c: 83 24 41 03                  	lw	s1, 52(sp)
80000620: 03 24 81 03                  	lw	s0, 56(sp)
80000624: 83 20 c1 03                  	lw	ra, 60(sp)
80000628: 13 01 01 04                  	addi	sp, sp, 64
8000062c: 67 80 00 00                  	ret

80000630 _exit:
80000630: 13 05 00 00                  	mv	a0, zero
80000634: 6b 00 05 00                  	<unknown>

80000638 vx_set_sp:
80000638: 73 25 50 02                  	csrr	a0, 37
8000063c: 6b 00 05 00                  	<unknown>
80000640: 97 11 00 00                  	auipc	gp, 1
80000644: 93 81 81 1c                  	addi	gp, gp, 456
80000648: f3 25 40 f1                  	csrr	a1, mhartid
8000064c: 93 95 a5 00                  	slli	a1, a1, 10
80000650: 73 26 00 02                  	csrr	a2, 32
80000654: 13 16 26 00                  	slli	a2, a2, 2
80000658: 37 f1 ff 6f                  	lui	sp, 458751
8000065c: 33 01 b1 40                  	sub	sp, sp, a1
80000660: 33 01 c1 00                  	add	sp, sp, a2
80000664: f3 26 10 02                  	csrr	a3, 33
80000668: 63 86 06 00                  	beqz	a3, 12
8000066c: 13 05 00 00                  	mv	a0, zero
80000670: 6b 00 05 00                  	<unknown>

80000674 RETURN:
80000674: 67 80 00 00                  	ret

80000678 vx_wspawn:
80000678: 6b 10 b5 00                  	<unknown>
8000067c: 67 80 00 00                  	ret

80000680 vx_tmc:
80000680: 6b 00 05 00                  	<unknown>
80000684: 67 80 00 00                  	ret

80000688 vx_barrier:
80000688: 6b 40 b5 00                  	<unknown>
8000068c: 67 80 00 00                  	ret

80000690 vx_split:
80000690: 6b 20 05 00                  	<unknown>
80000694: 67 80 00 00                  	ret

80000698 vx_join:
80000698: 6b 30 00 00                  	<unknown>
8000069c: 67 80 00 00                  	ret

800006a0 vx_warp_id:
800006a0: 73 25 10 02                  	csrr	a0, 33
800006a4: 67 80 00 00                  	ret

800006a8 vx_warp_gid:
800006a8: 73 25 30 02                  	csrr	a0, 35
800006ac: 67 80 00 00                  	ret

800006b0 vx_thread_id:
800006b0: 73 25 00 02                  	csrr	a0, 32
800006b4: 67 80 00 00                  	ret

800006b8 vx_thread_gid:
800006b8: 73 25 40 f1                  	csrr	a0, mhartid
800006bc: 67 80 00 00                  	ret

800006c0 vx_core_id:
800006c0: 73 25 40 02                  	csrr	a0, 36
800006c4: 67 80 00 00                  	ret

800006c8 vx_num_threads:
800006c8: 73 25 50 02                  	csrr	a0, 37
800006cc: 67 80 00 00                  	ret

800006d0 vx_num_warps:
800006d0: 73 25 60 02                  	csrr	a0, 38
800006d4: 67 80 00 00                  	ret

800006d8 vx_num_cores:
800006d8: 73 25 70 02                  	csrr	a0, 39
800006dc: 67 80 00 00                  	ret

800006e0 vx_num_cycles:
800006e0: 73 25 00 c0                  	rdcycle	a0
800006e4: 67 80 00 00                  	ret

800006e8 vx_num_instrs:
800006e8: 73 25 20 c0                  	rdinstret	a0
800006ec: 67 80 00 00                  	ret

800006f0 atexit:
800006f0: 93 05 05 00                  	mv	a1, a0
800006f4: 93 06 00 00                  	mv	a3, zero
800006f8: 13 06 00 00                  	mv	a2, zero
800006fc: 13 05 00 00                  	mv	a0, zero
80000700: 6f 00 80 20                  	j	520

80000704 exit:
80000704: 13 01 01 ff                  	addi	sp, sp, -16
80000708: 93 05 00 00                  	mv	a1, zero
8000070c: 23 24 81 00                  	sw	s0, 8(sp)
80000710: 23 26 11 00                  	sw	ra, 12(sp)
80000714: 13 04 05 00                  	mv	s0, a0
80000718: ef 00 80 28                  	jal	648
8000071c: 03 a5 81 c2                  	lw	a0, -984(gp)
80000720: 83 27 c5 03                  	lw	a5, 60(a0)
80000724: 63 84 07 00                  	beqz	a5, 8
80000728: e7 80 07 00                  	jalr	a5
8000072c: 13 05 04 00                  	mv	a0, s0
80000730: ef f0 1f f0                  	jal	-256

80000734 __libc_fini_array:
80000734: 13 01 01 ff                  	addi	sp, sp, -16
80000738: 23 24 81 00                  	sw	s0, 8(sp)
8000073c: b7 17 00 80                  	lui	a5, 524289
80000740: 37 14 00 80                  	lui	s0, 524289
80000744: 13 04 44 00                  	addi	s0, s0, 4
80000748: 93 87 47 00                  	addi	a5, a5, 4
8000074c: b3 87 87 40                  	sub	a5, a5, s0
80000750: 23 22 91 00                  	sw	s1, 4(sp)
80000754: 23 26 11 00                  	sw	ra, 12(sp)
80000758: 93 d4 27 40                  	srai	s1, a5, 2
8000075c: 63 80 04 02                  	beqz	s1, 32
80000760: 93 87 c7 ff                  	addi	a5, a5, -4
80000764: 33 84 87 00                  	add	s0, a5, s0
80000768: 83 27 04 00                  	lw	a5, 0(s0)
8000076c: 93 84 f4 ff                  	addi	s1, s1, -1
80000770: 13 04 c4 ff                  	addi	s0, s0, -4
80000774: e7 80 07 00                  	jalr	a5
80000778: e3 98 04 fe                  	bnez	s1, -16
8000077c: 83 20 c1 00                  	lw	ra, 12(sp)
80000780: 03 24 81 00                  	lw	s0, 8(sp)
80000784: 83 24 41 00                  	lw	s1, 4(sp)
80000788: 13 01 01 01                  	addi	sp, sp, 16
8000078c: 67 80 00 00                  	ret

80000790 __libc_init_array:
80000790: 13 01 01 ff                  	addi	sp, sp, -16
80000794: 23 24 81 00                  	sw	s0, 8(sp)
80000798: 23 20 21 01                  	sw	s2, 0(sp)
8000079c: 37 14 00 80                  	lui	s0, 524289
800007a0: 37 19 00 80                  	lui	s2, 524289
800007a4: 93 07 04 00                  	mv	a5, s0
800007a8: 13 09 09 00                  	mv	s2, s2
800007ac: 33 09 f9 40                  	sub	s2, s2, a5
800007b0: 23 26 11 00                  	sw	ra, 12(sp)
800007b4: 23 22 91 00                  	sw	s1, 4(sp)
800007b8: 13 59 29 40                  	srai	s2, s2, 2
800007bc: 63 00 09 02                  	beqz	s2, 32
800007c0: 13 04 04 00                  	mv	s0, s0
800007c4: 93 04 00 00                  	mv	s1, zero
800007c8: 83 27 04 00                  	lw	a5, 0(s0)
800007cc: 93 84 14 00                  	addi	s1, s1, 1
800007d0: 13 04 44 00                  	addi	s0, s0, 4
800007d4: e7 80 07 00                  	jalr	a5
800007d8: e3 18 99 fe                  	bne	s2, s1, -16
800007dc: 37 14 00 80                  	lui	s0, 524289
800007e0: 37 19 00 80                  	lui	s2, 524289
800007e4: 93 07 04 00                  	mv	a5, s0
800007e8: 13 09 49 00                  	addi	s2, s2, 4
800007ec: 33 09 f9 40                  	sub	s2, s2, a5
800007f0: 13 59 29 40                  	srai	s2, s2, 2
800007f4: 63 00 09 02                  	beqz	s2, 32
800007f8: 13 04 04 00                  	mv	s0, s0
800007fc: 93 04 00 00                  	mv	s1, zero
80000800: 83 27 04 00                  	lw	a5, 0(s0)
80000804: 93 84 14 00                  	addi	s1, s1, 1
80000808: 13 04 44 00                  	addi	s0, s0, 4
8000080c: e7 80 07 00                  	jalr	a5
80000810: e3 18 99 fe                  	bne	s2, s1, -16
80000814: 83 20 c1 00                  	lw	ra, 12(sp)
80000818: 03 24 81 00                  	lw	s0, 8(sp)
8000081c: 83 24 41 00                  	lw	s1, 4(sp)
80000820: 03 29 01 00                  	lw	s2, 0(sp)
80000824: 13 01 01 01                  	addi	sp, sp, 16
80000828: 67 80 00 00                  	ret

8000082c memset:
8000082c: 13 03 f0 00                  	addi	t1, zero, 15
80000830: 13 07 05 00                  	mv	a4, a0
80000834: 63 7e c3 02                  	bgeu	t1, a2, 60
80000838: 93 77 f7 00                  	andi	a5, a4, 15
8000083c: 63 90 07 0a                  	bnez	a5, 160
80000840: 63 92 05 08                  	bnez	a1, 132
80000844: 93 76 06 ff                  	andi	a3, a2, -16
80000848: 13 76 f6 00                  	andi	a2, a2, 15
8000084c: b3 86 e6 00                  	add	a3, a3, a4
80000850: 23 20 b7 00                  	sw	a1, 0(a4)
80000854: 23 22 b7 00                  	sw	a1, 4(a4)
80000858: 23 24 b7 00                  	sw	a1, 8(a4)
8000085c: 23 26 b7 00                  	sw	a1, 12(a4)
80000860: 13 07 07 01                  	addi	a4, a4, 16
80000864: e3 66 d7 fe                  	bltu	a4, a3, -20
80000868: 63 14 06 00                  	bnez	a2, 8
8000086c: 67 80 00 00                  	ret
80000870: b3 06 c3 40                  	sub	a3, t1, a2
80000874: 93 96 26 00                  	slli	a3, a3, 2
80000878: 97 02 00 00                  	auipc	t0, 0
8000087c: b3 86 56 00                  	add	a3, a3, t0
80000880: 67 80 c6 00                  	jr	12(a3)
80000884: 23 07 b7 00                  	sb	a1, 14(a4)
80000888: a3 06 b7 00                  	sb	a1, 13(a4)
8000088c: 23 06 b7 00                  	sb	a1, 12(a4)
80000890: a3 05 b7 00                  	sb	a1, 11(a4)
80000894: 23 05 b7 00                  	sb	a1, 10(a4)
80000898: a3 04 b7 00                  	sb	a1, 9(a4)
8000089c: 23 04 b7 00                  	sb	a1, 8(a4)
800008a0: a3 03 b7 00                  	sb	a1, 7(a4)
800008a4: 23 03 b7 00                  	sb	a1, 6(a4)
800008a8: a3 02 b7 00                  	sb	a1, 5(a4)
800008ac: 23 02 b7 00                  	sb	a1, 4(a4)
800008b0: a3 01 b7 00                  	sb	a1, 3(a4)
800008b4: 23 01 b7 00                  	sb	a1, 2(a4)
800008b8: a3 00 b7 00                  	sb	a1, 1(a4)
800008bc: 23 00 b7 00                  	sb	a1, 0(a4)
800008c0: 67 80 00 00                  	ret
800008c4: 93 f5 f5 0f                  	andi	a1, a1, 255
800008c8: 93 96 85 00                  	slli	a3, a1, 8
800008cc: b3 e5 d5 00                  	or	a1, a1, a3
800008d0: 93 96 05 01                  	slli	a3, a1, 16
800008d4: b3 e5 d5 00                  	or	a1, a1, a3
800008d8: 6f f0 df f6                  	j	-148
800008dc: 93 96 27 00                  	slli	a3, a5, 2
800008e0: 97 02 00 00                  	auipc	t0, 0
800008e4: b3 86 56 00                  	add	a3, a3, t0
800008e8: 93 82 00 00                  	mv	t0, ra
800008ec: e7 80 06 fa                  	jalr	-96(a3)
800008f0: 93 80 02 00                  	mv	ra, t0
800008f4: 93 87 07 ff                  	addi	a5, a5, -16
800008f8: 33 07 f7 40                  	sub	a4, a4, a5
800008fc: 33 06 f6 00                  	add	a2, a2, a5
80000900: e3 78 c3 f6                  	bgeu	t1, a2, -144
80000904: 6f f0 df f3                  	j	-196

80000908 __register_exitproc:
80000908: 03 a7 81 c2                  	lw	a4, -984(gp)
8000090c: 83 27 87 14                  	lw	a5, 328(a4)
80000910: 63 8c 07 04                  	beqz	a5, 88
80000914: 03 a7 47 00                  	lw	a4, 4(a5)
80000918: 13 08 f0 01                  	addi	a6, zero, 31
8000091c: 63 4e e8 06                  	blt	a6, a4, 124
80000920: 13 18 27 00                  	slli	a6, a4, 2
80000924: 63 06 05 02                  	beqz	a0, 44
80000928: 33 83 07 01                  	add	t1, a5, a6
8000092c: 23 24 c3 08                  	sw	a2, 136(t1)
80000930: 83 a8 87 18                  	lw	a7, 392(a5)
80000934: 13 06 10 00                  	addi	a2, zero, 1
80000938: 33 16 e6 00                  	sll	a2, a2, a4
8000093c: b3 e8 c8 00                  	or	a7, a7, a2
80000940: 23 a4 17 19                  	sw	a7, 392(a5)
80000944: 23 24 d3 10                  	sw	a3, 264(t1)
80000948: 93 06 20 00                  	addi	a3, zero, 2
8000094c: 63 04 d5 02                  	beq	a0, a3, 40
80000950: 13 07 17 00                  	addi	a4, a4, 1
80000954: 23 a2 e7 00                  	sw	a4, 4(a5)
80000958: b3 87 07 01                  	add	a5, a5, a6
8000095c: 23 a4 b7 00                  	sw	a1, 8(a5)
80000960: 13 05 00 00                  	mv	a0, zero
80000964: 67 80 00 00                  	ret
80000968: 93 07 c7 14                  	addi	a5, a4, 332
8000096c: 23 24 f7 14                  	sw	a5, 328(a4)
80000970: 6f f0 5f fa                  	j	-92
80000974: 83 a6 c7 18                  	lw	a3, 396(a5)
80000978: 13 07 17 00                  	addi	a4, a4, 1
8000097c: 23 a2 e7 00                  	sw	a4, 4(a5)
80000980: 33 e6 c6 00                  	or	a2, a3, a2
80000984: 23 a6 c7 18                  	sw	a2, 396(a5)
80000988: b3 87 07 01                  	add	a5, a5, a6
8000098c: 23 a4 b7 00                  	sw	a1, 8(a5)
80000990: 13 05 00 00                  	mv	a0, zero
80000994: 67 80 00 00                  	ret
80000998: 13 05 f0 ff                  	addi	a0, zero, -1
8000099c: 67 80 00 00                  	ret

800009a0 __call_exitprocs:
800009a0: 13 01 01 fd                  	addi	sp, sp, -48
800009a4: 23 2c 41 01                  	sw	s4, 24(sp)
800009a8: 03 aa 81 c2                  	lw	s4, -984(gp)
800009ac: 23 20 21 03                  	sw	s2, 32(sp)
800009b0: 23 26 11 02                  	sw	ra, 44(sp)
800009b4: 03 29 8a 14                  	lw	s2, 328(s4)
800009b8: 23 24 81 02                  	sw	s0, 40(sp)
800009bc: 23 22 91 02                  	sw	s1, 36(sp)
800009c0: 23 2e 31 01                  	sw	s3, 28(sp)
800009c4: 23 2a 51 01                  	sw	s5, 20(sp)
800009c8: 23 28 61 01                  	sw	s6, 16(sp)
800009cc: 23 26 71 01                  	sw	s7, 12(sp)
800009d0: 23 24 81 01                  	sw	s8, 8(sp)
800009d4: 63 00 09 04                  	beqz	s2, 64
800009d8: 13 0b 05 00                  	mv	s6, a0
800009dc: 93 8b 05 00                  	mv	s7, a1
800009e0: 93 0a 10 00                  	addi	s5, zero, 1
800009e4: 93 09 f0 ff                  	addi	s3, zero, -1
800009e8: 83 24 49 00                  	lw	s1, 4(s2)
800009ec: 13 84 f4 ff                  	addi	s0, s1, -1
800009f0: 63 42 04 02                  	bltz	s0, 36
800009f4: 93 94 24 00                  	slli	s1, s1, 2
800009f8: b3 04 99 00                  	add	s1, s2, s1
800009fc: 63 84 0b 04                  	beqz	s7, 72
80000a00: 83 a7 44 10                  	lw	a5, 260(s1)
80000a04: 63 80 77 05                  	beq	a5, s7, 64
80000a08: 13 04 f4 ff                  	addi	s0, s0, -1
80000a0c: 93 84 c4 ff                  	addi	s1, s1, -4
80000a10: e3 16 34 ff                  	bne	s0, s3, -20
80000a14: 83 20 c1 02                  	lw	ra, 44(sp)
80000a18: 03 24 81 02                  	lw	s0, 40(sp)
80000a1c: 83 24 41 02                  	lw	s1, 36(sp)
80000a20: 03 29 01 02                  	lw	s2, 32(sp)
80000a24: 83 29 c1 01                  	lw	s3, 28(sp)
80000a28: 03 2a 81 01                  	lw	s4, 24(sp)
80000a2c: 83 2a 41 01                  	lw	s5, 20(sp)
80000a30: 03 2b 01 01                  	lw	s6, 16(sp)
80000a34: 83 2b c1 00                  	lw	s7, 12(sp)
80000a38: 03 2c 81 00                  	lw	s8, 8(sp)
80000a3c: 13 01 01 03                  	addi	sp, sp, 48
80000a40: 67 80 00 00                  	ret
80000a44: 83 27 49 00                  	lw	a5, 4(s2)
80000a48: 83 a6 44 00                  	lw	a3, 4(s1)
80000a4c: 93 87 f7 ff                  	addi	a5, a5, -1
80000a50: 63 8e 87 04                  	beq	a5, s0, 92
80000a54: 23 a2 04 00                  	sw	zero, 4(s1)
80000a58: e3 88 06 fa                  	beqz	a3, -80
80000a5c: 83 27 89 18                  	lw	a5, 392(s2)
80000a60: 33 97 8a 00                  	sll	a4, s5, s0
80000a64: 03 2c 49 00                  	lw	s8, 4(s2)
80000a68: b3 77 f7 00                  	and	a5, a4, a5
80000a6c: 63 92 07 02                  	bnez	a5, 36
80000a70: e7 80 06 00                  	jalr	a3
80000a74: 03 27 49 00                  	lw	a4, 4(s2)
80000a78: 83 27 8a 14                  	lw	a5, 328(s4)
80000a7c: 63 14 87 01                  	bne	a4, s8, 8
80000a80: e3 04 f9 f8                  	beq	s2, a5, -120
80000a84: e3 88 07 f8                  	beqz	a5, -112
80000a88: 13 89 07 00                  	mv	s2, a5
80000a8c: 6f f0 df f5                  	j	-164
80000a90: 83 27 c9 18                  	lw	a5, 396(s2)
80000a94: 83 a5 44 08                  	lw	a1, 132(s1)
80000a98: 33 77 f7 00                  	and	a4, a4, a5
80000a9c: 63 1c 07 00                  	bnez	a4, 24
80000aa0: 13 05 0b 00                  	mv	a0, s6
80000aa4: e7 80 06 00                  	jalr	a3
80000aa8: 6f f0 df fc                  	j	-52
80000aac: 23 22 89 00                  	sw	s0, 4(s2)
80000ab0: 6f f0 9f fa                  	j	-88
80000ab4: 13 85 05 00                  	mv	a0, a1
80000ab8: e7 80 06 00                  	jalr	a3
80000abc: 6f f0 9f fb                  	j	-72

80000ac0 __divsf3:
80000ac0: 13 01 01 fe                  	addi	sp, sp, -32
80000ac4: 23 2a 91 00                  	sw	s1, 20(sp)
80000ac8: 93 54 75 01                  	srli	s1, a0, 23
80000acc: 23 28 21 01                  	sw	s2, 16(sp)
80000ad0: 23 26 31 01                  	sw	s3, 12(sp)
80000ad4: 23 24 41 01                  	sw	s4, 8(sp)
80000ad8: 93 19 95 00                  	slli	s3, a0, 9
80000adc: 23 2e 11 00                  	sw	ra, 28(sp)
80000ae0: 23 2c 81 00                  	sw	s0, 24(sp)
80000ae4: 23 22 51 01                  	sw	s5, 4(sp)
80000ae8: 93 f4 f4 0f                  	andi	s1, s1, 255
80000aec: 13 8a 05 00                  	mv	s4, a1
80000af0: 93 d9 99 00                  	srli	s3, s3, 9
80000af4: 13 59 f5 01                  	srli	s2, a0, 31
80000af8: 63 84 04 08                  	beqz	s1, 136
80000afc: 93 07 f0 0f                  	addi	a5, zero, 255
80000b00: 63 80 f4 0a                  	beq	s1, a5, 160
80000b04: 93 99 39 00                  	slli	s3, s3, 3
80000b08: b7 07 00 04                  	lui	a5, 16384
80000b0c: b3 e9 f9 00                  	or	s3, s3, a5
80000b10: 93 84 14 f8                  	addi	s1, s1, -127
80000b14: 93 0a 00 00                  	mv	s5, zero
80000b18: 93 57 7a 01                  	srli	a5, s4, 23
80000b1c: 13 14 9a 00                  	slli	s0, s4, 9
80000b20: 93 f7 f7 0f                  	andi	a5, a5, 255
80000b24: 13 54 94 00                  	srli	s0, s0, 9
80000b28: 13 5a fa 01                  	srli	s4, s4, 31
80000b2c: 63 8a 07 08                  	beqz	a5, 148
80000b30: 13 07 f0 0f                  	addi	a4, zero, 255
80000b34: 63 86 e7 0a                  	beq	a5, a4, 172
80000b38: 13 14 34 00                  	slli	s0, s0, 3
80000b3c: 37 07 00 04                  	lui	a4, 16384
80000b40: 33 64 e4 00                  	or	s0, s0, a4
80000b44: 93 87 17 f8                  	addi	a5, a5, -127
80000b48: 93 06 00 00                  	mv	a3, zero
80000b4c: 13 96 2a 00                  	slli	a2, s5, 2
80000b50: 33 66 d6 00                  	or	a2, a2, a3
80000b54: b3 84 f4 40                  	sub	s1, s1, a5
80000b58: 13 06 f6 ff                  	addi	a2, a2, -1
80000b5c: 93 07 e0 00                  	addi	a5, zero, 14
80000b60: 33 45 49 01                  	xor	a0, s2, s4
80000b64: 63 ee c7 08                  	bltu	a5, a2, 156
80000b68: b7 17 00 80                  	lui	a5, 524289
80000b6c: 93 87 87 e3                  	addi	a5, a5, -456
80000b70: 13 16 26 00                  	slli	a2, a2, 2
80000b74: 33 06 f6 00                  	add	a2, a2, a5
80000b78: 83 27 06 00                  	lw	a5, 0(a2)
80000b7c: 67 80 07 00                  	jr	a5
80000b80: 63 8a 09 02                  	beqz	s3, 52
80000b84: 13 85 09 00                  	mv	a0, s3
80000b88: ef 00 40 26                  	jal	612
80000b8c: 93 07 b5 ff                  	addi	a5, a0, -5
80000b90: 93 04 a0 f8                  	addi	s1, zero, -118
80000b94: b3 99 f9 00                  	sll	s3, s3, a5
80000b98: b3 84 a4 40                  	sub	s1, s1, a0
80000b9c: 6f f0 9f f7                  	j	-136
80000ba0: 93 04 f0 0f                  	addi	s1, zero, 255
80000ba4: 93 0a 20 00                  	addi	s5, zero, 2
80000ba8: e3 88 09 f6                  	beqz	s3, -144
80000bac: 93 0a 30 00                  	addi	s5, zero, 3
80000bb0: 6f f0 9f f6                  	j	-152
80000bb4: 93 04 00 00                  	mv	s1, zero
80000bb8: 93 0a 10 00                  	addi	s5, zero, 1
80000bbc: 6f f0 df f5                  	j	-164
80000bc0: 63 0a 04 02                  	beqz	s0, 52
80000bc4: 13 05 04 00                  	mv	a0, s0
80000bc8: ef 00 40 22                  	jal	548
80000bcc: 93 07 b5 ff                  	addi	a5, a0, -5
80000bd0: 33 14 f4 00                  	sll	s0, s0, a5
80000bd4: 93 07 a0 f8                  	addi	a5, zero, -118
80000bd8: b3 87 a7 40                  	sub	a5, a5, a0
80000bdc: 6f f0 df f6                  	j	-148
80000be0: 93 07 f0 0f                  	addi	a5, zero, 255
80000be4: 93 06 20 00                  	addi	a3, zero, 2
80000be8: e3 02 04 f6                  	beqz	s0, -156
80000bec: 93 06 30 00                  	addi	a3, zero, 3
80000bf0: 6f f0 df f5                  	j	-164
80000bf4: 93 07 00 00                  	mv	a5, zero
80000bf8: 93 06 10 00                  	addi	a3, zero, 1
80000bfc: 6f f0 1f f5                  	j	-176
80000c00: 93 15 54 00                  	slli	a1, s0, 5
80000c04: 63 f2 89 12                  	bgeu	s3, s0, 292
80000c08: 93 84 f4 ff                  	addi	s1, s1, -1
80000c0c: 93 06 00 00                  	mv	a3, zero
80000c10: 13 d4 05 01                  	srli	s0, a1, 16
80000c14: b3 d8 89 02                  	<unknown>
80000c18: b7 07 01 00                  	lui	a5, 16
80000c1c: 93 87 f7 ff                  	addi	a5, a5, -1
80000c20: b3 f7 f5 00                  	and	a5, a1, a5
80000c24: 93 d6 06 01                  	srli	a3, a3, 16
80000c28: 33 f7 89 02                  	<unknown>
80000c2c: 13 86 08 00                  	mv	a2, a7
80000c30: 33 88 17 03                  	<unknown>
80000c34: 13 17 07 01                  	slli	a4, a4, 16
80000c38: 33 e7 e6 00                  	or	a4, a3, a4
80000c3c: 63 7e 07 01                  	bgeu	a4, a6, 28
80000c40: 33 07 b7 00                  	add	a4, a4, a1
80000c44: 13 86 f8 ff                  	addi	a2, a7, -1
80000c48: 63 68 b7 00                  	bltu	a4, a1, 16
80000c4c: 63 76 07 01                  	bgeu	a4, a6, 12
80000c50: 13 86 e8 ff                  	addi	a2, a7, -2
80000c54: 33 07 b7 00                  	add	a4, a4, a1
80000c58: 33 07 07 41                  	sub	a4, a4, a6
80000c5c: 33 58 87 02                  	<unknown>
80000c60: 33 77 87 02                  	<unknown>
80000c64: b3 86 07 03                  	<unknown>
80000c68: 93 17 07 01                  	slli	a5, a4, 16
80000c6c: 13 07 08 00                  	mv	a4, a6
80000c70: 63 fe d7 00                  	bgeu	a5, a3, 28
80000c74: b3 87 b7 00                  	add	a5, a5, a1
80000c78: 13 07 f8 ff                  	addi	a4, a6, -1
80000c7c: 63 e8 b7 00                  	bltu	a5, a1, 16
80000c80: 63 f6 d7 00                  	bgeu	a5, a3, 12
80000c84: 13 07 e8 ff                  	addi	a4, a6, -2
80000c88: b3 87 b7 00                  	add	a5, a5, a1
80000c8c: 13 14 06 01                  	slli	s0, a2, 16
80000c90: b3 87 d7 40                  	sub	a5, a5, a3
80000c94: 33 64 e4 00                  	or	s0, s0, a4
80000c98: b3 37 f0 00                  	snez	a5, a5
80000c9c: 33 64 f4 00                  	or	s0, s0, a5
80000ca0: 13 87 f4 07                  	addi	a4, s1, 127
80000ca4: 63 5c e0 0c                  	blez	a4, 216
80000ca8: 93 77 74 00                  	andi	a5, s0, 7
80000cac: 63 8a 07 00                  	beqz	a5, 20
80000cb0: 93 77 f4 00                  	andi	a5, s0, 15
80000cb4: 93 06 40 00                  	addi	a3, zero, 4
80000cb8: 63 84 d7 00                  	beq	a5, a3, 8
80000cbc: 13 04 44 00                  	addi	s0, s0, 4
80000cc0: 93 17 44 00                  	slli	a5, s0, 4
80000cc4: 63 da 07 00                  	bgez	a5, 20
80000cc8: b7 07 00 f8                  	lui	a5, 1015808
80000ccc: 93 87 f7 ff                  	addi	a5, a5, -1
80000cd0: 33 74 f4 00                  	and	s0, s0, a5
80000cd4: 13 87 04 08                  	addi	a4, s1, 128
80000cd8: 93 07 e0 0f                  	addi	a5, zero, 254
80000cdc: 13 54 34 00                  	srli	s0, s0, 3
80000ce0: 63 cc e7 06                  	blt	a5, a4, 120
80000ce4: 13 17 77 01                  	slli	a4, a4, 23
80000ce8: b7 07 80 7f                  	lui	a5, 522240
80000cec: 13 14 94 00                  	slli	s0, s0, 9
80000cf0: 33 77 f7 00                  	and	a4, a4, a5
80000cf4: 13 54 94 00                  	srli	s0, s0, 9
80000cf8: 33 64 87 00                  	or	s0, a4, s0
80000cfc: 13 15 f5 01                  	slli	a0, a0, 31
80000d00: 83 20 c1 01                  	lw	ra, 28(sp)
80000d04: 33 65 a4 00                  	or	a0, s0, a0
80000d08: 03 24 81 01                  	lw	s0, 24(sp)
80000d0c: 83 24 41 01                  	lw	s1, 20(sp)
80000d10: 03 29 01 01                  	lw	s2, 16(sp)
80000d14: 83 29 c1 00                  	lw	s3, 12(sp)
80000d18: 03 2a 81 00                  	lw	s4, 8(sp)
80000d1c: 83 2a 41 00                  	lw	s5, 4(sp)
80000d20: 13 01 01 02                  	addi	sp, sp, 32
80000d24: 67 80 00 00                  	ret
80000d28: 93 96 f9 01                  	slli	a3, s3, 31
80000d2c: 93 d9 19 00                  	srli	s3, s3, 1
80000d30: 6f f0 1f ee                  	j	-288
80000d34: 13 05 09 00                  	mv	a0, s2
80000d38: 13 84 09 00                  	mv	s0, s3
80000d3c: 93 86 0a 00                  	mv	a3, s5
80000d40: 93 07 30 00                  	addi	a5, zero, 3
80000d44: 63 86 f6 08                  	beq	a3, a5, 140
80000d48: 93 07 10 00                  	addi	a5, zero, 1
80000d4c: 63 8a f6 08                  	beq	a3, a5, 148
80000d50: 93 07 20 00                  	addi	a5, zero, 2
80000d54: e3 96 f6 f4                  	bne	a3, a5, -180
80000d58: 13 04 00 00                  	mv	s0, zero
80000d5c: 13 07 f0 0f                  	addi	a4, zero, 255
80000d60: 6f f0 5f f8                  	j	-124
80000d64: 13 05 0a 00                  	mv	a0, s4
80000d68: 6f f0 9f fd                  	j	-40
80000d6c: 37 04 40 00                  	lui	s0, 1024
80000d70: 13 05 00 00                  	mv	a0, zero
80000d74: 93 06 30 00                  	addi	a3, zero, 3
80000d78: 6f f0 9f fc                  	j	-56
80000d7c: 93 07 10 00                  	addi	a5, zero, 1
80000d80: b3 87 e7 40                  	sub	a5, a5, a4
80000d84: 13 07 b0 01                  	addi	a4, zero, 27
80000d88: 63 4c f7 04                  	blt	a4, a5, 88
80000d8c: 93 84 e4 09                  	addi	s1, s1, 158
80000d90: b3 57 f4 00                  	srl	a5, s0, a5
80000d94: 33 14 94 00                  	sll	s0, s0, s1
80000d98: 33 34 80 00                  	snez	s0, s0
80000d9c: 33 e4 87 00                  	or	s0, a5, s0
80000da0: 93 77 74 00                  	andi	a5, s0, 7
80000da4: 63 8a 07 00                  	beqz	a5, 20
80000da8: 93 77 f4 00                  	andi	a5, s0, 15
80000dac: 13 07 40 00                  	addi	a4, zero, 4
80000db0: 63 84 e7 00                  	beq	a5, a4, 8
80000db4: 13 04 44 00                  	addi	s0, s0, 4
80000db8: 93 17 54 00                  	slli	a5, s0, 5
80000dbc: 13 54 34 00                  	srli	s0, s0, 3
80000dc0: 63 d2 07 02                  	bgez	a5, 36
80000dc4: 13 04 00 00                  	mv	s0, zero
80000dc8: 13 07 10 00                  	addi	a4, zero, 1
80000dcc: 6f f0 9f f1                  	j	-232
80000dd0: 37 04 40 00                  	lui	s0, 1024
80000dd4: 13 07 f0 0f                  	addi	a4, zero, 255
80000dd8: 13 05 00 00                  	mv	a0, zero
80000ddc: 6f f0 9f f0                  	j	-248
80000de0: 13 04 00 00                  	mv	s0, zero
80000de4: 13 07 00 00                  	mv	a4, zero
80000de8: 6f f0 df ef                  	j	-260

80000dec __clzsi2:
80000dec: b7 07 01 00                  	lui	a5, 16
80000df0: 63 7a f5 02                  	bgeu	a0, a5, 52
80000df4: 93 07 f0 0f                  	addi	a5, zero, 255
80000df8: b3 b7 a7 00                  	sltu	a5, a5, a0
80000dfc: 93 97 37 00                  	slli	a5, a5, 3
80000e00: 37 17 00 80                  	lui	a4, 524289
80000e04: 93 06 00 02                  	addi	a3, zero, 32
80000e08: b3 86 f6 40                  	sub	a3, a3, a5
80000e0c: 33 55 f5 00                  	srl	a0, a0, a5
80000e10: 93 07 47 e7                  	addi	a5, a4, -396
80000e14: 33 85 a7 00                  	add	a0, a5, a0
80000e18: 03 45 05 00                  	lbu	a0, 0(a0)
80000e1c: 33 85 a6 40                  	sub	a0, a3, a0
80000e20: 67 80 00 00                  	ret
80000e24: 37 07 00 01                  	lui	a4, 4096
80000e28: 93 07 00 01                  	addi	a5, zero, 16
80000e2c: e3 6a e5 fc                  	bltu	a0, a4, -44
80000e30: 93 07 80 01                  	addi	a5, zero, 24
80000e34: 6f f0 df fc                  	j	-52

Disassembly of section .rodata:

80000e38 .rodata:
80000e38: 58 0d                        	<unknown>
80000e3a: 00 80                        	<unknown>
80000e3c: e0 0d                        	<unknown>
80000e3e: 00 80                        	<unknown>
80000e40: 64 0d                        	<unknown>
80000e42: 00 80                        	<unknown>
80000e44: e0 0d                        	<unknown>
80000e46: 00 80                        	<unknown>
80000e48: d0 0d                        	<unknown>
80000e4a: 00 80                        	<unknown>
80000e4c: e0 0d                        	<unknown>
80000e4e: 00 80                        	<unknown>
80000e50: 64 0d                        	<unknown>
80000e52: 00 80                        	<unknown>
80000e54: 58 0d                        	<unknown>
80000e56: 00 80                        	<unknown>
80000e58: 58 0d                        	<unknown>
80000e5a: 00 80                        	<unknown>
80000e5c: d0 0d                        	<unknown>
80000e5e: 00 80                        	<unknown>
80000e60: 64 0d                        	<unknown>
80000e62: 00 80                        	<unknown>
80000e64: 34 0d                        	<unknown>
80000e66: 00 80                        	<unknown>
80000e68: 34 0d                        	<unknown>
80000e6a: 00 80                        	<unknown>
80000e6c: 34 0d                        	<unknown>
80000e6e: 00 80                        	<unknown>
80000e70: 6c 0d                        	<unknown>
80000e72: 00 80                        	<unknown>

80000e74 __clz_tab:
80000e74: 00 01                        	<unknown>
80000e76: 02 02                        	<unknown>
80000e78: 03 03 03 03                  	lb	t1, 48(t1)
80000e7c: 04 04                        	<unknown>
80000e7e: 04 04                        	<unknown>
80000e80: 04 04                        	<unknown>
80000e82: 04 04                        	<unknown>
80000e84: 05 05                        	<unknown>
80000e86: 05 05                        	<unknown>
80000e88: 05 05                        	<unknown>
80000e8a: 05 05                        	<unknown>
80000e8c: 05 05                        	<unknown>
80000e8e: 05 05                        	<unknown>
80000e90: 05 05                        	<unknown>
80000e92: 05 05                        	<unknown>
80000e94: 06 06                        	<unknown>
80000e96: 06 06                        	<unknown>
80000e98: 06 06                        	<unknown>
80000e9a: 06 06                        	<unknown>
80000e9c: 06 06                        	<unknown>
80000e9e: 06 06                        	<unknown>
80000ea0: 06 06                        	<unknown>
80000ea2: 06 06                        	<unknown>
80000ea4: 06 06                        	<unknown>
80000ea6: 06 06                        	<unknown>
80000ea8: 06 06                        	<unknown>
80000eaa: 06 06                        	<unknown>
80000eac: 06 06                        	<unknown>
80000eae: 06 06                        	<unknown>
80000eb0: 06 06                        	<unknown>
80000eb2: 06 06                        	<unknown>
80000eb4: 07 07 07 07                  	<unknown>
80000eb8: 07 07 07 07                  	<unknown>
80000ebc: 07 07 07 07                  	<unknown>
80000ec0: 07 07 07 07                  	<unknown>
80000ec4: 07 07 07 07                  	<unknown>
80000ec8: 07 07 07 07                  	<unknown>
80000ecc: 07 07 07 07                  	<unknown>
80000ed0: 07 07 07 07                  	<unknown>
80000ed4: 07 07 07 07                  	<unknown>
80000ed8: 07 07 07 07                  	<unknown>
80000edc: 07 07 07 07                  	<unknown>
80000ee0: 07 07 07 07                  	<unknown>
80000ee4: 07 07 07 07                  	<unknown>
80000ee8: 07 07 07 07                  	<unknown>
80000eec: 07 07 07 07                  	<unknown>
80000ef0: 07 07 07 07                  	<unknown>
80000ef4: 08 08                        	<unknown>
80000ef6: 08 08                        	<unknown>
80000ef8: 08 08                        	<unknown>
80000efa: 08 08                        	<unknown>
80000efc: 08 08                        	<unknown>
80000efe: 08 08                        	<unknown>
80000f00: 08 08                        	<unknown>
80000f02: 08 08                        	<unknown>
80000f04: 08 08                        	<unknown>
80000f06: 08 08                        	<unknown>
80000f08: 08 08                        	<unknown>
80000f0a: 08 08                        	<unknown>
80000f0c: 08 08                        	<unknown>
80000f0e: 08 08                        	<unknown>
80000f10: 08 08                        	<unknown>
80000f12: 08 08                        	<unknown>
80000f14: 08 08                        	<unknown>
80000f16: 08 08                        	<unknown>
80000f18: 08 08                        	<unknown>
80000f1a: 08 08                        	<unknown>
80000f1c: 08 08                        	<unknown>
80000f1e: 08 08                        	<unknown>
80000f20: 08 08                        	<unknown>
80000f22: 08 08                        	<unknown>
80000f24: 08 08                        	<unknown>
80000f26: 08 08                        	<unknown>
80000f28: 08 08                        	<unknown>
80000f2a: 08 08                        	<unknown>
80000f2c: 08 08                        	<unknown>
80000f2e: 08 08                        	<unknown>
80000f30: 08 08                        	<unknown>
80000f32: 08 08                        	<unknown>
80000f34: 08 08                        	<unknown>
80000f36: 08 08                        	<unknown>
80000f38: 08 08                        	<unknown>
80000f3a: 08 08                        	<unknown>
80000f3c: 08 08                        	<unknown>
80000f3e: 08 08                        	<unknown>
80000f40: 08 08                        	<unknown>
80000f42: 08 08                        	<unknown>
80000f44: 08 08                        	<unknown>
80000f46: 08 08                        	<unknown>
80000f48: 08 08                        	<unknown>
80000f4a: 08 08                        	<unknown>
80000f4c: 08 08                        	<unknown>
80000f4e: 08 08                        	<unknown>
80000f50: 08 08                        	<unknown>
80000f52: 08 08                        	<unknown>
80000f54: 08 08                        	<unknown>
80000f56: 08 08                        	<unknown>
80000f58: 08 08                        	<unknown>
80000f5a: 08 08                        	<unknown>
80000f5c: 08 08                        	<unknown>
80000f5e: 08 08                        	<unknown>
80000f60: 08 08                        	<unknown>
80000f62: 08 08                        	<unknown>
80000f64: 08 08                        	<unknown>
80000f66: 08 08                        	<unknown>
80000f68: 08 08                        	<unknown>
80000f6a: 08 08                        	<unknown>
80000f6c: 08 08                        	<unknown>
80000f6e: 08 08                        	<unknown>
80000f70: 08 08                        	<unknown>
80000f72: 08 08                        	<unknown>

Disassembly of section .init_array:

80001000 __preinit_array_start:
80001000: 48 00                        	<unknown>
80001002: 00 80                        	<unknown>

Disassembly of section .data:

80001008 impure_data:
80001008: 00 00                        	<unknown>
8000100a: 00 00                        	<unknown>
8000100c: f4 12                        	<unknown>
8000100e: 00 80                        	<unknown>
80001010: 5c 13                        	<unknown>
80001012: 00 80                        	<unknown>
80001014: c4 13                        	<unknown>
80001016: 00 80                        	<unknown>
		...
800010b0: 01 00                        	<unknown>
800010b2: 00 00                        	<unknown>
800010b4: 00 00                        	<unknown>
800010b6: 00 00                        	<unknown>
800010b8: 0e 33                        	<unknown>
800010ba: cd ab                        	<unknown>
800010bc: 34 12                        	<unknown>
800010be: 6d e6                        	<unknown>
800010c0: ec de                        	<unknown>
800010c2: 05 00                        	<unknown>
800010c4: 0b 00 00 00                  	<unknown>
		...

Disassembly of section .sdata:

80001430 _global_impure_ptr:
80001430: 08 10                        	<unknown>
80001432: 00 80                        	<unknown>

Disassembly of section .sbss:

80001434 g_spawn:
...

Disassembly of section .comment:

00000000 .comment:
       0: 63 6c 61 6e                  	bltu	sp, t1, 1784
       4: 67 20 76 65                  	<unknown>
       8: 72 73                        	<unknown>
       a: 69 6f                        	<unknown>
       c: 6e 20                        	<unknown>
       e: 31 30                        	<unknown>
      10: 2e 30                        	<unknown>
      12: 2e 30                        	<unknown>
      14: 20 28                        	<unknown>
      16: 68 74                        	<unknown>
      18: 74 70                        	<unknown>
      1a: 73 3a 2f 2f                  	csrrc	s4, 754, t5
      1e: 67 69 74 68                  	<unknown>
      22: 75 62                        	<unknown>
      24: 2e 63                        	<unknown>
      26: 6f 6d 2f 6c                  	jal	s10, 1009346
      2a: 6c 76                        	<unknown>
      2c: 6d 2f                        	<unknown>
      2e: 6c 6c                        	<unknown>
      30: 76 6d                        	<unknown>
      32: 2d 70                        	<unknown>
      34: 72 6f                        	<unknown>
      36: 6a 65                        	<unknown>
      38: 63 74 2e 67                  	bgeu	t3, s2, 1640
      3c: 69 74                        	<unknown>
      3e: 20 37                        	<unknown>
      40: 33 63 35 33                  	<unknown>
      44: 65 36                        	<unknown>
      46: 31 32                        	<unknown>
      48: 61 61                        	<unknown>
      4a: 31 32                        	<unknown>
      4c: 35 61                        	<unknown>
      4e: 32 34                        	<unknown>
      50: 65 62                        	<unknown>
      52: 32 63                        	<unknown>
      54: 37 35 32 34                  	lui	a0, 213795
      58: 31 62                        	<unknown>
      5a: 32 65                        	<unknown>
      5c: 62 62                        	<unknown>
      5e: 64 35                        	<unknown>
      60: 36 30                        	<unknown>
      62: 62 38                        	<unknown>
      64: 35 63                        	<unknown>
      66: 37 29 00 47                  	lui	s2, 290818
      6a: 43 43 3a 20                  	<unknown>
      6e: 28 47                        	<unknown>
      70: 4e 55                        	<unknown>
      72: 29 20                        	<unknown>
      74: 39 2e                        	<unknown>
      76: 32 2e                        	<unknown>
      78: 30 00                        	<unknown>

Disassembly of section .riscv.attributes:

00000000 .riscv.attributes:
       0: 41 20                        	<unknown>
       2: 00 00                        	<unknown>
       4: 00 72                        	<unknown>
       6: 69 73                        	<unknown>
       8: 63 76 00 01                  	bgeu	zero, a6, 12
       c: 16 00                        	<unknown>
       e: 00 00                        	<unknown>
      10: 04 10                        	<unknown>
      12: 05 72                        	<unknown>
      14: 76 33                        	<unknown>
      16: 32 69                        	<unknown>
      18: 32 70                        	<unknown>
      1a: 30 5f                        	<unknown>
      1c: 6d 32                        	<unknown>
      1e: 70 30                        	<unknown>
      20: 00                           	<unknown>

Disassembly of section .debug_aranges:

00000000 .debug_aranges:
       0: 1c 00                        	<unknown>
       2: 00 00                        	<unknown>
       4: 02 00                        	<unknown>
       6: 00 00                        	<unknown>
       8: 00 00                        	<unknown>
       a: 04 00                        	<unknown>
       c: 00 00                        	<unknown>
       e: 00 00                        	<unknown>
      10: c0 0a                        	<unknown>
      12: 00 80                        	<unknown>
      14: 2c 03                        	<unknown>
		...
      1e: 00 00                        	<unknown>
      20: 1c 00                        	<unknown>
      22: 00 00                        	<unknown>
      24: 02 00                        	<unknown>
      26: bb 03 00 00                  	<unknown>
      2a: 04 00                        	<unknown>
      2c: 00 00                        	<unknown>
      2e: 00 00                        	<unknown>
      30: ec 0d                        	<unknown>
      32: 00 80                        	<unknown>
      34: 4c 00                        	<unknown>
		...
      3e: 00 00                        	<unknown>
      40: 14 00                        	<unknown>
      42: 00 00                        	<unknown>
      44: 02 00                        	<unknown>
      46: 92 0f                        	<unknown>
      48: 00 00                        	<unknown>
      4a: 04 00                        	<unknown>
		...

Disassembly of section .debug_info:

00000000 .debug_info:
       0: b7 03 00 00                  	lui	t2, 0
       4: 04 00                        	<unknown>
       6: 00 00                        	<unknown>
       8: 00 00                        	<unknown>
       a: 04 01                        	<unknown>
       c: 07 02 00 00                  	<unknown>
      10: 0c 47                        	<unknown>
      12: 00 00                        	<unknown>
      14: 00 63                        	<unknown>
      16: 01 00                        	<unknown>
      18: 00 c0                        	<unknown>
      1a: 0a 00                        	<unknown>
      1c: 80 2c                        	<unknown>
      1e: 03 00 00 00                  	lb	zero, 0(zero)
      22: 00 00                        	<unknown>
      24: 00 02                        	<unknown>
      26: 04 04                        	<unknown>
      28: 42 06                        	<unknown>
      2a: 00 00                        	<unknown>
      2c: 03 04 05 69                  	lb	s0, 1680(a0)
      30: 6e 74                        	<unknown>
      32: 00 02                        	<unknown>
      34: 01 06                        	<unknown>
      36: 93 00 00 00                  	mv	ra, zero
      3a: 02 08                        	<unknown>
      3c: 05 f9                        	<unknown>
      3e: 01 00                        	<unknown>
      40: 00 04                        	<unknown>
      42: 35 01                        	<unknown>
      44: 00 00                        	<unknown>
      46: 02 4a                        	<unknown>
      48: 01 16                        	<unknown>
      4a: 53 00 00 00                  	<unknown>
      4e: 05 41                        	<unknown>
      50: 00 00                        	<unknown>
      52: 00 02                        	<unknown>
      54: 01 08                        	<unknown>
      56: 91 00                        	<unknown>
      58: 00 00                        	<unknown>
      5a: 02 04                        	<unknown>
      5c: 07 56 01 00                  	<unknown>
      60: 00 02                        	<unknown>
      62: 08 07                        	<unknown>
      64: 4c 01                        	<unknown>
      66: 00 00                        	<unknown>
      68: 02 02                        	<unknown>
      6a: 07 bd 00 00                  	<unknown>
      6e: 00 06                        	<unknown>
      70: 4e 00                        	<unknown>
      72: 00 00                        	<unknown>
      74: 7f 00 00 00                  	<unknown>
      78: 07 5a 00 00                  	<unknown>
      7c: 00 ff                        	<unknown>
      7e: 00 05                        	<unknown>
      80: 6f 00 00 00                  	j	0
      84: 08 3d                        	<unknown>
      86: 01 00                        	<unknown>
      88: 00 04                        	<unknown>
      8a: 3c 16                        	<unknown>
      8c: 7f 00 00 00                  	<unknown>
      90: 09 d3                        	<unknown>
      92: 02 00                        	<unknown>
      94: 00 03                        	<unknown>
      96: 45 0f                        	<unknown>
      98: 25 00                        	<unknown>
      9a: 00 00                        	<unknown>
      9c: 0a 04                        	<unknown>
      9e: 03 4a 03 d6                  	lbu	s4, -672(t1)
      a2: 00 00                        	<unknown>
      a4: 00 0b                        	<unknown>
      a6: 47 01 00 00                  	<unknown>
      aa: 03 51 0e 5a                  	lhu	sp, 1440(t3)
      ae: 00 00                        	<unknown>
      b0: 00 04                        	<unknown>
      b2: 17 09 00 0c                  	auipc	s2, 49152
      b6: 65 78                        	<unknown>
      b8: 70 00                        	<unknown>
      ba: 03 52 0e 5a                  	lhu	tp, 1440(t3)
      be: 00 00                        	<unknown>
      c0: 00 04                        	<unknown>
      c2: 08 01                        	<unknown>
      c4: 00 0b                        	<unknown>
      c6: f8 04                        	<unknown>
      c8: 00 00                        	<unknown>
      ca: 03 53 0e 5a                  	lhu	t1, 1440(t3)
      ce: 00 00                        	<unknown>
      d0: 00 04                        	<unknown>
      d2: 01 00                        	<unknown>
      d4: 00 00                        	<unknown>
      d6: 0d c7                        	<unknown>
      d8: 02 00                        	<unknown>
      da: 00 04                        	<unknown>
      dc: 03 47 07 fc                  	lbu	a4, -64(a4)
      e0: 00 00                        	<unknown>
      e2: 00 0e                        	<unknown>
      e4: 66 6c                        	<unknown>
      e6: 74 00                        	<unknown>
      e8: 03 49 0a 90                  	lbu	s2, -1792(s4)
      ec: 00 00                        	<unknown>
      ee: 00 0f                        	<unknown>
      f0: a7 02 00 00                  	<unknown>
      f4: 03 55 05 9c                  	lhu	a0, -1600(a0)
      f8: 00 00                        	<unknown>
      fa: 00 00                        	<unknown>
      fc: 10 b4                        	<unknown>
      fe: 00 00                        	<unknown>
     100: 00 01                        	<unknown>
     102: 23 01 90 00                  	sb	s1, 2(zero)
     106: 00 00                        	<unknown>
     108: c0 0a                        	<unknown>
     10a: 00 80                        	<unknown>
     10c: 2c 03                        	<unknown>
     10e: 00 00                        	<unknown>
     110: 01 9c                        	<unknown>
     112: ac 03                        	<unknown>
     114: 00 00                        	<unknown>
     116: 11 61                        	<unknown>
     118: 00 01                        	<unknown>
     11a: 23 12 90 00                  	sh	s1, 4(zero)
     11e: 00 00                        	<unknown>
     120: 00 00                        	<unknown>
     122: 00 00                        	<unknown>
     124: 11 62                        	<unknown>
     126: 00 01                        	<unknown>
     128: 23 1c 90 00                  	sh	s1, 24(zero)
     12c: 00 00                        	<unknown>
     12e: 59 00                        	<unknown>
     130: 00 00                        	<unknown>
     132: 12 27                        	<unknown>
     134: 00 00                        	<unknown>
     136: 00 01                        	<unknown>
     138: 25 03                        	<unknown>
     13a: 2c 00                        	<unknown>
     13c: 00 00                        	<unknown>
     13e: b8 00                        	<unknown>
     140: 00 00                        	<unknown>
     142: 13 11 03 00                  	slli	sp, t1, 0
     146: 00 01                        	<unknown>
     148: 25 03                        	<unknown>
     14a: 2c 00                        	<unknown>
     14c: 00 00                        	<unknown>
     14e: 00 14                        	<unknown>
     150: 41 5f                        	<unknown>
     152: 63 00 01 26                  	beqz	sp, 608
     156: 03 ac 03 00                  	lw	s8, 0(t2)
     15a: 00 d8                        	<unknown>
     15c: 00 00                        	<unknown>
     15e: 00 14                        	<unknown>
     160: 41 5f                        	<unknown>
     162: 73 00 01 26                  	<unknown>
     166: 03 ac 03 00                  	lw	s8, 0(t2)
     16a: 00 0d                        	<unknown>
     16c: 01 00                        	<unknown>
     16e: 00 14                        	<unknown>
     170: 41 5f                        	<unknown>
     172: 65 00                        	<unknown>
     174: 01 26                        	<unknown>
     176: 03 ac 03 00                  	lw	s8, 0(t2)
     17a: 00 35                        	<unknown>
     17c: 01 00                        	<unknown>
     17e: 00 14                        	<unknown>
     180: 41 5f                        	<unknown>
     182: 66 00                        	<unknown>
     184: 01 26                        	<unknown>
     186: 03 b3 03 00                  	<unknown>
     18a: 00 b7                        	<unknown>
     18c: 01 00                        	<unknown>
     18e: 00 14                        	<unknown>
     190: 42 5f                        	<unknown>
     192: 63 00 01 27                  	beq	sp, a6, 608
     196: 03 ac 03 00                  	lw	s8, 0(t2)
     19a: 00 27                        	<unknown>
     19c: 02 00                        	<unknown>
     19e: 00 14                        	<unknown>
     1a0: 42 5f                        	<unknown>
     1a2: 73 00 01 27                  	<unknown>
     1a6: 03 ac 03 00                  	lw	s8, 0(t2)
     1aa: 00 72                        	<unknown>
     1ac: 02 00                        	<unknown>
     1ae: 00 14                        	<unknown>
     1b0: 42 5f                        	<unknown>
     1b2: 65 00                        	<unknown>
     1b4: 01 27                        	<unknown>
     1b6: 03 ac 03 00                  	lw	s8, 0(t2)
     1ba: 00 aa                        	<unknown>
     1bc: 02 00                        	<unknown>
     1be: 00 14                        	<unknown>
     1c0: 42 5f                        	<unknown>
     1c2: 66 00                        	<unknown>
     1c4: 01 27                        	<unknown>
     1c6: 03 b3 03 00                  	<unknown>
     1ca: 00 fd                        	<unknown>
     1cc: 02 00                        	<unknown>
     1ce: 00 14                        	<unknown>
     1d0: 52 5f                        	<unknown>
     1d2: 63 00 01 28                  	beqz	sp, 640
     1d6: 03 ac 03 00                  	lw	s8, 0(t2)
     1da: 00 4d                        	<unknown>
     1dc: 03 00 00 14                  	lb	zero, 320(zero)
     1e0: 52 5f                        	<unknown>
     1e2: 73 00 01 28                  	<unknown>
     1e6: 03 ac 03 00                  	lw	s8, 0(t2)
     1ea: 00 8e                        	<unknown>
     1ec: 03 00 00 14                  	lb	zero, 320(zero)
     1f0: 52 5f                        	<unknown>
     1f2: 65 00                        	<unknown>
     1f4: 01 28                        	<unknown>
     1f6: 03 ac 03 00                  	lw	s8, 0(t2)
     1fa: 00 13                        	<unknown>
     1fc: 04 00                        	<unknown>
     1fe: 00 14                        	<unknown>
     200: 52 5f                        	<unknown>
     202: 66 00                        	<unknown>
     204: 01 28                        	<unknown>
     206: 03 b3 03 00                  	<unknown>
     20a: 00 95                        	<unknown>
     20c: 04 00                        	<unknown>
     20e: 00 14                        	<unknown>
     210: 72 00                        	<unknown>
     212: 01 29                        	<unknown>
     214: 0a 90                        	<unknown>
     216: 00 00                        	<unknown>
     218: 00 f9                        	<unknown>
     21a: 04 00                        	<unknown>
     21c: 00 15                        	<unknown>
     21e: 00 00                        	<unknown>
     220: 00 00                        	<unknown>
     222: 33 02 00 00                  	add	tp, zero, zero
     226: 16 9f                        	<unknown>
     228: 00 00                        	<unknown>
     22a: 00 01                        	<unknown>
     22c: 2c 03                        	<unknown>
     22e: d6 00                        	<unknown>
     230: 00 00                        	<unknown>
     232: 00 15                        	<unknown>
     234: 28 00                        	<unknown>
     236: 00 00                        	<unknown>
     238: 4d 02                        	<unknown>
     23a: 00 00                        	<unknown>
     23c: 12 f6                        	<unknown>
     23e: 02 00                        	<unknown>
     240: 00 01                        	<unknown>
     242: 2c 03                        	<unknown>
     244: ac 03                        	<unknown>
     246: 00 00                        	<unknown>
     248: 1e 05                        	<unknown>
     24a: 00 00                        	<unknown>
     24c: 00 15                        	<unknown>
     24e: 40 00                        	<unknown>
     250: 00 00                        	<unknown>
     252: 63 02 00 00                  	beqz	zero, 4
     256: 16 9f                        	<unknown>
     258: 00 00                        	<unknown>
     25a: 00 01                        	<unknown>
     25c: 2d 03                        	<unknown>
     25e: d6 00                        	<unknown>
     260: 00 00                        	<unknown>
     262: 00 15                        	<unknown>
     264: 58 00                        	<unknown>
     266: 00 00                        	<unknown>
     268: 7d 02                        	<unknown>
     26a: 00 00                        	<unknown>
     26c: 12 f6                        	<unknown>
     26e: 02 00                        	<unknown>
     270: 00 01                        	<unknown>
     272: 2d 03                        	<unknown>
     274: ac 03                        	<unknown>
     276: 00 00                        	<unknown>
     278: 33 05 00 00                  	add	a0, zero, zero
     27c: 00 15                        	<unknown>
     27e: 70 00                        	<unknown>
     280: 00 00                        	<unknown>
     282: 4d 03                        	<unknown>
     284: 00 00                        	<unknown>
     286: 12 e7                        	<unknown>
     288: 00 00                        	<unknown>
     28a: 00 01                        	<unknown>
     28c: 2e 03                        	<unknown>
     28e: b3 03 00 00                  	add	t2, zero, zero
     292: 48 05                        	<unknown>
     294: 00 00                        	<unknown>
     296: 12 da                        	<unknown>
     298: 02 00                        	<unknown>
     29a: 00 01                        	<unknown>
     29c: 2e 03                        	<unknown>
     29e: b3 03 00 00                  	add	t2, zero, zero
     2a2: 66 05                        	<unknown>
     2a4: 00 00                        	<unknown>
     2a6: 12 de                        	<unknown>
     2a8: 01 00                        	<unknown>
     2aa: 00 01                        	<unknown>
     2ac: 2e 03                        	<unknown>
     2ae: b3 03 00 00                  	add	t2, zero, zero
     2b2: 90 05                        	<unknown>
     2b4: 00 00                        	<unknown>
     2b6: 12 03                        	<unknown>
     2b8: 01 00                        	<unknown>
     2ba: 00 01                        	<unknown>
     2bc: 2e 03                        	<unknown>
     2be: b3 03 00 00                  	add	t2, zero, zero
     2c2: b5 05                        	<unknown>
     2c4: 00 00                        	<unknown>
     2c6: 12 ac                        	<unknown>
     2c8: 02 00                        	<unknown>
     2ca: 00 01                        	<unknown>
     2cc: 2e 03                        	<unknown>
     2ce: b3 03 00 00                  	add	t2, zero, zero
     2d2: d8 05                        	<unknown>
     2d4: 00 00                        	<unknown>
     2d6: 17 88 00 00                  	auipc	a6, 8
     2da: 00 12                        	<unknown>
     2dc: 8c 00                        	<unknown>
     2de: 00 00                        	<unknown>
     2e0: 01 2e                        	<unknown>
     2e2: 03 b3 03 00                  	<unknown>
     2e6: 00 f6                        	<unknown>
     2e8: 05 00                        	<unknown>
     2ea: 00 12                        	<unknown>
     2ec: d9 01                        	<unknown>
     2ee: 00 00                        	<unknown>
     2f0: 01 2e                        	<unknown>
     2f2: 03 b3 03 00                  	<unknown>
     2f6: 00 18                        	<unknown>
     2f8: 06 00                        	<unknown>
     2fa: 00 12                        	<unknown>
     2fc: 1d 00                        	<unknown>
     2fe: 00 00                        	<unknown>
     300: 01 2e                        	<unknown>
     302: 03 b3 03 00                  	<unknown>
     306: 00 3c                        	<unknown>
     308: 06 00                        	<unknown>
     30a: 00 12                        	<unknown>
     30c: 18 00                        	<unknown>
     30e: 00 00                        	<unknown>
     310: 01 2e                        	<unknown>
     312: 03 b3 03 00                  	<unknown>
     316: 00 5a                        	<unknown>
     318: 06 00                        	<unknown>
     31a: 00 12                        	<unknown>
     31c: 22 00                        	<unknown>
     31e: 00 00                        	<unknown>
     320: 01 2e                        	<unknown>
     322: 03 b3 03 00                  	<unknown>
     326: 00 78                        	<unknown>
     328: 06 00                        	<unknown>
     32a: 00 12                        	<unknown>
     32c: 13 00 00 00                  	nop
     330: 01 2e                        	<unknown>
     332: 03 b3 03 00                  	<unknown>
     336: 00 d6                        	<unknown>
     338: 06 00                        	<unknown>
     33a: 00 14                        	<unknown>
     33c: 5f 5f 6d 00                  	<unknown>
     340: 01 2e                        	<unknown>
     342: 03 b3 03 00                  	<unknown>
     346: 00 2a                        	<unknown>
     348: 07 00 00 00                  	<unknown>
     34c: 00 15                        	<unknown>
     34e: a8 00                        	<unknown>
     350: 00 00                        	<unknown>
     352: 95 03                        	<unknown>
     354: 00 00                        	<unknown>
     356: 16 2c                        	<unknown>
     358: 00 00                        	<unknown>
     35a: 00 01                        	<unknown>
     35c: 2f 03 2c 00                  	<unknown>
     360: 00 00                        	<unknown>
     362: 18 16                        	<unknown>
     364: 1e 01                        	<unknown>
     366: 00 00                        	<unknown>
     368: 01 2f                        	<unknown>
     36a: 03 ac 03 00                  	lw	s8, 0(t2)
     36e: 00 16                        	<unknown>
     370: c2 01                        	<unknown>
     372: 00 00                        	<unknown>
     374: 01 2f                        	<unknown>
     376: 03 ac 03 00                  	lw	s8, 0(t2)
     37a: 00 16                        	<unknown>
     37c: d0 00                        	<unknown>
     37e: 00 00                        	<unknown>
     380: 01 2f                        	<unknown>
     382: 03 ac 03 00                  	lw	s8, 0(t2)
     386: 00 16                        	<unknown>
     388: 75 00                        	<unknown>
     38a: 00 00                        	<unknown>
     38c: 01 2f                        	<unknown>
     38e: 03 b3 03 00                  	<unknown>
     392: 00 00                        	<unknown>
     394: 00 19                        	<unknown>
     396: e4 0c                        	<unknown>
     398: 00 80                        	<unknown>
     39a: 1c 00                        	<unknown>
     39c: 00 00                        	<unknown>
     39e: 16 00                        	<unknown>
     3a0: 00 00                        	<unknown>
     3a2: 00 01                        	<unknown>
     3a4: 2f 03 d6 00                  	<unknown>
     3a8: 00 00                        	<unknown>
     3aa: 00 00                        	<unknown>
     3ac: 02 04                        	<unknown>
     3ae: 05 fe                        	<unknown>
     3b0: 01 00                        	<unknown>
     3b2: 00 02                        	<unknown>
     3b4: 04 07                        	<unknown>
     3b6: 51 01                        	<unknown>
     3b8: 00 00                        	<unknown>
     3ba: 00 d3                        	<unknown>
     3bc: 0b 00 00 04                  	<unknown>
     3c0: 00 6f                        	<unknown>
     3c2: 01 00                        	<unknown>
     3c4: 00 04                        	<unknown>
     3c6: 01 07                        	<unknown>
     3c8: 02 00                        	<unknown>
     3ca: 00 0c                        	<unknown>
     3cc: ac 06                        	<unknown>
     3ce: 00 00                        	<unknown>
     3d0: 63 01 00 00                  	beqz	zero, 2
     3d4: ec 0d                        	<unknown>
     3d6: 00 80                        	<unknown>
     3d8: 4c 00                        	<unknown>
     3da: 00 00                        	<unknown>
     3dc: 82 08                        	<unknown>
     3de: 00 00                        	<unknown>
     3e0: 02 04                        	<unknown>
     3e2: 05 69                        	<unknown>
     3e4: 6e 74                        	<unknown>
     3e6: 00 03                        	<unknown>
     3e8: 04 07                        	<unknown>
     3ea: 56 01                        	<unknown>
     3ec: 00 00                        	<unknown>
     3ee: 03 08 05 f9                  	lb	a6, -112(a0)
     3f2: 01 00                        	<unknown>
     3f4: 00 03                        	<unknown>
     3f6: 10 04                        	<unknown>
     3f8: c5 03                        	<unknown>
     3fa: 00 00                        	<unknown>
     3fc: 03 01 06 93                  	lb	sp, -1744(a2)
     400: 00 00                        	<unknown>
     402: 00 03                        	<unknown>
     404: 01 08                        	<unknown>
     406: 91 00                        	<unknown>
     408: 00 00                        	<unknown>
     40a: 03 02 05 16                  	lb	tp, 352(a0)
     40e: 03 00 00 03                  	lb	zero, 48(zero)
     412: 02 07                        	<unknown>
     414: bd 00                        	<unknown>
     416: 00 00                        	<unknown>
     418: 03 04 05 fe                  	lb	s0, -32(a0)
     41c: 01 00                        	<unknown>
     41e: 00 03                        	<unknown>
     420: 04 07                        	<unknown>
     422: 51 01                        	<unknown>
     424: 00 00                        	<unknown>
     426: 03 08 07 4c                  	lb	a6, 1216(a4)
     42a: 01 00                        	<unknown>
     42c: 00 04                        	<unknown>
     42e: a9 05                        	<unknown>
     430: 00 00                        	<unknown>
     432: 02 5e                        	<unknown>
     434: 01 17                        	<unknown>
     436: 2c 00                        	<unknown>
     438: 00 00                        	<unknown>
     43a: 05 6e                        	<unknown>
     43c: 06 00                        	<unknown>
     43e: 00 03                        	<unknown>
     440: 2e 0e                        	<unknown>
     442: 5d 00                        	<unknown>
     444: 00 00                        	<unknown>
     446: 05 d0                        	<unknown>
     448: 07 00 00 03                  	<unknown>
     44c: 74 0e                        	<unknown>
     44e: 5d 00                        	<unknown>
     450: 00 00                        	<unknown>
     452: 05 6a                        	<unknown>
     454: 08 00                        	<unknown>
     456: 00 03                        	<unknown>
     458: 93 17 25 00                  	slli	a5, a0, 2
     45c: 00 00                        	<unknown>
     45e: 06 04                        	<unknown>
     460: 03 a5 03 c5                  	lw	a0, -944(t2)
     464: 00 00                        	<unknown>
     466: 00 07                        	<unknown>
     468: 9b 05 00 00                  	<unknown>
     46c: 03 a7 0c 72                  	lw	a4, 1824(s9)
     470: 00 00                        	<unknown>
     472: 00 07                        	<unknown>
     474: 42 05                        	<unknown>
     476: 00 00                        	<unknown>
     478: 03 a8 13 c5                  	lw	a6, -943(t2)
     47c: 00 00                        	<unknown>
     47e: 00 00                        	<unknown>
     480: 08 48                        	<unknown>
     482: 00 00                        	<unknown>
     484: 00 d5                        	<unknown>
     486: 00 00                        	<unknown>
     488: 00 09                        	<unknown>
     48a: 2c 00                        	<unknown>
     48c: 00 00                        	<unknown>
     48e: 03 00 0a 08                  	lb	zero, 128(s4)
     492: 03 a2 09 f9                  	lw	tp, -112(s3)
     496: 00 00                        	<unknown>
     498: 00 0b                        	<unknown>
     49a: ba 07                        	<unknown>
     49c: 00 00                        	<unknown>
     49e: 03 a4 07 25                  	lw	s0, 592(a5)
     4a2: 00 00                        	<unknown>
     4a4: 00 00                        	<unknown>
     4a6: 0b c2 07 00                  	<unknown>
     4aa: 00 03                        	<unknown>
     4ac: a9 05                        	<unknown>
     4ae: a3 00 00 00                  	sb	zero, 1(zero)
     4b2: 04 00                        	<unknown>
     4b4: 05 89                        	<unknown>
     4b6: 06 00                        	<unknown>
     4b8: 00 03                        	<unknown>
     4ba: aa 03                        	<unknown>
     4bc: d5 00                        	<unknown>
     4be: 00 00                        	<unknown>
     4c0: 0c 04                        	<unknown>
     4c2: 05 1b                        	<unknown>
     4c4: 08 00                        	<unknown>
     4c6: 00 04                        	<unknown>
     4c8: 16 19                        	<unknown>
     4ca: 64 00                        	<unknown>
     4cc: 00 00                        	<unknown>
     4ce: 05 94                        	<unknown>
     4d0: 06 00                        	<unknown>
     4d2: 00 05                        	<unknown>
     4d4: 0c 0d                        	<unknown>
     4d6: 25 00                        	<unknown>
     4d8: 00 00                        	<unknown>
     4da: 05 0a                        	<unknown>
     4dc: 07 00 00 04                  	<unknown>
     4e0: 23 1b 13 01                  	sh	a7, 22(t1)
     4e4: 00 00                        	<unknown>
     4e6: 0d 05                        	<unknown>
     4e8: 05 00                        	<unknown>
     4ea: 00 18                        	<unknown>
     4ec: 04 34                        	<unknown>
     4ee: 08 85                        	<unknown>
     4f0: 01 00                        	<unknown>
     4f2: 00 0b                        	<unknown>
     4f4: 5d 07                        	<unknown>
     4f6: 00 00                        	<unknown>
     4f8: 04 36                        	<unknown>
     4fa: 13 85 01 00                  	mv	a0, gp
     4fe: 00 00                        	<unknown>
     500: 0e 5f                        	<unknown>
     502: 6b 00 04 37                  	<unknown>
     506: 07 25 00 00                  	<unknown>
     50a: 00 04                        	<unknown>
     50c: 0b a5 07 00                  	<unknown>
     510: 00 04                        	<unknown>
     512: 37 0b 25 00                  	lui	s6, 592
     516: 00 00                        	<unknown>
     518: 08 0b                        	<unknown>
     51a: f7 04 00 00                  	<unknown>
     51e: 04 37                        	<unknown>
     520: 14 25                        	<unknown>
     522: 00 00                        	<unknown>
     524: 00 0c                        	<unknown>
     526: 0b 73 04 00                  	<unknown>
     52a: 00 04                        	<unknown>
     52c: 37 1b 25 00                  	lui	s6, 593
     530: 00 00                        	<unknown>
     532: 10 0e                        	<unknown>
     534: 5f 78 00 04                  	<unknown>
     538: 38 0b                        	<unknown>
     53a: 8b 01 00 00                  	<unknown>
     53e: 14 00                        	<unknown>
     540: 0f 04 2b 01                  	<unknown>
     544: 00 00                        	<unknown>
     546: 08 07                        	<unknown>
     548: 01 00                        	<unknown>
     54a: 00 9b                        	<unknown>
     54c: 01 00                        	<unknown>
     54e: 00 09                        	<unknown>
     550: 2c 00                        	<unknown>
     552: 00 00                        	<unknown>
     554: 00 00                        	<unknown>
     556: 0d 25                        	<unknown>
     558: 05 00                        	<unknown>
     55a: 00 24                        	<unknown>
     55c: 04 3c                        	<unknown>
     55e: 08 1e                        	<unknown>
     560: 02 00                        	<unknown>
     562: 00 0b                        	<unknown>
     564: 0b 04 00 00                  	<unknown>
     568: 04 3e                        	<unknown>
     56a: 09 25                        	<unknown>
     56c: 00 00                        	<unknown>
     56e: 00 00                        	<unknown>
     570: 0b be 08 00                  	<unknown>
     574: 00 04                        	<unknown>
     576: 3f 09 25 00                  	<unknown>
     57a: 00 00                        	<unknown>
     57c: 04 0b                        	<unknown>
     57e: 27 04 00 00                  	<unknown>
     582: 04 40                        	<unknown>
     584: 09 25                        	<unknown>
     586: 00 00                        	<unknown>
     588: 00 08                        	<unknown>
     58a: 0b fa 08 00                  	<unknown>
     58e: 00 04                        	<unknown>
     590: 41 09                        	<unknown>
     592: 25 00                        	<unknown>
     594: 00 00                        	<unknown>
     596: 0c 0b                        	<unknown>
     598: 48 06                        	<unknown>
     59a: 00 00                        	<unknown>
     59c: 04 42                        	<unknown>
     59e: 09 25                        	<unknown>
     5a0: 00 00                        	<unknown>
     5a2: 00 10                        	<unknown>
     5a4: 0b f1 05 00                  	<unknown>
     5a8: 00 04                        	<unknown>
     5aa: 43 09 25 00                  	<unknown>
     5ae: 00 00                        	<unknown>
     5b0: 14 0b                        	<unknown>
     5b2: 53 08 00 00                  	<unknown>
     5b6: 04 44                        	<unknown>
     5b8: 09 25                        	<unknown>
     5ba: 00 00                        	<unknown>
     5bc: 00 18                        	<unknown>
     5be: 0b 13 07 00                  	<unknown>
     5c2: 00 04                        	<unknown>
     5c4: 45 09                        	<unknown>
     5c6: 25 00                        	<unknown>
     5c8: 00 00                        	<unknown>
     5ca: 1c 0b                        	<unknown>
     5cc: a4 08                        	<unknown>
     5ce: 00 00                        	<unknown>
     5d0: 04 46                        	<unknown>
     5d2: 09 25                        	<unknown>
     5d4: 00 00                        	<unknown>
     5d6: 00 20                        	<unknown>
     5d8: 00 10                        	<unknown>
     5da: 46 04                        	<unknown>
     5dc: 00 00                        	<unknown>
     5de: 08 01                        	<unknown>
     5e0: 04 4f                        	<unknown>
     5e2: 08 63                        	<unknown>
     5e4: 02 00                        	<unknown>
     5e6: 00 0b                        	<unknown>
     5e8: ea 04                        	<unknown>
     5ea: 00 00                        	<unknown>
     5ec: 04 50                        	<unknown>
     5ee: 0a 63                        	<unknown>
     5f0: 02 00                        	<unknown>
     5f2: 00 00                        	<unknown>
     5f4: 0b e6 06 00                  	<unknown>
     5f8: 00 04                        	<unknown>
     5fa: 51 09                        	<unknown>
     5fc: 63 02 00 00                  	beqz	zero, 4
     600: 80 11                        	<unknown>
     602: 0d 08                        	<unknown>
     604: 00 00                        	<unknown>
     606: 04 53                        	<unknown>
     608: 0a 07                        	<unknown>
     60a: 01 00                        	<unknown>
     60c: 00 00                        	<unknown>
     60e: 01 11                        	<unknown>
     610: 6b 04 00 00                  	<unknown>
     614: 04 56                        	<unknown>
     616: 0a 07                        	<unknown>
     618: 01 00                        	<unknown>
     61a: 00 04                        	<unknown>
     61c: 01 00                        	<unknown>
     61e: 08 05                        	<unknown>
     620: 01 00                        	<unknown>
     622: 00 73                        	<unknown>
     624: 02 00                        	<unknown>
     626: 00 09                        	<unknown>
     628: 2c 00                        	<unknown>
     62a: 00 00                        	<unknown>
     62c: 1f 00 10 51                  	<unknown>
     630: 06 00                        	<unknown>
     632: 00 90                        	<unknown>
     634: 01 04                        	<unknown>
     636: 62 08                        	<unknown>
     638: b6 02                        	<unknown>
     63a: 00 00                        	<unknown>
     63c: 0b 5d 07 00                  	<unknown>
     640: 00 04                        	<unknown>
     642: 63 12 b6 02                  	bne	a2, a1, 36
     646: 00 00                        	<unknown>
     648: 00 0b                        	<unknown>
     64a: 75 07                        	<unknown>
     64c: 00 00                        	<unknown>
     64e: 04 64                        	<unknown>
     650: 06 25                        	<unknown>
     652: 00 00                        	<unknown>
     654: 00 04                        	<unknown>
     656: 0b f2 04 00                  	<unknown>
     65a: 00 04                        	<unknown>
     65c: 66 09                        	<unknown>
     65e: bc 02                        	<unknown>
     660: 00 00                        	<unknown>
     662: 08 0b                        	<unknown>
     664: 46 04                        	<unknown>
     666: 00 00                        	<unknown>
     668: 04 67                        	<unknown>
     66a: 1e 1e                        	<unknown>
     66c: 02 00                        	<unknown>
     66e: 00 88                        	<unknown>
     670: 00 0f                        	<unknown>
     672: 04 73                        	<unknown>
     674: 02 00                        	<unknown>
     676: 00 08                        	<unknown>
     678: cc 02                        	<unknown>
     67a: 00 00                        	<unknown>
     67c: cc 02                        	<unknown>
     67e: 00 00                        	<unknown>
     680: 09 2c                        	<unknown>
     682: 00 00                        	<unknown>
     684: 00 1f                        	<unknown>
     686: 00 0f                        	<unknown>
     688: 04 d2                        	<unknown>
     68a: 02 00                        	<unknown>
     68c: 00 12                        	<unknown>
     68e: 0d 1d                        	<unknown>
     690: 07 00 00 08                  	<unknown>
     694: 04 7a                        	<unknown>
     696: 08 fb                        	<unknown>
     698: 02 00                        	<unknown>
     69a: 00 0b                        	<unknown>
     69c: 21 04                        	<unknown>
     69e: 00 00                        	<unknown>
     6a0: 04 7b                        	<unknown>
     6a2: 11 fb                        	<unknown>
     6a4: 02 00                        	<unknown>
     6a6: 00 00                        	<unknown>
     6a8: 0b 32 03 00                  	<unknown>
     6ac: 00 04                        	<unknown>
     6ae: 7c 06                        	<unknown>
     6b0: 25 00                        	<unknown>
     6b2: 00 00                        	<unknown>
     6b4: 04 00                        	<unknown>
     6b6: 0f 04 48 00                  	<unknown>
     6ba: 00 00                        	<unknown>
     6bc: 0d 46                        	<unknown>
     6be: 07 00 00 68                  	<unknown>
     6c2: 04 ba                        	<unknown>
     6c4: 08 44                        	<unknown>
     6c6: 04 00                        	<unknown>
     6c8: 00 0e                        	<unknown>
     6ca: 5f 70 00 04                  	<unknown>
     6ce: bb 12 fb 02                  	<unknown>
     6d2: 00 00                        	<unknown>
     6d4: 00 0e                        	<unknown>
     6d6: 5f 72 00 04                  	<unknown>
     6da: bc 07                        	<unknown>
     6dc: 25 00                        	<unknown>
     6de: 00 00                        	<unknown>
     6e0: 04 0e                        	<unknown>
     6e2: 5f 77 00 04                  	<unknown>
     6e6: bd 07                        	<unknown>
     6e8: 25 00                        	<unknown>
     6ea: 00 00                        	<unknown>
     6ec: 08 0b                        	<unknown>
     6ee: 64 04                        	<unknown>
     6f0: 00 00                        	<unknown>
     6f2: 04 be                        	<unknown>
     6f4: 09 4f                        	<unknown>
     6f6: 00 00                        	<unknown>
     6f8: 00 0c                        	<unknown>
     6fa: 0b 51 05 00                  	<unknown>
     6fe: 00 04                        	<unknown>
     700: bf 09 4f 00                  	<unknown>
     704: 00 00                        	<unknown>
     706: 0e 0e                        	<unknown>
     708: 5f 62 66 00                  	<unknown>
     70c: 04 c0                        	<unknown>
     70e: 11 d3                        	<unknown>
     710: 02 00                        	<unknown>
     712: 00 10                        	<unknown>
     714: 0b b4 03 00                  	<unknown>
     718: 00 04                        	<unknown>
     71a: c1 07                        	<unknown>
     71c: 25 00                        	<unknown>
     71e: 00 00                        	<unknown>
     720: 18 0b                        	<unknown>
     722: 54 04                        	<unknown>
     724: 00 00                        	<unknown>
     726: 04 c8                        	<unknown>
     728: 0a 05                        	<unknown>
     72a: 01 00                        	<unknown>
     72c: 00 1c                        	<unknown>
     72e: 0b a6 06 00                  	<unknown>
     732: 00 04                        	<unknown>
     734: ca 1d                        	<unknown>
     736: c8 05                        	<unknown>
     738: 00 00                        	<unknown>
     73a: 20 0b                        	<unknown>
     73c: ea 05                        	<unknown>
     73e: 00 00                        	<unknown>
     740: 04 cc                        	<unknown>
     742: 1d f7                        	<unknown>
     744: 05 00                        	<unknown>
     746: 00 24                        	<unknown>
     748: 0b ca 07 00                  	<unknown>
     74c: 00 04                        	<unknown>
     74e: cf 0d 1b 06                  	<unknown>
     752: 00 00                        	<unknown>
     754: 28 0b                        	<unknown>
     756: 14 04                        	<unknown>
     758: 00 00                        	<unknown>
     75a: 04 d0                        	<unknown>
     75c: 09 35                        	<unknown>
     75e: 06 00                        	<unknown>
     760: 00 2c                        	<unknown>
     762: 0e 5f                        	<unknown>
     764: 75 62                        	<unknown>
     766: 00 04                        	<unknown>
     768: d3 11 d3 02                  	<unknown>
     76c: 00 00                        	<unknown>
     76e: 30 0e                        	<unknown>
     770: 5f 75 70 00                  	<unknown>
     774: 04 d4                        	<unknown>
     776: 12 fb                        	<unknown>
     778: 02 00                        	<unknown>
     77a: 00 38                        	<unknown>
     77c: 0e 5f                        	<unknown>
     77e: 75 72                        	<unknown>
     780: 00 04                        	<unknown>
     782: d5 07                        	<unknown>
     784: 25 00                        	<unknown>
     786: 00 00                        	<unknown>
     788: 3c 0b                        	<unknown>
     78a: 1b 04 00 00                  	<unknown>
     78e: 04 d8                        	<unknown>
     790: 11 3b                        	<unknown>
     792: 06 00                        	<unknown>
     794: 00 40                        	<unknown>
     796: 0b 96 08 00                  	<unknown>
     79a: 00 04                        	<unknown>
     79c: d9 11                        	<unknown>
     79e: 4b 06 00 00                  	<unknown>
     7a2: 43 0e 5f 6c                  	<unknown>
     7a6: 62 00                        	<unknown>
     7a8: 04 dc                        	<unknown>
     7aa: 11 d3                        	<unknown>
     7ac: 02 00                        	<unknown>
     7ae: 00 44                        	<unknown>
     7b0: 0b e1 07 00                  	<unknown>
     7b4: 00 04                        	<unknown>
     7b6: df 07 25 00                  	<unknown>
     7ba: 00 00                        	<unknown>
     7bc: 4c 0b                        	<unknown>
     7be: 24 06                        	<unknown>
     7c0: 00 00                        	<unknown>
     7c2: 04 e0                        	<unknown>
     7c4: 0a 7f                        	<unknown>
     7c6: 00 00                        	<unknown>
     7c8: 00 50                        	<unknown>
     7ca: 0b 71 03 00                  	<unknown>
     7ce: 00 04                        	<unknown>
     7d0: e3 12 62 04                  	bne	tp, t1, 2116
     7d4: 00 00                        	<unknown>
     7d6: 54 0b                        	<unknown>
     7d8: b0 05                        	<unknown>
     7da: 00 00                        	<unknown>
     7dc: 04 e7                        	<unknown>
     7de: 0c 1f                        	<unknown>
     7e0: 01 00                        	<unknown>
     7e2: 00 58                        	<unknown>
     7e4: 0b 39 05 00                  	<unknown>
     7e8: 00 04                        	<unknown>
     7ea: e9 0e                        	<unknown>
     7ec: f9 00                        	<unknown>
     7ee: 00 00                        	<unknown>
     7f0: 5c 0b                        	<unknown>
     7f2: 24 07                        	<unknown>
     7f4: 00 00                        	<unknown>
     7f6: 04 ea                        	<unknown>
     7f8: 09 25                        	<unknown>
     7fa: 00 00                        	<unknown>
     7fc: 00 64                        	<unknown>
     7fe: 00 13                        	<unknown>
     800: 97 00 00 00                  	auipc	ra, 0
     804: 62 04                        	<unknown>
     806: 00 00                        	<unknown>
     808: 14 62                        	<unknown>
     80a: 04 00                        	<unknown>
     80c: 00 14                        	<unknown>
     80e: 05 01                        	<unknown>
     810: 00 00                        	<unknown>
     812: 14 b6                        	<unknown>
     814: 05 00                        	<unknown>
     816: 00 14                        	<unknown>
     818: 25 00                        	<unknown>
     81a: 00 00                        	<unknown>
     81c: 00 0f                        	<unknown>
     81e: 04 6d                        	<unknown>
     820: 04 00                        	<unknown>
     822: 00 15                        	<unknown>
     824: 62 04                        	<unknown>
     826: 00 00                        	<unknown>
     828: 16 ad                        	<unknown>
     82a: 07 00 00 28                  	<unknown>
     82e: 04 04                        	<unknown>
     830: 65 02                        	<unknown>
     832: 08 b6                        	<unknown>
     834: 05 00                        	<unknown>
     836: 00 17                        	<unknown>
     838: 03 07 00 00                  	lb	a4, 0(zero)
     83c: 04 67                        	<unknown>
     83e: 02 07                        	<unknown>
     840: 25 00                        	<unknown>
     842: 00 00                        	<unknown>
     844: 00 17                        	<unknown>
     846: 63 08 00 00                  	beqz	zero, 16
     84a: 04 6c                        	<unknown>
     84c: 02 0b                        	<unknown>
     84e: a7 06 00 00                  	<unknown>
     852: 04 17                        	<unknown>
     854: 4b 08 00 00                  	<unknown>
     858: 04 6c                        	<unknown>
     85a: 02 14                        	<unknown>
     85c: a7 06 00 00                  	<unknown>
     860: 08 17                        	<unknown>
     862: fd 04                        	<unknown>
     864: 00 00                        	<unknown>
     866: 04 6c                        	<unknown>
     868: 02 1e                        	<unknown>
     86a: a7 06 00 00                  	<unknown>
     86e: 0c 17                        	<unknown>
     870: 70 07                        	<unknown>
     872: 00 00                        	<unknown>
     874: 04 6e                        	<unknown>
     876: 02 08                        	<unknown>
     878: 25 00                        	<unknown>
     87a: 00 00                        	<unknown>
     87c: 10 17                        	<unknown>
     87e: 40 03                        	<unknown>
     880: 00 00                        	<unknown>
     882: 04 6f                        	<unknown>
     884: 02 08                        	<unknown>
     886: a7 08 00 00                  	<unknown>
     88a: 14 17                        	<unknown>
     88c: 8c 07                        	<unknown>
     88e: 00 00                        	<unknown>
     890: 04 72                        	<unknown>
     892: 02 07                        	<unknown>
     894: 25 00                        	<unknown>
     896: 00 00                        	<unknown>
     898: 30 17                        	<unknown>
     89a: 7a 07                        	<unknown>
     89c: 00 00                        	<unknown>
     89e: 04 73                        	<unknown>
     8a0: 02 16                        	<unknown>
     8a2: bc 08                        	<unknown>
     8a4: 00 00                        	<unknown>
     8a6: 34 17                        	<unknown>
     8a8: 63 06 00 00                  	beqz	zero, 12
     8ac: 04 75                        	<unknown>
     8ae: 02 07                        	<unknown>
     8b0: 25 00                        	<unknown>
     8b2: 00 00                        	<unknown>
     8b4: 38 17                        	<unknown>
     8b6: 82 07                        	<unknown>
     8b8: 00 00                        	<unknown>
     8ba: 04 77                        	<unknown>
     8bc: 02 0a                        	<unknown>
     8be: cd 08                        	<unknown>
     8c0: 00 00                        	<unknown>
     8c2: 3c 17                        	<unknown>
     8c4: 93 05 00 00                  	mv	a1, zero
     8c8: 04 7a                        	<unknown>
     8ca: 02 13                        	<unknown>
     8cc: 85 01                        	<unknown>
     8ce: 00 00                        	<unknown>
     8d0: 40 17                        	<unknown>
     8d2: 7f 04 00 00                  	<unknown>
     8d6: 04 7b                        	<unknown>
     8d8: 02 07                        	<unknown>
     8da: 25 00                        	<unknown>
     8dc: 00 00                        	<unknown>
     8de: 44 17                        	<unknown>
     8e0: f5 08                        	<unknown>
     8e2: 00 00                        	<unknown>
     8e4: 04 7c                        	<unknown>
     8e6: 02 13                        	<unknown>
     8e8: 85 01                        	<unknown>
     8ea: 00 00                        	<unknown>
     8ec: 48 17                        	<unknown>
     8ee: 75 06                        	<unknown>
     8f0: 00 00                        	<unknown>
     8f2: 04 7d                        	<unknown>
     8f4: 02 14                        	<unknown>
     8f6: d3 08 00 00                  	<unknown>
     8fa: 4c 17                        	<unknown>
     8fc: 49 05                        	<unknown>
     8fe: 00 00                        	<unknown>
     900: 04 80                        	<unknown>
     902: 02 07                        	<unknown>
     904: 25 00                        	<unknown>
     906: 00 00                        	<unknown>
     908: 50 17                        	<unknown>
     90a: b6 04                        	<unknown>
     90c: 00 00                        	<unknown>
     90e: 04 81                        	<unknown>
     910: 02 09                        	<unknown>
     912: b6 05                        	<unknown>
     914: 00 00                        	<unknown>
     916: 54 17                        	<unknown>
     918: fc 06                        	<unknown>
     91a: 00 00                        	<unknown>
     91c: 04 a4                        	<unknown>
     91e: 02 07                        	<unknown>
     920: 82 08                        	<unknown>
     922: 00 00                        	<unknown>
     924: 58 18                        	<unknown>
     926: 51 06                        	<unknown>
     928: 00 00                        	<unknown>
     92a: 04 a8                        	<unknown>
     92c: 02 13                        	<unknown>
     92e: b6 02                        	<unknown>
     930: 00 00                        	<unknown>
     932: 48 01                        	<unknown>
     934: 18 71                        	<unknown>
     936: 05 00                        	<unknown>
     938: 00 04                        	<unknown>
     93a: a9 02                        	<unknown>
     93c: 12 73                        	<unknown>
     93e: 02 00                        	<unknown>
     940: 00 4c                        	<unknown>
     942: 01 18                        	<unknown>
     944: 7d 08                        	<unknown>
     946: 00 00                        	<unknown>
     948: 04 ad                        	<unknown>
     94a: 02 0c                        	<unknown>
     94c: e4 08                        	<unknown>
     94e: 00 00                        	<unknown>
     950: dc 02                        	<unknown>
     952: 18 5c                        	<unknown>
     954: 04 00                        	<unknown>
     956: 00 04                        	<unknown>
     958: b2 02                        	<unknown>
     95a: 10 68                        	<unknown>
     95c: 06 00                        	<unknown>
     95e: 00 e0                        	<unknown>
     960: 02 18                        	<unknown>
     962: 41 04                        	<unknown>
     964: 00 00                        	<unknown>
     966: 04 b4                        	<unknown>
     968: 02 0a                        	<unknown>
     96a: f0 08                        	<unknown>
     96c: 00 00                        	<unknown>
     96e: ec 02                        	<unknown>
     970: 00 0f                        	<unknown>
     972: 04 bc                        	<unknown>
     974: 05 00                        	<unknown>
     976: 00 03                        	<unknown>
     978: 01 08                        	<unknown>
     97a: 9a 00                        	<unknown>
     97c: 00 00                        	<unknown>
     97e: 15 bc                        	<unknown>
     980: 05 00                        	<unknown>
     982: 00 0f                        	<unknown>
     984: 04 44                        	<unknown>
     986: 04 00                        	<unknown>
     988: 00 13                        	<unknown>
     98a: 97 00 00 00                  	auipc	ra, 0
     98e: ec 05                        	<unknown>
     990: 00 00                        	<unknown>
     992: 14 62                        	<unknown>
     994: 04 00                        	<unknown>
     996: 00 14                        	<unknown>
     998: 05 01                        	<unknown>
     99a: 00 00                        	<unknown>
     99c: 14 ec                        	<unknown>
     99e: 05 00                        	<unknown>
     9a0: 00 14                        	<unknown>
     9a2: 25 00                        	<unknown>
     9a4: 00 00                        	<unknown>
     9a6: 00 0f                        	<unknown>
     9a8: 04 c3                        	<unknown>
     9aa: 05 00                        	<unknown>
     9ac: 00 15                        	<unknown>
     9ae: ec 05                        	<unknown>
     9b0: 00 00                        	<unknown>
     9b2: 0f 04 ce 05                  	<unknown>
     9b6: 00 00                        	<unknown>
     9b8: 13 8b 00 00                  	mv	s6, ra
     9bc: 00 1b                        	<unknown>
     9be: 06 00                        	<unknown>
     9c0: 00 14                        	<unknown>
     9c2: 62 04                        	<unknown>
     9c4: 00 00                        	<unknown>
     9c6: 14 05                        	<unknown>
     9c8: 01 00                        	<unknown>
     9ca: 00 14                        	<unknown>
     9cc: 8b 00 00 00                  	<unknown>
     9d0: 14 25                        	<unknown>
     9d2: 00 00                        	<unknown>
     9d4: 00 00                        	<unknown>
     9d6: 0f 04 fd 05                  	<unknown>
     9da: 00 00                        	<unknown>
     9dc: 13 25 00 00                  	slti	a0, zero, 0
     9e0: 00 35                        	<unknown>
     9e2: 06 00                        	<unknown>
     9e4: 00 14                        	<unknown>
     9e6: 62 04                        	<unknown>
     9e8: 00 00                        	<unknown>
     9ea: 14 05                        	<unknown>
     9ec: 01 00                        	<unknown>
     9ee: 00 00                        	<unknown>
     9f0: 0f 04 21 06                  	<unknown>
     9f4: 00 00                        	<unknown>
     9f6: 08 48                        	<unknown>
     9f8: 00 00                        	<unknown>
     9fa: 00 4b                        	<unknown>
     9fc: 06 00                        	<unknown>
     9fe: 00 09                        	<unknown>
     a00: 2c 00                        	<unknown>
     a02: 00 00                        	<unknown>
     a04: 02 00                        	<unknown>
     a06: 08 48                        	<unknown>
     a08: 00 00                        	<unknown>
     a0a: 00 5b                        	<unknown>
     a0c: 06 00                        	<unknown>
     a0e: 00 09                        	<unknown>
     a10: 2c 00                        	<unknown>
     a12: 00 00                        	<unknown>
     a14: 00 00                        	<unknown>
     a16: 04 78                        	<unknown>
     a18: 04 00                        	<unknown>
     a1a: 00 04                        	<unknown>
     a1c: 24 01                        	<unknown>
     a1e: 1a 01                        	<unknown>
     a20: 03 00 00 19                  	lb	zero, 400(zero)
     a24: 5d 08                        	<unknown>
     a26: 00 00                        	<unknown>
     a28: 0c 04                        	<unknown>
     a2a: 28 01                        	<unknown>
     a2c: 08 a1                        	<unknown>
     a2e: 06 00                        	<unknown>
     a30: 00 17                        	<unknown>
     a32: 5d 07                        	<unknown>
     a34: 00 00                        	<unknown>
     a36: 04 2a                        	<unknown>
     a38: 01 11                        	<unknown>
     a3a: a1 06                        	<unknown>
     a3c: 00 00                        	<unknown>
     a3e: 00 17                        	<unknown>
     a40: 61 05                        	<unknown>
     a42: 00 00                        	<unknown>
     a44: 04 2b                        	<unknown>
     a46: 01 07                        	<unknown>
     a48: 25 00                        	<unknown>
     a4a: 00 00                        	<unknown>
     a4c: 04 17                        	<unknown>
     a4e: 2c 07                        	<unknown>
     a50: 00 00                        	<unknown>
     a52: 04 2c                        	<unknown>
     a54: 01 0b                        	<unknown>
     a56: a7 06 00 00                  	<unknown>
     a5a: 08 00                        	<unknown>
     a5c: 0f 04 68 06                  	<unknown>
     a60: 00 00                        	<unknown>
     a62: 0f 04 5b 06                  	<unknown>
     a66: 00 00                        	<unknown>
     a68: 19 38                        	<unknown>
     a6a: 03 00 00 0e                  	lb	zero, 224(zero)
     a6e: 04 44                        	<unknown>
     a70: 01 08                        	<unknown>
     a72: e6 06                        	<unknown>
     a74: 00 00                        	<unknown>
     a76: 17 b4 07 00                  	auipc	s0, 123
     a7a: 00 04                        	<unknown>
     a7c: 45 01                        	<unknown>
     a7e: 12 e6                        	<unknown>
     a80: 06 00                        	<unknown>
     a82: 00 00                        	<unknown>
     a84: 17 cc 05 00                  	auipc	s8, 92
     a88: 00 04                        	<unknown>
     a8a: 46 01                        	<unknown>
     a8c: 12 e6                        	<unknown>
     a8e: 06 00                        	<unknown>
     a90: 00 06                        	<unknown>
     a92: 17 16 08 00                  	auipc	a2, 129
     a96: 00 04                        	<unknown>
     a98: 47 01 12 56                  	<unknown>
     a9c: 00 00                        	<unknown>
     a9e: 00 0c                        	<unknown>
     aa0: 00 08                        	<unknown>
     aa2: 56 00                        	<unknown>
     aa4: 00 00                        	<unknown>
     aa6: f6 06                        	<unknown>
     aa8: 00 00                        	<unknown>
     aaa: 09 2c                        	<unknown>
     aac: 00 00                        	<unknown>
     aae: 00 02                        	<unknown>
     ab0: 00 1a                        	<unknown>
     ab2: d0 04                        	<unknown>
     ab4: 85 02                        	<unknown>
     ab6: 07 0b 08 00                  	<unknown>
     aba: 00 17                        	<unknown>
     abc: 06 06                        	<unknown>
     abe: 00 00                        	<unknown>
     ac0: 04 87                        	<unknown>
     ac2: 02 18                        	<unknown>
     ac4: 2c 00                        	<unknown>
     ac6: 00 00                        	<unknown>
     ac8: 00 17                        	<unknown>
     aca: f9 07                        	<unknown>
     acc: 00 00                        	<unknown>
     ace: 04 88                        	<unknown>
     ad0: 02 12                        	<unknown>
     ad2: b6 05                        	<unknown>
     ad4: 00 00                        	<unknown>
     ad6: 04 17                        	<unknown>
     ad8: 86 05                        	<unknown>
     ada: 00 00                        	<unknown>
     adc: 04 89                        	<unknown>
     ade: 02 10                        	<unknown>
     ae0: 0b 08 00 00                  	<unknown>
     ae4: 08 17                        	<unknown>
     ae6: af 08 00 00                  	<unknown>
     aea: 04 8a                        	<unknown>
     aec: 02 17                        	<unknown>
     aee: 9b 01 00 00                  	<unknown>
     af2: 24 17                        	<unknown>
     af4: 0d 05                        	<unknown>
     af6: 00 00                        	<unknown>
     af8: 04 8b                        	<unknown>
     afa: 02 0f                        	<unknown>
     afc: 25 00                        	<unknown>
     afe: 00 00                        	<unknown>
     b00: 48 17                        	<unknown>
     b02: 58 07                        	<unknown>
     b04: 00 00                        	<unknown>
     b06: 04 8c                        	<unknown>
     b08: 02 2c                        	<unknown>
     b0a: 6b 00 00 00                  	<unknown>
     b0e: 50 17                        	<unknown>
     b10: c7 08 00 00                  	<unknown>
     b14: 04 8d                        	<unknown>
     b16: 02 1a                        	<unknown>
     b18: ad 06                        	<unknown>
     b1a: 00 00                        	<unknown>
     b1c: 58 17                        	<unknown>
     b1e: 63 07 00 00                  	beqz	zero, 14
     b22: 04 8e                        	<unknown>
     b24: 02 16                        	<unknown>
     b26: f9 00                        	<unknown>
     b28: 00 00                        	<unknown>
     b2a: 68 17                        	<unknown>
     b2c: e7 08 00 00                  	jalr	a7, zero
     b30: 04 8f                        	<unknown>
     b32: 02 16                        	<unknown>
     b34: f9 00                        	<unknown>
     b36: 00 00                        	<unknown>
     b38: 70 17                        	<unknown>
     b3a: fd 03                        	<unknown>
     b3c: 00 00                        	<unknown>
     b3e: 04 90                        	<unknown>
     b40: 02 16                        	<unknown>
     b42: f9 00                        	<unknown>
     b44: 00 00                        	<unknown>
     b46: 78 17                        	<unknown>
     b48: 73 08 00 00                  	<unknown>
     b4c: 04 91                        	<unknown>
     b4e: 02 10                        	<unknown>
     b50: 1b 08 00 00                  	<unknown>
     b54: 80 17                        	<unknown>
     b56: 7a 05                        	<unknown>
     b58: 00 00                        	<unknown>
     b5a: 04 92                        	<unknown>
     b5c: 02 10                        	<unknown>
     b5e: 2b 08 00 00                  	<unknown>
     b62: 88 17                        	<unknown>
     b64: 64 03                        	<unknown>
     b66: 00 00                        	<unknown>
     b68: 04 93                        	<unknown>
     b6a: 02 0f                        	<unknown>
     b6c: 25 00                        	<unknown>
     b6e: 00 00                        	<unknown>
     b70: a0 17                        	<unknown>
     b72: cf 04 00 00                  	<unknown>
     b76: 04 94                        	<unknown>
     b78: 02 16                        	<unknown>
     b7a: f9 00                        	<unknown>
     b7c: 00 00                        	<unknown>
     b7e: a4 17                        	<unknown>
     b80: e6 03                        	<unknown>
     b82: 00 00                        	<unknown>
     b84: 04 95                        	<unknown>
     b86: 02 16                        	<unknown>
     b88: f9 00                        	<unknown>
     b8a: 00 00                        	<unknown>
     b8c: ac 17                        	<unknown>
     b8e: be 04                        	<unknown>
     b90: 00 00                        	<unknown>
     b92: 04 96                        	<unknown>
     b94: 02 16                        	<unknown>
     b96: f9 00                        	<unknown>
     b98: 00 00                        	<unknown>
     b9a: b4 17                        	<unknown>
     b9c: 77 03 00 00                  	<unknown>
     ba0: 04 97                        	<unknown>
     ba2: 02 16                        	<unknown>
     ba4: f9 00                        	<unknown>
     ba6: 00 00                        	<unknown>
     ba8: bc 17                        	<unknown>
     baa: a3 03 00 00                  	sb	zero, 7(zero)
     bae: 04 98                        	<unknown>
     bb0: 02 16                        	<unknown>
     bb2: f9 00                        	<unknown>
     bb4: 00 00                        	<unknown>
     bb6: c4 17                        	<unknown>
     bb8: 01 07                        	<unknown>
     bba: 00 00                        	<unknown>
     bbc: 04 99                        	<unknown>
     bbe: 02 08                        	<unknown>
     bc0: 25 00                        	<unknown>
     bc2: 00 00                        	<unknown>
     bc4: cc 00                        	<unknown>
     bc6: 08 bc                        	<unknown>
     bc8: 05 00                        	<unknown>
     bca: 00 1b                        	<unknown>
     bcc: 08 00                        	<unknown>
     bce: 00 09                        	<unknown>
     bd0: 2c 00                        	<unknown>
     bd2: 00 00                        	<unknown>
     bd4: 19 00                        	<unknown>
     bd6: 08 bc                        	<unknown>
     bd8: 05 00                        	<unknown>
     bda: 00 2b                        	<unknown>
     bdc: 08 00                        	<unknown>
     bde: 00 09                        	<unknown>
     be0: 2c 00                        	<unknown>
     be2: 00 00                        	<unknown>
     be4: 07 00 08 bc                  	<unknown>
     be8: 05 00                        	<unknown>
     bea: 00 3b                        	<unknown>
     bec: 08 00                        	<unknown>
     bee: 00 09                        	<unknown>
     bf0: 2c 00                        	<unknown>
     bf2: 00 00                        	<unknown>
     bf4: 17 00 1a f0                  	auipc	zero, 983456
     bf8: 04 9e                        	<unknown>
     bfa: 02 07                        	<unknown>
     bfc: 62 08                        	<unknown>
     bfe: 00 00                        	<unknown>
     c00: 17 33 06 00                  	auipc	t1, 99
     c04: 00 04                        	<unknown>
     c06: a1 02                        	<unknown>
     c08: 1b 62 08 00                  	<unknown>
     c0c: 00 00                        	<unknown>
     c0e: 17 1c 05 00                  	auipc	s8, 81
     c12: 00 04                        	<unknown>
     c14: a2 02                        	<unknown>
     c16: 18 72                        	<unknown>
     c18: 08 00                        	<unknown>
     c1a: 00 78                        	<unknown>
     c1c: 00 08                        	<unknown>
     c1e: fb 02 00 00                  	<unknown>
     c22: 72 08                        	<unknown>
     c24: 00 00                        	<unknown>
     c26: 09 2c                        	<unknown>
     c28: 00 00                        	<unknown>
     c2a: 00 1d                        	<unknown>
     c2c: 00 08                        	<unknown>
     c2e: 2c 00                        	<unknown>
     c30: 00 00                        	<unknown>
     c32: 82 08                        	<unknown>
     c34: 00 00                        	<unknown>
     c36: 09 2c                        	<unknown>
     c38: 00 00                        	<unknown>
     c3a: 00 1d                        	<unknown>
     c3c: 00 1b                        	<unknown>
     c3e: f0 04                        	<unknown>
     c40: 83 02 03 a7                  	lb	t0, -1424(t1)
     c44: 08 00                        	<unknown>
     c46: 00 1c                        	<unknown>
     c48: ad 07                        	<unknown>
     c4a: 00 00                        	<unknown>
     c4c: 04 9a                        	<unknown>
     c4e: 02 0b                        	<unknown>
     c50: f6 06                        	<unknown>
     c52: 00 00                        	<unknown>
     c54: 1c 9c                        	<unknown>
     c56: 08 00                        	<unknown>
     c58: 00 04                        	<unknown>
     c5a: a3 02 0b 3b                  	sb	a6, 933(s6)
     c5e: 08 00                        	<unknown>
     c60: 00 00                        	<unknown>
     c62: 08 bc                        	<unknown>
     c64: 05 00                        	<unknown>
     c66: 00 b7                        	<unknown>
     c68: 08 00                        	<unknown>
     c6a: 00 09                        	<unknown>
     c6c: 2c 00                        	<unknown>
     c6e: 00 00                        	<unknown>
     c70: 18 00                        	<unknown>
     c72: 1d db                        	<unknown>
     c74: 03 00 00 0f                  	lb	zero, 240(zero)
     c78: 04 b7                        	<unknown>
     c7a: 08 00                        	<unknown>
     c7c: 00 1e                        	<unknown>
     c7e: cd 08                        	<unknown>
     c80: 00 00                        	<unknown>
     c82: 14 62                        	<unknown>
     c84: 04 00                        	<unknown>
     c86: 00 00                        	<unknown>
     c88: 0f 04 c2 08                  	<unknown>
     c8c: 00 00                        	<unknown>
     c8e: 0f 04 85 01                  	<unknown>
     c92: 00 00                        	<unknown>
     c94: 1e e4                        	<unknown>
     c96: 08 00                        	<unknown>
     c98: 00 14                        	<unknown>
     c9a: 25 00                        	<unknown>
     c9c: 00 00                        	<unknown>
     c9e: 00 0f                        	<unknown>
     ca0: 04 ea                        	<unknown>
     ca2: 08 00                        	<unknown>
     ca4: 00 0f                        	<unknown>
     ca6: 04 d9                        	<unknown>
     ca8: 08 00                        	<unknown>
     caa: 00 08                        	<unknown>
     cac: 5b 06 00 00                  	<unknown>
     cb0: 00 09                        	<unknown>
     cb2: 00 00                        	<unknown>
     cb4: 09 2c                        	<unknown>
     cb6: 00 00                        	<unknown>
     cb8: 00 02                        	<unknown>
     cba: 00 1f                        	<unknown>
     cbc: 3f 08 00 00                  	<unknown>
     cc0: 04 33                        	<unknown>
     cc2: 03 17 62 04                  	lh	a4, 70(tp)
     cc6: 00 00                        	<unknown>
     cc8: 1f 38 08 00                  	<unknown>
     ccc: 00 04                        	<unknown>
     cce: 34 03                        	<unknown>
     cd0: 1d 68                        	<unknown>
     cd2: 04 00                        	<unknown>
     cd4: 00 08                        	<unknown>
     cd6: f2 05                        	<unknown>
     cd8: 00 00                        	<unknown>
     cda: 25 09                        	<unknown>
     cdc: 00 00                        	<unknown>
     cde: 20 00                        	<unknown>
     ce0: 15 1a                        	<unknown>
     ce2: 09 00                        	<unknown>
     ce4: 00 21                        	<unknown>
     ce6: a9 04                        	<unknown>
     ce8: 00 00                        	<unknown>
     cea: 06 14                        	<unknown>
     cec: 24 25                        	<unknown>
     cee: 09 00                        	<unknown>
     cf0: 00 21                        	<unknown>
     cf2: 4e 07                        	<unknown>
     cf4: 00 00                        	<unknown>
     cf6: 06 15                        	<unknown>
     cf8: 15 25                        	<unknown>
     cfa: 00 00                        	<unknown>
     cfc: 00 0f                        	<unknown>
     cfe: 04 48                        	<unknown>
     d00: 09 00                        	<unknown>
     d02: 00 13                        	<unknown>
     d04: 25 00                        	<unknown>
     d06: 00 00                        	<unknown>
     d08: 5c 09                        	<unknown>
     d0a: 00 00                        	<unknown>
     d0c: 14 5c                        	<unknown>
     d0e: 09 00                        	<unknown>
     d10: 00 14                        	<unknown>
     d12: 5c 09                        	<unknown>
     d14: 00 00                        	<unknown>
     d16: 00 0f                        	<unknown>
     d18: 04 62                        	<unknown>
     d1a: 09 00                        	<unknown>
     d1c: 00 22                        	<unknown>
     d1e: 21 59                        	<unknown>
     d20: 06 00                        	<unknown>
     d22: 00 07                        	<unknown>
     d24: 67 0e b6 05                  	jalr	t3, 91(a2)
     d28: 00 00                        	<unknown>
     d2a: 21 a1                        	<unknown>
     d2c: 05 00                        	<unknown>
     d2e: 00 08                        	<unknown>
     d30: 10 0f                        	<unknown>
     d32: 7b 09 00 00                  	<unknown>
     d36: 0f 04 b6 05                  	<unknown>
     d3a: 00 00                        	<unknown>
     d3c: 21 5c                        	<unknown>
     d3e: 06 00                        	<unknown>
     d40: 00 08                        	<unknown>
     d42: fc 0e                        	<unknown>
     d44: b6 05                        	<unknown>
     d46: 00 00                        	<unknown>
     d48: 21 2c                        	<unknown>
     d4a: 06 00                        	<unknown>
     d4c: 00 08                        	<unknown>
     d4e: fd 0c                        	<unknown>
     d50: 25 00                        	<unknown>
     d52: 00 00                        	<unknown>
     d54: 21 f2                        	<unknown>
     d56: 07 00 00 08                  	<unknown>
     d5a: fd 14                        	<unknown>
     d5c: 25 00                        	<unknown>
     d5e: 00 00                        	<unknown>
     d60: 21 d6                        	<unknown>
     d62: 08 00                        	<unknown>
     d64: 00 08                        	<unknown>
     d66: fd 1c                        	<unknown>
     d68: 25 00                        	<unknown>
     d6a: 00 00                        	<unknown>
     d6c: 21 e1                        	<unknown>
     d6e: 05 00                        	<unknown>
     d70: 00 08                        	<unknown>
     d72: ff 0c 25 00                  	<unknown>
     d76: 00 00                        	<unknown>
     d78: 21 7f                        	<unknown>
     d7a: 06 00                        	<unknown>
     d7c: 00 09                        	<unknown>
     d7e: 9a 16                        	<unknown>
     d80: 5d 00                        	<unknown>
     d82: 00 00                        	<unknown>
     d84: 21 4b                        	<unknown>
     d86: 03 00 00 09                  	lb	zero, 144(zero)
     d8a: 9b 15 25 00                  	<unknown>
     d8e: 00 00                        	<unknown>
     d90: 08 b6                        	<unknown>
     d92: 05 00                        	<unknown>
     d94: 00 e5                        	<unknown>
     d96: 09 00                        	<unknown>
     d98: 00 09                        	<unknown>
     d9a: 2c 00                        	<unknown>
     d9c: 00 00                        	<unknown>
     d9e: 01 00                        	<unknown>
     da0: 21 f5                        	<unknown>
     da2: 03 00 00 09                  	lb	zero, 144(zero)
     da6: 9e 17                        	<unknown>
     da8: d5 09                        	<unknown>
     daa: 00 00                        	<unknown>
     dac: 05 57                        	<unknown>
     dae: 05 00                        	<unknown>
     db0: 00 0a                        	<unknown>
     db2: 2a 16                        	<unknown>
     db4: 2c 00                        	<unknown>
     db6: 00 00                        	<unknown>
     db8: 05 3c                        	<unknown>
     dba: 07 00 00 0a                  	<unknown>
     dbe: 2f 15 09 0a                  	<unknown>
     dc2: 00 00                        	<unknown>
     dc4: 0f 04 0f 0a                  	<unknown>
     dc8: 00 00                        	<unknown>
     dca: 13 f1 09 00                  	andi	sp, s3, 0
     dce: 00 1e                        	<unknown>
     dd0: 0a 00                        	<unknown>
     dd2: 00 14                        	<unknown>
     dd4: 5c 09                        	<unknown>
     dd6: 00 00                        	<unknown>
     dd8: 00 05                        	<unknown>
     dda: 04 09                        	<unknown>
     ddc: 00 00                        	<unknown>
     dde: 0a 36                        	<unknown>
     de0: 0f 42 09 00                  	<unknown>
     de4: 00 21                        	<unknown>
     de6: 20 03                        	<unknown>
     de8: 00 00                        	<unknown>
     dea: 0a bb                        	<unknown>
     dec: 12 fd                        	<unknown>
     dee: 09 00                        	<unknown>
     df0: 00 21                        	<unknown>
     df2: 23 08 00 00                  	sb	zero, 16(zero)
     df6: 0a be                        	<unknown>
     df8: 10 1e                        	<unknown>
     dfa: 0a 00                        	<unknown>
     dfc: 00 23                        	<unknown>
     dfe: 2a 05                        	<unknown>
     e00: 00 00                        	<unknown>
     e02: 07 04 2c 00                  	<unknown>
     e06: 00 00                        	<unknown>
     e08: 0b 18 06 7f                  	<unknown>
     e0c: 0a 00                        	<unknown>
     e0e: 00 24                        	<unknown>
     e10: dc 06                        	<unknown>
     e12: 00 00                        	<unknown>
     e14: 00 24                        	<unknown>
     e16: c1 05                        	<unknown>
     e18: 00 00                        	<unknown>
     e1a: 01 24                        	<unknown>
     e1c: fb 05 00 00                  	<unknown>
     e20: 02 24                        	<unknown>
     e22: b6 05                        	<unknown>
     e24: 00 00                        	<unknown>
     e26: 03 24 d3 06                  	lw	s0, 109(t1)
     e2a: 00 00                        	<unknown>
     e2c: 04 24                        	<unknown>
     e2e: dd 08                        	<unknown>
     e30: 00 00                        	<unknown>
     e32: 05 24                        	<unknown>
     e34: cc 08                        	<unknown>
     e36: 00 00                        	<unknown>
     e38: 06 00                        	<unknown>
     e3a: 21 d1                        	<unknown>
     e3c: 03 00 00 0b                  	lb	zero, 176(zero)
     e40: 21 1c                        	<unknown>
     e42: 42 0a                        	<unknown>
     e44: 00 00                        	<unknown>
     e46: 23 13 06 00                  	sh	zero, 6(a2)
     e4a: 00 07                        	<unknown>
     e4c: 04 2c                        	<unknown>
     e4e: 00 00                        	<unknown>
     e50: 00 0b                        	<unknown>
     e52: 23 06 b0 0a                  	sb	a1, 172(zero)
     e56: 00 00                        	<unknown>
     e58: 24 32                        	<unknown>
     e5a: 07 00 00 00                  	<unknown>
     e5e: 24 f2                        	<unknown>
     e60: 06 00                        	<unknown>
     e62: 00 01                        	<unknown>
     e64: 24 06                        	<unknown>
     e66: 08 00                        	<unknown>
     e68: 00 02                        	<unknown>
     e6a: 00 21                        	<unknown>
     e6c: dd 04                        	<unknown>
     e6e: 00 00                        	<unknown>
     e70: 0b 28 1e 8b                  	<unknown>
     e74: 0a 00                        	<unknown>
     e76: 00 23                        	<unknown>
     e78: 86 03                        	<unknown>
     e7a: 00 00                        	<unknown>
     e7c: 07 04 2c 00                  	<unknown>
     e80: 00 00                        	<unknown>
     e82: 0b 2b 06 db                  	<unknown>
     e86: 0a 00                        	<unknown>
     e88: 00 24                        	<unknown>
     e8a: ea 07                        	<unknown>
     e8c: 00 00                        	<unknown>
     e8e: 00 24                        	<unknown>
     e90: d8 07                        	<unknown>
     e92: 00 00                        	<unknown>
     e94: 01 00                        	<unknown>
     e96: 21 91                        	<unknown>
     e98: 04 00                        	<unknown>
     e9a: 00 0b                        	<unknown>
     e9c: 2f 2a bc 0a                  	<unknown>
     ea0: 00 00                        	<unknown>
     ea2: 21 d2                        	<unknown>
     ea4: 05 00                        	<unknown>
     ea6: 00 0c                        	<unknown>
     ea8: 29 1a                        	<unknown>
     eaa: 25 09                        	<unknown>
     eac: 00 00                        	<unknown>
     eae: 21 31                        	<unknown>
     eb0: 04 00                        	<unknown>
     eb2: 00 0c                        	<unknown>
     eb4: 38 1a                        	<unknown>
     eb6: 25 09                        	<unknown>
     eb8: 00 00                        	<unknown>
     eba: 05 35                        	<unknown>
     ebc: 01 00                        	<unknown>
     ebe: 00 0d                        	<unknown>
     ec0: 7b 16 48 00                  	<unknown>
     ec4: 00 00                        	<unknown>
     ec6: 15 ff                        	<unknown>
     ec8: 0a 00                        	<unknown>
     eca: 00 05                        	<unknown>
     ecc: 8a 04                        	<unknown>
     ece: 00 00                        	<unknown>
     ed0: 0d 80                        	<unknown>
     ed2: 0f 25 00 00                  	<unknown>
     ed6: 00 05                        	<unknown>
     ed8: 89 04                        	<unknown>
     eda: 00 00                        	<unknown>
     edc: 0d 81                        	<unknown>
     ede: 16 2c                        	<unknown>
     ee0: 00 00                        	<unknown>
     ee2: 00 03                        	<unknown>
     ee4: 04 04                        	<unknown>
     ee6: 42 06                        	<unknown>
     ee8: 00 00                        	<unknown>
     eea: 03 08 03 3a                  	lb	a6, 928(t1)
     eee: 06 00                        	<unknown>
     ef0: 00 03                        	<unknown>
     ef2: 08 04                        	<unknown>
     ef4: ca 03                        	<unknown>
     ef6: 00 00                        	<unknown>
     ef8: 03 10 03 55                  	lh	zero, 1360(t1)
     efc: 03 00 00 03                  	lb	zero, 48(zero)
     f00: 20 03                        	<unknown>
     f02: bd 03                        	<unknown>
     f04: 00 00                        	<unknown>
     f06: 08 0b                        	<unknown>
     f08: 0b 00 00 5b                  	<unknown>
     f0c: 0b 00 00 09                  	<unknown>
     f10: 2c 00                        	<unknown>
     f12: 00 00                        	<unknown>
     f14: ff 00 15 4b                  	<unknown>
     f18: 0b 00 00 1f                  	<unknown>
     f1c: 87 08 00 00                  	<unknown>
     f20: 0d fc                        	<unknown>
     f22: 01 16                        	<unknown>
     f24: 5b 0b 00 00                  	<unknown>
     f28: 1f 3d 01 00                  	<unknown>
     f2c: 00 0d                        	<unknown>
     f2e: 02 02                        	<unknown>
     f30: 16 5b                        	<unknown>
     f32: 0b 00 00 25                  	<unknown>
     f36: 68 05                        	<unknown>
     f38: 00 00                        	<unknown>
     f3a: 01 c2                        	<unknown>
     f3c: 02 01                        	<unknown>
     f3e: 25 00                        	<unknown>
     f40: 00 00                        	<unknown>
     f42: ec 0d                        	<unknown>
     f44: 00 80                        	<unknown>
     f46: 4c 00                        	<unknown>
     f48: 00 00                        	<unknown>
     f4a: 01 9c                        	<unknown>
     f4c: 26 78                        	<unknown>
     f4e: 00 01                        	<unknown>
     f50: c2 02                        	<unknown>
     f52: 12 1c                        	<unknown>
     f54: 0b 00 00 58                  	<unknown>
     f58: 07 00 00 27                  	<unknown>
     f5c: 72 65                        	<unknown>
     f5e: 74 00                        	<unknown>
     f60: 01 c4                        	<unknown>
     f62: 02 09                        	<unknown>
     f64: 10 0b                        	<unknown>
     f66: 00 00                        	<unknown>
     f68: 28 c0                        	<unknown>
     f6a: 00 00                        	<unknown>
     f6c: 00 29                        	<unknown>
     f6e: 33 08 00 00                  	add	a6, zero, zero
     f72: 01 c6                        	<unknown>
     f74: 02 03                        	<unknown>
     f76: 1c 0b                        	<unknown>
     f78: 00 00                        	<unknown>
     f7a: 84 07                        	<unknown>
     f7c: 00 00                        	<unknown>
     f7e: 2a 5f                        	<unknown>
     f80: 5f 61 00 01                  	<unknown>
     f84: c6 02                        	<unknown>
     f86: 03 1c 0b 00                  	lh	s8, 0(s6)
     f8a: 00 b0                        	<unknown>
     f8c: 07 00 00 00                  	<unknown>
     f90: 00 00                        	<unknown>
     f92: 66 0b                        	<unknown>
     f94: 00 00                        	<unknown>
     f96: 04 00                        	<unknown>
     f98: b1 03                        	<unknown>
     f9a: 00 00                        	<unknown>
     f9c: 04 01                        	<unknown>
     f9e: 07 02 00 00                  	<unknown>
     fa2: 0c ac                        	<unknown>
     fa4: 06 00                        	<unknown>
     fa6: 00 63                        	<unknown>
     fa8: 01 00                        	<unknown>
     faa: 00 36                        	<unknown>
     fac: 0b 00 00 02                  	<unknown>
     fb0: 04 05                        	<unknown>
     fb2: 69 6e                        	<unknown>
     fb4: 74 00                        	<unknown>
     fb6: 03 04 07 56                  	lb	s0, 1376(a4)
     fba: 01 00                        	<unknown>
     fbc: 00 03                        	<unknown>
     fbe: 08 05                        	<unknown>
     fc0: f9 01                        	<unknown>
     fc2: 00 00                        	<unknown>
     fc4: 03 10 04 c5                  	lh	zero, -944(s0)
     fc8: 03 00 00 03                  	lb	zero, 48(zero)
     fcc: 01 06                        	<unknown>
     fce: 93 00 00 00                  	mv	ra, zero
     fd2: 03 01 08 91                  	lb	sp, -1776(a6)
     fd6: 00 00                        	<unknown>
     fd8: 00 03                        	<unknown>
     fda: 02 05                        	<unknown>
     fdc: 16 03                        	<unknown>
     fde: 00 00                        	<unknown>
     fe0: 03 02 07 bd                  	lb	tp, -1072(a4)
     fe4: 00 00                        	<unknown>
     fe6: 00 03                        	<unknown>
     fe8: 04 05                        	<unknown>
     fea: fe 01                        	<unknown>
     fec: 00 00                        	<unknown>
     fee: 03 04 07 51                  	lb	s0, 1296(a4)
     ff2: 01 00                        	<unknown>
     ff4: 00 03                        	<unknown>
     ff6: 08 07                        	<unknown>
     ff8: 4c 01                        	<unknown>
     ffa: 00 00                        	<unknown>
     ffc: 04 a9                        	<unknown>
     ffe: 05 00                        	<unknown>
    1000: 00 01                        	<unknown>
    1002: 5e 01                        	<unknown>
    1004: 17 24 00 00                  	auipc	s0, 2
    1008: 00 05                        	<unknown>
    100a: 6e 06                        	<unknown>
    100c: 00 00                        	<unknown>
    100e: 02 2e                        	<unknown>
    1010: 0e 55                        	<unknown>
    1012: 00 00                        	<unknown>
    1014: 00 05                        	<unknown>
    1016: d0 07                        	<unknown>
    1018: 00 00                        	<unknown>
    101a: 02 74                        	<unknown>
    101c: 0e 55                        	<unknown>
    101e: 00 00                        	<unknown>
    1020: 00 05                        	<unknown>
    1022: 6a 08                        	<unknown>
    1024: 00 00                        	<unknown>
    1026: 02 93                        	<unknown>
    1028: 17 1d 00 00                  	auipc	s10, 1
    102c: 00 06                        	<unknown>
    102e: 04 02                        	<unknown>
    1030: a5 03                        	<unknown>
    1032: bd 00                        	<unknown>
    1034: 00 00                        	<unknown>
    1036: 07 9b 05 00                  	<unknown>
    103a: 00 02                        	<unknown>
    103c: a7 0c 6a 00                  	<unknown>
    1040: 00 00                        	<unknown>
    1042: 07 42 05 00                  	<unknown>
    1046: 00 02                        	<unknown>
    1048: a8 13                        	<unknown>
    104a: bd 00                        	<unknown>
    104c: 00 00                        	<unknown>
    104e: 00 08                        	<unknown>
    1050: 40 00                        	<unknown>
    1052: 00 00                        	<unknown>
    1054: cd 00                        	<unknown>
    1056: 00 00                        	<unknown>
    1058: 09 24                        	<unknown>
    105a: 00 00                        	<unknown>
    105c: 00 03                        	<unknown>
    105e: 00 0a                        	<unknown>
    1060: 08 02                        	<unknown>
    1062: a2 09                        	<unknown>
    1064: f1 00                        	<unknown>
    1066: 00 00                        	<unknown>
    1068: 0b ba 07 00                  	<unknown>
    106c: 00 02                        	<unknown>
    106e: a4 07                        	<unknown>
    1070: 1d 00                        	<unknown>
    1072: 00 00                        	<unknown>
    1074: 00 0b                        	<unknown>
    1076: c2 07                        	<unknown>
    1078: 00 00                        	<unknown>
    107a: 02 a9                        	<unknown>
    107c: 05 9b                        	<unknown>
    107e: 00 00                        	<unknown>
    1080: 00 04                        	<unknown>
    1082: 00 05                        	<unknown>
    1084: 89 06                        	<unknown>
    1086: 00 00                        	<unknown>
    1088: 02 aa                        	<unknown>
    108a: 03 cd 00 00                  	lbu	s10, 0(ra)
    108e: 00 0c                        	<unknown>
    1090: 04 05                        	<unknown>
    1092: 1b 08 00 00                  	<unknown>
    1096: 03 16 19 5c                  	lh	a2, 1473(s2)
    109a: 00 00                        	<unknown>
    109c: 00 05                        	<unknown>
    109e: 94 06                        	<unknown>
    10a0: 00 00                        	<unknown>
    10a2: 04 0c                        	<unknown>
    10a4: 0d 1d                        	<unknown>
    10a6: 00 00                        	<unknown>
    10a8: 00 05                        	<unknown>
    10aa: 0a 07                        	<unknown>
    10ac: 00 00                        	<unknown>
    10ae: 03 23 1b 0b                  	lw	t1, 177(s6)
    10b2: 01 00                        	<unknown>
    10b4: 00 0d                        	<unknown>
    10b6: 05 05                        	<unknown>
    10b8: 00 00                        	<unknown>
    10ba: 18 03                        	<unknown>
    10bc: 34 08                        	<unknown>
    10be: 7d 01                        	<unknown>
    10c0: 00 00                        	<unknown>
    10c2: 0b 5d 07 00                  	<unknown>
    10c6: 00 03                        	<unknown>
    10c8: 36 13                        	<unknown>
    10ca: 7d 01                        	<unknown>
    10cc: 00 00                        	<unknown>
    10ce: 00 0e                        	<unknown>
    10d0: 5f 6b 00 03                  	<unknown>
    10d4: 37 07 1d 00                  	lui	a4, 464
    10d8: 00 00                        	<unknown>
    10da: 04 0b                        	<unknown>
    10dc: a5 07                        	<unknown>
    10de: 00 00                        	<unknown>
    10e0: 03 37 0b 1d                  	<unknown>
    10e4: 00 00                        	<unknown>
    10e6: 00 08                        	<unknown>
    10e8: 0b f7 04 00                  	<unknown>
    10ec: 00 03                        	<unknown>
    10ee: 37 14 1d 00                  	lui	s0, 465
    10f2: 00 00                        	<unknown>
    10f4: 0c 0b                        	<unknown>
    10f6: 73 04 00 00                  	<unknown>
    10fa: 03 37 1b 1d                  	<unknown>
    10fe: 00 00                        	<unknown>
    1100: 00 10                        	<unknown>
    1102: 0e 5f                        	<unknown>
    1104: 78 00                        	<unknown>
    1106: 03 38 0b 83                  	<unknown>
    110a: 01 00                        	<unknown>
    110c: 00 14                        	<unknown>
    110e: 00 0f                        	<unknown>
    1110: 04 23                        	<unknown>
    1112: 01 00                        	<unknown>
    1114: 00 08                        	<unknown>
    1116: ff 00 00 00                  	<unknown>
    111a: 93 01 00 00                  	mv	gp, zero
    111e: 09 24                        	<unknown>
    1120: 00 00                        	<unknown>
    1122: 00 00                        	<unknown>
    1124: 00 0d                        	<unknown>
    1126: 25 05                        	<unknown>
    1128: 00 00                        	<unknown>
    112a: 24 03                        	<unknown>
    112c: 3c 08                        	<unknown>
    112e: 16 02                        	<unknown>
    1130: 00 00                        	<unknown>
    1132: 0b 0b 04 00                  	<unknown>
    1136: 00 03                        	<unknown>
    1138: 3e 09                        	<unknown>
    113a: 1d 00                        	<unknown>
    113c: 00 00                        	<unknown>
    113e: 00 0b                        	<unknown>
    1140: be 08                        	<unknown>
    1142: 00 00                        	<unknown>
    1144: 03 3f 09 1d                  	<unknown>
    1148: 00 00                        	<unknown>
    114a: 00 04                        	<unknown>
    114c: 0b 27 04 00                  	<unknown>
    1150: 00 03                        	<unknown>
    1152: 40 09                        	<unknown>
    1154: 1d 00                        	<unknown>
    1156: 00 00                        	<unknown>
    1158: 08 0b                        	<unknown>
    115a: fa 08                        	<unknown>
    115c: 00 00                        	<unknown>
    115e: 03 41 09 1d                  	lbu	sp, 464(s2)
    1162: 00 00                        	<unknown>
    1164: 00 0c                        	<unknown>
    1166: 0b 48 06 00                  	<unknown>
    116a: 00 03                        	<unknown>
    116c: 42 09                        	<unknown>
    116e: 1d 00                        	<unknown>
    1170: 00 00                        	<unknown>
    1172: 10 0b                        	<unknown>
    1174: f1 05                        	<unknown>
    1176: 00 00                        	<unknown>
    1178: 03 43 09 1d                  	lbu	t1, 464(s2)
    117c: 00 00                        	<unknown>
    117e: 00 14                        	<unknown>
    1180: 0b 53 08 00                  	<unknown>
    1184: 00 03                        	<unknown>
    1186: 44 09                        	<unknown>
    1188: 1d 00                        	<unknown>
    118a: 00 00                        	<unknown>
    118c: 18 0b                        	<unknown>
    118e: 13 07 00 00                  	mv	a4, zero
    1192: 03 45 09 1d                  	lbu	a0, 464(s2)
    1196: 00 00                        	<unknown>
    1198: 00 1c                        	<unknown>
    119a: 0b a4 08 00                  	<unknown>
    119e: 00 03                        	<unknown>
    11a0: 46 09                        	<unknown>
    11a2: 1d 00                        	<unknown>
    11a4: 00 00                        	<unknown>
    11a6: 20 00                        	<unknown>
    11a8: 10 46                        	<unknown>
    11aa: 04 00                        	<unknown>
    11ac: 00 08                        	<unknown>
    11ae: 01 03                        	<unknown>
    11b0: 4f 08 5b 02                  	<unknown>
    11b4: 00 00                        	<unknown>
    11b6: 0b ea 04 00                  	<unknown>
    11ba: 00 03                        	<unknown>
    11bc: 50 0a                        	<unknown>
    11be: 5b 02 00 00                  	<unknown>
    11c2: 00 0b                        	<unknown>
    11c4: e6 06                        	<unknown>
    11c6: 00 00                        	<unknown>
    11c8: 03 51 09 5b                  	lhu	sp, 1456(s2)
    11cc: 02 00                        	<unknown>
    11ce: 00 80                        	<unknown>
    11d0: 11 0d                        	<unknown>
    11d2: 08 00                        	<unknown>
    11d4: 00 03                        	<unknown>
    11d6: 53 0a ff 00                  	<unknown>
    11da: 00 00                        	<unknown>
    11dc: 00 01                        	<unknown>
    11de: 11 6b                        	<unknown>
    11e0: 04 00                        	<unknown>
    11e2: 00 03                        	<unknown>
    11e4: 56 0a                        	<unknown>
    11e6: ff 00 00 00                  	<unknown>
    11ea: 04 01                        	<unknown>
    11ec: 00 08                        	<unknown>
    11ee: fd 00                        	<unknown>
    11f0: 00 00                        	<unknown>
    11f2: 6b 02 00 00                  	<unknown>
    11f6: 09 24                        	<unknown>
    11f8: 00 00                        	<unknown>
    11fa: 00 1f                        	<unknown>
    11fc: 00 10                        	<unknown>
    11fe: 51 06                        	<unknown>
    1200: 00 00                        	<unknown>
    1202: 90 01                        	<unknown>
    1204: 03 62 08 ae                  	<unknown>
    1208: 02 00                        	<unknown>
    120a: 00 0b                        	<unknown>
    120c: 5d 07                        	<unknown>
    120e: 00 00                        	<unknown>
    1210: 03 63 12 ae                  	<unknown>
    1214: 02 00                        	<unknown>
    1216: 00 00                        	<unknown>
    1218: 0b 75 07 00                  	<unknown>
    121c: 00 03                        	<unknown>
    121e: 64 06                        	<unknown>
    1220: 1d 00                        	<unknown>
    1222: 00 00                        	<unknown>
    1224: 04 0b                        	<unknown>
    1226: f2 04                        	<unknown>
    1228: 00 00                        	<unknown>
    122a: 03 66 09 b4                  	<unknown>
    122e: 02 00                        	<unknown>
    1230: 00 08                        	<unknown>
    1232: 0b 46 04 00                  	<unknown>
    1236: 00 03                        	<unknown>
    1238: 67 1e 16 02                  	<unknown>
    123c: 00 00                        	<unknown>
    123e: 88 00                        	<unknown>
    1240: 0f 04 6b 02                  	<unknown>
    1244: 00 00                        	<unknown>
    1246: 08 c4                        	<unknown>
    1248: 02 00                        	<unknown>
    124a: 00 c4                        	<unknown>
    124c: 02 00                        	<unknown>
    124e: 00 09                        	<unknown>
    1250: 24 00                        	<unknown>
    1252: 00 00                        	<unknown>
    1254: 1f 00 0f 04                  	<unknown>
    1258: ca 02                        	<unknown>
    125a: 00 00                        	<unknown>
    125c: 12 0d                        	<unknown>
    125e: 1d 07                        	<unknown>
    1260: 00 00                        	<unknown>
    1262: 08 03                        	<unknown>
    1264: 7a 08                        	<unknown>
    1266: f3 02 00 00                  	<unknown>
    126a: 0b 21 04 00                  	<unknown>
    126e: 00 03                        	<unknown>
    1270: 7b 11 f3 02                  	<unknown>
    1274: 00 00                        	<unknown>
    1276: 00 0b                        	<unknown>
    1278: 32 03                        	<unknown>
    127a: 00 00                        	<unknown>
    127c: 03 7c 06 1d                  	<unknown>
    1280: 00 00                        	<unknown>
    1282: 00 04                        	<unknown>
    1284: 00 0f                        	<unknown>
    1286: 04 40                        	<unknown>
    1288: 00 00                        	<unknown>
    128a: 00 0d                        	<unknown>
    128c: 46 07                        	<unknown>
    128e: 00 00                        	<unknown>
    1290: 68 03                        	<unknown>
    1292: ba 08                        	<unknown>
    1294: 3c 04                        	<unknown>
    1296: 00 00                        	<unknown>
    1298: 0e 5f                        	<unknown>
    129a: 70 00                        	<unknown>
    129c: 03 bb 12 f3                  	<unknown>
    12a0: 02 00                        	<unknown>
    12a2: 00 00                        	<unknown>
    12a4: 0e 5f                        	<unknown>
    12a6: 72 00                        	<unknown>
    12a8: 03 bc 07 1d                  	<unknown>
    12ac: 00 00                        	<unknown>
    12ae: 00 04                        	<unknown>
    12b0: 0e 5f                        	<unknown>
    12b2: 77 00 03 bd                  	<unknown>
    12b6: 07 1d 00 00                  	<unknown>
    12ba: 00 08                        	<unknown>
    12bc: 0b 64 04 00                  	<unknown>
    12c0: 00 03                        	<unknown>
    12c2: be 09                        	<unknown>
    12c4: 47 00 00 00                  	<unknown>
    12c8: 0c 0b                        	<unknown>
    12ca: 51 05                        	<unknown>
    12cc: 00 00                        	<unknown>
    12ce: 03 bf 09 47                  	<unknown>
    12d2: 00 00                        	<unknown>
    12d4: 00 0e                        	<unknown>
    12d6: 0e 5f                        	<unknown>
    12d8: 62 66                        	<unknown>
    12da: 00 03                        	<unknown>
    12dc: c0 11                        	<unknown>
    12de: cb 02 00 00                  	<unknown>
    12e2: 10 0b                        	<unknown>
    12e4: b4 03                        	<unknown>
    12e6: 00 00                        	<unknown>
    12e8: 03 c1 07 1d                  	lbu	sp, 464(a5)
    12ec: 00 00                        	<unknown>
    12ee: 00 18                        	<unknown>
    12f0: 0b 54 04 00                  	<unknown>
    12f4: 00 03                        	<unknown>
    12f6: c8 0a                        	<unknown>
    12f8: fd 00                        	<unknown>
    12fa: 00 00                        	<unknown>
    12fc: 1c 0b                        	<unknown>
    12fe: a6 06                        	<unknown>
    1300: 00 00                        	<unknown>
    1302: 03 ca 1d c0                  	lbu	s4, -1023(s11)
    1306: 05 00                        	<unknown>
    1308: 00 20                        	<unknown>
    130a: 0b ea 05 00                  	<unknown>
    130e: 00 03                        	<unknown>
    1310: cc 1d                        	<unknown>
    1312: ef 05 00 00                  	jal	a1, 0
    1316: 24 0b                        	<unknown>
    1318: ca 07                        	<unknown>
    131a: 00 00                        	<unknown>
    131c: 03 cf 0d 13                  	lbu	t5, 304(s11)
    1320: 06 00                        	<unknown>
    1322: 00 28                        	<unknown>
    1324: 0b 14 04 00                  	<unknown>
    1328: 00 03                        	<unknown>
    132a: d0 09                        	<unknown>
    132c: 2d 06                        	<unknown>
    132e: 00 00                        	<unknown>
    1330: 2c 0e                        	<unknown>
    1332: 5f 75 62 00                  	<unknown>
    1336: 03 d3 11 cb                  	lhu	t1, -847(gp)
    133a: 02 00                        	<unknown>
    133c: 00 30                        	<unknown>
    133e: 0e 5f                        	<unknown>
    1340: 75 70                        	<unknown>
    1342: 00 03                        	<unknown>
    1344: d4 12                        	<unknown>
    1346: f3 02 00 00                  	<unknown>
    134a: 38 0e                        	<unknown>
    134c: 5f 75 72 00                  	<unknown>
    1350: 03 d5 07 1d                  	lhu	a0, 464(a5)
    1354: 00 00                        	<unknown>
    1356: 00 3c                        	<unknown>
    1358: 0b 1b 04 00                  	<unknown>
    135c: 00 03                        	<unknown>
    135e: d8 11                        	<unknown>
    1360: 33 06 00 00                  	add	a2, zero, zero
    1364: 40 0b                        	<unknown>
    1366: 96 08                        	<unknown>
    1368: 00 00                        	<unknown>
    136a: 03 d9 11 43                  	lhu	s2, 1073(gp)
    136e: 06 00                        	<unknown>
    1370: 00 43                        	<unknown>
    1372: 0e 5f                        	<unknown>
    1374: 6c 62                        	<unknown>
    1376: 00 03                        	<unknown>
    1378: dc 11                        	<unknown>
    137a: cb 02 00 00                  	<unknown>
    137e: 44 0b                        	<unknown>
    1380: e1 07                        	<unknown>
    1382: 00 00                        	<unknown>
    1384: 03 df 07 1d                  	lhu	t5, 464(a5)
    1388: 00 00                        	<unknown>
    138a: 00 4c                        	<unknown>
    138c: 0b 24 06 00                  	<unknown>
    1390: 00 03                        	<unknown>
    1392: e0 0a                        	<unknown>
    1394: 77 00 00 00                  	<unknown>
    1398: 50 0b                        	<unknown>
    139a: 71 03                        	<unknown>
    139c: 00 00                        	<unknown>
    139e: 03 e3 12 5a                  	<unknown>
    13a2: 04 00                        	<unknown>
    13a4: 00 54                        	<unknown>
    13a6: 0b b0 05 00                  	<unknown>
    13aa: 00 03                        	<unknown>
    13ac: e7 0c 17 01                  	jalr	s9, 17(a4)
    13b0: 00 00                        	<unknown>
    13b2: 58 0b                        	<unknown>
    13b4: 39 05                        	<unknown>
    13b6: 00 00                        	<unknown>
    13b8: 03 e9 0e f1                  	<unknown>
    13bc: 00 00                        	<unknown>
    13be: 00 5c                        	<unknown>
    13c0: 0b 24 07 00                  	<unknown>
    13c4: 00 03                        	<unknown>
    13c6: ea 09                        	<unknown>
    13c8: 1d 00                        	<unknown>
    13ca: 00 00                        	<unknown>
    13cc: 64 00                        	<unknown>
    13ce: 13 8f 00 00                  	mv	t5, ra
    13d2: 00 5a                        	<unknown>
    13d4: 04 00                        	<unknown>
    13d6: 00 14                        	<unknown>
    13d8: 5a 04                        	<unknown>
    13da: 00 00                        	<unknown>
    13dc: 14 fd                        	<unknown>
    13de: 00 00                        	<unknown>
    13e0: 00 14                        	<unknown>
    13e2: ae 05                        	<unknown>
    13e4: 00 00                        	<unknown>
    13e6: 14 1d                        	<unknown>
    13e8: 00 00                        	<unknown>
    13ea: 00 00                        	<unknown>
    13ec: 0f 04 65 04                  	<unknown>
    13f0: 00 00                        	<unknown>
    13f2: 15 5a                        	<unknown>
    13f4: 04 00                        	<unknown>
    13f6: 00 16                        	<unknown>
    13f8: ad 07                        	<unknown>
    13fa: 00 00                        	<unknown>
    13fc: 28 04                        	<unknown>
    13fe: 03 65 02 08                  	<unknown>
    1402: ae 05                        	<unknown>
    1404: 00 00                        	<unknown>
    1406: 17 03 07 00                  	auipc	t1, 112
    140a: 00 03                        	<unknown>
    140c: 67 02 07 1d                  	jalr	tp, 464(a4)
    1410: 00 00                        	<unknown>
    1412: 00 00                        	<unknown>
    1414: 17 63 08 00                  	auipc	t1, 134
    1418: 00 03                        	<unknown>
    141a: 6c 02                        	<unknown>
    141c: 0b 9f 06 00                  	<unknown>
    1420: 00 04                        	<unknown>
    1422: 17 4b 08 00                  	auipc	s6, 132
    1426: 00 03                        	<unknown>
    1428: 6c 02                        	<unknown>
    142a: 14 9f                        	<unknown>
    142c: 06 00                        	<unknown>
    142e: 00 08                        	<unknown>
    1430: 17 fd 04 00                  	auipc	s10, 79
    1434: 00 03                        	<unknown>
    1436: 6c 02                        	<unknown>
    1438: 1e 9f                        	<unknown>
    143a: 06 00                        	<unknown>
    143c: 00 0c                        	<unknown>
    143e: 17 70 07 00                  	auipc	zero, 119
    1442: 00 03                        	<unknown>
    1444: 6e 02                        	<unknown>
    1446: 08 1d                        	<unknown>
    1448: 00 00                        	<unknown>
    144a: 00 10                        	<unknown>
    144c: 17 40 03 00                  	auipc	zero, 52
    1450: 00 03                        	<unknown>
    1452: 6f 02 08 9f                  	jal	tp, -523792
    1456: 08 00                        	<unknown>
    1458: 00 14                        	<unknown>
    145a: 17 8c 07 00                  	auipc	s8, 120
    145e: 00 03                        	<unknown>
    1460: 72 02                        	<unknown>
    1462: 07 1d 00 00                  	<unknown>
    1466: 00 30                        	<unknown>
    1468: 17 7a 07 00                  	auipc	s4, 119
    146c: 00 03                        	<unknown>
    146e: 73 02 16 b4                  	<unknown>
    1472: 08 00                        	<unknown>
    1474: 00 34                        	<unknown>
    1476: 17 63 06 00                  	auipc	t1, 102
    147a: 00 03                        	<unknown>
    147c: 75 02                        	<unknown>
    147e: 07 1d 00 00                  	<unknown>
    1482: 00 38                        	<unknown>
    1484: 17 82 07 00                  	auipc	tp, 120
    1488: 00 03                        	<unknown>
    148a: 77 02 0a c5                  	<unknown>
    148e: 08 00                        	<unknown>
    1490: 00 3c                        	<unknown>
    1492: 17 93 05 00                  	auipc	t1, 89
    1496: 00 03                        	<unknown>
    1498: 7a 02                        	<unknown>
    149a: 13 7d 01 00                  	andi	s10, sp, 0
    149e: 00 40                        	<unknown>
    14a0: 17 7f 04 00                  	auipc	t5, 71
    14a4: 00 03                        	<unknown>
    14a6: 7b 02 07 1d                  	<unknown>
    14aa: 00 00                        	<unknown>
    14ac: 00 44                        	<unknown>
    14ae: 17 f5 08 00                  	auipc	a0, 143
    14b2: 00 03                        	<unknown>
    14b4: 7c 02                        	<unknown>
    14b6: 13 7d 01 00                  	andi	s10, sp, 0
    14ba: 00 48                        	<unknown>
    14bc: 17 75 06 00                  	auipc	a0, 103
    14c0: 00 03                        	<unknown>
    14c2: 7d 02                        	<unknown>
    14c4: 14 cb                        	<unknown>
    14c6: 08 00                        	<unknown>
    14c8: 00 4c                        	<unknown>
    14ca: 17 49 05 00                  	auipc	s2, 84
    14ce: 00 03                        	<unknown>
    14d0: 80 02                        	<unknown>
    14d2: 07 1d 00 00                  	<unknown>
    14d6: 00 50                        	<unknown>
    14d8: 17 b6 04 00                  	auipc	a2, 75
    14dc: 00 03                        	<unknown>
    14de: 81 02                        	<unknown>
    14e0: 09 ae                        	<unknown>
    14e2: 05 00                        	<unknown>
    14e4: 00 54                        	<unknown>
    14e6: 17 fc 06 00                  	auipc	s8, 111
    14ea: 00 03                        	<unknown>
    14ec: a4 02                        	<unknown>
    14ee: 07 7a 08 00                  	<unknown>
    14f2: 00 58                        	<unknown>
    14f4: 18 51                        	<unknown>
    14f6: 06 00                        	<unknown>
    14f8: 00 03                        	<unknown>
    14fa: a8 02                        	<unknown>
    14fc: 13 ae 02 00                  	slti	t3, t0, 0
    1500: 00 48                        	<unknown>
    1502: 01 18                        	<unknown>
    1504: 71 05                        	<unknown>
    1506: 00 00                        	<unknown>
    1508: 03 a9 02 12                  	lw	s2, 288(t0)
    150c: 6b 02 00 00                  	<unknown>
    1510: 4c 01                        	<unknown>
    1512: 18 7d                        	<unknown>
    1514: 08 00                        	<unknown>
    1516: 00 03                        	<unknown>
    1518: ad 02                        	<unknown>
    151a: 0c dc                        	<unknown>
    151c: 08 00                        	<unknown>
    151e: 00 dc                        	<unknown>
    1520: 02 18                        	<unknown>
    1522: 5c 04                        	<unknown>
    1524: 00 00                        	<unknown>
    1526: 03 b2 02 10                  	<unknown>
    152a: 60 06                        	<unknown>
    152c: 00 00                        	<unknown>
    152e: e0 02                        	<unknown>
    1530: 18 41                        	<unknown>
    1532: 04 00                        	<unknown>
    1534: 00 03                        	<unknown>
    1536: b4 02                        	<unknown>
    1538: 0a e8                        	<unknown>
    153a: 08 00                        	<unknown>
    153c: 00 ec                        	<unknown>
    153e: 02 00                        	<unknown>
    1540: 0f 04 b4 05                  	<unknown>
    1544: 00 00                        	<unknown>
    1546: 03 01 08 9a                  	lb	sp, -1632(a6)
    154a: 00 00                        	<unknown>
    154c: 00 15                        	<unknown>
    154e: b4 05                        	<unknown>
    1550: 00 00                        	<unknown>
    1552: 0f 04 3c 04                  	<unknown>
    1556: 00 00                        	<unknown>
    1558: 13 8f 00 00                  	mv	t5, ra
    155c: 00 e4                        	<unknown>
    155e: 05 00                        	<unknown>
    1560: 00 14                        	<unknown>
    1562: 5a 04                        	<unknown>
    1564: 00 00                        	<unknown>
    1566: 14 fd                        	<unknown>
    1568: 00 00                        	<unknown>
    156a: 00 14                        	<unknown>
    156c: e4 05                        	<unknown>
    156e: 00 00                        	<unknown>
    1570: 14 1d                        	<unknown>
    1572: 00 00                        	<unknown>
    1574: 00 00                        	<unknown>
    1576: 0f 04 bb 05                  	<unknown>
    157a: 00 00                        	<unknown>
    157c: 15 e4                        	<unknown>
    157e: 05 00                        	<unknown>
    1580: 00 0f                        	<unknown>
    1582: 04 c6                        	<unknown>
    1584: 05 00                        	<unknown>
    1586: 00 13                        	<unknown>
    1588: 83 00 00 00                  	lb	ra, 0(zero)
    158c: 13 06 00 00                  	mv	a2, zero
    1590: 14 5a                        	<unknown>
    1592: 04 00                        	<unknown>
    1594: 00 14                        	<unknown>
    1596: fd 00                        	<unknown>
    1598: 00 00                        	<unknown>
    159a: 14 83                        	<unknown>
    159c: 00 00                        	<unknown>
    159e: 00 14                        	<unknown>
    15a0: 1d 00                        	<unknown>
    15a2: 00 00                        	<unknown>
    15a4: 00 0f                        	<unknown>
    15a6: 04 f5                        	<unknown>
    15a8: 05 00                        	<unknown>
    15aa: 00 13                        	<unknown>
    15ac: 1d 00                        	<unknown>
    15ae: 00 00                        	<unknown>
    15b0: 2d 06                        	<unknown>
    15b2: 00 00                        	<unknown>
    15b4: 14 5a                        	<unknown>
    15b6: 04 00                        	<unknown>
    15b8: 00 14                        	<unknown>
    15ba: fd 00                        	<unknown>
    15bc: 00 00                        	<unknown>
    15be: 00 0f                        	<unknown>
    15c0: 04 19                        	<unknown>
    15c2: 06 00                        	<unknown>
    15c4: 00 08                        	<unknown>
    15c6: 40 00                        	<unknown>
    15c8: 00 00                        	<unknown>
    15ca: 43 06 00 00                  	<unknown>
    15ce: 09 24                        	<unknown>
    15d0: 00 00                        	<unknown>
    15d2: 00 02                        	<unknown>
    15d4: 00 08                        	<unknown>
    15d6: 40 00                        	<unknown>
    15d8: 00 00                        	<unknown>
    15da: 53 06 00 00                  	<unknown>
    15de: 09 24                        	<unknown>
    15e0: 00 00                        	<unknown>
    15e2: 00 00                        	<unknown>
    15e4: 00 04                        	<unknown>
    15e6: 78 04                        	<unknown>
    15e8: 00 00                        	<unknown>
    15ea: 03 24 01 1a                  	lw	s0, 416(sp)
    15ee: f9 02                        	<unknown>
    15f0: 00 00                        	<unknown>
    15f2: 19 5d                        	<unknown>
    15f4: 08 00                        	<unknown>
    15f6: 00 0c                        	<unknown>
    15f8: 03 28 01 08                  	lw	a6, 128(sp)
    15fc: 99 06                        	<unknown>
    15fe: 00 00                        	<unknown>
    1600: 17 5d 07 00                  	auipc	s10, 117
    1604: 00 03                        	<unknown>
    1606: 2a 01                        	<unknown>
    1608: 11 99                        	<unknown>
    160a: 06 00                        	<unknown>
    160c: 00 00                        	<unknown>
    160e: 17 61 05 00                  	auipc	sp, 86
    1612: 00 03                        	<unknown>
    1614: 2b 01 07 1d                  	<unknown>
    1618: 00 00                        	<unknown>
    161a: 00 04                        	<unknown>
    161c: 17 2c 07 00                  	auipc	s8, 114
    1620: 00 03                        	<unknown>
    1622: 2c 01                        	<unknown>
    1624: 0b 9f 06 00                  	<unknown>
    1628: 00 08                        	<unknown>
    162a: 00 0f                        	<unknown>
    162c: 04 60                        	<unknown>
    162e: 06 00                        	<unknown>
    1630: 00 0f                        	<unknown>
    1632: 04 53                        	<unknown>
    1634: 06 00                        	<unknown>
    1636: 00 19                        	<unknown>
    1638: 38 03                        	<unknown>
    163a: 00 00                        	<unknown>
    163c: 0e 03                        	<unknown>
    163e: 44 01                        	<unknown>
    1640: 08 de                        	<unknown>
    1642: 06 00                        	<unknown>
    1644: 00 17                        	<unknown>
    1646: b4 07                        	<unknown>
    1648: 00 00                        	<unknown>
    164a: 03 45 01 12                  	lbu	a0, 288(sp)
    164e: de 06                        	<unknown>
    1650: 00 00                        	<unknown>
    1652: 00 17                        	<unknown>
    1654: cc 05                        	<unknown>
    1656: 00 00                        	<unknown>
    1658: 03 46 01 12                  	lbu	a2, 288(sp)
    165c: de 06                        	<unknown>
    165e: 00 00                        	<unknown>
    1660: 06 17                        	<unknown>
    1662: 16 08                        	<unknown>
    1664: 00 00                        	<unknown>
    1666: 03 47 01 12                  	lbu	a4, 288(sp)
    166a: 4e 00                        	<unknown>
    166c: 00 00                        	<unknown>
    166e: 0c 00                        	<unknown>
    1670: 08 4e                        	<unknown>
    1672: 00 00                        	<unknown>
    1674: 00 ee                        	<unknown>
    1676: 06 00                        	<unknown>
    1678: 00 09                        	<unknown>
    167a: 24 00                        	<unknown>
    167c: 00 00                        	<unknown>
    167e: 02 00                        	<unknown>
    1680: 1a d0                        	<unknown>
    1682: 03 85 02 07                  	lb	a0, 112(t0)
    1686: 03 08 00 00                  	lb	a6, 0(zero)
    168a: 17 06 06 00                  	auipc	a2, 96
    168e: 00 03                        	<unknown>
    1690: 87 02 18 24                  	<unknown>
    1694: 00 00                        	<unknown>
    1696: 00 00                        	<unknown>
    1698: 17 f9 07 00                  	auipc	s2, 127
    169c: 00 03                        	<unknown>
    169e: 88 02                        	<unknown>
    16a0: 12 ae                        	<unknown>
    16a2: 05 00                        	<unknown>
    16a4: 00 04                        	<unknown>
    16a6: 17 86 05 00                  	auipc	a2, 88
    16aa: 00 03                        	<unknown>
    16ac: 89 02                        	<unknown>
    16ae: 10 03                        	<unknown>
    16b0: 08 00                        	<unknown>
    16b2: 00 08                        	<unknown>
    16b4: 17 af 08 00                  	auipc	t5, 138
    16b8: 00 03                        	<unknown>
    16ba: 8a 02                        	<unknown>
    16bc: 17 93 01 00                  	auipc	t1, 25
    16c0: 00 24                        	<unknown>
    16c2: 17 0d 05 00                  	auipc	s10, 80
    16c6: 00 03                        	<unknown>
    16c8: 8b 02 0f 1d                  	<unknown>
    16cc: 00 00                        	<unknown>
    16ce: 00 48                        	<unknown>
    16d0: 17 58 07 00                  	auipc	a6, 117
    16d4: 00 03                        	<unknown>
    16d6: 8c 02                        	<unknown>
    16d8: 2c 63                        	<unknown>
    16da: 00 00                        	<unknown>
    16dc: 00 50                        	<unknown>
    16de: 17 c7 08 00                  	auipc	a4, 140
    16e2: 00 03                        	<unknown>
    16e4: 8d 02                        	<unknown>
    16e6: 1a a5                        	<unknown>
    16e8: 06 00                        	<unknown>
    16ea: 00 58                        	<unknown>
    16ec: 17 63 07 00                  	auipc	t1, 118
    16f0: 00 03                        	<unknown>
    16f2: 8e 02                        	<unknown>
    16f4: 16 f1                        	<unknown>
    16f6: 00 00                        	<unknown>
    16f8: 00 68                        	<unknown>
    16fa: 17 e7 08 00                  	auipc	a4, 142
    16fe: 00 03                        	<unknown>
    1700: 8f 02 16 f1                  	<unknown>
    1704: 00 00                        	<unknown>
    1706: 00 70                        	<unknown>
    1708: 17 fd 03 00                  	auipc	s10, 63
    170c: 00 03                        	<unknown>
    170e: 90 02                        	<unknown>
    1710: 16 f1                        	<unknown>
    1712: 00 00                        	<unknown>
    1714: 00 78                        	<unknown>
    1716: 17 73 08 00                  	auipc	t1, 135
    171a: 00 03                        	<unknown>
    171c: 91 02                        	<unknown>
    171e: 10 13                        	<unknown>
    1720: 08 00                        	<unknown>
    1722: 00 80                        	<unknown>
    1724: 17 7a 05 00                  	auipc	s4, 87
    1728: 00 03                        	<unknown>
    172a: 92 02                        	<unknown>
    172c: 10 23                        	<unknown>
    172e: 08 00                        	<unknown>
    1730: 00 88                        	<unknown>
    1732: 17 64 03 00                  	auipc	s0, 54
    1736: 00 03                        	<unknown>
    1738: 93 02 0f 1d                  	addi	t0, t5, 464
    173c: 00 00                        	<unknown>
    173e: 00 a0                        	<unknown>
    1740: 17 cf 04 00                  	auipc	t5, 76
    1744: 00 03                        	<unknown>
    1746: 94 02                        	<unknown>
    1748: 16 f1                        	<unknown>
    174a: 00 00                        	<unknown>
    174c: 00 a4                        	<unknown>
    174e: 17 e6 03 00                  	auipc	a2, 62
    1752: 00 03                        	<unknown>
    1754: 95 02                        	<unknown>
    1756: 16 f1                        	<unknown>
    1758: 00 00                        	<unknown>
    175a: 00 ac                        	<unknown>
    175c: 17 be 04 00                  	auipc	t3, 75
    1760: 00 03                        	<unknown>
    1762: 96 02                        	<unknown>
    1764: 16 f1                        	<unknown>
    1766: 00 00                        	<unknown>
    1768: 00 b4                        	<unknown>
    176a: 17 77 03 00                  	auipc	a4, 55
    176e: 00 03                        	<unknown>
    1770: 97 02 16 f1                  	auipc	t0, 987488
    1774: 00 00                        	<unknown>
    1776: 00 bc                        	<unknown>
    1778: 17 a3 03 00                  	auipc	t1, 58
    177c: 00 03                        	<unknown>
    177e: 98 02                        	<unknown>
    1780: 16 f1                        	<unknown>
    1782: 00 00                        	<unknown>
    1784: 00 c4                        	<unknown>
    1786: 17 01 07 00                  	auipc	sp, 112
    178a: 00 03                        	<unknown>
    178c: 99 02                        	<unknown>
    178e: 08 1d                        	<unknown>
    1790: 00 00                        	<unknown>
    1792: 00 cc                        	<unknown>
    1794: 00 08                        	<unknown>
    1796: b4 05                        	<unknown>
    1798: 00 00                        	<unknown>
    179a: 13 08 00 00                  	mv	a6, zero
    179e: 09 24                        	<unknown>
    17a0: 00 00                        	<unknown>
    17a2: 00 19                        	<unknown>
    17a4: 00 08                        	<unknown>
    17a6: b4 05                        	<unknown>
    17a8: 00 00                        	<unknown>
    17aa: 23 08 00 00                  	sb	zero, 16(zero)
    17ae: 09 24                        	<unknown>
    17b0: 00 00                        	<unknown>
    17b2: 00 07                        	<unknown>
    17b4: 00 08                        	<unknown>
    17b6: b4 05                        	<unknown>
    17b8: 00 00                        	<unknown>
    17ba: 33 08 00 00                  	add	a6, zero, zero
    17be: 09 24                        	<unknown>
    17c0: 00 00                        	<unknown>
    17c2: 00 17                        	<unknown>
    17c4: 00 1a                        	<unknown>
    17c6: f0 03                        	<unknown>
    17c8: 9e 02                        	<unknown>
    17ca: 07 5a 08 00                  	<unknown>
    17ce: 00 17                        	<unknown>
    17d0: 33 06 00 00                  	add	a2, zero, zero
    17d4: 03 a1 02 1b                  	lw	sp, 432(t0)
    17d8: 5a 08                        	<unknown>
    17da: 00 00                        	<unknown>
    17dc: 00 17                        	<unknown>
    17de: 1c 05                        	<unknown>
    17e0: 00 00                        	<unknown>
    17e2: 03 a2 02 18                  	lw	tp, 384(t0)
    17e6: 6a 08                        	<unknown>
    17e8: 00 00                        	<unknown>
    17ea: 78 00                        	<unknown>
    17ec: 08 f3                        	<unknown>
    17ee: 02 00                        	<unknown>
    17f0: 00 6a                        	<unknown>
    17f2: 08 00                        	<unknown>
    17f4: 00 09                        	<unknown>
    17f6: 24 00                        	<unknown>
    17f8: 00 00                        	<unknown>
    17fa: 1d 00                        	<unknown>
    17fc: 08 24                        	<unknown>
    17fe: 00 00                        	<unknown>
    1800: 00 7a                        	<unknown>
    1802: 08 00                        	<unknown>
    1804: 00 09                        	<unknown>
    1806: 24 00                        	<unknown>
    1808: 00 00                        	<unknown>
    180a: 1d 00                        	<unknown>
    180c: 1b f0 03 83                  	<unknown>
    1810: 02 03                        	<unknown>
    1812: 9f 08 00 00                  	<unknown>
    1816: 1c ad                        	<unknown>
    1818: 07 00 00 03                  	<unknown>
    181c: 9a 02                        	<unknown>
    181e: 0b ee 06 00                  	<unknown>
    1822: 00 1c                        	<unknown>
    1824: 9c 08                        	<unknown>
    1826: 00 00                        	<unknown>
    1828: 03 a3 02 0b                  	lw	t1, 176(t0)
    182c: 33 08 00 00                  	add	a6, zero, zero
    1830: 00 08                        	<unknown>
    1832: b4 05                        	<unknown>
    1834: 00 00                        	<unknown>
    1836: af 08 00 00                  	<unknown>
    183a: 09 24                        	<unknown>
    183c: 00 00                        	<unknown>
    183e: 00 18                        	<unknown>
    1840: 00 1d                        	<unknown>
    1842: db 03 00 00                  	<unknown>
    1846: 0f 04 af 08                  	<unknown>
    184a: 00 00                        	<unknown>
    184c: 1e c5                        	<unknown>
    184e: 08 00                        	<unknown>
    1850: 00 14                        	<unknown>
    1852: 5a 04                        	<unknown>
    1854: 00 00                        	<unknown>
    1856: 00 0f                        	<unknown>
    1858: 04 ba                        	<unknown>
    185a: 08 00                        	<unknown>
    185c: 00 0f                        	<unknown>
    185e: 04 7d                        	<unknown>
    1860: 01 00                        	<unknown>
    1862: 00 1e                        	<unknown>
    1864: dc 08                        	<unknown>
    1866: 00 00                        	<unknown>
    1868: 14 1d                        	<unknown>
    186a: 00 00                        	<unknown>
    186c: 00 00                        	<unknown>
    186e: 0f 04 e2 08                  	<unknown>
    1872: 00 00                        	<unknown>
    1874: 0f 04 d1 08                  	<unknown>
    1878: 00 00                        	<unknown>
    187a: 08 53                        	<unknown>
    187c: 06 00                        	<unknown>
    187e: 00 f8                        	<unknown>
    1880: 08 00                        	<unknown>
    1882: 00 09                        	<unknown>
    1884: 24 00                        	<unknown>
    1886: 00 00                        	<unknown>
    1888: 02 00                        	<unknown>
    188a: 1f 3f 08 00                  	<unknown>
    188e: 00 03                        	<unknown>
    1890: 33 03 17 5a                  	<unknown>
    1894: 04 00                        	<unknown>
    1896: 00 1f                        	<unknown>
    1898: 38 08                        	<unknown>
    189a: 00 00                        	<unknown>
    189c: 03 34 03 1d                  	<unknown>
    18a0: 60 04                        	<unknown>
    18a2: 00 00                        	<unknown>
    18a4: 08 ea                        	<unknown>
    18a6: 05 00                        	<unknown>
    18a8: 00 1d                        	<unknown>
    18aa: 09 00                        	<unknown>
    18ac: 00 20                        	<unknown>
    18ae: 00 15                        	<unknown>
    18b0: 12 09                        	<unknown>
    18b2: 00 00                        	<unknown>
    18b4: 21 a9                        	<unknown>
    18b6: 04 00                        	<unknown>
    18b8: 00 05                        	<unknown>
    18ba: 14 24                        	<unknown>
    18bc: 1d 09                        	<unknown>
    18be: 00 00                        	<unknown>
    18c0: 21 4e                        	<unknown>
    18c2: 07 00 00 05                  	<unknown>
    18c6: 15 15                        	<unknown>
    18c8: 1d 00                        	<unknown>
    18ca: 00 00                        	<unknown>
    18cc: 0f 04 40 09                  	<unknown>
    18d0: 00 00                        	<unknown>
    18d2: 13 1d 00 00                  	slli	s10, zero, 0
    18d6: 00 54                        	<unknown>
    18d8: 09 00                        	<unknown>
    18da: 00 14                        	<unknown>
    18dc: 54 09                        	<unknown>
    18de: 00 00                        	<unknown>
    18e0: 14 54                        	<unknown>
    18e2: 09 00                        	<unknown>
    18e4: 00 00                        	<unknown>
    18e6: 0f 04 5a 09                  	<unknown>
    18ea: 00 00                        	<unknown>
    18ec: 22 21                        	<unknown>
    18ee: 59 06                        	<unknown>
    18f0: 00 00                        	<unknown>
    18f2: 06 67                        	<unknown>
    18f4: 0e ae                        	<unknown>
    18f6: 05 00                        	<unknown>
    18f8: 00 21                        	<unknown>
    18fa: a1 05                        	<unknown>
    18fc: 00 00                        	<unknown>
    18fe: 07 10 0f 73                  	<unknown>
    1902: 09 00                        	<unknown>
    1904: 00 0f                        	<unknown>
    1906: 04 ae                        	<unknown>
    1908: 05 00                        	<unknown>
    190a: 00 21                        	<unknown>
    190c: 5c 06                        	<unknown>
    190e: 00 00                        	<unknown>
    1910: 07 fc 0e ae                  	<unknown>
    1914: 05 00                        	<unknown>
    1916: 00 21                        	<unknown>
    1918: 2c 06                        	<unknown>
    191a: 00 00                        	<unknown>
    191c: 07 fd 0c 1d                  	<unknown>
    1920: 00 00                        	<unknown>
    1922: 00 21                        	<unknown>
    1924: f2 07                        	<unknown>
    1926: 00 00                        	<unknown>
    1928: 07 fd 14 1d                  	<unknown>
    192c: 00 00                        	<unknown>
    192e: 00 21                        	<unknown>
    1930: d6 08                        	<unknown>
    1932: 00 00                        	<unknown>
    1934: 07 fd 1c 1d                  	<unknown>
    1938: 00 00                        	<unknown>
    193a: 00 21                        	<unknown>
    193c: e1 05                        	<unknown>
    193e: 00 00                        	<unknown>
    1940: 07 ff 0c 1d                  	<unknown>
    1944: 00 00                        	<unknown>
    1946: 00 21                        	<unknown>
    1948: 7f 06 00 00                  	<unknown>
    194c: 08 9a                        	<unknown>
    194e: 16 55                        	<unknown>
    1950: 00 00                        	<unknown>
    1952: 00 21                        	<unknown>
    1954: 4b 03 00 00                  	<unknown>
    1958: 08 9b                        	<unknown>
    195a: 15 1d                        	<unknown>
    195c: 00 00                        	<unknown>
    195e: 00 08                        	<unknown>
    1960: ae 05                        	<unknown>
    1962: 00 00                        	<unknown>
    1964: dd 09                        	<unknown>
    1966: 00 00                        	<unknown>
    1968: 09 24                        	<unknown>
    196a: 00 00                        	<unknown>
    196c: 00 01                        	<unknown>
    196e: 00 21                        	<unknown>
    1970: f5 03                        	<unknown>
    1972: 00 00                        	<unknown>
    1974: 08 9e                        	<unknown>
    1976: 17 cd 09 00                  	auipc	s10, 156
    197a: 00 05                        	<unknown>
    197c: 57 05 00 00                  	<unknown>
    1980: 09 2a                        	<unknown>
    1982: 16 24                        	<unknown>
    1984: 00 00                        	<unknown>
    1986: 00 05                        	<unknown>
    1988: 3c 07                        	<unknown>
    198a: 00 00                        	<unknown>
    198c: 09 2f                        	<unknown>
    198e: 15 01                        	<unknown>
    1990: 0a 00                        	<unknown>
    1992: 00 0f                        	<unknown>
    1994: 04 07                        	<unknown>
    1996: 0a 00                        	<unknown>
    1998: 00 13                        	<unknown>
    199a: e9 09                        	<unknown>
    199c: 00 00                        	<unknown>
    199e: 16 0a                        	<unknown>
    19a0: 00 00                        	<unknown>
    19a2: 14 54                        	<unknown>
    19a4: 09 00                        	<unknown>
    19a6: 00 00                        	<unknown>
    19a8: 05 04                        	<unknown>
    19aa: 09 00                        	<unknown>
    19ac: 00 09                        	<unknown>
    19ae: 36 0f                        	<unknown>
    19b0: 3a 09                        	<unknown>
    19b2: 00 00                        	<unknown>
    19b4: 21 20                        	<unknown>
    19b6: 03 00 00 09                  	lb	zero, 144(zero)
    19ba: bb 12 f5 09                  	<unknown>
    19be: 00 00                        	<unknown>
    19c0: 21 23                        	<unknown>
    19c2: 08 00                        	<unknown>
    19c4: 00 09                        	<unknown>
    19c6: be 10                        	<unknown>
    19c8: 16 0a                        	<unknown>
    19ca: 00 00                        	<unknown>
    19cc: 23 2a 05 00                  	sw	zero, 20(a0)
    19d0: 00 07                        	<unknown>
    19d2: 04 24                        	<unknown>
    19d4: 00 00                        	<unknown>
    19d6: 00 0a                        	<unknown>
    19d8: 18 06                        	<unknown>
    19da: 77 0a 00 00                  	<unknown>
    19de: 24 dc                        	<unknown>
    19e0: 06 00                        	<unknown>
    19e2: 00 00                        	<unknown>
    19e4: 24 c1                        	<unknown>
    19e6: 05 00                        	<unknown>
    19e8: 00 01                        	<unknown>
    19ea: 24 fb                        	<unknown>
    19ec: 05 00                        	<unknown>
    19ee: 00 02                        	<unknown>
    19f0: 24 b6                        	<unknown>
    19f2: 05 00                        	<unknown>
    19f4: 00 03                        	<unknown>
    19f6: 24 d3                        	<unknown>
    19f8: 06 00                        	<unknown>
    19fa: 00 04                        	<unknown>
    19fc: 24 dd                        	<unknown>
    19fe: 08 00                        	<unknown>
    1a00: 00 05                        	<unknown>
    1a02: 24 cc                        	<unknown>
    1a04: 08 00                        	<unknown>
    1a06: 00 06                        	<unknown>
    1a08: 00 21                        	<unknown>
    1a0a: d1 03                        	<unknown>
    1a0c: 00 00                        	<unknown>
    1a0e: 0a 21                        	<unknown>
    1a10: 1c 3a                        	<unknown>
    1a12: 0a 00                        	<unknown>
    1a14: 00 23                        	<unknown>
    1a16: 13 06 00 00                  	mv	a2, zero
    1a1a: 07 04 24 00                  	<unknown>
    1a1e: 00 00                        	<unknown>
    1a20: 0a 23                        	<unknown>
    1a22: 06 a8                        	<unknown>
    1a24: 0a 00                        	<unknown>
    1a26: 00 24                        	<unknown>
    1a28: 32 07                        	<unknown>
    1a2a: 00 00                        	<unknown>
    1a2c: 00 24                        	<unknown>
    1a2e: f2 06                        	<unknown>
    1a30: 00 00                        	<unknown>
    1a32: 01 24                        	<unknown>
    1a34: 06 08                        	<unknown>
    1a36: 00 00                        	<unknown>
    1a38: 02 00                        	<unknown>
    1a3a: 21 dd                        	<unknown>
    1a3c: 04 00                        	<unknown>
    1a3e: 00 0a                        	<unknown>
    1a40: 28 1e                        	<unknown>
    1a42: 83 0a 00 00                  	lb	s5, 0(zero)
    1a46: 23 86 03 00                  	sb	zero, 12(t2)
    1a4a: 00 07                        	<unknown>
    1a4c: 04 24                        	<unknown>
    1a4e: 00 00                        	<unknown>
    1a50: 00 0a                        	<unknown>
    1a52: 2b 06 d3 0a                  	<unknown>
    1a56: 00 00                        	<unknown>
    1a58: 24 ea                        	<unknown>
    1a5a: 07 00 00 00                  	<unknown>
    1a5e: 24 d8                        	<unknown>
    1a60: 07 00 00 01                  	<unknown>
    1a64: 00 21                        	<unknown>
    1a66: 91 04                        	<unknown>
    1a68: 00 00                        	<unknown>
    1a6a: 0a 2f                        	<unknown>
    1a6c: 2a b4                        	<unknown>
    1a6e: 0a 00                        	<unknown>
    1a70: 00 21                        	<unknown>
    1a72: d2 05                        	<unknown>
    1a74: 00 00                        	<unknown>
    1a76: 0b 29 1a 1d                  	<unknown>
    1a7a: 09 00                        	<unknown>
    1a7c: 00 21                        	<unknown>
    1a7e: 31 04                        	<unknown>
    1a80: 00 00                        	<unknown>
    1a82: 0b 38 1a 1d                  	<unknown>
    1a86: 09 00                        	<unknown>
    1a88: 00 05                        	<unknown>
    1a8a: 35 01                        	<unknown>
    1a8c: 00 00                        	<unknown>
    1a8e: 0c 7b                        	<unknown>
    1a90: 16 40                        	<unknown>
    1a92: 00 00                        	<unknown>
    1a94: 00 15                        	<unknown>
    1a96: f7 0a 00 00                  	<unknown>
    1a9a: 03 04 04 42                  	lb	s0, 1056(s0)
    1a9e: 06 00                        	<unknown>
    1aa0: 00 03                        	<unknown>
    1aa2: 08 03                        	<unknown>
    1aa4: 3a 06                        	<unknown>
    1aa6: 00 00                        	<unknown>
    1aa8: 03 08 04 ca                  	lb	a6, -864(s0)
    1aac: 03 00 00 03                  	lb	zero, 48(zero)
    1ab0: 10 03                        	<unknown>
    1ab2: 55 03                        	<unknown>
    1ab4: 00 00                        	<unknown>
    1ab6: 03 20 03 bd                  	lw	zero, -1072(t1)
    1aba: 03 00 00 08                  	lb	zero, 128(zero)
    1abe: 03 0b 00 00                  	lb	s6, 0(zero)
    1ac2: 3b 0b 00 00                  	<unknown>
    1ac6: 09 24                        	<unknown>
    1ac8: 00 00                        	<unknown>
    1aca: 00 ff                        	<unknown>
    1acc: 00 15                        	<unknown>
    1ace: 2b 0b 00 00                  	<unknown>
    1ad2: 1f 87 08 00                  	<unknown>
    1ad6: 00 0c                        	<unknown>
    1ad8: fc 01                        	<unknown>
    1ada: 16 3b                        	<unknown>
    1adc: 0b 00 00 1f                  	<unknown>
    1ae0: 3d 01                        	<unknown>
    1ae2: 00 00                        	<unknown>
    1ae4: 0c 02                        	<unknown>
    1ae6: 02 16                        	<unknown>
    1ae8: 3b 0b 00 00                  	<unknown>
    1aec: 25 4d                        	<unknown>
    1aee: 0b 00 00 0d                  	<unknown>
    1af2: b2 02                        	<unknown>
    1af4: 0f 05 03 74                  	<unknown>
    1af8: 0e 00                        	<unknown>
    1afa: 80 00                        	<unknown>

Disassembly of section .debug_abbrev:

00000000 .debug_abbrev:
       0: 01 11                        	<unknown>
       2: 01 25                        	<unknown>
       4: 0e 13                        	<unknown>
       6: 0b 03 0e 1b                  	<unknown>
       a: 0e 11                        	<unknown>
       c: 01 12                        	<unknown>
       e: 06 10                        	<unknown>
      10: 17 00 00 02                  	auipc	zero, 8192
      14: 24 00                        	<unknown>
      16: 0b 0b 3e 0b                  	<unknown>
      1a: 03 0e 00 00                  	lb	t3, 0(zero)
      1e: 03 24 00 0b                  	lw	s0, 176(zero)
      22: 0b 3e 0b 03                  	<unknown>
      26: 08 00                        	<unknown>
      28: 00 04                        	<unknown>
      2a: 16 00                        	<unknown>
      2c: 03 0e 3a 0b                  	lb	t3, 179(s4)
      30: 3b 05 39 0b                  	<unknown>
      34: 49 13                        	<unknown>
      36: 00 00                        	<unknown>
      38: 05 26                        	<unknown>
      3a: 00 49                        	<unknown>
      3c: 13 00 00 06                  	addi	zero, zero, 96
      40: 01 01                        	<unknown>
      42: 49 13                        	<unknown>
      44: 01 13                        	<unknown>
      46: 00 00                        	<unknown>
      48: 07 21 00 49                  	<unknown>
      4c: 13 2f 0b 00                  	slti	t5, s6, 0
      50: 00 08                        	<unknown>
      52: 34 00                        	<unknown>
      54: 03 0e 3a 0b                  	lb	t3, 179(s4)
      58: 3b 0b 39 0b                  	<unknown>
      5c: 49 13                        	<unknown>
      5e: 3f 19 3c 19                  	<unknown>
      62: 00 00                        	<unknown>
      64: 09 16                        	<unknown>
      66: 00 03                        	<unknown>
      68: 0e 3a                        	<unknown>
      6a: 0b 3b 0b 39                  	<unknown>
      6e: 0b 49 13 00                  	<unknown>
      72: 00 0a                        	<unknown>
      74: 13 01 0b 0b                  	addi	sp, s6, 176
      78: 3a 0b                        	<unknown>
      7a: 3b 0b 39 0b                  	<unknown>
      7e: 01 13                        	<unknown>
      80: 00 00                        	<unknown>
      82: 0b 0d 00 03                  	<unknown>
      86: 0e 3a                        	<unknown>
      88: 0b 3b 0b 39                  	<unknown>
      8c: 0b 49 13 0b                  	<unknown>
      90: 0b 0d 0b 0c                  	<unknown>
      94: 0b 38 0b 00                  	<unknown>
      98: 00 0c                        	<unknown>
      9a: 0d 00                        	<unknown>
      9c: 03 08 3a 0b                  	lb	a6, 179(s4)
      a0: 3b 0b 39 0b                  	<unknown>
      a4: 49 13                        	<unknown>
      a6: 0b 0b 0d 0b                  	<unknown>
      aa: 0c 0b                        	<unknown>
      ac: 38 0b                        	<unknown>
      ae: 00 00                        	<unknown>
      b0: 0d 17                        	<unknown>
      b2: 01 03                        	<unknown>
      b4: 0e 0b                        	<unknown>
      b6: 0b 3a 0b 3b                  	<unknown>
      ba: 0b 39 0b 01                  	<unknown>
      be: 13 00 00 0e                  	addi	zero, zero, 224
      c2: 0d 00                        	<unknown>
      c4: 03 08 3a 0b                  	lb	a6, 179(s4)
      c8: 3b 0b 39 0b                  	<unknown>
      cc: 49 13                        	<unknown>
      ce: 00 00                        	<unknown>
      d0: 0f 0d 00 03                  	<unknown>
      d4: 0e 3a                        	<unknown>
      d6: 0b 3b 0b 39                  	<unknown>
      da: 0b 49 13 00                  	<unknown>
      de: 00 10                        	<unknown>
      e0: 2e 01                        	<unknown>
      e2: 3f 19 03 0e                  	<unknown>
      e6: 3a 0b                        	<unknown>
      e8: 3b 0b 39 0b                  	<unknown>
      ec: 27 19 49 13                  	<unknown>
      f0: 11 01                        	<unknown>
      f2: 12 06                        	<unknown>
      f4: 40 18                        	<unknown>
      f6: 96 42                        	<unknown>
      f8: 19 01                        	<unknown>
      fa: 13 00 00 11                  	addi	zero, zero, 272
      fe: 05 00                        	<unknown>
     100: 03 08 3a 0b                  	lb	a6, 179(s4)
     104: 3b 0b 39 0b                  	<unknown>
     108: 49 13                        	<unknown>
     10a: 02 17                        	<unknown>
     10c: 00 00                        	<unknown>
     10e: 12 34                        	<unknown>
     110: 00 03                        	<unknown>
     112: 0e 3a                        	<unknown>
     114: 0b 3b 0b 39                  	<unknown>
     118: 0b 49 13 02                  	<unknown>
     11c: 17 00 00 13                  	auipc	zero, 77824
     120: 34 00                        	<unknown>
     122: 03 0e 3a 0b                  	lb	t3, 179(s4)
     126: 3b 0b 39 0b                  	<unknown>
     12a: 49 13                        	<unknown>
     12c: 1c 0b                        	<unknown>
     12e: 00 00                        	<unknown>
     130: 14 34                        	<unknown>
     132: 00 03                        	<unknown>
     134: 08 3a                        	<unknown>
     136: 0b 3b 0b 39                  	<unknown>
     13a: 0b 49 13 02                  	<unknown>
     13e: 17 00 00 15                  	auipc	zero, 86016
     142: 0b 01 55 17                  	<unknown>
     146: 01 13                        	<unknown>
     148: 00 00                        	<unknown>
     14a: 16 34                        	<unknown>
     14c: 00 03                        	<unknown>
     14e: 0e 3a                        	<unknown>
     150: 0b 3b 0b 39                  	<unknown>
     154: 0b 49 13 00                  	<unknown>
     158: 00 17                        	<unknown>
     15a: 0b 01 55 17                  	<unknown>
     15e: 00 00                        	<unknown>
     160: 18 0b                        	<unknown>
     162: 01 00                        	<unknown>
     164: 00 19                        	<unknown>
     166: 0b 01 11 01                  	<unknown>
     16a: 12 06                        	<unknown>
     16c: 00 00                        	<unknown>
     16e: 00 01                        	<unknown>
     170: 11 01                        	<unknown>
     172: 25 0e                        	<unknown>
     174: 13 0b 03 0e                  	addi	s6, t1, 224
     178: 1b 0e 11 01                  	<unknown>
     17c: 12 06                        	<unknown>
     17e: 10 17                        	<unknown>
     180: 00 00                        	<unknown>
     182: 02 24                        	<unknown>
     184: 00 0b                        	<unknown>
     186: 0b 3e 0b 03                  	<unknown>
     18a: 08 00                        	<unknown>
     18c: 00 03                        	<unknown>
     18e: 24 00                        	<unknown>
     190: 0b 0b 3e 0b                  	<unknown>
     194: 03 0e 00 00                  	lb	t3, 0(zero)
     198: 04 16                        	<unknown>
     19a: 00 03                        	<unknown>
     19c: 0e 3a                        	<unknown>
     19e: 0b 3b 05 39                  	<unknown>
     1a2: 0b 49 13 00                  	<unknown>
     1a6: 00 05                        	<unknown>
     1a8: 16 00                        	<unknown>
     1aa: 03 0e 3a 0b                  	lb	t3, 179(s4)
     1ae: 3b 0b 39 0b                  	<unknown>
     1b2: 49 13                        	<unknown>
     1b4: 00 00                        	<unknown>
     1b6: 06 17                        	<unknown>
     1b8: 01 0b                        	<unknown>
     1ba: 0b 3a 0b 3b                  	<unknown>
     1be: 0b 39 0b 01                  	<unknown>
     1c2: 13 00 00 07                  	addi	zero, zero, 112
     1c6: 0d 00                        	<unknown>
     1c8: 03 0e 3a 0b                  	lb	t3, 179(s4)
     1cc: 3b 0b 39 0b                  	<unknown>
     1d0: 49 13                        	<unknown>
     1d2: 00 00                        	<unknown>
     1d4: 08 01                        	<unknown>
     1d6: 01 49                        	<unknown>
     1d8: 13 01 13 00                  	addi	sp, t1, 1
     1dc: 00 09                        	<unknown>
     1de: 21 00                        	<unknown>
     1e0: 49 13                        	<unknown>
     1e2: 2f 0b 00 00                  	<unknown>
     1e6: 0a 13                        	<unknown>
     1e8: 01 0b                        	<unknown>
     1ea: 0b 3a 0b 3b                  	<unknown>
     1ee: 0b 39 0b 01                  	<unknown>
     1f2: 13 00 00 0b                  	addi	zero, zero, 176
     1f6: 0d 00                        	<unknown>
     1f8: 03 0e 3a 0b                  	lb	t3, 179(s4)
     1fc: 3b 0b 39 0b                  	<unknown>
     200: 49 13                        	<unknown>
     202: 38 0b                        	<unknown>
     204: 00 00                        	<unknown>
     206: 0c 0f                        	<unknown>
     208: 00 0b                        	<unknown>
     20a: 0b 00 00 0d                  	<unknown>
     20e: 13 01 03 0e                  	addi	sp, t1, 224
     212: 0b 0b 3a 0b                  	<unknown>
     216: 3b 0b 39 0b                  	<unknown>
     21a: 01 13                        	<unknown>
     21c: 00 00                        	<unknown>
     21e: 0e 0d                        	<unknown>
     220: 00 03                        	<unknown>
     222: 08 3a                        	<unknown>
     224: 0b 3b 0b 39                  	<unknown>
     228: 0b 49 13 38                  	<unknown>
     22c: 0b 00 00 0f                  	<unknown>
     230: 0f 00 0b 0b                  	<unknown>
     234: 49 13                        	<unknown>
     236: 00 00                        	<unknown>
     238: 10 13                        	<unknown>
     23a: 01 03                        	<unknown>
     23c: 0e 0b                        	<unknown>
     23e: 05 3a                        	<unknown>
     240: 0b 3b 0b 39                  	<unknown>
     244: 0b 01 13 00                  	<unknown>
     248: 00 11                        	<unknown>
     24a: 0d 00                        	<unknown>
     24c: 03 0e 3a 0b                  	lb	t3, 179(s4)
     250: 3b 0b 39 0b                  	<unknown>
     254: 49 13                        	<unknown>
     256: 38 05                        	<unknown>
     258: 00 00                        	<unknown>
     25a: 12 15                        	<unknown>
     25c: 00 27                        	<unknown>
     25e: 19 00                        	<unknown>
     260: 00 13                        	<unknown>
     262: 15 01                        	<unknown>
     264: 27 19 49 13                  	<unknown>
     268: 01 13                        	<unknown>
     26a: 00 00                        	<unknown>
     26c: 14 05                        	<unknown>
     26e: 00 49                        	<unknown>
     270: 13 00 00 15                  	addi	zero, zero, 336
     274: 26 00                        	<unknown>
     276: 49 13                        	<unknown>
     278: 00 00                        	<unknown>
     27a: 16 13                        	<unknown>
     27c: 01 03                        	<unknown>
     27e: 0e 0b                        	<unknown>
     280: 05 3a                        	<unknown>
     282: 0b 3b 05 39                  	<unknown>
     286: 0b 01 13 00                  	<unknown>
     28a: 00 17                        	<unknown>
     28c: 0d 00                        	<unknown>
     28e: 03 0e 3a 0b                  	lb	t3, 179(s4)
     292: 3b 05 39 0b                  	<unknown>
     296: 49 13                        	<unknown>
     298: 38 0b                        	<unknown>
     29a: 00 00                        	<unknown>
     29c: 18 0d                        	<unknown>
     29e: 00 03                        	<unknown>
     2a0: 0e 3a                        	<unknown>
     2a2: 0b 3b 05 39                  	<unknown>
     2a6: 0b 49 13 38                  	<unknown>
     2aa: 05 00                        	<unknown>
     2ac: 00 19                        	<unknown>
     2ae: 13 01 03 0e                  	addi	sp, t1, 224
     2b2: 0b 0b 3a 0b                  	<unknown>
     2b6: 3b 05 39 0b                  	<unknown>
     2ba: 01 13                        	<unknown>
     2bc: 00 00                        	<unknown>
     2be: 1a 13                        	<unknown>
     2c0: 01 0b                        	<unknown>
     2c2: 0b 3a 0b 3b                  	<unknown>
     2c6: 05 39                        	<unknown>
     2c8: 0b 01 13 00                  	<unknown>
     2cc: 00 1b                        	<unknown>
     2ce: 17 01 0b 0b                  	auipc	sp, 45232
     2d2: 3a 0b                        	<unknown>
     2d4: 3b 05 39 0b                  	<unknown>
     2d8: 01 13                        	<unknown>
     2da: 00 00                        	<unknown>
     2dc: 1c 0d                        	<unknown>
     2de: 00 03                        	<unknown>
     2e0: 0e 3a                        	<unknown>
     2e2: 0b 3b 05 39                  	<unknown>
     2e6: 0b 49 13 00                  	<unknown>
     2ea: 00 1d                        	<unknown>
     2ec: 13 00 03 0e                  	addi	zero, t1, 224
     2f0: 3c 19                        	<unknown>
     2f2: 00 00                        	<unknown>
     2f4: 1e 15                        	<unknown>
     2f6: 01 27                        	<unknown>
     2f8: 19 01                        	<unknown>
     2fa: 13 00 00 1f                  	addi	zero, zero, 496
     2fe: 34 00                        	<unknown>
     300: 03 0e 3a 0b                  	lb	t3, 179(s4)
     304: 3b 05 39 0b                  	<unknown>
     308: 49 13                        	<unknown>
     30a: 3f 19 3c 19                  	<unknown>
     30e: 00 00                        	<unknown>
     310: 20 21                        	<unknown>
     312: 00 00                        	<unknown>
     314: 00 21                        	<unknown>
     316: 34 00                        	<unknown>
     318: 03 0e 3a 0b                  	lb	t3, 179(s4)
     31c: 3b 0b 39 0b                  	<unknown>
     320: 49 13                        	<unknown>
     322: 3f 19 3c 19                  	<unknown>
     326: 00 00                        	<unknown>
     328: 22 26                        	<unknown>
     32a: 00 00                        	<unknown>
     32c: 00 23                        	<unknown>
     32e: 04 01                        	<unknown>
     330: 03 0e 3e 0b                  	lb	t3, 179(t3)
     334: 0b 0b 49 13                  	<unknown>
     338: 3a 0b                        	<unknown>
     33a: 3b 0b 39 0b                  	<unknown>
     33e: 01 13                        	<unknown>
     340: 00 00                        	<unknown>
     342: 24 28                        	<unknown>
     344: 00 03                        	<unknown>
     346: 0e 1c                        	<unknown>
     348: 0b 00 00 25                  	<unknown>
     34c: 2e 01                        	<unknown>
     34e: 3f 19 03 0e                  	<unknown>
     352: 3a 0b                        	<unknown>
     354: 3b 05 39 0b                  	<unknown>
     358: 27 19 49 13                  	<unknown>
     35c: 11 01                        	<unknown>
     35e: 12 06                        	<unknown>
     360: 40 18                        	<unknown>
     362: 97 42 19 00                  	auipc	t0, 404
     366: 00 26                        	<unknown>
     368: 05 00                        	<unknown>
     36a: 03 08 3a 0b                  	lb	a6, 179(s4)
     36e: 3b 05 39 0b                  	<unknown>
     372: 49 13                        	<unknown>
     374: 02 17                        	<unknown>
     376: 00 00                        	<unknown>
     378: 27 34 00 03                  	<unknown>
     37c: 08 3a                        	<unknown>
     37e: 0b 3b 05 39                  	<unknown>
     382: 0b 49 13 00                  	<unknown>
     386: 00 28                        	<unknown>
     388: 0b 01 55 17                  	<unknown>
     38c: 00 00                        	<unknown>
     38e: 29 34                        	<unknown>
     390: 00 03                        	<unknown>
     392: 0e 3a                        	<unknown>
     394: 0b 3b 05 39                  	<unknown>
     398: 0b 49 13 02                  	<unknown>
     39c: 17 00 00 2a                  	auipc	zero, 172032
     3a0: 34 00                        	<unknown>
     3a2: 03 08 3a 0b                  	lb	a6, 179(s4)
     3a6: 3b 05 39 0b                  	<unknown>
     3aa: 49 13                        	<unknown>
     3ac: 02 17                        	<unknown>
     3ae: 00 00                        	<unknown>
     3b0: 00 01                        	<unknown>
     3b2: 11 01                        	<unknown>
     3b4: 25 0e                        	<unknown>
     3b6: 13 0b 03 0e                  	addi	s6, t1, 224
     3ba: 1b 0e 10 17                  	<unknown>
     3be: 00 00                        	<unknown>
     3c0: 02 24                        	<unknown>
     3c2: 00 0b                        	<unknown>
     3c4: 0b 3e 0b 03                  	<unknown>
     3c8: 08 00                        	<unknown>
     3ca: 00 03                        	<unknown>
     3cc: 24 00                        	<unknown>
     3ce: 0b 0b 3e 0b                  	<unknown>
     3d2: 03 0e 00 00                  	lb	t3, 0(zero)
     3d6: 04 16                        	<unknown>
     3d8: 00 03                        	<unknown>
     3da: 0e 3a                        	<unknown>
     3dc: 0b 3b 05 39                  	<unknown>
     3e0: 0b 49 13 00                  	<unknown>
     3e4: 00 05                        	<unknown>
     3e6: 16 00                        	<unknown>
     3e8: 03 0e 3a 0b                  	lb	t3, 179(s4)
     3ec: 3b 0b 39 0b                  	<unknown>
     3f0: 49 13                        	<unknown>
     3f2: 00 00                        	<unknown>
     3f4: 06 17                        	<unknown>
     3f6: 01 0b                        	<unknown>
     3f8: 0b 3a 0b 3b                  	<unknown>
     3fc: 0b 39 0b 01                  	<unknown>
     400: 13 00 00 07                  	addi	zero, zero, 112
     404: 0d 00                        	<unknown>
     406: 03 0e 3a 0b                  	lb	t3, 179(s4)
     40a: 3b 0b 39 0b                  	<unknown>
     40e: 49 13                        	<unknown>
     410: 00 00                        	<unknown>
     412: 08 01                        	<unknown>
     414: 01 49                        	<unknown>
     416: 13 01 13 00                  	addi	sp, t1, 1
     41a: 00 09                        	<unknown>
     41c: 21 00                        	<unknown>
     41e: 49 13                        	<unknown>
     420: 2f 0b 00 00                  	<unknown>
     424: 0a 13                        	<unknown>
     426: 01 0b                        	<unknown>
     428: 0b 3a 0b 3b                  	<unknown>
     42c: 0b 39 0b 01                  	<unknown>
     430: 13 00 00 0b                  	addi	zero, zero, 176
     434: 0d 00                        	<unknown>
     436: 03 0e 3a 0b                  	lb	t3, 179(s4)
     43a: 3b 0b 39 0b                  	<unknown>
     43e: 49 13                        	<unknown>
     440: 38 0b                        	<unknown>
     442: 00 00                        	<unknown>
     444: 0c 0f                        	<unknown>
     446: 00 0b                        	<unknown>
     448: 0b 00 00 0d                  	<unknown>
     44c: 13 01 03 0e                  	addi	sp, t1, 224
     450: 0b 0b 3a 0b                  	<unknown>
     454: 3b 0b 39 0b                  	<unknown>
     458: 01 13                        	<unknown>
     45a: 00 00                        	<unknown>
     45c: 0e 0d                        	<unknown>
     45e: 00 03                        	<unknown>
     460: 08 3a                        	<unknown>
     462: 0b 3b 0b 39                  	<unknown>
     466: 0b 49 13 38                  	<unknown>
     46a: 0b 00 00 0f                  	<unknown>
     46e: 0f 00 0b 0b                  	<unknown>
     472: 49 13                        	<unknown>
     474: 00 00                        	<unknown>
     476: 10 13                        	<unknown>
     478: 01 03                        	<unknown>
     47a: 0e 0b                        	<unknown>
     47c: 05 3a                        	<unknown>
     47e: 0b 3b 0b 39                  	<unknown>
     482: 0b 01 13 00                  	<unknown>
     486: 00 11                        	<unknown>
     488: 0d 00                        	<unknown>
     48a: 03 0e 3a 0b                  	lb	t3, 179(s4)
     48e: 3b 0b 39 0b                  	<unknown>
     492: 49 13                        	<unknown>
     494: 38 05                        	<unknown>
     496: 00 00                        	<unknown>
     498: 12 15                        	<unknown>
     49a: 00 27                        	<unknown>
     49c: 19 00                        	<unknown>
     49e: 00 13                        	<unknown>
     4a0: 15 01                        	<unknown>
     4a2: 27 19 49 13                  	<unknown>
     4a6: 01 13                        	<unknown>
     4a8: 00 00                        	<unknown>
     4aa: 14 05                        	<unknown>
     4ac: 00 49                        	<unknown>
     4ae: 13 00 00 15                  	addi	zero, zero, 336
     4b2: 26 00                        	<unknown>
     4b4: 49 13                        	<unknown>
     4b6: 00 00                        	<unknown>
     4b8: 16 13                        	<unknown>
     4ba: 01 03                        	<unknown>
     4bc: 0e 0b                        	<unknown>
     4be: 05 3a                        	<unknown>
     4c0: 0b 3b 05 39                  	<unknown>
     4c4: 0b 01 13 00                  	<unknown>
     4c8: 00 17                        	<unknown>
     4ca: 0d 00                        	<unknown>
     4cc: 03 0e 3a 0b                  	lb	t3, 179(s4)
     4d0: 3b 05 39 0b                  	<unknown>
     4d4: 49 13                        	<unknown>
     4d6: 38 0b                        	<unknown>
     4d8: 00 00                        	<unknown>
     4da: 18 0d                        	<unknown>
     4dc: 00 03                        	<unknown>
     4de: 0e 3a                        	<unknown>
     4e0: 0b 3b 05 39                  	<unknown>
     4e4: 0b 49 13 38                  	<unknown>
     4e8: 05 00                        	<unknown>
     4ea: 00 19                        	<unknown>
     4ec: 13 01 03 0e                  	addi	sp, t1, 224
     4f0: 0b 0b 3a 0b                  	<unknown>
     4f4: 3b 05 39 0b                  	<unknown>
     4f8: 01 13                        	<unknown>
     4fa: 00 00                        	<unknown>
     4fc: 1a 13                        	<unknown>
     4fe: 01 0b                        	<unknown>
     500: 0b 3a 0b 3b                  	<unknown>
     504: 05 39                        	<unknown>
     506: 0b 01 13 00                  	<unknown>
     50a: 00 1b                        	<unknown>
     50c: 17 01 0b 0b                  	auipc	sp, 45232
     510: 3a 0b                        	<unknown>
     512: 3b 05 39 0b                  	<unknown>
     516: 01 13                        	<unknown>
     518: 00 00                        	<unknown>
     51a: 1c 0d                        	<unknown>
     51c: 00 03                        	<unknown>
     51e: 0e 3a                        	<unknown>
     520: 0b 3b 05 39                  	<unknown>
     524: 0b 49 13 00                  	<unknown>
     528: 00 1d                        	<unknown>
     52a: 13 00 03 0e                  	addi	zero, t1, 224
     52e: 3c 19                        	<unknown>
     530: 00 00                        	<unknown>
     532: 1e 15                        	<unknown>
     534: 01 27                        	<unknown>
     536: 19 01                        	<unknown>
     538: 13 00 00 1f                  	addi	zero, zero, 496
     53c: 34 00                        	<unknown>
     53e: 03 0e 3a 0b                  	lb	t3, 179(s4)
     542: 3b 05 39 0b                  	<unknown>
     546: 49 13                        	<unknown>
     548: 3f 19 3c 19                  	<unknown>
     54c: 00 00                        	<unknown>
     54e: 20 21                        	<unknown>
     550: 00 00                        	<unknown>
     552: 00 21                        	<unknown>
     554: 34 00                        	<unknown>
     556: 03 0e 3a 0b                  	lb	t3, 179(s4)
     55a: 3b 0b 39 0b                  	<unknown>
     55e: 49 13                        	<unknown>
     560: 3f 19 3c 19                  	<unknown>
     564: 00 00                        	<unknown>
     566: 22 26                        	<unknown>
     568: 00 00                        	<unknown>
     56a: 00 23                        	<unknown>
     56c: 04 01                        	<unknown>
     56e: 03 0e 3e 0b                  	lb	t3, 179(t3)
     572: 0b 0b 49 13                  	<unknown>
     576: 3a 0b                        	<unknown>
     578: 3b 0b 39 0b                  	<unknown>
     57c: 01 13                        	<unknown>
     57e: 00 00                        	<unknown>
     580: 24 28                        	<unknown>
     582: 00 03                        	<unknown>
     584: 0e 1c                        	<unknown>
     586: 0b 00 00 25                  	<unknown>
     58a: 34 00                        	<unknown>
     58c: 47 13 3a 0b                  	<unknown>
     590: 3b 05 39 0b                  	<unknown>
     594: 02 18                        	<unknown>
     596: 00 00                        	<unknown>
     598: 00                           	<unknown>

Disassembly of section .debug_line:

00000000 .debug_line:
       0: 7e 08                        	<unknown>
       2: 00 00                        	<unknown>
       4: 03 00 93 00                  	lb	zero, 9(t1)
       8: 00 00                        	<unknown>
       a: 01 01                        	<unknown>
       c: fb 0e 0d 00                  	<unknown>
      10: 01 01                        	<unknown>
      12: 01 01                        	<unknown>
      14: 00 00                        	<unknown>
      16: 00 01                        	<unknown>
      18: 00 00                        	<unknown>
      1a: 01 2e                        	<unknown>
      1c: 2e 2f                        	<unknown>
      1e: 2e 2e                        	<unknown>
      20: 2f 2e 2e 2f                  	<unknown>
      24: 2e 2e                        	<unknown>
      26: 2f 72 69 73                  	<unknown>
      2a: 63 76 2d 67                  	bgeu	s10, s2, 1644
      2e: 63 63 2f 6c                  	bltu	t5, sp, 1734
      32: 69 62                        	<unknown>
      34: 67 63 63 2f                  	<unknown>
      38: 73 6f 66 74                  	csrrsi	t5, 1862, 12
      3c: 2d 66                        	<unknown>
      3e: 70 00                        	<unknown>
      40: 2e 2e                        	<unknown>
      42: 2f 2e 2e 2f                  	<unknown>
      46: 2e 2e                        	<unknown>
      48: 2f 2e 2e 2f                  	<unknown>
      4c: 72 69                        	<unknown>
      4e: 73 63 76 2d                  	csrrsi	t1, 727, 12
      52: 67 63 63 2f                  	<unknown>
      56: 6c 69                        	<unknown>
      58: 62 67                        	<unknown>
      5a: 63 63 2f 2e                  	bltu	t5, sp, 742
      5e: 2e 2f                        	<unknown>
      60: 69 6e                        	<unknown>
      62: 63 6c 75 64                  	bltu	a0, t2, 1624
      66: 65 00                        	<unknown>
      68: 00 64                        	<unknown>
      6a: 69 76                        	<unknown>
      6c: 73 66 33 2e                  	csrrsi	a2, 739, 6
      70: 63 00 01 00                  	beqz	sp, 0
      74: 00 73                        	<unknown>
      76: 6f 66 74 2d                  	jal	a2, 289494
      7a: 66 70                        	<unknown>
      7c: 2e 68                        	<unknown>
      7e: 00 01                        	<unknown>
      80: 00 00                        	<unknown>
      82: 73 69 6e 67                  	csrrsi	s2, 1654, 28
      86: 6c 65                        	<unknown>
      88: 2e 68                        	<unknown>
      8a: 00 01                        	<unknown>
      8c: 00 00                        	<unknown>
      8e: 6c 6f                        	<unknown>
      90: 6e 67                        	<unknown>
      92: 6c 6f                        	<unknown>
      94: 6e 67                        	<unknown>
      96: 2e 68                        	<unknown>
      98: 00 02                        	<unknown>
      9a: 00 00                        	<unknown>
      9c: 00 05                        	<unknown>
      9e: 01 00                        	<unknown>
      a0: 05 02                        	<unknown>
      a2: c0 0a                        	<unknown>
      a4: 00 80                        	<unknown>
      a6: 03 23 01 05                  	lw	t1, 80(sp)
      aa: 03 03 01 09                  	lb	t1, 144(sp)
      ae: 00 00                        	<unknown>
      b0: 01 03                        	<unknown>
      b2: 00 09                        	<unknown>
      b4: 00 00                        	<unknown>
      b6: 01 05                        	<unknown>
      b8: 0d 03                        	<unknown>
      ba: 00 09                        	<unknown>
      bc: 00 00                        	<unknown>
      be: 01 05                        	<unknown>
      c0: 03 03 01 09                  	lb	t1, 144(sp)
      c4: 00 00                        	<unknown>
      c6: 01 03                        	<unknown>
      c8: 00 09                        	<unknown>
      ca: 00 00                        	<unknown>
      cc: 01 03                        	<unknown>
      ce: 00 09                        	<unknown>
      d0: 00 00                        	<unknown>
      d2: 01 03                        	<unknown>
      d4: 00 09                        	<unknown>
      d6: 00 00                        	<unknown>
      d8: 01 03                        	<unknown>
      da: 01 09                        	<unknown>
      dc: 00 00                        	<unknown>
      de: 01 03                        	<unknown>
      e0: 00 09                        	<unknown>
      e2: 00 00                        	<unknown>
      e4: 01 03                        	<unknown>
      e6: 00 09                        	<unknown>
      e8: 00 00                        	<unknown>
      ea: 01 03                        	<unknown>
      ec: 00 09                        	<unknown>
      ee: 00 00                        	<unknown>
      f0: 01 03                        	<unknown>
      f2: 01 09                        	<unknown>
      f4: 00 00                        	<unknown>
      f6: 01 03                        	<unknown>
      f8: 00 09                        	<unknown>
      fa: 00 00                        	<unknown>
      fc: 01 03                        	<unknown>
      fe: 00 09                        	<unknown>
     100: 00 00                        	<unknown>
     102: 01 03                        	<unknown>
     104: 00 09                        	<unknown>
     106: 00 00                        	<unknown>
     108: 01 03                        	<unknown>
     10a: 01 09                        	<unknown>
     10c: 00 00                        	<unknown>
     10e: 01 03                        	<unknown>
     110: 02 09                        	<unknown>
     112: 00 00                        	<unknown>
     114: 01 03                        	<unknown>
     116: 01 09                        	<unknown>
     118: 00 00                        	<unknown>
     11a: 01 03                        	<unknown>
     11c: 00 09                        	<unknown>
     11e: 00 00                        	<unknown>
     120: 01 03                        	<unknown>
     122: 00 09                        	<unknown>
     124: 00 00                        	<unknown>
     126: 01 03                        	<unknown>
     128: 00 09                        	<unknown>
     12a: 00 00                        	<unknown>
     12c: 01 03                        	<unknown>
     12e: 00 09                        	<unknown>
     130: 00 00                        	<unknown>
     132: 01 05                        	<unknown>
     134: 01 06                        	<unknown>
     136: 03 78 09 00                  	<unknown>
     13a: 00 01                        	<unknown>
     13c: 05 03                        	<unknown>
     13e: 03 08 09 18                  	lb	a6, 384(s2)
     142: 00 01                        	<unknown>
     144: 05 01                        	<unknown>
     146: 03 78 09 04                  	<unknown>
     14a: 00 01                        	<unknown>
     14c: 03 00 09 10                  	lb	zero, 256(s2)
     150: 00 01                        	<unknown>
     152: 05 03                        	<unknown>
     154: 03 08 09 04                  	lb	a6, 64(s2)
     158: 00 01                        	<unknown>
     15a: 06 03                        	<unknown>
     15c: 00 09                        	<unknown>
     15e: 04 00                        	<unknown>
     160: 01 03                        	<unknown>
     162: 00 09                        	<unknown>
     164: 00 00                        	<unknown>
     166: 01 03                        	<unknown>
     168: 00 09                        	<unknown>
     16a: 04 00                        	<unknown>
     16c: 01 03                        	<unknown>
     16e: 00 09                        	<unknown>
     170: 00 00                        	<unknown>
     172: 01 03                        	<unknown>
     174: 00 09                        	<unknown>
     176: 00 00                        	<unknown>
     178: 01 00                        	<unknown>
     17a: 02 04                        	<unknown>
     17c: 01 03                        	<unknown>
     17e: 00 09                        	<unknown>
     180: 0c 00                        	<unknown>
     182: 01 00                        	<unknown>
     184: 02 04                        	<unknown>
     186: 01 03                        	<unknown>
     188: 00 09                        	<unknown>
     18a: 00 00                        	<unknown>
     18c: 01 00                        	<unknown>
     18e: 02 04                        	<unknown>
     190: 01 03                        	<unknown>
     192: 00 09                        	<unknown>
     194: 00 00                        	<unknown>
     196: 01 00                        	<unknown>
     198: 02 04                        	<unknown>
     19a: 01 03                        	<unknown>
     19c: 00 09                        	<unknown>
     19e: 00 00                        	<unknown>
     1a0: 01 00                        	<unknown>
     1a2: 02 04                        	<unknown>
     1a4: 01 03                        	<unknown>
     1a6: 00 09                        	<unknown>
     1a8: 0c 00                        	<unknown>
     1aa: 01 00                        	<unknown>
     1ac: 02 04                        	<unknown>
     1ae: 01 03                        	<unknown>
     1b0: 00 09                        	<unknown>
     1b2: 00 00                        	<unknown>
     1b4: 01 00                        	<unknown>
     1b6: 02 04                        	<unknown>
     1b8: 01 03                        	<unknown>
     1ba: 00 09                        	<unknown>
     1bc: 04 00                        	<unknown>
     1be: 01 00                        	<unknown>
     1c0: 02 04                        	<unknown>
     1c2: 01 03                        	<unknown>
     1c4: 00 09                        	<unknown>
     1c6: 00 00                        	<unknown>
     1c8: 01 00                        	<unknown>
     1ca: 02 04                        	<unknown>
     1cc: 0f 03 00 09                  	<unknown>
     1d0: 00 00                        	<unknown>
     1d2: 01 00                        	<unknown>
     1d4: 02 04                        	<unknown>
     1d6: 0f 03 00 09                  	<unknown>
     1da: 00 00                        	<unknown>
     1dc: 01 00                        	<unknown>
     1de: 02 04                        	<unknown>
     1e0: 08 03                        	<unknown>
     1e2: 00 09                        	<unknown>
     1e4: 04 00                        	<unknown>
     1e6: 01 00                        	<unknown>
     1e8: 02 04                        	<unknown>
     1ea: 08 03                        	<unknown>
     1ec: 00 09                        	<unknown>
     1ee: 00 00                        	<unknown>
     1f0: 01 00                        	<unknown>
     1f2: 02 04                        	<unknown>
     1f4: 08 03                        	<unknown>
     1f6: 01 09                        	<unknown>
     1f8: 00 00                        	<unknown>
     1fa: 01 00                        	<unknown>
     1fc: 02 04                        	<unknown>
     1fe: 08 03                        	<unknown>
     200: 00 09                        	<unknown>
     202: 00 00                        	<unknown>
     204: 01 00                        	<unknown>
     206: 02 04                        	<unknown>
     208: 08 03                        	<unknown>
     20a: 00 09                        	<unknown>
     20c: 00 00                        	<unknown>
     20e: 01 00                        	<unknown>
     210: 02 04                        	<unknown>
     212: 08 03                        	<unknown>
     214: 00 09                        	<unknown>
     216: 00 00                        	<unknown>
     218: 01 00                        	<unknown>
     21a: 02 04                        	<unknown>
     21c: 08 03                        	<unknown>
     21e: 00 09                        	<unknown>
     220: 00 00                        	<unknown>
     222: 01 00                        	<unknown>
     224: 02 04                        	<unknown>
     226: 08 03                        	<unknown>
     228: 00 09                        	<unknown>
     22a: 10 00                        	<unknown>
     22c: 01 00                        	<unknown>
     22e: 02 04                        	<unknown>
     230: 08 03                        	<unknown>
     232: 00 09                        	<unknown>
     234: 00 00                        	<unknown>
     236: 01 00                        	<unknown>
     238: 02 04                        	<unknown>
     23a: 08 03                        	<unknown>
     23c: 00 09                        	<unknown>
     23e: 04 00                        	<unknown>
     240: 01 00                        	<unknown>
     242: 02 04                        	<unknown>
     244: 08 03                        	<unknown>
     246: 00 09                        	<unknown>
     248: 00 00                        	<unknown>
     24a: 01 00                        	<unknown>
     24c: 02 04                        	<unknown>
     24e: 08 03                        	<unknown>
     250: 00 09                        	<unknown>
     252: 00 00                        	<unknown>
     254: 01 06                        	<unknown>
     256: 03 00 09 04                  	lb	zero, 64(s2)
     25a: 00 01                        	<unknown>
     25c: 00 02                        	<unknown>
     25e: 04 01                        	<unknown>
     260: 06 03                        	<unknown>
     262: 00 09                        	<unknown>
     264: 08 00                        	<unknown>
     266: 01 00                        	<unknown>
     268: 02 04                        	<unknown>
     26a: 01 03                        	<unknown>
     26c: 00 09                        	<unknown>
     26e: 00 00                        	<unknown>
     270: 01 00                        	<unknown>
     272: 02 04                        	<unknown>
     274: 01 03                        	<unknown>
     276: 00 09                        	<unknown>
     278: 00 00                        	<unknown>
     27a: 01 00                        	<unknown>
     27c: 02 04                        	<unknown>
     27e: 01 03                        	<unknown>
     280: 00 09                        	<unknown>
     282: 00 00                        	<unknown>
     284: 01 00                        	<unknown>
     286: 02 04                        	<unknown>
     288: 01 03                        	<unknown>
     28a: 00 09                        	<unknown>
     28c: 0c 00                        	<unknown>
     28e: 01 00                        	<unknown>
     290: 02 04                        	<unknown>
     292: 01 03                        	<unknown>
     294: 00 09                        	<unknown>
     296: 00 00                        	<unknown>
     298: 01 00                        	<unknown>
     29a: 02 04                        	<unknown>
     29c: 01 03                        	<unknown>
     29e: 00 09                        	<unknown>
     2a0: 04 00                        	<unknown>
     2a2: 01 00                        	<unknown>
     2a4: 02 04                        	<unknown>
     2a6: 01 03                        	<unknown>
     2a8: 00 09                        	<unknown>
     2aa: 00 00                        	<unknown>
     2ac: 01 00                        	<unknown>
     2ae: 02 04                        	<unknown>
     2b0: 0f 03 00 09                  	<unknown>
     2b4: 00 00                        	<unknown>
     2b6: 01 00                        	<unknown>
     2b8: 02 04                        	<unknown>
     2ba: 0f 03 00 09                  	<unknown>
     2be: 00 00                        	<unknown>
     2c0: 01 00                        	<unknown>
     2c2: 02 04                        	<unknown>
     2c4: 08 03                        	<unknown>
     2c6: 00 09                        	<unknown>
     2c8: 04 00                        	<unknown>
     2ca: 01 00                        	<unknown>
     2cc: 02 04                        	<unknown>
     2ce: 08 03                        	<unknown>
     2d0: 00 09                        	<unknown>
     2d2: 00 00                        	<unknown>
     2d4: 01 00                        	<unknown>
     2d6: 02 04                        	<unknown>
     2d8: 08 03                        	<unknown>
     2da: 01 09                        	<unknown>
     2dc: 00 00                        	<unknown>
     2de: 01 00                        	<unknown>
     2e0: 02 04                        	<unknown>
     2e2: 08 03                        	<unknown>
     2e4: 00 09                        	<unknown>
     2e6: 00 00                        	<unknown>
     2e8: 01 00                        	<unknown>
     2ea: 02 04                        	<unknown>
     2ec: 08 03                        	<unknown>
     2ee: 00 09                        	<unknown>
     2f0: 18 00                        	<unknown>
     2f2: 01 00                        	<unknown>
     2f4: 02 04                        	<unknown>
     2f6: 08 03                        	<unknown>
     2f8: 00 09                        	<unknown>
     2fa: 00 00                        	<unknown>
     2fc: 01 00                        	<unknown>
     2fe: 02 04                        	<unknown>
     300: 02 03                        	<unknown>
     302: 7e 09                        	<unknown>
     304: 1c 00                        	<unknown>
     306: 01 00                        	<unknown>
     308: 02 04                        	<unknown>
     30a: 0f 03 00 09                  	<unknown>
     30e: 04 00                        	<unknown>
     310: 01 00                        	<unknown>
     312: 02 04                        	<unknown>
     314: 0f 03 00 09                  	<unknown>
     318: 00 00                        	<unknown>
     31a: 01 00                        	<unknown>
     31c: 02 04                        	<unknown>
     31e: 0f 03 00 09                  	<unknown>
     322: 00 00                        	<unknown>
     324: 01 00                        	<unknown>
     326: 02 04                        	<unknown>
     328: 0f 03 00 09                  	<unknown>
     32c: 00 00                        	<unknown>
     32e: 01 00                        	<unknown>
     330: 02 04                        	<unknown>
     332: 0f 03 00 09                  	<unknown>
     336: 00 00                        	<unknown>
     338: 01 00                        	<unknown>
     33a: 02 04                        	<unknown>
     33c: 0f 03 00 09                  	<unknown>
     340: 00 00                        	<unknown>
     342: 01 00                        	<unknown>
     344: 02 04                        	<unknown>
     346: 0f 03 00 09                  	<unknown>
     34a: 08 00                        	<unknown>
     34c: 01 00                        	<unknown>
     34e: 02 04                        	<unknown>
     350: 0f 03 00 09                  	<unknown>
     354: 00 00                        	<unknown>
     356: 01 00                        	<unknown>
     358: 02 04                        	<unknown>
     35a: 0f 03 00 09                  	<unknown>
     35e: 00 00                        	<unknown>
     360: 01 00                        	<unknown>
     362: 02 04                        	<unknown>
     364: 0f 03 00 09                  	<unknown>
     368: 00 00                        	<unknown>
     36a: 01 00                        	<unknown>
     36c: 02 04                        	<unknown>
     36e: 0f 03 00 09                  	<unknown>
     372: 00 00                        	<unknown>
     374: 01 00                        	<unknown>
     376: 02 04                        	<unknown>
     378: 0f 03 00 09                  	<unknown>
     37c: 0c 00                        	<unknown>
     37e: 01 00                        	<unknown>
     380: 02 04                        	<unknown>
     382: 0f 03 00 09                  	<unknown>
     386: 00 00                        	<unknown>
     388: 01 00                        	<unknown>
     38a: 02 04                        	<unknown>
     38c: 03 03 00 09                  	lb	t1, 144(zero)
     390: 08 00                        	<unknown>
     392: 01 06                        	<unknown>
     394: 03 00 09 0c                  	lb	zero, 192(s2)
     398: 00 01                        	<unknown>
     39a: 00 02                        	<unknown>
     39c: 04 02                        	<unknown>
     39e: 06 03                        	<unknown>
     3a0: 01 09                        	<unknown>
     3a2: 14 00                        	<unknown>
     3a4: 01 00                        	<unknown>
     3a6: 02 04                        	<unknown>
     3a8: 0f 03 00 09                  	<unknown>
     3ac: 04 00                        	<unknown>
     3ae: 01 00                        	<unknown>
     3b0: 02 04                        	<unknown>
     3b2: 0f 03 00 09                  	<unknown>
     3b6: 00 00                        	<unknown>
     3b8: 01 00                        	<unknown>
     3ba: 02 04                        	<unknown>
     3bc: 0f 03 00 09                  	<unknown>
     3c0: 00 00                        	<unknown>
     3c2: 01 00                        	<unknown>
     3c4: 02 04                        	<unknown>
     3c6: 0f 03 00 09                  	<unknown>
     3ca: 00 00                        	<unknown>
     3cc: 01 00                        	<unknown>
     3ce: 02 04                        	<unknown>
     3d0: 0f 03 00 09                  	<unknown>
     3d4: 00 00                        	<unknown>
     3d6: 01 00                        	<unknown>
     3d8: 02 04                        	<unknown>
     3da: 0f 03 00 09                  	<unknown>
     3de: 00 00                        	<unknown>
     3e0: 01 00                        	<unknown>
     3e2: 02 04                        	<unknown>
     3e4: 0f 03 00 09                  	<unknown>
     3e8: 08 00                        	<unknown>
     3ea: 01 00                        	<unknown>
     3ec: 02 04                        	<unknown>
     3ee: 0f 03 00 09                  	<unknown>
     3f2: 00 00                        	<unknown>
     3f4: 01 00                        	<unknown>
     3f6: 02 04                        	<unknown>
     3f8: 0f 03 00 09                  	<unknown>
     3fc: 00 00                        	<unknown>
     3fe: 01 00                        	<unknown>
     400: 02 04                        	<unknown>
     402: 0f 03 00 09                  	<unknown>
     406: 00 00                        	<unknown>
     408: 01 00                        	<unknown>
     40a: 02 04                        	<unknown>
     40c: 0f 03 00 09                  	<unknown>
     410: 00 00                        	<unknown>
     412: 01 00                        	<unknown>
     414: 02 04                        	<unknown>
     416: 0f 03 00 09                  	<unknown>
     41a: 08 00                        	<unknown>
     41c: 01 00                        	<unknown>
     41e: 02 04                        	<unknown>
     420: 0f 03 00 09                  	<unknown>
     424: 00 00                        	<unknown>
     426: 01 00                        	<unknown>
     428: 02 04                        	<unknown>
     42a: 03 03 00 09                  	lb	t1, 144(zero)
     42e: 0c 00                        	<unknown>
     430: 01 06                        	<unknown>
     432: 03 00 09 0c                  	lb	zero, 192(s2)
     436: 00 01                        	<unknown>
     438: 00 02                        	<unknown>
     43a: 04 02                        	<unknown>
     43c: 06 03                        	<unknown>
     43e: 01 09                        	<unknown>
     440: 14 00                        	<unknown>
     442: 01 00                        	<unknown>
     444: 02 04                        	<unknown>
     446: 02 03                        	<unknown>
     448: 00 09                        	<unknown>
     44a: 00 00                        	<unknown>
     44c: 01 00                        	<unknown>
     44e: 02 04                        	<unknown>
     450: 02 03                        	<unknown>
     452: 00 09                        	<unknown>
     454: 00 00                        	<unknown>
     456: 01 00                        	<unknown>
     458: 02 04                        	<unknown>
     45a: 02 03                        	<unknown>
     45c: 00 09                        	<unknown>
     45e: 00 00                        	<unknown>
     460: 01 00                        	<unknown>
     462: 02 04                        	<unknown>
     464: 02 03                        	<unknown>
     466: 00 09                        	<unknown>
     468: 00 00                        	<unknown>
     46a: 01 00                        	<unknown>
     46c: 02 04                        	<unknown>
     46e: 02 03                        	<unknown>
     470: 00 09                        	<unknown>
     472: 00 00                        	<unknown>
     474: 01 00                        	<unknown>
     476: 02 04                        	<unknown>
     478: 02 03                        	<unknown>
     47a: 00 09                        	<unknown>
     47c: 00 00                        	<unknown>
     47e: 01 00                        	<unknown>
     480: 02 04                        	<unknown>
     482: 02 03                        	<unknown>
     484: 00 09                        	<unknown>
     486: 00 00                        	<unknown>
     488: 01 00                        	<unknown>
     48a: 02 04                        	<unknown>
     48c: 02 03                        	<unknown>
     48e: 00 09                        	<unknown>
     490: 04 00                        	<unknown>
     492: 01 00                        	<unknown>
     494: 02 04                        	<unknown>
     496: 0a 03                        	<unknown>
     498: 00 09                        	<unknown>
     49a: 04 00                        	<unknown>
     49c: 01 00                        	<unknown>
     49e: 02 04                        	<unknown>
     4a0: 0a 03                        	<unknown>
     4a2: 00 09                        	<unknown>
     4a4: 04 00                        	<unknown>
     4a6: 01 00                        	<unknown>
     4a8: 02 04                        	<unknown>
     4aa: 0a 03                        	<unknown>
     4ac: 00 09                        	<unknown>
     4ae: 00 00                        	<unknown>
     4b0: 01 00                        	<unknown>
     4b2: 02 04                        	<unknown>
     4b4: 0d 03                        	<unknown>
     4b6: 00 09                        	<unknown>
     4b8: 04 00                        	<unknown>
     4ba: 01 00                        	<unknown>
     4bc: 02 04                        	<unknown>
     4be: 0d 03                        	<unknown>
     4c0: 00 09                        	<unknown>
     4c2: 00 00                        	<unknown>
     4c4: 01 00                        	<unknown>
     4c6: 02 04                        	<unknown>
     4c8: 0d 03                        	<unknown>
     4ca: 00 09                        	<unknown>
     4cc: 00 00                        	<unknown>
     4ce: 01 00                        	<unknown>
     4d0: 02 04                        	<unknown>
     4d2: 0d 03                        	<unknown>
     4d4: 00 09                        	<unknown>
     4d6: 00 00                        	<unknown>
     4d8: 01 00                        	<unknown>
     4da: 02 04                        	<unknown>
     4dc: 0d 03                        	<unknown>
     4de: 00 09                        	<unknown>
     4e0: 04 00                        	<unknown>
     4e2: 01 00                        	<unknown>
     4e4: 02 04                        	<unknown>
     4e6: 0d 03                        	<unknown>
     4e8: 00 09                        	<unknown>
     4ea: 10 00                        	<unknown>
     4ec: 01 00                        	<unknown>
     4ee: 02 04                        	<unknown>
     4f0: 0d 03                        	<unknown>
     4f2: 00 09                        	<unknown>
     4f4: 00 00                        	<unknown>
     4f6: 01 00                        	<unknown>
     4f8: 02 04                        	<unknown>
     4fa: 0d 03                        	<unknown>
     4fc: 00 09                        	<unknown>
     4fe: 00 00                        	<unknown>
     500: 01 00                        	<unknown>
     502: 02 04                        	<unknown>
     504: 0d 03                        	<unknown>
     506: 00 09                        	<unknown>
     508: 10 00                        	<unknown>
     50a: 01 00                        	<unknown>
     50c: 02 04                        	<unknown>
     50e: 0d 03                        	<unknown>
     510: 00 09                        	<unknown>
     512: 08 00                        	<unknown>
     514: 01 00                        	<unknown>
     516: 02 04                        	<unknown>
     518: 0e 03                        	<unknown>
     51a: 00 09                        	<unknown>
     51c: 04 00                        	<unknown>
     51e: 01 00                        	<unknown>
     520: 02 04                        	<unknown>
     522: 0e 03                        	<unknown>
     524: 00 09                        	<unknown>
     526: 08 00                        	<unknown>
     528: 01 00                        	<unknown>
     52a: 02 04                        	<unknown>
     52c: 10 03                        	<unknown>
     52e: 00 09                        	<unknown>
     530: 04 00                        	<unknown>
     532: 01 00                        	<unknown>
     534: 02 04                        	<unknown>
     536: 12 03                        	<unknown>
     538: 00 09                        	<unknown>
     53a: 04 00                        	<unknown>
     53c: 01 00                        	<unknown>
     53e: 02 04                        	<unknown>
     540: 14 03                        	<unknown>
     542: 00 09                        	<unknown>
     544: 08 00                        	<unknown>
     546: 01 00                        	<unknown>
     548: 02 04                        	<unknown>
     54a: 14 03                        	<unknown>
     54c: 00 09                        	<unknown>
     54e: 04 00                        	<unknown>
     550: 01 00                        	<unknown>
     552: 02 04                        	<unknown>
     554: 14 03                        	<unknown>
     556: 00 09                        	<unknown>
     558: 00 00                        	<unknown>
     55a: 01 00                        	<unknown>
     55c: 02 04                        	<unknown>
     55e: 14 03                        	<unknown>
     560: 00 09                        	<unknown>
     562: 04 00                        	<unknown>
     564: 01 00                        	<unknown>
     566: 02 04                        	<unknown>
     568: 14 03                        	<unknown>
     56a: 00 09                        	<unknown>
     56c: 08 00                        	<unknown>
     56e: 01 00                        	<unknown>
     570: 02 04                        	<unknown>
     572: 14 03                        	<unknown>
     574: 00 09                        	<unknown>
     576: 04 00                        	<unknown>
     578: 01 00                        	<unknown>
     57a: 02 04                        	<unknown>
     57c: 15 03                        	<unknown>
     57e: 00 09                        	<unknown>
     580: 08 00                        	<unknown>
     582: 01 00                        	<unknown>
     584: 02 04                        	<unknown>
     586: 15 03                        	<unknown>
     588: 00 09                        	<unknown>
     58a: 08 00                        	<unknown>
     58c: 01 00                        	<unknown>
     58e: 02 04                        	<unknown>
     590: 17 03 00 09                  	auipc	t1, 36864
     594: 04 00                        	<unknown>
     596: 01 00                        	<unknown>
     598: 02 04                        	<unknown>
     59a: 19 03                        	<unknown>
     59c: 00 09                        	<unknown>
     59e: 04 00                        	<unknown>
     5a0: 01 00                        	<unknown>
     5a2: 02 04                        	<unknown>
     5a4: 1b 03 00 09                  	<unknown>
     5a8: 08 00                        	<unknown>
     5aa: 01 00                        	<unknown>
     5ac: 02 04                        	<unknown>
     5ae: 1b 03 00 09                  	<unknown>
     5b2: 00 00                        	<unknown>
     5b4: 01 00                        	<unknown>
     5b6: 02 04                        	<unknown>
     5b8: 1b 03 00 09                  	<unknown>
     5bc: 00 00                        	<unknown>
     5be: 01 00                        	<unknown>
     5c0: 02 04                        	<unknown>
     5c2: 1b 03 00 09                  	<unknown>
     5c6: 00 00                        	<unknown>
     5c8: 01 00                        	<unknown>
     5ca: 02 04                        	<unknown>
     5cc: 1b 03 00 09                  	<unknown>
     5d0: 00 00                        	<unknown>
     5d2: 01 00                        	<unknown>
     5d4: 02 04                        	<unknown>
     5d6: 1b 03 00 09                  	<unknown>
     5da: 14 00                        	<unknown>
     5dc: 01 00                        	<unknown>
     5de: 02 04                        	<unknown>
     5e0: 1b 03 00 09                  	<unknown>
     5e4: 00 00                        	<unknown>
     5e6: 01 00                        	<unknown>
     5e8: 02 04                        	<unknown>
     5ea: 1b 03 00 09                  	<unknown>
     5ee: 00 00                        	<unknown>
     5f0: 01 00                        	<unknown>
     5f2: 02 04                        	<unknown>
     5f4: 1b 03 01 09                  	<unknown>
     5f8: 00 00                        	<unknown>
     5fa: 01 00                        	<unknown>
     5fc: 02 04                        	<unknown>
     5fe: 1b 03 00 09                  	<unknown>
     602: 00 00                        	<unknown>
     604: 01 00                        	<unknown>
     606: 02 04                        	<unknown>
     608: 1b 03 00 09                  	<unknown>
     60c: 00 00                        	<unknown>
     60e: 01 00                        	<unknown>
     610: 02 04                        	<unknown>
     612: 02 03                        	<unknown>
     614: 00 09                        	<unknown>
     616: 00 00                        	<unknown>
     618: 01 00                        	<unknown>
     61a: 02 04                        	<unknown>
     61c: 02 03                        	<unknown>
     61e: 00 09                        	<unknown>
     620: 04 00                        	<unknown>
     622: 01 00                        	<unknown>
     624: 02 04                        	<unknown>
     626: 06 03                        	<unknown>
     628: 00 09                        	<unknown>
     62a: 04 00                        	<unknown>
     62c: 01 00                        	<unknown>
     62e: 02 04                        	<unknown>
     630: 06 03                        	<unknown>
     632: 00 09                        	<unknown>
     634: 00 00                        	<unknown>
     636: 01 00                        	<unknown>
     638: 02 04                        	<unknown>
     63a: 08 03                        	<unknown>
     63c: 00 09                        	<unknown>
     63e: 08 00                        	<unknown>
     640: 01 00                        	<unknown>
     642: 02 04                        	<unknown>
     644: 08 03                        	<unknown>
     646: 00 09                        	<unknown>
     648: 00 00                        	<unknown>
     64a: 01 00                        	<unknown>
     64c: 02 04                        	<unknown>
     64e: 08 03                        	<unknown>
     650: 00 09                        	<unknown>
     652: 00 00                        	<unknown>
     654: 01 00                        	<unknown>
     656: 02 04                        	<unknown>
     658: 08 03                        	<unknown>
     65a: 00 09                        	<unknown>
     65c: 00 00                        	<unknown>
     65e: 01 00                        	<unknown>
     660: 02 04                        	<unknown>
     662: 0a 03                        	<unknown>
     664: 00 09                        	<unknown>
     666: 0c 00                        	<unknown>
     668: 01 00                        	<unknown>
     66a: 02 04                        	<unknown>
     66c: 09 03                        	<unknown>
     66e: 00 09                        	<unknown>
     670: 04 00                        	<unknown>
     672: 01 00                        	<unknown>
     674: 02 04                        	<unknown>
     676: 09 03                        	<unknown>
     678: 00 09                        	<unknown>
     67a: 00 00                        	<unknown>
     67c: 01 00                        	<unknown>
     67e: 02 04                        	<unknown>
     680: 18 03                        	<unknown>
     682: 00 09                        	<unknown>
     684: 08 00                        	<unknown>
     686: 01 00                        	<unknown>
     688: 02 04                        	<unknown>
     68a: 18 03                        	<unknown>
     68c: 00 09                        	<unknown>
     68e: 0c 00                        	<unknown>
     690: 01 00                        	<unknown>
     692: 02 04                        	<unknown>
     694: 1a 03                        	<unknown>
     696: 00 09                        	<unknown>
     698: 04 00                        	<unknown>
     69a: 01 00                        	<unknown>
     69c: 02 04                        	<unknown>
     69e: 1a 03                        	<unknown>
     6a0: 00 09                        	<unknown>
     6a2: 00 00                        	<unknown>
     6a4: 01 00                        	<unknown>
     6a6: 02 04                        	<unknown>
     6a8: 6f 03 00 09                  	jal	t1, 144
     6ac: 0c 00                        	<unknown>
     6ae: 01 00                        	<unknown>
     6b0: 02 04                        	<unknown>
     6b2: 6f 03 00 09                  	jal	t1, 144
     6b6: 00 00                        	<unknown>
     6b8: 01 00                        	<unknown>
     6ba: 02 04                        	<unknown>
     6bc: 6f 03 00 09                  	jal	t1, 144
     6c0: 00 00                        	<unknown>
     6c2: 01 00                        	<unknown>
     6c4: 02 04                        	<unknown>
     6c6: 6f 03 00 09                  	jal	t1, 144
     6ca: 00 00                        	<unknown>
     6cc: 01 00                        	<unknown>
     6ce: 02 04                        	<unknown>
     6d0: 6f 03 00 09                  	jal	t1, 144
     6d4: 00 00                        	<unknown>
     6d6: 01 00                        	<unknown>
     6d8: 02 04                        	<unknown>
     6da: 6f 03 00 09                  	jal	t1, 144
     6de: 00 00                        	<unknown>
     6e0: 01 00                        	<unknown>
     6e2: 02 04                        	<unknown>
     6e4: 6f 03 00 09                  	jal	t1, 144
     6e8: 1c 00                        	<unknown>
     6ea: 01 00                        	<unknown>
     6ec: 02 04                        	<unknown>
     6ee: 6f 03 00 09                  	jal	t1, 144
     6f2: 00 00                        	<unknown>
     6f4: 01 00                        	<unknown>
     6f6: 02 04                        	<unknown>
     6f8: 6f 03 00 09                  	jal	t1, 144
     6fc: 00 00                        	<unknown>
     6fe: 01 00                        	<unknown>
     700: 02 04                        	<unknown>
     702: 6f 03 01 09                  	jal	t1, 65680
     706: 00 00                        	<unknown>
     708: 01 00                        	<unknown>
     70a: 02 04                        	<unknown>
     70c: 6f 03 00 09                  	jal	t1, 144
     710: 00 00                        	<unknown>
     712: 01 00                        	<unknown>
     714: 02 04                        	<unknown>
     716: 6f 03 00 09                  	jal	t1, 144
     71a: 00 00                        	<unknown>
     71c: 01 00                        	<unknown>
     71e: 02 04                        	<unknown>
     720: 6f 03 02 09                  	jal	t1, 131216
     724: 00 00                        	<unknown>
     726: 01 05                        	<unknown>
     728: 01 00                        	<unknown>
     72a: 02 04                        	<unknown>
     72c: 6f 06 03 01                  	jal	a2, 196624
     730: 09 00                        	<unknown>
     732: 00 01                        	<unknown>
     734: 05 03                        	<unknown>
     736: 00 02                        	<unknown>
     738: 04 0b                        	<unknown>
     73a: 06 03                        	<unknown>
     73c: 7b 09 28 00                  	<unknown>
     740: 01 00                        	<unknown>
     742: 02 04                        	<unknown>
     744: 0b 03 00 09                  	<unknown>
     748: 04 00                        	<unknown>
     74a: 01 00                        	<unknown>
     74c: 02 04                        	<unknown>
     74e: 08 06                        	<unknown>
     750: 03 7e 09 08                  	<unknown>
     754: 00 01                        	<unknown>
     756: 00 02                        	<unknown>
     758: 04 08                        	<unknown>
     75a: 06 03                        	<unknown>
     75c: 02 09                        	<unknown>
     75e: 04 00                        	<unknown>
     760: 01 00                        	<unknown>
     762: 02 04                        	<unknown>
     764: 08 03                        	<unknown>
     766: 00 09                        	<unknown>
     768: 00 00                        	<unknown>
     76a: 01 00                        	<unknown>
     76c: 02 04                        	<unknown>
     76e: 08 03                        	<unknown>
     770: 00 09                        	<unknown>
     772: 00 00                        	<unknown>
     774: 01 00                        	<unknown>
     776: 02 04                        	<unknown>
     778: 08 03                        	<unknown>
     77a: 00 09                        	<unknown>
     77c: 00 00                        	<unknown>
     77e: 01 00                        	<unknown>
     780: 02 04                        	<unknown>
     782: 23 03 00 09                  	sb	a6, 134(zero)
     786: 08 00                        	<unknown>
     788: 01 00                        	<unknown>
     78a: 02 04                        	<unknown>
     78c: 23 03 01 09                  	sb	a6, 134(sp)
     790: 00 00                        	<unknown>
     792: 01 00                        	<unknown>
     794: 02 04                        	<unknown>
     796: 23 03 00 09                  	sb	a6, 134(zero)
     79a: 00 00                        	<unknown>
     79c: 01 00                        	<unknown>
     79e: 02 04                        	<unknown>
     7a0: 23 03 00 09                  	sb	a6, 134(zero)
     7a4: 00 00                        	<unknown>
     7a6: 01 06                        	<unknown>
     7a8: 03 00 09 08                  	lb	zero, 128(s2)
     7ac: 00 01                        	<unknown>
     7ae: 00 02                        	<unknown>
     7b0: 04 05                        	<unknown>
     7b2: 03 7e 09 1c                  	<unknown>
     7b6: 00 01                        	<unknown>
     7b8: 00 02                        	<unknown>
     7ba: 04 05                        	<unknown>
     7bc: 06 03                        	<unknown>
     7be: 01 09                        	<unknown>
     7c0: 04 00                        	<unknown>
     7c2: 01 00                        	<unknown>
     7c4: 02 04                        	<unknown>
     7c6: 05 03                        	<unknown>
     7c8: 00 09                        	<unknown>
     7ca: 00 00                        	<unknown>
     7cc: 01 00                        	<unknown>
     7ce: 02 04                        	<unknown>
     7d0: 05 03                        	<unknown>
     7d2: 00 09                        	<unknown>
     7d4: 00 00                        	<unknown>
     7d6: 01 00                        	<unknown>
     7d8: 02 04                        	<unknown>
     7da: 05 03                        	<unknown>
     7dc: 00 09                        	<unknown>
     7de: 00 00                        	<unknown>
     7e0: 01 06                        	<unknown>
     7e2: 03 00 09 04                  	lb	zero, 64(s2)
     7e6: 00 01                        	<unknown>
     7e8: 00 02                        	<unknown>
     7ea: 04 3b                        	<unknown>
     7ec: 06 03                        	<unknown>
     7ee: 01 09                        	<unknown>
     7f0: 10 00                        	<unknown>
     7f2: 01 00                        	<unknown>
     7f4: 02 04                        	<unknown>
     7f6: 3b 03 00 09                  	<unknown>
     7fa: 00 00                        	<unknown>
     7fc: 01 00                        	<unknown>
     7fe: 02 04                        	<unknown>
     800: 3b 03 00 09                  	<unknown>
     804: 00 00                        	<unknown>
     806: 01 00                        	<unknown>
     808: 02 04                        	<unknown>
     80a: 3b 03 00 09                  	<unknown>
     80e: 08 00                        	<unknown>
     810: 01 00                        	<unknown>
     812: 02 04                        	<unknown>
     814: 3c 03                        	<unknown>
     816: 00 09                        	<unknown>
     818: 08 00                        	<unknown>
     81a: 01 00                        	<unknown>
     81c: 02 04                        	<unknown>
     81e: 3c 03                        	<unknown>
     820: 00 09                        	<unknown>
     822: 14 00                        	<unknown>
     824: 01 00                        	<unknown>
     826: 02 04                        	<unknown>
     828: 3c 03                        	<unknown>
     82a: 00 09                        	<unknown>
     82c: 00 00                        	<unknown>
     82e: 01 00                        	<unknown>
     830: 02 04                        	<unknown>
     832: 44 03                        	<unknown>
     834: 00 09                        	<unknown>
     836: 08 00                        	<unknown>
     838: 01 00                        	<unknown>
     83a: 02 04                        	<unknown>
     83c: 44 03                        	<unknown>
     83e: 00 09                        	<unknown>
     840: 00 00                        	<unknown>
     842: 01 00                        	<unknown>
     844: 02 04                        	<unknown>
     846: 44 03                        	<unknown>
     848: 00 09                        	<unknown>
     84a: 00 00                        	<unknown>
     84c: 01 00                        	<unknown>
     84e: 02 04                        	<unknown>
     850: 44 03                        	<unknown>
     852: 00 09                        	<unknown>
     854: 00 00                        	<unknown>
     856: 01 00                        	<unknown>
     858: 02 04                        	<unknown>
     85a: 46 03                        	<unknown>
     85c: 00 09                        	<unknown>
     85e: 0c 00                        	<unknown>
     860: 01 00                        	<unknown>
     862: 02 04                        	<unknown>
     864: 45 03                        	<unknown>
     866: 00 09                        	<unknown>
     868: 04 00                        	<unknown>
     86a: 01 00                        	<unknown>
     86c: 02 04                        	<unknown>
     86e: 45 03                        	<unknown>
     870: 00 09                        	<unknown>
     872: 00 00                        	<unknown>
     874: 01 06                        	<unknown>
     876: 03 00 09 0c                  	lb	zero, 192(s2)
     87a: 00 01                        	<unknown>
     87c: 09 28                        	<unknown>
     87e: 00 00                        	<unknown>
     880: 01 01                        	<unknown>
     882: b0 02                        	<unknown>
     884: 00 00                        	<unknown>
     886: 03 00 1e 02                  	lb	zero, 33(t3)
     88a: 00 00                        	<unknown>
     88c: 01 01                        	<unknown>
     88e: fb 0e 0d 00                  	<unknown>
     892: 01 01                        	<unknown>
     894: 01 01                        	<unknown>
     896: 00 00                        	<unknown>
     898: 00 01                        	<unknown>
     89a: 00 00                        	<unknown>
     89c: 01 2e                        	<unknown>
     89e: 2e 2f                        	<unknown>
     8a0: 2e 2e                        	<unknown>
     8a2: 2f 2e 2e 2f                  	<unknown>
     8a6: 2e 2e                        	<unknown>
     8a8: 2f 72 69 73                  	<unknown>
     8ac: 63 76 2d 67                  	bgeu	s10, s2, 1644
     8b0: 63 63 2f 6c                  	bltu	t5, sp, 1734
     8b4: 69 62                        	<unknown>
     8b6: 67 63 63 00                  	<unknown>
     8ba: 2f 68 6f 6d                  	<unknown>
     8be: 65 2f                        	<unknown>
     8c0: 62 6c                        	<unknown>
     8c2: 61 69                        	<unknown>
     8c4: 73 65 2f 64                  	csrrsi	a0, 1602, 30
     8c8: 65 76                        	<unknown>
     8ca: 2f 72 69 73                  	<unknown>
     8ce: 63 76 2d 67                  	bgeu	s10, s2, 1644
     8d2: 6e 75                        	<unknown>
     8d4: 2d 74                        	<unknown>
     8d6: 6f 6f 6c 63                  	jal	t5, 812598
     8da: 68 61                        	<unknown>
     8dc: 69 6e                        	<unknown>
     8de: 32 2f                        	<unknown>
     8e0: 62 75                        	<unknown>
     8e2: 69 6c                        	<unknown>
     8e4: 64 2f                        	<unknown>
     8e6: 62 75                        	<unknown>
     8e8: 69 6c                        	<unknown>
     8ea: 64 2d                        	<unknown>
     8ec: 67 63 63 2d                  	<unknown>
     8f0: 6e 65                        	<unknown>
     8f2: 77 6c 69 62                  	<unknown>
     8f6: 2d 73                        	<unknown>
     8f8: 74 61                        	<unknown>
     8fa: 67 65 32 2f                  	<unknown>
     8fe: 67 63 63 2f                  	<unknown>
     902: 69 6e                        	<unknown>
     904: 63 6c 75 64                  	bltu	a0, t2, 1624
     908: 65 00                        	<unknown>
     90a: 2f 68 6f 6d                  	<unknown>
     90e: 65 2f                        	<unknown>
     910: 62 6c                        	<unknown>
     912: 61 69                        	<unknown>
     914: 73 65 2f 64                  	csrrsi	a0, 1602, 30
     918: 65 76                        	<unknown>
     91a: 2f 72 69 73                  	<unknown>
     91e: 63 76 2d 67                  	bgeu	s10, s2, 1644
     922: 6e 75                        	<unknown>
     924: 2d 74                        	<unknown>
     926: 6f 6f 6c 63                  	jal	t5, 812598
     92a: 68 61                        	<unknown>
     92c: 69 6e                        	<unknown>
     92e: 32 2f                        	<unknown>
     930: 64 72                        	<unknown>
     932: 6f 70 73 2f                  	j	228086
     936: 72 69                        	<unknown>
     938: 73 63 76 33                  	csrrsi	t1, mhpmevent23, 12
     93c: 32 2d                        	<unknown>
     93e: 75 6e                        	<unknown>
     940: 6b 6e 6f 77                  	<unknown>
     944: 6e 2d                        	<unknown>
     946: 65 6c                        	<unknown>
     948: 66 2f                        	<unknown>
     94a: 69 6e                        	<unknown>
     94c: 63 6c 75 64                  	bltu	a0, t2, 1624
     950: 65 2f                        	<unknown>
     952: 73 79 73 00                  	csrrci	s2, 7, 6
     956: 2f 68 6f 6d                  	<unknown>
     95a: 65 2f                        	<unknown>
     95c: 62 6c                        	<unknown>
     95e: 61 69                        	<unknown>
     960: 73 65 2f 64                  	csrrsi	a0, 1602, 30
     964: 65 76                        	<unknown>
     966: 2f 72 69 73                  	<unknown>
     96a: 63 76 2d 67                  	bgeu	s10, s2, 1644
     96e: 6e 75                        	<unknown>
     970: 2d 74                        	<unknown>
     972: 6f 6f 6c 63                  	jal	t5, 812598
     976: 68 61                        	<unknown>
     978: 69 6e                        	<unknown>
     97a: 32 2f                        	<unknown>
     97c: 64 72                        	<unknown>
     97e: 6f 70 73 2f                  	j	228086
     982: 72 69                        	<unknown>
     984: 73 63 76 33                  	csrrsi	t1, mhpmevent23, 12
     988: 32 2d                        	<unknown>
     98a: 75 6e                        	<unknown>
     98c: 6b 6e 6f 77                  	<unknown>
     990: 6e 2d                        	<unknown>
     992: 65 6c                        	<unknown>
     994: 66 2f                        	<unknown>
     996: 69 6e                        	<unknown>
     998: 63 6c 75 64                  	bltu	a0, t2, 1624
     99c: 65 00                        	<unknown>
     99e: 2e 2e                        	<unknown>
     9a0: 2f 2e 2e 2f                  	<unknown>
     9a4: 2e 2e                        	<unknown>
     9a6: 2f 2e 2e 2f                  	<unknown>
     9aa: 72 69                        	<unknown>
     9ac: 73 63 76 2d                  	csrrsi	t1, 727, 12
     9b0: 67 63 63 2f                  	<unknown>
     9b4: 6c 69                        	<unknown>
     9b6: 62 67                        	<unknown>
     9b8: 63 63 2f 2e                  	bltu	t5, sp, 742
     9bc: 2e 2f                        	<unknown>
     9be: 69 6e                        	<unknown>
     9c0: 63 6c 75 64                  	bltu	a0, t2, 1624
     9c4: 65 00                        	<unknown>
     9c6: 2e 2e                        	<unknown>
     9c8: 2f 2e 2e 2f                  	<unknown>
     9cc: 2e 2e                        	<unknown>
     9ce: 2f 2e 2e 2f                  	<unknown>
     9d2: 72 69                        	<unknown>
     9d4: 73 63 76 2d                  	csrrsi	t1, 727, 12
     9d8: 67 63 63 2f                  	<unknown>
     9dc: 6c 69                        	<unknown>
     9de: 62 67                        	<unknown>
     9e0: 63 63 2f 2e                  	bltu	t5, sp, 742
     9e4: 2e 2f                        	<unknown>
     9e6: 67 63 63 2f                  	<unknown>
     9ea: 63 6f 6e 66                  	bltu	t3, t1, 1662
     9ee: 69 67                        	<unknown>
     9f0: 2f 72 69 73                  	<unknown>
     9f4: 63 76 00 2e                  	bgeu	zero, zero, 748
     9f8: 2e 2f                        	<unknown>
     9fa: 2e 2e                        	<unknown>
     9fc: 2f 2e 2f 67                  	<unknown>
     a00: 63 63 00 00                  	bltu	zero, zero, 6
     a04: 6c 69                        	<unknown>
     a06: 62 67                        	<unknown>
     a08: 63 63 32 2e                  	bltu	tp, gp, 742
     a0c: 63 00 01 00                  	beqz	sp, 0
     a10: 00 73                        	<unknown>
     a12: 74 64                        	<unknown>
     a14: 64 65                        	<unknown>
     a16: 66 2e                        	<unknown>
     a18: 68 00                        	<unknown>
     a1a: 02 00                        	<unknown>
     a1c: 00 5f                        	<unknown>
     a1e: 74 79                        	<unknown>
     a20: 70 65                        	<unknown>
     a22: 73 2e 68 00                  	csrrs	t3, 6, a6
     a26: 03 00 00 72                  	lb	zero, 1824(zero)
     a2a: 65 65                        	<unknown>
     a2c: 6e 74                        	<unknown>
     a2e: 2e 68                        	<unknown>
     a30: 00 03                        	<unknown>
     a32: 00 00                        	<unknown>
     a34: 6c 6f                        	<unknown>
     a36: 63 6b 2e 68                  	bltu	t3, sp, 1686
     a3a: 00 03                        	<unknown>
     a3c: 00 00                        	<unknown>
     a3e: 65 72                        	<unknown>
     a40: 72 6e                        	<unknown>
     a42: 6f 2e 68 00                  	jal	t3, 532486
     a46: 03 00 00 73                  	lb	zero, 1840(zero)
     a4a: 74 64                        	<unknown>
     a4c: 6c 69                        	<unknown>
     a4e: 62 2e                        	<unknown>
     a50: 68 00                        	<unknown>
     a52: 04 00                        	<unknown>
     a54: 00 75                        	<unknown>
     a56: 6e 69                        	<unknown>
     a58: 73 74 64 2e                  	csrrci	s0, 742, 8
     a5c: 68 00                        	<unknown>
     a5e: 03 00 00 74                  	lb	zero, 1856(zero)
     a62: 69 6d                        	<unknown>
     a64: 65 2e                        	<unknown>
     a66: 68 00                        	<unknown>
     a68: 04 00                        	<unknown>
     a6a: 00 68                        	<unknown>
     a6c: 61 73                        	<unknown>
     a6e: 68 74                        	<unknown>
     a70: 61 62                        	<unknown>
     a72: 2e 68                        	<unknown>
     a74: 00 05                        	<unknown>
     a76: 00 00                        	<unknown>
     a78: 72 69                        	<unknown>
     a7a: 73 63 76 2d                  	csrrsi	t1, 727, 12
     a7e: 6f 70 74 73                  	j	294710
     a82: 2e 68                        	<unknown>
     a84: 00 06                        	<unknown>
     a86: 00 00                        	<unknown>
     a88: 69 6e                        	<unknown>
     a8a: 73 6e 2d 63                  	csrrsi	t3, 1586, 26
     a8e: 6f 6e 73 74                  	jal	t3, 225094
     a92: 61 6e                        	<unknown>
     a94: 74 73                        	<unknown>
     a96: 2e 68                        	<unknown>
     a98: 00 07                        	<unknown>
     a9a: 00 00                        	<unknown>
     a9c: 6c 69                        	<unknown>
     a9e: 62 67                        	<unknown>
     aa0: 63 63 32 2e                  	bltu	tp, gp, 742
     aa4: 68 00                        	<unknown>
     aa6: 01 00                        	<unknown>
     aa8: 00 00                        	<unknown>
     aaa: 05 01                        	<unknown>
     aac: 00 05                        	<unknown>
     aae: 02 ec                        	<unknown>
     ab0: 0d 00                        	<unknown>
     ab2: 80 03                        	<unknown>
     ab4: c2 05                        	<unknown>
     ab6: 01 05                        	<unknown>
     ab8: 03 03 01 09                  	lb	t1, 144(sp)
     abc: 00 00                        	<unknown>
     abe: 01 03                        	<unknown>
     ac0: 02 09                        	<unknown>
     ac2: 00 00                        	<unknown>
     ac4: 01 03                        	<unknown>
     ac6: 00 09                        	<unknown>
     ac8: 00 00                        	<unknown>
     aca: 01 03                        	<unknown>
     acc: 00 09                        	<unknown>
     ace: 00 00                        	<unknown>
     ad0: 01 03                        	<unknown>
     ad2: 00 09                        	<unknown>
     ad4: 00 00                        	<unknown>
     ad6: 01 03                        	<unknown>
     ad8: 00 09                        	<unknown>
     ada: 00 00                        	<unknown>
     adc: 01 00                        	<unknown>
     ade: 02 04                        	<unknown>
     ae0: 03 06 03 00                  	lb	a2, 0(t1)
     ae4: 09 08                        	<unknown>
     ae6: 00 01                        	<unknown>
     ae8: 00 02                        	<unknown>
     aea: 04 0e                        	<unknown>
     aec: 06 03                        	<unknown>
     aee: 00 09                        	<unknown>
     af0: 0c 00                        	<unknown>
     af2: 01 00                        	<unknown>
     af4: 02 04                        	<unknown>
     af6: 0e 03                        	<unknown>
     af8: 00 09                        	<unknown>
     afa: 00 00                        	<unknown>
     afc: 01 00                        	<unknown>
     afe: 02 04                        	<unknown>
     b00: 0e 03                        	<unknown>
     b02: 02 09                        	<unknown>
     b04: 00 00                        	<unknown>
     b06: 01 00                        	<unknown>
     b08: 02 04                        	<unknown>
     b0a: 0e 06                        	<unknown>
     b0c: 03 7e 09 00                  	<unknown>
     b10: 00 01                        	<unknown>
     b12: 05 01                        	<unknown>
     b14: 00 02                        	<unknown>
     b16: 04 0e                        	<unknown>
     b18: 03 03 09 1c                  	lb	t1, 448(s2)
     b1c: 00 01                        	<unknown>
     b1e: 05 03                        	<unknown>
     b20: 00 02                        	<unknown>
     b22: 04 04                        	<unknown>
     b24: 03 7d 09 08                  	<unknown>
     b28: 00 01                        	<unknown>
     b2a: 03 00 09 0c                  	lb	zero, 192(s2)
     b2e: 00 01                        	<unknown>
     b30: 09 08                        	<unknown>
     b32: 00 00                        	<unknown>
     b34: 01 01                        	<unknown>
     b36: 24 02                        	<unknown>
     b38: 00 00                        	<unknown>
     b3a: 03 00 1e 02                  	lb	zero, 33(t3)
     b3e: 00 00                        	<unknown>
     b40: 01 01                        	<unknown>
     b42: fb 0e 0d 00                  	<unknown>
     b46: 01 01                        	<unknown>
     b48: 01 01                        	<unknown>
     b4a: 00 00                        	<unknown>
     b4c: 00 01                        	<unknown>
     b4e: 00 00                        	<unknown>
     b50: 01 2f                        	<unknown>
     b52: 68 6f                        	<unknown>
     b54: 6d 65                        	<unknown>
     b56: 2f 62 6c 61                  	<unknown>
     b5a: 69 73                        	<unknown>
     b5c: 65 2f                        	<unknown>
     b5e: 64 65                        	<unknown>
     b60: 76 2f                        	<unknown>
     b62: 72 69                        	<unknown>
     b64: 73 63 76 2d                  	csrrsi	t1, 727, 12
     b68: 67 6e 75 2d                  	<unknown>
     b6c: 74 6f                        	<unknown>
     b6e: 6f 6c 63 68                  	jal	s8, 222854
     b72: 61 69                        	<unknown>
     b74: 6e 32                        	<unknown>
     b76: 2f 62 75 69                  	<unknown>
     b7a: 6c 64                        	<unknown>
     b7c: 2f 62 75 69                  	<unknown>
     b80: 6c 64                        	<unknown>
     b82: 2d 67                        	<unknown>
     b84: 63 63 2d 6e                  	bltu	s10, sp, 1766
     b88: 65 77                        	<unknown>
     b8a: 6c 69                        	<unknown>
     b8c: 62 2d                        	<unknown>
     b8e: 73 74 61 67                  	csrrci	s0, 1654, 2
     b92: 65 32                        	<unknown>
     b94: 2f 67 63 63                  	<unknown>
     b98: 2f 69 6e 63                  	<unknown>
     b9c: 6c 75                        	<unknown>
     b9e: 64 65                        	<unknown>
     ba0: 00 2f                        	<unknown>
     ba2: 68 6f                        	<unknown>
     ba4: 6d 65                        	<unknown>
     ba6: 2f 62 6c 61                  	<unknown>
     baa: 69 73                        	<unknown>
     bac: 65 2f                        	<unknown>
     bae: 64 65                        	<unknown>
     bb0: 76 2f                        	<unknown>
     bb2: 72 69                        	<unknown>
     bb4: 73 63 76 2d                  	csrrsi	t1, 727, 12
     bb8: 67 6e 75 2d                  	<unknown>
     bbc: 74 6f                        	<unknown>
     bbe: 6f 6c 63 68                  	jal	s8, 222854
     bc2: 61 69                        	<unknown>
     bc4: 6e 32                        	<unknown>
     bc6: 2f 64 72 6f                  	<unknown>
     bca: 70 73                        	<unknown>
     bcc: 2f 72 69 73                  	<unknown>
     bd0: 63 76 33 32                  	bgeu	t1, gp, 812
     bd4: 2d 75                        	<unknown>
     bd6: 6e 6b                        	<unknown>
     bd8: 6e 6f                        	<unknown>
     bda: 77 6e 2d 65                  	<unknown>
     bde: 6c 66                        	<unknown>
     be0: 2f 69 6e 63                  	<unknown>
     be4: 6c 75                        	<unknown>
     be6: 64 65                        	<unknown>
     be8: 2f 73 79 73                  	<unknown>
     bec: 00 2f                        	<unknown>
     bee: 68 6f                        	<unknown>
     bf0: 6d 65                        	<unknown>
     bf2: 2f 62 6c 61                  	<unknown>
     bf6: 69 73                        	<unknown>
     bf8: 65 2f                        	<unknown>
     bfa: 64 65                        	<unknown>
     bfc: 76 2f                        	<unknown>
     bfe: 72 69                        	<unknown>
     c00: 73 63 76 2d                  	csrrsi	t1, 727, 12
     c04: 67 6e 75 2d                  	<unknown>
     c08: 74 6f                        	<unknown>
     c0a: 6f 6c 63 68                  	jal	s8, 222854
     c0e: 61 69                        	<unknown>
     c10: 6e 32                        	<unknown>
     c12: 2f 64 72 6f                  	<unknown>
     c16: 70 73                        	<unknown>
     c18: 2f 72 69 73                  	<unknown>
     c1c: 63 76 33 32                  	bgeu	t1, gp, 812
     c20: 2d 75                        	<unknown>
     c22: 6e 6b                        	<unknown>
     c24: 6e 6f                        	<unknown>
     c26: 77 6e 2d 65                  	<unknown>
     c2a: 6c 66                        	<unknown>
     c2c: 2f 69 6e 63                  	<unknown>
     c30: 6c 75                        	<unknown>
     c32: 64 65                        	<unknown>
     c34: 00 2e                        	<unknown>
     c36: 2e 2f                        	<unknown>
     c38: 2e 2e                        	<unknown>
     c3a: 2f 2e 2e 2f                  	<unknown>
     c3e: 2e 2e                        	<unknown>
     c40: 2f 72 69 73                  	<unknown>
     c44: 63 76 2d 67                  	bgeu	s10, s2, 1644
     c48: 63 63 2f 6c                  	bltu	t5, sp, 1734
     c4c: 69 62                        	<unknown>
     c4e: 67 63 63 2f                  	<unknown>
     c52: 2e 2e                        	<unknown>
     c54: 2f 69 6e 63                  	<unknown>
     c58: 6c 75                        	<unknown>
     c5a: 64 65                        	<unknown>
     c5c: 00 2e                        	<unknown>
     c5e: 2e 2f                        	<unknown>
     c60: 2e 2e                        	<unknown>
     c62: 2f 2e 2e 2f                  	<unknown>
     c66: 2e 2e                        	<unknown>
     c68: 2f 72 69 73                  	<unknown>
     c6c: 63 76 2d 67                  	bgeu	s10, s2, 1644
     c70: 63 63 2f 6c                  	bltu	t5, sp, 1734
     c74: 69 62                        	<unknown>
     c76: 67 63 63 2f                  	<unknown>
     c7a: 2e 2e                        	<unknown>
     c7c: 2f 67 63 63                  	<unknown>
     c80: 2f 63 6f 6e                  	<unknown>
     c84: 66 69                        	<unknown>
     c86: 67 2f 72 69                  	<unknown>
     c8a: 73 63 76 00                  	csrrsi	t1, 7, 12
     c8e: 2e 2e                        	<unknown>
     c90: 2f 2e 2e 2f                  	<unknown>
     c94: 2e 2f                        	<unknown>
     c96: 67 63 63 00                  	<unknown>
     c9a: 2e 2e                        	<unknown>
     c9c: 2f 2e 2e 2f                  	<unknown>
     ca0: 2e 2e                        	<unknown>
     ca2: 2f 2e 2e 2f                  	<unknown>
     ca6: 72 69                        	<unknown>
     ca8: 73 63 76 2d                  	csrrsi	t1, 727, 12
     cac: 67 63 63 2f                  	<unknown>
     cb0: 6c 69                        	<unknown>
     cb2: 62 67                        	<unknown>
     cb4: 63 63 00 00                  	bltu	zero, zero, 6
     cb8: 73 74 64 64                  	csrrci	s0, 1606, 8
     cbc: 65 66                        	<unknown>
     cbe: 2e 68                        	<unknown>
     cc0: 00 01                        	<unknown>
     cc2: 00 00                        	<unknown>
     cc4: 5f 74 79 70                  	<unknown>
     cc8: 65 73                        	<unknown>
     cca: 2e 68                        	<unknown>
     ccc: 00 02                        	<unknown>
     cce: 00 00                        	<unknown>
     cd0: 72 65                        	<unknown>
     cd2: 65 6e                        	<unknown>
     cd4: 74 2e                        	<unknown>
     cd6: 68 00                        	<unknown>
     cd8: 02 00                        	<unknown>
     cda: 00 6c                        	<unknown>
     cdc: 6f 63 6b 2e                  	jal	t1, 746214
     ce0: 68 00                        	<unknown>
     ce2: 02 00                        	<unknown>
     ce4: 00 65                        	<unknown>
     ce6: 72 72                        	<unknown>
     ce8: 6e 6f                        	<unknown>
     cea: 2e 68                        	<unknown>
     cec: 00 02                        	<unknown>
     cee: 00 00                        	<unknown>
     cf0: 73 74 64 6c                  	csrrci	s0, 1734, 8
     cf4: 69 62                        	<unknown>
     cf6: 2e 68                        	<unknown>
     cf8: 00 03                        	<unknown>
     cfa: 00 00                        	<unknown>
     cfc: 75 6e                        	<unknown>
     cfe: 69 73                        	<unknown>
     d00: 74 64                        	<unknown>
     d02: 2e 68                        	<unknown>
     d04: 00 02                        	<unknown>
     d06: 00 00                        	<unknown>
     d08: 74 69                        	<unknown>
     d0a: 6d 65                        	<unknown>
     d0c: 2e 68                        	<unknown>
     d0e: 00 03                        	<unknown>
     d10: 00 00                        	<unknown>
     d12: 68 61                        	<unknown>
     d14: 73 68 74 61                  	csrrsi	a6, 1559, 8
     d18: 62 2e                        	<unknown>
     d1a: 68 00                        	<unknown>
     d1c: 04 00                        	<unknown>
     d1e: 00 72                        	<unknown>
     d20: 69 73                        	<unknown>
     d22: 63 76 2d 6f                  	bgeu	s10, s2, 1772
     d26: 70 74                        	<unknown>
     d28: 73 2e 68 00                  	csrrs	t3, 6, a6
     d2c: 05 00                        	<unknown>
     d2e: 00 69                        	<unknown>
     d30: 6e 73                        	<unknown>
     d32: 6e 2d                        	<unknown>
     d34: 63 6f 6e 73                  	bltu	t3, s6, 1854
     d38: 74 61                        	<unknown>
     d3a: 6e 74                        	<unknown>
     d3c: 73 2e 68 00                  	csrrs	t3, 6, a6
     d40: 06 00                        	<unknown>
     d42: 00 6c                        	<unknown>
     d44: 69 62                        	<unknown>
     d46: 67 63 63 32                  	<unknown>
     d4a: 2e 68                        	<unknown>
     d4c: 00 07                        	<unknown>
     d4e: 00 00                        	<unknown>
     d50: 6c 69                        	<unknown>
     d52: 62 67                        	<unknown>
     d54: 63 63 32 2e                  	bltu	tp, gp, 742
     d58: 63 00 07 00                  	beqz	a4, 0
     d5c: 00 00                        	<unknown>

Disassembly of section .debug_frame:

00000000 .debug_frame:
       0: 0c 00                        	<unknown>
       2: 00 00                        	<unknown>
       4: ff ff ff ff                  	<unknown>
       8: 03 00 01 7c                  	lb	zero, 1984(sp)
       c: 01 0d                        	<unknown>
       e: 02 00                        	<unknown>
      10: 38 00                        	<unknown>
      12: 00 00                        	<unknown>
      14: 00 00                        	<unknown>
      16: 00 00                        	<unknown>
      18: c0 0a                        	<unknown>
      1a: 00 80                        	<unknown>
      1c: 2c 03                        	<unknown>
      1e: 00 00                        	<unknown>
      20: 44 0e                        	<unknown>
      22: 20 44                        	<unknown>
      24: 89 03                        	<unknown>
      26: 50 92                        	<unknown>
      28: 04 93                        	<unknown>
      2a: 05 94                        	<unknown>
      2c: 06 50                        	<unknown>
      2e: 81 01                        	<unknown>
      30: 88 02                        	<unknown>
      32: 95 07                        	<unknown>
      34: 03 1c 02 0a                  	lh	s8, 160(tp)
      38: c1 48                        	<unknown>
      3a: c8 44                        	<unknown>
      3c: c9 44                        	<unknown>
      3e: d2 44                        	<unknown>
      40: d3 44 d4 44                  	<unknown>
      44: d5 44                        	<unknown>
      46: 0e 00                        	<unknown>
      48: 44 0b                        	<unknown>
      4a: 00 00                        	<unknown>
      4c: 0c 00                        	<unknown>
      4e: 00 00                        	<unknown>
      50: ff ff ff ff                  	<unknown>
      54: 03 00 01 7c                  	lb	zero, 1984(sp)
      58: 01 0d                        	<unknown>
      5a: 02 00                        	<unknown>
      5c: 0c 00                        	<unknown>
      5e: 00 00                        	<unknown>
      60: 4c 00                        	<unknown>
      62: 00 00                        	<unknown>
      64: ec 0d                        	<unknown>
      66: 00 80                        	<unknown>
      68: 4c 00                        	<unknown>
      6a: 00 00                        	<unknown>

Disassembly of section .debug_str:

00000000 .debug_str:
       0: 5f 46 50 5f                  	<unknown>
       4: 50 41                        	<unknown>
       6: 43 4b 5f 52                  	<unknown>
       a: 41 57                        	<unknown>
       c: 5f 31 5f 66                  	<unknown>
      10: 6c 6f                        	<unknown>
      12: 00 5f                        	<unknown>
      14: 5f 72 30 00                  	<unknown>
      18: 5f 5f 71 30                  	<unknown>
      1c: 00 5f                        	<unknown>
      1e: 5f 71 31 00                  	<unknown>
      22: 5f 5f 72 31                  	<unknown>
      26: 00 5f                        	<unknown>
      28: 66 65                        	<unknown>
      2a: 78 00                        	<unknown>
      2c: 5f 46 50 5f                  	<unknown>
      30: 50 41                        	<unknown>
      32: 43 4b 5f 43                  	<unknown>
      36: 41 4e                        	<unknown>
      38: 4f 4e 49 43                  	<unknown>
      3c: 41 4c                        	<unknown>
      3e: 5f 69 73 5f                  	<unknown>
      42: 74 69                        	<unknown>
      44: 6e 79                        	<unknown>
      46: 00 2e                        	<unknown>
      48: 2e 2f                        	<unknown>
      4a: 2e 2e                        	<unknown>
      4c: 2f 2e 2e 2f                  	<unknown>
      50: 2e 2e                        	<unknown>
      52: 2f 72 69 73                  	<unknown>
      56: 63 76 2d 67                  	bgeu	s10, s2, 1644
      5a: 63 63 2f 6c                  	bltu	t5, sp, 1734
      5e: 69 62                        	<unknown>
      60: 67 63 63 2f                  	<unknown>
      64: 73 6f 66 74                  	csrrsi	t5, 1862, 12
      68: 2d 66                        	<unknown>
      6a: 70 2f                        	<unknown>
      6c: 64 69                        	<unknown>
      6e: 76 73                        	<unknown>
      70: 66 33                        	<unknown>
      72: 2e 63                        	<unknown>
      74: 00 5f                        	<unknown>
      76: 46 50                        	<unknown>
      78: 5f 50 41 43                  	<unknown>
      7c: 4b 5f 43 41                  	<unknown>
      80: 4e 4f                        	<unknown>
      82: 4e 49                        	<unknown>
      84: 43 41 4c 5f                  	<unknown>
      88: 54 5f                        	<unknown>
      8a: 66 00                        	<unknown>
      8c: 5f 5f 64 31                  	<unknown>
      90: 00 75                        	<unknown>
      92: 6e 73                        	<unknown>
      94: 69 67                        	<unknown>
      96: 6e 65                        	<unknown>
      98: 64 20                        	<unknown>
      9a: 63 68 61 72                  	bltu	sp, t1, 1840
      9e: 00 5f                        	<unknown>
      a0: 46 50                        	<unknown>
      a2: 5f 55 4e 50                  	<unknown>
      a6: 41 43                        	<unknown>
      a8: 4b 5f 52 41                  	<unknown>
      ac: 57 5f 31 5f                  	<unknown>
      b0: 66 6c                        	<unknown>
      b2: 6f 00 5f 5f                  	j	986612
      b6: 64 69                        	<unknown>
      b8: 76 73                        	<unknown>
      ba: 66 33                        	<unknown>
      bc: 00 73                        	<unknown>
      be: 68 6f                        	<unknown>
      c0: 72 74                        	<unknown>
      c2: 20 75                        	<unknown>
      c4: 6e 73                        	<unknown>
      c6: 69 67                        	<unknown>
      c8: 6e 65                        	<unknown>
      ca: 64 20                        	<unknown>
      cc: 69 6e                        	<unknown>
      ce: 74 00                        	<unknown>
      d0: 5f 46 50 5f                  	<unknown>
      d4: 50 41                        	<unknown>
      d6: 43 4b 5f 43                  	<unknown>
      da: 41 4e                        	<unknown>
      dc: 4f 4e 49 43                  	<unknown>
      e0: 41 4c                        	<unknown>
      e2: 5f 54 5f 65                  	<unknown>
      e6: 00 5f                        	<unknown>
      e8: 46 50                        	<unknown>
      ea: 5f 44 49 56                  	<unknown>
      ee: 5f 4d 45 41                  	<unknown>
      f2: 54 5f                        	<unknown>
      f4: 31 5f                        	<unknown>
      f6: 75 64                        	<unknown>
      f8: 69 76                        	<unknown>
      fa: 5f 6e 6f 72                  	<unknown>
      fe: 6d 5f                        	<unknown>
     100: 6e 68                        	<unknown>
     102: 00 5f                        	<unknown>
     104: 46 50                        	<unknown>
     106: 5f 44 49 56                  	<unknown>
     10a: 5f 4d 45 41                  	<unknown>
     10e: 54 5f                        	<unknown>
     110: 31 5f                        	<unknown>
     112: 75 64                        	<unknown>
     114: 69 76                        	<unknown>
     116: 5f 6e 6f 72                  	<unknown>
     11a: 6d 5f                        	<unknown>
     11c: 72 00                        	<unknown>
     11e: 5f 46 50 5f                  	<unknown>
     122: 50 41                        	<unknown>
     124: 43 4b 5f 43                  	<unknown>
     128: 41 4e                        	<unknown>
     12a: 4f 4e 49 43                  	<unknown>
     12e: 41 4c                        	<unknown>
     130: 5f 54 5f 63                  	<unknown>
     134: 00 55                        	<unknown>
     136: 51 49                        	<unknown>
     138: 74 79                        	<unknown>
     13a: 70 65                        	<unknown>
     13c: 00 5f                        	<unknown>
     13e: 5f 63 6c 7a                  	<unknown>
     142: 5f 74 61 62                  	<unknown>
     146: 00 66                        	<unknown>
     148: 72 61                        	<unknown>
     14a: 63 00 6c 6f                  	beq	s8, s6, 1760
     14e: 6e 67                        	<unknown>
     150: 20 6c                        	<unknown>
     152: 6f 6e 67 20                  	jal	t3, 483846
     156: 75 6e                        	<unknown>
     158: 73 69 67 6e                  	csrrsi	s2, 1766, 14
     15c: 65 64                        	<unknown>
     15e: 20 69                        	<unknown>
     160: 6e 74                        	<unknown>
     162: 00 2f                        	<unknown>
     164: 68 6f                        	<unknown>
     166: 6d 65                        	<unknown>
     168: 2f 62 6c 61                  	<unknown>
     16c: 69 73                        	<unknown>
     16e: 65 2f                        	<unknown>
     170: 64 65                        	<unknown>
     172: 76 2f                        	<unknown>
     174: 72 69                        	<unknown>
     176: 73 63 76 2d                  	csrrsi	t1, 727, 12
     17a: 67 6e 75 2d                  	<unknown>
     17e: 74 6f                        	<unknown>
     180: 6f 6c 63 68                  	jal	s8, 222854
     184: 61 69                        	<unknown>
     186: 6e 32                        	<unknown>
     188: 2f 62 75 69                  	<unknown>
     18c: 6c 64                        	<unknown>
     18e: 2f 62 75 69                  	<unknown>
     192: 6c 64                        	<unknown>
     194: 2d 67                        	<unknown>
     196: 63 63 2d 6e                  	bltu	s10, sp, 1766
     19a: 65 77                        	<unknown>
     19c: 6c 69                        	<unknown>
     19e: 62 2d                        	<unknown>
     1a0: 73 74 61 67                  	csrrci	s0, 1654, 2
     1a4: 65 32                        	<unknown>
     1a6: 2f 72 69 73                  	<unknown>
     1aa: 63 76 33 32                  	bgeu	t1, gp, 812
     1ae: 2d 75                        	<unknown>
     1b0: 6e 6b                        	<unknown>
     1b2: 6e 6f                        	<unknown>
     1b4: 77 6e 2d 65                  	<unknown>
     1b8: 6c 66                        	<unknown>
     1ba: 2f 6c 69 62                  	<unknown>
     1be: 67 63 63 00                  	<unknown>
     1c2: 5f 46 50 5f                  	<unknown>
     1c6: 50 41                        	<unknown>
     1c8: 43 4b 5f 43                  	<unknown>
     1cc: 41 4e                        	<unknown>
     1ce: 4f 4e 49 43                  	<unknown>
     1d2: 41 4c                        	<unknown>
     1d4: 5f 54 5f 73                  	<unknown>
     1d8: 00 5f                        	<unknown>
     1da: 5f 64 30 00                  	<unknown>
     1de: 5f 46 50 5f                  	<unknown>
     1e2: 44 49                        	<unknown>
     1e4: 56 5f                        	<unknown>
     1e6: 4d 45                        	<unknown>
     1e8: 41 54                        	<unknown>
     1ea: 5f 31 5f 75                  	<unknown>
     1ee: 64 69                        	<unknown>
     1f0: 76 5f                        	<unknown>
     1f2: 6e 6f                        	<unknown>
     1f4: 72 6d                        	<unknown>
     1f6: 5f 71 00 6c                  	<unknown>
     1fa: 6f 6e 67 20                  	jal	t3, 483846
     1fe: 6c 6f                        	<unknown>
     200: 6e 67                        	<unknown>
     202: 20 69                        	<unknown>
     204: 6e 74                        	<unknown>
     206: 00 47                        	<unknown>
     208: 4e 55                        	<unknown>
     20a: 20 43                        	<unknown>
     20c: 31 37                        	<unknown>
     20e: 20 39                        	<unknown>
     210: 2e 32                        	<unknown>
     212: 2e 30                        	<unknown>
     214: 20 2d                        	<unknown>
     216: 6d 63                        	<unknown>
     218: 6d 6f                        	<unknown>
     21a: 64 65                        	<unknown>
     21c: 6c 3d                        	<unknown>
     21e: 6d 65                        	<unknown>
     220: 64 6c                        	<unknown>
     222: 6f 77 20 2d                  	jal	a4, 29394
     226: 6d 63                        	<unknown>
     228: 6d 6f                        	<unknown>
     22a: 64 65                        	<unknown>
     22c: 6c 3d                        	<unknown>
     22e: 6d 65                        	<unknown>
     230: 64 6c                        	<unknown>
     232: 6f 77 20 2d                  	jal	a4, 29394
     236: 6d 74                        	<unknown>
     238: 75 6e                        	<unknown>
     23a: 65 3d                        	<unknown>
     23c: 72 6f                        	<unknown>
     23e: 63 6b 65 74                  	bltu	a0, t1, 1878
     242: 20 2d                        	<unknown>
     244: 6d 61                        	<unknown>
     246: 72 63                        	<unknown>
     248: 68 3d                        	<unknown>
     24a: 72 76                        	<unknown>
     24c: 33 32 69 6d                  	<unknown>
     250: 20 2d                        	<unknown>
     252: 6d 61                        	<unknown>
     254: 62 69                        	<unknown>
     256: 3d 69                        	<unknown>
     258: 6c 70                        	<unknown>
     25a: 33 32 20 2d                  	<unknown>
     25e: 67 20 2d 4f                  	<unknown>
     262: 73 20 2d 4f                  	csrs	1266, s10
     266: 32 20                        	<unknown>
     268: 2d 4f                        	<unknown>
     26a: 73 20 2d 66                  	csrs	1634, s10
     26e: 62 75                        	<unknown>
     270: 69 6c                        	<unknown>
     272: 64 69                        	<unknown>
     274: 6e 67                        	<unknown>
     276: 2d 6c                        	<unknown>
     278: 69 62                        	<unknown>
     27a: 67 63 63 20                  	<unknown>
     27e: 2d 66                        	<unknown>
     280: 6e 6f                        	<unknown>
     282: 2d 73                        	<unknown>
     284: 74 61                        	<unknown>
     286: 63 6b 2d 70                  	bltu	s10, sp, 1814
     28a: 72 6f                        	<unknown>
     28c: 74 65                        	<unknown>
     28e: 63 74 6f 72                  	bgeu	t5, t1, 1832
     292: 20 2d                        	<unknown>
     294: 66 76                        	<unknown>
     296: 69 73                        	<unknown>
     298: 69 62                        	<unknown>
     29a: 69 6c                        	<unknown>
     29c: 69 74                        	<unknown>
     29e: 79 3d                        	<unknown>
     2a0: 68 69                        	<unknown>
     2a2: 64 64                        	<unknown>
     2a4: 65 6e                        	<unknown>
     2a6: 00 62                        	<unknown>
     2a8: 69 74                        	<unknown>
     2aa: 73 00 5f 46                  	<unknown>
     2ae: 50 5f                        	<unknown>
     2b0: 44 49                        	<unknown>
     2b2: 56 5f                        	<unknown>
     2b4: 4d 45                        	<unknown>
     2b6: 41 54                        	<unknown>
     2b8: 5f 31 5f 75                  	<unknown>
     2bc: 64 69                        	<unknown>
     2be: 76 5f                        	<unknown>
     2c0: 6e 6f                        	<unknown>
     2c2: 72 6d                        	<unknown>
     2c4: 5f 79 00 5f                  	<unknown>
     2c8: 46 50                        	<unknown>
     2ca: 5f 55 4e 49                  	<unknown>
     2ce: 4f 4e 5f 53                  	<unknown>
     2d2: 00 53                        	<unknown>
     2d4: 46 74                        	<unknown>
     2d6: 79 70                        	<unknown>
     2d8: 65 00                        	<unknown>
     2da: 5f 46 50 5f                  	<unknown>
     2de: 44 49                        	<unknown>
     2e0: 56 5f                        	<unknown>
     2e2: 4d 45                        	<unknown>
     2e4: 41 54                        	<unknown>
     2e6: 5f 31 5f 75                  	<unknown>
     2ea: 64 69                        	<unknown>
     2ec: 76 5f                        	<unknown>
     2ee: 6e 6f                        	<unknown>
     2f0: 72 6d                        	<unknown>
     2f2: 5f 6e 6c 00                  	<unknown>
     2f6: 5f 46 50 5f                  	<unknown>
     2fa: 55 4e                        	<unknown>
     2fc: 50 41                        	<unknown>
     2fe: 43 4b 5f 43                  	<unknown>
     302: 41 4e                        	<unknown>
     304: 4f 4e 49 43                  	<unknown>
     308: 41 4c                        	<unknown>
     30a: 5f 73 68 69                  	<unknown>
     30e: 66 74                        	<unknown>
     310: 00 5f                        	<unknown>
     312: 66 72                        	<unknown>
     314: 6d 00                        	<unknown>
     316: 73 68 6f 72                  	csrrsi	a6, 1830, 30
     31a: 74 20                        	<unknown>
     31c: 69 6e                        	<unknown>
     31e: 74 00                        	<unknown>
     320: 68 74                        	<unknown>
     322: 61 62                        	<unknown>
     324: 5f 68 61 73                  	<unknown>
     328: 68 5f                        	<unknown>
     32a: 70 6f                        	<unknown>
     32c: 69 6e                        	<unknown>
     32e: 74 65                        	<unknown>
     330: 72 00                        	<unknown>
     332: 5f 73 69 7a                  	<unknown>
     336: 65 00                        	<unknown>
     338: 5f 72 61 6e                  	<unknown>
     33c: 64 34                        	<unknown>
     33e: 38 00                        	<unknown>
     340: 5f 65 6d 65                  	<unknown>
     344: 72 67                        	<unknown>
     346: 65 6e                        	<unknown>
     348: 63 79 00 5f                  	bgeu	zero, a6, 1522
     34c: 64 61                        	<unknown>
     34e: 79 6c                        	<unknown>
     350: 69 67                        	<unknown>
     352: 68 74                        	<unknown>
     354: 00 63                        	<unknown>
     356: 6f 6d 70 6c                  	jal	s10, 28358
     35a: 65 78                        	<unknown>
     35c: 20 64                        	<unknown>
     35e: 6f 75 62 6c                  	jal	a0, 161478
     362: 65 00                        	<unknown>
     364: 5f 67 65 74                  	<unknown>
     368: 64 61                        	<unknown>
     36a: 74 65                        	<unknown>
     36c: 5f 65 72 72                  	<unknown>
     370: 00 5f                        	<unknown>
     372: 64 61                        	<unknown>
     374: 74 61                        	<unknown>
     376: 00 5f                        	<unknown>
     378: 77 63 72 74                  	<unknown>
     37c: 6f 6d 62 5f                  	jal	s10, 157174
     380: 73 74 61 74                  	csrrci	s0, 1862, 2
     384: 65 00                        	<unknown>
     386: 72 69                        	<unknown>
     388: 73 63 76 5f                  	csrrsi	t1, 1527, 12
     38c: 6d 69                        	<unknown>
     38e: 63 72 6f 61                  	bgeu	t5, s6, 1540
     392: 72 63                        	<unknown>
     394: 68 69                        	<unknown>
     396: 74 65                        	<unknown>
     398: 63 74 75 72                  	bgeu	a0, t2, 1832
     39c: 65 5f                        	<unknown>
     39e: 74 79                        	<unknown>
     3a0: 70 65                        	<unknown>
     3a2: 00 5f                        	<unknown>
     3a4: 77 63 73 72                  	<unknown>
     3a8: 74 6f                        	<unknown>
     3aa: 6d 62                        	<unknown>
     3ac: 73 5f 73 74                  	csrrwi	t5, 1863, 6
     3b0: 61 74                        	<unknown>
     3b2: 65 00                        	<unknown>
     3b4: 5f 6c 62 66                  	<unknown>
     3b8: 73 69 7a 65                  	csrrsi	s2, 1623, 20
     3bc: 00 63                        	<unknown>
     3be: 6f 6d 70 6c                  	jal	s10, 28358
     3c2: 65 78                        	<unknown>
     3c4: 20 6c                        	<unknown>
     3c6: 6f 6e 67 20                  	jal	t3, 483846
     3ca: 64 6f                        	<unknown>
     3cc: 75 62                        	<unknown>
     3ce: 6c 65                        	<unknown>
     3d0: 00 72                        	<unknown>
     3d2: 69 73                        	<unknown>
     3d4: 63 76 5f 61                  	bgeu	t5, s5, 1548
     3d8: 62 69                        	<unknown>
     3da: 00 5f                        	<unknown>
     3dc: 5f 6c 6f 63                  	<unknown>
     3e0: 61 6c                        	<unknown>
     3e2: 65 5f                        	<unknown>
     3e4: 74 00                        	<unknown>
     3e6: 5f 6d 62 72                  	<unknown>
     3ea: 74 6f                        	<unknown>
     3ec: 77 63 5f 73                  	<unknown>
     3f0: 74 61                        	<unknown>
     3f2: 74 65                        	<unknown>
     3f4: 00 5f                        	<unknown>
     3f6: 74 7a                        	<unknown>
     3f8: 6e 61                        	<unknown>
     3fa: 6d 65                        	<unknown>
     3fc: 00 5f                        	<unknown>
     3fe: 77 63 74 6f                  	<unknown>
     402: 6d 62                        	<unknown>
     404: 5f 73 74 61                  	<unknown>
     408: 74 65                        	<unknown>
     40a: 00 5f                        	<unknown>
     40c: 5f 74 6d 5f                  	<unknown>
     410: 73 65 63 00                  	csrrsi	a0, 6, 6
     414: 5f 63 6c 6f                  	<unknown>
     418: 73 65 00 5f                  	csrrsi	a0, 1520, 0
     41c: 75 62                        	<unknown>
     41e: 75 66                        	<unknown>
     420: 00 5f                        	<unknown>
     422: 62 61                        	<unknown>
     424: 73 65 00 5f                  	csrrsi	a0, 1520, 0
     428: 5f 74 6d 5f                  	<unknown>
     42c: 68 6f                        	<unknown>
     42e: 75 72                        	<unknown>
     430: 00 75                        	<unknown>
     432: 6e 73                        	<unknown>
     434: 70 65                        	<unknown>
     436: 63 76 5f 73                  	bgeu	t5, s5, 1836
     43a: 74 72                        	<unknown>
     43c: 69 6e                        	<unknown>
     43e: 67 73 00 5f                  	<unknown>
     442: 5f 73 66 00                  	<unknown>
     446: 5f 6f 6e 5f                  	<unknown>
     44a: 65 78                        	<unknown>
     44c: 69 74                        	<unknown>
     44e: 5f 61 72 67                  	<unknown>
     452: 73 00 5f 63                  	<unknown>
     456: 6f 6f 6b 69                  	jal	t5, 747158
     45a: 65 00                        	<unknown>
     45c: 5f 5f 73 67                  	<unknown>
     460: 6c 75                        	<unknown>
     462: 65 00                        	<unknown>
     464: 5f 66 6c 61                  	<unknown>
     468: 67 73 00 5f                  	<unknown>
     46c: 69 73                        	<unknown>
     46e: 5f 63 78 61                  	<unknown>
     472: 00 5f                        	<unknown>
     474: 77 64 73 00                  	<unknown>
     478: 5f 5f 46 49                  	<unknown>
     47c: 4c 45                        	<unknown>
     47e: 00 5f                        	<unknown>
     480: 72 65                        	<unknown>
     482: 73 75 6c 74                  	csrrci	a0, 1862, 24
     486: 5f 6b 00 55                  	<unknown>
     48a: 53 49 74 79                  	<unknown>
     48e: 70 65                        	<unknown>
     490: 00 72                        	<unknown>
     492: 69 73                        	<unknown>
     494: 63 76 5f 6d                  	bgeu	t5, s5, 1740
     498: 69 63                        	<unknown>
     49a: 72 6f                        	<unknown>
     49c: 61 72                        	<unknown>
     49e: 63 68 69 74                  	bltu	s2, t1, 1872
     4a2: 65 63                        	<unknown>
     4a4: 74 75                        	<unknown>
     4a6: 72 65                        	<unknown>
     4a8: 00 5f                        	<unknown>
     4aa: 73 79 73 5f                  	csrrci	s2, 1527, 6
     4ae: 65 72                        	<unknown>
     4b0: 72 6c                        	<unknown>
     4b2: 69 73                        	<unknown>
     4b4: 74 00                        	<unknown>
     4b6: 5f 63 76 74                  	<unknown>
     4ba: 62 75                        	<unknown>
     4bc: 66 00                        	<unknown>
     4be: 5f 6d 62 73                  	<unknown>
     4c2: 72 74                        	<unknown>
     4c4: 6f 77 63 73                  	jal	a4, 227126
     4c8: 5f 73 74 61                  	<unknown>
     4cc: 74 65                        	<unknown>
     4ce: 00 5f                        	<unknown>
     4d0: 6d 62                        	<unknown>
     4d2: 72 6c                        	<unknown>
     4d4: 65 6e                        	<unknown>
     4d6: 5f 73 74 61                  	<unknown>
     4da: 74 65                        	<unknown>
     4dc: 00 72                        	<unknown>
     4de: 69 73                        	<unknown>
     4e0: 63 76 5f 63                  	bgeu	t5, s5, 1580
     4e4: 6d 6f                        	<unknown>
     4e6: 64 65                        	<unknown>
     4e8: 6c 00                        	<unknown>
     4ea: 5f 66 6e 61                  	<unknown>
     4ee: 72 67                        	<unknown>
     4f0: 73 00 5f 66                  	<unknown>
     4f4: 6e 73                        	<unknown>
     4f6: 00 5f                        	<unknown>
     4f8: 73 69 67 6e                  	csrrsi	s2, 1766, 14
     4fc: 00 5f                        	<unknown>
     4fe: 73 74 64 65                  	csrrci	s0, 1622, 8
     502: 72 72                        	<unknown>
     504: 00 5f                        	<unknown>
     506: 42 69                        	<unknown>
     508: 67 69 6e 74                  	<unknown>
     50c: 00 5f                        	<unknown>
     50e: 67 61 6d 6d                  	<unknown>
     512: 61 5f                        	<unknown>
     514: 73 69 67 6e                  	csrrsi	s2, 1766, 14
     518: 67 61 6d 00                  	<unknown>
     51c: 5f 6e 6d 61                  	<unknown>
     520: 6c 6c                        	<unknown>
     522: 6f 63 00 5f                  	jal	t1, 26096
     526: 5f 74 6d 00                  	<unknown>
     52a: 72 69                        	<unknown>
     52c: 73 63 76 5f                  	csrrsi	t1, 1527, 12
     530: 61 62                        	<unknown>
     532: 69 5f                        	<unknown>
     534: 74 79                        	<unknown>
     536: 70 65                        	<unknown>
     538: 00 5f                        	<unknown>
     53a: 6d 62                        	<unknown>
     53c: 73 74 61 74                  	csrrci	s0, 1862, 2
     540: 65 00                        	<unknown>
     542: 5f 5f 77 63                  	<unknown>
     546: 68 62                        	<unknown>
     548: 00 5f                        	<unknown>
     54a: 63 76 74 6c                  	bgeu	s0, t2, 1740
     54e: 65 6e                        	<unknown>
     550: 00 5f                        	<unknown>
     552: 66 69                        	<unknown>
     554: 6c 65                        	<unknown>
     556: 00 68                        	<unknown>
     558: 61 73                        	<unknown>
     55a: 68 76                        	<unknown>
     55c: 61 6c                        	<unknown>
     55e: 5f 74 00 5f                  	<unknown>
     562: 6e 69                        	<unknown>
     564: 6f 62 73 00                  	jal	tp, 223238
     568: 5f 5f 63 6c                  	<unknown>
     56c: 7a 73                        	<unknown>
     56e: 69 32                        	<unknown>
     570: 00 5f                        	<unknown>
     572: 61 74                        	<unknown>
     574: 65 78                        	<unknown>
     576: 69 74                        	<unknown>
     578: 30 00                        	<unknown>
     57a: 5f 73 69 67                  	<unknown>
     57e: 6e 61                        	<unknown>
     580: 6c 5f                        	<unknown>
     582: 62 75                        	<unknown>
     584: 66 00                        	<unknown>
     586: 5f 61 73 63                  	<unknown>
     58a: 74 69                        	<unknown>
     58c: 6d 65                        	<unknown>
     58e: 5f 62 75 66                  	<unknown>
     592: 00 5f                        	<unknown>
     594: 72 65                        	<unknown>
     596: 73 75 6c 74                  	csrrci	a0, 1862, 24
     59a: 00 5f                        	<unknown>
     59c: 5f 77 63 68                  	<unknown>
     5a0: 00 65                        	<unknown>
     5a2: 6e 76                        	<unknown>
     5a4: 69 72                        	<unknown>
     5a6: 6f 6e 00 77                  	jal	t3, 26480
     5aa: 69 6e                        	<unknown>
     5ac: 74 5f                        	<unknown>
     5ae: 74 00                        	<unknown>
     5b0: 5f 6c 6f 63                  	<unknown>
     5b4: 6b 00 41 42                  	<unknown>
     5b8: 49 5f                        	<unknown>
     5ba: 49 4c                        	<unknown>
     5bc: 50 33                        	<unknown>
     5be: 32 44                        	<unknown>
     5c0: 00 41                        	<unknown>
     5c2: 42 49                        	<unknown>
     5c4: 5f 49 4c 50                  	<unknown>
     5c8: 33 32 45 00                  	sltu	tp, a0, tp
     5cc: 5f 6d 75 6c                  	<unknown>
     5d0: 74 00                        	<unknown>
     5d2: 75 6e                        	<unknown>
     5d4: 73 70 65 63                  	csrci	1590, 10
     5d8: 5f 73 74 72                  	<unknown>
     5dc: 69 6e                        	<unknown>
     5de: 67 73 00 6f                  	<unknown>
     5e2: 70 74                        	<unknown>
     5e4: 72 65                        	<unknown>
     5e6: 73 65 74 00                  	csrrsi	a0, 7, 8
     5ea: 5f 77 72 69                  	<unknown>
     5ee: 74 65                        	<unknown>
     5f0: 00 5f                        	<unknown>
     5f2: 5f 74 6d 5f                  	<unknown>
     5f6: 79 65                        	<unknown>
     5f8: 61 72                        	<unknown>
     5fa: 00 41                        	<unknown>
     5fc: 42 49                        	<unknown>
     5fe: 5f 49 4c 50                  	<unknown>
     602: 33 32 46 00                  	sltu	tp, a2, tp
     606: 5f 75 6e 75                  	<unknown>
     60a: 73 65 64 5f                  	csrrsi	a0, 1526, 8
     60e: 72 61                        	<unknown>
     610: 6e 64                        	<unknown>
     612: 00 72                        	<unknown>
     614: 69 73                        	<unknown>
     616: 63 76 5f 63                  	bgeu	t5, s5, 1580
     61a: 6f 64 65 5f                  	jal	s0, 353782
     61e: 6d 6f                        	<unknown>
     620: 64 65                        	<unknown>
     622: 6c 00                        	<unknown>
     624: 5f 6f 66 66                  	<unknown>
     628: 73 65 74 00                  	csrrsi	a0, 7, 8
     62c: 6f 70 74 69                  	j	294550
     630: 6e 64                        	<unknown>
     632: 00 5f                        	<unknown>
     634: 6e 65                        	<unknown>
     636: 78 74                        	<unknown>
     638: 66 00                        	<unknown>
     63a: 63 6f 6d 70                  	bltu	s10, t1, 1822
     63e: 6c 65                        	<unknown>
     640: 78 20                        	<unknown>
     642: 66 6c                        	<unknown>
     644: 6f 61 74 00                  	jal	sp, 288774
     648: 5f 5f 74 6d                  	<unknown>
     64c: 5f 6d 6f 6e                  	<unknown>
     650: 00 5f                        	<unknown>
     652: 61 74                        	<unknown>
     654: 65 78                        	<unknown>
     656: 69 74                        	<unknown>
     658: 00 73                        	<unknown>
     65a: 75 62                        	<unknown>
     65c: 6f 70 74 61                  	j	294422
     660: 72 67                        	<unknown>
     662: 00 5f                        	<unknown>
     664: 5f 73 64 69                  	<unknown>
     668: 64 69                        	<unknown>
     66a: 6e 69                        	<unknown>
     66c: 74 00                        	<unknown>
     66e: 5f 6f 66 66                  	<unknown>
     672: 5f 74 00 5f                  	<unknown>
     676: 66 72                        	<unknown>
     678: 65 65                        	<unknown>
     67a: 6c 69                        	<unknown>
     67c: 73 74 00 5f                  	csrrci	s0, 1520, 0
     680: 74 69                        	<unknown>
     682: 6d 65                        	<unknown>
     684: 7a 6f                        	<unknown>
     686: 6e 65                        	<unknown>
     688: 00 5f                        	<unknown>
     68a: 6d 62                        	<unknown>
     68c: 73 74 61 74                  	csrrci	s0, 1862, 2
     690: 65 5f                        	<unknown>
     692: 74 00                        	<unknown>
     694: 5f 4c 4f 43                  	<unknown>
     698: 4b 5f 52 45                  	<unknown>
     69c: 43 55 52 53                  	<unknown>
     6a0: 49 56                        	<unknown>
     6a2: 45 5f                        	<unknown>
     6a4: 54 00                        	<unknown>
     6a6: 5f 72 65 61                  	<unknown>
     6aa: 64 00                        	<unknown>
     6ac: 2e 2e                        	<unknown>
     6ae: 2f 2e 2e 2f                  	<unknown>
     6b2: 2e 2e                        	<unknown>
     6b4: 2f 2e 2e 2f                  	<unknown>
     6b8: 72 69                        	<unknown>
     6ba: 73 63 76 2d                  	csrrsi	t1, 727, 12
     6be: 67 63 63 2f                  	<unknown>
     6c2: 6c 69                        	<unknown>
     6c4: 62 67                        	<unknown>
     6c6: 63 63 2f 6c                  	bltu	t5, sp, 1734
     6ca: 69 62                        	<unknown>
     6cc: 67 63 63 32                  	<unknown>
     6d0: 2e 63                        	<unknown>
     6d2: 00 41                        	<unknown>
     6d4: 42 49                        	<unknown>
     6d6: 5f 4c 50 36                  	<unknown>
     6da: 34 00                        	<unknown>
     6dc: 41 42                        	<unknown>
     6de: 49 5f                        	<unknown>
     6e0: 49 4c                        	<unknown>
     6e2: 50 33                        	<unknown>
     6e4: 32 00                        	<unknown>
     6e6: 5f 64 73 6f                  	<unknown>
     6ea: 5f 68 61 6e                  	<unknown>
     6ee: 64 6c                        	<unknown>
     6f0: 65 00                        	<unknown>
     6f2: 43 4d 5f 4d                  	<unknown>
     6f6: 45 44                        	<unknown>
     6f8: 41 4e                        	<unknown>
     6fa: 59 00                        	<unknown>
     6fc: 5f 6e 65 77                  	<unknown>
     700: 00 5f                        	<unknown>
     702: 68 5f                        	<unknown>
     704: 65 72                        	<unknown>
     706: 72 6e                        	<unknown>
     708: 6f 00 5f 66                  	j	986724
     70c: 6c 6f                        	<unknown>
     70e: 63 6b 5f 74                  	bltu	t5, t0, 1878
     712: 00 5f                        	<unknown>
     714: 5f 74 6d 5f                  	<unknown>
     718: 79 64                        	<unknown>
     71a: 61 79                        	<unknown>
     71c: 00 5f                        	<unknown>
     71e: 5f 73 62 75                  	<unknown>
     722: 66 00                        	<unknown>
     724: 5f 66 6c 61                  	<unknown>
     728: 67 73 32 00                  	<unknown>
     72c: 5f 69 6f 62                  	<unknown>
     730: 73 00 43 4d                  	<unknown>
     734: 5f 4d 45 44                  	<unknown>
     738: 4c 4f                        	<unknown>
     73a: 57 00 68 74                  	<unknown>
     73e: 61 62                        	<unknown>
     740: 5f 68 61 73                  	<unknown>
     744: 68 00                        	<unknown>
     746: 5f 5f 73 46                  	<unknown>
     74a: 49 4c                        	<unknown>
     74c: 45 00                        	<unknown>
     74e: 5f 73 79 73                  	<unknown>
     752: 5f 6e 65 72                  	<unknown>
     756: 72 00                        	<unknown>
     758: 5f 72 61 6e                  	<unknown>
     75c: 64 5f                        	<unknown>
     75e: 6e 65                        	<unknown>
     760: 78 74                        	<unknown>
     762: 00 5f                        	<unknown>
     764: 6d 62                        	<unknown>
     766: 6c 65                        	<unknown>
     768: 6e 5f                        	<unknown>
     76a: 73 74 61 74                  	csrrci	s0, 1862, 2
     76e: 65 00                        	<unknown>
     770: 5f 69 6e 63                  	<unknown>
     774: 00 5f                        	<unknown>
     776: 69 6e                        	<unknown>
     778: 64 00                        	<unknown>
     77a: 5f 6c 6f 63                  	<unknown>
     77e: 61 6c                        	<unknown>
     780: 65 00                        	<unknown>
     782: 5f 5f 63 6c                  	<unknown>
     786: 65 61                        	<unknown>
     788: 6e 75                        	<unknown>
     78a: 70 00                        	<unknown>
     78c: 5f 75 6e 73                  	<unknown>
     790: 70 65                        	<unknown>
     792: 63 69 66 69                  	bltu	a2, s6, 1682
     796: 65 64                        	<unknown>
     798: 5f 6c 6f 63                  	<unknown>
     79c: 61 6c                        	<unknown>
     79e: 65 5f                        	<unknown>
     7a0: 69 6e                        	<unknown>
     7a2: 66 6f                        	<unknown>
     7a4: 00 5f                        	<unknown>
     7a6: 6d 61                        	<unknown>
     7a8: 78 77                        	<unknown>
     7aa: 64 73                        	<unknown>
     7ac: 00 5f                        	<unknown>
     7ae: 72 65                        	<unknown>
     7b0: 65 6e                        	<unknown>
     7b2: 74 00                        	<unknown>
     7b4: 5f 73 65 65                  	<unknown>
     7b8: 64 00                        	<unknown>
     7ba: 5f 5f 63 6f                  	<unknown>
     7be: 75 6e                        	<unknown>
     7c0: 74 00                        	<unknown>
     7c2: 5f 5f 76 61                  	<unknown>
     7c6: 6c 75                        	<unknown>
     7c8: 65 00                        	<unknown>
     7ca: 5f 73 65 65                  	<unknown>
     7ce: 6b 00 5f 66                  	<unknown>
     7d2: 70 6f                        	<unknown>
     7d4: 73 5f 74 00                  	csrrwi	t5, 7, 8
     7d8: 73 69 66 69                  	csrrsi	s2, 1686, 12
     7dc: 76 65                        	<unknown>
     7de: 5f 37 00 5f                  	<unknown>
     7e2: 62 6c                        	<unknown>
     7e4: 6b 73 69 7a                  	<unknown>
     7e8: 65 00                        	<unknown>
     7ea: 67 65 6e 65                  	<unknown>
     7ee: 72 69                        	<unknown>
     7f0: 63 00 6f 70                  	beq	t5, t1, 1792
     7f4: 74 65                        	<unknown>
     7f6: 72 72                        	<unknown>
     7f8: 00 5f                        	<unknown>
     7fa: 73 74 72 74                  	csrrci	s0, 1863, 4
     7fe: 6f 6b 5f 6c                  	jal	s6, 1011396
     802: 61 73                        	<unknown>
     804: 74 00                        	<unknown>
     806: 43 4d 5f 50                  	<unknown>
     80a: 49 43                        	<unknown>
     80c: 00 5f                        	<unknown>
     80e: 66 6e                        	<unknown>
     810: 74 79                        	<unknown>
     812: 70 65                        	<unknown>
     814: 73 00 5f 61                  	<unknown>
     818: 64 64                        	<unknown>
     81a: 00 5f                        	<unknown>
     81c: 5f 55 4c 6f                  	<unknown>
     820: 6e 67                        	<unknown>
     822: 00 68                        	<unknown>
     824: 74 61                        	<unknown>
     826: 62 5f                        	<unknown>
     828: 65 71                        	<unknown>
     82a: 5f 70 6f 69                  	<unknown>
     82e: 6e 74                        	<unknown>
     830: 65 72                        	<unknown>
     832: 00 5f                        	<unknown>
     834: 5f 78 72 00                  	<unknown>
     838: 5f 67 6c 6f                  	<unknown>
     83c: 62 61                        	<unknown>
     83e: 6c 5f                        	<unknown>
     840: 69 6d                        	<unknown>
     842: 70 75                        	<unknown>
     844: 72 65                        	<unknown>
     846: 5f 70 74 72                  	<unknown>
     84a: 00 5f                        	<unknown>
     84c: 73 74 64 6f                  	csrrci	s0, 1782, 8
     850: 75 74                        	<unknown>
     852: 00 5f                        	<unknown>
     854: 5f 74 6d 5f                  	<unknown>
     858: 77 64 61 79                  	<unknown>
     85c: 00 5f                        	<unknown>
     85e: 67 6c 75 65                  	<unknown>
     862: 00 5f                        	<unknown>
     864: 73 74 64 69                  	csrrci	s0, 1686, 8
     868: 6e 00                        	<unknown>
     86a: 5f 73 73 69                  	<unknown>
     86e: 7a 65                        	<unknown>
     870: 5f 74 00 5f                  	<unknown>
     874: 6c 36                        	<unknown>
     876: 34 61                        	<unknown>
     878: 5f 62 75 66                  	<unknown>
     87c: 00 5f                        	<unknown>
     87e: 73 69 67 5f                  	csrrsi	s2, 1526, 14
     882: 66 75                        	<unknown>
     884: 6e 63                        	<unknown>
     886: 00 5f                        	<unknown>
     888: 5f 70 6f 70                  	<unknown>
     88c: 63 6f 75 6e                  	bltu	a0, t2, 1790
     890: 74 5f                        	<unknown>
     892: 74 61                        	<unknown>
     894: 62 00                        	<unknown>
     896: 5f 6e 62 75                  	<unknown>
     89a: 66 00                        	<unknown>
     89c: 5f 75 6e 75                  	<unknown>
     8a0: 73 65 64 00                  	csrrsi	a0, 6, 8
     8a4: 5f 5f 74 6d                  	<unknown>
     8a8: 5f 69 73 64                  	<unknown>
     8ac: 73 74 00 5f                  	csrrci	s0, 1520, 0
     8b0: 6c 6f                        	<unknown>
     8b2: 63 61 6c 74                  	bltu	s8, t1, 1858
     8b6: 69 6d                        	<unknown>
     8b8: 65 5f                        	<unknown>
     8ba: 62 75                        	<unknown>
     8bc: 66 00                        	<unknown>
     8be: 5f 5f 74 6d                  	<unknown>
     8c2: 5f 6d 69 6e                  	<unknown>
     8c6: 00 5f                        	<unknown>
     8c8: 72 34                        	<unknown>
     8ca: 38 00                        	<unknown>
     8cc: 41 42                        	<unknown>
     8ce: 49 5f                        	<unknown>
     8d0: 4c 50                        	<unknown>
     8d2: 36 34                        	<unknown>
     8d4: 44 00                        	<unknown>
     8d6: 6f 70 74 6f                  	j	294646
     8da: 70 74                        	<unknown>
     8dc: 00 41                        	<unknown>
     8de: 42 49                        	<unknown>
     8e0: 5f 4c 50 36                  	<unknown>
     8e4: 34 46                        	<unknown>
     8e6: 00 5f                        	<unknown>
     8e8: 6d 62                        	<unknown>
     8ea: 74 6f                        	<unknown>
     8ec: 77 63 5f 73                  	<unknown>
     8f0: 74 61                        	<unknown>
     8f2: 74 65                        	<unknown>
     8f4: 00 5f                        	<unknown>
     8f6: 70 35                        	<unknown>
     8f8: 73 00 5f 5f                  	<unknown>
     8fc: 74 6d                        	<unknown>
     8fe: 5f 6d 64 61                  	<unknown>
     902: 79 00                        	<unknown>
     904: 68 74                        	<unknown>
     906: 61 62                        	<unknown>
     908: 5f 65 71 00                  	<unknown>

Disassembly of section .debug_loc:

00000000 .debug_loc:
       0: 00 00                        	<unknown>
       2: 00 00                        	<unknown>
       4: 54 00                        	<unknown>
       6: 00 00                        	<unknown>
       8: 01 00                        	<unknown>
       a: 5a 54                        	<unknown>
       c: 00 00                        	<unknown>
       e: 00 c0                        	<unknown>
      10: 00 00                        	<unknown>
      12: 00 06                        	<unknown>
      14: 00 f3                        	<unknown>
      16: 03 f5 0a 25                  	<unknown>
      1a: 9f c0 00 00                  	<unknown>
      1e: 00 c8                        	<unknown>
      20: 00 00                        	<unknown>
      22: 00 01                        	<unknown>
      24: 00 5a                        	<unknown>
      26: c8 00                        	<unknown>
      28: 00 00                        	<unknown>
      2a: e0 00                        	<unknown>
      2c: 00 00                        	<unknown>
      2e: 06 00                        	<unknown>
      30: f3 03 f5 0a                  	<unknown>
      34: 25 9f                        	<unknown>
      36: e0 00                        	<unknown>
      38: 00 00                        	<unknown>
      3a: 00 01                        	<unknown>
      3c: 00 00                        	<unknown>
      3e: 01 00                        	<unknown>
      40: 5a 00                        	<unknown>
      42: 01 00                        	<unknown>
      44: 00 2c                        	<unknown>
      46: 03 00 00 06                  	lb	zero, 96(zero)
      4a: 00 f3                        	<unknown>
      4c: 03 f5 0a 25                  	<unknown>
      50: 9f 00 00 00                  	<unknown>
		...
      5c: 00 54                        	<unknown>
      5e: 00 00                        	<unknown>
      60: 00 01                        	<unknown>
      62: 00 5b                        	<unknown>
      64: 54 00                        	<unknown>
      66: 00 00                        	<unknown>
      68: 6c 00                        	<unknown>
      6a: 00 00                        	<unknown>
      6c: 01 00                        	<unknown>
      6e: 64 6c                        	<unknown>
      70: 00 00                        	<unknown>
      72: 00 c0                        	<unknown>
      74: 00 00                        	<unknown>
      76: 00 06                        	<unknown>
      78: 00 f3                        	<unknown>
      7a: 03 f5 0b 25                  	<unknown>
      7e: 9f c0 00 00                  	<unknown>
      82: 00 cb                        	<unknown>
      84: 00 00                        	<unknown>
      86: 00 01                        	<unknown>
      88: 00 5b                        	<unknown>
      8a: cb 00 00 00                  	<unknown>
      8e: e0 00                        	<unknown>
      90: 00 00                        	<unknown>
      92: 01 00                        	<unknown>
      94: 64 e0                        	<unknown>
      96: 00 00                        	<unknown>
      98: 00 00                        	<unknown>
      9a: 01 00                        	<unknown>
      9c: 00 01                        	<unknown>
      9e: 00 5b                        	<unknown>
      a0: 00 01                        	<unknown>
      a2: 00 00                        	<unknown>
      a4: 2c 03                        	<unknown>
      a6: 00 00                        	<unknown>
      a8: 06 00                        	<unknown>
      aa: f3 03 f5 0b                  	<unknown>
      ae: 25 9f                        	<unknown>
		...
      bc: 58 00                        	<unknown>
      be: 00 00                        	<unknown>
      c0: 02 00                        	<unknown>
      c2: 30 9f                        	<unknown>
      c4: c0 00                        	<unknown>
      c6: 00 00                        	<unknown>
      c8: 00 01                        	<unknown>
      ca: 00 00                        	<unknown>
      cc: 02 00                        	<unknown>
      ce: 30 9f                        	<unknown>
		...
      d8: 54 00                        	<unknown>
      da: 00 00                        	<unknown>
      dc: 58 00                        	<unknown>
      de: 00 00                        	<unknown>
      e0: 02 00                        	<unknown>
      e2: 30 9f                        	<unknown>
      e4: 58 00                        	<unknown>
      e6: 00 00                        	<unknown>
      e8: c0 00                        	<unknown>
      ea: 00 00                        	<unknown>
      ec: 01 00                        	<unknown>
      ee: 65 00                        	<unknown>
      f0: 01 00                        	<unknown>
      f2: 00 60                        	<unknown>
      f4: 02 00                        	<unknown>
      f6: 00 01                        	<unknown>
      f8: 00 65                        	<unknown>
      fa: 68 02                        	<unknown>
      fc: 00 00                        	<unknown>
      fe: 2c 03                        	<unknown>
     100: 00 00                        	<unknown>
     102: 01 00                        	<unknown>
     104: 65 00                        	<unknown>
     106: 00 00                        	<unknown>
     108: 00 00                        	<unknown>
     10a: 00 00                        	<unknown>
     10c: 00 38                        	<unknown>
     10e: 00 00                        	<unknown>
     110: 00 54                        	<unknown>
     112: 02 00                        	<unknown>
     114: 00 06                        	<unknown>
     116: 00 82                        	<unknown>
     118: 00 08                        	<unknown>
     11a: ff 1a 9f 68                  	<unknown>
     11e: 02 00                        	<unknown>
     120: 00 2c                        	<unknown>
     122: 03 00 00 06                  	lb	zero, 96(zero)
     126: 00 82                        	<unknown>
     128: 00 08                        	<unknown>
     12a: ff 1a 9f 00                  	<unknown>
     12e: 00 00                        	<unknown>
     130: 00 00                        	<unknown>
     132: 00 00                        	<unknown>
     134: 00 34                        	<unknown>
     136: 00 00                        	<unknown>
     138: 00 54                        	<unknown>
     13a: 00 00                        	<unknown>
     13c: 00 06                        	<unknown>
     13e: 00 79                        	<unknown>
     140: 00 08                        	<unknown>
     142: ff 1a 9f 54                  	<unknown>
     146: 00 00                        	<unknown>
     148: 00 98                        	<unknown>
     14a: 00 00                        	<unknown>
     14c: 00 01                        	<unknown>
     14e: 00 59                        	<unknown>
     150: c0 00                        	<unknown>
     152: 00 00                        	<unknown>
     154: d4 00                        	<unknown>
     156: 00 00                        	<unknown>
     158: 06 00                        	<unknown>
     15a: 79 00                        	<unknown>
     15c: 08 ff                        	<unknown>
     15e: 1a 9f                        	<unknown>
     160: e0 00                        	<unknown>
     162: 00 00                        	<unknown>
     164: e4 00                        	<unknown>
     166: 00 00                        	<unknown>
     168: 06 00                        	<unknown>
     16a: 79 00                        	<unknown>
     16c: 08 ff                        	<unknown>
     16e: 1a 9f                        	<unknown>
     170: e4 00                        	<unknown>
     172: 00 00                        	<unknown>
     174: f4 00                        	<unknown>
     176: 00 00                        	<unknown>
     178: 08 00                        	<unknown>
     17a: 7a 00                        	<unknown>
     17c: 47 25 08 ff                  	<unknown>
     180: 1a 9f                        	<unknown>
     182: f4 00                        	<unknown>
     184: 00 00                        	<unknown>
     186: f8 00                        	<unknown>
     188: 00 00                        	<unknown>
     18a: 06 00                        	<unknown>
     18c: 79 00                        	<unknown>
     18e: 08 ff                        	<unknown>
     190: 1a 9f                        	<unknown>
     192: f8 00                        	<unknown>
     194: 00 00                        	<unknown>
     196: 00 01                        	<unknown>
     198: 00 00                        	<unknown>
     19a: 08 00                        	<unknown>
     19c: 7a 00                        	<unknown>
     19e: 47 25 08 ff                  	<unknown>
     1a2: 1a 9f                        	<unknown>
     1a4: 00 01                        	<unknown>
     1a6: 00 00                        	<unknown>
     1a8: 40 01                        	<unknown>
     1aa: 00 00                        	<unknown>
     1ac: 01 00                        	<unknown>
     1ae: 59 00                        	<unknown>
     1b0: 00 00                        	<unknown>
     1b2: 00 00                        	<unknown>
     1b4: 00 00                        	<unknown>
     1b6: 00 34                        	<unknown>
     1b8: 00 00                        	<unknown>
     1ba: 00 44                        	<unknown>
     1bc: 00 00                        	<unknown>
     1be: 00 01                        	<unknown>
     1c0: 00 63                        	<unknown>
     1c2: 44 00                        	<unknown>
     1c4: 00 00                        	<unknown>
     1c6: 48 00                        	<unknown>
     1c8: 00 00                        	<unknown>
     1ca: 07 00 83 00                  	<unknown>
     1ce: 40 43                        	<unknown>
     1d0: 24 21                        	<unknown>
     1d2: 9f 48 00 00                  	<unknown>
     1d6: 00 50                        	<unknown>
     1d8: 00 00                        	<unknown>
     1da: 00 0b                        	<unknown>
     1dc: 00 7a                        	<unknown>
     1de: 00 39                        	<unknown>
     1e0: 24 39                        	<unknown>
     1e2: 25 40                        	<unknown>
     1e4: 43 24 21 9f                  	<unknown>
     1e8: 50 00                        	<unknown>
     1ea: 00 00                        	<unknown>
     1ec: 50 01                        	<unknown>
     1ee: 00 00                        	<unknown>
     1f0: 01 00                        	<unknown>
     1f2: 63 68 02 00                  	bltu	tp, zero, 16
     1f6: 00 70                        	<unknown>
     1f8: 02 00                        	<unknown>
     1fa: 00 01                        	<unknown>
     1fc: 00 63                        	<unknown>
     1fe: 74 02                        	<unknown>
     200: 00 00                        	<unknown>
     202: 98 02                        	<unknown>
     204: 00 00                        	<unknown>
     206: 01 00                        	<unknown>
     208: 63 a4 02 00                  	<unknown>
     20c: 00 bc                        	<unknown>
     20e: 02 00                        	<unknown>
     210: 00 01                        	<unknown>
     212: 00 63                        	<unknown>
     214: 10 03                        	<unknown>
     216: 00 00                        	<unknown>
     218: 20 03                        	<unknown>
     21a: 00 00                        	<unknown>
     21c: 01 00                        	<unknown>
     21e: 63 00 00 00                  	beqz	zero, 0
     222: 00 00                        	<unknown>
     224: 00 00                        	<unknown>
     226: 00 88                        	<unknown>
     228: 00 00                        	<unknown>
     22a: 00 8c                        	<unknown>
     22c: 00 00                        	<unknown>
     22e: 00 02                        	<unknown>
     230: 00 30                        	<unknown>
     232: 9f 8c 00 00                  	<unknown>
     236: 00 c0                        	<unknown>
     238: 00 00                        	<unknown>
     23a: 00 01                        	<unknown>
     23c: 00 5d                        	<unknown>
     23e: 40 01                        	<unknown>
     240: 00 00                        	<unknown>
     242: 50 01                        	<unknown>
     244: 00 00                        	<unknown>
     246: 01 00                        	<unknown>
     248: 5d 68                        	<unknown>
     24a: 02 00                        	<unknown>
     24c: 00 6c                        	<unknown>
     24e: 02 00                        	<unknown>
     250: 00 01                        	<unknown>
     252: 00 5d                        	<unknown>
     254: 74 02                        	<unknown>
     256: 00 00                        	<unknown>
     258: 80 02                        	<unknown>
     25a: 00 00                        	<unknown>
     25c: 01 00                        	<unknown>
     25e: 5d a4                        	<unknown>
     260: 02 00                        	<unknown>
     262: 00 b8                        	<unknown>
     264: 02 00                        	<unknown>
     266: 00 01                        	<unknown>
     268: 00 5d                        	<unknown>
		...
     272: 6c 00                        	<unknown>
     274: 00 00                        	<unknown>
     276: c0 00                        	<unknown>
     278: 00 00                        	<unknown>
     27a: 06 00                        	<unknown>
     27c: 84 00                        	<unknown>
     27e: 08 ff                        	<unknown>
     280: 1a 9f                        	<unknown>
     282: 00 01                        	<unknown>
     284: 00 00                        	<unknown>
     286: 5c 02                        	<unknown>
     288: 00 00                        	<unknown>
     28a: 06 00                        	<unknown>
     28c: 84 00                        	<unknown>
     28e: 08 ff                        	<unknown>
     290: 1a 9f                        	<unknown>
     292: 68 02                        	<unknown>
     294: 00 00                        	<unknown>
     296: 2c 03                        	<unknown>
     298: 00 00                        	<unknown>
     29a: 06 00                        	<unknown>
     29c: 84 00                        	<unknown>
     29e: 08 ff                        	<unknown>
     2a0: 1a 9f                        	<unknown>
		...
     2aa: 68 00                        	<unknown>
     2ac: 00 00                        	<unknown>
     2ae: 88 00                        	<unknown>
     2b0: 00 00                        	<unknown>
     2b2: 06 00                        	<unknown>
     2b4: 7f 00 08 ff                  	<unknown>
     2b8: 1a 9f                        	<unknown>
     2ba: 88 00                        	<unknown>
     2bc: 00 00                        	<unknown>
     2be: a0 00                        	<unknown>
     2c0: 00 00                        	<unknown>
     2c2: 01 00                        	<unknown>
     2c4: 5f 00 01 00                  	<unknown>
     2c8: 00 0b                        	<unknown>
     2ca: 01 00                        	<unknown>
     2cc: 00 06                        	<unknown>
     2ce: 00 7f                        	<unknown>
     2d0: 00 08                        	<unknown>
     2d2: ff 1a 9f 20                  	<unknown>
     2d6: 01 00                        	<unknown>
     2d8: 00 24                        	<unknown>
     2da: 01 00                        	<unknown>
     2dc: 00 06                        	<unknown>
     2de: 00 7f                        	<unknown>
     2e0: 00 08                        	<unknown>
     2e2: ff 1a 9f 34                  	<unknown>
     2e6: 01 00                        	<unknown>
     2e8: 00 38                        	<unknown>
     2ea: 01 00                        	<unknown>
     2ec: 00 06                        	<unknown>
     2ee: 00 7f                        	<unknown>
     2f0: 00 08                        	<unknown>
     2f2: ff 1a 9f 00                  	<unknown>
     2f6: 00 00                        	<unknown>
     2f8: 00 00                        	<unknown>
     2fa: 00 00                        	<unknown>
     2fc: 00 68                        	<unknown>
     2fe: 00 00                        	<unknown>
     300: 00 78                        	<unknown>
     302: 00 00                        	<unknown>
     304: 00 01                        	<unknown>
     306: 00 58                        	<unknown>
     308: 78 00                        	<unknown>
     30a: 00 00                        	<unknown>
     30c: 7c 00                        	<unknown>
     30e: 00 00                        	<unknown>
     310: 07 00 78 00                  	<unknown>
     314: 40 43                        	<unknown>
     316: 24 21                        	<unknown>
     318: 9f 84 00 00                  	<unknown>
     31c: 00 c0                        	<unknown>
     31e: 00 00                        	<unknown>
     320: 00 01                        	<unknown>
     322: 00 58                        	<unknown>
     324: 00 01                        	<unknown>
     326: 00 00                        	<unknown>
     328: 54 01                        	<unknown>
     32a: 00 00                        	<unknown>
     32c: 01 00                        	<unknown>
     32e: 58 68                        	<unknown>
     330: 02 00                        	<unknown>
     332: 00 7c                        	<unknown>
     334: 02 00                        	<unknown>
     336: 00 01                        	<unknown>
     338: 00 58                        	<unknown>
     33a: a4 02                        	<unknown>
     33c: 00 00                        	<unknown>
     33e: b0 02                        	<unknown>
     340: 00 00                        	<unknown>
     342: 01 00                        	<unknown>
     344: 58 00                        	<unknown>
     346: 00 00                        	<unknown>
     348: 00 00                        	<unknown>
     34a: 00 00                        	<unknown>
     34c: 00 40                        	<unknown>
     34e: 01 00                        	<unknown>
     350: 00 e0                        	<unknown>
     352: 01 00                        	<unknown>
     354: 00 02                        	<unknown>
     356: 00 30                        	<unknown>
     358: 9f 68 02 00                  	<unknown>
     35c: 00 74                        	<unknown>
     35e: 02 00                        	<unknown>
     360: 00 02                        	<unknown>
     362: 00 30                        	<unknown>
     364: 9f 78 02 00                  	<unknown>
     368: 00 80                        	<unknown>
     36a: 02 00                        	<unknown>
     36c: 00 01                        	<unknown>
     36e: 00 65                        	<unknown>
     370: 80 02                        	<unknown>
     372: 00 00                        	<unknown>
     374: 98 02                        	<unknown>
     376: 00 00                        	<unknown>
     378: 01 00                        	<unknown>
     37a: 5d a8                        	<unknown>
     37c: 02 00                        	<unknown>
     37e: 00 ac                        	<unknown>
     380: 02 00                        	<unknown>
     382: 00 01                        	<unknown>
     384: 00 5d                        	<unknown>
		...
     38e: a4 00                        	<unknown>
     390: 00 00                        	<unknown>
     392: c0 00                        	<unknown>
     394: 00 00                        	<unknown>
     396: 01 00                        	<unknown>
     398: 5a 40                        	<unknown>
     39a: 01 00                        	<unknown>
     39c: 00 40                        	<unknown>
     39e: 02 00                        	<unknown>
     3a0: 00 01                        	<unknown>
     3a2: 00 5a                        	<unknown>
     3a4: 68 02                        	<unknown>
     3a6: 00 00                        	<unknown>
     3a8: 78 02                        	<unknown>
     3aa: 00 00                        	<unknown>
     3ac: 01 00                        	<unknown>
     3ae: 5a 78                        	<unknown>
     3b0: 02 00                        	<unknown>
     3b2: 00 80                        	<unknown>
     3b4: 02 00                        	<unknown>
     3b6: 00 06                        	<unknown>
     3b8: 00 82                        	<unknown>
     3ba: 00 08                        	<unknown>
     3bc: ff 1a 9f 80                  	<unknown>
     3c0: 02 00                        	<unknown>
     3c2: 00 a8                        	<unknown>
     3c4: 02 00                        	<unknown>
     3c6: 00 01                        	<unknown>
     3c8: 00 5a                        	<unknown>
     3ca: a8 02                        	<unknown>
     3cc: 00 00                        	<unknown>
     3ce: ac 02                        	<unknown>
     3d0: 00 00                        	<unknown>
     3d2: 06 00                        	<unknown>
     3d4: 84 00                        	<unknown>
     3d6: 08 ff                        	<unknown>
     3d8: 1a 9f                        	<unknown>
     3da: ac 02                        	<unknown>
     3dc: 00 00                        	<unknown>
     3de: b4 02                        	<unknown>
     3e0: 00 00                        	<unknown>
     3e2: 01 00                        	<unknown>
     3e4: 5a b4                        	<unknown>
     3e6: 02 00                        	<unknown>
     3e8: 00 bc                        	<unknown>
     3ea: 02 00                        	<unknown>
     3ec: 00 06                        	<unknown>
     3ee: 00 82                        	<unknown>
     3f0: 00 84                        	<unknown>
     3f2: 00 27                        	<unknown>
     3f4: 9f bc 02 00                  	<unknown>
     3f8: 00 1c                        	<unknown>
     3fa: 03 00 00 01                  	lb	zero, 16(zero)
     3fe: 00 5a                        	<unknown>
     400: 20 03                        	<unknown>
     402: 00 00                        	<unknown>
     404: 2c 03                        	<unknown>
     406: 00 00                        	<unknown>
     408: 01 00                        	<unknown>
     40a: 5a 00                        	<unknown>
     40c: 00 00                        	<unknown>
     40e: 00 00                        	<unknown>
     410: 00 00                        	<unknown>
     412: 00 a4                        	<unknown>
     414: 00 00                        	<unknown>
     416: 00 c0                        	<unknown>
     418: 00 00                        	<unknown>
     41a: 00 01                        	<unknown>
     41c: 00 59                        	<unknown>
     41e: 40 01                        	<unknown>
     420: 00 00                        	<unknown>
     422: e4 01                        	<unknown>
     424: 00 00                        	<unknown>
     426: 01 00                        	<unknown>
     428: 59 e4                        	<unknown>
     42a: 01 00                        	<unknown>
     42c: 00 28                        	<unknown>
     42e: 02 00                        	<unknown>
     430: 00 01                        	<unknown>
     432: 00 5e                        	<unknown>
     434: 68 02                        	<unknown>
     436: 00 00                        	<unknown>
     438: 98 02                        	<unknown>
     43a: 00 00                        	<unknown>
     43c: 01 00                        	<unknown>
     43e: 59 a4                        	<unknown>
     440: 02 00                        	<unknown>
     442: 00 bc                        	<unknown>
     444: 02 00                        	<unknown>
     446: 00 01                        	<unknown>
     448: 00 59                        	<unknown>
     44a: bc 02                        	<unknown>
     44c: 00 00                        	<unknown>
     44e: c4 02                        	<unknown>
     450: 00 00                        	<unknown>
     452: 01 00                        	<unknown>
     454: 5e c4                        	<unknown>
     456: 02 00                        	<unknown>
     458: 00 d4                        	<unknown>
     45a: 02 00                        	<unknown>
     45c: 00 01                        	<unknown>
     45e: 00 5f                        	<unknown>
     460: d4 02                        	<unknown>
     462: 00 00                        	<unknown>
     464: 0c 03                        	<unknown>
     466: 00 00                        	<unknown>
     468: 06 00                        	<unknown>
     46a: 08 20                        	<unknown>
     46c: 79 00                        	<unknown>
     46e: 1c 9f                        	<unknown>
     470: 0c 03                        	<unknown>
     472: 00 00                        	<unknown>
     474: 10 03                        	<unknown>
     476: 00 00                        	<unknown>
     478: 08 00                        	<unknown>
     47a: 7e 00                        	<unknown>
     47c: 79 00                        	<unknown>
     47e: 1c 23                        	<unknown>
     480: 1f 9f 10 03                  	<unknown>
     484: 00 00                        	<unknown>
     486: 20 03                        	<unknown>
     488: 00 00                        	<unknown>
     48a: 01 00                        	<unknown>
     48c: 59 00                        	<unknown>
     48e: 00 00                        	<unknown>
     490: 00 00                        	<unknown>
     492: 00 00                        	<unknown>
     494: 00 e0                        	<unknown>
     496: 01 00                        	<unknown>
     498: 00 18                        	<unknown>
     49a: 02 00                        	<unknown>
     49c: 00 01                        	<unknown>
     49e: 00 58                        	<unknown>
     4a0: 18 02                        	<unknown>
     4a2: 00 00                        	<unknown>
     4a4: 20 02                        	<unknown>
     4a6: 00 00                        	<unknown>
     4a8: 05 00                        	<unknown>
     4aa: 78 00                        	<unknown>
     4ac: 33 25 9f 20                  	<unknown>
     4b0: 02 00                        	<unknown>
     4b2: 00 30                        	<unknown>
     4b4: 02 00                        	<unknown>
     4b6: 00 01                        	<unknown>
     4b8: 00 58                        	<unknown>
     4ba: 78 02                        	<unknown>
     4bc: 00 00                        	<unknown>
     4be: 80 02                        	<unknown>
     4c0: 00 00                        	<unknown>
     4c2: 01 00                        	<unknown>
     4c4: 63 80 02 00                  	beqz	t0, 0
     4c8: 00 98                        	<unknown>
     4ca: 02 00                        	<unknown>
     4cc: 00 01                        	<unknown>
     4ce: 00 58                        	<unknown>
     4d0: a8 02                        	<unknown>
     4d2: 00 00                        	<unknown>
     4d4: ac 02                        	<unknown>
     4d6: 00 00                        	<unknown>
     4d8: 01 00                        	<unknown>
     4da: 58 bc                        	<unknown>
     4dc: 02 00                        	<unknown>
     4de: 00 d8                        	<unknown>
     4e0: 02 00                        	<unknown>
     4e2: 00 01                        	<unknown>
     4e4: 00 58                        	<unknown>
     4e6: e0 02                        	<unknown>
     4e8: 00 00                        	<unknown>
     4ea: 00 03                        	<unknown>
     4ec: 00 00                        	<unknown>
     4ee: 01 00                        	<unknown>
     4f0: 58 00                        	<unknown>
     4f2: 00 00                        	<unknown>
     4f4: 00 00                        	<unknown>
     4f6: 00 00                        	<unknown>
     4f8: 00 40                        	<unknown>
     4fa: 02 00                        	<unknown>
     4fc: 00 48                        	<unknown>
     4fe: 02 00                        	<unknown>
     500: 00 08                        	<unknown>
     502: 00 78                        	<unknown>
     504: 00 7a                        	<unknown>
     506: 00 21                        	<unknown>
     508: f9 25                        	<unknown>
     50a: 9f 48 02 00                  	<unknown>
     50e: 00 68                        	<unknown>
     510: 02 00                        	<unknown>
     512: 00 01                        	<unknown>
     514: 00 5a                        	<unknown>
		...
     51e: cc 00                        	<unknown>
     520: 00 00                        	<unknown>
     522: e0 00                        	<unknown>
     524: 00 00                        	<unknown>
     526: 03 00 7a 78                  	lb	zero, 1927(s4)
     52a: 9f 00 00 00                  	<unknown>
     52e: 00 00                        	<unknown>
     530: 00 00                        	<unknown>
     532: 00 0c                        	<unknown>
     534: 01 00                        	<unknown>
     536: 00 20                        	<unknown>
     538: 01 00                        	<unknown>
     53a: 00 03                        	<unknown>
     53c: 00 7a                        	<unknown>
     53e: 78 9f                        	<unknown>
		...
     548: 4c 01                        	<unknown>
     54a: 00 00                        	<unknown>
     54c: e0 01                        	<unknown>
     54e: 00 00                        	<unknown>
     550: 01 00                        	<unknown>
     552: 63 70 02 00                  	bgeu	tp, zero, 0
     556: 00 74                        	<unknown>
     558: 02 00                        	<unknown>
     55a: 00 01                        	<unknown>
     55c: 00 63                        	<unknown>
		...
     566: 4c 01                        	<unknown>
     568: 00 00                        	<unknown>
     56a: 50 01                        	<unknown>
     56c: 00 00                        	<unknown>
     56e: 02 00                        	<unknown>
     570: 30 9f                        	<unknown>
     572: 50 01                        	<unknown>
     574: 00 00                        	<unknown>
     576: 68 01                        	<unknown>
     578: 00 00                        	<unknown>
     57a: 01 00                        	<unknown>
     57c: 5d 6c                        	<unknown>
     57e: 02 00                        	<unknown>
     580: 00 74                        	<unknown>
     582: 02 00                        	<unknown>
     584: 00 01                        	<unknown>
     586: 00 5d                        	<unknown>
		...
     590: cc 01                        	<unknown>
     592: 00 00                        	<unknown>
     594: d8 01                        	<unknown>
     596: 00 00                        	<unknown>
     598: 08 00                        	<unknown>
     59a: 7c 00                        	<unknown>
     59c: 40 24                        	<unknown>
     59e: 7e 00                        	<unknown>
     5a0: 21 9f                        	<unknown>
     5a2: d8 01                        	<unknown>
     5a4: 00 00                        	<unknown>
     5a6: e0 01                        	<unknown>
     5a8: 00 00                        	<unknown>
     5aa: 01 00                        	<unknown>
     5ac: 58 00                        	<unknown>
     5ae: 00 00                        	<unknown>
     5b0: 00 00                        	<unknown>
     5b2: 00 00                        	<unknown>
     5b4: 00 cc                        	<unknown>
     5b6: 01 00                        	<unknown>
     5b8: 00 d4                        	<unknown>
     5ba: 01 00                        	<unknown>
     5bc: 00 06                        	<unknown>
     5be: 00 7f                        	<unknown>
     5c0: 00 7d                        	<unknown>
     5c2: 00 1c                        	<unknown>
     5c4: 9f d4 01 00                  	<unknown>
     5c8: 00 dc                        	<unknown>
     5ca: 01 00                        	<unknown>
     5cc: 00 01                        	<unknown>
     5ce: 00 5f                        	<unknown>
		...
     5d8: 44 01                        	<unknown>
     5da: 00 00                        	<unknown>
     5dc: e0 01                        	<unknown>
     5de: 00 00                        	<unknown>
     5e0: 01 00                        	<unknown>
     5e2: 5b 68 02 00                  	<unknown>
     5e6: 00 74                        	<unknown>
     5e8: 02 00                        	<unknown>
     5ea: 00 01                        	<unknown>
     5ec: 00 5b                        	<unknown>
		...
     5f6: 54 01                        	<unknown>
     5f8: 00 00                        	<unknown>
     5fa: d0 01                        	<unknown>
     5fc: 00 00                        	<unknown>
     5fe: 01 00                        	<unknown>
     600: 58 d0                        	<unknown>
     602: 01 00                        	<unknown>
     604: 00 e0                        	<unknown>
     606: 01 00                        	<unknown>
     608: 00 05                        	<unknown>
     60a: 00 7b                        	<unknown>
     60c: 00 40                        	<unknown>
     60e: 25 9f                        	<unknown>
		...
     618: 64 01                        	<unknown>
     61a: 00 00                        	<unknown>
     61c: ac 01                        	<unknown>
     61e: 00 00                        	<unknown>
     620: 01 00                        	<unknown>
     622: 5f ac 01 00                  	<unknown>
     626: 00 e0                        	<unknown>
     628: 01 00                        	<unknown>
     62a: 00 07                        	<unknown>
     62c: 00 7b                        	<unknown>
     62e: 00 0a                        	<unknown>
     630: ff ff 1a 9f                  	<unknown>
		...
     63c: 64 01                        	<unknown>
     63e: 00 00                        	<unknown>
     640: 88 01                        	<unknown>
     642: 00 00                        	<unknown>
     644: 01 00                        	<unknown>
     646: 61 88                        	<unknown>
     648: 01 00                        	<unknown>
     64a: 00 e0                        	<unknown>
     64c: 01 00                        	<unknown>
     64e: 00 01                        	<unknown>
     650: 00 5c                        	<unknown>
		...
     65a: a0 01                        	<unknown>
     65c: 00 00                        	<unknown>
     65e: bc 01                        	<unknown>
     660: 00 00                        	<unknown>
     662: 01 00                        	<unknown>
     664: 60 bc                        	<unknown>
     666: 01 00                        	<unknown>
     668: 00 e0                        	<unknown>
     66a: 01 00                        	<unknown>
     66c: 00 01                        	<unknown>
     66e: 00 5e                        	<unknown>
		...
     678: 64 01                        	<unknown>
     67a: 00 00                        	<unknown>
     67c: 6c 01                        	<unknown>
     67e: 00 00                        	<unknown>
     680: 06 00                        	<unknown>
     682: 83 00 78 00                  	lb	ra, 7(a6)
     686: 1d 9f                        	<unknown>
     688: 6c 01                        	<unknown>
     68a: 00 00                        	<unknown>
     68c: 78 01                        	<unknown>
     68e: 00 00                        	<unknown>
     690: 01 00                        	<unknown>
     692: 5e 78                        	<unknown>
     694: 01 00                        	<unknown>
     696: 00 7c                        	<unknown>
     698: 01 00                        	<unknown>
     69a: 00 06                        	<unknown>
     69c: 00 83                        	<unknown>
     69e: 00 78                        	<unknown>
     6a0: 00 1d                        	<unknown>
     6a2: 9f 7c 01 00                  	<unknown>
     6a6: 00 84                        	<unknown>
     6a8: 01 00                        	<unknown>
     6aa: 00 01                        	<unknown>
     6ac: 00 5e                        	<unknown>
     6ae: 84 01                        	<unknown>
     6b0: 00 00                        	<unknown>
     6b2: 88 01                        	<unknown>
     6b4: 00 00                        	<unknown>
     6b6: 0b 00 83 00                  	<unknown>
     6ba: 78 00                        	<unknown>
     6bc: 1d 40                        	<unknown>
     6be: 24 7d                        	<unknown>
     6c0: 00 21                        	<unknown>
     6c2: 9f 88 01 00                  	<unknown>
     6c6: 00 a4                        	<unknown>
     6c8: 01 00                        	<unknown>
     6ca: 00 01                        	<unknown>
     6cc: 00 5e                        	<unknown>
		...
     6d6: 9c 01                        	<unknown>
     6d8: 00 00                        	<unknown>
     6da: a4 01                        	<unknown>
     6dc: 00 00                        	<unknown>
     6de: 06 00                        	<unknown>
     6e0: 7e 00                        	<unknown>
     6e2: 78 00                        	<unknown>
     6e4: 1d 9f                        	<unknown>
     6e6: a4 01                        	<unknown>
     6e8: 00 00                        	<unknown>
     6ea: ac 01                        	<unknown>
     6ec: 00 00                        	<unknown>
     6ee: 01 00                        	<unknown>
     6f0: 5e ac                        	<unknown>
     6f2: 01 00                        	<unknown>
     6f4: 00 b8                        	<unknown>
     6f6: 01 00                        	<unknown>
     6f8: 00 01                        	<unknown>
     6fa: 00 5f                        	<unknown>
     6fc: bc 01                        	<unknown>
     6fe: 00 00                        	<unknown>
     700: cc 01                        	<unknown>
     702: 00 00                        	<unknown>
     704: 01 00                        	<unknown>
     706: 5f cc 01 00                  	<unknown>
     70a: 00 d4                        	<unknown>
     70c: 01 00                        	<unknown>
     70e: 00 06                        	<unknown>
     710: 00 7f                        	<unknown>
     712: 00 7d                        	<unknown>
     714: 00 1c                        	<unknown>
     716: 9f d4 01 00                  	<unknown>
     71a: 00 dc                        	<unknown>
     71c: 01 00                        	<unknown>
     71e: 00 01                        	<unknown>
     720: 00 5f                        	<unknown>
		...
     72a: 74 01                        	<unknown>
     72c: 00 00                        	<unknown>
     72e: a0 01                        	<unknown>
     730: 00 00                        	<unknown>
     732: 01 00                        	<unknown>
     734: 60 a0                        	<unknown>
     736: 01 00                        	<unknown>
     738: 00 a8                        	<unknown>
     73a: 01 00                        	<unknown>
     73c: 00 06                        	<unknown>
     73e: 00 7f                        	<unknown>
     740: 00 81                        	<unknown>
     742: 00 1e                        	<unknown>
     744: 9f a8 01 00                  	<unknown>
     748: 00 e0                        	<unknown>
     74a: 01 00                        	<unknown>
     74c: 00 01                        	<unknown>
     74e: 00 5d                        	<unknown>
		...
     75c: 24 00                        	<unknown>
     75e: 00 00                        	<unknown>
     760: 01 00                        	<unknown>
     762: 5a 24                        	<unknown>
     764: 00 00                        	<unknown>
     766: 00 38                        	<unknown>
     768: 00 00                        	<unknown>
     76a: 00 04                        	<unknown>
     76c: 00 f3                        	<unknown>
     76e: 01 5a                        	<unknown>
     770: 9f 38 00 00                  	<unknown>
     774: 00 4c                        	<unknown>
     776: 00 00                        	<unknown>
     778: 00 01                        	<unknown>
     77a: 00 5a                        	<unknown>
		...
     788: 24 00                        	<unknown>
     78a: 00 00                        	<unknown>
     78c: 01 00                        	<unknown>
     78e: 5a 24                        	<unknown>
     790: 00 00                        	<unknown>
     792: 00 38                        	<unknown>
     794: 00 00                        	<unknown>
     796: 00 04                        	<unknown>
     798: 00 f3                        	<unknown>
     79a: 01 5a                        	<unknown>
     79c: 9f 38 00 00                  	<unknown>
     7a0: 00 4c                        	<unknown>
     7a2: 00 00                        	<unknown>
     7a4: 00 01                        	<unknown>
     7a6: 00 5a                        	<unknown>
		...
     7b0: 14 00                        	<unknown>
     7b2: 00 00                        	<unknown>
     7b4: 28 00                        	<unknown>
     7b6: 00 00                        	<unknown>
     7b8: 01 00                        	<unknown>
     7ba: 5f 00 00 00                  	<unknown>
     7be: 00 00                        	<unknown>
     7c0: 00 00                        	<unknown>
     7c2: 00                           	<unknown>

Disassembly of section .debug_ranges:

00000000 .debug_ranges:
		...
       8: 18 00                        	<unknown>
       a: 00 00                        	<unknown>
       c: 1c 00                        	<unknown>
       e: 00 00                        	<unknown>
      10: 30 00                        	<unknown>
      12: 00 00                        	<unknown>
      14: 38 00                        	<unknown>
      16: 00 00                        	<unknown>
      18: 74 02                        	<unknown>
      1a: 00 00                        	<unknown>
      1c: 78 02                        	<unknown>
		...
      26: 00 00                        	<unknown>
      28: 54 00                        	<unknown>
      2a: 00 00                        	<unknown>
      2c: 58 00                        	<unknown>
      2e: 00 00                        	<unknown>
      30: c4 00                        	<unknown>
      32: 00 00                        	<unknown>
      34: e0 00                        	<unknown>
		...
      3e: 00 00                        	<unknown>
      40: 58 00                        	<unknown>
      42: 00 00                        	<unknown>
      44: 6c 00                        	<unknown>
      46: 00 00                        	<unknown>
      48: a4 02                        	<unknown>
      4a: 00 00                        	<unknown>
      4c: a8 02                        	<unknown>
		...
      56: 00 00                        	<unknown>
      58: 88 00                        	<unknown>
      5a: 00 00                        	<unknown>
      5c: 8c 00                        	<unknown>
      5e: 00 00                        	<unknown>
      60: 04 01                        	<unknown>
      62: 00 00                        	<unknown>
      64: 20 01                        	<unknown>
		...
      6e: 00 00                        	<unknown>
      70: 40 01                        	<unknown>
      72: 00 00                        	<unknown>
      74: e0 01                        	<unknown>
      76: 00 00                        	<unknown>
      78: 68 02                        	<unknown>
      7a: 00 00                        	<unknown>
      7c: 74 02                        	<unknown>
		...
      86: 00 00                        	<unknown>
      88: 50 01                        	<unknown>
      8a: 00 00                        	<unknown>
      8c: cc 01                        	<unknown>
      8e: 00 00                        	<unknown>
      90: cc 01                        	<unknown>
      92: 00 00                        	<unknown>
      94: d0 01                        	<unknown>
      96: 00 00                        	<unknown>
      98: d4 01                        	<unknown>
      9a: 00 00                        	<unknown>
      9c: d8 01                        	<unknown>
		...
      a6: 00 00                        	<unknown>
      a8: bc 02                        	<unknown>
      aa: 00 00                        	<unknown>
      ac: 10 03                        	<unknown>
      ae: 00 00                        	<unknown>
      b0: 20 03                        	<unknown>
      b2: 00 00                        	<unknown>
      b4: 2c 03                        	<unknown>
		...
      c2: 00 00                        	<unknown>
      c4: 14 00                        	<unknown>
      c6: 00 00                        	<unknown>
      c8: 14 00                        	<unknown>
      ca: 00 00                        	<unknown>
      cc: 30 00                        	<unknown>
      ce: 00 00                        	<unknown>
      d0: 38 00                        	<unknown>
      d2: 00 00                        	<unknown>
      d4: 4c 00                        	<unknown>
		...
      de: 00 00                        	<unknown>

Disassembly of section .symtab:

00000000 .symtab:
		...
      14: 00 00                        	<unknown>
      16: 00 80                        	<unknown>
      18: 00 00                        	<unknown>
      1a: 00 00                        	<unknown>
      1c: 03 00 01 00                  	lb	zero, 0(sp)
      20: 00 00                        	<unknown>
      22: 00 00                        	<unknown>
      24: 48 00                        	<unknown>
      26: 00 80                        	<unknown>
      28: 00 00                        	<unknown>
      2a: 00 00                        	<unknown>
      2c: 03 00 02 00                  	lb	zero, 0(tp)
      30: 00 00                        	<unknown>
      32: 00 00                        	<unknown>
      34: 38 0e                        	<unknown>
      36: 00 80                        	<unknown>
      38: 00 00                        	<unknown>
      3a: 00 00                        	<unknown>
      3c: 03 00 03 00                  	lb	zero, 0(t1)
      40: 00 00                        	<unknown>
      42: 00 00                        	<unknown>
      44: 00 10                        	<unknown>
      46: 00 80                        	<unknown>
      48: 00 00                        	<unknown>
      4a: 00 00                        	<unknown>
      4c: 03 00 04 00                  	lb	zero, 0(s0)
      50: 00 00                        	<unknown>
      52: 00 00                        	<unknown>
      54: 08 10                        	<unknown>
      56: 00 80                        	<unknown>
      58: 00 00                        	<unknown>
      5a: 00 00                        	<unknown>
      5c: 03 00 05 00                  	lb	zero, 0(a0)
      60: 00 00                        	<unknown>
      62: 00 00                        	<unknown>
      64: 30 14                        	<unknown>
      66: 00 80                        	<unknown>
      68: 00 00                        	<unknown>
      6a: 00 00                        	<unknown>
      6c: 03 00 06 00                  	lb	zero, 0(a2)
      70: 00 00                        	<unknown>
      72: 00 00                        	<unknown>
      74: 34 14                        	<unknown>
      76: 00 80                        	<unknown>
      78: 00 00                        	<unknown>
      7a: 00 00                        	<unknown>
      7c: 03 00 07 00                  	lb	zero, 0(a4)
		...
      8c: 03 00 08 00                  	lb	zero, 0(a6)
		...
      9c: 03 00 09 00                  	lb	zero, 0(s2)
		...
      ac: 03 00 0a 00                  	lb	zero, 0(s4)
		...
      bc: 03 00 0b 00                  	lb	zero, 0(s6)
		...
      cc: 03 00 0c 00                  	lb	zero, 0(s8)
		...
      dc: 03 00 0d 00                  	lb	zero, 0(s10)
		...
      ec: 03 00 0e 00                  	lb	zero, 0(t3)
		...
      fc: 03 00 0f 00                  	lb	zero, 0(t5)
		...
     10c: 03 00 10 00                  	lb	zero, 1(zero)
		...
     11c: 03 00 11 00                  	lb	zero, 1(sp)
     120: 01 00                        	<unknown>
		...
     12a: 00 00                        	<unknown>
     12c: 04 00                        	<unknown>
     12e: f1 ff                        	<unknown>
     130: 0e 00                        	<unknown>
     132: 00 00                        	<unknown>
     134: 74 06                        	<unknown>
     136: 00 80                        	<unknown>
     138: 00 00                        	<unknown>
     13a: 00 00                        	<unknown>
     13c: 00 00                        	<unknown>
     13e: 02 00                        	<unknown>
     140: 15 00                        	<unknown>
		...
     14a: 00 00                        	<unknown>
     14c: 04 00                        	<unknown>
     14e: f1 ff                        	<unknown>
     150: 25 00                        	<unknown>
     152: 00 00                        	<unknown>
     154: 48 00                        	<unknown>
     156: 00 80                        	<unknown>
     158: 18 00                        	<unknown>
     15a: 00 00                        	<unknown>
     15c: 02 00                        	<unknown>
     15e: 02 00                        	<unknown>
     160: 33 00 00 00                  	add	zero, zero, zero
		...
     16c: 04 00                        	<unknown>
     16e: f1 ff                        	<unknown>
     170: 57 00 00 00                  	<unknown>
		...
     17c: 04 00                        	<unknown>
     17e: f1 ff                        	<unknown>
     180: 73 00 00 00                  	ecall	
		...
     18c: 04 00                        	<unknown>
     18e: f1 ff                        	<unknown>
     190: 75 00                        	<unknown>
		...
     19a: 00 00                        	<unknown>
     19c: 04 00                        	<unknown>
     19e: f1 ff                        	<unknown>
     1a0: 63 00 00 00                  	beqz	zero, 0
		...
     1ac: 04 00                        	<unknown>
     1ae: f1 ff                        	<unknown>
     1b0: 6a 00                        	<unknown>
		...
     1ba: 00 00                        	<unknown>
     1bc: 04 00                        	<unknown>
     1be: f1 ff                        	<unknown>
     1c0: 71 00                        	<unknown>
		...
     1ca: 00 00                        	<unknown>
     1cc: 04 00                        	<unknown>
     1ce: f1 ff                        	<unknown>
     1d0: 7c 00                        	<unknown>
		...
     1da: 00 00                        	<unknown>
     1dc: 04 00                        	<unknown>
     1de: f1 ff                        	<unknown>
     1e0: 85 00                        	<unknown>
		...
     1ea: 00 00                        	<unknown>
     1ec: 04 00                        	<unknown>
     1ee: f1 ff                        	<unknown>
     1f0: 85 00                        	<unknown>
		...
     1fa: 00 00                        	<unknown>
     1fc: 04 00                        	<unknown>
     1fe: f1 ff                        	<unknown>
     200: 8f 00 00 00                  	<unknown>
		...
     20c: 04 00                        	<unknown>
     20e: f1 ff                        	<unknown>
     210: 98 00                        	<unknown>
     212: 00 00                        	<unknown>
     214: 08 10                        	<unknown>
     216: 00 80                        	<unknown>
     218: 28 04                        	<unknown>
     21a: 00 00                        	<unknown>
     21c: 01 00                        	<unknown>
     21e: 05 00                        	<unknown>
     220: a4 00                        	<unknown>
		...
     22a: 00 00                        	<unknown>
     22c: 04 00                        	<unknown>
     22e: f1 ff                        	<unknown>
		...
     23c: 04 00                        	<unknown>
     23e: f1 ff                        	<unknown>
     240: af 00 00 00                  	<unknown>
     244: 04 10                        	<unknown>
     246: 00 80                        	<unknown>
     248: 00 00                        	<unknown>
     24a: 00 00                        	<unknown>
     24c: 00 00                        	<unknown>
     24e: 04 00                        	<unknown>
     250: c0 00                        	<unknown>
     252: 00 00                        	<unknown>
     254: 04 10                        	<unknown>
     256: 00 80                        	<unknown>
     258: 00 00                        	<unknown>
     25a: 00 00                        	<unknown>
     25c: 00 00                        	<unknown>
     25e: 04 00                        	<unknown>
     260: d3 00 00 00                  	<unknown>
     264: 04 10                        	<unknown>
     266: 00 80                        	<unknown>
     268: 00 00                        	<unknown>
     26a: 00 00                        	<unknown>
     26c: 00 00                        	<unknown>
     26e: 04 00                        	<unknown>
     270: e4 00                        	<unknown>
     272: 00 00                        	<unknown>
     274: 00 10                        	<unknown>
     276: 00 80                        	<unknown>
     278: 00 00                        	<unknown>
     27a: 00 00                        	<unknown>
     27c: 00 00                        	<unknown>
     27e: 04 00                        	<unknown>
     280: f8 00                        	<unknown>
     282: 00 00                        	<unknown>
     284: 00 10                        	<unknown>
     286: 00 80                        	<unknown>
     288: 00 00                        	<unknown>
     28a: 00 00                        	<unknown>
     28c: 00 00                        	<unknown>
     28e: 04 00                        	<unknown>
     290: 0b 01 00 00                  	<unknown>
     294: 00 10                        	<unknown>
     296: 00 80                        	<unknown>
     298: 00 00                        	<unknown>
     29a: 00 00                        	<unknown>
     29c: 00 00                        	<unknown>
     29e: 04 00                        	<unknown>
     2a0: 21 01                        	<unknown>
     2a2: 00 00                        	<unknown>
     2a4: 08 18                        	<unknown>
     2a6: 00 80                        	<unknown>
     2a8: 00 00                        	<unknown>
     2aa: 00 00                        	<unknown>
     2ac: 10 00                        	<unknown>
     2ae: f1 ff                        	<unknown>
     2b0: 33 01 00 00                  	add	sp, zero, zero
     2b4: c0 06                        	<unknown>
     2b6: 00 80                        	<unknown>
     2b8: 00 00                        	<unknown>
     2ba: 00 00                        	<unknown>
     2bc: 12 00                        	<unknown>
     2be: 02 00                        	<unknown>
     2c0: 3e 01                        	<unknown>
     2c2: 00 00                        	<unknown>
     2c4: 78 06                        	<unknown>
     2c6: 00 80                        	<unknown>
     2c8: 00 00                        	<unknown>
     2ca: 00 00                        	<unknown>
     2cc: 12 00                        	<unknown>
     2ce: 02 00                        	<unknown>
     2d0: 48 01                        	<unknown>
     2d2: 00 00                        	<unknown>
     2d4: c0 0a                        	<unknown>
     2d6: 00 80                        	<unknown>
     2d8: 2c 03                        	<unknown>
     2da: 00 00                        	<unknown>
     2dc: 12 02                        	<unknown>
     2de: 02 00                        	<unknown>
     2e0: 51 01                        	<unknown>
     2e2: 00 00                        	<unknown>
     2e4: 80 06                        	<unknown>
     2e6: 00 80                        	<unknown>
     2e8: 00 00                        	<unknown>
     2ea: 00 00                        	<unknown>
     2ec: 12 00                        	<unknown>
     2ee: 02 00                        	<unknown>
     2f0: 58 01                        	<unknown>
     2f2: 00 00                        	<unknown>
     2f4: 30 14                        	<unknown>
     2f6: 00 80                        	<unknown>
     2f8: 00 00                        	<unknown>
     2fa: 00 00                        	<unknown>
     2fc: 10 00                        	<unknown>
     2fe: 06 00                        	<unknown>
     300: 68 01                        	<unknown>
     302: 00 00                        	<unknown>
     304: 90 03                        	<unknown>
     306: 00 80                        	<unknown>
     308: 54 01                        	<unknown>
     30a: 00 00                        	<unknown>
     30c: 12 00                        	<unknown>
     30e: 02 00                        	<unknown>
     310: 84 01                        	<unknown>
     312: 00 00                        	<unknown>
     314: 98 06                        	<unknown>
     316: 00 80                        	<unknown>
     318: 00 00                        	<unknown>
     31a: 00 00                        	<unknown>
     31c: 12 00                        	<unknown>
     31e: 02 00                        	<unknown>
     320: 8c 01                        	<unknown>
     322: 00 00                        	<unknown>
     324: d0 06                        	<unknown>
     326: 00 80                        	<unknown>
     328: 00 00                        	<unknown>
     32a: 00 00                        	<unknown>
     32c: 12 00                        	<unknown>
     32e: 02 00                        	<unknown>
     330: 99 01                        	<unknown>
     332: 00 00                        	<unknown>
     334: c8 00                        	<unknown>
     336: 00 80                        	<unknown>
     338: b4 00                        	<unknown>
     33a: 00 00                        	<unknown>
     33c: 12 00                        	<unknown>
     33e: 02 00                        	<unknown>
     340: a6 01                        	<unknown>
     342: 00 00                        	<unknown>
     344: 90 06                        	<unknown>
     346: 00 80                        	<unknown>
     348: 00 00                        	<unknown>
     34a: 00 00                        	<unknown>
     34c: 12 00                        	<unknown>
     34e: 02 00                        	<unknown>
     350: af 01 00 00                  	<unknown>
     354: 30 14                        	<unknown>
     356: 00 80                        	<unknown>
     358: 04 00                        	<unknown>
     35a: 00 00                        	<unknown>
     35c: 11 00                        	<unknown>
     35e: 06 00                        	<unknown>
     360: c2 01                        	<unknown>
     362: 00 00                        	<unknown>
     364: 90 07                        	<unknown>
     366: 00 80                        	<unknown>
     368: 9c 00                        	<unknown>
     36a: 00 00                        	<unknown>
     36c: 12 00                        	<unknown>
     36e: 02 00                        	<unknown>
     370: d4 01                        	<unknown>
     372: 00 00                        	<unknown>
     374: c8 06                        	<unknown>
     376: 00 80                        	<unknown>
     378: 00 00                        	<unknown>
     37a: 00 00                        	<unknown>
     37c: 12 00                        	<unknown>
     37e: 02 00                        	<unknown>
     380: e3 01 00 00                  	beqz	zero, 2050
     384: a0 06                        	<unknown>
     386: 00 80                        	<unknown>
     388: 00 00                        	<unknown>
     38a: 00 00                        	<unknown>
     38c: 12 00                        	<unknown>
     38e: 02 00                        	<unknown>
     390: ee 01                        	<unknown>
     392: 00 00                        	<unknown>
     394: b0 06                        	<unknown>
     396: 00 80                        	<unknown>
     398: 00 00                        	<unknown>
     39a: 00 00                        	<unknown>
     39c: 12 00                        	<unknown>
     39e: 02 00                        	<unknown>
     3a0: fb 01 00 00                  	<unknown>
     3a4: 34 07                        	<unknown>
     3a6: 00 80                        	<unknown>
     3a8: 5c 00                        	<unknown>
     3aa: 00 00                        	<unknown>
     3ac: 12 00                        	<unknown>
     3ae: 02 00                        	<unknown>
     3b0: 0d 02                        	<unknown>
     3b2: 00 00                        	<unknown>
     3b4: 34 14                        	<unknown>
     3b6: 00 80                        	<unknown>
     3b8: 04 00                        	<unknown>
     3ba: 00 00                        	<unknown>
     3bc: 11 00                        	<unknown>
     3be: 07 00 15 02                  	<unknown>
     3c2: 00 00                        	<unknown>
     3c4: 40 02                        	<unknown>
     3c6: 00 80                        	<unknown>
     3c8: 50 01                        	<unknown>
     3ca: 00 00                        	<unknown>
     3cc: 12 00                        	<unknown>
     3ce: 02 00                        	<unknown>
     3d0: 27 02 00 00                  	<unknown>
     3d4: 38 06                        	<unknown>
     3d6: 00 80                        	<unknown>
     3d8: 00 00                        	<unknown>
     3da: 00 00                        	<unknown>
     3dc: 12 00                        	<unknown>
     3de: 02 00                        	<unknown>
     3e0: 31 02                        	<unknown>
     3e2: 00 00                        	<unknown>
     3e4: ec 0d                        	<unknown>
     3e6: 00 80                        	<unknown>
     3e8: 4c 00                        	<unknown>
     3ea: 00 00                        	<unknown>
     3ec: 12 02                        	<unknown>
     3ee: 02 00                        	<unknown>
     3f0: 3a 02                        	<unknown>
     3f2: 00 00                        	<unknown>
     3f4: 88 06                        	<unknown>
     3f6: 00 80                        	<unknown>
     3f8: 00 00                        	<unknown>
     3fa: 00 00                        	<unknown>
     3fc: 12 00                        	<unknown>
     3fe: 02 00                        	<unknown>
     400: 45 02                        	<unknown>
     402: 00 00                        	<unknown>
     404: a0 09                        	<unknown>
     406: 00 80                        	<unknown>
     408: 20 01                        	<unknown>
     40a: 00 00                        	<unknown>
     40c: 12 00                        	<unknown>
     40e: 02 00                        	<unknown>
     410: 7b 02 00 00                  	<unknown>
     414: 00 00                        	<unknown>
     416: 00 80                        	<unknown>
     418: 48 00                        	<unknown>
     41a: 00 00                        	<unknown>
     41c: 12 00                        	<unknown>
     41e: 01 00                        	<unknown>
     420: 56 02                        	<unknown>
     422: 00 00                        	<unknown>
     424: 08 09                        	<unknown>
     426: 00 80                        	<unknown>
     428: 98 00                        	<unknown>
     42a: 00 00                        	<unknown>
     42c: 12 00                        	<unknown>
     42e: 02 00                        	<unknown>
     430: 6a 02                        	<unknown>
     432: 00 00                        	<unknown>
     434: 38 14                        	<unknown>
     436: 00 80                        	<unknown>
     438: 00 00                        	<unknown>
     43a: 00 00                        	<unknown>
     43c: 10 00                        	<unknown>
     43e: 07 00 76 02                  	<unknown>
     442: 00 00                        	<unknown>
     444: 34 14                        	<unknown>
     446: 00 80                        	<unknown>
     448: 00 00                        	<unknown>
     44a: 00 00                        	<unknown>
     44c: 10 00                        	<unknown>
     44e: 07 00 82 02                  	<unknown>
     452: 00 00                        	<unknown>
     454: 2c 08                        	<unknown>
     456: 00 80                        	<unknown>
     458: dc 00                        	<unknown>
     45a: 00 00                        	<unknown>
     45c: 12 00                        	<unknown>
     45e: 02 00                        	<unknown>
     460: 89 02                        	<unknown>
     462: 00 00                        	<unknown>
     464: 7c 01                        	<unknown>
     466: 00 80                        	<unknown>
     468: c4 00                        	<unknown>
     46a: 00 00                        	<unknown>
     46c: 12 00                        	<unknown>
     46e: 02 00                        	<unknown>
     470: 8e 02                        	<unknown>
     472: 00 00                        	<unknown>
     474: e0 06                        	<unknown>
     476: 00 80                        	<unknown>
     478: 00 00                        	<unknown>
     47a: 00 00                        	<unknown>
     47c: 12 00                        	<unknown>
     47e: 02 00                        	<unknown>
     480: 9c 02                        	<unknown>
     482: 00 00                        	<unknown>
     484: 74 0e                        	<unknown>
     486: 00 80                        	<unknown>
     488: 00 01                        	<unknown>
     48a: 00 00                        	<unknown>
     48c: 11 02                        	<unknown>
     48e: 03 00 a6 02                  	lb	zero, 42(a2)
     492: 00 00                        	<unknown>
     494: f0 06                        	<unknown>
     496: 00 80                        	<unknown>
     498: 14 00                        	<unknown>
     49a: 00 00                        	<unknown>
     49c: 12 00                        	<unknown>
     49e: 02 00                        	<unknown>
     4a0: ad 02                        	<unknown>
     4a2: 00 00                        	<unknown>
     4a4: b8 06                        	<unknown>
     4a6: 00 80                        	<unknown>
     4a8: 00 00                        	<unknown>
     4aa: 00 00                        	<unknown>
     4ac: 12 00                        	<unknown>
     4ae: 02 00                        	<unknown>
     4b0: bb 02 00 00                  	<unknown>
     4b4: d8 06                        	<unknown>
     4b6: 00 80                        	<unknown>
     4b8: 00 00                        	<unknown>
     4ba: 00 00                        	<unknown>
     4bc: 12 00                        	<unknown>
     4be: 02 00                        	<unknown>
     4c0: c8 02                        	<unknown>
     4c2: 00 00                        	<unknown>
     4c4: a8 06                        	<unknown>
     4c6: 00 80                        	<unknown>
     4c8: 00 00                        	<unknown>
     4ca: 00 00                        	<unknown>
     4cc: 12 00                        	<unknown>
     4ce: 02 00                        	<unknown>
     4d0: d4 02                        	<unknown>
     4d2: 00 00                        	<unknown>
     4d4: 08 10                        	<unknown>
     4d6: 00 80                        	<unknown>
     4d8: 00 00                        	<unknown>
     4da: 00 00                        	<unknown>
     4dc: 10 00                        	<unknown>
     4de: 05 00                        	<unknown>
     4e0: e3 02 00 00                  	beqz	zero, 2052
     4e4: e4 04                        	<unknown>
     4e6: 00 80                        	<unknown>
     4e8: 4c 01                        	<unknown>
     4ea: 00 00                        	<unknown>
     4ec: 12 00                        	<unknown>
     4ee: 02 00                        	<unknown>
     4f0: 04 03                        	<unknown>
     4f2: 00 00                        	<unknown>
     4f4: 34 14                        	<unknown>
     4f6: 00 80                        	<unknown>
     4f8: 00 00                        	<unknown>
     4fa: 00 00                        	<unknown>
     4fc: 10 00                        	<unknown>
     4fe: 06 00                        	<unknown>
     500: bb 00 00 00                  	<unknown>
     504: 38 14                        	<unknown>
     506: 00 80                        	<unknown>
     508: 00 00                        	<unknown>
     50a: 00 00                        	<unknown>
     50c: 10 00                        	<unknown>
     50e: 07 00 0b 03                  	<unknown>
     512: 00 00                        	<unknown>
     514: 60 00                        	<unknown>
     516: 00 80                        	<unknown>
     518: 68 00                        	<unknown>
     51a: 00 00                        	<unknown>
     51c: 12 00                        	<unknown>
     51e: 02 00                        	<unknown>
     520: 21 03                        	<unknown>
     522: 00 00                        	<unknown>
     524: 04 07                        	<unknown>
     526: 00 80                        	<unknown>
     528: 30 00                        	<unknown>
     52a: 00 00                        	<unknown>
     52c: 12 00                        	<unknown>
     52e: 02 00                        	<unknown>
     530: 20 03                        	<unknown>
     532: 00 00                        	<unknown>
     534: 30 06                        	<unknown>
     536: 00 80                        	<unknown>
     538: 00 00                        	<unknown>
     53a: 00 00                        	<unknown>
     53c: 12 00                        	<unknown>
     53e: 02 00                        	<unknown>
     540: 26 03                        	<unknown>
     542: 00 00                        	<unknown>
     544: e8 06                        	<unknown>
     546: 00 80                        	<unknown>
     548: 00 00                        	<unknown>
     54a: 00 00                        	<unknown>
     54c: 12 00                        	<unknown>
     54e: 02 00                        	<unknown>

Disassembly of section .strtab:

00000000 .strtab:
       0: 00 76                        	<unknown>
       2: 78 5f                        	<unknown>
       4: 73 74 61 72                  	csrrci	s0, 1830, 2
       8: 74 2e                        	<unknown>
       a: 53 2e 6f 00                  	<unknown>
       e: 52 45                        	<unknown>
      10: 54 55                        	<unknown>
      12: 52 4e                        	<unknown>
      14: 00 5f                        	<unknown>
      16: 5f 63 61 6c                  	<unknown>
      1a: 6c 5f                        	<unknown>
      1c: 61 74                        	<unknown>
      1e: 65 78                        	<unknown>
      20: 69 74                        	<unknown>
      22: 2e 63                        	<unknown>
      24: 00 72                        	<unknown>
      26: 65 67                        	<unknown>
      28: 69 73                        	<unknown>
      2a: 74 65                        	<unknown>
      2c: 72 5f                        	<unknown>
      2e: 66 69                        	<unknown>
      30: 6e 69                        	<unknown>
      32: 00 70                        	<unknown>
      34: 6f 63 6c 5f                  	jal	t1, 812534
      38: 76 6f                        	<unknown>
      3a: 72 74                        	<unknown>
      3c: 65 78                        	<unknown>
      3e: 5f 6b 65 72                  	<unknown>
      42: 6e 65                        	<unknown>
      44: 6c 2d                        	<unknown>
      46: 61 66                        	<unknown>
      48: 2d 62                        	<unknown>
      4a: 37 2d 31 34                  	lui	s10, 213778
      4e: 2d 61                        	<unknown>
      50: 34 2d                        	<unknown>
      52: 38 38                        	<unknown>
      54: 2e 63                        	<unknown>
      56: 00 70                        	<unknown>
      58: 61 72                        	<unknown>
      5a: 61 6c                        	<unknown>
      5c: 6c 65                        	<unknown>
      5e: 6c 5f                        	<unknown>
      60: 62 63                        	<unknown>
      62: 00 66                        	<unknown>
      64: 69 6e                        	<unknown>
      66: 69 2e                        	<unknown>
      68: 63 00 69 6e                  	beq	s2, t1, 1760
      6c: 69 74                        	<unknown>
      6e: 2e 63                        	<unknown>
      70: 00 5f                        	<unknown>
      72: 5f 61 74 65                  	<unknown>
      76: 78 69                        	<unknown>
      78: 74 2e                        	<unknown>
      7a: 63 00 64 69                  	beq	s0, s6, 1664
      7e: 76 73                        	<unknown>
      80: 66 33                        	<unknown>
      82: 2e 63                        	<unknown>
      84: 00 6c                        	<unknown>
      86: 69 62                        	<unknown>
      88: 67 63 63 32                  	<unknown>
      8c: 2e 63                        	<unknown>
      8e: 00 69                        	<unknown>
      90: 6d 70                        	<unknown>
      92: 75 72                        	<unknown>
      94: 65 2e                        	<unknown>
      96: 63 00 69 6d                  	beq	s2, s6, 1728
      9a: 70 75                        	<unknown>
      9c: 72 65                        	<unknown>
      9e: 5f 64 61 74                  	<unknown>
      a2: 61 00                        	<unknown>
      a4: 76 78                        	<unknown>
      a6: 5f 73 70 61                  	<unknown>
      aa: 77 6e 2e 63                  	<unknown>
      ae: 00 5f                        	<unknown>
      b0: 5f 66 69 6e                  	<unknown>
      b4: 69 5f                        	<unknown>
      b6: 61 72                        	<unknown>
      b8: 72 61                        	<unknown>
      ba: 79 5f                        	<unknown>
      bc: 65 6e                        	<unknown>
      be: 64 00                        	<unknown>
      c0: 5f 5f 66 69                  	<unknown>
      c4: 6e 69                        	<unknown>
      c6: 5f 61 72 72                  	<unknown>
      ca: 61 79                        	<unknown>
      cc: 5f 73 74 61                  	<unknown>
      d0: 72 74                        	<unknown>
      d2: 00 5f                        	<unknown>
      d4: 5f 69 6e 69                  	<unknown>
      d8: 74 5f                        	<unknown>
      da: 61 72                        	<unknown>
      dc: 72 61                        	<unknown>
      de: 79 5f                        	<unknown>
      e0: 65 6e                        	<unknown>
      e2: 64 00                        	<unknown>
      e4: 5f 5f 70 72                  	<unknown>
      e8: 65 69                        	<unknown>
      ea: 6e 69                        	<unknown>
      ec: 74 5f                        	<unknown>
      ee: 61 72                        	<unknown>
      f0: 72 61                        	<unknown>
      f2: 79 5f                        	<unknown>
      f4: 65 6e                        	<unknown>
      f6: 64 00                        	<unknown>
      f8: 5f 5f 69 6e                  	<unknown>
      fc: 69 74                        	<unknown>
      fe: 5f 61 72 72                  	<unknown>
     102: 61 79                        	<unknown>
     104: 5f 73 74 61                  	<unknown>
     108: 72 74                        	<unknown>
     10a: 00 5f                        	<unknown>
     10c: 5f 70 72 65                  	<unknown>
     110: 69 6e                        	<unknown>
     112: 69 74                        	<unknown>
     114: 5f 61 72 72                  	<unknown>
     118: 61 79                        	<unknown>
     11a: 5f 73 74 61                  	<unknown>
     11e: 72 74                        	<unknown>
     120: 00 5f                        	<unknown>
     122: 5f 67 6c 6f                  	<unknown>
     126: 62 61                        	<unknown>
     128: 6c 5f                        	<unknown>
     12a: 70 6f                        	<unknown>
     12c: 69 6e                        	<unknown>
     12e: 74 65                        	<unknown>
     130: 72 24                        	<unknown>
     132: 00 76                        	<unknown>
     134: 78 5f                        	<unknown>
     136: 63 6f 72 65                  	bltu	tp, s7, 1630
     13a: 5f 69 64 00                  	<unknown>
     13e: 76 78                        	<unknown>
     140: 5f 77 73 70                  	<unknown>
     144: 61 77                        	<unknown>
     146: 6e 00                        	<unknown>
     148: 5f 5f 64 69                  	<unknown>
     14c: 76 73                        	<unknown>
     14e: 66 33                        	<unknown>
     150: 00 76                        	<unknown>
     152: 78 5f                        	<unknown>
     154: 74 6d                        	<unknown>
     156: 63 00 5f 5f                  	beq	t5, s5, 1504
     15a: 53 44 41 54                  	<unknown>
     15e: 41 5f                        	<unknown>
     160: 42 45                        	<unknown>
     162: 47 49 4e 5f                  	<unknown>
     166: 5f 00 5f 70                  	<unknown>
     16a: 6f 63 6c 5f                  	jal	t1, 812534
     16e: 6b 65 72 6e                  	<unknown>
     172: 65 6c                        	<unknown>
     174: 5f 46 61 6e                  	<unknown>
     178: 31 5f                        	<unknown>
     17a: 77 6f 72 6b                  	<unknown>
     17e: 67 72 6f 75                  	<unknown>
     182: 70 00                        	<unknown>
     184: 76 78                        	<unknown>
     186: 5f 6a 6f 69                  	<unknown>
     18a: 6e 00                        	<unknown>
     18c: 76 78                        	<unknown>
     18e: 5f 6e 75 6d                  	<unknown>
     192: 5f 77 61 72                  	<unknown>
     196: 70 73                        	<unknown>
     198: 00 6b                        	<unknown>
     19a: 65 72                        	<unknown>
     19c: 6e 65                        	<unknown>
     19e: 6c 5f                        	<unknown>
     1a0: 73 70 61 77                  	csrci	1910, 2
     1a4: 6e 00                        	<unknown>
     1a6: 76 78                        	<unknown>
     1a8: 5f 73 70 6c                  	<unknown>
     1ac: 69 74                        	<unknown>
     1ae: 00 5f                        	<unknown>
     1b0: 67 6c 6f 62                  	<unknown>
     1b4: 61 6c                        	<unknown>
     1b6: 5f 69 6d 70                  	<unknown>
     1ba: 75 72                        	<unknown>
     1bc: 65 5f                        	<unknown>
     1be: 70 74                        	<unknown>
     1c0: 72 00                        	<unknown>
     1c2: 5f 5f 6c 69                  	<unknown>
     1c6: 62 63                        	<unknown>
     1c8: 5f 69 6e 69                  	<unknown>
     1cc: 74 5f                        	<unknown>
     1ce: 61 72                        	<unknown>
     1d0: 72 61                        	<unknown>
     1d2: 79 00                        	<unknown>
     1d4: 76 78                        	<unknown>
     1d6: 5f 6e 75 6d                  	<unknown>
     1da: 5f 74 68 72                  	<unknown>
     1de: 65 61                        	<unknown>
     1e0: 64 73                        	<unknown>
     1e2: 00 76                        	<unknown>
     1e4: 78 5f                        	<unknown>
     1e6: 77 61 72 70                  	<unknown>
     1ea: 5f 69 64 00                  	<unknown>
     1ee: 76 78                        	<unknown>
     1f0: 5f 74 68 72                  	<unknown>
     1f4: 65 61                        	<unknown>
     1f6: 64 5f                        	<unknown>
     1f8: 69 64                        	<unknown>
     1fa: 00 5f                        	<unknown>
     1fc: 5f 6c 69 62                  	<unknown>
     200: 63 5f 66 69                  	bge	a2, s6, 1694
     204: 6e 69                        	<unknown>
     206: 5f 61 72 72                  	<unknown>
     20a: 61 79                        	<unknown>
     20c: 00 67                        	<unknown>
     20e: 5f 73 70 61                  	<unknown>
     212: 77 6e 00 5f                  	<unknown>
     216: 70 6f                        	<unknown>
     218: 63 6c 5f 6b                  	bltu	t5, s5, 1720
     21c: 65 72                        	<unknown>
     21e: 6e 65                        	<unknown>
     220: 6c 5f                        	<unknown>
     222: 46 61                        	<unknown>
     224: 6e 31                        	<unknown>
     226: 00 76                        	<unknown>
     228: 78 5f                        	<unknown>
     22a: 73 65 74 5f                  	csrrsi	a0, 1527, 8
     22e: 73 70 00 5f                  	csrci	1520, 0
     232: 5f 63 6c 7a                  	<unknown>
     236: 73 69 32 00                  	csrrsi	s2, fcsr, 4
     23a: 76 78                        	<unknown>
     23c: 5f 62 61 72                  	<unknown>
     240: 72 69                        	<unknown>
     242: 65 72                        	<unknown>
     244: 00 5f                        	<unknown>
     246: 5f 63 61 6c                  	<unknown>
     24a: 6c 5f                        	<unknown>
     24c: 65 78                        	<unknown>
     24e: 69 74                        	<unknown>
     250: 70 72                        	<unknown>
     252: 6f 63 73 00                  	jal	t1, 223238
     256: 5f 5f 72 65                  	<unknown>
     25a: 67 69 73 74                  	<unknown>
     25e: 65 72                        	<unknown>
     260: 5f 65 78 69                  	<unknown>
     264: 74 70                        	<unknown>
     266: 72 6f                        	<unknown>
     268: 63 00 5f 5f                  	beq	t5, s5, 1504
     26c: 42 53                        	<unknown>
     26e: 53 5f 45 4e                  	<unknown>
     272: 44 5f                        	<unknown>
     274: 5f 00 5f 5f                  	<unknown>
     278: 62 73                        	<unknown>
     27a: 73 5f 73 74                  	csrrwi	t5, 1863, 6
     27e: 61 72                        	<unknown>
     280: 74 00                        	<unknown>
     282: 6d 65                        	<unknown>
     284: 6d 73                        	<unknown>
     286: 65 74                        	<unknown>
     288: 00 6d                        	<unknown>
     28a: 61 69                        	<unknown>
     28c: 6e 00                        	<unknown>
     28e: 76 78                        	<unknown>
     290: 5f 6e 75 6d                  	<unknown>
     294: 5f 63 79 63                  	<unknown>
     298: 6c 65                        	<unknown>
     29a: 73 00 5f 5f                  	<unknown>
     29e: 63 6c 7a 5f                  	bltu	s4, s7, 1528
     2a2: 74 61                        	<unknown>
     2a4: 62 00                        	<unknown>
     2a6: 61 74                        	<unknown>
     2a8: 65 78                        	<unknown>
     2aa: 69 74                        	<unknown>
     2ac: 00 76                        	<unknown>
     2ae: 78 5f                        	<unknown>
     2b0: 74 68                        	<unknown>
     2b2: 72 65                        	<unknown>
     2b4: 61 64                        	<unknown>
     2b6: 5f 67 69 64                  	<unknown>
     2ba: 00 76                        	<unknown>
     2bc: 78 5f                        	<unknown>
     2be: 6e 75                        	<unknown>
     2c0: 6d 5f                        	<unknown>
     2c2: 63 6f 72 65                  	bltu	tp, s7, 1630
     2c6: 73 00 76 78                  	<unknown>
     2ca: 5f 77 61 72                  	<unknown>
     2ce: 70 5f                        	<unknown>
     2d0: 67 69 64 00                  	<unknown>
     2d4: 5f 5f 44 41                  	<unknown>
     2d8: 54 41                        	<unknown>
     2da: 5f 42 45 47                  	<unknown>
     2de: 49 4e                        	<unknown>
     2e0: 5f 5f 00 5f                  	<unknown>
     2e4: 70 6f                        	<unknown>
     2e6: 63 6c 5f 6b                  	bltu	t5, s5, 1720
     2ea: 65 72                        	<unknown>
     2ec: 6e 65                        	<unknown>
     2ee: 6c 5f                        	<unknown>
     2f0: 46 61                        	<unknown>
     2f2: 6e 31                        	<unknown>
     2f4: 5f 77 6f 72                  	<unknown>
     2f8: 6b 67 72 6f                  	<unknown>
     2fc: 75 70                        	<unknown>
     2fe: 5f 66 61 73                  	<unknown>
     302: 74 00                        	<unknown>
     304: 5f 65 64 61                  	<unknown>
     308: 74 61                        	<unknown>
     30a: 00 6b                        	<unknown>
     30c: 65 72                        	<unknown>
     30e: 6e 65                        	<unknown>
     310: 6c 5f                        	<unknown>
     312: 73 70 61 77                  	csrci	1910, 2
     316: 6e 5f                        	<unknown>
     318: 72 75                        	<unknown>
     31a: 6e 6f                        	<unknown>
     31c: 6e 63                        	<unknown>
     31e: 65 00                        	<unknown>
     320: 5f 65 78 69                  	<unknown>
     324: 74 00                        	<unknown>
     326: 76 78                        	<unknown>
     328: 5f 6e 75 6d                  	<unknown>
     32c: 5f 69 6e 73                  	<unknown>
     330: 74 72                        	<unknown>
     332: 73                           	<unknown>
     333: 00                           	<unknown>

Disassembly of section .shstrtab:

00000000 .shstrtab:
       0: 00 2e                        	<unknown>
       2: 73 79 6d 74                  	csrrci	s2, 1862, 26
       6: 61 62                        	<unknown>
       8: 00 2e                        	<unknown>
       a: 73 74 72 74                  	csrrci	s0, 1863, 4
       e: 61 62                        	<unknown>
      10: 00 2e                        	<unknown>
      12: 73 68 73 74                  	csrrsi	a6, 1863, 6
      16: 72 74                        	<unknown>
      18: 61 62                        	<unknown>
      1a: 00 2e                        	<unknown>
      1c: 69 6e                        	<unknown>
      1e: 69 74                        	<unknown>
      20: 00 2e                        	<unknown>
      22: 74 65                        	<unknown>
      24: 78 74                        	<unknown>
      26: 00 2e                        	<unknown>
      28: 72 6f                        	<unknown>
      2a: 64 61                        	<unknown>
      2c: 74 61                        	<unknown>
      2e: 00 2e                        	<unknown>
      30: 69 6e                        	<unknown>
      32: 69 74                        	<unknown>
      34: 5f 61 72 72                  	<unknown>
      38: 61 79                        	<unknown>
      3a: 00 2e                        	<unknown>
      3c: 64 61                        	<unknown>
      3e: 74 61                        	<unknown>
      40: 00 2e                        	<unknown>
      42: 73 64 61 74                  	csrrsi	s0, 1862, 2
      46: 61 00                        	<unknown>
      48: 2e 73                        	<unknown>
      4a: 62 73                        	<unknown>
      4c: 73 00 2e 63                  	<unknown>
      50: 6f 6d 6d 65                  	jal	s10, 878166
      54: 6e 74                        	<unknown>
      56: 00 2e                        	<unknown>
      58: 72 69                        	<unknown>
      5a: 73 63 76 2e                  	csrrsi	t1, 743, 12
      5e: 61 74                        	<unknown>
      60: 74 72                        	<unknown>
      62: 69 62                        	<unknown>
      64: 75 74                        	<unknown>
      66: 65 73                        	<unknown>
      68: 00 2e                        	<unknown>
      6a: 64 65                        	<unknown>
      6c: 62 75                        	<unknown>
      6e: 67 5f 61 72                  	<unknown>
      72: 61 6e                        	<unknown>
      74: 67 65 73 00                  	<unknown>
      78: 2e 64                        	<unknown>
      7a: 65 62                        	<unknown>
      7c: 75 67                        	<unknown>
      7e: 5f 69 6e 66                  	<unknown>
      82: 6f 00 2e 64                  	j	919106
      86: 65 62                        	<unknown>
      88: 75 67                        	<unknown>
      8a: 5f 61 62 62                  	<unknown>
      8e: 72 65                        	<unknown>
      90: 76 00                        	<unknown>
      92: 2e 64                        	<unknown>
      94: 65 62                        	<unknown>
      96: 75 67                        	<unknown>
      98: 5f 6c 69 6e                  	<unknown>
      9c: 65 00                        	<unknown>
      9e: 2e 64                        	<unknown>
      a0: 65 62                        	<unknown>
      a2: 75 67                        	<unknown>
      a4: 5f 66 72 61                  	<unknown>
      a8: 6d 65                        	<unknown>
      aa: 00 2e                        	<unknown>
      ac: 64 65                        	<unknown>
      ae: 62 75                        	<unknown>
      b0: 67 5f 73 74                  	<unknown>
      b4: 72 00                        	<unknown>
      b6: 2e 64                        	<unknown>
      b8: 65 62                        	<unknown>
      ba: 75 67                        	<unknown>
      bc: 5f 6c 6f 63                  	<unknown>
      c0: 00 2e                        	<unknown>
      c2: 64 65                        	<unknown>
      c4: 62 75                        	<unknown>
      c6: 67 5f 72 61                  	<unknown>
      ca: 6e 67                        	<unknown>
      cc: 65 73                        	<unknown>
      ce: 00                           	<unknown>
