
rv32ui-p-add:     file format elf32-littleriscv


Disassembly of section .text.init:

80000000 <_start>:
80000000:	04c0006f          	j	8000004c <reset_vector>

80000004 <trap_vector>:
80000004:	34202f73          	csrr	t5,mcause
80000008:	00800f93          	li	t6,8
8000000c:	03ff0a63          	beq	t5,t6,80000040 <write_tohost>
80000010:	00900f93          	li	t6,9
80000014:	03ff0663          	beq	t5,t6,80000040 <write_tohost>
80000018:	00b00f93          	li	t6,11
8000001c:	03ff0263          	beq	t5,t6,80000040 <write_tohost>
80000020:	80000f17          	auipc	t5,0x80000
80000024:	fe0f0f13          	addi	t5,t5,-32 # 0 <_start-0x80000000>
80000028:	000f0463          	beqz	t5,80000030 <trap_vector+0x2c>
8000002c:	000f0067          	jr	t5
80000030:	34202f73          	csrr	t5,mcause
80000034:	000f5463          	bgez	t5,8000003c <handle_exception>
80000038:	0040006f          	j	8000003c <handle_exception>

8000003c <handle_exception>:
8000003c:	5391e193          	ori	gp,gp,1337

80000040 <write_tohost>:
80000040:	00001f17          	auipc	t5,0x1
80000044:	fc3f2023          	sw	gp,-64(t5) # 80001000 <tohost>
80000048:	ff9ff06f          	j	80000040 <write_tohost>

8000004c <reset_vector>:
8000004c:	f1402573          	csrr	a0,mhartid
80000050:	00051063          	bnez	a0,80000050 <reset_vector+0x4>
80000054:	00000297          	auipc	t0,0x0
80000058:	01028293          	addi	t0,t0,16 # 80000064 <reset_vector+0x18>
8000005c:	30529073          	csrw	mtvec,t0
80000060:	18005073          	csrwi	satp,0
80000064:	00000297          	auipc	t0,0x0
80000068:	02028293          	addi	t0,t0,32 # 80000084 <reset_vector+0x38>
8000006c:	30529073          	csrw	mtvec,t0
80000070:	800002b7          	lui	t0,0x80000
80000074:	fff28293          	addi	t0,t0,-1 # 7fffffff <_end+0xffffdfff>
80000078:	3b029073          	csrw	pmpaddr0,t0
8000007c:	01f00293          	li	t0,31
80000080:	3a029073          	csrw	pmpcfg0,t0
80000084:	00000297          	auipc	t0,0x0
80000088:	01828293          	addi	t0,t0,24 # 8000009c <reset_vector+0x50>
8000008c:	30529073          	csrw	mtvec,t0
80000090:	30205073          	csrwi	medeleg,0
80000094:	30305073          	csrwi	mideleg,0
80000098:	30405073          	csrwi	mie,0
8000009c:	00000193          	li	gp,0
800000a0:	00000297          	auipc	t0,0x0
800000a4:	f6428293          	addi	t0,t0,-156 # 80000004 <trap_vector>
800000a8:	30529073          	csrw	mtvec,t0
800000ac:	00100513          	li	a0,1
800000b0:	01f51513          	slli	a0,a0,0x1f
800000b4:	00054c63          	bltz	a0,800000cc <reset_vector+0x80>
800000b8:	0ff0000f          	fence
800000bc:	00100193          	li	gp,1
800000c0:	05d00893          	li	a7,93
800000c4:	00000513          	li	a0,0
800000c8:	00000073          	ecall
800000cc:	80000297          	auipc	t0,0x80000
800000d0:	f3428293          	addi	t0,t0,-204 # 0 <_start-0x80000000>
800000d4:	00028e63          	beqz	t0,800000f0 <reset_vector+0xa4>
800000d8:	10529073          	csrw	stvec,t0
800000dc:	0000b2b7          	lui	t0,0xb
800000e0:	10928293          	addi	t0,t0,265 # b109 <_start-0x7fff4ef7>
800000e4:	30229073          	csrw	medeleg,t0
800000e8:	30202373          	csrr	t1,medeleg
800000ec:	f46298e3          	bne	t0,t1,8000003c <handle_exception>
800000f0:	30005073          	csrwi	mstatus,0
800000f4:	00000297          	auipc	t0,0x0
800000f8:	01428293          	addi	t0,t0,20 # 80000108 <test_2>
800000fc:	34129073          	csrw	mepc,t0
80000100:	f1402573          	csrr	a0,mhartid
80000104:	30200073          	mret

80000108 <test_2>:
80000108:	00000093          	li	ra,0
8000010c:	00000113          	li	sp,0
80000110:	00208733          	add	a4,ra,sp
80000114:	00000e93          	li	t4,0
80000118:	00200193          	li	gp,2
8000011c:	4dd71663          	bne	a4,t4,800005e8 <fail>

80000120 <test_3>:
80000120:	00100093          	li	ra,1
80000124:	00100113          	li	sp,1
80000128:	00208733          	add	a4,ra,sp
8000012c:	00200e93          	li	t4,2
80000130:	00300193          	li	gp,3
80000134:	4bd71a63          	bne	a4,t4,800005e8 <fail>

80000138 <test_4>:
80000138:	00300093          	li	ra,3
8000013c:	00700113          	li	sp,7
80000140:	00208733          	add	a4,ra,sp
80000144:	00a00e93          	li	t4,10
80000148:	00400193          	li	gp,4
8000014c:	49d71e63          	bne	a4,t4,800005e8 <fail>

80000150 <test_5>:
80000150:	00000093          	li	ra,0
80000154:	ffff8137          	lui	sp,0xffff8
80000158:	00208733          	add	a4,ra,sp
8000015c:	ffff8eb7          	lui	t4,0xffff8
80000160:	00500193          	li	gp,5
80000164:	49d71263          	bne	a4,t4,800005e8 <fail>

80000168 <test_6>:
80000168:	800000b7          	lui	ra,0x80000
8000016c:	00000113          	li	sp,0
80000170:	00208733          	add	a4,ra,sp
80000174:	80000eb7          	lui	t4,0x80000
80000178:	00600193          	li	gp,6
8000017c:	47d71663          	bne	a4,t4,800005e8 <fail>

80000180 <test_7>:
80000180:	800000b7          	lui	ra,0x80000
80000184:	ffff8137          	lui	sp,0xffff8
80000188:	00208733          	add	a4,ra,sp
8000018c:	7fff8eb7          	lui	t4,0x7fff8
80000190:	00700193          	li	gp,7
80000194:	45d71a63          	bne	a4,t4,800005e8 <fail>

80000198 <test_8>:
80000198:	00000093          	li	ra,0
8000019c:	00008137          	lui	sp,0x8
800001a0:	fff10113          	addi	sp,sp,-1 # 7fff <_start-0x7fff8001>
800001a4:	00208733          	add	a4,ra,sp
800001a8:	00008eb7          	lui	t4,0x8
800001ac:	fffe8e93          	addi	t4,t4,-1 # 7fff <_start-0x7fff8001>
800001b0:	00800193          	li	gp,8
800001b4:	43d71a63          	bne	a4,t4,800005e8 <fail>

800001b8 <test_9>:
800001b8:	800000b7          	lui	ra,0x80000
800001bc:	fff08093          	addi	ra,ra,-1 # 7fffffff <_end+0xffffdfff>
800001c0:	00000113          	li	sp,0
800001c4:	00208733          	add	a4,ra,sp
800001c8:	80000eb7          	lui	t4,0x80000
800001cc:	fffe8e93          	addi	t4,t4,-1 # 7fffffff <_end+0xffffdfff>
800001d0:	00900193          	li	gp,9
800001d4:	41d71a63          	bne	a4,t4,800005e8 <fail>

800001d8 <test_10>:
800001d8:	800000b7          	lui	ra,0x80000
800001dc:	fff08093          	addi	ra,ra,-1 # 7fffffff <_end+0xffffdfff>
800001e0:	00008137          	lui	sp,0x8
800001e4:	fff10113          	addi	sp,sp,-1 # 7fff <_start-0x7fff8001>
800001e8:	00208733          	add	a4,ra,sp
800001ec:	80008eb7          	lui	t4,0x80008
800001f0:	ffee8e93          	addi	t4,t4,-2 # 80007ffe <_end+0x5ffe>
800001f4:	00a00193          	li	gp,10
800001f8:	3fd71863          	bne	a4,t4,800005e8 <fail>

800001fc <test_11>:
800001fc:	800000b7          	lui	ra,0x80000
80000200:	00008137          	lui	sp,0x8
80000204:	fff10113          	addi	sp,sp,-1 # 7fff <_start-0x7fff8001>
80000208:	00208733          	add	a4,ra,sp
8000020c:	80008eb7          	lui	t4,0x80008
80000210:	fffe8e93          	addi	t4,t4,-1 # 80007fff <_end+0x5fff>
80000214:	00b00193          	li	gp,11
80000218:	3dd71863          	bne	a4,t4,800005e8 <fail>

8000021c <test_12>:
8000021c:	800000b7          	lui	ra,0x80000
80000220:	fff08093          	addi	ra,ra,-1 # 7fffffff <_end+0xffffdfff>
80000224:	ffff8137          	lui	sp,0xffff8
80000228:	00208733          	add	a4,ra,sp
8000022c:	7fff8eb7          	lui	t4,0x7fff8
80000230:	fffe8e93          	addi	t4,t4,-1 # 7fff7fff <_start-0x8001>
80000234:	00c00193          	li	gp,12
80000238:	3bd71863          	bne	a4,t4,800005e8 <fail>

8000023c <test_13>:
8000023c:	00000093          	li	ra,0
80000240:	fff00113          	li	sp,-1
80000244:	00208733          	add	a4,ra,sp
80000248:	fff00e93          	li	t4,-1
8000024c:	00d00193          	li	gp,13
80000250:	39d71c63          	bne	a4,t4,800005e8 <fail>

80000254 <test_14>:
80000254:	fff00093          	li	ra,-1
80000258:	00100113          	li	sp,1
8000025c:	00208733          	add	a4,ra,sp
80000260:	00000e93          	li	t4,0
80000264:	00e00193          	li	gp,14
80000268:	39d71063          	bne	a4,t4,800005e8 <fail>

8000026c <test_15>:
8000026c:	fff00093          	li	ra,-1
80000270:	fff00113          	li	sp,-1
80000274:	00208733          	add	a4,ra,sp
80000278:	ffe00e93          	li	t4,-2
8000027c:	00f00193          	li	gp,15
80000280:	37d71463          	bne	a4,t4,800005e8 <fail>

80000284 <test_16>:
80000284:	00100093          	li	ra,1
80000288:	80000137          	lui	sp,0x80000
8000028c:	fff10113          	addi	sp,sp,-1 # 7fffffff <_end+0xffffdfff>
80000290:	00208733          	add	a4,ra,sp
80000294:	80000eb7          	lui	t4,0x80000
80000298:	01000193          	li	gp,16
8000029c:	35d71663          	bne	a4,t4,800005e8 <fail>

800002a0 <test_17>:
800002a0:	00d00093          	li	ra,13
800002a4:	00b00113          	li	sp,11
800002a8:	002080b3          	add	ra,ra,sp
800002ac:	01800e93          	li	t4,24
800002b0:	01100193          	li	gp,17
800002b4:	33d09a63          	bne	ra,t4,800005e8 <fail>

800002b8 <test_18>:
800002b8:	00e00093          	li	ra,14
800002bc:	00b00113          	li	sp,11
800002c0:	00208133          	add	sp,ra,sp
800002c4:	01900e93          	li	t4,25
800002c8:	01200193          	li	gp,18
800002cc:	31d11e63          	bne	sp,t4,800005e8 <fail>

800002d0 <test_19>:
800002d0:	00d00093          	li	ra,13
800002d4:	001080b3          	add	ra,ra,ra
800002d8:	01a00e93          	li	t4,26
800002dc:	01300193          	li	gp,19
800002e0:	31d09463          	bne	ra,t4,800005e8 <fail>

800002e4 <test_20>:
800002e4:	00000213          	li	tp,0
800002e8:	00d00093          	li	ra,13
800002ec:	00b00113          	li	sp,11
800002f0:	00208733          	add	a4,ra,sp
800002f4:	00070313          	mv	t1,a4
800002f8:	00120213          	addi	tp,tp,1 # 1 <_start-0x7fffffff>
800002fc:	00200293          	li	t0,2
80000300:	fe5214e3          	bne	tp,t0,800002e8 <test_20+0x4>
80000304:	01800e93          	li	t4,24
80000308:	01400193          	li	gp,20
8000030c:	2dd31e63          	bne	t1,t4,800005e8 <fail>

80000310 <test_21>:
80000310:	00000213          	li	tp,0
80000314:	00e00093          	li	ra,14
80000318:	00b00113          	li	sp,11
8000031c:	00208733          	add	a4,ra,sp
80000320:	00000013          	nop
80000324:	00070313          	mv	t1,a4
80000328:	00120213          	addi	tp,tp,1 # 1 <_start-0x7fffffff>
8000032c:	00200293          	li	t0,2
80000330:	fe5212e3          	bne	tp,t0,80000314 <test_21+0x4>
80000334:	01900e93          	li	t4,25
80000338:	01500193          	li	gp,21
8000033c:	2bd31663          	bne	t1,t4,800005e8 <fail>

80000340 <test_22>:
80000340:	00000213          	li	tp,0
80000344:	00f00093          	li	ra,15
80000348:	00b00113          	li	sp,11
8000034c:	00208733          	add	a4,ra,sp
80000350:	00000013          	nop
80000354:	00000013          	nop
80000358:	00070313          	mv	t1,a4
8000035c:	00120213          	addi	tp,tp,1 # 1 <_start-0x7fffffff>
80000360:	00200293          	li	t0,2
80000364:	fe5210e3          	bne	tp,t0,80000344 <test_22+0x4>
80000368:	01a00e93          	li	t4,26
8000036c:	01600193          	li	gp,22
80000370:	27d31c63          	bne	t1,t4,800005e8 <fail>

80000374 <test_23>:
80000374:	00000213          	li	tp,0
80000378:	00d00093          	li	ra,13
8000037c:	00b00113          	li	sp,11
80000380:	00208733          	add	a4,ra,sp
80000384:	00120213          	addi	tp,tp,1 # 1 <_start-0x7fffffff>
80000388:	00200293          	li	t0,2
8000038c:	fe5216e3          	bne	tp,t0,80000378 <test_23+0x4>
80000390:	01800e93          	li	t4,24
80000394:	01700193          	li	gp,23
80000398:	25d71863          	bne	a4,t4,800005e8 <fail>

8000039c <test_24>:
8000039c:	00000213          	li	tp,0
800003a0:	00e00093          	li	ra,14
800003a4:	00b00113          	li	sp,11
800003a8:	00000013          	nop
800003ac:	00208733          	add	a4,ra,sp
800003b0:	00120213          	addi	tp,tp,1 # 1 <_start-0x7fffffff>
800003b4:	00200293          	li	t0,2
800003b8:	fe5214e3          	bne	tp,t0,800003a0 <test_24+0x4>
800003bc:	01900e93          	li	t4,25
800003c0:	01800193          	li	gp,24
800003c4:	23d71263          	bne	a4,t4,800005e8 <fail>

800003c8 <test_25>:
800003c8:	00000213          	li	tp,0
800003cc:	00f00093          	li	ra,15
800003d0:	00b00113          	li	sp,11
800003d4:	00000013          	nop
800003d8:	00000013          	nop
800003dc:	00208733          	add	a4,ra,sp
800003e0:	00120213          	addi	tp,tp,1 # 1 <_start-0x7fffffff>
800003e4:	00200293          	li	t0,2
800003e8:	fe5212e3          	bne	tp,t0,800003cc <test_25+0x4>
800003ec:	01a00e93          	li	t4,26
800003f0:	01900193          	li	gp,25
800003f4:	1fd71a63          	bne	a4,t4,800005e8 <fail>

800003f8 <test_26>:
800003f8:	00000213          	li	tp,0
800003fc:	00d00093          	li	ra,13
80000400:	00000013          	nop
80000404:	00b00113          	li	sp,11
80000408:	00208733          	add	a4,ra,sp
8000040c:	00120213          	addi	tp,tp,1 # 1 <_start-0x7fffffff>
80000410:	00200293          	li	t0,2
80000414:	fe5214e3          	bne	tp,t0,800003fc <test_26+0x4>
80000418:	01800e93          	li	t4,24
8000041c:	01a00193          	li	gp,26
80000420:	1dd71463          	bne	a4,t4,800005e8 <fail>

80000424 <test_27>:
80000424:	00000213          	li	tp,0
80000428:	00e00093          	li	ra,14
8000042c:	00000013          	nop
80000430:	00b00113          	li	sp,11
80000434:	00000013          	nop
80000438:	00208733          	add	a4,ra,sp
8000043c:	00120213          	addi	tp,tp,1 # 1 <_start-0x7fffffff>
80000440:	00200293          	li	t0,2
80000444:	fe5212e3          	bne	tp,t0,80000428 <test_27+0x4>
80000448:	01900e93          	li	t4,25
8000044c:	01b00193          	li	gp,27
80000450:	19d71c63          	bne	a4,t4,800005e8 <fail>

80000454 <test_28>:
80000454:	00000213          	li	tp,0
80000458:	00f00093          	li	ra,15
8000045c:	00000013          	nop
80000460:	00000013          	nop
80000464:	00b00113          	li	sp,11
80000468:	00208733          	add	a4,ra,sp
8000046c:	00120213          	addi	tp,tp,1 # 1 <_start-0x7fffffff>
80000470:	00200293          	li	t0,2
80000474:	fe5212e3          	bne	tp,t0,80000458 <test_28+0x4>
80000478:	01a00e93          	li	t4,26
8000047c:	01c00193          	li	gp,28
80000480:	17d71463          	bne	a4,t4,800005e8 <fail>

80000484 <test_29>:
80000484:	00000213          	li	tp,0
80000488:	00b00113          	li	sp,11
8000048c:	00d00093          	li	ra,13
80000490:	00208733          	add	a4,ra,sp
80000494:	00120213          	addi	tp,tp,1 # 1 <_start-0x7fffffff>
80000498:	00200293          	li	t0,2
8000049c:	fe5216e3          	bne	tp,t0,80000488 <test_29+0x4>
800004a0:	01800e93          	li	t4,24
800004a4:	01d00193          	li	gp,29
800004a8:	15d71063          	bne	a4,t4,800005e8 <fail>

800004ac <test_30>:
800004ac:	00000213          	li	tp,0
800004b0:	00b00113          	li	sp,11
800004b4:	00e00093          	li	ra,14
800004b8:	00000013          	nop
800004bc:	00208733          	add	a4,ra,sp
800004c0:	00120213          	addi	tp,tp,1 # 1 <_start-0x7fffffff>
800004c4:	00200293          	li	t0,2
800004c8:	fe5214e3          	bne	tp,t0,800004b0 <test_30+0x4>
800004cc:	01900e93          	li	t4,25
800004d0:	01e00193          	li	gp,30
800004d4:	11d71a63          	bne	a4,t4,800005e8 <fail>

800004d8 <test_31>:
800004d8:	00000213          	li	tp,0
800004dc:	00b00113          	li	sp,11
800004e0:	00f00093          	li	ra,15
800004e4:	00000013          	nop
800004e8:	00000013          	nop
800004ec:	00208733          	add	a4,ra,sp
800004f0:	00120213          	addi	tp,tp,1 # 1 <_start-0x7fffffff>
800004f4:	00200293          	li	t0,2
800004f8:	fe5212e3          	bne	tp,t0,800004dc <test_31+0x4>
800004fc:	01a00e93          	li	t4,26
80000500:	01f00193          	li	gp,31
80000504:	0fd71263          	bne	a4,t4,800005e8 <fail>

80000508 <test_32>:
80000508:	00000213          	li	tp,0
8000050c:	00b00113          	li	sp,11
80000510:	00000013          	nop
80000514:	00d00093          	li	ra,13
80000518:	00208733          	add	a4,ra,sp
8000051c:	00120213          	addi	tp,tp,1 # 1 <_start-0x7fffffff>
80000520:	00200293          	li	t0,2
80000524:	fe5214e3          	bne	tp,t0,8000050c <test_32+0x4>
80000528:	01800e93          	li	t4,24
8000052c:	02000193          	li	gp,32
80000530:	0bd71c63          	bne	a4,t4,800005e8 <fail>

80000534 <test_33>:
80000534:	00000213          	li	tp,0
80000538:	00b00113          	li	sp,11
8000053c:	00000013          	nop
80000540:	00e00093          	li	ra,14
80000544:	00000013          	nop
80000548:	00208733          	add	a4,ra,sp
8000054c:	00120213          	addi	tp,tp,1 # 1 <_start-0x7fffffff>
80000550:	00200293          	li	t0,2
80000554:	fe5212e3          	bne	tp,t0,80000538 <test_33+0x4>
80000558:	01900e93          	li	t4,25
8000055c:	02100193          	li	gp,33
80000560:	09d71463          	bne	a4,t4,800005e8 <fail>

80000564 <test_34>:
80000564:	00000213          	li	tp,0
80000568:	00b00113          	li	sp,11
8000056c:	00000013          	nop
80000570:	00000013          	nop
80000574:	00f00093          	li	ra,15
80000578:	00208733          	add	a4,ra,sp
8000057c:	00120213          	addi	tp,tp,1 # 1 <_start-0x7fffffff>
80000580:	00200293          	li	t0,2
80000584:	fe5212e3          	bne	tp,t0,80000568 <test_34+0x4>
80000588:	01a00e93          	li	t4,26
8000058c:	02200193          	li	gp,34
80000590:	05d71c63          	bne	a4,t4,800005e8 <fail>

80000594 <test_35>:
80000594:	00f00093          	li	ra,15
80000598:	00100133          	add	sp,zero,ra
8000059c:	00f00e93          	li	t4,15
800005a0:	02300193          	li	gp,35
800005a4:	05d11263          	bne	sp,t4,800005e8 <fail>

800005a8 <test_36>:
800005a8:	02000093          	li	ra,32
800005ac:	00008133          	add	sp,ra,zero
800005b0:	02000e93          	li	t4,32
800005b4:	02400193          	li	gp,36
800005b8:	03d11863          	bne	sp,t4,800005e8 <fail>

800005bc <test_37>:
800005bc:	000000b3          	add	ra,zero,zero
800005c0:	00000e93          	li	t4,0
800005c4:	02500193          	li	gp,37
800005c8:	03d09063          	bne	ra,t4,800005e8 <fail>

800005cc <test_38>:
800005cc:	01000093          	li	ra,16
800005d0:	01e00113          	li	sp,30
800005d4:	00208033          	add	zero,ra,sp
800005d8:	00000e93          	li	t4,0
800005dc:	02600193          	li	gp,38
800005e0:	01d01463          	bne	zero,t4,800005e8 <fail>
800005e4:	02301063          	bne	zero,gp,80000604 <pass>

800005e8 <fail>:
800005e8:	0ff0000f          	fence
800005ec:	00018063          	beqz	gp,800005ec <fail+0x4>
800005f0:	00119193          	slli	gp,gp,0x1
800005f4:	0011e193          	ori	gp,gp,1
800005f8:	05d00893          	li	a7,93
800005fc:	00018513          	mv	a0,gp
80000600:	00000073          	ecall

80000604 <pass>:
80000604:	0ff0000f          	fence
80000608:	00100193          	li	gp,1
8000060c:	05d00893          	li	a7,93
80000610:	00000513          	li	a0,0
80000614:	00000073          	ecall
80000618:	c0001073          	unimp
8000061c:	0000                	unimp
8000061e:	0000                	unimp
80000620:	0000                	unimp
80000622:	0000                	unimp
80000624:	0000                	unimp
80000626:	0000                	unimp
80000628:	0000                	unimp
8000062a:	0000                	unimp
8000062c:	0000                	unimp
8000062e:	0000                	unimp
80000630:	0000                	unimp
80000632:	0000                	unimp
80000634:	0000                	unimp
80000636:	0000                	unimp
80000638:	0000                	unimp
8000063a:	0000                	unimp
8000063c:	0000                	unimp
8000063e:	0000                	unimp
80000640:	0000                	unimp
80000642:	0000                	unimp
