
vx_vector_main.elf:     file format elf32-littleriscv


Disassembly of section .init:

80000000 <_start>:
80000000:	00000597          	auipc	a1,0x0
80000004:	07458593          	addi	a1,a1,116 # 80000074 <vx_set_sp>
80000008:	00400513          	li	a0,4
8000000c:	00b5106b          	0xb5106b
80000010:	064000ef          	jal	ra,80000074 <vx_set_sp>
80000014:	00100513          	li	a0,1
80000018:	0005006b          	0x5006b
8000001c:	00002517          	auipc	a0,0x2
80000020:	da450513          	addi	a0,a0,-604 # 80001dc0 <_edata>
80000024:	00002617          	auipc	a2,0x2
80000028:	da060613          	addi	a2,a2,-608 # 80001dc4 <__BSS_END__>
8000002c:	40a60633          	sub	a2,a2,a0
80000030:	00000593          	li	a1,0
80000034:	6c0000ef          	jal	ra,800006f4 <memset>
80000038:	00000517          	auipc	a0,0x0
8000003c:	5c050513          	addi	a0,a0,1472 # 800005f8 <__libc_fini_array>
80000040:	574000ef          	jal	ra,800005b4 <atexit>
80000044:	614000ef          	jal	ra,80000658 <__libc_init_array>
80000048:	00400513          	li	a0,4
8000004c:	0005006b          	0x5006b
80000050:	530000ef          	jal	ra,80000580 <main>
80000054:	5740006f          	j	800005c8 <exit>

Disassembly of section .text:

80000058 <register_fini>:
80000058:	000007b7          	lui	a5,0x0
8000005c:	00078793          	mv	a5,a5
80000060:	00078863          	beqz	a5,80000070 <register_fini+0x18>
80000064:	80000537          	lui	a0,0x80000
80000068:	5f850513          	addi	a0,a0,1528 # 800005f8 <__global_pointer$+0xffffe470>
8000006c:	5480006f          	j	800005b4 <atexit>
80000070:	00008067          	ret

80000074 <vx_set_sp>:
80000074:	00400513          	li	a0,4
80000078:	0005006b          	0x5006b
8000007c:	00002197          	auipc	gp,0x2
80000080:	10c18193          	addi	gp,gp,268 # 80002188 <__global_pointer$>
80000084:	021026f3          	csrr	a3,0x21
80000088:	01a69693          	slli	a3,a3,0x1a
8000008c:	02002673          	csrr	a2,0x20
80000090:	00a61593          	slli	a1,a2,0xa
80000094:	00261613          	slli	a2,a2,0x2
80000098:	6ffff137          	lui	sp,0x6ffff
8000009c:	40b10133          	sub	sp,sp,a1
800000a0:	40d10133          	sub	sp,sp,a3
800000a4:	00c10133          	add	sp,sp,a2
800000a8:	021026f3          	csrr	a3,0x21
800000ac:	00068663          	beqz	a3,800000b8 <RETURN>
800000b0:	00000513          	li	a0,0
800000b4:	0005006b          	0x5006b

800000b8 <RETURN>:
800000b8:	00008067          	ret

800000bc <vx_vec_test>:
800000bc:	008072d7          	vsetvli	t0,zero,e32,m1,d1
800000c0:	02000057          	vadd.vv	v0,v0,v0
800000c4:	00008067          	ret

800000c8 <upload>:
800000c8:	fd010113          	addi	sp,sp,-48 # 6fffefd0 <_start-0x10001030>
800000cc:	02812623          	sw	s0,44(sp)
800000d0:	03010413          	addi	s0,sp,48
800000d4:	fca42e23          	sw	a0,-36(s0)
800000d8:	fcb42c23          	sw	a1,-40(s0)
800000dc:	fcc42a23          	sw	a2,-44(s0)
800000e0:	fdc42783          	lw	a5,-36(s0)
800000e4:	0007a783          	lw	a5,0(a5) # 0 <_start-0x80000000>
800000e8:	fef42623          	sw	a5,-20(s0)
800000ec:	fd442783          	lw	a5,-44(s0)
800000f0:	fef42223          	sw	a5,-28(s0)
800000f4:	fe442783          	lw	a5,-28(s0)
800000f8:	0007c703          	lbu	a4,0(a5)
800000fc:	fec42783          	lw	a5,-20(s0)
80000100:	00e78023          	sb	a4,0(a5)
80000104:	fec42783          	lw	a5,-20(s0)
80000108:	00178793          	addi	a5,a5,1
8000010c:	fe442703          	lw	a4,-28(s0)
80000110:	00174703          	lbu	a4,1(a4)
80000114:	00e78023          	sb	a4,0(a5)
80000118:	fec42783          	lw	a5,-20(s0)
8000011c:	00278793          	addi	a5,a5,2
80000120:	fe442703          	lw	a4,-28(s0)
80000124:	00274703          	lbu	a4,2(a4)
80000128:	00e78023          	sb	a4,0(a5)
8000012c:	fec42783          	lw	a5,-20(s0)
80000130:	00378793          	addi	a5,a5,3
80000134:	fe442703          	lw	a4,-28(s0)
80000138:	00374703          	lbu	a4,3(a4)
8000013c:	00e78023          	sb	a4,0(a5)
80000140:	fec42783          	lw	a5,-20(s0)
80000144:	00478793          	addi	a5,a5,4
80000148:	fef42623          	sw	a5,-20(s0)
8000014c:	fe042423          	sw	zero,-24(s0)
80000150:	0340006f          	j	80000184 <upload+0xbc>
80000154:	fe842783          	lw	a5,-24(s0)
80000158:	fd842703          	lw	a4,-40(s0)
8000015c:	00f707b3          	add	a5,a4,a5
80000160:	0007c703          	lbu	a4,0(a5)
80000164:	fec42783          	lw	a5,-20(s0)
80000168:	00e78023          	sb	a4,0(a5)
8000016c:	fec42783          	lw	a5,-20(s0)
80000170:	00178793          	addi	a5,a5,1
80000174:	fef42623          	sw	a5,-20(s0)
80000178:	fe842783          	lw	a5,-24(s0)
8000017c:	00178793          	addi	a5,a5,1
80000180:	fef42423          	sw	a5,-24(s0)
80000184:	fe842703          	lw	a4,-24(s0)
80000188:	fd442783          	lw	a5,-44(s0)
8000018c:	fcf744e3          	blt	a4,a5,80000154 <upload+0x8c>
80000190:	fdc42783          	lw	a5,-36(s0)
80000194:	fec42703          	lw	a4,-20(s0)
80000198:	00e7a023          	sw	a4,0(a5)
8000019c:	00000013          	nop
800001a0:	02c12403          	lw	s0,44(sp)
800001a4:	03010113          	addi	sp,sp,48
800001a8:	00008067          	ret

800001ac <download>:
800001ac:	fd010113          	addi	sp,sp,-48
800001b0:	02812623          	sw	s0,44(sp)
800001b4:	03010413          	addi	s0,sp,48
800001b8:	fca42e23          	sw	a0,-36(s0)
800001bc:	fcb42c23          	sw	a1,-40(s0)
800001c0:	fdc42783          	lw	a5,-36(s0)
800001c4:	0007a783          	lw	a5,0(a5)
800001c8:	fef42623          	sw	a5,-20(s0)
800001cc:	fe442783          	lw	a5,-28(s0)
800001d0:	fef42023          	sw	a5,-32(s0)
800001d4:	fec42783          	lw	a5,-20(s0)
800001d8:	0007c703          	lbu	a4,0(a5)
800001dc:	fe042783          	lw	a5,-32(s0)
800001e0:	00e78023          	sb	a4,0(a5)
800001e4:	fe042783          	lw	a5,-32(s0)
800001e8:	00178793          	addi	a5,a5,1
800001ec:	fec42703          	lw	a4,-20(s0)
800001f0:	00174703          	lbu	a4,1(a4)
800001f4:	00e78023          	sb	a4,0(a5)
800001f8:	fe042783          	lw	a5,-32(s0)
800001fc:	00278793          	addi	a5,a5,2
80000200:	fec42703          	lw	a4,-20(s0)
80000204:	00274703          	lbu	a4,2(a4)
80000208:	00e78023          	sb	a4,0(a5)
8000020c:	fe042783          	lw	a5,-32(s0)
80000210:	00378793          	addi	a5,a5,3
80000214:	fec42703          	lw	a4,-20(s0)
80000218:	00374703          	lbu	a4,3(a4)
8000021c:	00e78023          	sb	a4,0(a5)
80000220:	fec42783          	lw	a5,-20(s0)
80000224:	00478793          	addi	a5,a5,4
80000228:	fef42623          	sw	a5,-20(s0)
8000022c:	fe042423          	sw	zero,-24(s0)
80000230:	0340006f          	j	80000264 <download+0xb8>
80000234:	fe842783          	lw	a5,-24(s0)
80000238:	fd842703          	lw	a4,-40(s0)
8000023c:	00f707b3          	add	a5,a4,a5
80000240:	fec42703          	lw	a4,-20(s0)
80000244:	00074703          	lbu	a4,0(a4)
80000248:	00e78023          	sb	a4,0(a5)
8000024c:	fec42783          	lw	a5,-20(s0)
80000250:	00178793          	addi	a5,a5,1
80000254:	fef42623          	sw	a5,-20(s0)
80000258:	fe842783          	lw	a5,-24(s0)
8000025c:	00178793          	addi	a5,a5,1
80000260:	fef42423          	sw	a5,-24(s0)
80000264:	fe842703          	lw	a4,-24(s0)
80000268:	fe442783          	lw	a5,-28(s0)
8000026c:	fcf744e3          	blt	a4,a5,80000234 <download+0x88>
80000270:	fdc42783          	lw	a5,-36(s0)
80000274:	fec42703          	lw	a4,-20(s0)
80000278:	00e7a023          	sw	a4,0(a5)
8000027c:	00000013          	nop
80000280:	02c12403          	lw	s0,44(sp)
80000284:	03010113          	addi	sp,sp,48
80000288:	00008067          	ret

8000028c <_close>:
8000028c:	ff010113          	addi	sp,sp,-16
80000290:	00812623          	sw	s0,12(sp)
80000294:	01010413          	addi	s0,sp,16
80000298:	00000013          	nop
8000029c:	00c12403          	lw	s0,12(sp)
800002a0:	01010113          	addi	sp,sp,16
800002a4:	00008067          	ret

800002a8 <_fstat>:
800002a8:	fe010113          	addi	sp,sp,-32
800002ac:	00812e23          	sw	s0,28(sp)
800002b0:	02010413          	addi	s0,sp,32
800002b4:	fea42623          	sw	a0,-20(s0)
800002b8:	feb42423          	sw	a1,-24(s0)
800002bc:	fe842783          	lw	a5,-24(s0)
800002c0:	00002737          	lui	a4,0x2
800002c4:	00e7a223          	sw	a4,4(a5)
800002c8:	00000793          	li	a5,0
800002cc:	00078513          	mv	a0,a5
800002d0:	01c12403          	lw	s0,28(sp)
800002d4:	02010113          	addi	sp,sp,32
800002d8:	00008067          	ret

800002dc <_isatty>:
800002dc:	fe010113          	addi	sp,sp,-32
800002e0:	00812e23          	sw	s0,28(sp)
800002e4:	02010413          	addi	s0,sp,32
800002e8:	fea42623          	sw	a0,-20(s0)
800002ec:	00100793          	li	a5,1
800002f0:	00078513          	mv	a0,a5
800002f4:	01c12403          	lw	s0,28(sp)
800002f8:	02010113          	addi	sp,sp,32
800002fc:	00008067          	ret

80000300 <_lseek>:
80000300:	ff010113          	addi	sp,sp,-16
80000304:	00812623          	sw	s0,12(sp)
80000308:	01010413          	addi	s0,sp,16
8000030c:	00000013          	nop
80000310:	00c12403          	lw	s0,12(sp)
80000314:	01010113          	addi	sp,sp,16
80000318:	00008067          	ret

8000031c <_read>:
8000031c:	ff010113          	addi	sp,sp,-16
80000320:	00812623          	sw	s0,12(sp)
80000324:	01010413          	addi	s0,sp,16
80000328:	00000013          	nop
8000032c:	00c12403          	lw	s0,12(sp)
80000330:	01010113          	addi	sp,sp,16
80000334:	00008067          	ret

80000338 <_write>:
80000338:	fd010113          	addi	sp,sp,-48
8000033c:	02812623          	sw	s0,44(sp)
80000340:	03010413          	addi	s0,sp,48
80000344:	fca42e23          	sw	a0,-36(s0)
80000348:	fcb42c23          	sw	a1,-40(s0)
8000034c:	fcc42a23          	sw	a2,-44(s0)
80000350:	000107b7          	lui	a5,0x10
80000354:	fef42423          	sw	a5,-24(s0)
80000358:	fe042623          	sw	zero,-20(s0)
8000035c:	02c0006f          	j	80000388 <_write+0x50>
80000360:	fec42783          	lw	a5,-20(s0)
80000364:	fd842703          	lw	a4,-40(s0)
80000368:	00f707b3          	add	a5,a4,a5
8000036c:	0007c783          	lbu	a5,0(a5) # 10000 <_start-0x7fff0000>
80000370:	00078713          	mv	a4,a5
80000374:	fe842783          	lw	a5,-24(s0)
80000378:	00e7a023          	sw	a4,0(a5)
8000037c:	fec42783          	lw	a5,-20(s0)
80000380:	00178793          	addi	a5,a5,1
80000384:	fef42623          	sw	a5,-20(s0)
80000388:	fec42703          	lw	a4,-20(s0)
8000038c:	fd442783          	lw	a5,-44(s0)
80000390:	fcf748e3          	blt	a4,a5,80000360 <_write+0x28>
80000394:	fd442783          	lw	a5,-44(s0)
80000398:	00078513          	mv	a0,a5
8000039c:	02c12403          	lw	s0,44(sp)
800003a0:	03010113          	addi	sp,sp,48
800003a4:	00008067          	ret

800003a8 <_sbrk>:
800003a8:	fd010113          	addi	sp,sp,-48
800003ac:	02812623          	sw	s0,44(sp)
800003b0:	03010413          	addi	s0,sp,48
800003b4:	fca42e23          	sw	a0,-36(s0)
800003b8:	fdc42783          	lw	a5,-36(s0)
800003bc:	0007d863          	bgez	a5,800003cc <_sbrk+0x24>
800003c0:	fdc42783          	lw	a5,-36(s0)
800003c4:	40f007b3          	neg	a5,a5
800003c8:	fcf42e23          	sw	a5,-36(s0)
800003cc:	fdc42703          	lw	a4,-36(s0)
800003d0:	000037b7          	lui	a5,0x3
800003d4:	80078793          	addi	a5,a5,-2048 # 2800 <_start-0x7fffd800>
800003d8:	00e7d863          	bge	a5,a4,800003e8 <_sbrk+0x40>
800003dc:	000037b7          	lui	a5,0x3
800003e0:	80078793          	addi	a5,a5,-2048 # 2800 <_start-0x7fffd800>
800003e4:	fcf42e23          	sw	a5,-36(s0)
800003e8:	c301a783          	lw	a5,-976(gp) # 80001db8 <heap_start>
800003ec:	fef42623          	sw	a5,-20(s0)
800003f0:	c301a703          	lw	a4,-976(gp) # 80001db8 <heap_start>
800003f4:	fdc42783          	lw	a5,-36(s0)
800003f8:	00f70733          	add	a4,a4,a5
800003fc:	c2e1a823          	sw	a4,-976(gp) # 80001db8 <heap_start>
80000400:	fec42783          	lw	a5,-20(s0)
80000404:	00078513          	mv	a0,a5
80000408:	02c12403          	lw	s0,44(sp)
8000040c:	03010113          	addi	sp,sp,48
80000410:	00008067          	ret

80000414 <_exit>:
80000414:	fe010113          	addi	sp,sp,-32
80000418:	00112e23          	sw	ra,28(sp)
8000041c:	00812c23          	sw	s0,24(sp)
80000420:	02010413          	addi	s0,sp,32
80000424:	fea42623          	sw	a0,-20(s0)
80000428:	00000513          	li	a0,0
8000042c:	0e4000ef          	jal	ra,80000510 <vx_tmc>
80000430:	00000013          	nop
80000434:	01c12083          	lw	ra,28(sp)
80000438:	01812403          	lw	s0,24(sp)
8000043c:	02010113          	addi	sp,sp,32
80000440:	00008067          	ret

80000444 <_open>:
80000444:	ff010113          	addi	sp,sp,-16
80000448:	00812623          	sw	s0,12(sp)
8000044c:	01010413          	addi	s0,sp,16
80000450:	00000013          	nop
80000454:	00c12403          	lw	s0,12(sp)
80000458:	01010113          	addi	sp,sp,16
8000045c:	00008067          	ret

80000460 <_kill>:
80000460:	ff010113          	addi	sp,sp,-16
80000464:	00812623          	sw	s0,12(sp)
80000468:	01010413          	addi	s0,sp,16
8000046c:	00000013          	nop
80000470:	00c12403          	lw	s0,12(sp)
80000474:	01010113          	addi	sp,sp,16
80000478:	00008067          	ret

8000047c <_getpid>:
8000047c:	ff010113          	addi	sp,sp,-16
80000480:	00112623          	sw	ra,12(sp)
80000484:	00812423          	sw	s0,8(sp)
80000488:	01010413          	addi	s0,sp,16
8000048c:	0ac000ef          	jal	ra,80000538 <vx_threadID>
80000490:	00050793          	mv	a5,a0
80000494:	00078513          	mv	a0,a5
80000498:	00c12083          	lw	ra,12(sp)
8000049c:	00812403          	lw	s0,8(sp)
800004a0:	01010113          	addi	sp,sp,16
800004a4:	00008067          	ret

800004a8 <_unlink>:
800004a8:	ff010113          	addi	sp,sp,-16
800004ac:	00812623          	sw	s0,12(sp)
800004b0:	01010413          	addi	s0,sp,16
800004b4:	00000013          	nop
800004b8:	00c12403          	lw	s0,12(sp)
800004bc:	01010113          	addi	sp,sp,16
800004c0:	00008067          	ret

800004c4 <_gettimeofday>:
800004c4:	ff010113          	addi	sp,sp,-16
800004c8:	00812623          	sw	s0,12(sp)
800004cc:	01010413          	addi	s0,sp,16
800004d0:	c381a783          	lw	a5,-968(gp) # 80001dc0 <_edata>
800004d4:	00178693          	addi	a3,a5,1
800004d8:	c2d1ac23          	sw	a3,-968(gp) # 80001dc0 <_edata>
800004dc:	00078513          	mv	a0,a5
800004e0:	00c12403          	lw	s0,12(sp)
800004e4:	01010113          	addi	sp,sp,16
800004e8:	00008067          	ret

800004ec <_link>:
800004ec:	ff010113          	addi	sp,sp,-16
800004f0:	00812623          	sw	s0,12(sp)
800004f4:	01010413          	addi	s0,sp,16
800004f8:	00000013          	nop
800004fc:	00c12403          	lw	s0,12(sp)
80000500:	01010113          	addi	sp,sp,16
80000504:	00008067          	ret

80000508 <vx_wspawn>:
80000508:	00b5106b          	0xb5106b
8000050c:	00008067          	ret

80000510 <vx_tmc>:
80000510:	0005006b          	0x5006b
80000514:	00008067          	ret

80000518 <vx_barrier>:
80000518:	00b5406b          	0xb5406b
8000051c:	00008067          	ret

80000520 <vx_split>:
80000520:	0005206b          	0x5206b
80000524:	00008067          	ret

80000528 <vx_join>:
80000528:	0000306b          	0x306b
8000052c:	00008067          	ret

80000530 <vx_warpID>:
80000530:	02102573          	csrr	a0,0x21
80000534:	00008067          	ret

80000538 <vx_threadID>:
80000538:	02002573          	csrr	a0,0x20
8000053c:	00008067          	ret

80000540 <vx_resetStack>:
80000540:	00400513          	li	a0,4
80000544:	0005006b          	0x5006b
80000548:	021026f3          	csrr	a3,0x21
8000054c:	00f69693          	slli	a3,a3,0xf
80000550:	02002673          	csrr	a2,0x20
80000554:	00a61593          	slli	a1,a2,0xa
80000558:	00261613          	slli	a2,a2,0x2
8000055c:	6ffff137          	lui	sp,0x6ffff
80000560:	40b10133          	sub	sp,sp,a1
80000564:	40d10133          	sub	sp,sp,a3
80000568:	00c10133          	add	sp,sp,a2
8000056c:	021026f3          	csrr	a3,0x21
80000570:	00068663          	beqz	a3,8000057c <RETURN>
80000574:	00000513          	li	a0,0
80000578:	0005006b          	0x5006b

8000057c <RETURN>:
8000057c:	00008067          	ret

80000580 <main>:
80000580:	ff010113          	addi	sp,sp,-16 # 6fffeff0 <_start-0x10001010>
80000584:	00112623          	sw	ra,12(sp)
80000588:	00812423          	sw	s0,8(sp)
8000058c:	01010413          	addi	s0,sp,16
80000590:	00100513          	li	a0,1
80000594:	f7dff0ef          	jal	ra,80000510 <vx_tmc>
80000598:	b25ff0ef          	jal	ra,800000bc <vx_vec_test>
8000059c:	00000013          	nop
800005a0:	00078513          	mv	a0,a5
800005a4:	00c12083          	lw	ra,12(sp)
800005a8:	00812403          	lw	s0,8(sp)
800005ac:	01010113          	addi	sp,sp,16
800005b0:	00008067          	ret

800005b4 <atexit>:
800005b4:	00050593          	mv	a1,a0
800005b8:	00000693          	li	a3,0
800005bc:	00000613          	li	a2,0
800005c0:	00000513          	li	a0,0
800005c4:	20c0006f          	j	800007d0 <__register_exitproc>

800005c8 <exit>:
800005c8:	ff010113          	addi	sp,sp,-16
800005cc:	00000593          	li	a1,0
800005d0:	00812423          	sw	s0,8(sp)
800005d4:	00112623          	sw	ra,12(sp)
800005d8:	00050413          	mv	s0,a0
800005dc:	28c000ef          	jal	ra,80000868 <__call_exitprocs>
800005e0:	c281a503          	lw	a0,-984(gp) # 80001db0 <_global_impure_ptr>
800005e4:	03c52783          	lw	a5,60(a0)
800005e8:	00078463          	beqz	a5,800005f0 <exit+0x28>
800005ec:	000780e7          	jalr	a5
800005f0:	00040513          	mv	a0,s0
800005f4:	e21ff0ef          	jal	ra,80000414 <_exit>

800005f8 <__libc_fini_array>:
800005f8:	ff010113          	addi	sp,sp,-16
800005fc:	00812423          	sw	s0,8(sp)
80000600:	00912223          	sw	s1,4(sp)
80000604:	80002437          	lui	s0,0x80002
80000608:	800024b7          	lui	s1,0x80002
8000060c:	98448793          	addi	a5,s1,-1660 # 80001984 <__global_pointer$+0xfffff7fc>
80000610:	98440413          	addi	s0,s0,-1660 # 80001984 <__global_pointer$+0xfffff7fc>
80000614:	40f40433          	sub	s0,s0,a5
80000618:	00112623          	sw	ra,12(sp)
8000061c:	40245413          	srai	s0,s0,0x2
80000620:	02040263          	beqz	s0,80000644 <__libc_fini_array+0x4c>
80000624:	00241493          	slli	s1,s0,0x2
80000628:	ffc48493          	addi	s1,s1,-4
8000062c:	00f484b3          	add	s1,s1,a5
80000630:	0004a783          	lw	a5,0(s1)
80000634:	fff40413          	addi	s0,s0,-1
80000638:	ffc48493          	addi	s1,s1,-4
8000063c:	000780e7          	jalr	a5
80000640:	fe0418e3          	bnez	s0,80000630 <__libc_fini_array+0x38>
80000644:	00c12083          	lw	ra,12(sp)
80000648:	00812403          	lw	s0,8(sp)
8000064c:	00412483          	lw	s1,4(sp)
80000650:	01010113          	addi	sp,sp,16
80000654:	00008067          	ret

80000658 <__libc_init_array>:
80000658:	ff010113          	addi	sp,sp,-16
8000065c:	00812423          	sw	s0,8(sp)
80000660:	01212023          	sw	s2,0(sp)
80000664:	80002437          	lui	s0,0x80002
80000668:	80002937          	lui	s2,0x80002
8000066c:	98040793          	addi	a5,s0,-1664 # 80001980 <__global_pointer$+0xfffff7f8>
80000670:	98090913          	addi	s2,s2,-1664 # 80001980 <__global_pointer$+0xfffff7f8>
80000674:	40f90933          	sub	s2,s2,a5
80000678:	00112623          	sw	ra,12(sp)
8000067c:	00912223          	sw	s1,4(sp)
80000680:	40295913          	srai	s2,s2,0x2
80000684:	02090063          	beqz	s2,800006a4 <__libc_init_array+0x4c>
80000688:	98040413          	addi	s0,s0,-1664
8000068c:	00000493          	li	s1,0
80000690:	00042783          	lw	a5,0(s0)
80000694:	00148493          	addi	s1,s1,1
80000698:	00440413          	addi	s0,s0,4
8000069c:	000780e7          	jalr	a5
800006a0:	fe9918e3          	bne	s2,s1,80000690 <__libc_init_array+0x38>
800006a4:	80002437          	lui	s0,0x80002
800006a8:	80002937          	lui	s2,0x80002
800006ac:	98040793          	addi	a5,s0,-1664 # 80001980 <__global_pointer$+0xfffff7f8>
800006b0:	98490913          	addi	s2,s2,-1660 # 80001984 <__global_pointer$+0xfffff7fc>
800006b4:	40f90933          	sub	s2,s2,a5
800006b8:	40295913          	srai	s2,s2,0x2
800006bc:	02090063          	beqz	s2,800006dc <__libc_init_array+0x84>
800006c0:	98040413          	addi	s0,s0,-1664
800006c4:	00000493          	li	s1,0
800006c8:	00042783          	lw	a5,0(s0)
800006cc:	00148493          	addi	s1,s1,1
800006d0:	00440413          	addi	s0,s0,4
800006d4:	000780e7          	jalr	a5
800006d8:	fe9918e3          	bne	s2,s1,800006c8 <__libc_init_array+0x70>
800006dc:	00c12083          	lw	ra,12(sp)
800006e0:	00812403          	lw	s0,8(sp)
800006e4:	00412483          	lw	s1,4(sp)
800006e8:	00012903          	lw	s2,0(sp)
800006ec:	01010113          	addi	sp,sp,16
800006f0:	00008067          	ret

800006f4 <memset>:
800006f4:	00f00313          	li	t1,15
800006f8:	00050713          	mv	a4,a0
800006fc:	02c37e63          	bgeu	t1,a2,80000738 <memset+0x44>
80000700:	00f77793          	andi	a5,a4,15
80000704:	0a079063          	bnez	a5,800007a4 <memset+0xb0>
80000708:	08059263          	bnez	a1,8000078c <memset+0x98>
8000070c:	ff067693          	andi	a3,a2,-16
80000710:	00f67613          	andi	a2,a2,15
80000714:	00e686b3          	add	a3,a3,a4
80000718:	00b72023          	sw	a1,0(a4) # 2000 <_start-0x7fffe000>
8000071c:	00b72223          	sw	a1,4(a4)
80000720:	00b72423          	sw	a1,8(a4)
80000724:	00b72623          	sw	a1,12(a4)
80000728:	01070713          	addi	a4,a4,16
8000072c:	fed766e3          	bltu	a4,a3,80000718 <memset+0x24>
80000730:	00061463          	bnez	a2,80000738 <memset+0x44>
80000734:	00008067          	ret
80000738:	40c306b3          	sub	a3,t1,a2
8000073c:	00269693          	slli	a3,a3,0x2
80000740:	00000297          	auipc	t0,0x0
80000744:	005686b3          	add	a3,a3,t0
80000748:	00c68067          	jr	12(a3)
8000074c:	00b70723          	sb	a1,14(a4)
80000750:	00b706a3          	sb	a1,13(a4)
80000754:	00b70623          	sb	a1,12(a4)
80000758:	00b705a3          	sb	a1,11(a4)
8000075c:	00b70523          	sb	a1,10(a4)
80000760:	00b704a3          	sb	a1,9(a4)
80000764:	00b70423          	sb	a1,8(a4)
80000768:	00b703a3          	sb	a1,7(a4)
8000076c:	00b70323          	sb	a1,6(a4)
80000770:	00b702a3          	sb	a1,5(a4)
80000774:	00b70223          	sb	a1,4(a4)
80000778:	00b701a3          	sb	a1,3(a4)
8000077c:	00b70123          	sb	a1,2(a4)
80000780:	00b700a3          	sb	a1,1(a4)
80000784:	00b70023          	sb	a1,0(a4)
80000788:	00008067          	ret
8000078c:	0ff5f593          	andi	a1,a1,255
80000790:	00859693          	slli	a3,a1,0x8
80000794:	00d5e5b3          	or	a1,a1,a3
80000798:	01059693          	slli	a3,a1,0x10
8000079c:	00d5e5b3          	or	a1,a1,a3
800007a0:	f6dff06f          	j	8000070c <memset+0x18>
800007a4:	00279693          	slli	a3,a5,0x2
800007a8:	00000297          	auipc	t0,0x0
800007ac:	005686b3          	add	a3,a3,t0
800007b0:	00008293          	mv	t0,ra
800007b4:	fa0680e7          	jalr	-96(a3)
800007b8:	00028093          	mv	ra,t0
800007bc:	ff078793          	addi	a5,a5,-16
800007c0:	40f70733          	sub	a4,a4,a5
800007c4:	00f60633          	add	a2,a2,a5
800007c8:	f6c378e3          	bgeu	t1,a2,80000738 <memset+0x44>
800007cc:	f3dff06f          	j	80000708 <memset+0x14>

800007d0 <__register_exitproc>:
800007d0:	c281a703          	lw	a4,-984(gp) # 80001db0 <_global_impure_ptr>
800007d4:	14872783          	lw	a5,328(a4)
800007d8:	04078c63          	beqz	a5,80000830 <__register_exitproc+0x60>
800007dc:	0047a703          	lw	a4,4(a5)
800007e0:	01f00813          	li	a6,31
800007e4:	06e84e63          	blt	a6,a4,80000860 <__register_exitproc+0x90>
800007e8:	00271813          	slli	a6,a4,0x2
800007ec:	02050663          	beqz	a0,80000818 <__register_exitproc+0x48>
800007f0:	01078333          	add	t1,a5,a6
800007f4:	08c32423          	sw	a2,136(t1)
800007f8:	1887a883          	lw	a7,392(a5)
800007fc:	00100613          	li	a2,1
80000800:	00e61633          	sll	a2,a2,a4
80000804:	00c8e8b3          	or	a7,a7,a2
80000808:	1917a423          	sw	a7,392(a5)
8000080c:	10d32423          	sw	a3,264(t1)
80000810:	00200693          	li	a3,2
80000814:	02d50463          	beq	a0,a3,8000083c <__register_exitproc+0x6c>
80000818:	00170713          	addi	a4,a4,1
8000081c:	00e7a223          	sw	a4,4(a5)
80000820:	010787b3          	add	a5,a5,a6
80000824:	00b7a423          	sw	a1,8(a5)
80000828:	00000513          	li	a0,0
8000082c:	00008067          	ret
80000830:	14c70793          	addi	a5,a4,332
80000834:	14f72423          	sw	a5,328(a4)
80000838:	fa5ff06f          	j	800007dc <__register_exitproc+0xc>
8000083c:	18c7a683          	lw	a3,396(a5)
80000840:	00170713          	addi	a4,a4,1
80000844:	00e7a223          	sw	a4,4(a5)
80000848:	00c6e633          	or	a2,a3,a2
8000084c:	18c7a623          	sw	a2,396(a5)
80000850:	010787b3          	add	a5,a5,a6
80000854:	00b7a423          	sw	a1,8(a5)
80000858:	00000513          	li	a0,0
8000085c:	00008067          	ret
80000860:	fff00513          	li	a0,-1
80000864:	00008067          	ret

80000868 <__call_exitprocs>:
80000868:	fd010113          	addi	sp,sp,-48
8000086c:	01812423          	sw	s8,8(sp)
80000870:	c281ac03          	lw	s8,-984(gp) # 80001db0 <_global_impure_ptr>
80000874:	01312e23          	sw	s3,28(sp)
80000878:	01412c23          	sw	s4,24(sp)
8000087c:	01512a23          	sw	s5,20(sp)
80000880:	01612823          	sw	s6,16(sp)
80000884:	02112623          	sw	ra,44(sp)
80000888:	02812423          	sw	s0,40(sp)
8000088c:	02912223          	sw	s1,36(sp)
80000890:	03212023          	sw	s2,32(sp)
80000894:	01712623          	sw	s7,12(sp)
80000898:	00050a93          	mv	s5,a0
8000089c:	00058b13          	mv	s6,a1
800008a0:	00100a13          	li	s4,1
800008a4:	fff00993          	li	s3,-1
800008a8:	148c2903          	lw	s2,328(s8)
800008ac:	02090863          	beqz	s2,800008dc <__call_exitprocs+0x74>
800008b0:	00492483          	lw	s1,4(s2)
800008b4:	fff48413          	addi	s0,s1,-1
800008b8:	02044263          	bltz	s0,800008dc <__call_exitprocs+0x74>
800008bc:	00249493          	slli	s1,s1,0x2
800008c0:	009904b3          	add	s1,s2,s1
800008c4:	040b0463          	beqz	s6,8000090c <__call_exitprocs+0xa4>
800008c8:	1044a783          	lw	a5,260(s1)
800008cc:	05678063          	beq	a5,s6,8000090c <__call_exitprocs+0xa4>
800008d0:	fff40413          	addi	s0,s0,-1
800008d4:	ffc48493          	addi	s1,s1,-4
800008d8:	ff3416e3          	bne	s0,s3,800008c4 <__call_exitprocs+0x5c>
800008dc:	02c12083          	lw	ra,44(sp)
800008e0:	02812403          	lw	s0,40(sp)
800008e4:	02412483          	lw	s1,36(sp)
800008e8:	02012903          	lw	s2,32(sp)
800008ec:	01c12983          	lw	s3,28(sp)
800008f0:	01812a03          	lw	s4,24(sp)
800008f4:	01412a83          	lw	s5,20(sp)
800008f8:	01012b03          	lw	s6,16(sp)
800008fc:	00c12b83          	lw	s7,12(sp)
80000900:	00812c03          	lw	s8,8(sp)
80000904:	03010113          	addi	sp,sp,48
80000908:	00008067          	ret
8000090c:	00492783          	lw	a5,4(s2)
80000910:	0044a683          	lw	a3,4(s1)
80000914:	fff78793          	addi	a5,a5,-1
80000918:	04878a63          	beq	a5,s0,8000096c <__call_exitprocs+0x104>
8000091c:	0004a223          	sw	zero,4(s1)
80000920:	fa0688e3          	beqz	a3,800008d0 <__call_exitprocs+0x68>
80000924:	18892783          	lw	a5,392(s2)
80000928:	008a1733          	sll	a4,s4,s0
8000092c:	00492b83          	lw	s7,4(s2)
80000930:	00f777b3          	and	a5,a4,a5
80000934:	00079e63          	bnez	a5,80000950 <__call_exitprocs+0xe8>
80000938:	000680e7          	jalr	a3
8000093c:	00492783          	lw	a5,4(s2)
80000940:	f77794e3          	bne	a5,s7,800008a8 <__call_exitprocs+0x40>
80000944:	148c2783          	lw	a5,328(s8)
80000948:	f92784e3          	beq	a5,s2,800008d0 <__call_exitprocs+0x68>
8000094c:	f5dff06f          	j	800008a8 <__call_exitprocs+0x40>
80000950:	18c92783          	lw	a5,396(s2)
80000954:	0844a583          	lw	a1,132(s1)
80000958:	00f77733          	and	a4,a4,a5
8000095c:	00071c63          	bnez	a4,80000974 <__call_exitprocs+0x10c>
80000960:	000a8513          	mv	a0,s5
80000964:	000680e7          	jalr	a3
80000968:	fd5ff06f          	j	8000093c <__call_exitprocs+0xd4>
8000096c:	00892223          	sw	s0,4(s2)
80000970:	fb1ff06f          	j	80000920 <__call_exitprocs+0xb8>
80000974:	00058513          	mv	a0,a1
80000978:	000680e7          	jalr	a3
8000097c:	fc1ff06f          	j	8000093c <__call_exitprocs+0xd4>

Disassembly of section .init_array:

80001980 <__init_array_start>:
80001980:	0058                	addi	a4,sp,4
80001982:	8000                	0x8000

Disassembly of section .data:

80001988 <__DATA_BEGIN__>:
80001988:	0000                	unimp
8000198a:	0000                	unimp
8000198c:	1c74                	addi	a3,sp,572
8000198e:	8000                	0x8000
80001990:	1cdc                	addi	a5,sp,628
80001992:	8000                	0x8000
80001994:	1d44                	addi	s1,sp,692
80001996:	8000                	0x8000
	...
80001a30:	0001                	nop
80001a32:	0000                	unimp
80001a34:	0000                	unimp
80001a36:	0000                	unimp
80001a38:	330e                	fld	ft6,224(sp)
80001a3a:	abcd                	j	8000202c <__BSS_END__+0x268>
80001a3c:	1234                	addi	a3,sp,296
80001a3e:	e66d                	bnez	a2,80001b28 <__DATA_BEGIN__+0x1a0>
80001a40:	deec                	sw	a1,124(a3)
80001a42:	0005                	c.nop	1
80001a44:	0000000b          	0xb
	...

Disassembly of section .sdata:

80001db0 <_global_impure_ptr>:
80001db0:	1988                	addi	a0,sp,240
80001db2:	8000                	0x8000

80001db4 <trap_to_simulator>:
80001db4:	0000                	unimp
80001db6:	7000                	flw	fs0,32(s0)

80001db8 <heap_start>:
80001db8:	0000                	unimp
80001dba:	1000                	addi	s0,sp,32

80001dbc <head_end>:
80001dbc:	0000                	unimp
80001dbe:	2000                	fld	fs0,0(s0)

Disassembly of section .bss:

80001dc0 <__bss_start>:
80001dc0:	0000                	unimp
	...

Disassembly of section .comment:

00000000 <.comment>:
   0:	3a434347          	fmsub.d	ft6,ft6,ft4,ft7,rmm
   4:	2820                	fld	fs0,80(s0)
   6:	29554e47          	fmsub.s	ft8,fa0,fs5,ft5,rmm
   a:	3820                	fld	fs0,112(s0)
   c:	332e                	fld	ft6,232(sp)
   e:	302e                	fld	ft0,232(sp)
	...

Disassembly of section .riscv.attributes:

00000000 <.riscv.attributes>:
   0:	2341                	jal	580 <_start-0x7ffffa80>
   2:	0000                	unimp
   4:	7200                	flw	fs0,32(a2)
   6:	7369                	lui	t1,0xffffa
   8:	01007663          	bgeu	zero,a6,14 <_start-0x7fffffec>
   c:	0019                	c.nop	6
   e:	0000                	unimp
  10:	7205                	lui	tp,0xfffe1
  12:	3376                	fld	ft6,376(sp)
  14:	6932                	flw	fs2,12(sp)
  16:	7032                	flw	ft0,44(sp)
  18:	5f30                	lw	a2,120(a4)
  1a:	326d                	jal	fffff9c4 <__global_pointer$+0x7fffd83c>
  1c:	3070                	fld	fa2,224(s0)
  1e:	765f 7032 0030      	0x307032765f
