
vx_vector_main.elf:     file format elf32-littleriscv


Disassembly of section .init:

80000000 <_start>:
80000000:	00000597          	auipc	a1,0x0
80000004:	07458593          	addi	a1,a1,116 # 80000074 <vx_set_sp>
80000008:	00400513          	li	a0,4
8000000c:	00b5106b          	0xb5106b
80000010:	064000ef          	jal	ra,80000074 <vx_set_sp>
80000014:	00100513          	li	a0,1
80000018:	0005006b          	0x5006b
8000001c:	00002517          	auipc	a0,0x2
80000020:	d9c50513          	addi	a0,a0,-612 # 80001db8 <_edata>
80000024:	00002617          	auipc	a2,0x2
80000028:	d9860613          	addi	a2,a2,-616 # 80001dbc <__BSS_END__>
8000002c:	40a60633          	sub	a2,a2,a0
80000030:	00000593          	li	a1,0
80000034:	6b8000ef          	jal	ra,800006ec <memset>
80000038:	00000517          	auipc	a0,0x0
8000003c:	5b850513          	addi	a0,a0,1464 # 800005f0 <__libc_fini_array>
80000040:	56c000ef          	jal	ra,800005ac <atexit>
80000044:	60c000ef          	jal	ra,80000650 <__libc_init_array>
80000048:	00400513          	li	a0,4
8000004c:	0005006b          	0x5006b
80000050:	528000ef          	jal	ra,80000578 <main>
80000054:	56c0006f          	j	800005c0 <exit>

Disassembly of section .text:

80000058 <register_fini>:
80000058:	000007b7          	lui	a5,0x0
8000005c:	00078793          	mv	a5,a5
80000060:	00078863          	beqz	a5,80000070 <register_fini+0x18>
80000064:	80000537          	lui	a0,0x80000
80000068:	5f050513          	addi	a0,a0,1520 # 800005f0 <__global_pointer$+0xffffe470>
8000006c:	5400006f          	j	800005ac <atexit>
80000070:	00008067          	ret

80000074 <vx_set_sp>:
80000074:	00400513          	li	a0,4
80000078:	0005006b          	0x5006b
8000007c:	00002197          	auipc	gp,0x2
80000080:	10418193          	addi	gp,gp,260 # 80002180 <__global_pointer$>
80000084:	021026f3          	csrr	a3,0x21
80000088:	01a69693          	slli	a3,a3,0x1a
8000008c:	02002673          	csrr	a2,0x20
80000090:	00a61593          	slli	a1,a2,0xa
80000094:	00261613          	slli	a2,a2,0x2
80000098:	6ffff137          	lui	sp,0x6ffff
8000009c:	40b10133          	sub	sp,sp,a1
800000a0:	40d10133          	sub	sp,sp,a3
800000a4:	00c10133          	add	sp,sp,a2
800000a8:	021026f3          	csrr	a3,0x21
800000ac:	00068663          	beqz	a3,800000b8 <RETURN>
800000b0:	00000513          	li	a0,0
800000b4:	0005006b          	0x5006b

800000b8 <RETURN>:
800000b8:	00008067          	ret

800000bc <vx_vec_test>:
800000bc:	00008067          	ret

800000c0 <upload>:
800000c0:	fd010113          	addi	sp,sp,-48 # 6fffefd0 <_start-0x10001030>
800000c4:	02812623          	sw	s0,44(sp)
800000c8:	03010413          	addi	s0,sp,48
800000cc:	fca42e23          	sw	a0,-36(s0)
800000d0:	fcb42c23          	sw	a1,-40(s0)
800000d4:	fcc42a23          	sw	a2,-44(s0)
800000d8:	fdc42783          	lw	a5,-36(s0)
800000dc:	0007a783          	lw	a5,0(a5) # 0 <_start-0x80000000>
800000e0:	fef42623          	sw	a5,-20(s0)
800000e4:	fd442783          	lw	a5,-44(s0)
800000e8:	fef42223          	sw	a5,-28(s0)
800000ec:	fe442783          	lw	a5,-28(s0)
800000f0:	0007c703          	lbu	a4,0(a5)
800000f4:	fec42783          	lw	a5,-20(s0)
800000f8:	00e78023          	sb	a4,0(a5)
800000fc:	fec42783          	lw	a5,-20(s0)
80000100:	00178793          	addi	a5,a5,1
80000104:	fe442703          	lw	a4,-28(s0)
80000108:	00174703          	lbu	a4,1(a4)
8000010c:	00e78023          	sb	a4,0(a5)
80000110:	fec42783          	lw	a5,-20(s0)
80000114:	00278793          	addi	a5,a5,2
80000118:	fe442703          	lw	a4,-28(s0)
8000011c:	00274703          	lbu	a4,2(a4)
80000120:	00e78023          	sb	a4,0(a5)
80000124:	fec42783          	lw	a5,-20(s0)
80000128:	00378793          	addi	a5,a5,3
8000012c:	fe442703          	lw	a4,-28(s0)
80000130:	00374703          	lbu	a4,3(a4)
80000134:	00e78023          	sb	a4,0(a5)
80000138:	fec42783          	lw	a5,-20(s0)
8000013c:	00478793          	addi	a5,a5,4
80000140:	fef42623          	sw	a5,-20(s0)
80000144:	fe042423          	sw	zero,-24(s0)
80000148:	0340006f          	j	8000017c <upload+0xbc>
8000014c:	fe842783          	lw	a5,-24(s0)
80000150:	fd842703          	lw	a4,-40(s0)
80000154:	00f707b3          	add	a5,a4,a5
80000158:	0007c703          	lbu	a4,0(a5)
8000015c:	fec42783          	lw	a5,-20(s0)
80000160:	00e78023          	sb	a4,0(a5)
80000164:	fec42783          	lw	a5,-20(s0)
80000168:	00178793          	addi	a5,a5,1
8000016c:	fef42623          	sw	a5,-20(s0)
80000170:	fe842783          	lw	a5,-24(s0)
80000174:	00178793          	addi	a5,a5,1
80000178:	fef42423          	sw	a5,-24(s0)
8000017c:	fe842703          	lw	a4,-24(s0)
80000180:	fd442783          	lw	a5,-44(s0)
80000184:	fcf744e3          	blt	a4,a5,8000014c <upload+0x8c>
80000188:	fdc42783          	lw	a5,-36(s0)
8000018c:	fec42703          	lw	a4,-20(s0)
80000190:	00e7a023          	sw	a4,0(a5)
80000194:	00000013          	nop
80000198:	02c12403          	lw	s0,44(sp)
8000019c:	03010113          	addi	sp,sp,48
800001a0:	00008067          	ret

800001a4 <download>:
800001a4:	fd010113          	addi	sp,sp,-48
800001a8:	02812623          	sw	s0,44(sp)
800001ac:	03010413          	addi	s0,sp,48
800001b0:	fca42e23          	sw	a0,-36(s0)
800001b4:	fcb42c23          	sw	a1,-40(s0)
800001b8:	fdc42783          	lw	a5,-36(s0)
800001bc:	0007a783          	lw	a5,0(a5)
800001c0:	fef42623          	sw	a5,-20(s0)
800001c4:	fe442783          	lw	a5,-28(s0)
800001c8:	fef42023          	sw	a5,-32(s0)
800001cc:	fec42783          	lw	a5,-20(s0)
800001d0:	0007c703          	lbu	a4,0(a5)
800001d4:	fe042783          	lw	a5,-32(s0)
800001d8:	00e78023          	sb	a4,0(a5)
800001dc:	fe042783          	lw	a5,-32(s0)
800001e0:	00178793          	addi	a5,a5,1
800001e4:	fec42703          	lw	a4,-20(s0)
800001e8:	00174703          	lbu	a4,1(a4)
800001ec:	00e78023          	sb	a4,0(a5)
800001f0:	fe042783          	lw	a5,-32(s0)
800001f4:	00278793          	addi	a5,a5,2
800001f8:	fec42703          	lw	a4,-20(s0)
800001fc:	00274703          	lbu	a4,2(a4)
80000200:	00e78023          	sb	a4,0(a5)
80000204:	fe042783          	lw	a5,-32(s0)
80000208:	00378793          	addi	a5,a5,3
8000020c:	fec42703          	lw	a4,-20(s0)
80000210:	00374703          	lbu	a4,3(a4)
80000214:	00e78023          	sb	a4,0(a5)
80000218:	fec42783          	lw	a5,-20(s0)
8000021c:	00478793          	addi	a5,a5,4
80000220:	fef42623          	sw	a5,-20(s0)
80000224:	fe042423          	sw	zero,-24(s0)
80000228:	0340006f          	j	8000025c <download+0xb8>
8000022c:	fe842783          	lw	a5,-24(s0)
80000230:	fd842703          	lw	a4,-40(s0)
80000234:	00f707b3          	add	a5,a4,a5
80000238:	fec42703          	lw	a4,-20(s0)
8000023c:	00074703          	lbu	a4,0(a4)
80000240:	00e78023          	sb	a4,0(a5)
80000244:	fec42783          	lw	a5,-20(s0)
80000248:	00178793          	addi	a5,a5,1
8000024c:	fef42623          	sw	a5,-20(s0)
80000250:	fe842783          	lw	a5,-24(s0)
80000254:	00178793          	addi	a5,a5,1
80000258:	fef42423          	sw	a5,-24(s0)
8000025c:	fe842703          	lw	a4,-24(s0)
80000260:	fe442783          	lw	a5,-28(s0)
80000264:	fcf744e3          	blt	a4,a5,8000022c <download+0x88>
80000268:	fdc42783          	lw	a5,-36(s0)
8000026c:	fec42703          	lw	a4,-20(s0)
80000270:	00e7a023          	sw	a4,0(a5)
80000274:	00000013          	nop
80000278:	02c12403          	lw	s0,44(sp)
8000027c:	03010113          	addi	sp,sp,48
80000280:	00008067          	ret

80000284 <_close>:
80000284:	ff010113          	addi	sp,sp,-16
80000288:	00812623          	sw	s0,12(sp)
8000028c:	01010413          	addi	s0,sp,16
80000290:	00000013          	nop
80000294:	00c12403          	lw	s0,12(sp)
80000298:	01010113          	addi	sp,sp,16
8000029c:	00008067          	ret

800002a0 <_fstat>:
800002a0:	fe010113          	addi	sp,sp,-32
800002a4:	00812e23          	sw	s0,28(sp)
800002a8:	02010413          	addi	s0,sp,32
800002ac:	fea42623          	sw	a0,-20(s0)
800002b0:	feb42423          	sw	a1,-24(s0)
800002b4:	fe842783          	lw	a5,-24(s0)
800002b8:	00002737          	lui	a4,0x2
800002bc:	00e7a223          	sw	a4,4(a5)
800002c0:	00000793          	li	a5,0
800002c4:	00078513          	mv	a0,a5
800002c8:	01c12403          	lw	s0,28(sp)
800002cc:	02010113          	addi	sp,sp,32
800002d0:	00008067          	ret

800002d4 <_isatty>:
800002d4:	fe010113          	addi	sp,sp,-32
800002d8:	00812e23          	sw	s0,28(sp)
800002dc:	02010413          	addi	s0,sp,32
800002e0:	fea42623          	sw	a0,-20(s0)
800002e4:	00100793          	li	a5,1
800002e8:	00078513          	mv	a0,a5
800002ec:	01c12403          	lw	s0,28(sp)
800002f0:	02010113          	addi	sp,sp,32
800002f4:	00008067          	ret

800002f8 <_lseek>:
800002f8:	ff010113          	addi	sp,sp,-16
800002fc:	00812623          	sw	s0,12(sp)
80000300:	01010413          	addi	s0,sp,16
80000304:	00000013          	nop
80000308:	00c12403          	lw	s0,12(sp)
8000030c:	01010113          	addi	sp,sp,16
80000310:	00008067          	ret

80000314 <_read>:
80000314:	ff010113          	addi	sp,sp,-16
80000318:	00812623          	sw	s0,12(sp)
8000031c:	01010413          	addi	s0,sp,16
80000320:	00000013          	nop
80000324:	00c12403          	lw	s0,12(sp)
80000328:	01010113          	addi	sp,sp,16
8000032c:	00008067          	ret

80000330 <_write>:
80000330:	fd010113          	addi	sp,sp,-48
80000334:	02812623          	sw	s0,44(sp)
80000338:	03010413          	addi	s0,sp,48
8000033c:	fca42e23          	sw	a0,-36(s0)
80000340:	fcb42c23          	sw	a1,-40(s0)
80000344:	fcc42a23          	sw	a2,-44(s0)
80000348:	000107b7          	lui	a5,0x10
8000034c:	fef42423          	sw	a5,-24(s0)
80000350:	fe042623          	sw	zero,-20(s0)
80000354:	02c0006f          	j	80000380 <_write+0x50>
80000358:	fec42783          	lw	a5,-20(s0)
8000035c:	fd842703          	lw	a4,-40(s0)
80000360:	00f707b3          	add	a5,a4,a5
80000364:	0007c783          	lbu	a5,0(a5) # 10000 <_start-0x7fff0000>
80000368:	00078713          	mv	a4,a5
8000036c:	fe842783          	lw	a5,-24(s0)
80000370:	00e7a023          	sw	a4,0(a5)
80000374:	fec42783          	lw	a5,-20(s0)
80000378:	00178793          	addi	a5,a5,1
8000037c:	fef42623          	sw	a5,-20(s0)
80000380:	fec42703          	lw	a4,-20(s0)
80000384:	fd442783          	lw	a5,-44(s0)
80000388:	fcf748e3          	blt	a4,a5,80000358 <_write+0x28>
8000038c:	fd442783          	lw	a5,-44(s0)
80000390:	00078513          	mv	a0,a5
80000394:	02c12403          	lw	s0,44(sp)
80000398:	03010113          	addi	sp,sp,48
8000039c:	00008067          	ret

800003a0 <_sbrk>:
800003a0:	fd010113          	addi	sp,sp,-48
800003a4:	02812623          	sw	s0,44(sp)
800003a8:	03010413          	addi	s0,sp,48
800003ac:	fca42e23          	sw	a0,-36(s0)
800003b0:	fdc42783          	lw	a5,-36(s0)
800003b4:	0007d863          	bgez	a5,800003c4 <_sbrk+0x24>
800003b8:	fdc42783          	lw	a5,-36(s0)
800003bc:	40f007b3          	neg	a5,a5
800003c0:	fcf42e23          	sw	a5,-36(s0)
800003c4:	fdc42703          	lw	a4,-36(s0)
800003c8:	000037b7          	lui	a5,0x3
800003cc:	80078793          	addi	a5,a5,-2048 # 2800 <_start-0x7fffd800>
800003d0:	00e7d863          	bge	a5,a4,800003e0 <_sbrk+0x40>
800003d4:	000037b7          	lui	a5,0x3
800003d8:	80078793          	addi	a5,a5,-2048 # 2800 <_start-0x7fffd800>
800003dc:	fcf42e23          	sw	a5,-36(s0)
800003e0:	c301a783          	lw	a5,-976(gp) # 80001db0 <heap_start>
800003e4:	fef42623          	sw	a5,-20(s0)
800003e8:	c301a703          	lw	a4,-976(gp) # 80001db0 <heap_start>
800003ec:	fdc42783          	lw	a5,-36(s0)
800003f0:	00f70733          	add	a4,a4,a5
800003f4:	c2e1a823          	sw	a4,-976(gp) # 80001db0 <heap_start>
800003f8:	fec42783          	lw	a5,-20(s0)
800003fc:	00078513          	mv	a0,a5
80000400:	02c12403          	lw	s0,44(sp)
80000404:	03010113          	addi	sp,sp,48
80000408:	00008067          	ret

8000040c <_exit>:
8000040c:	fe010113          	addi	sp,sp,-32
80000410:	00112e23          	sw	ra,28(sp)
80000414:	00812c23          	sw	s0,24(sp)
80000418:	02010413          	addi	s0,sp,32
8000041c:	fea42623          	sw	a0,-20(s0)
80000420:	00000513          	li	a0,0
80000424:	0e4000ef          	jal	ra,80000508 <vx_tmc>
80000428:	00000013          	nop
8000042c:	01c12083          	lw	ra,28(sp)
80000430:	01812403          	lw	s0,24(sp)
80000434:	02010113          	addi	sp,sp,32
80000438:	00008067          	ret

8000043c <_open>:
8000043c:	ff010113          	addi	sp,sp,-16
80000440:	00812623          	sw	s0,12(sp)
80000444:	01010413          	addi	s0,sp,16
80000448:	00000013          	nop
8000044c:	00c12403          	lw	s0,12(sp)
80000450:	01010113          	addi	sp,sp,16
80000454:	00008067          	ret

80000458 <_kill>:
80000458:	ff010113          	addi	sp,sp,-16
8000045c:	00812623          	sw	s0,12(sp)
80000460:	01010413          	addi	s0,sp,16
80000464:	00000013          	nop
80000468:	00c12403          	lw	s0,12(sp)
8000046c:	01010113          	addi	sp,sp,16
80000470:	00008067          	ret

80000474 <_getpid>:
80000474:	ff010113          	addi	sp,sp,-16
80000478:	00112623          	sw	ra,12(sp)
8000047c:	00812423          	sw	s0,8(sp)
80000480:	01010413          	addi	s0,sp,16
80000484:	0ac000ef          	jal	ra,80000530 <vx_threadID>
80000488:	00050793          	mv	a5,a0
8000048c:	00078513          	mv	a0,a5
80000490:	00c12083          	lw	ra,12(sp)
80000494:	00812403          	lw	s0,8(sp)
80000498:	01010113          	addi	sp,sp,16
8000049c:	00008067          	ret

800004a0 <_unlink>:
800004a0:	ff010113          	addi	sp,sp,-16
800004a4:	00812623          	sw	s0,12(sp)
800004a8:	01010413          	addi	s0,sp,16
800004ac:	00000013          	nop
800004b0:	00c12403          	lw	s0,12(sp)
800004b4:	01010113          	addi	sp,sp,16
800004b8:	00008067          	ret

800004bc <_gettimeofday>:
800004bc:	ff010113          	addi	sp,sp,-16
800004c0:	00812623          	sw	s0,12(sp)
800004c4:	01010413          	addi	s0,sp,16
800004c8:	c381a783          	lw	a5,-968(gp) # 80001db8 <_edata>
800004cc:	00178693          	addi	a3,a5,1
800004d0:	c2d1ac23          	sw	a3,-968(gp) # 80001db8 <_edata>
800004d4:	00078513          	mv	a0,a5
800004d8:	00c12403          	lw	s0,12(sp)
800004dc:	01010113          	addi	sp,sp,16
800004e0:	00008067          	ret

800004e4 <_link>:
800004e4:	ff010113          	addi	sp,sp,-16
800004e8:	00812623          	sw	s0,12(sp)
800004ec:	01010413          	addi	s0,sp,16
800004f0:	00000013          	nop
800004f4:	00c12403          	lw	s0,12(sp)
800004f8:	01010113          	addi	sp,sp,16
800004fc:	00008067          	ret

80000500 <vx_wspawn>:
80000500:	00b5106b          	0xb5106b
80000504:	00008067          	ret

80000508 <vx_tmc>:
80000508:	0005006b          	0x5006b
8000050c:	00008067          	ret

80000510 <vx_barrier>:
80000510:	00b5406b          	0xb5406b
80000514:	00008067          	ret

80000518 <vx_split>:
80000518:	0005206b          	0x5206b
8000051c:	00008067          	ret

80000520 <vx_join>:
80000520:	0000306b          	0x306b
80000524:	00008067          	ret

80000528 <vx_warpID>:
80000528:	02102573          	csrr	a0,0x21
8000052c:	00008067          	ret

80000530 <vx_threadID>:
80000530:	02002573          	csrr	a0,0x20
80000534:	00008067          	ret

80000538 <vx_resetStack>:
80000538:	00400513          	li	a0,4
8000053c:	0005006b          	0x5006b
80000540:	021026f3          	csrr	a3,0x21
80000544:	00f69693          	slli	a3,a3,0xf
80000548:	02002673          	csrr	a2,0x20
8000054c:	00a61593          	slli	a1,a2,0xa
80000550:	00261613          	slli	a2,a2,0x2
80000554:	6ffff137          	lui	sp,0x6ffff
80000558:	40b10133          	sub	sp,sp,a1
8000055c:	40d10133          	sub	sp,sp,a3
80000560:	00c10133          	add	sp,sp,a2
80000564:	021026f3          	csrr	a3,0x21
80000568:	00068663          	beqz	a3,80000574 <RETURN>
8000056c:	00000513          	li	a0,0
80000570:	0005006b          	0x5006b

80000574 <RETURN>:
80000574:	00008067          	ret

80000578 <main>:
80000578:	ff010113          	addi	sp,sp,-16 # 6fffeff0 <_start-0x10001010>
8000057c:	00112623          	sw	ra,12(sp)
80000580:	00812423          	sw	s0,8(sp)
80000584:	01010413          	addi	s0,sp,16
80000588:	00100513          	li	a0,1
8000058c:	f7dff0ef          	jal	ra,80000508 <vx_tmc>
80000590:	b2dff0ef          	jal	ra,800000bc <vx_vec_test>
80000594:	00000013          	nop
80000598:	00078513          	mv	a0,a5
8000059c:	00c12083          	lw	ra,12(sp)
800005a0:	00812403          	lw	s0,8(sp)
800005a4:	01010113          	addi	sp,sp,16
800005a8:	00008067          	ret

800005ac <atexit>:
800005ac:	00050593          	mv	a1,a0
800005b0:	00000693          	li	a3,0
800005b4:	00000613          	li	a2,0
800005b8:	00000513          	li	a0,0
800005bc:	20c0006f          	j	800007c8 <__register_exitproc>

800005c0 <exit>:
800005c0:	ff010113          	addi	sp,sp,-16
800005c4:	00000593          	li	a1,0
800005c8:	00812423          	sw	s0,8(sp)
800005cc:	00112623          	sw	ra,12(sp)
800005d0:	00050413          	mv	s0,a0
800005d4:	28c000ef          	jal	ra,80000860 <__call_exitprocs>
800005d8:	c281a503          	lw	a0,-984(gp) # 80001da8 <_global_impure_ptr>
800005dc:	03c52783          	lw	a5,60(a0)
800005e0:	00078463          	beqz	a5,800005e8 <exit+0x28>
800005e4:	000780e7          	jalr	a5
800005e8:	00040513          	mv	a0,s0
800005ec:	e21ff0ef          	jal	ra,8000040c <_exit>

800005f0 <__libc_fini_array>:
800005f0:	ff010113          	addi	sp,sp,-16
800005f4:	00812423          	sw	s0,8(sp)
800005f8:	00912223          	sw	s1,4(sp)
800005fc:	80002437          	lui	s0,0x80002
80000600:	800024b7          	lui	s1,0x80002
80000604:	97c48793          	addi	a5,s1,-1668 # 8000197c <__global_pointer$+0xfffff7fc>
80000608:	97c40413          	addi	s0,s0,-1668 # 8000197c <__global_pointer$+0xfffff7fc>
8000060c:	40f40433          	sub	s0,s0,a5
80000610:	00112623          	sw	ra,12(sp)
80000614:	40245413          	srai	s0,s0,0x2
80000618:	02040263          	beqz	s0,8000063c <__libc_fini_array+0x4c>
8000061c:	00241493          	slli	s1,s0,0x2
80000620:	ffc48493          	addi	s1,s1,-4
80000624:	00f484b3          	add	s1,s1,a5
80000628:	0004a783          	lw	a5,0(s1)
8000062c:	fff40413          	addi	s0,s0,-1
80000630:	ffc48493          	addi	s1,s1,-4
80000634:	000780e7          	jalr	a5
80000638:	fe0418e3          	bnez	s0,80000628 <__libc_fini_array+0x38>
8000063c:	00c12083          	lw	ra,12(sp)
80000640:	00812403          	lw	s0,8(sp)
80000644:	00412483          	lw	s1,4(sp)
80000648:	01010113          	addi	sp,sp,16
8000064c:	00008067          	ret

80000650 <__libc_init_array>:
80000650:	ff010113          	addi	sp,sp,-16
80000654:	00812423          	sw	s0,8(sp)
80000658:	01212023          	sw	s2,0(sp)
8000065c:	80002437          	lui	s0,0x80002
80000660:	80002937          	lui	s2,0x80002
80000664:	97840793          	addi	a5,s0,-1672 # 80001978 <__global_pointer$+0xfffff7f8>
80000668:	97890913          	addi	s2,s2,-1672 # 80001978 <__global_pointer$+0xfffff7f8>
8000066c:	40f90933          	sub	s2,s2,a5
80000670:	00112623          	sw	ra,12(sp)
80000674:	00912223          	sw	s1,4(sp)
80000678:	40295913          	srai	s2,s2,0x2
8000067c:	02090063          	beqz	s2,8000069c <__libc_init_array+0x4c>
80000680:	97840413          	addi	s0,s0,-1672
80000684:	00000493          	li	s1,0
80000688:	00042783          	lw	a5,0(s0)
8000068c:	00148493          	addi	s1,s1,1
80000690:	00440413          	addi	s0,s0,4
80000694:	000780e7          	jalr	a5
80000698:	fe9918e3          	bne	s2,s1,80000688 <__libc_init_array+0x38>
8000069c:	80002437          	lui	s0,0x80002
800006a0:	80002937          	lui	s2,0x80002
800006a4:	97840793          	addi	a5,s0,-1672 # 80001978 <__global_pointer$+0xfffff7f8>
800006a8:	97c90913          	addi	s2,s2,-1668 # 8000197c <__global_pointer$+0xfffff7fc>
800006ac:	40f90933          	sub	s2,s2,a5
800006b0:	40295913          	srai	s2,s2,0x2
800006b4:	02090063          	beqz	s2,800006d4 <__libc_init_array+0x84>
800006b8:	97840413          	addi	s0,s0,-1672
800006bc:	00000493          	li	s1,0
800006c0:	00042783          	lw	a5,0(s0)
800006c4:	00148493          	addi	s1,s1,1
800006c8:	00440413          	addi	s0,s0,4
800006cc:	000780e7          	jalr	a5
800006d0:	fe9918e3          	bne	s2,s1,800006c0 <__libc_init_array+0x70>
800006d4:	00c12083          	lw	ra,12(sp)
800006d8:	00812403          	lw	s0,8(sp)
800006dc:	00412483          	lw	s1,4(sp)
800006e0:	00012903          	lw	s2,0(sp)
800006e4:	01010113          	addi	sp,sp,16
800006e8:	00008067          	ret

800006ec <memset>:
800006ec:	00f00313          	li	t1,15
800006f0:	00050713          	mv	a4,a0
800006f4:	02c37e63          	bgeu	t1,a2,80000730 <memset+0x44>
800006f8:	00f77793          	andi	a5,a4,15
800006fc:	0a079063          	bnez	a5,8000079c <memset+0xb0>
80000700:	08059263          	bnez	a1,80000784 <memset+0x98>
80000704:	ff067693          	andi	a3,a2,-16
80000708:	00f67613          	andi	a2,a2,15
8000070c:	00e686b3          	add	a3,a3,a4
80000710:	00b72023          	sw	a1,0(a4) # 2000 <_start-0x7fffe000>
80000714:	00b72223          	sw	a1,4(a4)
80000718:	00b72423          	sw	a1,8(a4)
8000071c:	00b72623          	sw	a1,12(a4)
80000720:	01070713          	addi	a4,a4,16
80000724:	fed766e3          	bltu	a4,a3,80000710 <memset+0x24>
80000728:	00061463          	bnez	a2,80000730 <memset+0x44>
8000072c:	00008067          	ret
80000730:	40c306b3          	sub	a3,t1,a2
80000734:	00269693          	slli	a3,a3,0x2
80000738:	00000297          	auipc	t0,0x0
8000073c:	005686b3          	add	a3,a3,t0
80000740:	00c68067          	jr	12(a3)
80000744:	00b70723          	sb	a1,14(a4)
80000748:	00b706a3          	sb	a1,13(a4)
8000074c:	00b70623          	sb	a1,12(a4)
80000750:	00b705a3          	sb	a1,11(a4)
80000754:	00b70523          	sb	a1,10(a4)
80000758:	00b704a3          	sb	a1,9(a4)
8000075c:	00b70423          	sb	a1,8(a4)
80000760:	00b703a3          	sb	a1,7(a4)
80000764:	00b70323          	sb	a1,6(a4)
80000768:	00b702a3          	sb	a1,5(a4)
8000076c:	00b70223          	sb	a1,4(a4)
80000770:	00b701a3          	sb	a1,3(a4)
80000774:	00b70123          	sb	a1,2(a4)
80000778:	00b700a3          	sb	a1,1(a4)
8000077c:	00b70023          	sb	a1,0(a4)
80000780:	00008067          	ret
80000784:	0ff5f593          	andi	a1,a1,255
80000788:	00859693          	slli	a3,a1,0x8
8000078c:	00d5e5b3          	or	a1,a1,a3
80000790:	01059693          	slli	a3,a1,0x10
80000794:	00d5e5b3          	or	a1,a1,a3
80000798:	f6dff06f          	j	80000704 <memset+0x18>
8000079c:	00279693          	slli	a3,a5,0x2
800007a0:	00000297          	auipc	t0,0x0
800007a4:	005686b3          	add	a3,a3,t0
800007a8:	00008293          	mv	t0,ra
800007ac:	fa0680e7          	jalr	-96(a3)
800007b0:	00028093          	mv	ra,t0
800007b4:	ff078793          	addi	a5,a5,-16
800007b8:	40f70733          	sub	a4,a4,a5
800007bc:	00f60633          	add	a2,a2,a5
800007c0:	f6c378e3          	bgeu	t1,a2,80000730 <memset+0x44>
800007c4:	f3dff06f          	j	80000700 <memset+0x14>

800007c8 <__register_exitproc>:
800007c8:	c281a703          	lw	a4,-984(gp) # 80001da8 <_global_impure_ptr>
800007cc:	14872783          	lw	a5,328(a4)
800007d0:	04078c63          	beqz	a5,80000828 <__register_exitproc+0x60>
800007d4:	0047a703          	lw	a4,4(a5)
800007d8:	01f00813          	li	a6,31
800007dc:	06e84e63          	blt	a6,a4,80000858 <__register_exitproc+0x90>
800007e0:	00271813          	slli	a6,a4,0x2
800007e4:	02050663          	beqz	a0,80000810 <__register_exitproc+0x48>
800007e8:	01078333          	add	t1,a5,a6
800007ec:	08c32423          	sw	a2,136(t1)
800007f0:	1887a883          	lw	a7,392(a5)
800007f4:	00100613          	li	a2,1
800007f8:	00e61633          	sll	a2,a2,a4
800007fc:	00c8e8b3          	or	a7,a7,a2
80000800:	1917a423          	sw	a7,392(a5)
80000804:	10d32423          	sw	a3,264(t1)
80000808:	00200693          	li	a3,2
8000080c:	02d50463          	beq	a0,a3,80000834 <__register_exitproc+0x6c>
80000810:	00170713          	addi	a4,a4,1
80000814:	00e7a223          	sw	a4,4(a5)
80000818:	010787b3          	add	a5,a5,a6
8000081c:	00b7a423          	sw	a1,8(a5)
80000820:	00000513          	li	a0,0
80000824:	00008067          	ret
80000828:	14c70793          	addi	a5,a4,332
8000082c:	14f72423          	sw	a5,328(a4)
80000830:	fa5ff06f          	j	800007d4 <__register_exitproc+0xc>
80000834:	18c7a683          	lw	a3,396(a5)
80000838:	00170713          	addi	a4,a4,1
8000083c:	00e7a223          	sw	a4,4(a5)
80000840:	00c6e633          	or	a2,a3,a2
80000844:	18c7a623          	sw	a2,396(a5)
80000848:	010787b3          	add	a5,a5,a6
8000084c:	00b7a423          	sw	a1,8(a5)
80000850:	00000513          	li	a0,0
80000854:	00008067          	ret
80000858:	fff00513          	li	a0,-1
8000085c:	00008067          	ret

80000860 <__call_exitprocs>:
80000860:	fd010113          	addi	sp,sp,-48
80000864:	01812423          	sw	s8,8(sp)
80000868:	c281ac03          	lw	s8,-984(gp) # 80001da8 <_global_impure_ptr>
8000086c:	01312e23          	sw	s3,28(sp)
80000870:	01412c23          	sw	s4,24(sp)
80000874:	01512a23          	sw	s5,20(sp)
80000878:	01612823          	sw	s6,16(sp)
8000087c:	02112623          	sw	ra,44(sp)
80000880:	02812423          	sw	s0,40(sp)
80000884:	02912223          	sw	s1,36(sp)
80000888:	03212023          	sw	s2,32(sp)
8000088c:	01712623          	sw	s7,12(sp)
80000890:	00050a93          	mv	s5,a0
80000894:	00058b13          	mv	s6,a1
80000898:	00100a13          	li	s4,1
8000089c:	fff00993          	li	s3,-1
800008a0:	148c2903          	lw	s2,328(s8)
800008a4:	02090863          	beqz	s2,800008d4 <__call_exitprocs+0x74>
800008a8:	00492483          	lw	s1,4(s2)
800008ac:	fff48413          	addi	s0,s1,-1
800008b0:	02044263          	bltz	s0,800008d4 <__call_exitprocs+0x74>
800008b4:	00249493          	slli	s1,s1,0x2
800008b8:	009904b3          	add	s1,s2,s1
800008bc:	040b0463          	beqz	s6,80000904 <__call_exitprocs+0xa4>
800008c0:	1044a783          	lw	a5,260(s1)
800008c4:	05678063          	beq	a5,s6,80000904 <__call_exitprocs+0xa4>
800008c8:	fff40413          	addi	s0,s0,-1
800008cc:	ffc48493          	addi	s1,s1,-4
800008d0:	ff3416e3          	bne	s0,s3,800008bc <__call_exitprocs+0x5c>
800008d4:	02c12083          	lw	ra,44(sp)
800008d8:	02812403          	lw	s0,40(sp)
800008dc:	02412483          	lw	s1,36(sp)
800008e0:	02012903          	lw	s2,32(sp)
800008e4:	01c12983          	lw	s3,28(sp)
800008e8:	01812a03          	lw	s4,24(sp)
800008ec:	01412a83          	lw	s5,20(sp)
800008f0:	01012b03          	lw	s6,16(sp)
800008f4:	00c12b83          	lw	s7,12(sp)
800008f8:	00812c03          	lw	s8,8(sp)
800008fc:	03010113          	addi	sp,sp,48
80000900:	00008067          	ret
80000904:	00492783          	lw	a5,4(s2)
80000908:	0044a683          	lw	a3,4(s1)
8000090c:	fff78793          	addi	a5,a5,-1
80000910:	04878a63          	beq	a5,s0,80000964 <__call_exitprocs+0x104>
80000914:	0004a223          	sw	zero,4(s1)
80000918:	fa0688e3          	beqz	a3,800008c8 <__call_exitprocs+0x68>
8000091c:	18892783          	lw	a5,392(s2)
80000920:	008a1733          	sll	a4,s4,s0
80000924:	00492b83          	lw	s7,4(s2)
80000928:	00f777b3          	and	a5,a4,a5
8000092c:	00079e63          	bnez	a5,80000948 <__call_exitprocs+0xe8>
80000930:	000680e7          	jalr	a3
80000934:	00492783          	lw	a5,4(s2)
80000938:	f77794e3          	bne	a5,s7,800008a0 <__call_exitprocs+0x40>
8000093c:	148c2783          	lw	a5,328(s8)
80000940:	f92784e3          	beq	a5,s2,800008c8 <__call_exitprocs+0x68>
80000944:	f5dff06f          	j	800008a0 <__call_exitprocs+0x40>
80000948:	18c92783          	lw	a5,396(s2)
8000094c:	0844a583          	lw	a1,132(s1)
80000950:	00f77733          	and	a4,a4,a5
80000954:	00071c63          	bnez	a4,8000096c <__call_exitprocs+0x10c>
80000958:	000a8513          	mv	a0,s5
8000095c:	000680e7          	jalr	a3
80000960:	fd5ff06f          	j	80000934 <__call_exitprocs+0xd4>
80000964:	00892223          	sw	s0,4(s2)
80000968:	fb1ff06f          	j	80000918 <__call_exitprocs+0xb8>
8000096c:	00058513          	mv	a0,a1
80000970:	000680e7          	jalr	a3
80000974:	fc1ff06f          	j	80000934 <__call_exitprocs+0xd4>

Disassembly of section .init_array:

80001978 <__init_array_start>:
80001978:	0058                	addi	a4,sp,4
8000197a:	8000                	0x8000

Disassembly of section .data:

80001980 <__DATA_BEGIN__>:
80001980:	0000                	unimp
80001982:	0000                	unimp
80001984:	1c6c                	addi	a1,sp,572
80001986:	8000                	0x8000
80001988:	1cd4                	addi	a3,sp,628
8000198a:	8000                	0x8000
8000198c:	1d3c                	addi	a5,sp,696
8000198e:	8000                	0x8000
	...
80001a28:	0001                	nop
80001a2a:	0000                	unimp
80001a2c:	0000                	unimp
80001a2e:	0000                	unimp
80001a30:	330e                	fld	ft6,224(sp)
80001a32:	abcd                	j	80002024 <__BSS_END__+0x268>
80001a34:	1234                	addi	a3,sp,296
80001a36:	e66d                	bnez	a2,80001b20 <__DATA_BEGIN__+0x1a0>
80001a38:	deec                	sw	a1,124(a3)
80001a3a:	0005                	c.nop	1
80001a3c:	0000000b          	0xb
	...

Disassembly of section .sdata:

80001da8 <_global_impure_ptr>:
80001da8:	1980                	addi	s0,sp,240
80001daa:	8000                	0x8000

80001dac <trap_to_simulator>:
80001dac:	0000                	unimp
80001dae:	7000                	flw	fs0,32(s0)

80001db0 <heap_start>:
80001db0:	0000                	unimp
80001db2:	1000                	addi	s0,sp,32

80001db4 <head_end>:
80001db4:	0000                	unimp
80001db6:	2000                	fld	fs0,0(s0)

Disassembly of section .bss:

80001db8 <__bss_start>:
80001db8:	0000                	unimp
	...

Disassembly of section .comment:

00000000 <.comment>:
   0:	3a434347          	fmsub.d	ft6,ft6,ft4,ft7,rmm
   4:	2820                	fld	fs0,80(s0)
   6:	29554e47          	fmsub.s	ft8,fa0,fs5,ft5,rmm
   a:	3820                	fld	fs0,112(s0)
   c:	332e                	fld	ft6,232(sp)
   e:	302e                	fld	ft0,232(sp)
	...

Disassembly of section .riscv.attributes:

00000000 <.riscv.attributes>:
   0:	2341                	jal	580 <_start-0x7ffffa80>
   2:	0000                	unimp
   4:	7200                	flw	fs0,32(a2)
   6:	7369                	lui	t1,0xffffa
   8:	01007663          	bgeu	zero,a6,14 <_start-0x7fffffec>
   c:	0019                	c.nop	6
   e:	0000                	unimp
  10:	7205                	lui	tp,0xfffe1
  12:	3376                	fld	ft6,376(sp)
  14:	6932                	flw	fs2,12(sp)
  16:	7032                	flw	ft0,44(sp)
  18:	5f30                	lw	a2,120(a4)
  1a:	326d                	jal	fffff9c4 <__global_pointer$+0x7fffd844>
  1c:	3070                	fld	fa2,224(s0)
  1e:	765f 7032 0030      	0x307032765f

Disassembly of section .debug_aranges:

00000000 <.debug_aranges>:
   0:	001c                	0x1c
   2:	0000                	unimp
   4:	0002                	c.slli64	zero
   6:	0000                	unimp
   8:	0000                	unimp
   a:	0004                	0x4
	...
  20:	001c                	0x1c
  22:	0000                	unimp
  24:	0002                	c.slli64	zero
  26:	121a                	slli	tp,tp,0x26
  28:	0000                	unimp
  2a:	0004                	0x4
	...

Disassembly of section .debug_info:

00000000 <.debug_info>:
       0:	1216                	slli	tp,tp,0x25
       2:	0000                	unimp
       4:	0004                	0x4
       6:	0000                	unimp
       8:	0000                	unimp
       a:	0104                	addi	s1,sp,128
       c:	00ed                	addi	ra,ra,27
       e:	0000                	unimp
      10:	a00c                	fsd	fa1,0(s0)
      12:	0004                	0x4
      14:	3300                	fld	fs0,32(a4)
      16:	0005                	c.nop	1
	...
      24:	0200                	addi	s0,sp,256
      26:	0708                	addi	a0,sp,896
      28:	0000030b          	0x30b
      2c:	0402                	c.slli64	s0
      2e:	00031507          	0x31507
      32:	0300                	addi	s0,sp,384
      34:	0504                	addi	s1,sp,640
      36:	6e69                	lui	t3,0x1a
      38:	0074                	addi	a3,sp,12
      3a:	0802                	c.slli64	a6
      3c:	2505                	jal	65c <_start-0x7ffff9a4>
      3e:	0002                	c.slli64	zero
      40:	0200                	addi	s0,sp,256
      42:	0410                	addi	a2,sp,512
      44:	00a5                	addi	ra,ra,9
      46:	0000                	unimp
      48:	0102                	c.slli64	sp
      4a:	7806                	flw	fa6,96(sp)
      4c:	0006                	c.slli	zero,0x1
      4e:	0200                	addi	s0,sp,256
      50:	0801                	addi	a6,a6,0
      52:	0676                	slli	a2,a2,0x1d
      54:	0000                	unimp
      56:	0202                	c.slli64	tp
      58:	0005                	c.nop	1
      5a:	0000                	unimp
      5c:	0200                	addi	s0,sp,256
      5e:	0702                	c.slli64	a4
      60:	0000032b          	0x32b
      64:	0402                	c.slli64	s0
      66:	2a05                	jal	196 <_start-0x7ffffe6a>
      68:	0002                	c.slli64	zero
      6a:	0200                	addi	s0,sp,256
      6c:	0704                	addi	s1,sp,896
      6e:	0310                	addi	a2,sp,384
      70:	0000                	unimp
      72:	8804                	0x8804
      74:	0004                	0x4
      76:	0200                	addi	s0,sp,256
      78:	0d0c                	addi	a1,sp,656
      7a:	00000033          	add	zero,zero,zero
      7e:	5804                	lw	s1,48(s0)
      80:	0004                	0x4
      82:	0300                	addi	s0,sp,384
      84:	0e2c                	addi	a1,sp,792
      86:	0064                	addi	s1,sp,12
      88:	0000                	unimp
      8a:	0904                	addi	s1,sp,144
      8c:	0006                	c.slli	zero,0x1
      8e:	0300                	addi	s0,sp,384
      90:	0e72                	slli	t3,t3,0x1c
      92:	0064                	addi	s1,sp,12
      94:	0000                	unimp
      96:	e004                	fsw	fs1,0(s0)
      98:	0006                	c.slli	zero,0x1
      9a:	0300                	addi	s0,sp,384
      9c:	1791                	addi	a5,a5,-28
      9e:	00000033          	add	zero,zero,zero
      a2:	8b05                	andi	a4,a4,1
      a4:	04000003          	lb	zero,64(zero) # 40 <_start-0x7fffffc0>
      a8:	0165                	addi	sp,sp,25
      aa:	00002c17          	auipc	s8,0x2
      ae:	0600                	addi	s0,sp,768
      b0:	0304                	addi	s1,sp,384
      b2:	03a6                	slli	t2,t2,0x9
      b4:	00d1                	addi	ra,ra,20
      b6:	0000                	unimp
      b8:	00037207          	vle.v	v4,(t1),v0.t
      bc:	0300                	addi	s0,sp,384
      be:	0ca8                	addi	a0,sp,600
      c0:	00a2                	slli	ra,ra,0x8
      c2:	0000                	unimp
      c4:	0002dd07          	vlhu.v	v26,(t0),v0.t
      c8:	0300                	addi	s0,sp,384
      ca:	13a9                	addi	t2,t2,-22
      cc:	00d1                	addi	ra,ra,20
      ce:	0000                	unimp
      d0:	0800                	addi	s0,sp,16
      d2:	0000004f          	fnmadd.s	ft0,ft0,ft0,ft0,rne
      d6:	00e1                	addi	ra,ra,24
      d8:	0000                	unimp
      da:	2c09                	jal	2ec <_start-0x7ffffd14>
      dc:	0000                	unimp
      de:	0300                	addi	s0,sp,384
      e0:	0a00                	addi	s0,sp,272
      e2:	0308                	addi	a0,sp,384
      e4:	010509a3          	sb	a6,19(a0)
      e8:	0000                	unimp
      ea:	0003dc0b          	0x3dc0b
      ee:	0300                	addi	s0,sp,384
      f0:	07a5                	addi	a5,a5,9
      f2:	00000033          	add	zero,zero,zero
      f6:	0b00                	addi	s0,sp,400
      f8:	000005fb          	0x5fb
      fc:	af05aa03          	lw	s4,-1296(a1)
     100:	0000                	unimp
     102:	0400                	addi	s0,sp,512
     104:	0400                	addi	s0,sp,512
     106:	047d                	addi	s0,s0,31
     108:	0000                	unimp
     10a:	e103ab03          	lw	s6,-496(t2)
     10e:	0000                	unimp
     110:	0400                	addi	s0,sp,512
     112:	04fe                	slli	s1,s1,0x1f
     114:	0000                	unimp
     116:	721baf03          	lw	t5,1825(s7)
     11a:	0000                	unimp
     11c:	0c00                	addi	s0,sp,528
     11e:	0404                	addi	s1,sp,512
     120:	0689                	addi	a3,a3,2
     122:	0000                	unimp
     124:	1605                	addi	a2,a2,-31
     126:	6b19                	lui	s6,0x6
     128:	0000                	unimp
     12a:	0d00                	addi	s0,sp,656
     12c:	0415                	addi	s0,s0,5
     12e:	0000                	unimp
     130:	0518                	addi	a4,sp,640
     132:	0185082f          	0x185082f
     136:	0000                	unimp
     138:	0007a00b          	0x7a00b
     13c:	0500                	addi	s0,sp,640
     13e:	1331                	addi	t1,t1,-20
     140:	0185                	addi	gp,gp,1
     142:	0000                	unimp
     144:	0e00                	addi	s0,sp,784
     146:	6b5f 0500 0732      	0x73205006b5f
     14c:	00000033          	add	zero,zero,zero
     150:	0b04                	addi	s1,sp,400
     152:	05d8                	addi	a4,sp,708
     154:	0000                	unimp
     156:	3205                	jal	fffffa76 <__global_pointer$+0x7fffd8f6>
     158:	0000330b          	0x330b
     15c:	0800                	addi	s0,sp,16
     15e:	0002810b          	0x2810b
     162:	0500                	addi	s0,sp,640
     164:	1432                	slli	s0,s0,0x2c
     166:	00000033          	add	zero,zero,zero
     16a:	0b0c                	addi	a1,sp,400
     16c:	00000207          	vlbu.v	v4,(zero),v0.t
     170:	3205                	jal	fffffa90 <__global_pointer$+0x7fffd910>
     172:	0000331b          	0x331b
     176:	1000                	addi	s0,sp,32
     178:	5f0e                	lw	t5,224(sp)
     17a:	0078                	addi	a4,sp,12
     17c:	3305                	jal	fffffe9c <__global_pointer$+0x7fffdd1c>
     17e:	00018b0b          	0x18b0b
     182:	1400                	addi	s0,sp,544
     184:	0f00                	addi	s0,sp,912
     186:	2b04                	fld	fs1,16(a4)
     188:	0001                	nop
     18a:	0800                	addi	s0,sp,16
     18c:	011f 0000 019b      	0x19b0000011f
     192:	0000                	unimp
     194:	2c09                	jal	3a6 <_start-0x7ffffc5a>
     196:	0000                	unimp
     198:	0000                	unimp
     19a:	0d00                	addi	s0,sp,656
     19c:	02c0                	addi	s0,sp,324
     19e:	0000                	unimp
     1a0:	0524                	addi	s1,sp,648
     1a2:	021e0837          	lui	a6,0x21e0
     1a6:	0000                	unimp
     1a8:	0000dd0b          	0xdd0b
     1ac:	0500                	addi	s0,sp,640
     1ae:	0939                	addi	s2,s2,14
     1b0:	00000033          	add	zero,zero,zero
     1b4:	0b00                	addi	s0,sp,400
     1b6:	073e                	slli	a4,a4,0xf
     1b8:	0000                	unimp
     1ba:	3a05                	jal	fffffaea <__global_pointer$+0x7fffd96a>
     1bc:	3309                	jal	fffffebe <__global_pointer$+0x7fffdd3e>
     1be:	0000                	unimp
     1c0:	0400                	addi	s0,sp,512
     1c2:	0001bd0b          	0x1bd0b
     1c6:	0500                	addi	s0,sp,640
     1c8:	0033093b          	0x33093b
     1cc:	0000                	unimp
     1ce:	0b08                	addi	a0,sp,400
     1d0:	0791                	addi	a5,a5,4
     1d2:	0000                	unimp
     1d4:	3c05                	jal	fffffc04 <__global_pointer$+0x7fffda84>
     1d6:	3309                	jal	fffffed8 <__global_pointer$+0x7fffdd58>
     1d8:	0000                	unimp
     1da:	0c00                	addi	s0,sp,528
     1dc:	0004320b          	0x4320b
     1e0:	0500                	addi	s0,sp,640
     1e2:	093d                	addi	s2,s2,15
     1e4:	00000033          	add	zero,zero,zero
     1e8:	0b10                	addi	a2,sp,400
     1ea:	03d2                	slli	t2,t2,0x14
     1ec:	0000                	unimp
     1ee:	3e05                	jal	fffffd1e <__global_pointer$+0x7fffdb9e>
     1f0:	3309                	jal	fffffef2 <__global_pointer$+0x7fffdd72>
     1f2:	0000                	unimp
     1f4:	1400                	addi	s0,sp,544
     1f6:	0006c90b          	0x6c90b
     1fa:	0500                	addi	s0,sp,640
     1fc:	0033093f 0b180000 	0xb1800000033093f
     204:	00000507          	vlbu.v	v10,(zero),v0.t
     208:	4005                	c.li	zero,1
     20a:	3309                	jal	ffffff0c <__global_pointer$+0x7fffdd8c>
     20c:	0000                	unimp
     20e:	1c00                	addi	s0,sp,560
     210:	0007240b          	0x7240b
     214:	0500                	addi	s0,sp,640
     216:	0941                	addi	s2,s2,16
     218:	00000033          	add	zero,zero,zero
     21c:	0020                	addi	s0,sp,8
     21e:	da10                	sw	a2,48(a2)
     220:	0001                	nop
     222:	0800                	addi	s0,sp,16
     224:	0501                	addi	a0,a0,0
     226:	084a                	slli	a6,a6,0x12
     228:	00000263          	beqz	zero,22c <_start-0x7ffffdd4>
     22c:	0002740b          	0x2740b
     230:	0500                	addi	s0,sp,640
     232:	02630a4b          	fnmsub.d	fs4,ft6,ft6,ft0,rne
     236:	0000                	unimp
     238:	0b00                	addi	s0,sp,400
     23a:	04da                	slli	s1,s1,0x16
     23c:	0000                	unimp
     23e:	4c05                	li	s8,1
     240:	6309                	lui	t1,0x2
     242:	0002                	c.slli64	zero
     244:	8000                	0x8000
     246:	6d11                	lui	s10,0x4
     248:	0006                	c.slli	zero,0x1
     24a:	0500                	addi	s0,sp,640
     24c:	0a4e                	slli	s4,s4,0x13
     24e:	011f 0000 0100      	0x1000000011f
     254:	ff11                	bnez	a4,170 <_start-0x7ffffe90>
     256:	0001                	nop
     258:	0500                	addi	s0,sp,640
     25a:	0a51                	addi	s4,s4,20
     25c:	011f 0000 0104      	0x1040000011f
     262:	0800                	addi	s0,sp,16
     264:	011d                	addi	sp,sp,7
     266:	0000                	unimp
     268:	00000273          	0x273
     26c:	2c09                	jal	47e <_start-0x7ffffb82>
     26e:	0000                	unimp
     270:	1f00                	addi	s0,sp,944
     272:	1000                	addi	s0,sp,32
     274:	0000043b          	0x43b
     278:	0190                	addi	a2,sp,192
     27a:	5d05                	li	s10,-31
     27c:	b608                	fsd	fa0,40(a2)
     27e:	0002                	c.slli64	zero
     280:	0b00                	addi	s0,sp,400
     282:	07a0                	addi	s0,sp,968
     284:	0000                	unimp
     286:	5e05                	li	t3,-31
     288:	b612                	fsd	ft4,296(sp)
     28a:	0002                	c.slli64	zero
     28c:	0000                	unimp
     28e:	0005bf0b          	0x5bf0b
     292:	0500                	addi	s0,sp,640
     294:	065f 0033 0000      	0x33065f
     29a:	0b04                	addi	s1,sp,400
     29c:	027c                	addi	a5,sp,268
     29e:	0000                	unimp
     2a0:	6105                	addi	sp,sp,32
     2a2:	bc09                	j	fffffcb4 <__global_pointer$+0x7fffdb34>
     2a4:	0002                	c.slli64	zero
     2a6:	0800                	addi	s0,sp,16
     2a8:	0001da0b          	0x1da0b
     2ac:	0500                	addi	s0,sp,640
     2ae:	1e62                	slli	t3,t3,0x38
     2b0:	021e                	slli	tp,tp,0x7
     2b2:	0000                	unimp
     2b4:	0088                	addi	a0,sp,64
     2b6:	0273040f          	0x273040f
     2ba:	0000                	unimp
     2bc:	cc08                	sw	a0,24(s0)
     2be:	0002                	c.slli64	zero
     2c0:	cc00                	sw	s0,24(s0)
     2c2:	0002                	c.slli64	zero
     2c4:	0900                	addi	s0,sp,144
     2c6:	002c                	addi	a1,sp,8
     2c8:	0000                	unimp
     2ca:	001f 040f 02d2      	0x2d2040f001f
     2d0:	0000                	unimp
     2d2:	0d12                	slli	s10,s10,0x4
     2d4:	078a                	slli	a5,a5,0x2
     2d6:	0000                	unimp
     2d8:	0508                	addi	a0,sp,640
     2da:	0875                	addi	a6,a6,29
     2dc:	000002fb          	0x2fb
     2e0:	0001b70b          	0x1b70b
     2e4:	0500                	addi	s0,sp,640
     2e6:	1176                	slli	sp,sp,0x3d
     2e8:	000002fb          	0x2fb
     2ec:	0b00                	addi	s0,sp,400
     2ee:	061a                	slli	a2,a2,0x6
     2f0:	0000                	unimp
     2f2:	7705                	lui	a4,0xfffe1
     2f4:	3306                	fld	ft6,96(sp)
     2f6:	0000                	unimp
     2f8:	0400                	addi	s0,sp,512
     2fa:	0f00                	addi	s0,sp,912
     2fc:	4f04                	lw	s1,24(a4)
     2fe:	0000                	unimp
     300:	0d00                	addi	s0,sp,656
     302:	001c                	0x1c
     304:	0000                	unimp
     306:	0568                	addi	a0,sp,652
     308:	08b5                	addi	a7,a7,13
     30a:	0444                	addi	s1,sp,516
     30c:	0000                	unimp
     30e:	5f0e                	lw	t5,224(sp)
     310:	0070                	addi	a2,sp,12
     312:	b605                	j	fffffe32 <__global_pointer$+0x7fffdcb2>
     314:	fb12                	fsw	ft4,180(sp)
     316:	0002                	c.slli64	zero
     318:	0000                	unimp
     31a:	5f0e                	lw	t5,224(sp)
     31c:	0072                	c.slli	zero,0x1c
     31e:	b705                	j	23e <_start-0x7ffffdc2>
     320:	00003307          	fld	ft6,0(zero) # 0 <_start-0x80000000>
     324:	0400                	addi	s0,sp,512
     326:	5f0e                	lw	t5,224(sp)
     328:	b8050077          	0xb8050077
     32c:	00003307          	fld	ft6,0(zero) # 0 <_start-0x80000000>
     330:	0800                	addi	s0,sp,16
     332:	0001f80b          	0x1f80b
     336:	0500                	addi	s0,sp,640
     338:	09b9                	addi	s3,s3,14
     33a:	0056                	c.slli	zero,0x15
     33c:	0000                	unimp
     33e:	0b0c                	addi	a1,sp,400
     340:	02ec                	addi	a1,sp,332
     342:	0000                	unimp
     344:	ba05                	j	fffffc74 <__global_pointer$+0x7fffdaf4>
     346:	5609                	li	a2,-30
     348:	0000                	unimp
     34a:	0e00                	addi	s0,sp,784
     34c:	5f0e                	lw	t5,224(sp)
     34e:	6662                	flw	fa2,24(sp)
     350:	0500                	addi	s0,sp,640
     352:	02d311bb          	0x2d311bb
     356:	0000                	unimp
     358:	0b10                	addi	a2,sp,400
     35a:	008d                	addi	ra,ra,3
     35c:	0000                	unimp
     35e:	bc05                	j	fffffd8e <__global_pointer$+0x7fffdc0e>
     360:	00003307          	fld	ft6,0(zero) # 0 <_start-0x80000000>
     364:	1800                	addi	s0,sp,48
     366:	0001e80b          	0x1e80b
     36a:	0500                	addi	s0,sp,640
     36c:	011d0ac3          	fmadd.s	fs5,fs10,fa7,ft0,rne
     370:	0000                	unimp
     372:	0b1c                	addi	a5,sp,400
     374:	049a                	slli	s1,s1,0x6
     376:	0000                	unimp
     378:	c505                	beqz	a0,3a0 <_start-0x7ffffc60>
     37a:	c81d                	beqz	s0,3b0 <_start-0x7ffffc50>
     37c:	0005                	c.nop	1
     37e:	2000                	fld	fs0,0(s0)
     380:	0003cb0b          	0x3cb0b
     384:	0500                	addi	s0,sp,640
     386:	05f71dc7          	0x5f71dc7
     38a:	0000                	unimp
     38c:	0b24                	addi	s1,sp,408
     38e:	00000603          	lb	a2,0(zero) # 0 <_start-0x80000000>
     392:	ca05                	beqz	a2,3c2 <_start-0x7ffffc3e>
     394:	1b0d                	addi	s6,s6,-29
     396:	0006                	c.slli	zero,0x1
     398:	2800                	fld	fs0,16(s0)
     39a:	0000e60b          	0xe60b
     39e:	0500                	addi	s0,sp,640
     3a0:	063509cb          	fnmsub.q	fs3,fa0,ft3,ft0,rne
     3a4:	0000                	unimp
     3a6:	0e2c                	addi	a1,sp,792
     3a8:	755f 0062 ce05      	0xce050062755f
     3ae:	d311                	beqz	a4,2b2 <_start-0x7ffffd4e>
     3b0:	0002                	c.slli64	zero
     3b2:	3000                	fld	fs0,32(s0)
     3b4:	5f0e                	lw	t5,224(sp)
     3b6:	7075                	c.lui	zero,0xffffd
     3b8:	0500                	addi	s0,sp,640
     3ba:	02fb12cf          	fnmadd.d	ft5,fs6,fa5,ft0,rtz
     3be:	0000                	unimp
     3c0:	0e38                	addi	a4,sp,792
     3c2:	755f 0072 d005      	0xd0050072755f
     3c8:	00003307          	fld	ft6,0(zero) # 0 <_start-0x80000000>
     3cc:	3c00                	fld	fs0,56(s0)
     3ce:	0001b10b          	0x1b10b
     3d2:	0500                	addi	s0,sp,640
     3d4:	063b11d3          	fadd.q	ft3,fs6,ft3,rtz
     3d8:	0000                	unimp
     3da:	0b40                	addi	s0,sp,404
     3dc:	070c                	addi	a1,sp,896
     3de:	0000                	unimp
     3e0:	d405                	beqz	s0,308 <_start-0x7ffffcf8>
     3e2:	4b11                	li	s6,4
     3e4:	0006                	c.slli	zero,0x1
     3e6:	4300                	lw	s0,0(a4)
     3e8:	5f0e                	lw	t5,224(sp)
     3ea:	626c                	flw	fa1,68(a2)
     3ec:	0500                	addi	s0,sp,640
     3ee:	02d311d7          	vfadd.vv	v3,v13,v6
     3f2:	0000                	unimp
     3f4:	0b44                	addi	s1,sp,404
     3f6:	0611                	addi	a2,a2,4
     3f8:	0000                	unimp
     3fa:	da05                	beqz	a2,32a <_start-0x7ffffcd6>
     3fc:	00003307          	fld	ft6,0(zero) # 0 <_start-0x80000000>
     400:	4c00                	lw	s0,24(s0)
     402:	00040d0b          	0x40d0b
     406:	0500                	addi	s0,sp,640
     408:	007e0adb          	0x7e0adb
     40c:	0000                	unimp
     40e:	0b50                	addi	a2,sp,404
     410:	005d                	c.nop	23
     412:	0000                	unimp
     414:	de05                	beqz	a2,34c <_start-0x7ffffcb4>
     416:	6212                	flw	ft4,4(sp)
     418:	0004                	0x4
     41a:	5400                	lw	s0,40(s0)
     41c:	0003920b          	0x3920b
     420:	0500                	addi	s0,sp,640
     422:	0ce2                	slli	s9,s9,0x18
     424:	0111                	addi	sp,sp,4
     426:	0000                	unimp
     428:	0b58                	addi	a4,sp,404
     42a:	02d4                	addi	a3,sp,324
     42c:	0000                	unimp
     42e:	e405                	bnez	s0,456 <_start-0x7ffffbaa>
     430:	050e                	slli	a0,a0,0x3
     432:	0001                	nop
     434:	5c00                	lw	s0,56(s0)
     436:	0005110b          	0x5110b
     43a:	0500                	addi	s0,sp,640
     43c:	09e5                	addi	s3,s3,25
     43e:	00000033          	add	zero,zero,zero
     442:	0064                	addi	s1,sp,12
     444:	00009613          	slli	a2,ra,0x0
     448:	6200                	flw	fs0,0(a2)
     44a:	0004                	0x4
     44c:	1400                	addi	s0,sp,544
     44e:	0462                	slli	s0,s0,0x18
     450:	0000                	unimp
     452:	1d14                	addi	a3,sp,688
     454:	0001                	nop
     456:	1400                	addi	s0,sp,544
     458:	05b6                	slli	a1,a1,0xd
     45a:	0000                	unimp
     45c:	3314                	fld	fa3,32(a4)
     45e:	0000                	unimp
     460:	0000                	unimp
     462:	046d040f          	0x46d040f
     466:	0000                	unimp
     468:	6215                	lui	tp,0x5
     46a:	0004                	0x4
     46c:	1600                	addi	s0,sp,800
     46e:	05e0                	addi	s0,sp,716
     470:	0000                	unimp
     472:	0428                	addi	a0,sp,520
     474:	6005                	c.lui	zero,0x1
     476:	0802                	c.slli64	a6
     478:	05b6                	slli	a1,a1,0xd
     47a:	0000                	unimp
     47c:	0004f717          	auipc	a4,0x4f
     480:	0500                	addi	s0,sp,640
     482:	0262                	slli	tp,tp,0x18
     484:	00003307          	fld	ft6,0(zero) # 0 <_start-0x80000000>
     488:	0000                	unimp
     48a:	0006d917          	auipc	s2,0x6d
     48e:	0500                	addi	s0,sp,640
     490:	a70b0267          	jalr	tp,-1424(s6) # 5a70 <_start-0x7fffa590>
     494:	0006                	c.slli	zero,0x1
     496:	0400                	addi	s0,sp,512
     498:	0006c117          	auipc	sp,0x6c
     49c:	0500                	addi	s0,sp,640
     49e:	a7140267          	jalr	tp,-1423(s0)
     4a2:	0006                	c.slli	zero,0x1
     4a4:	0800                	addi	s0,sp,16
     4a6:	00028717          	auipc	a4,0x28
     4aa:	0500                	addi	s0,sp,640
     4ac:	a71e0267          	jalr	tp,-1423(t3) # 19a71 <_start-0x7ffe658f>
     4b0:	0006                	c.slli	zero,0x1
     4b2:	0c00                	addi	s0,sp,528
     4b4:	0005ba17          	auipc	s4,0x5b
     4b8:	0500                	addi	s0,sp,640
     4ba:	0269                	addi	tp,tp,26
     4bc:	3308                	fld	fa0,32(a4)
     4be:	0000                	unimp
     4c0:	1000                	addi	s0,sp,32
     4c2:	00002c17          	auipc	s8,0x2
     4c6:	0500                	addi	s0,sp,640
     4c8:	026a                	slli	tp,tp,0x1a
     4ca:	a708                	fsd	fa0,8(a4)
     4cc:	0008                	0x8
     4ce:	1400                	addi	s0,sp,544
     4d0:	0002a717          	auipc	a4,0x2a
     4d4:	0500                	addi	s0,sp,640
     4d6:	026d                	addi	tp,tp,27
     4d8:	00003307          	fld	ft6,0(zero) # 0 <_start-0x80000000>
     4dc:	3000                	fld	fs0,32(s0)
     4de:	00077a17          	auipc	s4,0x77
     4e2:	0500                	addi	s0,sp,640
     4e4:	026e                	slli	tp,tp,0x1b
     4e6:	bc16                	fsd	ft5,56(sp)
     4e8:	0008                	0x8
     4ea:	3400                	fld	fs0,40(s0)
     4ec:	00044d17          	auipc	s10,0x44
     4f0:	0500                	addi	s0,sp,640
     4f2:	0270                	addi	a2,sp,268
     4f4:	00003307          	fld	ft6,0(zero) # 0 <_start-0x80000000>
     4f8:	3800                	fld	fs0,48(s0)
     4fa:	0005ce17          	auipc	t3,0x5c
     4fe:	0500                	addi	s0,sp,640
     500:	0272                	slli	tp,tp,0x1c
     502:	cd0a                	sw	sp,152(sp)
     504:	0008                	0x8
     506:	3c00                	fld	fs0,56(s0)
     508:	00036a17          	auipc	s4,0x36
     50c:	0500                	addi	s0,sp,640
     50e:	0275                	addi	tp,tp,29
     510:	00018513          	mv	a0,gp
     514:	4000                	lw	s0,0(s0)
     516:	00021317          	auipc	t1,0x21
     51a:	0500                	addi	s0,sp,640
     51c:	0276                	slli	tp,tp,0x1d
     51e:	00003307          	fld	ft6,0(zero) # 0 <_start-0x80000000>
     522:	4400                	lw	s0,8(s0)
     524:	00077517          	auipc	a0,0x77
     528:	0500                	addi	s0,sp,640
     52a:	85130277          	0x85130277
     52e:	0001                	nop
     530:	4800                	lw	s0,16(s0)
     532:	00046917          	auipc	s2,0x46
     536:	0500                	addi	s0,sp,640
     538:	0278                	addi	a4,sp,268
     53a:	d314                	sw	a3,32(a4)
     53c:	0008                	0x8
     53e:	4c00                	lw	s0,24(s0)
     540:	0002e417          	auipc	s0,0x2e
     544:	0500                	addi	s0,sp,640
     546:	3307027b          	0x3307027b
     54a:	0000                	unimp
     54c:	5000                	lw	s0,32(s0)
     54e:	00024017          	auipc	zero,0x24
     552:	0500                	addi	s0,sp,640
     554:	027c                	addi	a5,sp,268
     556:	b609                	j	58 <_start-0x7fffffa8>
     558:	0005                	c.nop	1
     55a:	5400                	lw	s0,40(s0)
     55c:	0004f017          	auipc	zero,0x4f
     560:	0500                	addi	s0,sp,640
     562:	029f 8207 0008      	0x88207029f
     568:	5800                	lw	s0,48(s0)
     56a:	3b18                	fld	fa4,48(a4)
     56c:	0004                	0x4
     56e:	0500                	addi	s0,sp,640
     570:	b61302a3          	sb	ra,-1179(t1) # 2107b <_start-0x7ffdef85>
     574:	0002                	c.slli64	zero
     576:	4800                	lw	s0,16(s0)
     578:	1801                	addi	a6,a6,-32
     57a:	0348                	addi	a0,sp,388
     57c:	0000                	unimp
     57e:	a405                	j	79e <_start-0x7ffff862>
     580:	1202                	slli	tp,tp,0x20
     582:	00000273          	0x273
     586:	014c                	addi	a1,sp,132
     588:	f318                	fsw	fa4,32(a4)
     58a:	0006                	c.slli	zero,0x1
     58c:	0500                	addi	s0,sp,640
     58e:	02a8                	addi	a0,sp,328
     590:	e40c                	fsw	fa1,8(s0)
     592:	0008                	0x8
     594:	dc00                	sw	s0,56(s0)
     596:	1802                	slli	a6,a6,0x20
     598:	01f0                	addi	a2,sp,204
     59a:	0000                	unimp
     59c:	ad05                	j	bcc <_start-0x7ffff434>
     59e:	1002                	c.slli	zero,0x20
     5a0:	0668                	addi	a0,sp,780
     5a2:	0000                	unimp
     5a4:	02e0                	addi	s0,sp,332
     5a6:	d518                	sw	a4,40(a0)
     5a8:	0001                	nop
     5aa:	0500                	addi	s0,sp,640
     5ac:	f00a02af          	0xf00a02af
     5b0:	0008                	0x8
     5b2:	ec00                	fsw	fs0,24(s0)
     5b4:	0002                	c.slli64	zero
     5b6:	05bc040f          	0x5bc040f
     5ba:	0000                	unimp
     5bc:	0102                	c.slli64	sp
     5be:	7f08                	flw	fa0,56(a4)
     5c0:	0006                	c.slli	zero,0x1
     5c2:	1500                	addi	s0,sp,672
     5c4:	05bc                	addi	a5,sp,712
     5c6:	0000                	unimp
     5c8:	0444040f          	0x444040f
     5cc:	0000                	unimp
     5ce:	00009613          	slli	a2,ra,0x0
     5d2:	ec00                	fsw	fs0,24(s0)
     5d4:	0005                	c.nop	1
     5d6:	1400                	addi	s0,sp,544
     5d8:	0462                	slli	s0,s0,0x18
     5da:	0000                	unimp
     5dc:	1d14                	addi	a3,sp,688
     5de:	0001                	nop
     5e0:	1400                	addi	s0,sp,544
     5e2:	05ec                	addi	a1,sp,716
     5e4:	0000                	unimp
     5e6:	3314                	fld	fa3,32(a4)
     5e8:	0000                	unimp
     5ea:	0000                	unimp
     5ec:	05c3040f          	0x5c3040f
     5f0:	0000                	unimp
     5f2:	ec15                	bnez	s0,62e <_start-0x7ffff9d2>
     5f4:	0005                	c.nop	1
     5f6:	0f00                	addi	s0,sp,912
     5f8:	ce04                	sw	s1,24(a2)
     5fa:	0005                	c.nop	1
     5fc:	1300                	addi	s0,sp,416
     5fe:	008a                	slli	ra,ra,0x2
     600:	0000                	unimp
     602:	0000061b          	0x61b
     606:	6214                	flw	fa3,0(a2)
     608:	0004                	0x4
     60a:	1400                	addi	s0,sp,544
     60c:	011d                	addi	sp,sp,7
     60e:	0000                	unimp
     610:	8a14                	0x8a14
     612:	0000                	unimp
     614:	1400                	addi	s0,sp,544
     616:	00000033          	add	zero,zero,zero
     61a:	0f00                	addi	s0,sp,912
     61c:	fd04                	fsw	fs1,56(a0)
     61e:	0005                	c.nop	1
     620:	1300                	addi	s0,sp,416
     622:	00000033          	add	zero,zero,zero
     626:	0635                	addi	a2,a2,13
     628:	0000                	unimp
     62a:	6214                	flw	fa3,0(a2)
     62c:	0004                	0x4
     62e:	1400                	addi	s0,sp,544
     630:	011d                	addi	sp,sp,7
     632:	0000                	unimp
     634:	0f00                	addi	s0,sp,912
     636:	2104                	fld	fs1,0(a0)
     638:	0006                	c.slli	zero,0x1
     63a:	0800                	addi	s0,sp,16
     63c:	0000004f          	fnmadd.s	ft0,ft0,ft0,ft0,rne
     640:	0000064b          	fnmsub.s	fa2,ft0,ft0,ft0,rne
     644:	2c09                	jal	856 <_start-0x7ffff7aa>
     646:	0000                	unimp
     648:	0200                	addi	s0,sp,256
     64a:	0800                	addi	s0,sp,16
     64c:	0000004f          	fnmadd.s	ft0,ft0,ft0,ft0,rne
     650:	0000065b          	0x65b
     654:	2c09                	jal	866 <_start-0x7ffff79a>
     656:	0000                	unimp
     658:	0000                	unimp
     65a:	0500                	addi	s0,sp,640
     65c:	020c                	addi	a1,sp,256
     65e:	0000                	unimp
     660:	1f05                	addi	t5,t5,-31
     662:	1a01                	addi	s4,s4,-32
     664:	0301                	addi	t1,t1,0
     666:	0000                	unimp
     668:	d319                	beqz	a4,56e <_start-0x7ffffa92>
     66a:	0006                	c.slli	zero,0x1
     66c:	0c00                	addi	s0,sp,528
     66e:	2305                	jal	b8e <_start-0x7ffff472>
     670:	0801                	addi	a6,a6,0
     672:	06a1                	addi	a3,a3,8
     674:	0000                	unimp
     676:	0007a017          	auipc	zero,0x7a
     67a:	0500                	addi	s0,sp,640
     67c:	0125                	addi	sp,sp,9
     67e:	a111                	j	a82 <_start-0x7ffff57e>
     680:	0006                	c.slli	zero,0x1
     682:	0000                	unimp
     684:	00030417          	auipc	s0,0x30
     688:	0500                	addi	s0,sp,640
     68a:	0126                	slli	sp,sp,0x9
     68c:	00003307          	fld	ft6,0(zero) # 0 <_start-0x80000000>
     690:	0400                	addi	s0,sp,512
     692:	00051917          	auipc	s2,0x51
     696:	0500                	addi	s0,sp,640
     698:	a70b0127          	0xa70b0127
     69c:	0006                	c.slli	zero,0x1
     69e:	0800                	addi	s0,sp,16
     6a0:	0f00                	addi	s0,sp,912
     6a2:	6804                	flw	fs1,16(s0)
     6a4:	0006                	c.slli	zero,0x1
     6a6:	0f00                	addi	s0,sp,912
     6a8:	5b04                	lw	s1,48(a4)
     6aa:	0006                	c.slli	zero,0x1
     6ac:	1900                	addi	s0,sp,176
     6ae:	0024                	addi	s1,sp,8
     6b0:	0000                	unimp
     6b2:	050e                	slli	a0,a0,0x3
     6b4:	e608013f 17000006 	0x17000006e608013f
     6bc:	063d                	addi	a2,a2,15
     6be:	0000                	unimp
     6c0:	4005                	c.li	zero,1
     6c2:	1201                	addi	tp,tp,-32
     6c4:	06e6                	slli	a3,a3,0x19
     6c6:	0000                	unimp
     6c8:	1700                	addi	s0,sp,928
     6ca:	03a8                	addi	a0,sp,456
     6cc:	0000                	unimp
     6ce:	4105                	li	sp,1
     6d0:	1201                	addi	tp,tp,-32
     6d2:	06e6                	slli	a3,a3,0x19
     6d4:	0000                	unimp
     6d6:	1706                	slli	a4,a4,0x21
     6d8:	0684                	addi	s1,sp,832
     6da:	0000                	unimp
     6dc:	4205                	li	tp,1
     6de:	1201                	addi	tp,tp,-32
     6e0:	005d                	c.nop	23
     6e2:	0000                	unimp
     6e4:	000c                	0xc
     6e6:	5d08                	lw	a0,56(a0)
     6e8:	0000                	unimp
     6ea:	f600                	fsw	fs0,40(a2)
     6ec:	0006                	c.slli	zero,0x1
     6ee:	0900                	addi	s0,sp,144
     6f0:	002c                	addi	a1,sp,8
     6f2:	0000                	unimp
     6f4:	0002                	c.slli64	zero
     6f6:	d01a                	sw	t1,32(sp)
     6f8:	8005                	srli	s0,s0,0x1
     6fa:	0702                	c.slli64	a4
     6fc:	0000080b          	0x80b
     700:	0003e417          	auipc	s0,0x3e
     704:	0500                	addi	s0,sp,640
     706:	0282                	c.slli64	t0
     708:	2c18                	fld	fa4,24(s0)
     70a:	0000                	unimp
     70c:	0000                	unimp
     70e:	00065917          	auipc	s2,0x65
     712:	0500                	addi	s0,sp,640
     714:	b6120283          	lb	t0,-1183(tp) # 4b61 <_start-0x7fffb49f>
     718:	0005                	c.nop	1
     71a:	0400                	addi	s0,sp,512
     71c:	00035d17          	auipc	s10,0x35
     720:	0500                	addi	s0,sp,640
     722:	0284                	addi	s1,sp,320
     724:	0b10                	addi	a2,sp,400
     726:	0008                	0x8
     728:	0800                	addi	s0,sp,16
     72a:	00072f17          	auipc	t5,0x72
     72e:	0500                	addi	s0,sp,640
     730:	0285                	addi	t0,t0,1
     732:	00019b17          	auipc	s6,0x19
     736:	2400                	fld	fs0,8(s0)
     738:	00028f17          	auipc	t5,0x28
     73c:	0500                	addi	s0,sp,640
     73e:	0286                	slli	t0,t0,0x1
     740:	0000330f          	0x330f
     744:	4800                	lw	s0,16(s0)
     746:	00079b17          	auipc	s6,0x79
     74a:	0500                	addi	s0,sp,640
     74c:	252c0287          	0x252c0287
     750:	0000                	unimp
     752:	5000                	lw	s0,32(s0)
     754:	00074717          	auipc	a4,0x74
     758:	0500                	addi	s0,sp,640
     75a:	0288                	addi	a0,sp,320
     75c:	ad1a                	fsd	ft6,152(sp)
     75e:	0006                	c.slli	zero,0x1
     760:	5800                	lw	s0,48(s0)
     762:	0005ad17          	auipc	s10,0x5a
     766:	0500                	addi	s0,sp,640
     768:	0289                	addi	t0,t0,2
     76a:	0516                	slli	a0,a0,0x5
     76c:	0001                	nop
     76e:	6800                	flw	fs0,16(s0)
     770:	00076717          	auipc	a4,0x76
     774:	0500                	addi	s0,sp,640
     776:	028a                	slli	t0,t0,0x2
     778:	0516                	slli	a0,a0,0x5
     77a:	0001                	nop
     77c:	7000                	flw	fs0,32(s0)
     77e:	0001c717          	auipc	a4,0x1c
     782:	0500                	addi	s0,sp,640
     784:	0516028b          	0x516028b
     788:	0001                	nop
     78a:	7800                	flw	fs0,48(s0)
     78c:	0006e917          	auipc	s2,0x6e
     790:	0500                	addi	s0,sp,640
     792:	028c                	addi	a1,sp,320
     794:	1b10                	addi	a2,sp,432
     796:	0008                	0x8
     798:	8000                	0x8000
     79a:	00035117          	auipc	sp,0x35
     79e:	0500                	addi	s0,sp,640
     7a0:	028d                	addi	t0,t0,3
     7a2:	2b10                	fld	fa2,16(a4)
     7a4:	0008                	0x8
     7a6:	8800                	0x8800
     7a8:	00005017          	auipc	zero,0x5
     7ac:	0500                	addi	s0,sp,640
     7ae:	028e                	slli	t0,t0,0x3
     7b0:	0000330f          	0x330f
     7b4:	a000                	fsd	fs0,0(s0)
     7b6:	00025917          	auipc	s2,0x25
     7ba:	0500                	addi	s0,sp,640
     7bc:	0516028f          	0x516028f
     7c0:	0001                	nop
     7c2:	a400                	fsd	fs0,8(s0)
     7c4:	0000c617          	auipc	a2,0xc
     7c8:	0500                	addi	s0,sp,640
     7ca:	0290                	addi	a2,sp,320
     7cc:	0516                	slli	a0,a0,0x5
     7ce:	0001                	nop
     7d0:	ac00                	fsd	fs0,24(s0)
     7d2:	00024817          	auipc	a6,0x24
     7d6:	0500                	addi	s0,sp,640
     7d8:	0291                	addi	t0,t0,4
     7da:	0516                	slli	a0,a0,0x5
     7dc:	0001                	nop
     7de:	b400                	fsd	fs0,40(s0)
     7e0:	00006317          	auipc	t1,0x6
     7e4:	0500                	addi	s0,sp,640
     7e6:	0292                	slli	t0,t0,0x4
     7e8:	0516                	slli	a0,a0,0x5
     7ea:	0001                	nop
     7ec:	bc00                	fsd	fs0,56(s0)
     7ee:	00007217          	auipc	tp,0x7
     7f2:	0500                	addi	s0,sp,640
     7f4:	05160293          	addi	t0,a2,81 # c815 <_start-0x7fff37eb>
     7f8:	0001                	nop
     7fa:	c400                	sw	s0,8(s0)
     7fc:	0004f517          	auipc	a0,0x4f
     800:	0500                	addi	s0,sp,640
     802:	0294                	addi	a3,sp,320
     804:	3308                	fld	fa0,32(a4)
     806:	0000                	unimp
     808:	cc00                	sw	s0,24(s0)
     80a:	0800                	addi	s0,sp,16
     80c:	05bc                	addi	a5,sp,712
     80e:	0000                	unimp
     810:	0000081b          	0x81b
     814:	2c09                	jal	a26 <_start-0x7ffff5da>
     816:	0000                	unimp
     818:	1900                	addi	s0,sp,176
     81a:	0800                	addi	s0,sp,16
     81c:	05bc                	addi	a5,sp,712
     81e:	0000                	unimp
     820:	0000082b          	0x82b
     824:	2c09                	jal	a36 <_start-0x7ffff5ca>
     826:	0000                	unimp
     828:	0700                	addi	s0,sp,896
     82a:	0800                	addi	s0,sp,16
     82c:	05bc                	addi	a5,sp,712
     82e:	0000                	unimp
     830:	0000083b          	0x83b
     834:	2c09                	jal	a46 <_start-0x7ffff5ba>
     836:	0000                	unimp
     838:	1700                	addi	s0,sp,928
     83a:	1a00                	addi	s0,sp,304
     83c:	05f0                	addi	a2,sp,716
     83e:	0299                	addi	t0,t0,6
     840:	00086207          	vlwu.v	v4,(a6),v0.t
     844:	1700                	addi	s0,sp,928
     846:	041d                	addi	s0,s0,7
     848:	0000                	unimp
     84a:	9c05                	0x9c05
     84c:	1b02                	slli	s6,s6,0x20
     84e:	0862                	slli	a6,a6,0x18
     850:	0000                	unimp
     852:	1700                	addi	s0,sp,928
     854:	029e                	slli	t0,t0,0x7
     856:	0000                	unimp
     858:	9d05                	0x9d05
     85a:	1802                	slli	a6,a6,0x20
     85c:	0872                	slli	a6,a6,0x1c
     85e:	0000                	unimp
     860:	0078                	addi	a4,sp,12
     862:	fb08                	fsw	fa0,48(a4)
     864:	0002                	c.slli64	zero
     866:	7200                	flw	fs0,32(a2)
     868:	0008                	0x8
     86a:	0900                	addi	s0,sp,144
     86c:	002c                	addi	a1,sp,8
     86e:	0000                	unimp
     870:	001d                	c.nop	7
     872:	2c08                	fld	fa0,24(s0)
     874:	0000                	unimp
     876:	8200                	0x8200
     878:	0008                	0x8
     87a:	0900                	addi	s0,sp,144
     87c:	002c                	addi	a1,sp,8
     87e:	0000                	unimp
     880:	001d                	c.nop	7
     882:	7e05f01b          	0x7e05f01b
     886:	0302                	c.slli64	t1
     888:	000008a7          	vsb.v	v17,(zero),v0.t
     88c:	e01c                	fsw	fa5,0(s0)
     88e:	0005                	c.nop	1
     890:	0500                	addi	s0,sp,640
     892:	0295                	addi	t0,t0,5
     894:	0006f60b          	0x6f60b
     898:	1c00                	addi	s0,sp,560
     89a:	0712                	slli	a4,a4,0x4
     89c:	0000                	unimp
     89e:	9e05                	0x9e05
     8a0:	0b02                	c.slli64	s6
     8a2:	0000083b          	0x83b
     8a6:	0800                	addi	s0,sp,16
     8a8:	05bc                	addi	a5,sp,712
     8aa:	0000                	unimp
     8ac:	000008b7          	lui	a7,0x0
     8b0:	2c09                	jal	ac2 <_start-0x7ffff53e>
     8b2:	0000                	unimp
     8b4:	1800                	addi	s0,sp,48
     8b6:	1d00                	addi	s0,sp,688
     8b8:	000000bb          	0xbb
     8bc:	08b7040f          	0x8b7040f
     8c0:	0000                	unimp
     8c2:	cd1e                	sw	t2,152(sp)
     8c4:	0008                	0x8
     8c6:	1400                	addi	s0,sp,544
     8c8:	0462                	slli	s0,s0,0x18
     8ca:	0000                	unimp
     8cc:	0f00                	addi	s0,sp,912
     8ce:	c204                	sw	s1,0(a2)
     8d0:	0008                	0x8
     8d2:	0f00                	addi	s0,sp,912
     8d4:	8504                	0x8504
     8d6:	0001                	nop
     8d8:	1e00                	addi	s0,sp,816
     8da:	08e4                	addi	s1,sp,92
     8dc:	0000                	unimp
     8de:	3314                	fld	fa3,32(a4)
     8e0:	0000                	unimp
     8e2:	0000                	unimp
     8e4:	08ea040f          	0x8ea040f
     8e8:	0000                	unimp
     8ea:	08d9040f          	0x8d9040f
     8ee:	0000                	unimp
     8f0:	5b08                	lw	a0,48(a4)
     8f2:	0006                	c.slli	zero,0x1
     8f4:	0000                	unimp
     8f6:	0009                	c.nop	2
     8f8:	0900                	addi	s0,sp,144
     8fa:	002c                	addi	a1,sp,8
     8fc:	0000                	unimp
     8fe:	0002                	c.slli64	zero
     900:	ad1f 0006 0500      	0x5000006ad1f
     906:	032e                	slli	t1,t1,0xb
     908:	00046217          	auipc	tp,0x46
     90c:	1f00                	addi	s0,sp,944
     90e:	06a6                	slli	a3,a3,0x9
     910:	0000                	unimp
     912:	2f05                	jal	1042 <_start-0x7fffefbe>
     914:	04681d03          	lh	s10,70(a6) # 24818 <_start-0x7ffdb7e8>
     918:	0000                	unimp
     91a:	f208                	fsw	fa0,32(a2)
     91c:	0005                	c.nop	1
     91e:	2500                	fld	fs0,8(a0)
     920:	0009                	c.nop	2
     922:	2000                	fld	fs0,0(s0)
     924:	1500                	addi	s0,sp,672
     926:	091a                	slli	s2,s2,0x6
     928:	0000                	unimp
     92a:	3321                	jal	632 <_start-0x7ffff9ce>
     92c:	0002                	c.slli64	zero
     92e:	0600                	addi	s0,sp,768
     930:	2414                	fld	fa3,8(s0)
     932:	0925                	addi	s2,s2,9
     934:	0000                	unimp
     936:	a321                	j	e3e <_start-0x7ffff1c2>
     938:	0005                	c.nop	1
     93a:	0600                	addi	s0,sp,768
     93c:	1515                	addi	a0,a0,-27
     93e:	00000033          	add	zero,zero,zero
     942:	0948040f          	0x948040f
     946:	0000                	unimp
     948:	00003313          	sltiu	t1,zero,0
     94c:	5c00                	lw	s0,56(s0)
     94e:	0009                	c.nop	2
     950:	1400                	addi	s0,sp,544
     952:	095c                	addi	a5,sp,148
     954:	0000                	unimp
     956:	5c14                	lw	a3,56(s0)
     958:	0009                	c.nop	2
     95a:	0000                	unimp
     95c:	0962040f          	0x962040f
     960:	0000                	unimp
     962:	2122                	fld	ft2,8(sp)
     964:	00000443          	fmadd.s	fs0,ft0,ft0,ft0,rne
     968:	b60e6707          	0xb60e6707
     96c:	0005                	c.nop	1
     96e:	2100                	fld	fs0,0(a0)
     970:	00000383          	lb	t2,0(zero) # 0 <_start-0x80000000>
     974:	1008                	addi	a0,sp,32
     976:	00097b0f          	0x97b0f
     97a:	0f00                	addi	s0,sp,912
     97c:	b604                	fsd	fs1,40(a2)
     97e:	0005                	c.nop	1
     980:	2100                	fld	fs0,0(a0)
     982:	0446                	slli	s0,s0,0x11
     984:	0000                	unimp
     986:	fc08                	fsw	fa0,56(s0)
     988:	b60e                	fsd	ft3,296(sp)
     98a:	0005                	c.nop	1
     98c:	2100                	fld	fs0,0(a0)
     98e:	0096                	slli	ra,ra,0x5
     990:	0000                	unimp
     992:	fd08                	fsw	fa0,56(a0)
     994:	330c                	fld	fa1,32(a4)
     996:	0000                	unimp
     998:	2100                	fld	fs0,0(a0)
     99a:	00000643          	fmadd.s	fa2,ft0,ft0,ft0,rne
     99e:	fd08                	fsw	fa0,56(a0)
     9a0:	3314                	fld	fa3,32(a4)
     9a2:	0000                	unimp
     9a4:	2100                	fld	fs0,0(a0)
     9a6:	0756                	slli	a4,a4,0x15
     9a8:	0000                	unimp
     9aa:	fd08                	fsw	fa0,56(a0)
     9ac:	331c                	fld	fa5,32(a4)
     9ae:	0000                	unimp
     9b0:	2100                	fld	fs0,0(a0)
     9b2:	03c2                	slli	t2,t2,0x10
     9b4:	0000                	unimp
     9b6:	ff08                	fsw	fa0,56(a4)
     9b8:	330c                	fld	fa1,32(a4)
     9ba:	0000                	unimp
     9bc:	2100                	fld	fs0,0(a0)
     9be:	00000473          	0x473
     9c2:	9a09                	andi	a2,a2,-30
     9c4:	6416                	flw	fs0,68(sp)
     9c6:	0000                	unimp
     9c8:	2100                	fld	fs0,0(a0)
     9ca:	00000037          	lui	zero,0x0
     9ce:	9b09                	andi	a4,a4,-30
     9d0:	3315                	jal	6f4 <_start-0x7ffff90c>
     9d2:	0000                	unimp
     9d4:	0800                	addi	s0,sp,16
     9d6:	05b6                	slli	a1,a1,0xd
     9d8:	0000                	unimp
     9da:	09e5                	addi	s3,s3,25
     9dc:	0000                	unimp
     9de:	2c09                	jal	bf0 <_start-0x7ffff410>
     9e0:	0000                	unimp
     9e2:	0100                	addi	s0,sp,128
     9e4:	2100                	fld	fs0,0(a0)
     9e6:	00d5                	addi	ra,ra,21
     9e8:	0000                	unimp
     9ea:	9e09                	0x9e09
     9ec:	0009d517          	auipc	a0,0x9d
     9f0:	0400                	addi	s0,sp,512
     9f2:	02f2                	slli	t0,t0,0x1c
     9f4:	0000                	unimp
     9f6:	2a0a                	fld	fs4,128(sp)
     9f8:	2c16                	fld	fs8,320(sp)
     9fa:	0000                	unimp
     9fc:	0400                	addi	s0,sp,512
     9fe:	0529                	addi	a0,a0,10
     a00:	0000                	unimp
     a02:	2f0a                	fld	ft10,128(sp)
     a04:	0915                	addi	s2,s2,5
     a06:	000a                	c.slli	zero,0x2
     a08:	0f00                	addi	s0,sp,912
     a0a:	0f04                	addi	s1,sp,912
     a0c:	000a                	c.slli	zero,0x2
     a0e:	1300                	addi	s0,sp,416
     a10:	09f1                	addi	s3,s3,28
     a12:	0000                	unimp
     a14:	0a1e                	slli	s4,s4,0x7
     a16:	0000                	unimp
     a18:	5c14                	lw	a3,56(s0)
     a1a:	0009                	c.nop	2
     a1c:	0000                	unimp
     a1e:	a604                	fsd	fs1,8(a2)
     a20:	0a000007          	vlsbu.v	v0,(zero),zero
     a24:	0f36                	slli	t5,t5,0xd
     a26:	0942                	slli	s2,s2,0x10
     a28:	0000                	unimp
     a2a:	0a21                	addi	s4,s4,8
     a2c:	0000                	unimp
     a2e:	0a00                	addi	s0,sp,272
     a30:	09fd12bb          	0x9fd12bb
     a34:	0000                	unimp
     a36:	9121                	srli	a0,a0,0x28
     a38:	0006                	c.slli	zero,0x1
     a3a:	0a00                	addi	s0,sp,272
     a3c:	10be                	slli	ra,ra,0x2f
     a3e:	0a1e                	slli	s4,s4,0x7
     a40:	0000                	unimp
     a42:	0002c523          	0x2c523
     a46:	0700                	addi	s0,sp,896
     a48:	2c04                	fld	fs1,24(s0)
     a4a:	0000                	unimp
     a4c:	0b00                	addi	s0,sp,400
     a4e:	0618                	addi	a4,sp,768
     a50:	0a7f                	0xa7f
     a52:	0000                	unimp
     a54:	d024                	sw	s1,96(s0)
     a56:	0004                	0x4
     a58:	0000                	unimp
     a5a:	9d24                	0x9d24
     a5c:	01000003          	lb	zero,16(zero) # 10 <_start-0x7ffffff0>
     a60:	7824                	flw	fs1,112(s0)
     a62:	02000003          	lb	zero,32(zero) # 20 <_start-0x7fffffe0>
     a66:	f124                	fsw	fs1,96(a0)
     a68:	03000003          	lb	zero,48(zero) # 30 <_start-0x7fffffd0>
     a6c:	c724                	sw	s1,72(a4)
     a6e:	0004                	0x4
     a70:	0400                	addi	s0,sp,512
     a72:	5d24                	lw	s1,120(a0)
     a74:	05000007          	0x5000007
     a78:	4c24                	lw	s1,88(s0)
     a7a:	06000007          	0x6000007
     a7e:	2100                	fld	fs0,0(a0)
     a80:	00b1                	addi	ra,ra,12
     a82:	0000                	unimp
     a84:	421c210b          	0x421c210b
     a88:	000a                	c.slli	zero,0x2
     a8a:	2300                	fld	fs0,0(a4)
     a8c:	03fc                	addi	a5,sp,460
     a8e:	0000                	unimp
     a90:	002c0407          	0x2c0407
     a94:	0000                	unimp
     a96:	b006230b          	0xb006230b
     a9a:	000a                	c.slli	zero,0x2
     a9c:	2400                	fld	fs0,8(s0)
     a9e:	051f 0000 2400      	0x24000000051f
     aa4:	04e6                	slli	s1,s1,0x19
     aa6:	0000                	unimp
     aa8:	2401                	jal	ca8 <_start-0x7ffff358>
     aaa:	0666                	slli	a2,a2,0x19
     aac:	0000                	unimp
     aae:	0002                	c.slli64	zero
     ab0:	6721                	lui	a4,0x8
     ab2:	0002                	c.slli64	zero
     ab4:	0b00                	addi	s0,sp,400
     ab6:	1e28                	addi	a0,sp,824
     ab8:	00000a8b          	0xa8b
     abc:	b321                	j	7c4 <_start-0x7ffff83c>
     abe:	0c000003          	lb	zero,192(zero) # c0 <_start-0x7fffff40>
     ac2:	1a29                	addi	s4,s4,-22
     ac4:	0925                	addi	s2,s2,9
     ac6:	0000                	unimp
     ac8:	2d21                	jal	10e0 <_start-0x7fffef20>
     aca:	0006                	c.slli	zero,0x1
     acc:	0c00                	addi	s0,sp,528
     ace:	1a38                	addi	a4,sp,312
     ad0:	0925                	addi	s2,s2,9
     ad2:	0000                	unimp
     ad4:	8204                	0x8204
     ad6:	0d000007          	vlxbu.v	v0,(zero),v16,v0.t
     ada:	004f167b          	0x4f167b
     ade:	0000                	unimp
     ae0:	d415                	beqz	s0,a0c <_start-0x7ffff5f4>
     ae2:	000a                	c.slli	zero,0x2
     ae4:	0400                	addi	s0,sp,512
     ae6:	021e                	slli	tp,tp,0x7
     ae8:	0000                	unimp
     aea:	800d                	srli	s0,s0,0x3
     aec:	0000330f          	0x330f
     af0:	0400                	addi	s0,sp,512
     af2:	021d                	addi	tp,tp,7
     af4:	0000                	unimp
     af6:	810d                	srli	a0,a0,0x3
     af8:	2c16                	fld	fs8,320(sp)
     afa:	0000                	unimp
     afc:	0400                	addi	s0,sp,512
     afe:	06ba                	slli	a3,a3,0xe
     b00:	0000                	unimp
     b02:	840d                	srai	s0,s0,0x3
     b04:	00003a0f          	0x3a0f
     b08:	0400                	addi	s0,sp,512
     b0a:	06b9                	addi	a3,a3,14
     b0c:	0000                	unimp
     b0e:	850d                	srai	a0,a0,0x3
     b10:	2516                	fld	fa0,320(sp)
     b12:	0000                	unimp
     b14:	0200                	addi	s0,sp,256
     b16:	0404                	addi	s1,sp,512
     b18:	042c                	addi	a1,sp,520
     b1a:	0000                	unimp
     b1c:	0802                	c.slli64	a6
     b1e:	00042403          	lw	s0,0(s0) # 3e700 <_start-0x7ffc1900>
     b22:	0200                	addi	s0,sp,256
     b24:	0408                	addi	a0,sp,512
     b26:	00aa                	slli	ra,ra,0xa
     b28:	0000                	unimp
     b2a:	1002                	c.slli	zero,0x20
     b2c:	00004103          	lbu	sp,0(zero) # 0 <_start-0x80000000>
     b30:	0200                	addi	s0,sp,256
     b32:	0320                	addi	s0,sp,392
     b34:	009d                	addi	ra,ra,7
     b36:	0000                	unimp
     b38:	2219                	jal	c3e <_start-0x7ffff3c2>
     b3a:	08000003          	lb	zero,128(zero) # 80 <_start-0x7fffff80>
     b3e:	ed0d                	bnez	a0,b78 <_start-0x7ffff488>
     b40:	0a01                	addi	s4,s4,0
     b42:	00000b63          	beqz	zero,b58 <_start-0x7ffff4a8>
     b46:	6c25                	lui	s8,0x9
     b48:	0d00776f          	jal	a4,7c18 <_start-0x7fff83e8>
     b4c:	01ed                	addi	gp,gp,27
     b4e:	e51a                	fsw	ft6,136(sp)
     b50:	000a                	c.slli	zero,0x2
     b52:	0000                	unimp
     b54:	00064a17          	auipc	s4,0x64
     b58:	0d00                	addi	s0,sp,656
     b5a:	01ed                	addi	gp,gp,27
     b5c:	e51f 000a 0400      	0x400000ae51f
     b62:	1b00                	addi	s0,sp,432
     b64:	0d08                	addi	a0,sp,656
     b66:	01f4                	addi	a3,sp,204
     b68:	8509                	srai	a0,a0,0x2
     b6a:	2600000b          	0x2600000b
     b6e:	f60d0073          	0xf60d0073
     b72:	1301                	addi	t1,t1,-32
     b74:	0b38                	addi	a4,sp,408
     b76:	0000                	unimp
     b78:	6c26                	flw	fs8,72(sp)
     b7a:	006c                	addi	a1,sp,12
     b7c:	f70d                	bnez	a4,aa6 <_start-0x7ffff55a>
     b7e:	0a01                	addi	s4,s4,0
     b80:	0afd                	addi	s5,s5,31
     b82:	0000                	unimp
     b84:	0500                	addi	s0,sp,640
     b86:	02fc                	addi	a5,sp,332
     b88:	0000                	unimp
     b8a:	f80d                	bnez	s0,abc <_start-0x7ffff544>
     b8c:	0301                	addi	t1,t1,0
     b8e:	00000b63          	beqz	zero,ba4 <_start-0x7ffff45c>
     b92:	8515                	srai	a0,a0,0x5
     b94:	0800000b          	0x800000b
     b98:	0ae0                	addi	s0,sp,348
     b9a:	0000                	unimp
     b9c:	00000ba7          	vsb.v	v23,(zero),v0.t
     ba0:	2c09                	jal	db2 <_start-0x7ffff24e>
     ba2:	0000                	unimp
     ba4:	ff00                	fsw	fs0,56(a4)
     ba6:	1500                	addi	s0,sp,672
     ba8:	00000b97          	auipc	s7,0x0
     bac:	fd1f 0006 0d00      	0xd000006fd1f
     bb2:	01fc                	addi	a5,sp,204
     bb4:	a716                	fsd	ft5,392(sp)
     bb6:	1f00000b          	0x1f00000b
     bba:	033e                	slli	t1,t1,0xf
     bbc:	0000                	unimp
     bbe:	020d                	addi	tp,tp,3
     bc0:	1602                	slli	a2,a2,0x20
     bc2:	00000ba7          	vsb.v	v23,(zero),v0.t
     bc6:	0005c427          	fsq	ft0,8(a1)
     bca:	0100                	addi	s0,sp,128
     bcc:	0526                	slli	a0,a0,0x9
     bce:	0901                	addi	s2,s2,0
     bd0:	0000000b          	0xb
     bd4:	0000                	unimp
     bd6:	0000                	unimp
     bd8:	0000                	unimp
     bda:	0100                	addi	s0,sp,128
     bdc:	a29c                	fsd	fa5,0(a3)
     bde:	000e                	c.slli	zero,0x3
     be0:	2800                	fld	fs0,16(s0)
     be2:	006e                	c.slli	zero,0x1b
     be4:	2601                	jal	ee4 <_start-0x7ffff11c>
     be6:	1405                	addi	s0,s0,-31
     be8:	0b09                	addi	s6,s6,2
     bea:	0000                	unimp
     bec:	0000                	unimp
     bee:	0000                	unimp
     bf0:	6428                	flw	fa0,72(s0)
     bf2:	0100                	addi	s0,sp,128
     bf4:	0526                	slli	a0,a0,0x9
     bf6:	091f 000b b800      	0xb800000b091f
     bfc:	0000                	unimp
     bfe:	2900                	fld	fs0,16(a0)
     c00:	0ea2                	slli	t4,t4,0x8
	...
     c0a:	0000                	unimp
     c0c:	2801                	jal	c1c <_start-0x7ffff3e4>
     c0e:	0a05                	addi	s4,s4,1
     c10:	ca2a                	sw	a0,20(sp)
     c12:	000e                	c.slli	zero,0x3
     c14:	5000                	lw	s0,32(s0)
     c16:	0001                	nop
     c18:	2a00                	fld	fs0,16(a2)
     c1a:	00000ebf 00000170 	0x17000000ebf
     c22:	b42a                	fsd	fa0,40(sp)
     c24:	000e                	c.slli	zero,0x3
     c26:	0800                	addi	s0,sp,16
     c28:	0002                	c.slli64	zero
     c2a:	2b00                	fld	fs0,16(a4)
     c2c:	0000                	unimp
     c2e:	0000                	unimp
     c30:	d62c                	sw	a1,104(a2)
     c32:	000e                	c.slli	zero,0x3
     c34:	2c00                	fld	fs0,24(s0)
     c36:	0ee2                	slli	t4,t4,0x18
     c38:	0000                	unimp
     c3a:	ee2c                	fsw	fa1,88(a2)
     c3c:	000e                	c.slli	zero,0x3
     c3e:	2d00                	fld	fs0,24(a0)
     c40:	0efa                	slli	t4,t4,0x1e
     c42:	0000                	unimp
     c44:	02c0                	addi	s0,sp,324
     c46:	0000                	unimp
     c48:	062d                	addi	a2,a2,11
     c4a:	5b00000f          	0x5b00000f
     c4e:	2d000003          	lb	zero,720(zero) # 2d0 <_start-0x7ffffd30>
     c52:	0f12                	slli	t5,t5,0x4
     c54:	0000                	unimp
     c56:	03d1                	addi	t2,t2,20
     c58:	0000                	unimp
     c5a:	1e2d                	addi	t3,t3,-21
     c5c:	4100000f          	0x4100000f
     c60:	0004                	0x4
     c62:	2d00                	fld	fs0,24(a0)
     c64:	0f2a                	slli	t5,t5,0xa
     c66:	0000                	unimp
     c68:	04ee                	slli	s1,s1,0x1b
     c6a:	0000                	unimp
     c6c:	362d                	jal	796 <_start-0x7ffff86a>
     c6e:	0c00000f          	fence	io,unknown
     c72:	0005                	c.nop	1
     c74:	2d00                	fld	fs0,24(a0)
     c76:	0f42                	slli	t5,t5,0x10
     c78:	0000                	unimp
     c7a:	052a                	slli	a0,a0,0xa
     c7c:	0000                	unimp
     c7e:	4e2d                	li	t3,11
     c80:	5400000f          	0x5400000f
     c84:	0005                	c.nop	1
     c86:	2d00                	fld	fs0,24(a0)
     c88:	0f59                	addi	t5,t5,22
     c8a:	0000                	unimp
     c8c:	0572                	slli	a0,a0,0x1c
     c8e:	0000                	unimp
     c90:	652c                	flw	fa1,72(a0)
     c92:	2e00000f          	0x2e00000f
     c96:	0f71                	addi	t5,t5,28
     c98:	0000                	unimp
     c9a:	0028                	addi	a0,sp,8
     c9c:	0000                	unimp
     c9e:	0cb5                	addi	s9,s9,13
     ca0:	0000                	unimp
     ca2:	762d                	lui	a2,0xfffeb
     ca4:	b100000f          	0xb100000f
     ca8:	0005                	c.nop	1
     caa:	2d00                	fld	fs0,24(a0)
     cac:	00000f83          	lb	t6,0(zero) # 0 <_start-0x80000000>
     cb0:	05ed                	addi	a1,a1,27
     cb2:	0000                	unimp
     cb4:	2f00                	fld	fs0,24(a4)
     cb6:	0f91                	addi	t6,t6,4
	...
     cc0:	0000                	unimp
     cc2:	0d06                	slli	s10,s10,0x1
     cc4:	0000                	unimp
     cc6:	962d                	srai	a2,a2,0x2b
     cc8:	0000000f          	fence	unknown,unknown
     ccc:	0006                	c.slli	zero,0x1
     cce:	2d00                	fld	fs0,24(a0)
     cd0:	00000fa3          	sb	zero,31(zero) # 1f <_start-0x7fffffe1>
     cd4:	0622                	slli	a2,a2,0x8
     cd6:	0000                	unimp
     cd8:	b02d                	j	502 <_start-0x7ffffafe>
     cda:	3500000f          	0x3500000f
     cde:	0006                	c.slli	zero,0x1
     ce0:	2d00                	fld	fs0,24(a0)
     ce2:	0fbd                	addi	t6,t6,15
     ce4:	0000                	unimp
     ce6:	00000653          	fadd.s	fa2,ft0,ft0,rne
     cea:	ca2d                	beqz	a2,d5c <_start-0x7ffff2a4>
     cec:	7100000f          	0x7100000f
     cf0:	0006                	c.slli	zero,0x1
     cf2:	2d00                	fld	fs0,24(a0)
     cf4:	00000fd7          	vadd.vv	v31,v0,v0,v0.t
     cf8:	069a                	slli	a3,a3,0x6
     cfa:	0000                	unimp
     cfc:	e42d                	bnez	s0,d66 <_start-0x7ffff29a>
     cfe:	b800000f          	0xb800000f
     d02:	0006                	c.slli	zero,0x1
     d04:	0000                	unimp
     d06:	072e                	slli	a4,a4,0xb
     d08:	0011                	c.nop	4
     d0a:	4000                	lw	s0,0(s0)
     d0c:	0000                	unimp
     d0e:	c500                	sw	s0,8(a0)
     d10:	000d                	c.nop	3
     d12:	2d00                	fld	fs0,24(a0)
     d14:	1108                	addi	a0,sp,160
     d16:	0000                	unimp
     d18:	06e6                	slli	a3,a3,0x19
     d1a:	0000                	unimp
     d1c:	142d                	addi	s0,s0,-21
     d1e:	0011                	c.nop	4
     d20:	f900                	fsw	fs0,48(a0)
     d22:	0006                	c.slli	zero,0x1
     d24:	2e00                	fld	fs0,24(a2)
     d26:	1120                	addi	s0,sp,168
     d28:	0000                	unimp
     d2a:	0058                	addi	a4,sp,4
     d2c:	0000                	unimp
     d2e:	0d72                	slli	s10,s10,0x1c
     d30:	0000                	unimp
     d32:	252d                	jal	135c <_start-0x7fffeca4>
     d34:	0011                	c.nop	4
     d36:	3a00                	fld	fs0,48(a2)
     d38:	2d000007          	vlxseg2bu.v	v0,(zero),v16,v0.t
     d3c:	1132                	slli	sp,sp,0x2c
     d3e:	0000                	unimp
     d40:	075c                	addi	a5,sp,900
     d42:	0000                	unimp
     d44:	3f2d                	jal	c7e <_start-0x7ffff382>
     d46:	0011                	c.nop	4
     d48:	8000                	0x8000
     d4a:	2d000007          	vlxseg2bu.v	v0,(zero),v16,v0.t
     d4e:	114c                	addi	a1,sp,164
     d50:	0000                	unimp
     d52:	079e                	slli	a5,a5,0x7
     d54:	0000                	unimp
     d56:	592d                	li	s2,-21
     d58:	0011                	c.nop	4
     d5a:	bc00                	fsd	fs0,56(s0)
     d5c:	2d000007          	vlxseg2bu.v	v0,(zero),v16,v0.t
     d60:	1166                	slli	sp,sp,0x39
     d62:	0000                	unimp
     d64:	000007f7          	0x7f7
     d68:	732d                	lui	t1,0xfffeb
     d6a:	0011                	c.nop	4
     d6c:	3400                	fld	fs0,40(s0)
     d6e:	0008                	0x8
     d70:	0000                	unimp
     d72:	8130                	0x8130
     d74:	0011                	c.nop	4
     d76:	8800                	0x8800
     d78:	0000                	unimp
     d7a:	2d00                	fld	fs0,24(a0)
     d7c:	1186                	slli	gp,gp,0x21
     d7e:	0000                	unimp
     d80:	0866                	slli	a6,a6,0x19
     d82:	0000                	unimp
     d84:	932d                	srli	a4,a4,0x2b
     d86:	0011                	c.nop	4
     d88:	7900                	flw	fs0,48(a0)
     d8a:	0008                	0x8
     d8c:	2d00                	fld	fs0,24(a0)
     d8e:	11a0                	addi	s0,sp,232
     d90:	0000                	unimp
     d92:	08cc                	addi	a1,sp,84
     d94:	0000                	unimp
     d96:	ad2d                	j	13d0 <_start-0x7fffec30>
     d98:	0011                	c.nop	4
     d9a:	df00                	sw	s0,56(a4)
     d9c:	0008                	0x8
     d9e:	2d00                	fld	fs0,24(a0)
     da0:	11ba                	slli	gp,gp,0x2e
     da2:	0000                	unimp
     da4:	08f2                	slli	a7,a7,0x1c
     da6:	0000                	unimp
     da8:	c72d                	beqz	a4,e12 <_start-0x7ffff1ee>
     daa:	0011                	c.nop	4
     dac:	4500                	lw	s0,8(a0)
     dae:	0009                	c.nop	2
     db0:	2d00                	fld	fs0,24(a0)
     db2:	11d4                	addi	a3,sp,228
     db4:	0000                	unimp
     db6:	0958                	addi	a4,sp,148
     db8:	0000                	unimp
     dba:	e12d                	bnez	a0,e1c <_start-0x7ffff1e4>
     dbc:	0011                	c.nop	4
     dbe:	8900                	0x8900
     dc0:	0009                	c.nop	2
     dc2:	0000                	unimp
     dc4:	2e00                	fld	fs0,24(a2)
     dc6:	0ff2                	slli	t6,t6,0x1c
     dc8:	0000                	unimp
     dca:	00b0                	addi	a2,sp,72
     dcc:	0000                	unimp
     dce:	0de5                	addi	s11,s11,25
     dd0:	0000                	unimp
     dd2:	f72d                	bnez	a4,d3c <_start-0x7ffff2c4>
     dd4:	9c00000f          	0x9c00000f
     dd8:	0009                	c.nop	2
     dda:	2d00                	fld	fs0,24(a0)
     ddc:	1004                	addi	s1,sp,32
     dde:	0000                	unimp
     de0:	09d8                	addi	a4,sp,212
     de2:	0000                	unimp
     de4:	2f00                	fld	fs0,24(a4)
     de6:	00001073          	csrw	ustatus,zero
	...
     df2:	0e36                	slli	t3,t3,0xd
     df4:	0000                	unimp
     df6:	782d                	lui	a6,0xfffeb
     df8:	0010                	0x10
     dfa:	f600                	fsw	fs0,40(a2)
     dfc:	0009                	c.nop	2
     dfe:	2d00                	fld	fs0,24(a0)
     e00:	1085                	addi	ra,ra,-31
     e02:	0000                	unimp
     e04:	0a09                	addi	s4,s4,2
     e06:	0000                	unimp
     e08:	922d                	srli	a2,a2,0x2b
     e0a:	0010                	0x10
     e0c:	2d00                	fld	fs0,24(a0)
     e0e:	000a                	c.slli	zero,0x2
     e10:	2d00                	fld	fs0,24(a0)
     e12:	109f 0000 0a4b      	0xa4b0000109f
     e18:	0000                	unimp
     e1a:	ac2d                	j	1054 <_start-0x7fffefac>
     e1c:	0010                	0x10
     e1e:	6900                	flw	fs0,16(a0)
     e20:	000a                	c.slli	zero,0x2
     e22:	2d00                	fld	fs0,24(a0)
     e24:	10b9                	addi	ra,ra,-18
     e26:	0000                	unimp
     e28:	0a92                	slli	s5,s5,0x4
     e2a:	0000                	unimp
     e2c:	c62d                	beqz	a2,e96 <_start-0x7ffff16a>
     e2e:	0010                	0x10
     e30:	b000                	fsd	fs0,32(s0)
     e32:	000a                	c.slli	zero,0x2
     e34:	0000                	unimp
     e36:	122e                	slli	tp,tp,0x2b
     e38:	0010                	0x10
     e3a:	c800                	sw	s0,16(s0)
     e3c:	0000                	unimp
     e3e:	8300                	0x8300
     e40:	000e                	c.slli	zero,0x3
     e42:	2d00                	fld	fs0,24(a0)
     e44:	00001017          	auipc	zero,0x1
     e48:	0ace                	slli	s5,s5,0x13
     e4a:	0000                	unimp
     e4c:	242d                	jal	1076 <_start-0x7fffef8a>
     e4e:	0010                	0x10
     e50:	e100                	fsw	fs0,0(a0)
     e52:	000a                	c.slli	zero,0x2
     e54:	2d00                	fld	fs0,24(a0)
     e56:	1031                	c.nop	-20
     e58:	0000                	unimp
     e5a:	0b05                	addi	s6,s6,1
     e5c:	0000                	unimp
     e5e:	3e2d                	jal	998 <_start-0x7ffff668>
     e60:	0010                	0x10
     e62:	2300                	fld	fs0,0(a4)
     e64:	2d00000b          	0x2d00000b
     e68:	0000104b          	fnmsub.s	ft0,ft0,ft0,ft0,rtz
     e6c:	0b41                	addi	s6,s6,16
     e6e:	0000                	unimp
     e70:	582d                	li	a6,-21
     e72:	0010                	0x10
     e74:	7500                	flw	fs0,40(a0)
     e76:	2d00000b          	0x2d00000b
     e7a:	1065                	c.nop	-7
     e7c:	0000                	unimp
     e7e:	0b9e                	slli	s7,s7,0x7
     e80:	0000                	unimp
     e82:	3000                	fld	fs0,32(s0)
     e84:	10d4                	addi	a3,sp,100
     e86:	0000                	unimp
     e88:	00e8                	addi	a0,sp,76
     e8a:	0000                	unimp
     e8c:	d92d                	beqz	a0,dfe <_start-0x7ffff202>
     e8e:	0010                	0x10
     e90:	e000                	fsw	fs0,0(s0)
     e92:	2d00000b          	0x2d00000b
     e96:	10e6                	slli	ra,ra,0x39
     e98:	0000                	unimp
     e9a:	0bfe                	slli	s7,s7,0x1f
     e9c:	0000                	unimp
     e9e:	0000                	unimp
     ea0:	0000                	unimp
     ea2:	2031                	jal	eae <_start-0x7ffff152>
     ea4:	0006                	c.slli	zero,0x1
     ea6:	0100                	addi	s0,sp,128
     ea8:	090103f7          	0x90103f7
     eac:	0300000b          	0x300000b
     eb0:	00001213          	slli	tp,zero,0x0
     eb4:	6e32                	flw	ft8,12(sp)
     eb6:	0100                	addi	s0,sp,128
     eb8:	091703f7          	0x91703f7
     ebc:	3200000b          	0x3200000b
     ec0:	0064                	addi	s1,sp,12
     ec2:	f701                	bnez	a4,dca <_start-0x7ffff236>
     ec4:	0b092203          	lw	tp,176(s2) # 25866 <_start-0x7ffda79a>
     ec8:	0000                	unimp
     eca:	7232                	flw	ft4,44(sp)
     ecc:	0070                	addi	a2,sp,12
     ece:	f701                	bnez	a4,dd6 <_start-0x7ffff22a>
     ed0:	12132e03          	lw	t3,289(t1) # fffeb121 <__global_pointer$+0x7ffe8fa1>
     ed4:	0000                	unimp
     ed6:	006e6e33          	or	t3,t3,t1
     eda:	f901                	bnez	a0,dea <_start-0x7ffff216>
     edc:	0b921103          	lh	sp,185(tp) # 469c1 <_start-0x7ffb963f>
     ee0:	0000                	unimp
     ee2:	00646433          	or	s0,s0,t1
     ee6:	fa01                	bnez	a2,df6 <_start-0x7ffff20a>
     ee8:	0b921103          	lh	sp,185(tp) # b9 <_start-0x7fffff47>
     eec:	0000                	unimp
     eee:	00727233          	and	tp,tp,t2
     ef2:	fb01                	bnez	a4,e02 <_start-0x7ffff1fe>
     ef4:	0b850b03          	lb	s6,184(a0) # 9daa4 <_start-0x7ff6255c>
     ef8:	0000                	unimp
     efa:	00306433          	or	s0,zero,gp
     efe:	fc01                	bnez	s0,e16 <_start-0x7ffff1ea>
     f00:	0af10a03          	lb	s4,175(sp) # 35849 <_start-0x7ffca7b7>
     f04:	0000                	unimp
     f06:	00316433          	or	s0,sp,gp
     f0a:	fc01                	bnez	s0,e22 <_start-0x7ffff1de>
     f0c:	0af10e03          	lb	t3,175(sp)
     f10:	0000                	unimp
     f12:	00306e33          	or	t3,zero,gp
     f16:	fc01                	bnez	s0,e2e <_start-0x7ffff1d2>
     f18:	0af11203          	lh	tp,175(sp)
     f1c:	0000                	unimp
     f1e:	00316e33          	or	t3,sp,gp
     f22:	fc01                	bnez	s0,e3a <_start-0x7ffff1c6>
     f24:	0af11603          	lh	a2,175(sp)
     f28:	0000                	unimp
     f2a:	00326e33          	or	t3,tp,gp
     f2e:	fc01                	bnez	s0,e46 <_start-0x7ffff1ba>
     f30:	0af11a03          	lh	s4,175(sp)
     f34:	0000                	unimp
     f36:	00307133          	and	sp,zero,gp
     f3a:	fd01                	bnez	a0,e52 <_start-0x7ffff1ae>
     f3c:	0af10a03          	lb	s4,175(sp)
     f40:	0000                	unimp
     f42:	00317133          	and	sp,sp,gp
     f46:	fd01                	bnez	a0,e5e <_start-0x7ffff1a2>
     f48:	0af10e03          	lb	t3,175(sp)
     f4c:	0000                	unimp
     f4e:	01006233          	or	tp,zero,a6
     f52:	03fe                	slli	t2,t2,0x1f
     f54:	f10a                	fsw	ft2,160(sp)
     f56:	000a                	c.slli	zero,0x2
     f58:	3300                	fld	fs0,32(a4)
     f5a:	6d62                	flw	fs10,24(sp)
     f5c:	0100                	addi	s0,sp,128
     f5e:	03fe                	slli	t2,t2,0x1f
     f60:	f10d                	bnez	a0,e82 <_start-0x7ffff17e>
     f62:	000a                	c.slli	zero,0x2
     f64:	3300                	fld	fs0,32(a4)
     f66:	01007777          	0x1007777
     f6a:	921104c7          	fmsub.d	fs1,ft2,ft1,fs2,rne
     f6e:	3400000b          	0x3400000b
     f72:	0f91                	addi	t6,t6,4
     f74:	0000                	unimp
     f76:	a135                	j	13a2 <_start-0x7fffec5e>
     f78:	0006                	c.slli	zero,0x1
     f7a:	0100                	addi	s0,sp,128
     f7c:	042e                	slli	s0,s0,0xb
     f7e:	f104                	fsw	fs1,32(a0)
     f80:	000a                	c.slli	zero,0x2
     f82:	3300                	fld	fs0,32(a4)
     f84:	5f5f 0061 2e01      	0x2e0100615f5f
     f8a:	0404                	addi	s1,sp,512
     f8c:	0af1                	addi	s5,s5,28
     f8e:	0000                	unimp
     f90:	3400                	fld	fs0,40(s0)
     f92:	0ff2                	slli	t6,t6,0x1c
     f94:	0000                	unimp
     f96:	8835                	andi	s0,s0,13
     f98:	0000                	unimp
     f9a:	0100                	addi	s0,sp,128
     f9c:	043a                	slli	s0,s0,0xe
     f9e:	f104                	fsw	fs1,32(a0)
     fa0:	000a                	c.slli	zero,0x2
     fa2:	3500                	fld	fs0,40(a0)
     fa4:	00000083          	lb	ra,0(zero) # 0 <_start-0x80000000>
     fa8:	3a01                	jal	8b8 <_start-0x7ffff748>
     faa:	0404                	addi	s1,sp,512
     fac:	0af1                	addi	s5,s5,28
     fae:	0000                	unimp
     fb0:	5435                	li	s0,-19
     fb2:	0006                	c.slli	zero,0x1
     fb4:	0100                	addi	s0,sp,128
     fb6:	043a                	slli	s0,s0,0xe
     fb8:	f104                	fsw	fs1,32(a0)
     fba:	000a                	c.slli	zero,0x2
     fbc:	3500                	fld	fs0,40(a0)
     fbe:	0000064f          	fnmadd.s	fa2,ft0,ft0,ft0,rne
     fc2:	3a01                	jal	8d2 <_start-0x7ffff72e>
     fc4:	0404                	addi	s1,sp,512
     fc6:	0af1                	addi	s5,s5,28
     fc8:	0000                	unimp
     fca:	1f35                	addi	t5,t5,-19
     fcc:	01000007          	vlbuff.v	v0,(zero),v0.t
     fd0:	043a                	slli	s0,s0,0xe
     fd2:	f104                	fsw	fs1,32(a0)
     fd4:	000a                	c.slli	zero,0x2
     fd6:	3500                	fld	fs0,40(a0)
     fd8:	071a                	slli	a4,a4,0x6
     fda:	0000                	unimp
     fdc:	3a01                	jal	8ec <_start-0x7ffff714>
     fde:	0404                	addi	s1,sp,512
     fe0:	0af1                	addi	s5,s5,28
     fe2:	0000                	unimp
     fe4:	6d5f5f33          	0x6d5f5f33
     fe8:	0100                	addi	s0,sp,128
     fea:	043a                	slli	s0,s0,0xe
     fec:	f104                	fsw	fs1,32(a0)
     fee:	000a                	c.slli	zero,0x2
     ff0:	0000                	unimp
     ff2:	1234                	addi	a3,sp,296
     ff4:	0010                	0x10
     ff6:	3500                	fld	fs0,40(a0)
     ff8:	06a1                	addi	a3,a3,8
     ffa:	0000                	unimp
     ffc:	4601                	li	a2,0
     ffe:	0404                	addi	s1,sp,512
    1000:	0af1                	addi	s5,s5,28
    1002:	0000                	unimp
    1004:	615f5f33          	0x615f5f33
    1008:	0100                	addi	s0,sp,128
    100a:	0446                	slli	s0,s0,0x11
    100c:	f104                	fsw	fs1,32(a0)
    100e:	000a                	c.slli	zero,0x2
    1010:	0000                	unimp
    1012:	7334                	flw	fa3,96(a4)
    1014:	0010                	0x10
    1016:	3500                	fld	fs0,40(a0)
    1018:	0088                	addi	a0,sp,64
    101a:	0000                	unimp
    101c:	5f01                	li	t5,-32
    101e:	0804                	addi	s1,sp,16
    1020:	0af1                	addi	s5,s5,28
    1022:	0000                	unimp
    1024:	8335                	srli	a4,a4,0xd
    1026:	0000                	unimp
    1028:	0100                	addi	s0,sp,128
    102a:	045f f108 000a      	0xaf108045f
    1030:	3500                	fld	fs0,40(a0)
    1032:	0654                	addi	a3,sp,772
    1034:	0000                	unimp
    1036:	5f01                	li	t5,-32
    1038:	0804                	addi	s1,sp,16
    103a:	0af1                	addi	s5,s5,28
    103c:	0000                	unimp
    103e:	4f35                	li	t5,13
    1040:	0006                	c.slli	zero,0x1
    1042:	0100                	addi	s0,sp,128
    1044:	045f f108 000a      	0xaf108045f
    104a:	3500                	fld	fs0,40(a0)
    104c:	071f 0000 5f01      	0x5f010000071f
    1052:	0804                	addi	s1,sp,16
    1054:	0af1                	addi	s5,s5,28
    1056:	0000                	unimp
    1058:	1a35                	addi	s4,s4,-19
    105a:	01000007          	vlbuff.v	v0,(zero),v0.t
    105e:	045f f108 000a      	0xaf108045f
    1064:	3300                	fld	fs0,32(a4)
    1066:	5f5f 006d 5f01      	0x5f01006d5f5f
    106c:	0804                	addi	s1,sp,16
    106e:	0af1                	addi	s5,s5,28
    1070:	0000                	unimp
    1072:	3400                	fld	fs0,40(s0)
    1074:	10d4                	addi	a3,sp,100
    1076:	0000                	unimp
    1078:	8835                	andi	s0,s0,13
    107a:	0000                	unimp
    107c:	0100                	addi	s0,sp,128
    107e:	0464                	addi	s1,sp,524
    1080:	f104                	fsw	fs1,32(a0)
    1082:	000a                	c.slli	zero,0x2
    1084:	3500                	fld	fs0,40(a0)
    1086:	00000083          	lb	ra,0(zero) # 0 <_start-0x80000000>
    108a:	6401                	0x6401
    108c:	0404                	addi	s1,sp,512
    108e:	0af1                	addi	s5,s5,28
    1090:	0000                	unimp
    1092:	5435                	li	s0,-19
    1094:	0006                	c.slli	zero,0x1
    1096:	0100                	addi	s0,sp,128
    1098:	0464                	addi	s1,sp,524
    109a:	f104                	fsw	fs1,32(a0)
    109c:	000a                	c.slli	zero,0x2
    109e:	3500                	fld	fs0,40(a0)
    10a0:	0000064f          	fnmadd.s	fa2,ft0,ft0,ft0,rne
    10a4:	6401                	0x6401
    10a6:	0404                	addi	s1,sp,512
    10a8:	0af1                	addi	s5,s5,28
    10aa:	0000                	unimp
    10ac:	1f35                	addi	t5,t5,-19
    10ae:	01000007          	vlbuff.v	v0,(zero),v0.t
    10b2:	0464                	addi	s1,sp,524
    10b4:	f104                	fsw	fs1,32(a0)
    10b6:	000a                	c.slli	zero,0x2
    10b8:	3500                	fld	fs0,40(a0)
    10ba:	071a                	slli	a4,a4,0x6
    10bc:	0000                	unimp
    10be:	6401                	0x6401
    10c0:	0404                	addi	s1,sp,512
    10c2:	0af1                	addi	s5,s5,28
    10c4:	0000                	unimp
    10c6:	6d5f5f33          	0x6d5f5f33
    10ca:	0100                	addi	s0,sp,128
    10cc:	0464                	addi	s1,sp,524
    10ce:	f104                	fsw	fs1,32(a0)
    10d0:	000a                	c.slli	zero,0x2
    10d2:	0000                	unimp
    10d4:	f434                	fsw	fa3,104(s0)
    10d6:	0010                	0x10
    10d8:	3500                	fld	fs0,40(a0)
    10da:	06a1                	addi	a3,a3,8
    10dc:	0000                	unimp
    10de:	8701                	c.srai64	a4
    10e0:	0404                	addi	s1,sp,512
    10e2:	0af1                	addi	s5,s5,28
    10e4:	0000                	unimp
    10e6:	615f5f33          	0x615f5f33
    10ea:	0100                	addi	s0,sp,128
    10ec:	f1040487          	vlseg8bff.v	v9,(s0),v0.t
    10f0:	000a                	c.slli	zero,0x2
    10f2:	0000                	unimp
    10f4:	0734                	addi	a3,sp,904
    10f6:	0011                	c.nop	4
    10f8:	3300                	fld	fs0,32(a4)
    10fa:	5f5f 0078 9501      	0x950100785f5f
    1100:	0504                	addi	s1,sp,640
    1102:	0af1                	addi	s5,s5,28
    1104:	0000                	unimp
    1106:	3600                	fld	fs0,40(a2)
    1108:	00316d33          	or	s10,sp,gp
    110c:	a501                	j	170c <_start-0x7fffe8f4>
    110e:	0f04                	addi	s1,sp,912
    1110:	0af1                	addi	s5,s5,28
    1112:	0000                	unimp
    1114:	00306d33          	or	s10,zero,gp
    1118:	a501                	j	1718 <_start-0x7fffe8e8>
    111a:	1304                	addi	s1,sp,416
    111c:	0af1                	addi	s5,s5,28
    111e:	0000                	unimp
    1120:	8134                	0x8134
    1122:	0011                	c.nop	4
    1124:	3500                	fld	fs0,40(a0)
    1126:	0088                	addi	a0,sp,64
    1128:	0000                	unimp
    112a:	b001                	j	92a <_start-0x7ffff6d6>
    112c:	0804                	addi	s1,sp,16
    112e:	0af1                	addi	s5,s5,28
    1130:	0000                	unimp
    1132:	8335                	srli	a4,a4,0xd
    1134:	0000                	unimp
    1136:	0100                	addi	s0,sp,128
    1138:	04b0                	addi	a2,sp,584
    113a:	f108                	fsw	fa0,32(a0)
    113c:	000a                	c.slli	zero,0x2
    113e:	3500                	fld	fs0,40(a0)
    1140:	0654                	addi	a3,sp,772
    1142:	0000                	unimp
    1144:	b001                	j	944 <_start-0x7ffff6bc>
    1146:	0804                	addi	s1,sp,16
    1148:	0af1                	addi	s5,s5,28
    114a:	0000                	unimp
    114c:	4f35                	li	t5,13
    114e:	0006                	c.slli	zero,0x1
    1150:	0100                	addi	s0,sp,128
    1152:	04b0                	addi	a2,sp,584
    1154:	f108                	fsw	fa0,32(a0)
    1156:	000a                	c.slli	zero,0x2
    1158:	3500                	fld	fs0,40(a0)
    115a:	071f 0000 b001      	0xb0010000071f
    1160:	0804                	addi	s1,sp,16
    1162:	0af1                	addi	s5,s5,28
    1164:	0000                	unimp
    1166:	1a35                	addi	s4,s4,-19
    1168:	01000007          	vlbuff.v	v0,(zero),v0.t
    116c:	04b0                	addi	a2,sp,584
    116e:	f108                	fsw	fa0,32(a0)
    1170:	000a                	c.slli	zero,0x2
    1172:	3300                	fld	fs0,32(a4)
    1174:	5f5f 006d b001      	0xb001006d5f5f
    117a:	0804                	addi	s1,sp,16
    117c:	0af1                	addi	s5,s5,28
    117e:	0000                	unimp
    1180:	3400                	fld	fs0,40(s0)
    1182:	000011ef          	jal	gp,2182 <_start-0x7fffde7e>
    1186:	e735                	bnez	a4,11f2 <_start-0x7fffee0e>
    1188:	0005                	c.nop	1
    118a:	0100                	addi	s0,sp,128
    118c:	04b1                	addi	s1,s1,12
    118e:	f108                	fsw	fa0,32(a0)
    1190:	000a                	c.slli	zero,0x2
    1192:	3500                	fld	fs0,40(a0)
    1194:	05ec                	addi	a1,sp,716
    1196:	0000                	unimp
    1198:	b101                	j	d98 <_start-0x7ffff268>
    119a:	0804                	addi	s1,sp,16
    119c:	0af1                	addi	s5,s5,28
    119e:	0000                	unimp
    11a0:	f135                	bnez	a0,1104 <_start-0x7fffeefc>
    11a2:	0005                	c.nop	1
    11a4:	0100                	addi	s0,sp,128
    11a6:	04b1                	addi	s1,s1,12
    11a8:	f108                	fsw	fa0,32(a0)
    11aa:	000a                	c.slli	zero,0x2
    11ac:	3500                	fld	fs0,40(a0)
    11ae:	05f6                	slli	a1,a1,0x1d
    11b0:	0000                	unimp
    11b2:	b101                	j	db2 <_start-0x7ffff24e>
    11b4:	0804                	addi	s1,sp,16
    11b6:	0af1                	addi	s5,s5,28
    11b8:	0000                	unimp
    11ba:	ae35                	j	14f6 <_start-0x7fffeb0a>
    11bc:	01000003          	lb	zero,16(zero) # 10 <_start-0x7ffffff0>
    11c0:	04b1                	addi	s1,s1,12
    11c2:	f108                	fsw	fa0,32(a0)
    11c4:	000a                	c.slli	zero,0x2
    11c6:	3500                	fld	fs0,40(a0)
    11c8:	0464                	addi	s1,sp,524
    11ca:	0000                	unimp
    11cc:	b101                	j	dcc <_start-0x7ffff234>
    11ce:	0804                	addi	s1,sp,16
    11d0:	0af1                	addi	s5,s5,28
    11d2:	0000                	unimp
    11d4:	9835                	andi	s0,s0,-19
    11d6:	01000003          	lb	zero,16(zero) # 10 <_start-0x7ffffff0>
    11da:	04b1                	addi	s1,s1,12
    11dc:	f108                	fsw	fa0,32(a0)
    11de:	000a                	c.slli	zero,0x2
    11e0:	3500                	fld	fs0,40(a0)
    11e2:	045f 0000 b101      	0xb1010000045f
    11e8:	0804                	addi	s1,sp,16
    11ea:	0af1                	addi	s5,s5,28
    11ec:	0000                	unimp
    11ee:	3400                	fld	fs0,40(s0)
    11f0:	1202                	slli	tp,tp,0x20
    11f2:	0000                	unimp
    11f4:	785f5f33          	0x785f5f33
    11f8:	0100                	addi	s0,sp,128
    11fa:	04b6                	slli	s1,s1,0xd
    11fc:	f105                	bnez	a0,111c <_start-0x7fffeee4>
    11fe:	000a                	c.slli	zero,0x2
    1200:	0000                	unimp
    1202:	3336                	fld	ft6,360(sp)
    1204:	5f5f 0078 be01      	0xbe0100785f5f
    120a:	0504                	addi	s1,sp,640
    120c:	0af1                	addi	s5,s5,28
    120e:	0000                	unimp
    1210:	0000                	unimp
    1212:	0f00                	addi	s0,sp,912
    1214:	0904                	addi	s1,sp,144
    1216:	0000000b          	0xb
    121a:	1274                	addi	a3,sp,300
    121c:	0000                	unimp
    121e:	0004                	0x4
    1220:	02cc                	addi	a1,sp,324
    1222:	0000                	unimp
    1224:	0104                	addi	s1,sp,128
    1226:	00ed                	addi	ra,ra,27
    1228:	0000                	unimp
    122a:	a00c                	fsd	fa1,0(s0)
    122c:	0004                	0x4
    122e:	3300                	fld	fs0,32(a4)
    1230:	0005                	c.nop	1
	...
    123a:	0700                	addi	s0,sp,896
    123c:	0009                	c.nop	2
    123e:	0200                	addi	s0,sp,256
    1240:	0708                	addi	a0,sp,896
    1242:	0000030b          	0x30b
    1246:	69050403          	lb	s0,1680(a0)
    124a:	746e                	flw	fs0,248(sp)
    124c:	0200                	addi	s0,sp,256
    124e:	0704                	addi	s1,sp,896
    1250:	0315                	addi	t1,t1,5
    1252:	0000                	unimp
    1254:	0802                	c.slli64	a6
    1256:	2505                	jal	1876 <_start-0x7fffe78a>
    1258:	0002                	c.slli64	zero
    125a:	0200                	addi	s0,sp,256
    125c:	0410                	addi	a2,sp,512
    125e:	00a5                	addi	ra,ra,9
    1260:	0000                	unimp
    1262:	0102                	c.slli64	sp
    1264:	7806                	flw	fa6,96(sp)
    1266:	0006                	c.slli	zero,0x1
    1268:	0200                	addi	s0,sp,256
    126a:	0801                	addi	a6,a6,0
    126c:	0676                	slli	a2,a2,0x1d
    126e:	0000                	unimp
    1270:	0202                	c.slli64	tp
    1272:	0005                	c.nop	1
    1274:	0000                	unimp
    1276:	0200                	addi	s0,sp,256
    1278:	0702                	c.slli64	a4
    127a:	0000032b          	0x32b
    127e:	0402                	c.slli64	s0
    1280:	2a05                	jal	13b0 <_start-0x7fffec50>
    1282:	0002                	c.slli64	zero
    1284:	0200                	addi	s0,sp,256
    1286:	0704                	addi	s1,sp,896
    1288:	0310                	addi	a2,sp,384
    128a:	0000                	unimp
    128c:	8804                	0x8804
    128e:	0004                	0x4
    1290:	0200                	addi	s0,sp,256
    1292:	0d0c                	addi	a1,sp,656
    1294:	002c                	addi	a1,sp,8
    1296:	0000                	unimp
    1298:	5804                	lw	s1,48(s0)
    129a:	0004                	0x4
    129c:	0300                	addi	s0,sp,384
    129e:	0e2c                	addi	a1,sp,792
    12a0:	0064                	addi	s1,sp,12
    12a2:	0000                	unimp
    12a4:	0904                	addi	s1,sp,144
    12a6:	0006                	c.slli	zero,0x1
    12a8:	0300                	addi	s0,sp,384
    12aa:	0e72                	slli	t3,t3,0x1c
    12ac:	0064                	addi	s1,sp,12
    12ae:	0000                	unimp
    12b0:	e004                	fsw	fs1,0(s0)
    12b2:	0006                	c.slli	zero,0x1
    12b4:	0300                	addi	s0,sp,384
    12b6:	1791                	addi	a5,a5,-28
    12b8:	002c                	addi	a1,sp,8
    12ba:	0000                	unimp
    12bc:	8b05                	andi	a4,a4,1
    12be:	04000003          	lb	zero,64(zero) # 40 <_start-0x7fffffc0>
    12c2:	0165                	addi	sp,sp,25
    12c4:	00003317          	auipc	t1,0x3
    12c8:	0600                	addi	s0,sp,768
    12ca:	0304                	addi	s1,sp,384
    12cc:	03a6                	slli	t2,t2,0x9
    12ce:	00d1                	addi	ra,ra,20
    12d0:	0000                	unimp
    12d2:	00037207          	vle.v	v4,(t1),v0.t
    12d6:	0300                	addi	s0,sp,384
    12d8:	0ca8                	addi	a0,sp,600
    12da:	00a2                	slli	ra,ra,0x8
    12dc:	0000                	unimp
    12de:	0002dd07          	vlhu.v	v26,(t0),v0.t
    12e2:	0300                	addi	s0,sp,384
    12e4:	13a9                	addi	t2,t2,-22
    12e6:	00d1                	addi	ra,ra,20
    12e8:	0000                	unimp
    12ea:	0800                	addi	s0,sp,16
    12ec:	0000004f          	fnmadd.s	ft0,ft0,ft0,ft0,rne
    12f0:	00e1                	addi	ra,ra,24
    12f2:	0000                	unimp
    12f4:	3309                	jal	ff6 <_start-0x7ffff00a>
    12f6:	0000                	unimp
    12f8:	0300                	addi	s0,sp,384
    12fa:	0a00                	addi	s0,sp,272
    12fc:	0308                	addi	a0,sp,384
    12fe:	010509a3          	sb	a6,19(a0)
    1302:	0000                	unimp
    1304:	0003dc0b          	0x3dc0b
    1308:	0300                	addi	s0,sp,384
    130a:	07a5                	addi	a5,a5,9
    130c:	002c                	addi	a1,sp,8
    130e:	0000                	unimp
    1310:	0b00                	addi	s0,sp,400
    1312:	000005fb          	0x5fb
    1316:	af05aa03          	lw	s4,-1296(a1)
    131a:	0000                	unimp
    131c:	0400                	addi	s0,sp,512
    131e:	0400                	addi	s0,sp,512
    1320:	047d                	addi	s0,s0,31
    1322:	0000                	unimp
    1324:	e103ab03          	lw	s6,-496(t2)
    1328:	0000                	unimp
    132a:	0400                	addi	s0,sp,512
    132c:	04fe                	slli	s1,s1,0x1f
    132e:	0000                	unimp
    1330:	721baf03          	lw	t5,1825(s7) # 12c9 <_start-0x7fffed37>
    1334:	0000                	unimp
    1336:	0c00                	addi	s0,sp,528
    1338:	0404                	addi	s1,sp,512
    133a:	0689                	addi	a3,a3,2
    133c:	0000                	unimp
    133e:	1605                	addi	a2,a2,-31
    1340:	6b19                	lui	s6,0x6
    1342:	0000                	unimp
    1344:	0d00                	addi	s0,sp,656
    1346:	0415                	addi	s0,s0,5
    1348:	0000                	unimp
    134a:	0518                	addi	a4,sp,640
    134c:	0185082f          	0x185082f
    1350:	0000                	unimp
    1352:	0007a00b          	0x7a00b
    1356:	0500                	addi	s0,sp,640
    1358:	1331                	addi	t1,t1,-20
    135a:	0185                	addi	gp,gp,1
    135c:	0000                	unimp
    135e:	0e00                	addi	s0,sp,784
    1360:	6b5f 0500 0732      	0x73205006b5f
    1366:	002c                	addi	a1,sp,8
    1368:	0000                	unimp
    136a:	0b04                	addi	s1,sp,400
    136c:	05d8                	addi	a4,sp,708
    136e:	0000                	unimp
    1370:	3205                	jal	c90 <_start-0x7ffff370>
    1372:	00002c0b          	0x2c0b
    1376:	0800                	addi	s0,sp,16
    1378:	0002810b          	0x2810b
    137c:	0500                	addi	s0,sp,640
    137e:	1432                	slli	s0,s0,0x2c
    1380:	002c                	addi	a1,sp,8
    1382:	0000                	unimp
    1384:	0b0c                	addi	a1,sp,400
    1386:	00000207          	vlbu.v	v4,(zero),v0.t
    138a:	3205                	jal	caa <_start-0x7ffff356>
    138c:	00002c1b          	0x2c1b
    1390:	1000                	addi	s0,sp,32
    1392:	5f0e                	lw	t5,224(sp)
    1394:	0078                	addi	a4,sp,12
    1396:	3305                	jal	10b6 <_start-0x7fffef4a>
    1398:	00018b0b          	0x18b0b
    139c:	1400                	addi	s0,sp,544
    139e:	0f00                	addi	s0,sp,912
    13a0:	2b04                	fld	fs1,16(a4)
    13a2:	0001                	nop
    13a4:	0800                	addi	s0,sp,16
    13a6:	011f 0000 019b      	0x19b0000011f
    13ac:	0000                	unimp
    13ae:	3309                	jal	10b0 <_start-0x7fffef50>
    13b0:	0000                	unimp
    13b2:	0000                	unimp
    13b4:	0d00                	addi	s0,sp,656
    13b6:	02c0                	addi	s0,sp,324
    13b8:	0000                	unimp
    13ba:	0524                	addi	s1,sp,648
    13bc:	021e0837          	lui	a6,0x21e0
    13c0:	0000                	unimp
    13c2:	0000dd0b          	0xdd0b
    13c6:	0500                	addi	s0,sp,640
    13c8:	0939                	addi	s2,s2,14
    13ca:	002c                	addi	a1,sp,8
    13cc:	0000                	unimp
    13ce:	0b00                	addi	s0,sp,400
    13d0:	073e                	slli	a4,a4,0xf
    13d2:	0000                	unimp
    13d4:	3a05                	jal	d04 <_start-0x7ffff2fc>
    13d6:	2c09                	jal	15e8 <_start-0x7fffea18>
    13d8:	0000                	unimp
    13da:	0400                	addi	s0,sp,512
    13dc:	0001bd0b          	0x1bd0b
    13e0:	0500                	addi	s0,sp,640
    13e2:	002c093b          	0x2c093b
    13e6:	0000                	unimp
    13e8:	0b08                	addi	a0,sp,400
    13ea:	0791                	addi	a5,a5,4
    13ec:	0000                	unimp
    13ee:	3c05                	jal	e1e <_start-0x7ffff1e2>
    13f0:	2c09                	jal	1602 <_start-0x7fffe9fe>
    13f2:	0000                	unimp
    13f4:	0c00                	addi	s0,sp,528
    13f6:	0004320b          	0x4320b
    13fa:	0500                	addi	s0,sp,640
    13fc:	093d                	addi	s2,s2,15
    13fe:	002c                	addi	a1,sp,8
    1400:	0000                	unimp
    1402:	0b10                	addi	a2,sp,400
    1404:	03d2                	slli	t2,t2,0x14
    1406:	0000                	unimp
    1408:	3e05                	jal	f38 <_start-0x7ffff0c8>
    140a:	2c09                	jal	161c <_start-0x7fffe9e4>
    140c:	0000                	unimp
    140e:	1400                	addi	s0,sp,544
    1410:	0006c90b          	0x6c90b
    1414:	0500                	addi	s0,sp,640
    1416:	002c093f 0b180000 	0xb180000002c093f
    141e:	00000507          	vlbu.v	v10,(zero),v0.t
    1422:	4005                	c.li	zero,1
    1424:	2c09                	jal	1636 <_start-0x7fffe9ca>
    1426:	0000                	unimp
    1428:	1c00                	addi	s0,sp,560
    142a:	0007240b          	0x7240b
    142e:	0500                	addi	s0,sp,640
    1430:	0941                	addi	s2,s2,16
    1432:	002c                	addi	a1,sp,8
    1434:	0000                	unimp
    1436:	0020                	addi	s0,sp,8
    1438:	da10                	sw	a2,48(a2)
    143a:	0001                	nop
    143c:	0800                	addi	s0,sp,16
    143e:	0501                	addi	a0,a0,0
    1440:	084a                	slli	a6,a6,0x12
    1442:	00000263          	beqz	zero,1446 <_start-0x7fffebba>
    1446:	0002740b          	0x2740b
    144a:	0500                	addi	s0,sp,640
    144c:	02630a4b          	fnmsub.d	fs4,ft6,ft6,ft0,rne
    1450:	0000                	unimp
    1452:	0b00                	addi	s0,sp,400
    1454:	04da                	slli	s1,s1,0x16
    1456:	0000                	unimp
    1458:	4c05                	li	s8,1
    145a:	6309                	lui	t1,0x2
    145c:	0002                	c.slli64	zero
    145e:	8000                	0x8000
    1460:	6d11                	lui	s10,0x4
    1462:	0006                	c.slli	zero,0x1
    1464:	0500                	addi	s0,sp,640
    1466:	0a4e                	slli	s4,s4,0x13
    1468:	011f 0000 0100      	0x1000000011f
    146e:	ff11                	bnez	a4,138a <_start-0x7fffec76>
    1470:	0001                	nop
    1472:	0500                	addi	s0,sp,640
    1474:	0a51                	addi	s4,s4,20
    1476:	011f 0000 0104      	0x1040000011f
    147c:	0800                	addi	s0,sp,16
    147e:	011d                	addi	sp,sp,7
    1480:	0000                	unimp
    1482:	00000273          	0x273
    1486:	3309                	jal	1188 <_start-0x7fffee78>
    1488:	0000                	unimp
    148a:	1f00                	addi	s0,sp,944
    148c:	1000                	addi	s0,sp,32
    148e:	0000043b          	0x43b
    1492:	0190                	addi	a2,sp,192
    1494:	5d05                	li	s10,-31
    1496:	b608                	fsd	fa0,40(a2)
    1498:	0002                	c.slli64	zero
    149a:	0b00                	addi	s0,sp,400
    149c:	07a0                	addi	s0,sp,968
    149e:	0000                	unimp
    14a0:	5e05                	li	t3,-31
    14a2:	b612                	fsd	ft4,296(sp)
    14a4:	0002                	c.slli64	zero
    14a6:	0000                	unimp
    14a8:	0005bf0b          	0x5bf0b
    14ac:	0500                	addi	s0,sp,640
    14ae:	065f 002c 0000      	0x2c065f
    14b4:	0b04                	addi	s1,sp,400
    14b6:	027c                	addi	a5,sp,268
    14b8:	0000                	unimp
    14ba:	6105                	addi	sp,sp,32
    14bc:	bc09                	j	ece <_start-0x7ffff132>
    14be:	0002                	c.slli64	zero
    14c0:	0800                	addi	s0,sp,16
    14c2:	0001da0b          	0x1da0b
    14c6:	0500                	addi	s0,sp,640
    14c8:	1e62                	slli	t3,t3,0x38
    14ca:	021e                	slli	tp,tp,0x7
    14cc:	0000                	unimp
    14ce:	0088                	addi	a0,sp,64
    14d0:	0273040f          	0x273040f
    14d4:	0000                	unimp
    14d6:	cc08                	sw	a0,24(s0)
    14d8:	0002                	c.slli64	zero
    14da:	cc00                	sw	s0,24(s0)
    14dc:	0002                	c.slli64	zero
    14de:	0900                	addi	s0,sp,144
    14e0:	00000033          	add	zero,zero,zero
    14e4:	001f 040f 02d2      	0x2d2040f001f
    14ea:	0000                	unimp
    14ec:	0d12                	slli	s10,s10,0x4
    14ee:	078a                	slli	a5,a5,0x2
    14f0:	0000                	unimp
    14f2:	0508                	addi	a0,sp,640
    14f4:	0875                	addi	a6,a6,29
    14f6:	000002fb          	0x2fb
    14fa:	0001b70b          	0x1b70b
    14fe:	0500                	addi	s0,sp,640
    1500:	1176                	slli	sp,sp,0x3d
    1502:	000002fb          	0x2fb
    1506:	0b00                	addi	s0,sp,400
    1508:	061a                	slli	a2,a2,0x6
    150a:	0000                	unimp
    150c:	7705                	lui	a4,0xfffe1
    150e:	2c06                	fld	fs8,64(sp)
    1510:	0000                	unimp
    1512:	0400                	addi	s0,sp,512
    1514:	0f00                	addi	s0,sp,912
    1516:	4f04                	lw	s1,24(a4)
    1518:	0000                	unimp
    151a:	0d00                	addi	s0,sp,656
    151c:	001c                	0x1c
    151e:	0000                	unimp
    1520:	0568                	addi	a0,sp,652
    1522:	08b5                	addi	a7,a7,13
    1524:	0444                	addi	s1,sp,516
    1526:	0000                	unimp
    1528:	5f0e                	lw	t5,224(sp)
    152a:	0070                	addi	a2,sp,12
    152c:	b605                	j	104c <_start-0x7fffefb4>
    152e:	fb12                	fsw	ft4,180(sp)
    1530:	0002                	c.slli64	zero
    1532:	0000                	unimp
    1534:	5f0e                	lw	t5,224(sp)
    1536:	0072                	c.slli	zero,0x1c
    1538:	b705                	j	1458 <_start-0x7fffeba8>
    153a:	00002c07          	flw	fs8,0(zero) # 0 <_start-0x80000000>
    153e:	0400                	addi	s0,sp,512
    1540:	5f0e                	lw	t5,224(sp)
    1542:	b8050077          	0xb8050077
    1546:	00002c07          	flw	fs8,0(zero) # 0 <_start-0x80000000>
    154a:	0800                	addi	s0,sp,16
    154c:	0001f80b          	0x1f80b
    1550:	0500                	addi	s0,sp,640
    1552:	09b9                	addi	s3,s3,14
    1554:	0056                	c.slli	zero,0x15
    1556:	0000                	unimp
    1558:	0b0c                	addi	a1,sp,400
    155a:	02ec                	addi	a1,sp,332
    155c:	0000                	unimp
    155e:	ba05                	j	e8e <_start-0x7ffff172>
    1560:	5609                	li	a2,-30
    1562:	0000                	unimp
    1564:	0e00                	addi	s0,sp,784
    1566:	5f0e                	lw	t5,224(sp)
    1568:	6662                	flw	fa2,24(sp)
    156a:	0500                	addi	s0,sp,640
    156c:	02d311bb          	0x2d311bb
    1570:	0000                	unimp
    1572:	0b10                	addi	a2,sp,400
    1574:	008d                	addi	ra,ra,3
    1576:	0000                	unimp
    1578:	bc05                	j	fa8 <_start-0x7ffff058>
    157a:	00002c07          	flw	fs8,0(zero) # 0 <_start-0x80000000>
    157e:	1800                	addi	s0,sp,48
    1580:	0001e80b          	0x1e80b
    1584:	0500                	addi	s0,sp,640
    1586:	011d0ac3          	fmadd.s	fs5,fs10,fa7,ft0,rne
    158a:	0000                	unimp
    158c:	0b1c                	addi	a5,sp,400
    158e:	049a                	slli	s1,s1,0x6
    1590:	0000                	unimp
    1592:	c505                	beqz	a0,15ba <_start-0x7fffea46>
    1594:	c81d                	beqz	s0,15ca <_start-0x7fffea36>
    1596:	0005                	c.nop	1
    1598:	2000                	fld	fs0,0(s0)
    159a:	0003cb0b          	0x3cb0b
    159e:	0500                	addi	s0,sp,640
    15a0:	05f71dc7          	0x5f71dc7
    15a4:	0000                	unimp
    15a6:	0b24                	addi	s1,sp,408
    15a8:	00000603          	lb	a2,0(zero) # 0 <_start-0x80000000>
    15ac:	ca05                	beqz	a2,15dc <_start-0x7fffea24>
    15ae:	1b0d                	addi	s6,s6,-29
    15b0:	0006                	c.slli	zero,0x1
    15b2:	2800                	fld	fs0,16(s0)
    15b4:	0000e60b          	0xe60b
    15b8:	0500                	addi	s0,sp,640
    15ba:	063509cb          	fnmsub.q	fs3,fa0,ft3,ft0,rne
    15be:	0000                	unimp
    15c0:	0e2c                	addi	a1,sp,792
    15c2:	755f 0062 ce05      	0xce050062755f
    15c8:	d311                	beqz	a4,14cc <_start-0x7fffeb34>
    15ca:	0002                	c.slli64	zero
    15cc:	3000                	fld	fs0,32(s0)
    15ce:	5f0e                	lw	t5,224(sp)
    15d0:	7075                	c.lui	zero,0xffffd
    15d2:	0500                	addi	s0,sp,640
    15d4:	02fb12cf          	fnmadd.d	ft5,fs6,fa5,ft0,rtz
    15d8:	0000                	unimp
    15da:	0e38                	addi	a4,sp,792
    15dc:	755f 0072 d005      	0xd0050072755f
    15e2:	00002c07          	flw	fs8,0(zero) # 0 <_start-0x80000000>
    15e6:	3c00                	fld	fs0,56(s0)
    15e8:	0001b10b          	0x1b10b
    15ec:	0500                	addi	s0,sp,640
    15ee:	063b11d3          	fadd.q	ft3,fs6,ft3,rtz
    15f2:	0000                	unimp
    15f4:	0b40                	addi	s0,sp,404
    15f6:	070c                	addi	a1,sp,896
    15f8:	0000                	unimp
    15fa:	d405                	beqz	s0,1522 <_start-0x7fffeade>
    15fc:	4b11                	li	s6,4
    15fe:	0006                	c.slli	zero,0x1
    1600:	4300                	lw	s0,0(a4)
    1602:	5f0e                	lw	t5,224(sp)
    1604:	626c                	flw	fa1,68(a2)
    1606:	0500                	addi	s0,sp,640
    1608:	02d311d7          	vfadd.vv	v3,v13,v6
    160c:	0000                	unimp
    160e:	0b44                	addi	s1,sp,404
    1610:	0611                	addi	a2,a2,4
    1612:	0000                	unimp
    1614:	da05                	beqz	a2,1544 <_start-0x7fffeabc>
    1616:	00002c07          	flw	fs8,0(zero) # 0 <_start-0x80000000>
    161a:	4c00                	lw	s0,24(s0)
    161c:	00040d0b          	0x40d0b
    1620:	0500                	addi	s0,sp,640
    1622:	007e0adb          	0x7e0adb
    1626:	0000                	unimp
    1628:	0b50                	addi	a2,sp,404
    162a:	005d                	c.nop	23
    162c:	0000                	unimp
    162e:	de05                	beqz	a2,1566 <_start-0x7fffea9a>
    1630:	6212                	flw	ft4,4(sp)
    1632:	0004                	0x4
    1634:	5400                	lw	s0,40(s0)
    1636:	0003920b          	0x3920b
    163a:	0500                	addi	s0,sp,640
    163c:	0ce2                	slli	s9,s9,0x18
    163e:	0111                	addi	sp,sp,4
    1640:	0000                	unimp
    1642:	0b58                	addi	a4,sp,404
    1644:	02d4                	addi	a3,sp,324
    1646:	0000                	unimp
    1648:	e405                	bnez	s0,1670 <_start-0x7fffe990>
    164a:	050e                	slli	a0,a0,0x3
    164c:	0001                	nop
    164e:	5c00                	lw	s0,56(s0)
    1650:	0005110b          	0x5110b
    1654:	0500                	addi	s0,sp,640
    1656:	09e5                	addi	s3,s3,25
    1658:	002c                	addi	a1,sp,8
    165a:	0000                	unimp
    165c:	0064                	addi	s1,sp,12
    165e:	00009613          	slli	a2,ra,0x0
    1662:	6200                	flw	fs0,0(a2)
    1664:	0004                	0x4
    1666:	1400                	addi	s0,sp,544
    1668:	0462                	slli	s0,s0,0x18
    166a:	0000                	unimp
    166c:	1d14                	addi	a3,sp,688
    166e:	0001                	nop
    1670:	1400                	addi	s0,sp,544
    1672:	05b6                	slli	a1,a1,0xd
    1674:	0000                	unimp
    1676:	2c14                	fld	fa3,24(s0)
    1678:	0000                	unimp
    167a:	0000                	unimp
    167c:	046d040f          	0x46d040f
    1680:	0000                	unimp
    1682:	6215                	lui	tp,0x5
    1684:	0004                	0x4
    1686:	1600                	addi	s0,sp,800
    1688:	05e0                	addi	s0,sp,716
    168a:	0000                	unimp
    168c:	0428                	addi	a0,sp,520
    168e:	6005                	c.lui	zero,0x1
    1690:	0802                	c.slli64	a6
    1692:	05b6                	slli	a1,a1,0xd
    1694:	0000                	unimp
    1696:	0004f717          	auipc	a4,0x4f
    169a:	0500                	addi	s0,sp,640
    169c:	0262                	slli	tp,tp,0x18
    169e:	00002c07          	flw	fs8,0(zero) # 0 <_start-0x80000000>
    16a2:	0000                	unimp
    16a4:	0006d917          	auipc	s2,0x6d
    16a8:	0500                	addi	s0,sp,640
    16aa:	a70b0267          	jalr	tp,-1424(s6) # 5a70 <_start-0x7fffa590>
    16ae:	0006                	c.slli	zero,0x1
    16b0:	0400                	addi	s0,sp,512
    16b2:	0006c117          	auipc	sp,0x6c
    16b6:	0500                	addi	s0,sp,640
    16b8:	a7140267          	jalr	tp,-1423(s0)
    16bc:	0006                	c.slli	zero,0x1
    16be:	0800                	addi	s0,sp,16
    16c0:	00028717          	auipc	a4,0x28
    16c4:	0500                	addi	s0,sp,640
    16c6:	a71e0267          	jalr	tp,-1423(t3) # 5bf6b <_start-0x7ffa4095>
    16ca:	0006                	c.slli	zero,0x1
    16cc:	0c00                	addi	s0,sp,528
    16ce:	0005ba17          	auipc	s4,0x5b
    16d2:	0500                	addi	s0,sp,640
    16d4:	0269                	addi	tp,tp,26
    16d6:	2c08                	fld	fa0,24(s0)
    16d8:	0000                	unimp
    16da:	1000                	addi	s0,sp,32
    16dc:	00002c17          	auipc	s8,0x2
    16e0:	0500                	addi	s0,sp,640
    16e2:	026a                	slli	tp,tp,0x1a
    16e4:	a708                	fsd	fa0,8(a4)
    16e6:	0008                	0x8
    16e8:	1400                	addi	s0,sp,544
    16ea:	0002a717          	auipc	a4,0x2a
    16ee:	0500                	addi	s0,sp,640
    16f0:	026d                	addi	tp,tp,27
    16f2:	00002c07          	flw	fs8,0(zero) # 0 <_start-0x80000000>
    16f6:	3000                	fld	fs0,32(s0)
    16f8:	00077a17          	auipc	s4,0x77
    16fc:	0500                	addi	s0,sp,640
    16fe:	026e                	slli	tp,tp,0x1b
    1700:	bc16                	fsd	ft5,56(sp)
    1702:	0008                	0x8
    1704:	3400                	fld	fs0,40(s0)
    1706:	00044d17          	auipc	s10,0x44
    170a:	0500                	addi	s0,sp,640
    170c:	0270                	addi	a2,sp,268
    170e:	00002c07          	flw	fs8,0(zero) # 0 <_start-0x80000000>
    1712:	3800                	fld	fs0,48(s0)
    1714:	0005ce17          	auipc	t3,0x5c
    1718:	0500                	addi	s0,sp,640
    171a:	0272                	slli	tp,tp,0x1c
    171c:	cd0a                	sw	sp,152(sp)
    171e:	0008                	0x8
    1720:	3c00                	fld	fs0,56(s0)
    1722:	00036a17          	auipc	s4,0x36
    1726:	0500                	addi	s0,sp,640
    1728:	0275                	addi	tp,tp,29
    172a:	00018513          	mv	a0,gp
    172e:	4000                	lw	s0,0(s0)
    1730:	00021317          	auipc	t1,0x21
    1734:	0500                	addi	s0,sp,640
    1736:	0276                	slli	tp,tp,0x1d
    1738:	00002c07          	flw	fs8,0(zero) # 0 <_start-0x80000000>
    173c:	4400                	lw	s0,8(s0)
    173e:	00077517          	auipc	a0,0x77
    1742:	0500                	addi	s0,sp,640
    1744:	85130277          	0x85130277
    1748:	0001                	nop
    174a:	4800                	lw	s0,16(s0)
    174c:	00046917          	auipc	s2,0x46
    1750:	0500                	addi	s0,sp,640
    1752:	0278                	addi	a4,sp,268
    1754:	d314                	sw	a3,32(a4)
    1756:	0008                	0x8
    1758:	4c00                	lw	s0,24(s0)
    175a:	0002e417          	auipc	s0,0x2e
    175e:	0500                	addi	s0,sp,640
    1760:	2c07027b          	0x2c07027b
    1764:	0000                	unimp
    1766:	5000                	lw	s0,32(s0)
    1768:	00024017          	auipc	zero,0x24
    176c:	0500                	addi	s0,sp,640
    176e:	027c                	addi	a5,sp,268
    1770:	b609                	j	1272 <_start-0x7fffed8e>
    1772:	0005                	c.nop	1
    1774:	5400                	lw	s0,40(s0)
    1776:	0004f017          	auipc	zero,0x4f
    177a:	0500                	addi	s0,sp,640
    177c:	029f 8207 0008      	0x88207029f
    1782:	5800                	lw	s0,48(s0)
    1784:	3b18                	fld	fa4,48(a4)
    1786:	0004                	0x4
    1788:	0500                	addi	s0,sp,640
    178a:	b61302a3          	sb	ra,-1179(t1) # 22295 <_start-0x7ffddd6b>
    178e:	0002                	c.slli64	zero
    1790:	4800                	lw	s0,16(s0)
    1792:	1801                	addi	a6,a6,-32
    1794:	0348                	addi	a0,sp,388
    1796:	0000                	unimp
    1798:	a405                	j	19b8 <_start-0x7fffe648>
    179a:	1202                	slli	tp,tp,0x20
    179c:	00000273          	0x273
    17a0:	014c                	addi	a1,sp,132
    17a2:	f318                	fsw	fa4,32(a4)
    17a4:	0006                	c.slli	zero,0x1
    17a6:	0500                	addi	s0,sp,640
    17a8:	02a8                	addi	a0,sp,328
    17aa:	e40c                	fsw	fa1,8(s0)
    17ac:	0008                	0x8
    17ae:	dc00                	sw	s0,56(s0)
    17b0:	1802                	slli	a6,a6,0x20
    17b2:	01f0                	addi	a2,sp,204
    17b4:	0000                	unimp
    17b6:	ad05                	j	1de6 <_start-0x7fffe21a>
    17b8:	1002                	c.slli	zero,0x20
    17ba:	0668                	addi	a0,sp,780
    17bc:	0000                	unimp
    17be:	02e0                	addi	s0,sp,332
    17c0:	d518                	sw	a4,40(a0)
    17c2:	0001                	nop
    17c4:	0500                	addi	s0,sp,640
    17c6:	f00a02af          	0xf00a02af
    17ca:	0008                	0x8
    17cc:	ec00                	fsw	fs0,24(s0)
    17ce:	0002                	c.slli64	zero
    17d0:	05bc040f          	0x5bc040f
    17d4:	0000                	unimp
    17d6:	0102                	c.slli64	sp
    17d8:	7f08                	flw	fa0,56(a4)
    17da:	0006                	c.slli	zero,0x1
    17dc:	1500                	addi	s0,sp,672
    17de:	05bc                	addi	a5,sp,712
    17e0:	0000                	unimp
    17e2:	0444040f          	0x444040f
    17e6:	0000                	unimp
    17e8:	00009613          	slli	a2,ra,0x0
    17ec:	ec00                	fsw	fs0,24(s0)
    17ee:	0005                	c.nop	1
    17f0:	1400                	addi	s0,sp,544
    17f2:	0462                	slli	s0,s0,0x18
    17f4:	0000                	unimp
    17f6:	1d14                	addi	a3,sp,688
    17f8:	0001                	nop
    17fa:	1400                	addi	s0,sp,544
    17fc:	05ec                	addi	a1,sp,716
    17fe:	0000                	unimp
    1800:	2c14                	fld	fa3,24(s0)
    1802:	0000                	unimp
    1804:	0000                	unimp
    1806:	05c3040f          	0x5c3040f
    180a:	0000                	unimp
    180c:	ec15                	bnez	s0,1848 <_start-0x7fffe7b8>
    180e:	0005                	c.nop	1
    1810:	0f00                	addi	s0,sp,912
    1812:	ce04                	sw	s1,24(a2)
    1814:	0005                	c.nop	1
    1816:	1300                	addi	s0,sp,416
    1818:	008a                	slli	ra,ra,0x2
    181a:	0000                	unimp
    181c:	0000061b          	0x61b
    1820:	6214                	flw	fa3,0(a2)
    1822:	0004                	0x4
    1824:	1400                	addi	s0,sp,544
    1826:	011d                	addi	sp,sp,7
    1828:	0000                	unimp
    182a:	8a14                	0x8a14
    182c:	0000                	unimp
    182e:	1400                	addi	s0,sp,544
    1830:	002c                	addi	a1,sp,8
    1832:	0000                	unimp
    1834:	0f00                	addi	s0,sp,912
    1836:	fd04                	fsw	fs1,56(a0)
    1838:	0005                	c.nop	1
    183a:	1300                	addi	s0,sp,416
    183c:	002c                	addi	a1,sp,8
    183e:	0000                	unimp
    1840:	0635                	addi	a2,a2,13
    1842:	0000                	unimp
    1844:	6214                	flw	fa3,0(a2)
    1846:	0004                	0x4
    1848:	1400                	addi	s0,sp,544
    184a:	011d                	addi	sp,sp,7
    184c:	0000                	unimp
    184e:	0f00                	addi	s0,sp,912
    1850:	2104                	fld	fs1,0(a0)
    1852:	0006                	c.slli	zero,0x1
    1854:	0800                	addi	s0,sp,16
    1856:	0000004f          	fnmadd.s	ft0,ft0,ft0,ft0,rne
    185a:	0000064b          	fnmsub.s	fa2,ft0,ft0,ft0,rne
    185e:	3309                	jal	1560 <_start-0x7fffeaa0>
    1860:	0000                	unimp
    1862:	0200                	addi	s0,sp,256
    1864:	0800                	addi	s0,sp,16
    1866:	0000004f          	fnmadd.s	ft0,ft0,ft0,ft0,rne
    186a:	0000065b          	0x65b
    186e:	3309                	jal	1570 <_start-0x7fffea90>
    1870:	0000                	unimp
    1872:	0000                	unimp
    1874:	0500                	addi	s0,sp,640
    1876:	020c                	addi	a1,sp,256
    1878:	0000                	unimp
    187a:	1f05                	addi	t5,t5,-31
    187c:	1a01                	addi	s4,s4,-32
    187e:	0301                	addi	t1,t1,0
    1880:	0000                	unimp
    1882:	d319                	beqz	a4,1788 <_start-0x7fffe878>
    1884:	0006                	c.slli	zero,0x1
    1886:	0c00                	addi	s0,sp,528
    1888:	2305                	jal	1da8 <_start-0x7fffe258>
    188a:	0801                	addi	a6,a6,0
    188c:	06a1                	addi	a3,a3,8
    188e:	0000                	unimp
    1890:	0007a017          	auipc	zero,0x7a
    1894:	0500                	addi	s0,sp,640
    1896:	0125                	addi	sp,sp,9
    1898:	a111                	j	1c9c <_start-0x7fffe364>
    189a:	0006                	c.slli	zero,0x1
    189c:	0000                	unimp
    189e:	00030417          	auipc	s0,0x30
    18a2:	0500                	addi	s0,sp,640
    18a4:	0126                	slli	sp,sp,0x9
    18a6:	00002c07          	flw	fs8,0(zero) # 0 <_start-0x80000000>
    18aa:	0400                	addi	s0,sp,512
    18ac:	00051917          	auipc	s2,0x51
    18b0:	0500                	addi	s0,sp,640
    18b2:	a70b0127          	0xa70b0127
    18b6:	0006                	c.slli	zero,0x1
    18b8:	0800                	addi	s0,sp,16
    18ba:	0f00                	addi	s0,sp,912
    18bc:	6804                	flw	fs1,16(s0)
    18be:	0006                	c.slli	zero,0x1
    18c0:	0f00                	addi	s0,sp,912
    18c2:	5b04                	lw	s1,48(a4)
    18c4:	0006                	c.slli	zero,0x1
    18c6:	1900                	addi	s0,sp,176
    18c8:	0024                	addi	s1,sp,8
    18ca:	0000                	unimp
    18cc:	050e                	slli	a0,a0,0x3
    18ce:	e608013f 17000006 	0x17000006e608013f
    18d6:	063d                	addi	a2,a2,15
    18d8:	0000                	unimp
    18da:	4005                	c.li	zero,1
    18dc:	1201                	addi	tp,tp,-32
    18de:	06e6                	slli	a3,a3,0x19
    18e0:	0000                	unimp
    18e2:	1700                	addi	s0,sp,928
    18e4:	03a8                	addi	a0,sp,456
    18e6:	0000                	unimp
    18e8:	4105                	li	sp,1
    18ea:	1201                	addi	tp,tp,-32
    18ec:	06e6                	slli	a3,a3,0x19
    18ee:	0000                	unimp
    18f0:	1706                	slli	a4,a4,0x21
    18f2:	0684                	addi	s1,sp,832
    18f4:	0000                	unimp
    18f6:	4205                	li	tp,1
    18f8:	1201                	addi	tp,tp,-32
    18fa:	005d                	c.nop	23
    18fc:	0000                	unimp
    18fe:	000c                	0xc
    1900:	5d08                	lw	a0,56(a0)
    1902:	0000                	unimp
    1904:	f600                	fsw	fs0,40(a2)
    1906:	0006                	c.slli	zero,0x1
    1908:	0900                	addi	s0,sp,144
    190a:	00000033          	add	zero,zero,zero
    190e:	0002                	c.slli64	zero
    1910:	d01a                	sw	t1,32(sp)
    1912:	8005                	srli	s0,s0,0x1
    1914:	0702                	c.slli64	a4
    1916:	0000080b          	0x80b
    191a:	0003e417          	auipc	s0,0x3e
    191e:	0500                	addi	s0,sp,640
    1920:	0282                	c.slli64	t0
    1922:	3318                	fld	fa4,32(a4)
    1924:	0000                	unimp
    1926:	0000                	unimp
    1928:	00065917          	auipc	s2,0x65
    192c:	0500                	addi	s0,sp,640
    192e:	b6120283          	lb	t0,-1183(tp) # 4b61 <_start-0x7fffb49f>
    1932:	0005                	c.nop	1
    1934:	0400                	addi	s0,sp,512
    1936:	00035d17          	auipc	s10,0x35
    193a:	0500                	addi	s0,sp,640
    193c:	0284                	addi	s1,sp,320
    193e:	0b10                	addi	a2,sp,400
    1940:	0008                	0x8
    1942:	0800                	addi	s0,sp,16
    1944:	00072f17          	auipc	t5,0x72
    1948:	0500                	addi	s0,sp,640
    194a:	0285                	addi	t0,t0,1
    194c:	00019b17          	auipc	s6,0x19
    1950:	2400                	fld	fs0,8(s0)
    1952:	00028f17          	auipc	t5,0x28
    1956:	0500                	addi	s0,sp,640
    1958:	0286                	slli	t0,t0,0x1
    195a:	00002c0f          	0x2c0f
    195e:	4800                	lw	s0,16(s0)
    1960:	00079b17          	auipc	s6,0x79
    1964:	0500                	addi	s0,sp,640
    1966:	252c0287          	0x252c0287
    196a:	0000                	unimp
    196c:	5000                	lw	s0,32(s0)
    196e:	00074717          	auipc	a4,0x74
    1972:	0500                	addi	s0,sp,640
    1974:	0288                	addi	a0,sp,320
    1976:	ad1a                	fsd	ft6,152(sp)
    1978:	0006                	c.slli	zero,0x1
    197a:	5800                	lw	s0,48(s0)
    197c:	0005ad17          	auipc	s10,0x5a
    1980:	0500                	addi	s0,sp,640
    1982:	0289                	addi	t0,t0,2
    1984:	0516                	slli	a0,a0,0x5
    1986:	0001                	nop
    1988:	6800                	flw	fs0,16(s0)
    198a:	00076717          	auipc	a4,0x76
    198e:	0500                	addi	s0,sp,640
    1990:	028a                	slli	t0,t0,0x2
    1992:	0516                	slli	a0,a0,0x5
    1994:	0001                	nop
    1996:	7000                	flw	fs0,32(s0)
    1998:	0001c717          	auipc	a4,0x1c
    199c:	0500                	addi	s0,sp,640
    199e:	0516028b          	0x516028b
    19a2:	0001                	nop
    19a4:	7800                	flw	fs0,48(s0)
    19a6:	0006e917          	auipc	s2,0x6e
    19aa:	0500                	addi	s0,sp,640
    19ac:	028c                	addi	a1,sp,320
    19ae:	1b10                	addi	a2,sp,432
    19b0:	0008                	0x8
    19b2:	8000                	0x8000
    19b4:	00035117          	auipc	sp,0x35
    19b8:	0500                	addi	s0,sp,640
    19ba:	028d                	addi	t0,t0,3
    19bc:	2b10                	fld	fa2,16(a4)
    19be:	0008                	0x8
    19c0:	8800                	0x8800
    19c2:	00005017          	auipc	zero,0x5
    19c6:	0500                	addi	s0,sp,640
    19c8:	028e                	slli	t0,t0,0x3
    19ca:	00002c0f          	0x2c0f
    19ce:	a000                	fsd	fs0,0(s0)
    19d0:	00025917          	auipc	s2,0x25
    19d4:	0500                	addi	s0,sp,640
    19d6:	0516028f          	0x516028f
    19da:	0001                	nop
    19dc:	a400                	fsd	fs0,8(s0)
    19de:	0000c617          	auipc	a2,0xc
    19e2:	0500                	addi	s0,sp,640
    19e4:	0290                	addi	a2,sp,320
    19e6:	0516                	slli	a0,a0,0x5
    19e8:	0001                	nop
    19ea:	ac00                	fsd	fs0,24(s0)
    19ec:	00024817          	auipc	a6,0x24
    19f0:	0500                	addi	s0,sp,640
    19f2:	0291                	addi	t0,t0,4
    19f4:	0516                	slli	a0,a0,0x5
    19f6:	0001                	nop
    19f8:	b400                	fsd	fs0,40(s0)
    19fa:	00006317          	auipc	t1,0x6
    19fe:	0500                	addi	s0,sp,640
    1a00:	0292                	slli	t0,t0,0x4
    1a02:	0516                	slli	a0,a0,0x5
    1a04:	0001                	nop
    1a06:	bc00                	fsd	fs0,56(s0)
    1a08:	00007217          	auipc	tp,0x7
    1a0c:	0500                	addi	s0,sp,640
    1a0e:	05160293          	addi	t0,a2,81 # da2f <_start-0x7fff25d1>
    1a12:	0001                	nop
    1a14:	c400                	sw	s0,8(s0)
    1a16:	0004f517          	auipc	a0,0x4f
    1a1a:	0500                	addi	s0,sp,640
    1a1c:	0294                	addi	a3,sp,320
    1a1e:	2c08                	fld	fa0,24(s0)
    1a20:	0000                	unimp
    1a22:	cc00                	sw	s0,24(s0)
    1a24:	0800                	addi	s0,sp,16
    1a26:	05bc                	addi	a5,sp,712
    1a28:	0000                	unimp
    1a2a:	0000081b          	0x81b
    1a2e:	3309                	jal	1730 <_start-0x7fffe8d0>
    1a30:	0000                	unimp
    1a32:	1900                	addi	s0,sp,176
    1a34:	0800                	addi	s0,sp,16
    1a36:	05bc                	addi	a5,sp,712
    1a38:	0000                	unimp
    1a3a:	0000082b          	0x82b
    1a3e:	3309                	jal	1740 <_start-0x7fffe8c0>
    1a40:	0000                	unimp
    1a42:	0700                	addi	s0,sp,896
    1a44:	0800                	addi	s0,sp,16
    1a46:	05bc                	addi	a5,sp,712
    1a48:	0000                	unimp
    1a4a:	0000083b          	0x83b
    1a4e:	3309                	jal	1750 <_start-0x7fffe8b0>
    1a50:	0000                	unimp
    1a52:	1700                	addi	s0,sp,928
    1a54:	1a00                	addi	s0,sp,304
    1a56:	05f0                	addi	a2,sp,716
    1a58:	0299                	addi	t0,t0,6
    1a5a:	00086207          	vlwu.v	v4,(a6),v0.t
    1a5e:	1700                	addi	s0,sp,928
    1a60:	041d                	addi	s0,s0,7
    1a62:	0000                	unimp
    1a64:	9c05                	0x9c05
    1a66:	1b02                	slli	s6,s6,0x20
    1a68:	0862                	slli	a6,a6,0x18
    1a6a:	0000                	unimp
    1a6c:	1700                	addi	s0,sp,928
    1a6e:	029e                	slli	t0,t0,0x7
    1a70:	0000                	unimp
    1a72:	9d05                	0x9d05
    1a74:	1802                	slli	a6,a6,0x20
    1a76:	0872                	slli	a6,a6,0x1c
    1a78:	0000                	unimp
    1a7a:	0078                	addi	a4,sp,12
    1a7c:	fb08                	fsw	fa0,48(a4)
    1a7e:	0002                	c.slli64	zero
    1a80:	7200                	flw	fs0,32(a2)
    1a82:	0008                	0x8
    1a84:	0900                	addi	s0,sp,144
    1a86:	00000033          	add	zero,zero,zero
    1a8a:	001d                	c.nop	7
    1a8c:	3308                	fld	fa0,32(a4)
    1a8e:	0000                	unimp
    1a90:	8200                	0x8200
    1a92:	0008                	0x8
    1a94:	0900                	addi	s0,sp,144
    1a96:	00000033          	add	zero,zero,zero
    1a9a:	001d                	c.nop	7
    1a9c:	7e05f01b          	0x7e05f01b
    1aa0:	0302                	c.slli64	t1
    1aa2:	000008a7          	vsb.v	v17,(zero),v0.t
    1aa6:	e01c                	fsw	fa5,0(s0)
    1aa8:	0005                	c.nop	1
    1aaa:	0500                	addi	s0,sp,640
    1aac:	0295                	addi	t0,t0,5
    1aae:	0006f60b          	0x6f60b
    1ab2:	1c00                	addi	s0,sp,560
    1ab4:	0712                	slli	a4,a4,0x4
    1ab6:	0000                	unimp
    1ab8:	9e05                	0x9e05
    1aba:	0b02                	c.slli64	s6
    1abc:	0000083b          	0x83b
    1ac0:	0800                	addi	s0,sp,16
    1ac2:	05bc                	addi	a5,sp,712
    1ac4:	0000                	unimp
    1ac6:	000008b7          	lui	a7,0x0
    1aca:	3309                	jal	17cc <_start-0x7fffe834>
    1acc:	0000                	unimp
    1ace:	1800                	addi	s0,sp,48
    1ad0:	1d00                	addi	s0,sp,688
    1ad2:	000000bb          	0xbb
    1ad6:	08b7040f          	0x8b7040f
    1ada:	0000                	unimp
    1adc:	cd1e                	sw	t2,152(sp)
    1ade:	0008                	0x8
    1ae0:	1400                	addi	s0,sp,544
    1ae2:	0462                	slli	s0,s0,0x18
    1ae4:	0000                	unimp
    1ae6:	0f00                	addi	s0,sp,912
    1ae8:	c204                	sw	s1,0(a2)
    1aea:	0008                	0x8
    1aec:	0f00                	addi	s0,sp,912
    1aee:	8504                	0x8504
    1af0:	0001                	nop
    1af2:	1e00                	addi	s0,sp,816
    1af4:	08e4                	addi	s1,sp,92
    1af6:	0000                	unimp
    1af8:	2c14                	fld	fa3,24(s0)
    1afa:	0000                	unimp
    1afc:	0000                	unimp
    1afe:	08ea040f          	0x8ea040f
    1b02:	0000                	unimp
    1b04:	08d9040f          	0x8d9040f
    1b08:	0000                	unimp
    1b0a:	5b08                	lw	a0,48(a4)
    1b0c:	0006                	c.slli	zero,0x1
    1b0e:	0000                	unimp
    1b10:	0009                	c.nop	2
    1b12:	0900                	addi	s0,sp,144
    1b14:	00000033          	add	zero,zero,zero
    1b18:	0002                	c.slli64	zero
    1b1a:	ad1f 0006 0500      	0x5000006ad1f
    1b20:	032e                	slli	t1,t1,0xb
    1b22:	00046217          	auipc	tp,0x46
    1b26:	1f00                	addi	s0,sp,944
    1b28:	06a6                	slli	a3,a3,0x9
    1b2a:	0000                	unimp
    1b2c:	2f05                	jal	225c <_start-0x7fffdda4>
    1b2e:	04681d03          	lh	s10,70(a6) # 25a32 <_start-0x7ffda5ce>
    1b32:	0000                	unimp
    1b34:	f208                	fsw	fa0,32(a2)
    1b36:	0005                	c.nop	1
    1b38:	2500                	fld	fs0,8(a0)
    1b3a:	0009                	c.nop	2
    1b3c:	2000                	fld	fs0,0(s0)
    1b3e:	1500                	addi	s0,sp,672
    1b40:	091a                	slli	s2,s2,0x6
    1b42:	0000                	unimp
    1b44:	3321                	jal	184c <_start-0x7fffe7b4>
    1b46:	0002                	c.slli64	zero
    1b48:	0600                	addi	s0,sp,768
    1b4a:	2414                	fld	fa3,8(s0)
    1b4c:	0925                	addi	s2,s2,9
    1b4e:	0000                	unimp
    1b50:	a321                	j	2058 <_start-0x7fffdfa8>
    1b52:	0005                	c.nop	1
    1b54:	0600                	addi	s0,sp,768
    1b56:	1515                	addi	a0,a0,-27
    1b58:	002c                	addi	a1,sp,8
    1b5a:	0000                	unimp
    1b5c:	0948040f          	0x948040f
    1b60:	0000                	unimp
    1b62:	00002c13          	slti	s8,zero,0
    1b66:	5c00                	lw	s0,56(s0)
    1b68:	0009                	c.nop	2
    1b6a:	1400                	addi	s0,sp,544
    1b6c:	095c                	addi	a5,sp,148
    1b6e:	0000                	unimp
    1b70:	5c14                	lw	a3,56(s0)
    1b72:	0009                	c.nop	2
    1b74:	0000                	unimp
    1b76:	0962040f          	0x962040f
    1b7a:	0000                	unimp
    1b7c:	2122                	fld	ft2,8(sp)
    1b7e:	00000443          	fmadd.s	fs0,ft0,ft0,ft0,rne
    1b82:	b60e6707          	0xb60e6707
    1b86:	0005                	c.nop	1
    1b88:	2100                	fld	fs0,0(a0)
    1b8a:	00000383          	lb	t2,0(zero) # 0 <_start-0x80000000>
    1b8e:	1008                	addi	a0,sp,32
    1b90:	00097b0f          	0x97b0f
    1b94:	0f00                	addi	s0,sp,912
    1b96:	b604                	fsd	fs1,40(a2)
    1b98:	0005                	c.nop	1
    1b9a:	2100                	fld	fs0,0(a0)
    1b9c:	0446                	slli	s0,s0,0x11
    1b9e:	0000                	unimp
    1ba0:	fc08                	fsw	fa0,56(s0)
    1ba2:	b60e                	fsd	ft3,296(sp)
    1ba4:	0005                	c.nop	1
    1ba6:	2100                	fld	fs0,0(a0)
    1ba8:	0096                	slli	ra,ra,0x5
    1baa:	0000                	unimp
    1bac:	fd08                	fsw	fa0,56(a0)
    1bae:	2c0c                	fld	fa1,24(s0)
    1bb0:	0000                	unimp
    1bb2:	2100                	fld	fs0,0(a0)
    1bb4:	00000643          	fmadd.s	fa2,ft0,ft0,ft0,rne
    1bb8:	fd08                	fsw	fa0,56(a0)
    1bba:	2c14                	fld	fa3,24(s0)
    1bbc:	0000                	unimp
    1bbe:	2100                	fld	fs0,0(a0)
    1bc0:	0756                	slli	a4,a4,0x15
    1bc2:	0000                	unimp
    1bc4:	fd08                	fsw	fa0,56(a0)
    1bc6:	2c1c                	fld	fa5,24(s0)
    1bc8:	0000                	unimp
    1bca:	2100                	fld	fs0,0(a0)
    1bcc:	03c2                	slli	t2,t2,0x10
    1bce:	0000                	unimp
    1bd0:	ff08                	fsw	fa0,56(a4)
    1bd2:	2c0c                	fld	fa1,24(s0)
    1bd4:	0000                	unimp
    1bd6:	2100                	fld	fs0,0(a0)
    1bd8:	00000473          	0x473
    1bdc:	9a09                	andi	a2,a2,-30
    1bde:	6416                	flw	fs0,68(sp)
    1be0:	0000                	unimp
    1be2:	2100                	fld	fs0,0(a0)
    1be4:	00000037          	lui	zero,0x0
    1be8:	9b09                	andi	a4,a4,-30
    1bea:	2c15                	jal	1e1e <_start-0x7fffe1e2>
    1bec:	0000                	unimp
    1bee:	0800                	addi	s0,sp,16
    1bf0:	05b6                	slli	a1,a1,0xd
    1bf2:	0000                	unimp
    1bf4:	09e5                	addi	s3,s3,25
    1bf6:	0000                	unimp
    1bf8:	3309                	jal	18fa <_start-0x7fffe706>
    1bfa:	0000                	unimp
    1bfc:	0100                	addi	s0,sp,128
    1bfe:	2100                	fld	fs0,0(a0)
    1c00:	00d5                	addi	ra,ra,21
    1c02:	0000                	unimp
    1c04:	9e09                	0x9e09
    1c06:	0009d517          	auipc	a0,0x9d
    1c0a:	0400                	addi	s0,sp,512
    1c0c:	02f2                	slli	t0,t0,0x1c
    1c0e:	0000                	unimp
    1c10:	2a0a                	fld	fs4,128(sp)
    1c12:	3316                	fld	ft6,352(sp)
    1c14:	0000                	unimp
    1c16:	0400                	addi	s0,sp,512
    1c18:	0529                	addi	a0,a0,10
    1c1a:	0000                	unimp
    1c1c:	2f0a                	fld	ft10,128(sp)
    1c1e:	0915                	addi	s2,s2,5
    1c20:	000a                	c.slli	zero,0x2
    1c22:	0f00                	addi	s0,sp,912
    1c24:	0f04                	addi	s1,sp,912
    1c26:	000a                	c.slli	zero,0x2
    1c28:	1300                	addi	s0,sp,416
    1c2a:	09f1                	addi	s3,s3,28
    1c2c:	0000                	unimp
    1c2e:	0a1e                	slli	s4,s4,0x7
    1c30:	0000                	unimp
    1c32:	5c14                	lw	a3,56(s0)
    1c34:	0009                	c.nop	2
    1c36:	0000                	unimp
    1c38:	a604                	fsd	fs1,8(a2)
    1c3a:	0a000007          	vlsbu.v	v0,(zero),zero
    1c3e:	0f36                	slli	t5,t5,0xd
    1c40:	0942                	slli	s2,s2,0x10
    1c42:	0000                	unimp
    1c44:	0a21                	addi	s4,s4,8
    1c46:	0000                	unimp
    1c48:	0a00                	addi	s0,sp,272
    1c4a:	09fd12bb          	0x9fd12bb
    1c4e:	0000                	unimp
    1c50:	9121                	srli	a0,a0,0x28
    1c52:	0006                	c.slli	zero,0x1
    1c54:	0a00                	addi	s0,sp,272
    1c56:	10be                	slli	ra,ra,0x2f
    1c58:	0a1e                	slli	s4,s4,0x7
    1c5a:	0000                	unimp
    1c5c:	0002c523          	0x2c523
    1c60:	0700                	addi	s0,sp,896
    1c62:	3304                	fld	fs1,32(a4)
    1c64:	0000                	unimp
    1c66:	0b00                	addi	s0,sp,400
    1c68:	0618                	addi	a4,sp,768
    1c6a:	0a7f                	0xa7f
    1c6c:	0000                	unimp
    1c6e:	d024                	sw	s1,96(s0)
    1c70:	0004                	0x4
    1c72:	0000                	unimp
    1c74:	9d24                	0x9d24
    1c76:	01000003          	lb	zero,16(zero) # 10 <_start-0x7ffffff0>
    1c7a:	7824                	flw	fs1,112(s0)
    1c7c:	02000003          	lb	zero,32(zero) # 20 <_start-0x7fffffe0>
    1c80:	f124                	fsw	fs1,96(a0)
    1c82:	03000003          	lb	zero,48(zero) # 30 <_start-0x7fffffd0>
    1c86:	c724                	sw	s1,72(a4)
    1c88:	0004                	0x4
    1c8a:	0400                	addi	s0,sp,512
    1c8c:	5d24                	lw	s1,120(a0)
    1c8e:	05000007          	0x5000007
    1c92:	4c24                	lw	s1,88(s0)
    1c94:	06000007          	0x6000007
    1c98:	2100                	fld	fs0,0(a0)
    1c9a:	00b1                	addi	ra,ra,12
    1c9c:	0000                	unimp
    1c9e:	421c210b          	0x421c210b
    1ca2:	000a                	c.slli	zero,0x2
    1ca4:	2300                	fld	fs0,0(a4)
    1ca6:	03fc                	addi	a5,sp,460
    1ca8:	0000                	unimp
    1caa:	00330407          	0x330407
    1cae:	0000                	unimp
    1cb0:	b006230b          	0xb006230b
    1cb4:	000a                	c.slli	zero,0x2
    1cb6:	2400                	fld	fs0,8(s0)
    1cb8:	051f 0000 2400      	0x24000000051f
    1cbe:	04e6                	slli	s1,s1,0x19
    1cc0:	0000                	unimp
    1cc2:	2401                	jal	1ec2 <_start-0x7fffe13e>
    1cc4:	0666                	slli	a2,a2,0x19
    1cc6:	0000                	unimp
    1cc8:	0002                	c.slli64	zero
    1cca:	6721                	lui	a4,0x8
    1ccc:	0002                	c.slli64	zero
    1cce:	0b00                	addi	s0,sp,400
    1cd0:	1e28                	addi	a0,sp,824
    1cd2:	00000a8b          	0xa8b
    1cd6:	b321                	j	19de <_start-0x7fffe622>
    1cd8:	0c000003          	lb	zero,192(zero) # c0 <_start-0x7fffff40>
    1cdc:	1a29                	addi	s4,s4,-22
    1cde:	0925                	addi	s2,s2,9
    1ce0:	0000                	unimp
    1ce2:	2d21                	jal	22fa <_start-0x7fffdd06>
    1ce4:	0006                	c.slli	zero,0x1
    1ce6:	0c00                	addi	s0,sp,528
    1ce8:	1a38                	addi	a4,sp,312
    1cea:	0925                	addi	s2,s2,9
    1cec:	0000                	unimp
    1cee:	8204                	0x8204
    1cf0:	0d000007          	vlxbu.v	v0,(zero),v16,v0.t
    1cf4:	004f167b          	0x4f167b
    1cf8:	0000                	unimp
    1cfa:	d415                	beqz	s0,1c26 <_start-0x7fffe3da>
    1cfc:	000a                	c.slli	zero,0x2
    1cfe:	0400                	addi	s0,sp,512
    1d00:	021e                	slli	tp,tp,0x7
    1d02:	0000                	unimp
    1d04:	800d                	srli	s0,s0,0x3
    1d06:	00002c0f          	0x2c0f
    1d0a:	0400                	addi	s0,sp,512
    1d0c:	021d                	addi	tp,tp,7
    1d0e:	0000                	unimp
    1d10:	810d                	srli	a0,a0,0x3
    1d12:	3316                	fld	ft6,352(sp)
    1d14:	0000                	unimp
    1d16:	0400                	addi	s0,sp,512
    1d18:	06ba                	slli	a3,a3,0xe
    1d1a:	0000                	unimp
    1d1c:	840d                	srai	s0,s0,0x3
    1d1e:	00003a0f          	0x3a0f
    1d22:	0400                	addi	s0,sp,512
    1d24:	06b9                	addi	a3,a3,14
    1d26:	0000                	unimp
    1d28:	850d                	srai	a0,a0,0x3
    1d2a:	2516                	fld	fa0,320(sp)
    1d2c:	0000                	unimp
    1d2e:	0200                	addi	s0,sp,256
    1d30:	0404                	addi	s1,sp,512
    1d32:	042c                	addi	a1,sp,520
    1d34:	0000                	unimp
    1d36:	0802                	c.slli64	a6
    1d38:	00042403          	lw	s0,0(s0) # 3f91a <_start-0x7ffc06e6>
    1d3c:	0200                	addi	s0,sp,256
    1d3e:	0408                	addi	a0,sp,512
    1d40:	00aa                	slli	ra,ra,0xa
    1d42:	0000                	unimp
    1d44:	1002                	c.slli	zero,0x20
    1d46:	00004103          	lbu	sp,0(zero) # 0 <_start-0x80000000>
    1d4a:	0200                	addi	s0,sp,256
    1d4c:	0320                	addi	s0,sp,392
    1d4e:	009d                	addi	ra,ra,7
    1d50:	0000                	unimp
    1d52:	2219                	jal	1e58 <_start-0x7fffe1a8>
    1d54:	08000003          	lb	zero,128(zero) # 80 <_start-0x7fffff80>
    1d58:	ed0d                	bnez	a0,1d92 <_start-0x7fffe26e>
    1d5a:	0a01                	addi	s4,s4,0
    1d5c:	00000b63          	beqz	zero,1d72 <_start-0x7fffe28e>
    1d60:	6c25                	lui	s8,0x9
    1d62:	0d00776f          	jal	a4,8e32 <_start-0x7fff71ce>
    1d66:	01ed                	addi	gp,gp,27
    1d68:	e51a                	fsw	ft6,136(sp)
    1d6a:	000a                	c.slli	zero,0x2
    1d6c:	0000                	unimp
    1d6e:	00064a17          	auipc	s4,0x64
    1d72:	0d00                	addi	s0,sp,656
    1d74:	01ed                	addi	gp,gp,27
    1d76:	e51f 000a 0400      	0x400000ae51f
    1d7c:	1b00                	addi	s0,sp,432
    1d7e:	0d08                	addi	a0,sp,656
    1d80:	01f4                	addi	a3,sp,204
    1d82:	8509                	srai	a0,a0,0x2
    1d84:	2600000b          	0x2600000b
    1d88:	f60d0073          	0xf60d0073
    1d8c:	1301                	addi	t1,t1,-32
    1d8e:	0b38                	addi	a4,sp,408
    1d90:	0000                	unimp
    1d92:	6c26                	flw	fs8,72(sp)
    1d94:	006c                	addi	a1,sp,12
    1d96:	f70d                	bnez	a4,1cc0 <_start-0x7fffe340>
    1d98:	0a01                	addi	s4,s4,0
    1d9a:	0afd                	addi	s5,s5,31
    1d9c:	0000                	unimp
    1d9e:	0500                	addi	s0,sp,640
    1da0:	02fc                	addi	a5,sp,332
    1da2:	0000                	unimp
    1da4:	f80d                	bnez	s0,1cd6 <_start-0x7fffe32a>
    1da6:	0301                	addi	t1,t1,0
    1da8:	00000b63          	beqz	zero,1dbe <_start-0x7fffe242>
    1dac:	8515                	srai	a0,a0,0x5
    1dae:	0800000b          	0x800000b
    1db2:	0ae0                	addi	s0,sp,348
    1db4:	0000                	unimp
    1db6:	00000ba7          	vsb.v	v23,(zero),v0.t
    1dba:	3309                	jal	1abc <_start-0x7fffe544>
    1dbc:	0000                	unimp
    1dbe:	ff00                	fsw	fs0,56(a4)
    1dc0:	1500                	addi	s0,sp,672
    1dc2:	00000b97          	auipc	s7,0x0
    1dc6:	fd1f 0006 0d00      	0xd000006fd1f
    1dcc:	01fc                	addi	a5,sp,204
    1dce:	a716                	fsd	ft5,392(sp)
    1dd0:	1f00000b          	0x1f00000b
    1dd4:	033e                	slli	t1,t1,0xf
    1dd6:	0000                	unimp
    1dd8:	020d                	addi	tp,tp,3
    1dda:	1602                	slli	a2,a2,0x20
    1ddc:	00000ba7          	vsb.v	v23,(zero),v0.t
    1de0:	0007ae27          	fsw	ft0,28(a5)
    1de4:	0100                	addi	s0,sp,128
    1de6:	051a                	slli	a0,a0,0x6
    1de8:	0901                	addi	s2,s2,0
    1dea:	0000000b          	0xb
    1dee:	0000                	unimp
    1df0:	0000                	unimp
    1df2:	0000                	unimp
    1df4:	0100                	addi	s0,sp,128
    1df6:	009c                	addi	a5,sp,64
    1df8:	2800000f          	0x2800000f
    1dfc:	0075                	c.nop	29
    1dfe:	1a01                	addi	s4,s4,-32
    1e00:	1405                	addi	s0,s0,-31
    1e02:	0b09                	addi	s6,s6,2
    1e04:	0000                	unimp
    1e06:	0c1c                	addi	a5,sp,528
    1e08:	0000                	unimp
    1e0a:	7628                	flw	fa0,104(a2)
    1e0c:	0100                	addi	s0,sp,128
    1e0e:	051a                	slli	a0,a0,0x6
    1e10:	091f 000b c400      	0xc400000b091f
    1e16:	000c                	0xc
    1e18:	2900                	fld	fs0,16(a0)
    1e1a:	1c010077          	0x1c010077
    1e1e:	0b05                	addi	s6,s6,1
    1e20:	0b09                	addi	s6,s6,2
    1e22:	0000                	unimp
    1e24:	0d2c                	addi	a1,sp,664
    1e26:	0000                	unimp
    1e28:	002a                	c.slli	zero,0xa
    1e2a:	0000000f          	fence	unknown,unknown
    1e2e:	0000                	unimp
    1e30:	0000                	unimp
    1e32:	0001                	nop
    1e34:	0100                	addi	s0,sp,128
    1e36:	051e                	slli	a0,a0,0x7
    1e38:	2b0a                	fld	fs6,128(sp)
    1e3a:	0f28                	addi	a0,sp,920
    1e3c:	0000                	unimp
    1e3e:	0d44                	addi	s1,sp,660
    1e40:	0000                	unimp
    1e42:	000f1d2b          	0xf1d2b
    1e46:	6c00                	flw	fs0,24(s0)
    1e48:	000d                	c.nop	3
    1e4a:	2b00                	fld	fs0,16(a4)
    1e4c:	0f12                	slli	t5,t5,0x4
    1e4e:	0000                	unimp
    1e50:	0dd4                	addi	a3,sp,724
    1e52:	0000                	unimp
    1e54:	002c                	addi	a1,sp,8
    1e56:	0001                	nop
    1e58:	2d00                	fld	fs0,24(a0)
    1e5a:	0f34                	addi	a3,sp,920
    1e5c:	0000                	unimp
    1e5e:	402d                	c.li	zero,11
    1e60:	2d00000f          	0x2d00000f
    1e64:	0f4c                	addi	a1,sp,916
    1e66:	0000                	unimp
    1e68:	582e                	lw	a6,232(sp)
    1e6a:	4c00000f          	0x4c00000f
    1e6e:	000e                	c.slli	zero,0x3
    1e70:	2e00                	fld	fs0,24(a2)
    1e72:	0f64                	addi	s1,sp,924
    1e74:	0000                	unimp
    1e76:	00000e8b          	0xe8b
    1e7a:	702e                	flw	ft0,232(sp)
    1e7c:	e000000f          	0xe000000f
    1e80:	000e                	c.slli	zero,0x3
    1e82:	2e00                	fld	fs0,24(a2)
    1e84:	0f7c                	addi	a5,sp,924
    1e86:	0000                	unimp
    1e88:	0f56                	slli	t5,t5,0x15
    1e8a:	0000                	unimp
    1e8c:	882e                	mv	a6,a1
    1e8e:	e200000f          	0xe200000f
    1e92:	2e00000f          	0x2e00000f
    1e96:	0f94                	addi	a3,sp,976
    1e98:	0000                	unimp
    1e9a:	1000                	addi	s0,sp,32
    1e9c:	0000                	unimp
    1e9e:	a02e                	fsd	fa1,0(sp)
    1ea0:	1400000f          	0x1400000f
    1ea4:	0010                	0x10
    1ea6:	2e00                	fld	fs0,24(a2)
    1ea8:	0fac                	addi	a1,sp,984
    1eaa:	0000                	unimp
    1eac:	1034                	addi	a3,sp,40
    1eae:	0000                	unimp
    1eb0:	b72e                	fsd	fa1,424(sp)
    1eb2:	5200000f          	0x5200000f
    1eb6:	0010                	0x10
    1eb8:	2d00                	fld	fs0,24(a0)
    1eba:	00000fc3          	fmadd.s	ft11,ft0,ft0,ft0,rne
    1ebe:	000fcf2f          	0xfcf2f
    1ec2:	1800                	addi	s0,sp,48
    1ec4:	0001                	nop
    1ec6:	c400                	sw	s0,8(s0)
    1ec8:	000c                	0xc
    1eca:	2e00                	fld	fs0,24(a2)
    1ecc:	0fd4                	addi	a3,sp,980
    1ece:	0000                	unimp
    1ed0:	1091                	addi	ra,ra,-28
    1ed2:	0000                	unimp
    1ed4:	e12e                	fsw	fa1,128(sp)
    1ed6:	af00000f          	0xaf00000f
    1eda:	0010                	0x10
    1edc:	0000                	unimp
    1ede:	ef30                	fsw	fa2,88(a4)
    1ee0:	0000000f          	fence	unknown,unknown
    1ee4:	0000                	unimp
    1ee6:	0000                	unimp
    1ee8:	0000                	unimp
    1eea:	1100                	addi	s0,sp,160
    1eec:	000d                	c.nop	3
    1eee:	2e00                	fld	fs0,24(a2)
    1ef0:	0ff4                	addi	a3,sp,988
    1ef2:	0000                	unimp
    1ef4:	10c2                	slli	ra,ra,0x30
    1ef6:	0000                	unimp
    1ef8:	012e                	slli	sp,sp,0xb
    1efa:	0010                	0x10
    1efc:	d500                	sw	s0,40(a0)
    1efe:	0010                	0x10
    1f00:	2d00                	fld	fs0,24(a0)
    1f02:	100e                	c.slli	zero,0x23
    1f04:	0000                	unimp
    1f06:	1b2e                	slli	s6,s6,0x2b
    1f08:	0010                	0x10
    1f0a:	f900                	fsw	fs0,48(a0)
    1f0c:	0010                	0x10
    1f0e:	2e00                	fld	fs0,24(a2)
    1f10:	1028                	addi	a0,sp,40
    1f12:	0000                	unimp
    1f14:	110c                	addi	a1,sp,160
    1f16:	0000                	unimp
    1f18:	352e                	fld	fa0,232(sp)
    1f1a:	0010                	0x10
    1f1c:	2a00                	fld	fs0,16(a2)
    1f1e:	0011                	c.nop	4
    1f20:	2e00                	fld	fs0,24(a2)
    1f22:	1042                	c.slli	zero,0x30
    1f24:	0000                	unimp
    1f26:	1148                	addi	a0,sp,164
    1f28:	0000                	unimp
    1f2a:	2f00                	fld	fs0,24(a4)
    1f2c:	1050                	addi	a2,sp,36
    1f2e:	0000                	unimp
    1f30:	0130                	addi	a2,sp,136
    1f32:	0000                	unimp
    1f34:	0d31                	addi	s10,s10,12
    1f36:	0000                	unimp
    1f38:	552e                	lw	a0,232(sp)
    1f3a:	0010                	0x10
    1f3c:	6600                	flw	fs0,8(a2)
    1f3e:	0011                	c.nop	4
    1f40:	2e00                	fld	fs0,24(a2)
    1f42:	1062                	c.slli	zero,0x38
    1f44:	0000                	unimp
    1f46:	1184                	addi	s1,sp,224
    1f48:	0000                	unimp
    1f4a:	3000                	fld	fs0,32(s0)
    1f4c:	10d1                	addi	ra,ra,-12
	...
    1f56:	0000                	unimp
    1f58:	0d82                	c.slli64	s11
    1f5a:	0000                	unimp
    1f5c:	d62e                	sw	a1,44(sp)
    1f5e:	0010                	0x10
    1f60:	a200                	fsd	fs0,0(a2)
    1f62:	0011                	c.nop	4
    1f64:	2e00                	fld	fs0,24(a2)
    1f66:	000010e3          	bnez	zero,2766 <_start-0x7fffd89a>
    1f6a:	11b5                	addi	gp,gp,-19
    1f6c:	0000                	unimp
    1f6e:	f02e                	fsw	fa1,32(sp)
    1f70:	0010                	0x10
    1f72:	d900                	sw	s0,48(a0)
    1f74:	0011                	c.nop	4
    1f76:	2e00                	fld	fs0,24(a2)
    1f78:	10fd                	addi	ra,ra,-1
    1f7a:	0000                	unimp
    1f7c:	11ec                	addi	a1,sp,236
    1f7e:	0000                	unimp
    1f80:	0a2e                	slli	s4,s4,0xb
    1f82:	0011                	c.nop	4
    1f84:	ff00                	fsw	fs0,56(a4)
    1f86:	0011                	c.nop	4
    1f88:	2e00                	fld	fs0,24(a2)
    1f8a:	00001117          	auipc	sp,0x1
    1f8e:	1228                	addi	a0,sp,296
    1f90:	0000                	unimp
    1f92:	242e                	fld	fs0,200(sp)
    1f94:	0011                	c.nop	4
    1f96:	4600                	lw	s0,8(a2)
    1f98:	0012                	c.slli	zero,0x4
    1f9a:	0000                	unimp
    1f9c:	0010702f          	vamoadde.v	zero,v1,(zero),v0,v0.t
    1fa0:	4800                	lw	s0,16(s0)
    1fa2:	0001                	nop
    1fa4:	cf00                	sw	s0,24(a4)
    1fa6:	000d                	c.nop	3
    1fa8:	2e00                	fld	fs0,24(a2)
    1faa:	1075                	c.nop	-3
    1fac:	0000                	unimp
    1fae:	1264                	addi	s1,sp,300
    1fb0:	0000                	unimp
    1fb2:	822e                	mv	tp,a1
    1fb4:	0010                	0x10
    1fb6:	7700                	flw	fs0,40(a4)
    1fb8:	0012                	c.slli	zero,0x4
    1fba:	2e00                	fld	fs0,24(a2)
    1fbc:	0000108f          	0x108f
    1fc0:	0000129b          	0x129b
    1fc4:	9c2e                	add	s8,s8,a1
    1fc6:	0010                	0x10
    1fc8:	ae00                	fsd	fs0,24(a2)
    1fca:	0012                	c.slli	zero,0x4
    1fcc:	2e00                	fld	fs0,24(a2)
    1fce:	10a9                	addi	ra,ra,-22
    1fd0:	0000                	unimp
    1fd2:	12c1                	addi	t0,t0,-16
    1fd4:	0000                	unimp
    1fd6:	b62e                	fsd	fa1,296(sp)
    1fd8:	0010                	0x10
    1fda:	ea00                	fsw	fs0,16(a2)
    1fdc:	0012                	c.slli	zero,0x4
    1fde:	2e00                	fld	fs0,24(a2)
    1fe0:	000010c3          	fmadd.s	ft1,ft0,ft0,ft0,rtz
    1fe4:	1308                	addi	a0,sp,416
    1fe6:	0000                	unimp
    1fe8:	2f00                	fld	fs0,24(a4)
    1fea:	1132                	slli	sp,sp,0x2c
    1fec:	0000                	unimp
    1fee:	0160                	addi	s0,sp,140
    1ff0:	0000                	unimp
    1ff2:	00000def          	jal	s11,1ff2 <_start-0x7fffe00e>
    1ff6:	372e                	fld	fa4,232(sp)
    1ff8:	0011                	c.nop	4
    1ffa:	2600                	fld	fs0,8(a2)
    1ffc:	2e000013          	li	zero,736
    2000:	1144                	addi	s1,sp,164
    2002:	0000                	unimp
    2004:	1339                	addi	t1,t1,-18
    2006:	0000                	unimp
    2008:	3000                	fld	fs0,32(s0)
    200a:	1152                	slli	sp,sp,0x34
	...
    2014:	0000                	unimp
    2016:	0e0a                	slli	t3,t3,0x2
    2018:	0000                	unimp
    201a:	572e                	lw	a4,232(sp)
    201c:	0011                	c.nop	4
    201e:	5700                	lw	s0,40(a4)
    2020:	00000013          	nop
    2024:	6531                	lui	a0,0xc
    2026:	0011                	c.nop	4
	...
    2030:	2e00                	fld	fs0,24(a2)
    2032:	1166                	slli	sp,sp,0x39
    2034:	0000                	unimp
    2036:	136a                	slli	t1,t1,0x3a
    2038:	0000                	unimp
    203a:	722e                	flw	ft4,232(sp)
    203c:	0011                	c.nop	4
    203e:	7d00                	flw	fs0,56(a0)
    2040:	2f000013          	li	zero,752
    2044:	117e                	slli	sp,sp,0x3f
    2046:	0000                	unimp
    2048:	0178                	addi	a4,sp,140
    204a:	0000                	unimp
    204c:	0e76                	slli	t3,t3,0x1d
    204e:	0000                	unimp
    2050:	832e                	mv	t1,a1
    2052:	0011                	c.nop	4
    2054:	a600                	fsd	fs0,8(a2)
    2056:	2e000013          	li	zero,736
    205a:	1190                	addi	a2,sp,224
    205c:	0000                	unimp
    205e:	13c8                	addi	a0,sp,484
    2060:	0000                	unimp
    2062:	9d2e                	add	s10,s10,a1
    2064:	0011                	c.nop	4
    2066:	ec00                	fsw	fs0,24(s0)
    2068:	2e000013          	li	zero,736
    206c:	11aa                	slli	gp,gp,0x2a
    206e:	0000                	unimp
    2070:	140a                	slli	s0,s0,0x22
    2072:	0000                	unimp
    2074:	b72e                	fsd	fa1,424(sp)
    2076:	0011                	c.nop	4
    2078:	2800                	fld	fs0,16(s0)
    207a:	0014                	0x14
    207c:	2e00                	fld	fs0,24(a2)
    207e:	11c4                	addi	s1,sp,228
    2080:	0000                	unimp
    2082:	1451                	addi	s0,s0,-12
    2084:	0000                	unimp
    2086:	d12e                	sw	a1,160(sp)
    2088:	0011                	c.nop	4
    208a:	7a00                	flw	fs0,48(a2)
    208c:	0014                	0x14
    208e:	0000                	unimp
    2090:	0011df2f          	0x11df2f
    2094:	b000                	fsd	fs0,32(s0)
    2096:	0001                	nop
    2098:	ca00                	sw	s0,16(a2)
    209a:	000e                	c.slli	zero,0x3
    209c:	2e00                	fld	fs0,24(a2)
    209e:	11e4                	addi	s1,sp,236
    20a0:	0000                	unimp
    20a2:	14a8                	addi	a0,sp,616
    20a4:	0000                	unimp
    20a6:	f12e                	fsw	fa1,160(sp)
    20a8:	0011                	c.nop	4
    20aa:	bb00                	fsd	fs0,48(a4)
    20ac:	0014                	0x14
    20ae:	2e00                	fld	fs0,24(a2)
    20b0:	11fe                	slli	gp,gp,0x3f
    20b2:	0000                	unimp
    20b4:	14e0                	addi	s0,sp,620
    20b6:	0000                	unimp
    20b8:	0b2e                	slli	s6,s6,0xb
    20ba:	0012                	c.slli	zero,0x4
    20bc:	f300                	fsw	fs0,32(a4)
    20be:	0014                	0x14
    20c0:	2e00                	fld	fs0,24(a2)
    20c2:	1218                	addi	a4,sp,288
    20c4:	0000                	unimp
    20c6:	1506                	slli	a0,a0,0x21
    20c8:	0000                	unimp
    20ca:	252e                	fld	fa0,200(sp)
    20cc:	0012                	c.slli	zero,0x4
    20ce:	1900                	addi	s0,sp,176
    20d0:	0015                	c.nop	5
    20d2:	2e00                	fld	fs0,24(a2)
    20d4:	1232                	slli	tp,tp,0x2c
    20d6:	0000                	unimp
    20d8:	154c                	addi	a1,sp,676
    20da:	0000                	unimp
    20dc:	3f32                	fld	ft10,296(sp)
    20de:	0012                	c.slli	zero,0x4
    20e0:	0100                	addi	s0,sp,128
    20e2:	0060                	addi	s0,sp,12
    20e4:	4d30                	lw	a2,88(a0)
    20e6:	0012                	c.slli	zero,0x4
	...
    20f0:	e500                	fsw	fs0,8(a0)
    20f2:	000e                	c.slli	zero,0x3
    20f4:	2e00                	fld	fs0,24(a2)
    20f6:	1252                	slli	tp,tp,0x34
    20f8:	0000                	unimp
    20fa:	155f 0000 3100      	0x31000000155f
    2100:	1260                	addi	s0,sp,300
	...
    210a:	0000                	unimp
    210c:	612e                	flw	ft2,200(sp)
    210e:	0012                	c.slli	zero,0x4
    2110:	7200                	flw	fs0,32(a2)
    2112:	0015                	c.nop	5
    2114:	0000                	unimp
    2116:	0000                	unimp
    2118:	0000                	unimp
    211a:	00062033          	sltz	zero,a2
    211e:	0100                	addi	s0,sp,128
    2120:	090103f7          	0x90103f7
    2124:	0300000b          	0x300000b
    2128:	1271                	addi	tp,tp,-4
    212a:	0000                	unimp
    212c:	6e34                	flw	fa3,88(a2)
    212e:	0100                	addi	s0,sp,128
    2130:	091703f7          	0x91703f7
    2134:	3400000b          	0x3400000b
    2138:	0064                	addi	s1,sp,12
    213a:	f701                	bnez	a4,2042 <_start-0x7fffdfbe>
    213c:	0b092203          	lw	tp,176(s2) # 26a80 <_start-0x7ffd9580>
    2140:	0000                	unimp
    2142:	7234                	flw	fa3,96(a2)
    2144:	0070                	addi	a2,sp,12
    2146:	f701                	bnez	a4,204e <_start-0x7fffdfb2>
    2148:	12712e03          	lw	t3,295(sp) # 30b1 <_start-0x7fffcf4f>
    214c:	0000                	unimp
    214e:	6e35                	lui	t3,0xd
    2150:	006e                	c.slli	zero,0x1b
    2152:	f901                	bnez	a0,2062 <_start-0x7fffdf9e>
    2154:	0b921103          	lh	sp,185(tp) # 47bdb <_start-0x7ffb8425>
    2158:	0000                	unimp
    215a:	6435                	lui	s0,0xd
    215c:	0064                	addi	s1,sp,12
    215e:	fa01                	bnez	a2,206e <_start-0x7fffdf92>
    2160:	0b921103          	lh	sp,185(tp) # b9 <_start-0x7fffff47>
    2164:	0000                	unimp
    2166:	7235                	lui	tp,0xfffed
    2168:	0072                	c.slli	zero,0x1c
    216a:	fb01                	bnez	a4,207a <_start-0x7fffdf86>
    216c:	0b850b03          	lb	s6,184(a0) # c0b8 <_start-0x7fff3f48>
    2170:	0000                	unimp
    2172:	6435                	lui	s0,0xd
    2174:	0030                	addi	a2,sp,8
    2176:	fc01                	bnez	s0,208e <_start-0x7fffdf72>
    2178:	0af10a03          	lb	s4,175(sp)
    217c:	0000                	unimp
    217e:	6435                	lui	s0,0xd
    2180:	0031                	c.nop	12
    2182:	fc01                	bnez	s0,209a <_start-0x7fffdf66>
    2184:	0af10e03          	lb	t3,175(sp)
    2188:	0000                	unimp
    218a:	6e35                	lui	t3,0xd
    218c:	0030                	addi	a2,sp,8
    218e:	fc01                	bnez	s0,20a6 <_start-0x7fffdf5a>
    2190:	0af11203          	lh	tp,175(sp)
    2194:	0000                	unimp
    2196:	6e35                	lui	t3,0xd
    2198:	0031                	c.nop	12
    219a:	fc01                	bnez	s0,20b2 <_start-0x7fffdf4e>
    219c:	0af11603          	lh	a2,175(sp)
    21a0:	0000                	unimp
    21a2:	6e35                	lui	t3,0xd
    21a4:	0032                	c.slli	zero,0xc
    21a6:	fc01                	bnez	s0,20be <_start-0x7fffdf42>
    21a8:	0af11a03          	lh	s4,175(sp)
    21ac:	0000                	unimp
    21ae:	7135                	addi	sp,sp,-160
    21b0:	0030                	addi	a2,sp,8
    21b2:	fd01                	bnez	a0,20ca <_start-0x7fffdf36>
    21b4:	0af10a03          	lb	s4,175(sp)
    21b8:	0000                	unimp
    21ba:	7135                	addi	sp,sp,-160
    21bc:	0031                	c.nop	12
    21be:	fd01                	bnez	a0,20d6 <_start-0x7fffdf2a>
    21c0:	0af10e03          	lb	t3,175(sp)
    21c4:	0000                	unimp
    21c6:	6235                	lui	tp,0xd
    21c8:	0100                	addi	s0,sp,128
    21ca:	03fe                	slli	t2,t2,0x1f
    21cc:	f10a                	fsw	ft2,160(sp)
    21ce:	000a                	c.slli	zero,0x2
    21d0:	3500                	fld	fs0,40(a0)
    21d2:	6d62                	flw	fs10,24(sp)
    21d4:	0100                	addi	s0,sp,128
    21d6:	03fe                	slli	t2,t2,0x1f
    21d8:	f10d                	bnez	a0,20fa <_start-0x7fffdf06>
    21da:	000a                	c.slli	zero,0x2
    21dc:	3500                	fld	fs0,40(a0)
    21de:	01007777          	0x1007777
    21e2:	921104c7          	fmsub.d	fs1,ft2,ft1,fs2,rne
    21e6:	3600000b          	0x3600000b
    21ea:	00000fef          	jal	t6,21ea <_start-0x7fffde16>
    21ee:	0006a137          	lui	sp,0x6a
    21f2:	0100                	addi	s0,sp,128
    21f4:	042e                	slli	s0,s0,0xb
    21f6:	f104                	fsw	fs1,32(a0)
    21f8:	000a                	c.slli	zero,0x2
    21fa:	3500                	fld	fs0,40(a0)
    21fc:	5f5f 0061 2e01      	0x2e0100615f5f
    2202:	0404                	addi	s1,sp,512
    2204:	0af1                	addi	s5,s5,28
    2206:	0000                	unimp
    2208:	3600                	fld	fs0,40(a2)
    220a:	1050                	addi	a2,sp,36
    220c:	0000                	unimp
    220e:	00008837          	lui	a6,0x8
    2212:	0100                	addi	s0,sp,128
    2214:	043a                	slli	s0,s0,0xe
    2216:	f104                	fsw	fs1,32(a0)
    2218:	000a                	c.slli	zero,0x2
    221a:	3700                	fld	fs0,40(a4)
    221c:	00000083          	lb	ra,0(zero) # 0 <_start-0x80000000>
    2220:	3a01                	jal	1b30 <_start-0x7fffe4d0>
    2222:	0404                	addi	s1,sp,512
    2224:	0af1                	addi	s5,s5,28
    2226:	0000                	unimp
    2228:	00065437          	lui	s0,0x65
    222c:	0100                	addi	s0,sp,128
    222e:	043a                	slli	s0,s0,0xe
    2230:	f104                	fsw	fs1,32(a0)
    2232:	000a                	c.slli	zero,0x2
    2234:	3700                	fld	fs0,40(a4)
    2236:	0000064f          	fnmadd.s	fa2,ft0,ft0,ft0,rne
    223a:	3a01                	jal	1b4a <_start-0x7fffe4b6>
    223c:	0404                	addi	s1,sp,512
    223e:	0af1                	addi	s5,s5,28
    2240:	0000                	unimp
    2242:	00071f37          	lui	t5,0x71
    2246:	0100                	addi	s0,sp,128
    2248:	043a                	slli	s0,s0,0xe
    224a:	f104                	fsw	fs1,32(a0)
    224c:	000a                	c.slli	zero,0x2
    224e:	3700                	fld	fs0,40(a4)
    2250:	071a                	slli	a4,a4,0x6
    2252:	0000                	unimp
    2254:	3a01                	jal	1b64 <_start-0x7fffe49c>
    2256:	0404                	addi	s1,sp,512
    2258:	0af1                	addi	s5,s5,28
    225a:	0000                	unimp
    225c:	5f35                	li	t5,-19
    225e:	6d5f 0100 043a      	0x43a01006d5f
    2264:	f104                	fsw	fs1,32(a0)
    2266:	000a                	c.slli	zero,0x2
    2268:	0000                	unimp
    226a:	7036                	flw	ft0,108(sp)
    226c:	0010                	0x10
    226e:	3700                	fld	fs0,40(a4)
    2270:	06a1                	addi	a3,a3,8
    2272:	0000                	unimp
    2274:	4601                	li	a2,0
    2276:	0404                	addi	s1,sp,512
    2278:	0af1                	addi	s5,s5,28
    227a:	0000                	unimp
    227c:	5f35                	li	t5,-19
    227e:	615f 0100 0446      	0x4460100615f
    2284:	f104                	fsw	fs1,32(a0)
    2286:	000a                	c.slli	zero,0x2
    2288:	0000                	unimp
    228a:	d136                	sw	a3,160(sp)
    228c:	0010                	0x10
    228e:	3700                	fld	fs0,40(a4)
    2290:	0088                	addi	a0,sp,64
    2292:	0000                	unimp
    2294:	5f01                	li	t5,-32
    2296:	0804                	addi	s1,sp,16
    2298:	0af1                	addi	s5,s5,28
    229a:	0000                	unimp
    229c:	00008337          	lui	t1,0x8
    22a0:	0100                	addi	s0,sp,128
    22a2:	045f f108 000a      	0xaf108045f
    22a8:	3700                	fld	fs0,40(a4)
    22aa:	0654                	addi	a3,sp,772
    22ac:	0000                	unimp
    22ae:	5f01                	li	t5,-32
    22b0:	0804                	addi	s1,sp,16
    22b2:	0af1                	addi	s5,s5,28
    22b4:	0000                	unimp
    22b6:	00064f37          	lui	t5,0x64
    22ba:	0100                	addi	s0,sp,128
    22bc:	045f f108 000a      	0xaf108045f
    22c2:	3700                	fld	fs0,40(a4)
    22c4:	071f 0000 5f01      	0x5f010000071f
    22ca:	0804                	addi	s1,sp,16
    22cc:	0af1                	addi	s5,s5,28
    22ce:	0000                	unimp
    22d0:	00071a37          	lui	s4,0x71
    22d4:	0100                	addi	s0,sp,128
    22d6:	045f f108 000a      	0xaf108045f
    22dc:	3500                	fld	fs0,40(a0)
    22de:	5f5f 006d 5f01      	0x5f01006d5f5f
    22e4:	0804                	addi	s1,sp,16
    22e6:	0af1                	addi	s5,s5,28
    22e8:	0000                	unimp
    22ea:	3600                	fld	fs0,40(a2)
    22ec:	1132                	slli	sp,sp,0x2c
    22ee:	0000                	unimp
    22f0:	00008837          	lui	a6,0x8
    22f4:	0100                	addi	s0,sp,128
    22f6:	0464                	addi	s1,sp,524
    22f8:	f104                	fsw	fs1,32(a0)
    22fa:	000a                	c.slli	zero,0x2
    22fc:	3700                	fld	fs0,40(a4)
    22fe:	00000083          	lb	ra,0(zero) # 0 <_start-0x80000000>
    2302:	6401                	0x6401
    2304:	0404                	addi	s1,sp,512
    2306:	0af1                	addi	s5,s5,28
    2308:	0000                	unimp
    230a:	00065437          	lui	s0,0x65
    230e:	0100                	addi	s0,sp,128
    2310:	0464                	addi	s1,sp,524
    2312:	f104                	fsw	fs1,32(a0)
    2314:	000a                	c.slli	zero,0x2
    2316:	3700                	fld	fs0,40(a4)
    2318:	0000064f          	fnmadd.s	fa2,ft0,ft0,ft0,rne
    231c:	6401                	0x6401
    231e:	0404                	addi	s1,sp,512
    2320:	0af1                	addi	s5,s5,28
    2322:	0000                	unimp
    2324:	00071f37          	lui	t5,0x71
    2328:	0100                	addi	s0,sp,128
    232a:	0464                	addi	s1,sp,524
    232c:	f104                	fsw	fs1,32(a0)
    232e:	000a                	c.slli	zero,0x2
    2330:	3700                	fld	fs0,40(a4)
    2332:	071a                	slli	a4,a4,0x6
    2334:	0000                	unimp
    2336:	6401                	0x6401
    2338:	0404                	addi	s1,sp,512
    233a:	0af1                	addi	s5,s5,28
    233c:	0000                	unimp
    233e:	5f35                	li	t5,-19
    2340:	6d5f 0100 0464      	0x46401006d5f
    2346:	f104                	fsw	fs1,32(a0)
    2348:	000a                	c.slli	zero,0x2
    234a:	0000                	unimp
    234c:	5236                	lw	tp,108(sp)
    234e:	0011                	c.nop	4
    2350:	3700                	fld	fs0,40(a4)
    2352:	06a1                	addi	a3,a3,8
    2354:	0000                	unimp
    2356:	8701                	c.srai64	a4
    2358:	0404                	addi	s1,sp,512
    235a:	0af1                	addi	s5,s5,28
    235c:	0000                	unimp
    235e:	5f35                	li	t5,-19
    2360:	615f 0100 0487      	0x4870100615f
    2366:	f104                	fsw	fs1,32(a0)
    2368:	000a                	c.slli	zero,0x2
    236a:	0000                	unimp
    236c:	6536                	flw	fa0,76(sp)
    236e:	0011                	c.nop	4
    2370:	3500                	fld	fs0,40(a0)
    2372:	5f5f 0078 9501      	0x950100785f5f
    2378:	0504                	addi	s1,sp,640
    237a:	0af1                	addi	s5,s5,28
    237c:	0000                	unimp
    237e:	3800                	fld	fs0,48(s0)
    2380:	6d35                	lui	s10,0xd
    2382:	0031                	c.nop	12
    2384:	a501                	j	2984 <_start-0x7fffd67c>
    2386:	0f04                	addi	s1,sp,912
    2388:	0af1                	addi	s5,s5,28
    238a:	0000                	unimp
    238c:	6d35                	lui	s10,0xd
    238e:	0030                	addi	a2,sp,8
    2390:	a501                	j	2990 <_start-0x7fffd670>
    2392:	1304                	addi	s1,sp,416
    2394:	0af1                	addi	s5,s5,28
    2396:	0000                	unimp
    2398:	df36                	sw	a3,188(sp)
    239a:	0011                	c.nop	4
    239c:	3700                	fld	fs0,40(a4)
    239e:	0088                	addi	a0,sp,64
    23a0:	0000                	unimp
    23a2:	b001                	j	1ba2 <_start-0x7fffe45e>
    23a4:	0804                	addi	s1,sp,16
    23a6:	0af1                	addi	s5,s5,28
    23a8:	0000                	unimp
    23aa:	00008337          	lui	t1,0x8
    23ae:	0100                	addi	s0,sp,128
    23b0:	04b0                	addi	a2,sp,584
    23b2:	f108                	fsw	fa0,32(a0)
    23b4:	000a                	c.slli	zero,0x2
    23b6:	3700                	fld	fs0,40(a4)
    23b8:	0654                	addi	a3,sp,772
    23ba:	0000                	unimp
    23bc:	b001                	j	1bbc <_start-0x7fffe444>
    23be:	0804                	addi	s1,sp,16
    23c0:	0af1                	addi	s5,s5,28
    23c2:	0000                	unimp
    23c4:	00064f37          	lui	t5,0x64
    23c8:	0100                	addi	s0,sp,128
    23ca:	04b0                	addi	a2,sp,584
    23cc:	f108                	fsw	fa0,32(a0)
    23ce:	000a                	c.slli	zero,0x2
    23d0:	3700                	fld	fs0,40(a4)
    23d2:	071f 0000 b001      	0xb0010000071f
    23d8:	0804                	addi	s1,sp,16
    23da:	0af1                	addi	s5,s5,28
    23dc:	0000                	unimp
    23de:	00071a37          	lui	s4,0x71
    23e2:	0100                	addi	s0,sp,128
    23e4:	04b0                	addi	a2,sp,584
    23e6:	f108                	fsw	fa0,32(a0)
    23e8:	000a                	c.slli	zero,0x2
    23ea:	3500                	fld	fs0,40(a0)
    23ec:	5f5f 006d b001      	0xb001006d5f5f
    23f2:	0804                	addi	s1,sp,16
    23f4:	0af1                	addi	s5,s5,28
    23f6:	0000                	unimp
    23f8:	3600                	fld	fs0,40(a2)
    23fa:	124d                	addi	tp,tp,-13
    23fc:	0000                	unimp
    23fe:	0005e737          	lui	a4,0x5e
    2402:	0100                	addi	s0,sp,128
    2404:	04b1                	addi	s1,s1,12
    2406:	f108                	fsw	fa0,32(a0)
    2408:	000a                	c.slli	zero,0x2
    240a:	3700                	fld	fs0,40(a4)
    240c:	05ec                	addi	a1,sp,716
    240e:	0000                	unimp
    2410:	b101                	j	2010 <_start-0x7fffdff0>
    2412:	0804                	addi	s1,sp,16
    2414:	0af1                	addi	s5,s5,28
    2416:	0000                	unimp
    2418:	0005f137          	lui	sp,0x5f
    241c:	0100                	addi	s0,sp,128
    241e:	04b1                	addi	s1,s1,12
    2420:	f108                	fsw	fa0,32(a0)
    2422:	000a                	c.slli	zero,0x2
    2424:	3700                	fld	fs0,40(a4)
    2426:	05f6                	slli	a1,a1,0x1d
    2428:	0000                	unimp
    242a:	b101                	j	202a <_start-0x7fffdfd6>
    242c:	0804                	addi	s1,sp,16
    242e:	0af1                	addi	s5,s5,28
    2430:	0000                	unimp
    2432:	0003ae37          	lui	t3,0x3a
    2436:	0100                	addi	s0,sp,128
    2438:	04b1                	addi	s1,s1,12
    243a:	f108                	fsw	fa0,32(a0)
    243c:	000a                	c.slli	zero,0x2
    243e:	3700                	fld	fs0,40(a4)
    2440:	0464                	addi	s1,sp,524
    2442:	0000                	unimp
    2444:	b101                	j	2044 <_start-0x7fffdfbc>
    2446:	0804                	addi	s1,sp,16
    2448:	0af1                	addi	s5,s5,28
    244a:	0000                	unimp
    244c:	00039837          	lui	a6,0x39
    2450:	0100                	addi	s0,sp,128
    2452:	04b1                	addi	s1,s1,12
    2454:	f108                	fsw	fa0,32(a0)
    2456:	000a                	c.slli	zero,0x2
    2458:	3700                	fld	fs0,40(a4)
    245a:	045f 0000 b101      	0xb1010000045f
    2460:	0804                	addi	s1,sp,16
    2462:	0af1                	addi	s5,s5,28
    2464:	0000                	unimp
    2466:	3600                	fld	fs0,40(a2)
    2468:	1260                	addi	s0,sp,300
    246a:	0000                	unimp
    246c:	5f35                	li	t5,-19
    246e:	785f 0100 04b6      	0x4b60100785f
    2474:	f105                	bnez	a0,2394 <_start-0x7fffdc6c>
    2476:	000a                	c.slli	zero,0x2
    2478:	0000                	unimp
    247a:	3538                	fld	fa4,104(a0)
    247c:	5f5f 0078 be01      	0xbe0100785f5f
    2482:	0504                	addi	s1,sp,640
    2484:	0af1                	addi	s5,s5,28
    2486:	0000                	unimp
    2488:	0000                	unimp
    248a:	0f00                	addi	s0,sp,912
    248c:	0904                	addi	s1,sp,144
    248e:	0000000b          	0xb

Disassembly of section .debug_abbrev:

00000000 <.debug_abbrev>:
   0:	1101                	addi	sp,sp,-32
   2:	2501                	jal	602 <_start-0x7ffff9fe>
   4:	130e                	slli	t1,t1,0x23
   6:	1b0e030b          	0x1b0e030b
   a:	110e                	slli	sp,sp,0x23
   c:	1201                	addi	tp,tp,-32
   e:	1006                	c.slli	zero,0x21
  10:	02000017          	auipc	zero,0x2000
  14:	0024                	addi	s1,sp,8
  16:	0b3e0b0b          	0xb3e0b0b
  1a:	00000e03          	lb	t3,0(zero) # 0 <_start-0x80000000>
  1e:	0b002403          	lw	s0,176(zero) # b0 <_start-0x7fffff50>
  22:	030b3e0b          	0x30b3e0b
  26:	0008                	0x8
  28:	0400                	addi	s0,sp,512
  2a:	0016                	c.slli	zero,0x5
  2c:	0b3a0e03          	lb	t3,179(s4) # 710b3 <_start-0x7ff8ef4d>
  30:	0b390b3b          	0xb390b3b
  34:	1349                	addi	t1,t1,-14
  36:	0000                	unimp
  38:	1605                	addi	a2,a2,-31
  3a:	0300                	addi	s0,sp,384
  3c:	3a0e                	fld	fs4,224(sp)
  3e:	39053b0b          	0x39053b0b
  42:	0013490b          	0x13490b
  46:	0600                	addi	s0,sp,768
  48:	0b0b0117          	auipc	sp,0xb0b0
  4c:	0b3a                	slli	s6,s6,0xe
  4e:	0b390b3b          	0xb390b3b
  52:	1301                	addi	t1,t1,-32
  54:	0000                	unimp
  56:	03000d07          	vlbuff.v	v26,(zero)
  5a:	3a0e                	fld	fs4,224(sp)
  5c:	390b3b0b          	0x390b3b0b
  60:	0013490b          	0x13490b
  64:	0800                	addi	s0,sp,16
  66:	0101                	addi	sp,sp,0
  68:	1349                	addi	t1,t1,-14
  6a:	1301                	addi	t1,t1,-32
  6c:	0000                	unimp
  6e:	2109                	jal	470 <_start-0x7ffffb90>
  70:	4900                	lw	s0,16(a0)
  72:	000b2f13          	slti	t5,s6,0
  76:	0a00                	addi	s0,sp,272
  78:	0b0b0113          	addi	sp,s6,176 # 7aa10 <_start-0x7ff855f0>
  7c:	0b3a                	slli	s6,s6,0xe
  7e:	0b390b3b          	0xb390b3b
  82:	1301                	addi	t1,t1,-32
  84:	0000                	unimp
  86:	03000d0b          	0x3000d0b
  8a:	3a0e                	fld	fs4,224(sp)
  8c:	390b3b0b          	0x390b3b0b
  90:	3813490b          	0x3813490b
  94:	0c00000b          	0xc00000b
  98:	0b0b000f          	0xb0b000f
  9c:	0000                	unimp
  9e:	130d                	addi	t1,t1,-29
  a0:	0301                	addi	t1,t1,0
  a2:	0b0e                	slli	s6,s6,0x3
  a4:	3b0b3a0b          	0x3b0b3a0b
  a8:	010b390b          	0x10b390b
  ac:	0e000013          	li	zero,224
  b0:	000d                	c.nop	3
  b2:	0b3a0803          	lb	a6,179(s4)
  b6:	0b390b3b          	0xb390b3b
  ba:	1349                	addi	t1,t1,-14
  bc:	0b38                	addi	a4,sp,408
  be:	0000                	unimp
  c0:	0b000f0f          	0xb000f0f
  c4:	0013490b          	0x13490b
  c8:	1000                	addi	s0,sp,32
  ca:	0e030113          	addi	sp,t1,224 # 80e0 <_start-0x7fff7f20>
  ce:	0b3a050b          	0xb3a050b
  d2:	0b390b3b          	0xb390b3b
  d6:	1301                	addi	t1,t1,-32
  d8:	0000                	unimp
  da:	0d11                	addi	s10,s10,4
  dc:	0300                	addi	s0,sp,384
  de:	3a0e                	fld	fs4,224(sp)
  e0:	390b3b0b          	0x390b3b0b
  e4:	3813490b          	0x3813490b
  e8:	0005                	c.nop	1
  ea:	1200                	addi	s0,sp,288
  ec:	0015                	c.nop	5
  ee:	00001927          	0x1927
  f2:	27011513          	0x27011513
  f6:	4919                	li	s2,6
  f8:	00130113          	addi	sp,t1,1
  fc:	1400                	addi	s0,sp,544
  fe:	0005                	c.nop	1
 100:	1349                	addi	t1,t1,-14
 102:	0000                	unimp
 104:	2615                	jal	428 <_start-0x7ffffbd8>
 106:	4900                	lw	s0,16(a0)
 108:	16000013          	li	zero,352
 10c:	0e030113          	addi	sp,t1,224
 110:	0b3a050b          	0xb3a050b
 114:	0b39053b          	0xb39053b
 118:	1301                	addi	t1,t1,-32
 11a:	0000                	unimp
 11c:	03000d17          	auipc	s10,0x3000
 120:	3a0e                	fld	fs4,224(sp)
 122:	39053b0b          	0x39053b0b
 126:	3813490b          	0x3813490b
 12a:	1800000b          	0x1800000b
 12e:	000d                	c.nop	3
 130:	0b3a0e03          	lb	t3,179(s4)
 134:	0b39053b          	0xb39053b
 138:	1349                	addi	t1,t1,-14
 13a:	0538                	addi	a4,sp,648
 13c:	0000                	unimp
 13e:	1319                	addi	t1,t1,-26
 140:	0301                	addi	t1,t1,0
 142:	0b0e                	slli	s6,s6,0x3
 144:	3b0b3a0b          	0x3b0b3a0b
 148:	3905                	jal	fffffd78 <__global_pointer$+0x7fffdbf8>
 14a:	0013010b          	0x13010b
 14e:	1a00                	addi	s0,sp,304
 150:	0b0b0113          	addi	sp,s6,176
 154:	0b3a                	slli	s6,s6,0xe
 156:	0b39053b          	0xb39053b
 15a:	1301                	addi	t1,t1,-32
 15c:	0000                	unimp
 15e:	0b01171b          	0xb01171b
 162:	3b0b3a0b          	0x3b0b3a0b
 166:	3905                	jal	fffffd96 <__global_pointer$+0x7fffdc16>
 168:	0013010b          	0x13010b
 16c:	1c00                	addi	s0,sp,560
 16e:	000d                	c.nop	3
 170:	0b3a0e03          	lb	t3,179(s4)
 174:	0b39053b          	0xb39053b
 178:	1349                	addi	t1,t1,-14
 17a:	0000                	unimp
 17c:	131d                	addi	t1,t1,-25
 17e:	0300                	addi	s0,sp,384
 180:	3c0e                	fld	fs8,224(sp)
 182:	0019                	c.nop	6
 184:	1e00                	addi	s0,sp,816
 186:	0115                	addi	sp,sp,5
 188:	13011927          	0x13011927
 18c:	0000                	unimp
 18e:	341f 0300 3a0e      	0x3a0e0300341f
 194:	39053b0b          	0x39053b0b
 198:	3f13490b          	0x3f13490b
 19c:	3c19                	jal	fffffbb2 <__global_pointer$+0x7fffda32>
 19e:	0019                	c.nop	6
 1a0:	2000                	fld	fs0,0(s0)
 1a2:	0021                	c.nop	8
 1a4:	0000                	unimp
 1a6:	3421                	jal	fffffbae <__global_pointer$+0x7fffda2e>
 1a8:	0300                	addi	s0,sp,384
 1aa:	3a0e                	fld	fs4,224(sp)
 1ac:	390b3b0b          	0x390b3b0b
 1b0:	3f13490b          	0x3f13490b
 1b4:	3c19                	jal	fffffbca <__global_pointer$+0x7fffda4a>
 1b6:	0019                	c.nop	6
 1b8:	2200                	fld	fs0,0(a2)
 1ba:	0026                	c.slli	zero,0x9
 1bc:	0000                	unimp
 1be:	03010423          	sb	a6,40(sp) # b0b0070 <_start-0x74f4ff90>
 1c2:	3e0e                	fld	ft8,224(sp)
 1c4:	490b0b0b          	0x490b0b0b
 1c8:	3b0b3a13          	sltiu	s4,s6,944
 1cc:	010b390b          	0x10b390b
 1d0:	24000013          	li	zero,576
 1d4:	0028                	addi	a0,sp,8
 1d6:	0b1c0e03          	lb	t3,177(s8) # 90b1 <_start-0x7fff6f4f>
 1da:	0000                	unimp
 1dc:	0d25                	addi	s10,s10,9
 1de:	0300                	addi	s0,sp,384
 1e0:	3a08                	fld	fa0,48(a2)
 1e2:	39053b0b          	0x39053b0b
 1e6:	3813490b          	0x3813490b
 1ea:	2600000b          	0x2600000b
 1ee:	000d                	c.nop	3
 1f0:	0b3a0803          	lb	a6,179(s4)
 1f4:	0b39053b          	0xb39053b
 1f8:	1349                	addi	t1,t1,-14
 1fa:	0000                	unimp
 1fc:	3f012e27          	fsw	fa6,1020(sp)
 200:	0319                	addi	t1,t1,6
 202:	3a0e                	fld	fs4,224(sp)
 204:	39053b0b          	0x39053b0b
 208:	4919270b          	0x4919270b
 20c:	12011113          	0x12011113
 210:	4006                	0x4006
 212:	9718                	0x9718
 214:	1942                	slli	s2,s2,0x30
 216:	1301                	addi	t1,t1,-32
 218:	0000                	unimp
 21a:	0528                	addi	a0,sp,648
 21c:	0300                	addi	s0,sp,384
 21e:	3a08                	fld	fa0,48(a2)
 220:	39053b0b          	0x39053b0b
 224:	0213490b          	0x213490b
 228:	29000017          	auipc	zero,0x29000
 22c:	011d                	addi	sp,sp,7
 22e:	1331                	addi	t1,t1,-20
 230:	0152                	slli	sp,sp,0x14
 232:	1755                	addi	a4,a4,-11
 234:	0b58                	addi	a4,sp,404
 236:	0559                	addi	a0,a0,22
 238:	00000b57          	vadd.vv	v22,v0,v0,v0.t
 23c:	052a                	slli	a0,a0,0xa
 23e:	3100                	fld	fs0,32(a0)
 240:	00170213          	addi	tp,a4,1 # 5e001 <_start-0x7ffa1fff>
 244:	2b00                	fld	fs0,16(a4)
 246:	1755010b          	0x1755010b
 24a:	0000                	unimp
 24c:	342c                	fld	fa1,104(s0)
 24e:	3100                	fld	fs0,32(a0)
 250:	2d000013          	li	zero,720
 254:	0034                	addi	a3,sp,8
 256:	1331                	addi	t1,t1,-20
 258:	1702                	slli	a4,a4,0x20
 25a:	0000                	unimp
 25c:	0b2e                	slli	s6,s6,0xb
 25e:	3101                	jal	fffffe5e <__global_pointer$+0x7fffdcde>
 260:	01175513          	srli	a0,a4,0x11
 264:	2f000013          	li	zero,752
 268:	1331010b          	0x1331010b
 26c:	0111                	addi	sp,sp,4
 26e:	0612                	slli	a2,a2,0x4
 270:	1301                	addi	t1,t1,-32
 272:	0000                	unimp
 274:	0b30                	addi	a2,sp,408
 276:	3101                	jal	fffffe76 <__global_pointer$+0x7fffdcf6>
 278:	00175513          	srli	a0,a4,0x1
 27c:	3100                	fld	fs0,32(a0)
 27e:	012e                	slli	sp,sp,0xb
 280:	0b3a0e03          	lb	t3,179(s4)
 284:	0b39053b          	0xb39053b
 288:	13491927          	0x13491927
 28c:	0b20                	addi	s0,sp,408
 28e:	1301                	addi	t1,t1,-32
 290:	0000                	unimp
 292:	0532                	slli	a0,a0,0xc
 294:	0300                	addi	s0,sp,384
 296:	3a08                	fld	fa0,48(a2)
 298:	39053b0b          	0x39053b0b
 29c:	0013490b          	0x13490b
 2a0:	3300                	fld	fs0,32(a4)
 2a2:	0034                	addi	a3,sp,8
 2a4:	0b3a0803          	lb	a6,179(s4)
 2a8:	0b39053b          	0xb39053b
 2ac:	1349                	addi	t1,t1,-14
 2ae:	0000                	unimp
 2b0:	0b34                	addi	a3,sp,408
 2b2:	0101                	addi	sp,sp,0
 2b4:	35000013          	li	zero,848
 2b8:	0034                	addi	a3,sp,8
 2ba:	0b3a0e03          	lb	t3,179(s4)
 2be:	0b39053b          	0xb39053b
 2c2:	1349                	addi	t1,t1,-14
 2c4:	0000                	unimp
 2c6:	0b36                	slli	s6,s6,0xd
 2c8:	0001                	nop
 2ca:	0000                	unimp
 2cc:	1101                	addi	sp,sp,-32
 2ce:	2501                	jal	8ce <_start-0x7ffff732>
 2d0:	130e                	slli	t1,t1,0x23
 2d2:	1b0e030b          	0x1b0e030b
 2d6:	110e                	slli	sp,sp,0x23
 2d8:	1201                	addi	tp,tp,-32
 2da:	1006                	c.slli	zero,0x21
 2dc:	02000017          	auipc	zero,0x2000
 2e0:	0024                	addi	s1,sp,8
 2e2:	0b3e0b0b          	0xb3e0b0b
 2e6:	00000e03          	lb	t3,0(zero) # 0 <_start-0x80000000>
 2ea:	0b002403          	lw	s0,176(zero) # b0 <_start-0x7fffff50>
 2ee:	030b3e0b          	0x30b3e0b
 2f2:	0008                	0x8
 2f4:	0400                	addi	s0,sp,512
 2f6:	0016                	c.slli	zero,0x5
 2f8:	0b3a0e03          	lb	t3,179(s4)
 2fc:	0b390b3b          	0xb390b3b
 300:	1349                	addi	t1,t1,-14
 302:	0000                	unimp
 304:	1605                	addi	a2,a2,-31
 306:	0300                	addi	s0,sp,384
 308:	3a0e                	fld	fs4,224(sp)
 30a:	39053b0b          	0x39053b0b
 30e:	0013490b          	0x13490b
 312:	0600                	addi	s0,sp,768
 314:	0b0b0117          	auipc	sp,0xb0b0
 318:	0b3a                	slli	s6,s6,0xe
 31a:	0b390b3b          	0xb390b3b
 31e:	1301                	addi	t1,t1,-32
 320:	0000                	unimp
 322:	03000d07          	vlbuff.v	v26,(zero)
 326:	3a0e                	fld	fs4,224(sp)
 328:	390b3b0b          	0x390b3b0b
 32c:	0013490b          	0x13490b
 330:	0800                	addi	s0,sp,16
 332:	0101                	addi	sp,sp,0
 334:	1349                	addi	t1,t1,-14
 336:	1301                	addi	t1,t1,-32
 338:	0000                	unimp
 33a:	2109                	jal	73c <_start-0x7ffff8c4>
 33c:	4900                	lw	s0,16(a0)
 33e:	000b2f13          	slti	t5,s6,0
 342:	0a00                	addi	s0,sp,272
 344:	0b0b0113          	addi	sp,s6,176
 348:	0b3a                	slli	s6,s6,0xe
 34a:	0b390b3b          	0xb390b3b
 34e:	1301                	addi	t1,t1,-32
 350:	0000                	unimp
 352:	03000d0b          	0x3000d0b
 356:	3a0e                	fld	fs4,224(sp)
 358:	390b3b0b          	0x390b3b0b
 35c:	3813490b          	0x3813490b
 360:	0c00000b          	0xc00000b
 364:	0b0b000f          	0xb0b000f
 368:	0000                	unimp
 36a:	130d                	addi	t1,t1,-29
 36c:	0301                	addi	t1,t1,0
 36e:	0b0e                	slli	s6,s6,0x3
 370:	3b0b3a0b          	0x3b0b3a0b
 374:	010b390b          	0x10b390b
 378:	0e000013          	li	zero,224
 37c:	000d                	c.nop	3
 37e:	0b3a0803          	lb	a6,179(s4)
 382:	0b390b3b          	0xb390b3b
 386:	1349                	addi	t1,t1,-14
 388:	0b38                	addi	a4,sp,408
 38a:	0000                	unimp
 38c:	0b000f0f          	0xb000f0f
 390:	0013490b          	0x13490b
 394:	1000                	addi	s0,sp,32
 396:	0e030113          	addi	sp,t1,224
 39a:	0b3a050b          	0xb3a050b
 39e:	0b390b3b          	0xb390b3b
 3a2:	1301                	addi	t1,t1,-32
 3a4:	0000                	unimp
 3a6:	0d11                	addi	s10,s10,4
 3a8:	0300                	addi	s0,sp,384
 3aa:	3a0e                	fld	fs4,224(sp)
 3ac:	390b3b0b          	0x390b3b0b
 3b0:	3813490b          	0x3813490b
 3b4:	0005                	c.nop	1
 3b6:	1200                	addi	s0,sp,288
 3b8:	0015                	c.nop	5
 3ba:	00001927          	0x1927
 3be:	27011513          	0x27011513
 3c2:	4919                	li	s2,6
 3c4:	00130113          	addi	sp,t1,1
 3c8:	1400                	addi	s0,sp,544
 3ca:	0005                	c.nop	1
 3cc:	1349                	addi	t1,t1,-14
 3ce:	0000                	unimp
 3d0:	2615                	jal	6f4 <_start-0x7ffff90c>
 3d2:	4900                	lw	s0,16(a0)
 3d4:	16000013          	li	zero,352
 3d8:	0e030113          	addi	sp,t1,224
 3dc:	0b3a050b          	0xb3a050b
 3e0:	0b39053b          	0xb39053b
 3e4:	1301                	addi	t1,t1,-32
 3e6:	0000                	unimp
 3e8:	03000d17          	auipc	s10,0x3000
 3ec:	3a0e                	fld	fs4,224(sp)
 3ee:	39053b0b          	0x39053b0b
 3f2:	3813490b          	0x3813490b
 3f6:	1800000b          	0x1800000b
 3fa:	000d                	c.nop	3
 3fc:	0b3a0e03          	lb	t3,179(s4)
 400:	0b39053b          	0xb39053b
 404:	1349                	addi	t1,t1,-14
 406:	0538                	addi	a4,sp,648
 408:	0000                	unimp
 40a:	1319                	addi	t1,t1,-26
 40c:	0301                	addi	t1,t1,0
 40e:	0b0e                	slli	s6,s6,0x3
 410:	3b0b3a0b          	0x3b0b3a0b
 414:	3905                	jal	44 <_start-0x7fffffbc>
 416:	0013010b          	0x13010b
 41a:	1a00                	addi	s0,sp,304
 41c:	0b0b0113          	addi	sp,s6,176
 420:	0b3a                	slli	s6,s6,0xe
 422:	0b39053b          	0xb39053b
 426:	1301                	addi	t1,t1,-32
 428:	0000                	unimp
 42a:	0b01171b          	0xb01171b
 42e:	3b0b3a0b          	0x3b0b3a0b
 432:	3905                	jal	62 <_start-0x7fffff9e>
 434:	0013010b          	0x13010b
 438:	1c00                	addi	s0,sp,560
 43a:	000d                	c.nop	3
 43c:	0b3a0e03          	lb	t3,179(s4)
 440:	0b39053b          	0xb39053b
 444:	1349                	addi	t1,t1,-14
 446:	0000                	unimp
 448:	131d                	addi	t1,t1,-25
 44a:	0300                	addi	s0,sp,384
 44c:	3c0e                	fld	fs8,224(sp)
 44e:	0019                	c.nop	6
 450:	1e00                	addi	s0,sp,816
 452:	0115                	addi	sp,sp,5
 454:	13011927          	0x13011927
 458:	0000                	unimp
 45a:	341f 0300 3a0e      	0x3a0e0300341f
 460:	39053b0b          	0x39053b0b
 464:	3f13490b          	0x3f13490b
 468:	3c19                	jal	fffffe7e <__global_pointer$+0x7fffdcfe>
 46a:	0019                	c.nop	6
 46c:	2000                	fld	fs0,0(s0)
 46e:	0021                	c.nop	8
 470:	0000                	unimp
 472:	3421                	jal	fffffe7a <__global_pointer$+0x7fffdcfa>
 474:	0300                	addi	s0,sp,384
 476:	3a0e                	fld	fs4,224(sp)
 478:	390b3b0b          	0x390b3b0b
 47c:	3f13490b          	0x3f13490b
 480:	3c19                	jal	fffffe96 <__global_pointer$+0x7fffdd16>
 482:	0019                	c.nop	6
 484:	2200                	fld	fs0,0(a2)
 486:	0026                	c.slli	zero,0x9
 488:	0000                	unimp
 48a:	03010423          	sb	a6,40(sp) # b0b033c <_start-0x74f4fcc4>
 48e:	3e0e                	fld	ft8,224(sp)
 490:	490b0b0b          	0x490b0b0b
 494:	3b0b3a13          	sltiu	s4,s6,944
 498:	010b390b          	0x10b390b
 49c:	24000013          	li	zero,576
 4a0:	0028                	addi	a0,sp,8
 4a2:	0b1c0e03          	lb	t3,177(s8)
 4a6:	0000                	unimp
 4a8:	0d25                	addi	s10,s10,9
 4aa:	0300                	addi	s0,sp,384
 4ac:	3a08                	fld	fa0,48(a2)
 4ae:	39053b0b          	0x39053b0b
 4b2:	3813490b          	0x3813490b
 4b6:	2600000b          	0x2600000b
 4ba:	000d                	c.nop	3
 4bc:	0b3a0803          	lb	a6,179(s4)
 4c0:	0b39053b          	0xb39053b
 4c4:	1349                	addi	t1,t1,-14
 4c6:	0000                	unimp
 4c8:	3f012e27          	fsw	fa6,1020(sp)
 4cc:	0319                	addi	t1,t1,6
 4ce:	3a0e                	fld	fs4,224(sp)
 4d0:	39053b0b          	0x39053b0b
 4d4:	4919270b          	0x4919270b
 4d8:	12011113          	0x12011113
 4dc:	4006                	0x4006
 4de:	9718                	0x9718
 4e0:	1942                	slli	s2,s2,0x30
 4e2:	1301                	addi	t1,t1,-32
 4e4:	0000                	unimp
 4e6:	0528                	addi	a0,sp,648
 4e8:	0300                	addi	s0,sp,384
 4ea:	3a08                	fld	fa0,48(a2)
 4ec:	39053b0b          	0x39053b0b
 4f0:	0213490b          	0x213490b
 4f4:	29000017          	auipc	zero,0x29000
 4f8:	0034                	addi	a3,sp,8
 4fa:	0b3a0803          	lb	a6,179(s4)
 4fe:	0b39053b          	0xb39053b
 502:	1349                	addi	t1,t1,-14
 504:	1702                	slli	a4,a4,0x20
 506:	0000                	unimp
 508:	1d2a                	slli	s10,s10,0x2a
 50a:	3101                	jal	10a <_start-0x7ffffef6>
 50c:	55015213          	0x55015213
 510:	590b5817          	auipc	a6,0x590b5
 514:	5705                	li	a4,-31
 516:	2b00000b          	0x2b00000b
 51a:	0005                	c.nop	1
 51c:	1331                	addi	t1,t1,-20
 51e:	1702                	slli	a4,a4,0x20
 520:	0000                	unimp
 522:	0b2c                	addi	a1,sp,408
 524:	5501                	li	a0,-32
 526:	2d000017          	auipc	zero,0x2d000
 52a:	0034                	addi	a3,sp,8
 52c:	1331                	addi	t1,t1,-20
 52e:	0000                	unimp
 530:	342e                	fld	fs0,232(sp)
 532:	3100                	fld	fs0,32(a0)
 534:	00170213          	addi	tp,a4,1
 538:	2f00                	fld	fs0,24(a4)
 53a:	1331010b          	0x1331010b
 53e:	1755                	addi	a4,a4,-11
 540:	1301                	addi	t1,t1,-32
 542:	0000                	unimp
 544:	0b30                	addi	a2,sp,408
 546:	3101                	jal	146 <_start-0x7ffffeba>
 548:	12011113          	0x12011113
 54c:	0106                	slli	sp,sp,0x1
 54e:	31000013          	li	zero,784
 552:	1331010b          	0x1331010b
 556:	0111                	addi	sp,sp,4
 558:	0612                	slli	a2,a2,0x4
 55a:	0000                	unimp
 55c:	3432                	fld	fs0,296(sp)
 55e:	3100                	fld	fs0,32(a0)
 560:	00180213          	addi	tp,a6,1 # 590b5511 <_start-0x26f4aaef>
 564:	3300                	fld	fs0,32(a4)
 566:	012e                	slli	sp,sp,0xb
 568:	0b3a0e03          	lb	t3,179(s4)
 56c:	0b39053b          	0xb39053b
 570:	13491927          	0x13491927
 574:	0b20                	addi	s0,sp,408
 576:	1301                	addi	t1,t1,-32
 578:	0000                	unimp
 57a:	0534                	addi	a3,sp,648
 57c:	0300                	addi	s0,sp,384
 57e:	3a08                	fld	fa0,48(a2)
 580:	39053b0b          	0x39053b0b
 584:	0013490b          	0x13490b
 588:	3500                	fld	fs0,40(a0)
 58a:	0034                	addi	a3,sp,8
 58c:	0b3a0803          	lb	a6,179(s4)
 590:	0b39053b          	0xb39053b
 594:	1349                	addi	t1,t1,-14
 596:	0000                	unimp
 598:	0b36                	slli	s6,s6,0xd
 59a:	0101                	addi	sp,sp,0
 59c:	37000013          	li	zero,880
 5a0:	0034                	addi	a3,sp,8
 5a2:	0b3a0e03          	lb	t3,179(s4)
 5a6:	0b39053b          	0xb39053b
 5aa:	1349                	addi	t1,t1,-14
 5ac:	0000                	unimp
 5ae:	0b38                	addi	a4,sp,408
 5b0:	0001                	nop
	...

Disassembly of section .debug_line:

00000000 <.debug_line>:
       0:	00000903          	lb	s2,0(zero) # 0 <_start-0x80000000>
       4:	02390003          	lb	zero,35(s2)
       8:	0000                	unimp
       a:	0101                	addi	sp,sp,0
       c:	000d0efb          	0xd0efb
      10:	0101                	addi	sp,sp,0
      12:	0101                	addi	sp,sp,0
      14:	0000                	unimp
      16:	0100                	addi	s0,sp,128
      18:	0000                	unimp
      1a:	2e01                	jal	32a <_start-0x7ffffcd6>
      1c:	2f2e                	fld	ft10,200(sp)
      1e:	2e2e                	fld	ft8,200(sp)
      20:	2f2e2e2f          	0x2f2e2e2f
      24:	2e2e                	fld	ft8,200(sp)
      26:	7369722f          	0x7369722f
      2a:	672d7663          	bgeu	s10,s2,696 <_start-0x7ffff96a>
      2e:	6c2f6363          	bltu	t5,sp,6f4 <_start-0x7ffff90c>
      32:	6269                	lui	tp,0x1a
      34:	00636367          	0x636367
      38:	6d6f682f          	0x6d6f682f
      3c:	2f65                	jal	7f4 <_start-0x7ffff80c>
      3e:	6166                	flw	ft2,88(sp)
      40:	6572                	flw	fa0,28(sp)
      42:	65642f73          	csrrs	t5,0x656,s0
      46:	2f76                	fld	ft10,344(sp)
      48:	6972                	flw	fs2,28(sp)
      4a:	2d766373          	csrrsi	t1,0x2d7,12
      4e:	2d756e67          	0x2d756e67
      52:	6f74                	flw	fa3,92(a4)
      54:	68636c6f          	jal	s8,366da <_start-0x7ffc9926>
      58:	6961                	lui	s2,0x18
      5a:	2d6e                	fld	fs10,216(sp)
      5c:	6576                	flw	fa0,92(sp)
      5e:	726f7463          	bgeu	t5,t1,786 <_start-0x7ffff87a>
      62:	6f72642f          	0x6f72642f
      66:	7370                	flw	fa2,100(a4)
      68:	7369722f          	0x7369722f
      6c:	32337663          	bgeu	t1,gp,398 <_start-0x7ffffc68>
      70:	752d                	lui	a0,0xfffeb
      72:	6b6e                	flw	fs6,216(sp)
      74:	6f6e                	flw	ft10,216(sp)
      76:	652d6e77          	0x652d6e77
      7a:	666c                	flw	fa1,76(a2)
      7c:	636e692f          	vamoandw.v	zero,v22,(t3),v18
      80:	756c                	flw	fa1,108(a0)
      82:	6564                	flw	fs1,76(a0)
      84:	7379732f          	0x7379732f
      88:	2f00                	fld	fs0,24(a4)
      8a:	6f68                	flw	fa0,92(a4)
      8c:	656d                	lui	a0,0x1b
      8e:	7261662f          	0x7261662f
      92:	7365                	lui	t1,0xffff9
      94:	636f442f          	0x636f442f
      98:	6d75                	lui	s10,0x1d
      9a:	6e65                	lui	t3,0x19
      9c:	7374                	flw	fa3,100(a4)
      9e:	6365762f          	vamoande.v	zero,v22,(a0),v12
      a2:	6f74                	flw	fa3,92(a4)
      a4:	5f72                	lw	t5,60(sp)
      a6:	6972                	flw	fs2,28(sp)
      a8:	2f766373          	csrrsi	t1,0x2f7,12
      ac:	6972                	flw	fs2,28(sp)
      ae:	2d766373          	csrrsi	t1,0x2d7,12
      b2:	2d756e67          	0x2d756e67
      b6:	6f74                	flw	fa3,92(a4)
      b8:	68636c6f          	jal	s8,3673e <_start-0x7ffc98c2>
      bc:	6961                	lui	s2,0x18
      be:	2f6e                	fld	ft10,216(sp)
      c0:	7562                	flw	fa0,56(sp)
      c2:	6c69                	lui	s8,0x1a
      c4:	2f64                	fld	fs1,216(a4)
      c6:	7562                	flw	fa0,56(sp)
      c8:	6c69                	lui	s8,0x1a
      ca:	2d64                	fld	fs1,216(a0)
      cc:	2d636367          	0x2d636367
      d0:	656e                	flw	fa0,216(sp)
      d2:	62696c77          	0x62696c77
      d6:	732d                	lui	t1,0xfffeb
      d8:	6174                	flw	fa3,68(a0)
      da:	2f326567          	0x2f326567
      de:	2f636367          	0x2f636367
      e2:	6e69                	lui	t3,0x1a
      e4:	64756c63          	bltu	a0,t2,73c <_start-0x7ffff8c4>
      e8:	0065                	c.nop	25
      ea:	6d6f682f          	0x6d6f682f
      ee:	2f65                	jal	8a6 <_start-0x7ffff75a>
      f0:	6166                	flw	ft2,88(sp)
      f2:	6572                	flw	fa0,28(sp)
      f4:	65642f73          	csrrs	t5,0x656,s0
      f8:	2f76                	fld	ft10,344(sp)
      fa:	6972                	flw	fs2,28(sp)
      fc:	2d766373          	csrrsi	t1,0x2d7,12
     100:	2d756e67          	0x2d756e67
     104:	6f74                	flw	fa3,92(a4)
     106:	68636c6f          	jal	s8,3678c <_start-0x7ffc9874>
     10a:	6961                	lui	s2,0x18
     10c:	2d6e                	fld	fs10,216(sp)
     10e:	6576                	flw	fa0,92(sp)
     110:	726f7463          	bgeu	t5,t1,838 <_start-0x7ffff7c8>
     114:	6f72642f          	0x6f72642f
     118:	7370                	flw	fa2,100(a4)
     11a:	7369722f          	0x7369722f
     11e:	32337663          	bgeu	t1,gp,44a <_start-0x7ffffbb6>
     122:	752d                	lui	a0,0xfffeb
     124:	6b6e                	flw	fs6,216(sp)
     126:	6f6e                	flw	ft10,216(sp)
     128:	652d6e77          	0x652d6e77
     12c:	666c                	flw	fa1,76(a2)
     12e:	636e692f          	vamoandw.v	zero,v22,(t3),v18
     132:	756c                	flw	fa1,108(a0)
     134:	6564                	flw	fs1,76(a0)
     136:	2e00                	fld	fs0,24(a2)
     138:	2f2e                	fld	ft10,200(sp)
     13a:	2e2e                	fld	ft8,200(sp)
     13c:	2f2e2e2f          	0x2f2e2e2f
     140:	2e2e                	fld	ft8,200(sp)
     142:	7369722f          	0x7369722f
     146:	672d7663          	bgeu	s10,s2,7b2 <_start-0x7ffff84e>
     14a:	6c2f6363          	bltu	t5,sp,810 <_start-0x7ffff7f0>
     14e:	6269                	lui	tp,0x1a
     150:	2f636367          	0x2f636367
     154:	2e2e                	fld	ft8,200(sp)
     156:	636e692f          	vamoandw.v	zero,v22,(t3),v18
     15a:	756c                	flw	fa1,108(a0)
     15c:	6564                	flw	fs1,76(a0)
     15e:	2e00                	fld	fs0,24(a2)
     160:	2f2e                	fld	ft10,200(sp)
     162:	2e2e                	fld	ft8,200(sp)
     164:	2f2e2e2f          	0x2f2e2e2f
     168:	2e2e                	fld	ft8,200(sp)
     16a:	7369722f          	0x7369722f
     16e:	672d7663          	bgeu	s10,s2,7da <_start-0x7ffff826>
     172:	6c2f6363          	bltu	t5,sp,838 <_start-0x7ffff7c8>
     176:	6269                	lui	tp,0x1a
     178:	2f636367          	0x2f636367
     17c:	2e2e                	fld	ft8,200(sp)
     17e:	6363672f          	vamoandw.v	zero,v22,(t1),v14
     182:	6e6f632f          	0x6e6f632f
     186:	6966                	flw	fs2,88(sp)
     188:	69722f67          	0x69722f67
     18c:	00766373          	csrrsi	t1,0x7,12
     190:	2e2e                	fld	ft8,200(sp)
     192:	2f2e2e2f          	0x2f2e2e2f
     196:	2f2e                	fld	ft10,200(sp)
     198:	00636367          	0x636367
     19c:	6c00                	flw	fs0,24(s0)
     19e:	6269                	lui	tp,0x1a
     1a0:	32636367          	0x32636367
     1a4:	632e                	flw	ft6,200(sp)
     1a6:	0100                	addi	s0,sp,128
     1a8:	0000                	unimp
     1aa:	6f6c                	flw	fa1,92(a4)
     1ac:	682e6b63          	bltu	t3,sp,842 <_start-0x7ffff7be>
     1b0:	0200                	addi	s0,sp,256
     1b2:	0000                	unimp
     1b4:	745f 7079 7365      	0x73657079745f
     1ba:	682e                	flw	fa6,200(sp)
     1bc:	0200                	addi	s0,sp,256
     1be:	0000                	unimp
     1c0:	64647473          	csrrci	s0,0x646,8
     1c4:	6665                	lui	a2,0x19
     1c6:	682e                	flw	fa6,200(sp)
     1c8:	0300                	addi	s0,sp,384
     1ca:	0000                	unimp
     1cc:	6572                	flw	fa0,28(sp)
     1ce:	6e65                	lui	t3,0x19
     1d0:	2e74                	fld	fa3,216(a2)
     1d2:	0068                	addi	a0,sp,12
     1d4:	0002                	c.slli64	zero
     1d6:	6500                	flw	fs0,8(a0)
     1d8:	7272                	flw	ft4,60(sp)
     1da:	6f6e                	flw	ft10,216(sp)
     1dc:	682e                	flw	fa6,200(sp)
     1de:	0200                	addi	s0,sp,256
     1e0:	0000                	unimp
     1e2:	6c647473          	csrrci	s0,0x6c6,8
     1e6:	6269                	lui	tp,0x1a
     1e8:	682e                	flw	fa6,200(sp)
     1ea:	0400                	addi	s0,sp,512
     1ec:	0000                	unimp
     1ee:	6e75                	lui	t3,0x1d
     1f0:	7369                	lui	t1,0xffffa
     1f2:	6474                	flw	fa3,76(s0)
     1f4:	682e                	flw	fa6,200(sp)
     1f6:	0200                	addi	s0,sp,256
     1f8:	0000                	unimp
     1fa:	6974                	flw	fa3,84(a0)
     1fc:	656d                	lui	a0,0x1b
     1fe:	682e                	flw	fa6,200(sp)
     200:	0400                	addi	s0,sp,512
     202:	0000                	unimp
     204:	6168                	flw	fa0,68(a0)
     206:	61746873          	csrrsi	a6,0x617,8
     20a:	2e62                	fld	ft8,24(sp)
     20c:	0068                	addi	a0,sp,12
     20e:	0005                	c.nop	1
     210:	7200                	flw	fs0,32(a2)
     212:	7369                	lui	t1,0xffffa
     214:	6f2d7663          	bgeu	s10,s2,900 <_start-0x7ffff700>
     218:	7470                	flw	fa2,108(s0)
     21a:	00682e73          	csrrs	t3,0x6,a6
     21e:	0006                	c.slli	zero,0x1
     220:	6900                	flw	fs0,16(a0)
     222:	736e                	flw	ft6,248(sp)
     224:	2d6e                	fld	fs10,216(sp)
     226:	736e6f63          	bltu	t3,s6,964 <_start-0x7ffff69c>
     22a:	6174                	flw	fa3,68(a0)
     22c:	746e                	flw	fs0,248(sp)
     22e:	00682e73          	csrrs	t3,0x6,a6
     232:	6c000007          	vlxseg4bu.v	v0,(zero),v0,v0.t
     236:	6269                	lui	tp,0x1a
     238:	32636367          	0x32636367
     23c:	682e                	flw	fa6,200(sp)
     23e:	0100                	addi	s0,sp,128
     240:	0000                	unimp
     242:	0500                	addi	s0,sp,640
     244:	0001                	nop
     246:	0205                	addi	tp,tp,1
     248:	0000                	unimp
     24a:	0000                	unimp
     24c:	010aa603          	lw	a2,16(s5)
     250:	0305                	addi	t1,t1,1
     252:	00090103          	lb	sp,0(s2) # 18000 <_start-0x7ffe8000>
     256:	0100                	addi	s0,sp,128
     258:	097dd103          	lhu	sp,151(s11)
     25c:	0000                	unimp
     25e:	0301                	addi	t1,t1,0
     260:	0901                	addi	s2,s2,0
     262:	0000                	unimp
     264:	0301                	addi	t1,t1,0
     266:	0901                	addi	s2,s2,0
     268:	0000                	unimp
     26a:	0301                	addi	t1,t1,0
     26c:	0901                	addi	s2,s2,0
     26e:	0000                	unimp
     270:	0301                	addi	t1,t1,0
     272:	0901                	addi	s2,s2,0
     274:	0000                	unimp
     276:	0301                	addi	t1,t1,0
     278:	0901                	addi	s2,s2,0
     27a:	0000                	unimp
     27c:	0301                	addi	t1,t1,0
     27e:	0902                	c.slli64	s2
     280:	0000                	unimp
     282:	0501                	addi	a0,a0,0
     284:	0601                	addi	a2,a2,0
     286:	0902a703          	lw	a4,144(t0) # 80000830 <__register_exitproc+0x68>
     28a:	0000                	unimp
     28c:	0501                	addi	a0,a0,0
     28e:	0306                	slli	t1,t1,0x1
     290:	7dd9                	lui	s11,0xffff6
     292:	0009                	c.nop	2
     294:	0100                	addi	s0,sp,128
     296:	0305                	addi	t1,t1,1
     298:	0306                	slli	t1,t1,0x1
     29a:	0901                	addi	s2,s2,0
     29c:	0000                	unimp
     29e:	0501                	addi	a0,a0,0
     2a0:	0606                	slli	a2,a2,0x1
     2a2:	00090003          	lb	zero,0(s2)
     2a6:	0100                	addi	s0,sp,128
     2a8:	0305                	addi	t1,t1,1
     2aa:	0306                	slli	t1,t1,0x1
     2ac:	0901                	addi	s2,s2,0
     2ae:	0000                	unimp
     2b0:	0501                	addi	a0,a0,0
     2b2:	0606                	slli	a2,a2,0x1
     2b4:	00090003          	lb	zero,0(s2)
     2b8:	0100                	addi	s0,sp,128
     2ba:	0305                	addi	t1,t1,1
     2bc:	0306                	slli	t1,t1,0x1
     2be:	0901                	addi	s2,s2,0
     2c0:	0000                	unimp
     2c2:	0301                	addi	t1,t1,0
     2c4:	0925                	addi	s2,s2,9
     2c6:	0000                	unimp
     2c8:	0501                	addi	a0,a0,0
     2ca:	0606                	slli	a2,a2,0x1
     2cc:	00090003          	lb	zero,0(s2)
     2d0:	0100                	addi	s0,sp,128
     2d2:	0705                	addi	a4,a4,1
     2d4:	0306                	slli	t1,t1,0x1
     2d6:	0902                	c.slli64	s2
     2d8:	0000                	unimp
     2da:	0501                	addi	a0,a0,0
     2dc:	060a                	slli	a2,a2,0x2
     2de:	00090003          	lb	zero,0(s2)
     2e2:	0100                	addi	s0,sp,128
     2e4:	0405                	addi	s0,s0,1
     2e6:	0306                	slli	t1,t1,0x1
     2e8:	0904                	addi	s1,sp,144
     2ea:	0000                	unimp
     2ec:	0301                	addi	t1,t1,0
     2ee:	0900                	addi	s0,sp,144
     2f0:	0000                	unimp
     2f2:	0301                	addi	t1,t1,0
     2f4:	0900                	addi	s0,sp,144
     2f6:	0000                	unimp
     2f8:	0301                	addi	t1,t1,0
     2fa:	0900                	addi	s0,sp,144
     2fc:	0000                	unimp
     2fe:	0301                	addi	t1,t1,0
     300:	0900                	addi	s0,sp,144
     302:	0000                	unimp
     304:	0301                	addi	t1,t1,0
     306:	0900                	addi	s0,sp,144
     308:	0000                	unimp
     30a:	0301                	addi	t1,t1,0
     30c:	0902                	c.slli64	s2
     30e:	0000                	unimp
     310:	0501                	addi	a0,a0,0
     312:	00030607          	vlbu.v	v12,(t1),v0.t
     316:	0009                	c.nop	2
     318:	0100                	addi	s0,sp,128
     31a:	0805                	addi	a6,a6,1
     31c:	0306                	slli	t1,t1,0x1
     31e:	0905                	addi	s2,s2,1
     320:	0000                	unimp
     322:	0501                	addi	a0,a0,0
     324:	0611                	addi	a2,a2,4
     326:	00090103          	lb	sp,0(s2)
     32a:	0100                	addi	s0,sp,128
     32c:	1e05                	addi	t3,t3,-31
     32e:	00090003          	lb	zero,0(s2)
     332:	0100                	addi	s0,sp,128
     334:	0b05                	addi	s6,s6,1
     336:	00097f03          	0x97f03
     33a:	0100                	addi	s0,sp,128
     33c:	0805                	addi	a6,a6,1
     33e:	0306                	slli	t1,t1,0x1
     340:	0901                	addi	s2,s2,0
     342:	0000                	unimp
     344:	0501                	addi	a0,a0,0
     346:	0003060b          	0x3060b
     34a:	0009                	c.nop	2
     34c:	0100                	addi	s0,sp,128
     34e:	0805                	addi	a6,a6,1
     350:	0306                	slli	t1,t1,0x1
     352:	0901                	addi	s2,s2,0
     354:	0000                	unimp
     356:	0501                	addi	a0,a0,0
     358:	0003060b          	0x3060b
     35c:	0009                	c.nop	2
     35e:	0100                	addi	s0,sp,128
     360:	0405                	addi	s0,s0,1
     362:	0306                	slli	t1,t1,0x1
     364:	00000903          	lb	s2,0(zero) # 0 <_start-0x80000000>
     368:	0301                	addi	t1,t1,0
     36a:	0900                	addi	s0,sp,144
     36c:	0000                	unimp
     36e:	0301                	addi	t1,t1,0
     370:	0900                	addi	s0,sp,144
     372:	0000                	unimp
     374:	0301                	addi	t1,t1,0
     376:	0900                	addi	s0,sp,144
     378:	0000                	unimp
     37a:	0301                	addi	t1,t1,0
     37c:	0900                	addi	s0,sp,144
     37e:	0000                	unimp
     380:	0301                	addi	t1,t1,0
     382:	0900                	addi	s0,sp,144
     384:	0000                	unimp
     386:	0301                	addi	t1,t1,0
     388:	0900                	addi	s0,sp,144
     38a:	0000                	unimp
     38c:	0301                	addi	t1,t1,0
     38e:	0900                	addi	s0,sp,144
     390:	0000                	unimp
     392:	0301                	addi	t1,t1,0
     394:	0900                	addi	s0,sp,144
     396:	0000                	unimp
     398:	0301                	addi	t1,t1,0
     39a:	0900                	addi	s0,sp,144
     39c:	0000                	unimp
     39e:	0301                	addi	t1,t1,0
     3a0:	0900                	addi	s0,sp,144
     3a2:	0000                	unimp
     3a4:	0301                	addi	t1,t1,0
     3a6:	0900                	addi	s0,sp,144
     3a8:	0000                	unimp
     3aa:	0301                	addi	t1,t1,0
     3ac:	0900                	addi	s0,sp,144
     3ae:	0000                	unimp
     3b0:	0301                	addi	t1,t1,0
     3b2:	0900                	addi	s0,sp,144
     3b4:	0000                	unimp
     3b6:	0301                	addi	t1,t1,0
     3b8:	0900                	addi	s0,sp,144
     3ba:	0000                	unimp
     3bc:	0301                	addi	t1,t1,0
     3be:	0900                	addi	s0,sp,144
     3c0:	0000                	unimp
     3c2:	0301                	addi	t1,t1,0
     3c4:	0900                	addi	s0,sp,144
     3c6:	0000                	unimp
     3c8:	0301                	addi	t1,t1,0
     3ca:	0900                	addi	s0,sp,144
     3cc:	0000                	unimp
     3ce:	0301                	addi	t1,t1,0
     3d0:	0900                	addi	s0,sp,144
     3d2:	0000                	unimp
     3d4:	0301                	addi	t1,t1,0
     3d6:	0900                	addi	s0,sp,144
     3d8:	0000                	unimp
     3da:	0301                	addi	t1,t1,0
     3dc:	0900                	addi	s0,sp,144
     3de:	0000                	unimp
     3e0:	0301                	addi	t1,t1,0
     3e2:	0900                	addi	s0,sp,144
     3e4:	0000                	unimp
     3e6:	0301                	addi	t1,t1,0
     3e8:	0900                	addi	s0,sp,144
     3ea:	0000                	unimp
     3ec:	0301                	addi	t1,t1,0
     3ee:	0900                	addi	s0,sp,144
     3f0:	0000                	unimp
     3f2:	0301                	addi	t1,t1,0
     3f4:	0900                	addi	s0,sp,144
     3f6:	0000                	unimp
     3f8:	0301                	addi	t1,t1,0
     3fa:	0900                	addi	s0,sp,144
     3fc:	0000                	unimp
     3fe:	0301                	addi	t1,t1,0
     400:	0900                	addi	s0,sp,144
     402:	0000                	unimp
     404:	0301                	addi	t1,t1,0
     406:	0901                	addi	s2,s2,0
     408:	0000                	unimp
     40a:	0501                	addi	a0,a0,0
     40c:	fe03060b          	0xfe03060b
     410:	0900                	addi	s0,sp,144
     412:	0000                	unimp
     414:	0501                	addi	a0,a0,0
     416:	0304                	addi	s1,sp,384
     418:	7ef5                	lui	t4,0xffffd
     41a:	0009                	c.nop	2
     41c:	0100                	addi	s0,sp,128
     41e:	0306                	slli	t1,t1,0x1
     420:	0915                	addi	s2,s2,5
     422:	0000                	unimp
     424:	0501                	addi	a0,a0,0
     426:	00030607          	vlbu.v	v12,(t1),v0.t
     42a:	0009                	c.nop	2
     42c:	0100                	addi	s0,sp,128
     42e:	0605                	addi	a2,a2,1
     430:	0306                	slli	t1,t1,0x1
     432:	0901                	addi	s2,s2,0
     434:	0000                	unimp
     436:	0501                	addi	a0,a0,0
     438:	0609                	addi	a2,a2,2
     43a:	00090003          	lb	zero,0(s2)
     43e:	0100                	addi	s0,sp,128
     440:	0405                	addi	s0,s0,1
     442:	0306                	slli	t1,t1,0x1
     444:	0902                	c.slli64	s2
     446:	0000                	unimp
     448:	0301                	addi	t1,t1,0
     44a:	0900                	addi	s0,sp,144
     44c:	0000                	unimp
     44e:	0301                	addi	t1,t1,0
     450:	0900                	addi	s0,sp,144
     452:	0000                	unimp
     454:	0301                	addi	t1,t1,0
     456:	0900                	addi	s0,sp,144
     458:	0000                	unimp
     45a:	0301                	addi	t1,t1,0
     45c:	0900                	addi	s0,sp,144
     45e:	0000                	unimp
     460:	0301                	addi	t1,t1,0
     462:	0900                	addi	s0,sp,144
     464:	0000                	unimp
     466:	0301                	addi	t1,t1,0
     468:	0902                	c.slli64	s2
     46a:	0000                	unimp
     46c:	0501                	addi	a0,a0,0
     46e:	00030607          	vlbu.v	v12,(t1),v0.t
     472:	0009                	c.nop	2
     474:	0100                	addi	s0,sp,128
     476:	0805                	addi	a6,a6,1
     478:	0306                	slli	t1,t1,0x1
     47a:	0909                	addi	s2,s2,2
     47c:	0000                	unimp
     47e:	0501                	addi	a0,a0,0
     480:	0003060b          	0x3060b
     484:	0009                	c.nop	2
     486:	0100                	addi	s0,sp,128
     488:	0805                	addi	a6,a6,1
     48a:	0306                	slli	t1,t1,0x1
     48c:	0901                	addi	s2,s2,0
     48e:	0000                	unimp
     490:	0501                	addi	a0,a0,0
     492:	0003060b          	0x3060b
     496:	0009                	c.nop	2
     498:	0100                	addi	s0,sp,128
     49a:	0405                	addi	s0,s0,1
     49c:	0306                	slli	t1,t1,0x1
     49e:	0912                	slli	s2,s2,0x4
     4a0:	0000                	unimp
     4a2:	0301                	addi	t1,t1,0
     4a4:	0900                	addi	s0,sp,144
     4a6:	0000                	unimp
     4a8:	0301                	addi	t1,t1,0
     4aa:	0900                	addi	s0,sp,144
     4ac:	0000                	unimp
     4ae:	0301                	addi	t1,t1,0
     4b0:	0900                	addi	s0,sp,144
     4b2:	0000                	unimp
     4b4:	0301                	addi	t1,t1,0
     4b6:	0900                	addi	s0,sp,144
     4b8:	0000                	unimp
     4ba:	0301                	addi	t1,t1,0
     4bc:	0900                	addi	s0,sp,144
     4be:	0000                	unimp
     4c0:	0301                	addi	t1,t1,0
     4c2:	0900                	addi	s0,sp,144
     4c4:	0000                	unimp
     4c6:	0301                	addi	t1,t1,0
     4c8:	0900                	addi	s0,sp,144
     4ca:	0000                	unimp
     4cc:	0301                	addi	t1,t1,0
     4ce:	0900                	addi	s0,sp,144
     4d0:	0000                	unimp
     4d2:	0301                	addi	t1,t1,0
     4d4:	0900                	addi	s0,sp,144
     4d6:	0000                	unimp
     4d8:	0301                	addi	t1,t1,0
     4da:	0900                	addi	s0,sp,144
     4dc:	0000                	unimp
     4de:	0301                	addi	t1,t1,0
     4e0:	0900                	addi	s0,sp,144
     4e2:	0000                	unimp
     4e4:	0301                	addi	t1,t1,0
     4e6:	0900                	addi	s0,sp,144
     4e8:	0000                	unimp
     4ea:	0301                	addi	t1,t1,0
     4ec:	0900                	addi	s0,sp,144
     4ee:	0000                	unimp
     4f0:	0301                	addi	t1,t1,0
     4f2:	0900                	addi	s0,sp,144
     4f4:	0000                	unimp
     4f6:	0301                	addi	t1,t1,0
     4f8:	0900                	addi	s0,sp,144
     4fa:	0000                	unimp
     4fc:	0301                	addi	t1,t1,0
     4fe:	0900                	addi	s0,sp,144
     500:	0000                	unimp
     502:	0301                	addi	t1,t1,0
     504:	0900                	addi	s0,sp,144
     506:	0000                	unimp
     508:	0301                	addi	t1,t1,0
     50a:	0900                	addi	s0,sp,144
     50c:	0000                	unimp
     50e:	0301                	addi	t1,t1,0
     510:	0900                	addi	s0,sp,144
     512:	0000                	unimp
     514:	0301                	addi	t1,t1,0
     516:	0900                	addi	s0,sp,144
     518:	0000                	unimp
     51a:	0301                	addi	t1,t1,0
     51c:	0900                	addi	s0,sp,144
     51e:	0000                	unimp
     520:	0301                	addi	t1,t1,0
     522:	0900                	addi	s0,sp,144
     524:	0000                	unimp
     526:	0301                	addi	t1,t1,0
     528:	0900                	addi	s0,sp,144
     52a:	0000                	unimp
     52c:	0301                	addi	t1,t1,0
     52e:	0900                	addi	s0,sp,144
     530:	0000                	unimp
     532:	0301                	addi	t1,t1,0
     534:	0900                	addi	s0,sp,144
     536:	0000                	unimp
     538:	0301                	addi	t1,t1,0
     53a:	0900                	addi	s0,sp,144
     53c:	0000                	unimp
     53e:	0501                	addi	a0,a0,0
     540:	00e30303          	lb	t1,14(t1) # ffffa00e <__global_pointer$+0x7fff7e8e>
     544:	0009                	c.nop	2
     546:	0100                	addi	s0,sp,128
     548:	00090103          	lb	sp,0(s2)
     54c:	0100                	addi	s0,sp,128
     54e:	0105                	addi	sp,sp,1
     550:	0306                	slli	t1,t1,0x1
     552:	00e1                	addi	ra,ra,24
     554:	0009                	c.nop	2
     556:	0100                	addi	s0,sp,128
     558:	0405                	addi	s0,s0,1
     55a:	097e9d03          	lh	s10,151(t4) # ffffd097 <__global_pointer$+0x7fffaf17>
     55e:	0000                	unimp
     560:	0501                	addi	a0,a0,0
     562:	0608                	addi	a0,sp,768
     564:	00091203          	lh	tp,0(s2)
     568:	0100                	addi	s0,sp,128
     56a:	00090203          	lb	tp,0(s2)
     56e:	0100                	addi	s0,sp,128
     570:	0b05                	addi	s6,s6,1
     572:	0306                	slli	t1,t1,0x1
     574:	0900                	addi	s0,sp,144
     576:	0000                	unimp
     578:	0501                	addi	a0,a0,0
     57a:	0608                	addi	a0,sp,768
     57c:	00090103          	lb	sp,0(s2)
     580:	0100                	addi	s0,sp,128
     582:	0b05                	addi	s6,s6,1
     584:	0306                	slli	t1,t1,0x1
     586:	0900                	addi	s0,sp,144
     588:	0000                	unimp
     58a:	0501                	addi	a0,a0,0
     58c:	0608                	addi	a0,sp,768
     58e:	00090103          	lb	sp,0(s2)
     592:	0100                	addi	s0,sp,128
     594:	0b05                	addi	s6,s6,1
     596:	0306                	slli	t1,t1,0x1
     598:	0901                	addi	s2,s2,0
     59a:	0000                	unimp
     59c:	0501                	addi	a0,a0,0
     59e:	031e                	slli	t1,t1,0x7
     5a0:	097f                	0x97f
     5a2:	0000                	unimp
     5a4:	0501                	addi	a0,a0,0
     5a6:	0308                	addi	a0,sp,384
     5a8:	00000903          	lb	s2,0(zero) # 0 <_start-0x80000000>
     5ac:	0501                	addi	a0,a0,0
     5ae:	0311                	addi	t1,t1,4
     5b0:	097d                	addi	s2,s2,31
     5b2:	0000                	unimp
     5b4:	0501                	addi	a0,a0,0
     5b6:	0308                	addi	a0,sp,384
     5b8:	00000903          	lb	s2,0(zero) # 0 <_start-0x80000000>
     5bc:	0501                	addi	a0,a0,0
     5be:	097d030b          	0x97d030b
     5c2:	0000                	unimp
     5c4:	0501                	addi	a0,a0,0
     5c6:	0608                	addi	a0,sp,768
     5c8:	00090103          	lb	sp,0(s2)
     5cc:	0100                	addi	s0,sp,128
     5ce:	00090203          	lb	tp,0(s2)
     5d2:	0100                	addi	s0,sp,128
     5d4:	00090003          	lb	zero,0(s2)
     5d8:	0100                	addi	s0,sp,128
     5da:	00090003          	lb	zero,0(s2)
     5de:	0100                	addi	s0,sp,128
     5e0:	00090003          	lb	zero,0(s2)
     5e4:	0100                	addi	s0,sp,128
     5e6:	00090003          	lb	zero,0(s2)
     5ea:	0100                	addi	s0,sp,128
     5ec:	00090003          	lb	zero,0(s2)
     5f0:	0100                	addi	s0,sp,128
     5f2:	00090003          	lb	zero,0(s2)
     5f6:	0100                	addi	s0,sp,128
     5f8:	00090003          	lb	zero,0(s2)
     5fc:	0100                	addi	s0,sp,128
     5fe:	00090003          	lb	zero,0(s2)
     602:	0100                	addi	s0,sp,128
     604:	00090003          	lb	zero,0(s2)
     608:	0100                	addi	s0,sp,128
     60a:	00090003          	lb	zero,0(s2)
     60e:	0100                	addi	s0,sp,128
     610:	00090003          	lb	zero,0(s2)
     614:	0100                	addi	s0,sp,128
     616:	00090003          	lb	zero,0(s2)
     61a:	0100                	addi	s0,sp,128
     61c:	00090003          	lb	zero,0(s2)
     620:	0100                	addi	s0,sp,128
     622:	00090003          	lb	zero,0(s2)
     626:	0100                	addi	s0,sp,128
     628:	00090003          	lb	zero,0(s2)
     62c:	0100                	addi	s0,sp,128
     62e:	00090003          	lb	zero,0(s2)
     632:	0100                	addi	s0,sp,128
     634:	00090003          	lb	zero,0(s2)
     638:	0100                	addi	s0,sp,128
     63a:	00090003          	lb	zero,0(s2)
     63e:	0100                	addi	s0,sp,128
     640:	00090003          	lb	zero,0(s2)
     644:	0100                	addi	s0,sp,128
     646:	00090003          	lb	zero,0(s2)
     64a:	0100                	addi	s0,sp,128
     64c:	00090003          	lb	zero,0(s2)
     650:	0100                	addi	s0,sp,128
     652:	00090003          	lb	zero,0(s2)
     656:	0100                	addi	s0,sp,128
     658:	00090003          	lb	zero,0(s2)
     65c:	0100                	addi	s0,sp,128
     65e:	00090003          	lb	zero,0(s2)
     662:	0100                	addi	s0,sp,128
     664:	00090003          	lb	zero,0(s2)
     668:	0100                	addi	s0,sp,128
     66a:	00090003          	lb	zero,0(s2)
     66e:	0100                	addi	s0,sp,128
     670:	0705                	addi	a4,a4,1
     672:	00091503          	lh	a0,0(s2)
     676:	0100                	addi	s0,sp,128
     678:	0a05                	addi	s4,s4,1
     67a:	0306                	slli	t1,t1,0x1
     67c:	0900                	addi	s0,sp,144
     67e:	0000                	unimp
     680:	0501                	addi	a0,a0,0
     682:	0604                	addi	s1,sp,768
     684:	00091303          	lh	t1,0(s2)
     688:	0100                	addi	s0,sp,128
     68a:	00090003          	lb	zero,0(s2)
     68e:	0100                	addi	s0,sp,128
     690:	00090003          	lb	zero,0(s2)
     694:	0100                	addi	s0,sp,128
     696:	00090003          	lb	zero,0(s2)
     69a:	0100                	addi	s0,sp,128
     69c:	00090003          	lb	zero,0(s2)
     6a0:	0100                	addi	s0,sp,128
     6a2:	00090003          	lb	zero,0(s2)
     6a6:	0100                	addi	s0,sp,128
     6a8:	00090103          	lb	sp,0(s2)
     6ac:	0100                	addi	s0,sp,128
     6ae:	0705                	addi	a4,a4,1
     6b0:	0306                	slli	t1,t1,0x1
     6b2:	0900                	addi	s0,sp,144
     6b4:	0000                	unimp
     6b6:	0501                	addi	a0,a0,0
     6b8:	0608                	addi	a0,sp,768
     6ba:	00090a03          	lb	s4,0(s2)
     6be:	0100                	addi	s0,sp,128
     6c0:	0306                	slli	t1,t1,0x1
     6c2:	0902                	c.slli64	s2
     6c4:	0000                	unimp
     6c6:	0501                	addi	a0,a0,0
     6c8:	097e030b          	0x97e030b
     6cc:	0000                	unimp
     6ce:	0501                	addi	a0,a0,0
     6d0:	0314                	addi	a3,sp,384
     6d2:	0900                	addi	s0,sp,144
     6d4:	0000                	unimp
     6d6:	0501                	addi	a0,a0,0
     6d8:	0304                	addi	s1,sp,384
     6da:	0975                	addi	s2,s2,29
     6dc:	0000                	unimp
     6de:	0501                	addi	a0,a0,0
     6e0:	0608                	addi	a0,sp,768
     6e2:	00091e03          	lh	t3,0(s2)
     6e6:	0100                	addi	s0,sp,128
     6e8:	00090303          	lb	t1,0(s2)
     6ec:	0100                	addi	s0,sp,128
     6ee:	00090203          	lb	tp,0(s2)
     6f2:	0100                	addi	s0,sp,128
     6f4:	1e05                	addi	t3,t3,-31
     6f6:	0306                	slli	t1,t1,0x1
     6f8:	0900                	addi	s0,sp,144
     6fa:	0000                	unimp
     6fc:	0501                	addi	a0,a0,0
     6fe:	0311                	addi	t1,t1,4
     700:	0900                	addi	s0,sp,144
     702:	0000                	unimp
     704:	0501                	addi	a0,a0,0
     706:	0900030b          	0x900030b
     70a:	0000                	unimp
     70c:	0501                	addi	a0,a0,0
     70e:	0608                	addi	a0,sp,768
     710:	00090103          	lb	sp,0(s2)
     714:	0100                	addi	s0,sp,128
     716:	0306                	slli	t1,t1,0x1
     718:	0905                	addi	s2,s2,1
     71a:	0000                	unimp
     71c:	0501                	addi	a0,a0,0
     71e:	097c030b          	0x97c030b
     722:	0000                	unimp
     724:	0501                	addi	a0,a0,0
     726:	0308                	addi	a0,sp,384
     728:	0904                	addi	s1,sp,144
     72a:	0000                	unimp
     72c:	0501                	addi	a0,a0,0
     72e:	0311                	addi	t1,t1,4
     730:	097d                	addi	s2,s2,31
     732:	0000                	unimp
     734:	0501                	addi	a0,a0,0
     736:	031e                	slli	t1,t1,0x7
     738:	0900                	addi	s0,sp,144
     73a:	0000                	unimp
     73c:	0501                	addi	a0,a0,0
     73e:	0900030b          	0x900030b
     742:	0000                	unimp
     744:	0501                	addi	a0,a0,0
     746:	0308                	addi	a0,sp,384
     748:	00000903          	lb	s2,0(zero) # 0 <_start-0x80000000>
     74c:	0501                	addi	a0,a0,0
     74e:	097b030b          	0x97b030b
     752:	0000                	unimp
     754:	0501                	addi	a0,a0,0
     756:	0608                	addi	a0,sp,768
     758:	00090103          	lb	sp,0(s2)
     75c:	0100                	addi	s0,sp,128
     75e:	00090103          	lb	sp,0(s2)
     762:	0100                	addi	s0,sp,128
     764:	00090103          	lb	sp,0(s2)
     768:	0100                	addi	s0,sp,128
     76a:	00090203          	lb	tp,0(s2)
     76e:	0100                	addi	s0,sp,128
     770:	00090003          	lb	zero,0(s2)
     774:	0100                	addi	s0,sp,128
     776:	00090003          	lb	zero,0(s2)
     77a:	0100                	addi	s0,sp,128
     77c:	00090003          	lb	zero,0(s2)
     780:	0100                	addi	s0,sp,128
     782:	00090003          	lb	zero,0(s2)
     786:	0100                	addi	s0,sp,128
     788:	00090003          	lb	zero,0(s2)
     78c:	0100                	addi	s0,sp,128
     78e:	00090003          	lb	zero,0(s2)
     792:	0100                	addi	s0,sp,128
     794:	00090003          	lb	zero,0(s2)
     798:	0100                	addi	s0,sp,128
     79a:	00090003          	lb	zero,0(s2)
     79e:	0100                	addi	s0,sp,128
     7a0:	00090003          	lb	zero,0(s2)
     7a4:	0100                	addi	s0,sp,128
     7a6:	00090003          	lb	zero,0(s2)
     7aa:	0100                	addi	s0,sp,128
     7ac:	00090003          	lb	zero,0(s2)
     7b0:	0100                	addi	s0,sp,128
     7b2:	00090003          	lb	zero,0(s2)
     7b6:	0100                	addi	s0,sp,128
     7b8:	00090003          	lb	zero,0(s2)
     7bc:	0100                	addi	s0,sp,128
     7be:	00090003          	lb	zero,0(s2)
     7c2:	0100                	addi	s0,sp,128
     7c4:	00090003          	lb	zero,0(s2)
     7c8:	0100                	addi	s0,sp,128
     7ca:	00090003          	lb	zero,0(s2)
     7ce:	0100                	addi	s0,sp,128
     7d0:	00090003          	lb	zero,0(s2)
     7d4:	0100                	addi	s0,sp,128
     7d6:	00090003          	lb	zero,0(s2)
     7da:	0100                	addi	s0,sp,128
     7dc:	00090003          	lb	zero,0(s2)
     7e0:	0100                	addi	s0,sp,128
     7e2:	00090003          	lb	zero,0(s2)
     7e6:	0100                	addi	s0,sp,128
     7e8:	00090003          	lb	zero,0(s2)
     7ec:	0100                	addi	s0,sp,128
     7ee:	00090003          	lb	zero,0(s2)
     7f2:	0100                	addi	s0,sp,128
     7f4:	00090003          	lb	zero,0(s2)
     7f8:	0100                	addi	s0,sp,128
     7fa:	00090003          	lb	zero,0(s2)
     7fe:	0100                	addi	s0,sp,128
     800:	00090003          	lb	zero,0(s2)
     804:	0100                	addi	s0,sp,128
     806:	0306                	slli	t1,t1,0x1
     808:	0901                	addi	s2,s2,0
     80a:	0000                	unimp
     80c:	0301                	addi	t1,t1,0
     80e:	097f                	0x97f
     810:	0000                	unimp
     812:	0601                	addi	a2,a2,0
     814:	00090003          	lb	zero,0(s2)
     818:	0100                	addi	s0,sp,128
     81a:	00090103          	lb	sp,0(s2)
     81e:	0100                	addi	s0,sp,128
     820:	00090003          	lb	zero,0(s2)
     824:	0100                	addi	s0,sp,128
     826:	00090003          	lb	zero,0(s2)
     82a:	0100                	addi	s0,sp,128
     82c:	00090003          	lb	zero,0(s2)
     830:	0100                	addi	s0,sp,128
     832:	00090003          	lb	zero,0(s2)
     836:	0100                	addi	s0,sp,128
     838:	00090003          	lb	zero,0(s2)
     83c:	0100                	addi	s0,sp,128
     83e:	00090003          	lb	zero,0(s2)
     842:	0100                	addi	s0,sp,128
     844:	00090003          	lb	zero,0(s2)
     848:	0100                	addi	s0,sp,128
     84a:	00090003          	lb	zero,0(s2)
     84e:	0100                	addi	s0,sp,128
     850:	00090003          	lb	zero,0(s2)
     854:	0100                	addi	s0,sp,128
     856:	00090003          	lb	zero,0(s2)
     85a:	0100                	addi	s0,sp,128
     85c:	00090003          	lb	zero,0(s2)
     860:	0100                	addi	s0,sp,128
     862:	00090003          	lb	zero,0(s2)
     866:	0100                	addi	s0,sp,128
     868:	00090003          	lb	zero,0(s2)
     86c:	0100                	addi	s0,sp,128
     86e:	00090003          	lb	zero,0(s2)
     872:	0100                	addi	s0,sp,128
     874:	00090003          	lb	zero,0(s2)
     878:	0100                	addi	s0,sp,128
     87a:	00090003          	lb	zero,0(s2)
     87e:	0100                	addi	s0,sp,128
     880:	00090203          	lb	tp,0(s2)
     884:	0100                	addi	s0,sp,128
     886:	0b05                	addi	s6,s6,1
     888:	0306                	slli	t1,t1,0x1
     88a:	0900                	addi	s0,sp,144
     88c:	0000                	unimp
     88e:	0501                	addi	a0,a0,0
     890:	0314                	addi	a3,sp,384
     892:	0900                	addi	s0,sp,144
     894:	0000                	unimp
     896:	0501                	addi	a0,a0,0
     898:	0308                	addi	a0,sp,384
     89a:	097e                	slli	s2,s2,0x1f
     89c:	0000                	unimp
     89e:	0501                	addi	a0,a0,0
     8a0:	097d030b          	0x97d030b
     8a4:	0000                	unimp
     8a6:	0501                	addi	a0,a0,0
     8a8:	0308                	addi	a0,sp,384
     8aa:	00000903          	lb	s2,0(zero) # 0 <_start-0x80000000>
     8ae:	0501                	addi	a0,a0,0
     8b0:	0908030b          	0x908030b
     8b4:	0000                	unimp
     8b6:	0501                	addi	a0,a0,0
     8b8:	0321                	addi	t1,t1,8
     8ba:	097a                	slli	s2,s2,0x1e
     8bc:	0000                	unimp
     8be:	0501                	addi	a0,a0,0
     8c0:	0605                	addi	a2,a2,1
     8c2:	00090203          	lb	tp,0(s2)
     8c6:	0100                	addi	s0,sp,128
     8c8:	0705                	addi	a4,a4,1
     8ca:	0306                	slli	t1,t1,0x1
     8cc:	0900                	addi	s0,sp,144
     8ce:	0000                	unimp
     8d0:	0501                	addi	a0,a0,0
     8d2:	0605                	addi	a2,a2,1
     8d4:	00090103          	lb	sp,0(s2)
     8d8:	0100                	addi	s0,sp,128
     8da:	00090003          	lb	zero,0(s2)
     8de:	0100                	addi	s0,sp,128
     8e0:	00090003          	lb	zero,0(s2)
     8e4:	0100                	addi	s0,sp,128
     8e6:	00090003          	lb	zero,0(s2)
     8ea:	0100                	addi	s0,sp,128
     8ec:	00090003          	lb	zero,0(s2)
     8f0:	0100                	addi	s0,sp,128
     8f2:	0705                	addi	a4,a4,1
     8f4:	0306                	slli	t1,t1,0x1
     8f6:	00000943          	fmadd.s	fs2,ft0,ft0,ft0,rne
     8fa:	0301                	addi	t1,t1,0
     8fc:	097f                	0x97f
     8fe:	0000                	unimp
     900:	0901                	addi	s2,s2,0
     902:	0000                	unimp
     904:	0100                	addi	s0,sp,128
     906:	b301                	j	606 <_start-0x7ffff9fa>
     908:	0009                	c.nop	2
     90a:	0300                	addi	s0,sp,384
     90c:	3900                	fld	fs0,48(a0)
     90e:	0002                	c.slli64	zero
     910:	0100                	addi	s0,sp,128
     912:	fb01                	bnez	a4,822 <_start-0x7ffff7de>
     914:	0d0e                	slli	s10,s10,0x3
     916:	0100                	addi	s0,sp,128
     918:	0101                	addi	sp,sp,0
     91a:	0001                	nop
     91c:	0000                	unimp
     91e:	0001                	nop
     920:	0100                	addi	s0,sp,128
     922:	2e2e                	fld	ft8,200(sp)
     924:	2f2e2e2f          	0x2f2e2e2f
     928:	2e2e                	fld	ft8,200(sp)
     92a:	2f2e2e2f          	0x2f2e2e2f
     92e:	6972                	flw	fs2,28(sp)
     930:	2d766373          	csrrsi	t1,0x2d7,12
     934:	2f636367          	0x2f636367
     938:	696c                	flw	fa1,84(a0)
     93a:	6762                	flw	fa4,24(sp)
     93c:	2f006363          	bltu	zero,a6,c22 <_start-0x7ffff3de>
     940:	6f68                	flw	fa0,92(a4)
     942:	656d                	lui	a0,0x1b
     944:	7261662f          	0x7261662f
     948:	7365                	lui	t1,0xffff9
     94a:	7665642f          	0x7665642f
     94e:	7369722f          	0x7369722f
     952:	672d7663          	bgeu	s10,s2,fbe <_start-0x7ffff042>
     956:	756e                	flw	fa0,248(sp)
     958:	742d                	lui	s0,0xfffeb
     95a:	636c6f6f          	jal	t5,c6f90 <_start-0x7ff39070>
     95e:	6168                	flw	fa0,68(a0)
     960:	6e69                	lui	t3,0x1a
     962:	762d                	lui	a2,0xfffeb
     964:	6365                	lui	t1,0x19
     966:	6f74                	flw	fa3,92(a4)
     968:	2f72                	fld	ft10,280(sp)
     96a:	7264                	flw	fs1,100(a2)
     96c:	2f73706f          	j	38462 <_start-0x7ffc7b9e>
     970:	6972                	flw	fs2,28(sp)
     972:	33766373          	csrrsi	t1,mhpmevent23,12
     976:	2d32                	fld	fs10,264(sp)
     978:	6e75                	lui	t3,0x1d
     97a:	776f6e6b          	0x776f6e6b
     97e:	2d6e                	fld	fs10,216(sp)
     980:	6c65                	lui	s8,0x19
     982:	2f66                	fld	ft10,88(sp)
     984:	6e69                	lui	t3,0x1a
     986:	64756c63          	bltu	a0,t2,fde <_start-0x7ffff022>
     98a:	2f65                	jal	1142 <_start-0x7fffeebe>
     98c:	00737973          	csrrci	s2,0x7,6
     990:	6d6f682f          	0x6d6f682f
     994:	2f65                	jal	114c <_start-0x7fffeeb4>
     996:	6166                	flw	ft2,88(sp)
     998:	6572                	flw	fa0,28(sp)
     99a:	6f442f73          	csrrs	t5,0x6f4,s0
     99e:	656d7563          	bgeu	s10,s6,fe8 <_start-0x7ffff018>
     9a2:	746e                	flw	fs0,248(sp)
     9a4:	65762f73          	csrrs	t5,0x657,a2
     9a8:	726f7463          	bgeu	t5,t1,10d0 <_start-0x7fffef30>
     9ac:	725f 7369 7663      	0x76637369725f
     9b2:	7369722f          	0x7369722f
     9b6:	672d7663          	bgeu	s10,s2,1022 <_start-0x7fffefde>
     9ba:	756e                	flw	fa0,248(sp)
     9bc:	742d                	lui	s0,0xfffeb
     9be:	636c6f6f          	jal	t5,c6ff4 <_start-0x7ff3900c>
     9c2:	6168                	flw	fa0,68(a0)
     9c4:	6e69                	lui	t3,0x1a
     9c6:	6975622f          	0x6975622f
     9ca:	646c                	flw	fa1,76(s0)
     9cc:	6975622f          	0x6975622f
     9d0:	646c                	flw	fa1,76(s0)
     9d2:	672d                	lui	a4,0xb
     9d4:	6e2d6363          	bltu	s10,sp,10ba <_start-0x7fffef46>
     9d8:	7765                	lui	a4,0xffff9
     9da:	696c                	flw	fa1,84(a0)
     9dc:	2d62                	fld	fs10,24(sp)
     9de:	67617473          	csrrci	s0,0x676,2
     9e2:	3265                	jal	38a <_start-0x7ffffc76>
     9e4:	6363672f          	vamoandw.v	zero,v22,(t1),v14
     9e8:	636e692f          	vamoandw.v	zero,v22,(t3),v18
     9ec:	756c                	flw	fa1,108(a0)
     9ee:	6564                	flw	fs1,76(a0)
     9f0:	2f00                	fld	fs0,24(a4)
     9f2:	6f68                	flw	fa0,92(a4)
     9f4:	656d                	lui	a0,0x1b
     9f6:	7261662f          	0x7261662f
     9fa:	7365                	lui	t1,0xffff9
     9fc:	7665642f          	0x7665642f
     a00:	7369722f          	0x7369722f
     a04:	672d7663          	bgeu	s10,s2,1070 <_start-0x7fffef90>
     a08:	756e                	flw	fa0,248(sp)
     a0a:	742d                	lui	s0,0xfffeb
     a0c:	636c6f6f          	jal	t5,c7042 <_start-0x7ff38fbe>
     a10:	6168                	flw	fa0,68(a0)
     a12:	6e69                	lui	t3,0x1a
     a14:	762d                	lui	a2,0xfffeb
     a16:	6365                	lui	t1,0x19
     a18:	6f74                	flw	fa3,92(a4)
     a1a:	2f72                	fld	ft10,280(sp)
     a1c:	7264                	flw	fs1,100(a2)
     a1e:	2f73706f          	j	38514 <_start-0x7ffc7aec>
     a22:	6972                	flw	fs2,28(sp)
     a24:	33766373          	csrrsi	t1,mhpmevent23,12
     a28:	2d32                	fld	fs10,264(sp)
     a2a:	6e75                	lui	t3,0x1d
     a2c:	776f6e6b          	0x776f6e6b
     a30:	2d6e                	fld	fs10,216(sp)
     a32:	6c65                	lui	s8,0x19
     a34:	2f66                	fld	ft10,88(sp)
     a36:	6e69                	lui	t3,0x1a
     a38:	64756c63          	bltu	a0,t2,1090 <_start-0x7fffef70>
     a3c:	0065                	c.nop	25
     a3e:	2e2e                	fld	ft8,200(sp)
     a40:	2f2e2e2f          	0x2f2e2e2f
     a44:	2e2e                	fld	ft8,200(sp)
     a46:	2f2e2e2f          	0x2f2e2e2f
     a4a:	6972                	flw	fs2,28(sp)
     a4c:	2d766373          	csrrsi	t1,0x2d7,12
     a50:	2f636367          	0x2f636367
     a54:	696c                	flw	fa1,84(a0)
     a56:	6762                	flw	fa4,24(sp)
     a58:	2e2f6363          	bltu	t5,sp,d3e <_start-0x7ffff2c2>
     a5c:	2f2e                	fld	ft10,200(sp)
     a5e:	6e69                	lui	t3,0x1a
     a60:	64756c63          	bltu	a0,t2,10b8 <_start-0x7fffef48>
     a64:	0065                	c.nop	25
     a66:	2e2e                	fld	ft8,200(sp)
     a68:	2f2e2e2f          	0x2f2e2e2f
     a6c:	2e2e                	fld	ft8,200(sp)
     a6e:	2f2e2e2f          	0x2f2e2e2f
     a72:	6972                	flw	fs2,28(sp)
     a74:	2d766373          	csrrsi	t1,0x2d7,12
     a78:	2f636367          	0x2f636367
     a7c:	696c                	flw	fa1,84(a0)
     a7e:	6762                	flw	fa4,24(sp)
     a80:	2e2f6363          	bltu	t5,sp,d66 <_start-0x7ffff29a>
     a84:	2f2e                	fld	ft10,200(sp)
     a86:	2f636367          	0x2f636367
     a8a:	666e6f63          	bltu	t3,t1,1108 <_start-0x7fffeef8>
     a8e:	6769                	lui	a4,0x1a
     a90:	7369722f          	0x7369722f
     a94:	2e007663          	bgeu	zero,zero,d80 <_start-0x7ffff280>
     a98:	2f2e                	fld	ft10,200(sp)
     a9a:	2e2e                	fld	ft8,200(sp)
     a9c:	672f2e2f          	amoand.w.aqrl	t3,s2,(t5)
     aa0:	00006363          	bltu	zero,zero,aa6 <_start-0x7ffff55a>
     aa4:	696c                	flw	fa1,84(a0)
     aa6:	6762                	flw	fa4,24(sp)
     aa8:	2e326363          	bltu	tp,gp,d8e <_start-0x7ffff272>
     aac:	00010063          	beqz	sp,aac <_start-0x7ffff554>
     ab0:	6c00                	flw	fs0,24(s0)
     ab2:	2e6b636f          	jal	t1,b6d98 <_start-0x7ff49268>
     ab6:	0068                	addi	a0,sp,12
     ab8:	0002                	c.slli64	zero
     aba:	5f00                	lw	s0,56(a4)
     abc:	7974                	flw	fa3,116(a0)
     abe:	6570                	flw	fa2,76(a0)
     ac0:	00682e73          	csrrs	t3,0x6,a6
     ac4:	0002                	c.slli64	zero
     ac6:	7300                	flw	fs0,32(a4)
     ac8:	6474                	flw	fa3,76(s0)
     aca:	6564                	flw	fs1,76(a0)
     acc:	2e66                	fld	ft8,88(sp)
     ace:	0068                	addi	a0,sp,12
     ad0:	72000003          	lb	zero,1824(zero) # 720 <_start-0x7ffff8e0>
     ad4:	6565                	lui	a0,0x19
     ad6:	746e                	flw	fs0,248(sp)
     ad8:	682e                	flw	fa6,200(sp)
     ada:	0200                	addi	s0,sp,256
     adc:	0000                	unimp
     ade:	7265                	lui	tp,0xffff9
     ae0:	6e72                	flw	ft8,28(sp)
     ae2:	00682e6f          	jal	t3,82ae8 <_start-0x7ff7d518>
     ae6:	0002                	c.slli64	zero
     ae8:	7300                	flw	fs0,32(a4)
     aea:	6474                	flw	fa3,76(s0)
     aec:	696c                	flw	fa1,84(a0)
     aee:	2e62                	fld	ft8,24(sp)
     af0:	0068                	addi	a0,sp,12
     af2:	0004                	0x4
     af4:	7500                	flw	fs0,40(a0)
     af6:	696e                	flw	fs2,216(sp)
     af8:	2e647473          	csrrci	s0,0x2e6,8
     afc:	0068                	addi	a0,sp,12
     afe:	0002                	c.slli64	zero
     b00:	7400                	flw	fs0,40(s0)
     b02:	6d69                	lui	s10,0x1a
     b04:	2e65                	jal	ebc <_start-0x7ffff144>
     b06:	0068                	addi	a0,sp,12
     b08:	0004                	0x4
     b0a:	6800                	flw	fs0,16(s0)
     b0c:	7361                	lui	t1,0xffff8
     b0e:	7468                	flw	fa0,108(s0)
     b10:	6261                	lui	tp,0x18
     b12:	682e                	flw	fa6,200(sp)
     b14:	0500                	addi	s0,sp,640
     b16:	0000                	unimp
     b18:	6972                	flw	fs2,28(sp)
     b1a:	2d766373          	csrrsi	t1,0x2d7,12
     b1e:	7374706f          	j	48a54 <_start-0x7ffb75ac>
     b22:	682e                	flw	fa6,200(sp)
     b24:	0600                	addi	s0,sp,768
     b26:	0000                	unimp
     b28:	6e69                	lui	t3,0x1a
     b2a:	632d6e73          	csrrsi	t3,0x632,26
     b2e:	74736e6f          	jal	t3,37a74 <_start-0x7ffc858c>
     b32:	6e61                	lui	t3,0x18
     b34:	7374                	flw	fa3,100(a4)
     b36:	682e                	flw	fa6,200(sp)
     b38:	0700                	addi	s0,sp,896
     b3a:	0000                	unimp
     b3c:	696c                	flw	fa1,84(a0)
     b3e:	6762                	flw	fa4,24(sp)
     b40:	2e326363          	bltu	tp,gp,e26 <_start-0x7ffff1da>
     b44:	0068                	addi	a0,sp,12
     b46:	0001                	nop
     b48:	0000                	unimp
     b4a:	0105                	addi	sp,sp,1
     b4c:	0500                	addi	s0,sp,640
     b4e:	0002                	c.slli64	zero
     b50:	0000                	unimp
     b52:	0300                	addi	s0,sp,384
     b54:	0a9a                	slli	s5,s5,0x6
     b56:	0501                	addi	a0,a0,0
     b58:	09010303          	lb	t1,144(sp)
     b5c:	0000                	unimp
     b5e:	0301                	addi	t1,t1,0
     b60:	0902                	c.slli64	s2
     b62:	0000                	unimp
     b64:	0301                	addi	t1,t1,0
     b66:	00097ddb          	0x97ddb
     b6a:	0100                	addi	s0,sp,128
     b6c:	00090103          	lb	sp,0(s2)
     b70:	0100                	addi	s0,sp,128
     b72:	00090103          	lb	sp,0(s2)
     b76:	0100                	addi	s0,sp,128
     b78:	00090103          	lb	sp,0(s2)
     b7c:	0100                	addi	s0,sp,128
     b7e:	00090103          	lb	sp,0(s2)
     b82:	0100                	addi	s0,sp,128
     b84:	00090103          	lb	sp,0(s2)
     b88:	0100                	addi	s0,sp,128
     b8a:	00090203          	lb	tp,0(s2)
     b8e:	0100                	addi	s0,sp,128
     b90:	0605                	addi	a2,a2,1
     b92:	0306                	slli	t1,t1,0x1
     b94:	0900                	addi	s0,sp,144
     b96:	0000                	unimp
     b98:	0501                	addi	a0,a0,0
     b9a:	01030603          	lb	a2,16(t1) # ffff8010 <__global_pointer$+0x7fff5e90>
     b9e:	0009                	c.nop	2
     ba0:	0100                	addi	s0,sp,128
     ba2:	0605                	addi	a2,a2,1
     ba4:	0306                	slli	t1,t1,0x1
     ba6:	0900                	addi	s0,sp,144
     ba8:	0000                	unimp
     baa:	0501                	addi	a0,a0,0
     bac:	01030603          	lb	a2,16(t1)
     bb0:	0009                	c.nop	2
     bb2:	0100                	addi	s0,sp,128
     bb4:	0605                	addi	a2,a2,1
     bb6:	0306                	slli	t1,t1,0x1
     bb8:	0900                	addi	s0,sp,144
     bba:	0000                	unimp
     bbc:	0501                	addi	a0,a0,0
     bbe:	01030603          	lb	a2,16(t1)
     bc2:	0009                	c.nop	2
     bc4:	0100                	addi	s0,sp,128
     bc6:	0605                	addi	a2,a2,1
     bc8:	0306                	slli	t1,t1,0x1
     bca:	0900                	addi	s0,sp,144
     bcc:	0000                	unimp
     bce:	0501                	addi	a0,a0,0
     bd0:	25030603          	lb	a2,592(t1)
     bd4:	0009                	c.nop	2
     bd6:	0100                	addi	s0,sp,128
     bd8:	0605                	addi	a2,a2,1
     bda:	0306                	slli	t1,t1,0x1
     bdc:	0900                	addi	s0,sp,144
     bde:	0000                	unimp
     be0:	0501                	addi	a0,a0,0
     be2:	02030607          	vlbu.v	v12,(t1)
     be6:	0009                	c.nop	2
     be8:	0100                	addi	s0,sp,128
     bea:	0a05                	addi	s4,s4,1
     bec:	0306                	slli	t1,t1,0x1
     bee:	0900                	addi	s0,sp,144
     bf0:	0000                	unimp
     bf2:	0501                	addi	a0,a0,0
     bf4:	0604                	addi	s1,sp,768
     bf6:	00090403          	lb	s0,0(s2)
     bfa:	0100                	addi	s0,sp,128
     bfc:	00090003          	lb	zero,0(s2)
     c00:	0100                	addi	s0,sp,128
     c02:	00090003          	lb	zero,0(s2)
     c06:	0100                	addi	s0,sp,128
     c08:	00090003          	lb	zero,0(s2)
     c0c:	0100                	addi	s0,sp,128
     c0e:	00090003          	lb	zero,0(s2)
     c12:	0100                	addi	s0,sp,128
     c14:	00090003          	lb	zero,0(s2)
     c18:	0100                	addi	s0,sp,128
     c1a:	00090203          	lb	tp,0(s2)
     c1e:	0100                	addi	s0,sp,128
     c20:	0705                	addi	a4,a4,1
     c22:	0306                	slli	t1,t1,0x1
     c24:	0900                	addi	s0,sp,144
     c26:	0000                	unimp
     c28:	0501                	addi	a0,a0,0
     c2a:	0608                	addi	a0,sp,768
     c2c:	00090503          	lb	a0,0(s2)
     c30:	0100                	addi	s0,sp,128
     c32:	1105                	addi	sp,sp,-31
     c34:	0306                	slli	t1,t1,0x1
     c36:	0901                	addi	s2,s2,0
     c38:	0000                	unimp
     c3a:	0501                	addi	a0,a0,0
     c3c:	031e                	slli	t1,t1,0x7
     c3e:	0900                	addi	s0,sp,144
     c40:	0000                	unimp
     c42:	0501                	addi	a0,a0,0
     c44:	097f030b          	0x97f030b
     c48:	0000                	unimp
     c4a:	0501                	addi	a0,a0,0
     c4c:	0608                	addi	a0,sp,768
     c4e:	00090103          	lb	sp,0(s2)
     c52:	0100                	addi	s0,sp,128
     c54:	0b05                	addi	s6,s6,1
     c56:	0306                	slli	t1,t1,0x1
     c58:	0900                	addi	s0,sp,144
     c5a:	0000                	unimp
     c5c:	0501                	addi	a0,a0,0
     c5e:	0608                	addi	a0,sp,768
     c60:	00090103          	lb	sp,0(s2)
     c64:	0100                	addi	s0,sp,128
     c66:	0b05                	addi	s6,s6,1
     c68:	0306                	slli	t1,t1,0x1
     c6a:	0900                	addi	s0,sp,144
     c6c:	0000                	unimp
     c6e:	0501                	addi	a0,a0,0
     c70:	0604                	addi	s1,sp,768
     c72:	00090303          	lb	t1,0(s2)
     c76:	0100                	addi	s0,sp,128
     c78:	00090003          	lb	zero,0(s2)
     c7c:	0100                	addi	s0,sp,128
     c7e:	00090003          	lb	zero,0(s2)
     c82:	0100                	addi	s0,sp,128
     c84:	00090003          	lb	zero,0(s2)
     c88:	0100                	addi	s0,sp,128
     c8a:	00090003          	lb	zero,0(s2)
     c8e:	0100                	addi	s0,sp,128
     c90:	00090003          	lb	zero,0(s2)
     c94:	0100                	addi	s0,sp,128
     c96:	00090003          	lb	zero,0(s2)
     c9a:	0100                	addi	s0,sp,128
     c9c:	00090003          	lb	zero,0(s2)
     ca0:	0100                	addi	s0,sp,128
     ca2:	00090003          	lb	zero,0(s2)
     ca6:	0100                	addi	s0,sp,128
     ca8:	00090003          	lb	zero,0(s2)
     cac:	0100                	addi	s0,sp,128
     cae:	00090003          	lb	zero,0(s2)
     cb2:	0100                	addi	s0,sp,128
     cb4:	00090003          	lb	zero,0(s2)
     cb8:	0100                	addi	s0,sp,128
     cba:	00090003          	lb	zero,0(s2)
     cbe:	0100                	addi	s0,sp,128
     cc0:	00090003          	lb	zero,0(s2)
     cc4:	0100                	addi	s0,sp,128
     cc6:	00090003          	lb	zero,0(s2)
     cca:	0100                	addi	s0,sp,128
     ccc:	00090003          	lb	zero,0(s2)
     cd0:	0100                	addi	s0,sp,128
     cd2:	00090003          	lb	zero,0(s2)
     cd6:	0100                	addi	s0,sp,128
     cd8:	00090003          	lb	zero,0(s2)
     cdc:	0100                	addi	s0,sp,128
     cde:	00090003          	lb	zero,0(s2)
     ce2:	0100                	addi	s0,sp,128
     ce4:	00090003          	lb	zero,0(s2)
     ce8:	0100                	addi	s0,sp,128
     cea:	00090003          	lb	zero,0(s2)
     cee:	0100                	addi	s0,sp,128
     cf0:	00090003          	lb	zero,0(s2)
     cf4:	0100                	addi	s0,sp,128
     cf6:	00090003          	lb	zero,0(s2)
     cfa:	0100                	addi	s0,sp,128
     cfc:	00090003          	lb	zero,0(s2)
     d00:	0100                	addi	s0,sp,128
     d02:	00090003          	lb	zero,0(s2)
     d06:	0100                	addi	s0,sp,128
     d08:	00090003          	lb	zero,0(s2)
     d0c:	0100                	addi	s0,sp,128
     d0e:	00090003          	lb	zero,0(s2)
     d12:	0100                	addi	s0,sp,128
     d14:	00090103          	lb	sp,0(s2)
     d18:	0100                	addi	s0,sp,128
     d1a:	0705                	addi	a4,a4,1
     d1c:	00092e03          	lw	t3,0(s2)
     d20:	0100                	addi	s0,sp,128
     d22:	0405                	addi	s0,s0,1
     d24:	00090203          	lb	tp,0(s2)
     d28:	0100                	addi	s0,sp,128
     d2a:	1205                	addi	tp,tp,-31
     d2c:	0306                	slli	t1,t1,0x1
     d2e:	0900                	addi	s0,sp,144
     d30:	0000                	unimp
     d32:	0501                	addi	a0,a0,0
     d34:	0604                	addi	s1,sp,768
     d36:	00090103          	lb	sp,0(s2)
     d3a:	0100                	addi	s0,sp,128
     d3c:	00090103          	lb	sp,0(s2)
     d40:	0100                	addi	s0,sp,128
     d42:	0c05                	addi	s8,s8,1
     d44:	0306                	slli	t1,t1,0x1
     d46:	0900                	addi	s0,sp,144
     d48:	0000                	unimp
     d4a:	0501                	addi	a0,a0,0
     d4c:	0301                	addi	t1,t1,0
     d4e:	01b4                	addi	a3,sp,200
     d50:	0009                	c.nop	2
     d52:	0100                	addi	s0,sp,128
     d54:	0405                	addi	s0,s0,1
     d56:	097e8d03          	lb	s10,151(t4)
     d5a:	0000                	unimp
     d5c:	0601                	addi	a2,a2,0
     d5e:	00091503          	lh	a0,0(s2)
     d62:	0100                	addi	s0,sp,128
     d64:	0705                	addi	a4,a4,1
     d66:	0306                	slli	t1,t1,0x1
     d68:	0900                	addi	s0,sp,144
     d6a:	0000                	unimp
     d6c:	0501                	addi	a0,a0,0
     d6e:	0606                	slli	a2,a2,0x1
     d70:	00090103          	lb	sp,0(s2)
     d74:	0100                	addi	s0,sp,128
     d76:	0905                	addi	s2,s2,1
     d78:	0306                	slli	t1,t1,0x1
     d7a:	0900                	addi	s0,sp,144
     d7c:	0000                	unimp
     d7e:	0501                	addi	a0,a0,0
     d80:	0604                	addi	s1,sp,768
     d82:	00090203          	lb	tp,0(s2)
     d86:	0100                	addi	s0,sp,128
     d88:	00090003          	lb	zero,0(s2)
     d8c:	0100                	addi	s0,sp,128
     d8e:	00090003          	lb	zero,0(s2)
     d92:	0100                	addi	s0,sp,128
     d94:	00090003          	lb	zero,0(s2)
     d98:	0100                	addi	s0,sp,128
     d9a:	00090003          	lb	zero,0(s2)
     d9e:	0100                	addi	s0,sp,128
     da0:	00090003          	lb	zero,0(s2)
     da4:	0100                	addi	s0,sp,128
     da6:	00090203          	lb	tp,0(s2)
     daa:	0100                	addi	s0,sp,128
     dac:	0705                	addi	a4,a4,1
     dae:	0306                	slli	t1,t1,0x1
     db0:	0900                	addi	s0,sp,144
     db2:	0000                	unimp
     db4:	0501                	addi	a0,a0,0
     db6:	0608                	addi	a0,sp,768
     db8:	00090903          	lb	s2,0(s2)
     dbc:	0100                	addi	s0,sp,128
     dbe:	0b05                	addi	s6,s6,1
     dc0:	0306                	slli	t1,t1,0x1
     dc2:	0900                	addi	s0,sp,144
     dc4:	0000                	unimp
     dc6:	0501                	addi	a0,a0,0
     dc8:	0608                	addi	a0,sp,768
     dca:	00090103          	lb	sp,0(s2)
     dce:	0100                	addi	s0,sp,128
     dd0:	0405                	addi	s0,s0,1
     dd2:	00091203          	lh	tp,0(s2)
     dd6:	0100                	addi	s0,sp,128
     dd8:	00090003          	lb	zero,0(s2)
     ddc:	0100                	addi	s0,sp,128
     dde:	00090003          	lb	zero,0(s2)
     de2:	0100                	addi	s0,sp,128
     de4:	00090003          	lb	zero,0(s2)
     de8:	0100                	addi	s0,sp,128
     dea:	00090003          	lb	zero,0(s2)
     dee:	0100                	addi	s0,sp,128
     df0:	00090003          	lb	zero,0(s2)
     df4:	0100                	addi	s0,sp,128
     df6:	00090003          	lb	zero,0(s2)
     dfa:	0100                	addi	s0,sp,128
     dfc:	00090003          	lb	zero,0(s2)
     e00:	0100                	addi	s0,sp,128
     e02:	00090003          	lb	zero,0(s2)
     e06:	0100                	addi	s0,sp,128
     e08:	00090003          	lb	zero,0(s2)
     e0c:	0100                	addi	s0,sp,128
     e0e:	00090003          	lb	zero,0(s2)
     e12:	0100                	addi	s0,sp,128
     e14:	00090003          	lb	zero,0(s2)
     e18:	0100                	addi	s0,sp,128
     e1a:	00090003          	lb	zero,0(s2)
     e1e:	0100                	addi	s0,sp,128
     e20:	00090003          	lb	zero,0(s2)
     e24:	0100                	addi	s0,sp,128
     e26:	00090003          	lb	zero,0(s2)
     e2a:	0100                	addi	s0,sp,128
     e2c:	00090003          	lb	zero,0(s2)
     e30:	0100                	addi	s0,sp,128
     e32:	00090003          	lb	zero,0(s2)
     e36:	0100                	addi	s0,sp,128
     e38:	00090003          	lb	zero,0(s2)
     e3c:	0100                	addi	s0,sp,128
     e3e:	00090003          	lb	zero,0(s2)
     e42:	0100                	addi	s0,sp,128
     e44:	00090003          	lb	zero,0(s2)
     e48:	0100                	addi	s0,sp,128
     e4a:	00090003          	lb	zero,0(s2)
     e4e:	0100                	addi	s0,sp,128
     e50:	00090003          	lb	zero,0(s2)
     e54:	0100                	addi	s0,sp,128
     e56:	00090003          	lb	zero,0(s2)
     e5a:	0100                	addi	s0,sp,128
     e5c:	00090003          	lb	zero,0(s2)
     e60:	0100                	addi	s0,sp,128
     e62:	00090003          	lb	zero,0(s2)
     e66:	0100                	addi	s0,sp,128
     e68:	00090003          	lb	zero,0(s2)
     e6c:	0100                	addi	s0,sp,128
     e6e:	00090003          	lb	zero,0(s2)
     e72:	0100                	addi	s0,sp,128
     e74:	0306                	slli	t1,t1,0x1
     e76:	0962                	slli	s2,s2,0x18
     e78:	0000                	unimp
     e7a:	0501                	addi	a0,a0,0
     e7c:	0608                	addi	a0,sp,768
     e7e:	00091203          	lh	tp,0(s2)
     e82:	0100                	addi	s0,sp,128
     e84:	00090203          	lb	tp,0(s2)
     e88:	0100                	addi	s0,sp,128
     e8a:	0b05                	addi	s6,s6,1
     e8c:	0306                	slli	t1,t1,0x1
     e8e:	0900                	addi	s0,sp,144
     e90:	0000                	unimp
     e92:	0501                	addi	a0,a0,0
     e94:	0608                	addi	a0,sp,768
     e96:	00090103          	lb	sp,0(s2)
     e9a:	0100                	addi	s0,sp,128
     e9c:	0b05                	addi	s6,s6,1
     e9e:	0306                	slli	t1,t1,0x1
     ea0:	0900                	addi	s0,sp,144
     ea2:	0000                	unimp
     ea4:	0501                	addi	a0,a0,0
     ea6:	0608                	addi	a0,sp,768
     ea8:	00090103          	lb	sp,0(s2)
     eac:	0100                	addi	s0,sp,128
     eae:	0b05                	addi	s6,s6,1
     eb0:	0306                	slli	t1,t1,0x1
     eb2:	0901                	addi	s2,s2,0
     eb4:	0000                	unimp
     eb6:	0501                	addi	a0,a0,0
     eb8:	031e                	slli	t1,t1,0x7
     eba:	097f                	0x97f
     ebc:	0000                	unimp
     ebe:	0501                	addi	a0,a0,0
     ec0:	0308                	addi	a0,sp,384
     ec2:	00000903          	lb	s2,0(zero) # 0 <_start-0x80000000>
     ec6:	0501                	addi	a0,a0,0
     ec8:	0311                	addi	t1,t1,4
     eca:	097d                	addi	s2,s2,31
     ecc:	0000                	unimp
     ece:	0501                	addi	a0,a0,0
     ed0:	0900030b          	0x900030b
     ed4:	0000                	unimp
     ed6:	0501                	addi	a0,a0,0
     ed8:	0608                	addi	a0,sp,768
     eda:	00090103          	lb	sp,0(s2)
     ede:	0100                	addi	s0,sp,128
     ee0:	00090203          	lb	tp,0(s2)
     ee4:	0100                	addi	s0,sp,128
     ee6:	00090003          	lb	zero,0(s2)
     eea:	0100                	addi	s0,sp,128
     eec:	00090003          	lb	zero,0(s2)
     ef0:	0100                	addi	s0,sp,128
     ef2:	00090003          	lb	zero,0(s2)
     ef6:	0100                	addi	s0,sp,128
     ef8:	00090003          	lb	zero,0(s2)
     efc:	0100                	addi	s0,sp,128
     efe:	00090003          	lb	zero,0(s2)
     f02:	0100                	addi	s0,sp,128
     f04:	00090003          	lb	zero,0(s2)
     f08:	0100                	addi	s0,sp,128
     f0a:	00090003          	lb	zero,0(s2)
     f0e:	0100                	addi	s0,sp,128
     f10:	00090003          	lb	zero,0(s2)
     f14:	0100                	addi	s0,sp,128
     f16:	00090003          	lb	zero,0(s2)
     f1a:	0100                	addi	s0,sp,128
     f1c:	00090003          	lb	zero,0(s2)
     f20:	0100                	addi	s0,sp,128
     f22:	00090003          	lb	zero,0(s2)
     f26:	0100                	addi	s0,sp,128
     f28:	00090003          	lb	zero,0(s2)
     f2c:	0100                	addi	s0,sp,128
     f2e:	00090003          	lb	zero,0(s2)
     f32:	0100                	addi	s0,sp,128
     f34:	00090003          	lb	zero,0(s2)
     f38:	0100                	addi	s0,sp,128
     f3a:	00090003          	lb	zero,0(s2)
     f3e:	0100                	addi	s0,sp,128
     f40:	00090003          	lb	zero,0(s2)
     f44:	0100                	addi	s0,sp,128
     f46:	00090003          	lb	zero,0(s2)
     f4a:	0100                	addi	s0,sp,128
     f4c:	00090003          	lb	zero,0(s2)
     f50:	0100                	addi	s0,sp,128
     f52:	00090003          	lb	zero,0(s2)
     f56:	0100                	addi	s0,sp,128
     f58:	00090003          	lb	zero,0(s2)
     f5c:	0100                	addi	s0,sp,128
     f5e:	00090003          	lb	zero,0(s2)
     f62:	0100                	addi	s0,sp,128
     f64:	00090003          	lb	zero,0(s2)
     f68:	0100                	addi	s0,sp,128
     f6a:	00090003          	lb	zero,0(s2)
     f6e:	0100                	addi	s0,sp,128
     f70:	00090003          	lb	zero,0(s2)
     f74:	0100                	addi	s0,sp,128
     f76:	00090003          	lb	zero,0(s2)
     f7a:	0100                	addi	s0,sp,128
     f7c:	00090003          	lb	zero,0(s2)
     f80:	0100                	addi	s0,sp,128
     f82:	0705                	addi	a4,a4,1
     f84:	00091503          	lh	a0,0(s2)
     f88:	0100                	addi	s0,sp,128
     f8a:	0a05                	addi	s4,s4,1
     f8c:	0306                	slli	t1,t1,0x1
     f8e:	0900                	addi	s0,sp,144
     f90:	0000                	unimp
     f92:	0501                	addi	a0,a0,0
     f94:	0604                	addi	s1,sp,768
     f96:	00091303          	lh	t1,0(s2)
     f9a:	0100                	addi	s0,sp,128
     f9c:	00090003          	lb	zero,0(s2)
     fa0:	0100                	addi	s0,sp,128
     fa2:	00090003          	lb	zero,0(s2)
     fa6:	0100                	addi	s0,sp,128
     fa8:	00090003          	lb	zero,0(s2)
     fac:	0100                	addi	s0,sp,128
     fae:	00090003          	lb	zero,0(s2)
     fb2:	0100                	addi	s0,sp,128
     fb4:	00090003          	lb	zero,0(s2)
     fb8:	0100                	addi	s0,sp,128
     fba:	00090103          	lb	sp,0(s2)
     fbe:	0100                	addi	s0,sp,128
     fc0:	0705                	addi	a4,a4,1
     fc2:	0306                	slli	t1,t1,0x1
     fc4:	0900                	addi	s0,sp,144
     fc6:	0000                	unimp
     fc8:	0501                	addi	a0,a0,0
     fca:	0608                	addi	a0,sp,768
     fcc:	00090a03          	lb	s4,0(s2)
     fd0:	0100                	addi	s0,sp,128
     fd2:	0b05                	addi	s6,s6,1
     fd4:	0306                	slli	t1,t1,0x1
     fd6:	0900                	addi	s0,sp,144
     fd8:	0000                	unimp
     fda:	0501                	addi	a0,a0,0
     fdc:	0314                	addi	a3,sp,384
     fde:	0900                	addi	s0,sp,144
     fe0:	0000                	unimp
     fe2:	0501                	addi	a0,a0,0
     fe4:	0605                	addi	a2,a2,1
     fe6:	00090203          	lb	tp,0(s2)
     fea:	0100                	addi	s0,sp,128
     fec:	00090103          	lb	sp,0(s2)
     ff0:	0100                	addi	s0,sp,128
     ff2:	00090003          	lb	zero,0(s2)
     ff6:	0100                	addi	s0,sp,128
     ff8:	00090003          	lb	zero,0(s2)
     ffc:	0100                	addi	s0,sp,128
     ffe:	00090003          	lb	zero,0(s2)
    1002:	0100                	addi	s0,sp,128
    1004:	00090003          	lb	zero,0(s2)
    1008:	0100                	addi	s0,sp,128
    100a:	0805                	addi	a6,a6,1
    100c:	00090503          	lb	a0,0(s2)
    1010:	0100                	addi	s0,sp,128
    1012:	00090203          	lb	tp,0(s2)
    1016:	0100                	addi	s0,sp,128
    1018:	0505                	addi	a0,a0,1
    101a:	00090203          	lb	tp,0(s2)
    101e:	0100                	addi	s0,sp,128
    1020:	00090103          	lb	sp,0(s2)
    1024:	0100                	addi	s0,sp,128
    1026:	00090103          	lb	sp,0(s2)
    102a:	0100                	addi	s0,sp,128
    102c:	0d05                	addi	s10,s10,1
    102e:	0306                	slli	t1,t1,0x1
    1030:	0900                	addi	s0,sp,144
    1032:	0000                	unimp
    1034:	0501                	addi	a0,a0,0
    1036:	0304                	addi	s1,sp,384
    1038:	00000967          	jalr	s2,zero # 0 <_start-0x80000000>
    103c:	0501                	addi	a0,a0,0
    103e:	0608                	addi	a0,sp,768
    1040:	00091e03          	lh	t3,0(s2)
    1044:	0100                	addi	s0,sp,128
    1046:	00090303          	lb	t1,0(s2)
    104a:	0100                	addi	s0,sp,128
    104c:	00090203          	lb	tp,0(s2)
    1050:	0100                	addi	s0,sp,128
    1052:	1e05                	addi	t3,t3,-31
    1054:	0306                	slli	t1,t1,0x1
    1056:	0900                	addi	s0,sp,144
    1058:	0000                	unimp
    105a:	0501                	addi	a0,a0,0
    105c:	0311                	addi	t1,t1,4
    105e:	0900                	addi	s0,sp,144
    1060:	0000                	unimp
    1062:	0501                	addi	a0,a0,0
    1064:	0900030b          	0x900030b
    1068:	0000                	unimp
    106a:	0501                	addi	a0,a0,0
    106c:	0608                	addi	a0,sp,768
    106e:	00090103          	lb	sp,0(s2)
    1072:	0100                	addi	s0,sp,128
    1074:	0306                	slli	t1,t1,0x1
    1076:	0905                	addi	s2,s2,1
    1078:	0000                	unimp
    107a:	0501                	addi	a0,a0,0
    107c:	097c030b          	0x97c030b
    1080:	0000                	unimp
    1082:	0501                	addi	a0,a0,0
    1084:	0308                	addi	a0,sp,384
    1086:	0904                	addi	s1,sp,144
    1088:	0000                	unimp
    108a:	0501                	addi	a0,a0,0
    108c:	0311                	addi	t1,t1,4
    108e:	097d                	addi	s2,s2,31
    1090:	0000                	unimp
    1092:	0501                	addi	a0,a0,0
    1094:	031e                	slli	t1,t1,0x7
    1096:	0900                	addi	s0,sp,144
    1098:	0000                	unimp
    109a:	0501                	addi	a0,a0,0
    109c:	0900030b          	0x900030b
    10a0:	0000                	unimp
    10a2:	0501                	addi	a0,a0,0
    10a4:	0308                	addi	a0,sp,384
    10a6:	00000903          	lb	s2,0(zero) # 0 <_start-0x80000000>
    10aa:	0501                	addi	a0,a0,0
    10ac:	097b030b          	0x97b030b
    10b0:	0000                	unimp
    10b2:	0501                	addi	a0,a0,0
    10b4:	0608                	addi	a0,sp,768
    10b6:	00090103          	lb	sp,0(s2)
    10ba:	0100                	addi	s0,sp,128
    10bc:	00090103          	lb	sp,0(s2)
    10c0:	0100                	addi	s0,sp,128
    10c2:	00090103          	lb	sp,0(s2)
    10c6:	0100                	addi	s0,sp,128
    10c8:	0b05                	addi	s6,s6,1
    10ca:	0306                	slli	t1,t1,0x1
    10cc:	0900                	addi	s0,sp,144
    10ce:	0000                	unimp
    10d0:	0501                	addi	a0,a0,0
    10d2:	0608                	addi	a0,sp,768
    10d4:	00090203          	lb	tp,0(s2)
    10d8:	0100                	addi	s0,sp,128
    10da:	00090003          	lb	zero,0(s2)
    10de:	0100                	addi	s0,sp,128
    10e0:	00090003          	lb	zero,0(s2)
    10e4:	0100                	addi	s0,sp,128
    10e6:	00090003          	lb	zero,0(s2)
    10ea:	0100                	addi	s0,sp,128
    10ec:	00090003          	lb	zero,0(s2)
    10f0:	0100                	addi	s0,sp,128
    10f2:	00090003          	lb	zero,0(s2)
    10f6:	0100                	addi	s0,sp,128
    10f8:	00090003          	lb	zero,0(s2)
    10fc:	0100                	addi	s0,sp,128
    10fe:	00090003          	lb	zero,0(s2)
    1102:	0100                	addi	s0,sp,128
    1104:	00090003          	lb	zero,0(s2)
    1108:	0100                	addi	s0,sp,128
    110a:	00090003          	lb	zero,0(s2)
    110e:	0100                	addi	s0,sp,128
    1110:	00090003          	lb	zero,0(s2)
    1114:	0100                	addi	s0,sp,128
    1116:	00090003          	lb	zero,0(s2)
    111a:	0100                	addi	s0,sp,128
    111c:	00090003          	lb	zero,0(s2)
    1120:	0100                	addi	s0,sp,128
    1122:	00090003          	lb	zero,0(s2)
    1126:	0100                	addi	s0,sp,128
    1128:	00090003          	lb	zero,0(s2)
    112c:	0100                	addi	s0,sp,128
    112e:	00090003          	lb	zero,0(s2)
    1132:	0100                	addi	s0,sp,128
    1134:	00090003          	lb	zero,0(s2)
    1138:	0100                	addi	s0,sp,128
    113a:	00090003          	lb	zero,0(s2)
    113e:	0100                	addi	s0,sp,128
    1140:	00090003          	lb	zero,0(s2)
    1144:	0100                	addi	s0,sp,128
    1146:	00090003          	lb	zero,0(s2)
    114a:	0100                	addi	s0,sp,128
    114c:	00090003          	lb	zero,0(s2)
    1150:	0100                	addi	s0,sp,128
    1152:	00090003          	lb	zero,0(s2)
    1156:	0100                	addi	s0,sp,128
    1158:	00090003          	lb	zero,0(s2)
    115c:	0100                	addi	s0,sp,128
    115e:	00090003          	lb	zero,0(s2)
    1162:	0100                	addi	s0,sp,128
    1164:	00090003          	lb	zero,0(s2)
    1168:	0100                	addi	s0,sp,128
    116a:	0306                	slli	t1,t1,0x1
    116c:	0901                	addi	s2,s2,0
    116e:	0000                	unimp
    1170:	0301                	addi	t1,t1,0
    1172:	097f                	0x97f
    1174:	0000                	unimp
    1176:	0301                	addi	t1,t1,0
    1178:	0901                	addi	s2,s2,0
    117a:	0000                	unimp
    117c:	0301                	addi	t1,t1,0
    117e:	097f                	0x97f
    1180:	0000                	unimp
    1182:	0601                	addi	a2,a2,0
    1184:	00090003          	lb	zero,0(s2)
    1188:	0100                	addi	s0,sp,128
    118a:	00090003          	lb	zero,0(s2)
    118e:	0100                	addi	s0,sp,128
    1190:	00090103          	lb	sp,0(s2)
    1194:	0100                	addi	s0,sp,128
    1196:	00090003          	lb	zero,0(s2)
    119a:	0100                	addi	s0,sp,128
    119c:	00090003          	lb	zero,0(s2)
    11a0:	0100                	addi	s0,sp,128
    11a2:	00090003          	lb	zero,0(s2)
    11a6:	0100                	addi	s0,sp,128
    11a8:	00090003          	lb	zero,0(s2)
    11ac:	0100                	addi	s0,sp,128
    11ae:	00090003          	lb	zero,0(s2)
    11b2:	0100                	addi	s0,sp,128
    11b4:	00090003          	lb	zero,0(s2)
    11b8:	0100                	addi	s0,sp,128
    11ba:	00090003          	lb	zero,0(s2)
    11be:	0100                	addi	s0,sp,128
    11c0:	00090003          	lb	zero,0(s2)
    11c4:	0100                	addi	s0,sp,128
    11c6:	00090003          	lb	zero,0(s2)
    11ca:	0100                	addi	s0,sp,128
    11cc:	00090003          	lb	zero,0(s2)
    11d0:	0100                	addi	s0,sp,128
    11d2:	00090003          	lb	zero,0(s2)
    11d6:	0100                	addi	s0,sp,128
    11d8:	00090003          	lb	zero,0(s2)
    11dc:	0100                	addi	s0,sp,128
    11de:	00090003          	lb	zero,0(s2)
    11e2:	0100                	addi	s0,sp,128
    11e4:	00090003          	lb	zero,0(s2)
    11e8:	0100                	addi	s0,sp,128
    11ea:	00090003          	lb	zero,0(s2)
    11ee:	0100                	addi	s0,sp,128
    11f0:	00090003          	lb	zero,0(s2)
    11f4:	0100                	addi	s0,sp,128
    11f6:	00090203          	lb	tp,0(s2)
    11fa:	0100                	addi	s0,sp,128
    11fc:	0b05                	addi	s6,s6,1
    11fe:	0306                	slli	t1,t1,0x1
    1200:	0900                	addi	s0,sp,144
    1202:	0000                	unimp
    1204:	0501                	addi	a0,a0,0
    1206:	0314                	addi	a3,sp,384
    1208:	0900                	addi	s0,sp,144
    120a:	0000                	unimp
    120c:	0501                	addi	a0,a0,0
    120e:	0321                	addi	t1,t1,8
    1210:	0900                	addi	s0,sp,144
    1212:	0000                	unimp
    1214:	0501                	addi	a0,a0,0
    1216:	0605                	addi	a2,a2,1
    1218:	00090203          	lb	tp,0(s2)
    121c:	0100                	addi	s0,sp,128
    121e:	00090103          	lb	sp,0(s2)
    1222:	0100                	addi	s0,sp,128
    1224:	00090003          	lb	zero,0(s2)
    1228:	0100                	addi	s0,sp,128
    122a:	00090003          	lb	zero,0(s2)
    122e:	0100                	addi	s0,sp,128
    1230:	00090003          	lb	zero,0(s2)
    1234:	0100                	addi	s0,sp,128
    1236:	00090003          	lb	zero,0(s2)
    123a:	0100                	addi	s0,sp,128
    123c:	0805                	addi	a6,a6,1
    123e:	00090303          	lb	t1,0(s2)
    1242:	0100                	addi	s0,sp,128
    1244:	00090303          	lb	t1,0(s2)
    1248:	0100                	addi	s0,sp,128
    124a:	0505                	addi	a0,a0,1
    124c:	00090203          	lb	tp,0(s2)
    1250:	0100                	addi	s0,sp,128
    1252:	00090003          	lb	zero,0(s2)
    1256:	0100                	addi	s0,sp,128
    1258:	00090003          	lb	zero,0(s2)
    125c:	0100                	addi	s0,sp,128
    125e:	00090003          	lb	zero,0(s2)
    1262:	0100                	addi	s0,sp,128
    1264:	00090003          	lb	zero,0(s2)
    1268:	0100                	addi	s0,sp,128
    126a:	00090103          	lb	sp,0(s2)
    126e:	0100                	addi	s0,sp,128
    1270:	1405                	addi	s0,s0,-31
    1272:	0306                	slli	t1,t1,0x1
    1274:	0900                	addi	s0,sp,144
    1276:	0000                	unimp
    1278:	0501                	addi	a0,a0,0
    127a:	0320                	addi	s0,sp,392
    127c:	0900                	addi	s0,sp,144
    127e:	0000                	unimp
    1280:	0501                	addi	a0,a0,0
    1282:	0605                	addi	a2,a2,1
    1284:	00090103          	lb	sp,0(s2)
    1288:	0100                	addi	s0,sp,128
    128a:	00090103          	lb	sp,0(s2)
    128e:	0100                	addi	s0,sp,128
    1290:	0d05                	addi	s10,s10,1
    1292:	0306                	slli	t1,t1,0x1
    1294:	0900                	addi	s0,sp,144
    1296:	0000                	unimp
    1298:	0501                	addi	a0,a0,0
    129a:	06030603          	lb	a2,96(t1)
    129e:	0009                	c.nop	2
    12a0:	0100                	addi	s0,sp,128
    12a2:	00090103          	lb	sp,0(s2)
    12a6:	0100                	addi	s0,sp,128
    12a8:	0900d803          	lhu	a6,144(ra)
    12ac:	0000                	unimp
    12ae:	0501                	addi	a0,a0,0
    12b0:	060a                	slli	a2,a2,0x2
    12b2:	00090003          	lb	zero,0(s2)
    12b6:	0100                	addi	s0,sp,128
    12b8:	0009                	c.nop	2
    12ba:	0000                	unimp
    12bc:	0101                	addi	sp,sp,0

Disassembly of section .debug_str:

00000000 <.debug_str>:
   0:	726f6873          	csrrsi	a6,0x726,30
   4:	2074                	fld	fa3,192(s0)
   6:	6e69                	lui	t3,0x1a
   8:	0074                	addi	a3,sp,12
   a:	7468                	flw	fa0,108(s0)
   c:	6261                	lui	tp,0x18
   e:	685f 7361 5f68      	0x5f687361685f
  14:	6f70                	flw	fa2,92(a4)
  16:	6e69                	lui	t3,0x1a
  18:	6574                	flw	fa3,76(a0)
  1a:	0072                	c.slli	zero,0x1c
  1c:	5f5f 4673 4c49      	0x4c4946735f5f
  22:	0045                	c.nop	17
  24:	725f 6e61 3464      	0x34646e61725f
  2a:	0038                	addi	a4,sp,8
  2c:	655f 656d 6772      	0x6772656d655f
  32:	6e65                	lui	t3,0x19
  34:	5f007963          	bgeu	zero,a6,626 <_start-0x7ffff9da>
  38:	6164                	flw	fs1,68(a0)
  3a:	6c79                	lui	s8,0x1e
  3c:	6769                	lui	a4,0x1a
  3e:	7468                	flw	fa0,108(s0)
  40:	6300                	flw	fs0,0(a4)
  42:	6c706d6f          	jal	s10,6f08 <_start-0x7fff90f8>
  46:	7865                	lui	a6,0xffff9
  48:	6420                	flw	fs0,72(s0)
  4a:	6c62756f          	jal	a0,27710 <_start-0x7ffd88f0>
  4e:	0065                	c.nop	25
  50:	675f 7465 6164      	0x61647465675f
  56:	6574                	flw	fa3,76(a0)
  58:	655f 7272 5f00      	0x5f007272655f
  5e:	6164                	flw	fs1,68(a0)
  60:	6174                	flw	fa3,68(a0)
  62:	5f00                	lw	s0,56(a4)
  64:	74726377          	0x74726377
  68:	5f626d6f          	jal	s10,2665e <_start-0x7ffd99a2>
  6c:	74617473          	csrrci	s0,0x746,2
  70:	0065                	c.nop	25
  72:	775f 7363 7472      	0x74727363775f
  78:	73626d6f          	jal	s10,267ae <_start-0x7ffd9852>
  7c:	735f 6174 6574      	0x65746174735f
  82:	5f00                	lw	s0,56(a4)
  84:	645f 0030 5f5f      	0x5f5f0030645f
  8a:	3164                	fld	fs1,224(a0)
  8c:	5f00                	lw	s0,56(a4)
  8e:	626c                	flw	fa1,68(a2)
  90:	7366                	flw	ft6,120(sp)
  92:	7a69                	lui	s4,0xffffa
  94:	0065                	c.nop	25
  96:	6974706f          	j	47f2c <_start-0x7ffb80d4>
  9a:	646e                	flw	fs0,216(sp)
  9c:	6300                	flw	fs0,0(a4)
  9e:	6c706d6f          	jal	s10,6f64 <_start-0x7fff909c>
  a2:	7865                	lui	a6,0xffff9
  a4:	6c20                	flw	fs0,88(s0)
  a6:	20676e6f          	jal	t3,762ac <_start-0x7ff89d54>
  aa:	6f64                	flw	fs1,92(a4)
  ac:	6275                	lui	tp,0x1d
  ae:	656c                	flw	fa1,76(a0)
  b0:	7200                	flw	fs0,32(a2)
  b2:	7369                	lui	t1,0xffffa
  b4:	615f7663          	bgeu	t5,s5,6c0 <_start-0x7ffff940>
  b8:	6962                	flw	fs2,24(sp)
  ba:	5f00                	lw	s0,56(a4)
  bc:	6c5f 636f 6c61      	0x6c61636f6c5f
  c2:	5f65                	li	t5,-7
  c4:	0074                	addi	a3,sp,12
  c6:	6d5f 7262 6f74      	0x6f7472626d5f
  cc:	735f6377          	0x735f6377
  d0:	6174                	flw	fa3,68(a0)
  d2:	6574                	flw	fa3,76(a0)
  d4:	5f00                	lw	s0,56(a4)
  d6:	7a74                	flw	fa3,116(a2)
  d8:	616e                	flw	ft2,216(sp)
  da:	656d                	lui	a0,0x1b
  dc:	5f00                	lw	s0,56(a4)
  de:	745f 5f6d 6573      	0x65735f6d745f
  e4:	635f0063          	beq	t5,s5,704 <_start-0x7ffff8fc>
  e8:	6f6c                	flw	fa1,92(a4)
  ea:	47006573          	csrrsi	a0,0x470,0
  ee:	554e                	lw	a0,240(sp)
  f0:	4320                	lw	s0,64(a4)
  f2:	3731                	jal	fffffffe <__global_pointer$+0x7fffde7e>
  f4:	3820                	fld	fs0,112(s0)
  f6:	332e                	fld	ft6,232(sp)
  f8:	302e                	fld	ft0,232(sp)
  fa:	2d20                	fld	fs0,88(a0)
  fc:	636d                	lui	t1,0x1b
  fe:	6f6d                	lui	t5,0x1b
 100:	6564                	flw	fs1,76(a0)
 102:	3d6c                	fld	fa1,248(a0)
 104:	656d                	lui	a0,0x1b
 106:	6c64                	flw	fs1,92(s0)
 108:	2d20776f          	jal	a4,73da <_start-0x7fff8c26>
 10c:	636d                	lui	t1,0x1b
 10e:	6f6d                	lui	t5,0x1b
 110:	6564                	flw	fs1,76(a0)
 112:	3d6c                	fld	fa1,248(a0)
 114:	656d                	lui	a0,0x1b
 116:	6c64                	flw	fs1,92(s0)
 118:	2d20776f          	jal	a4,73ea <_start-0x7fff8c16>
 11c:	746d                	lui	s0,0xffffb
 11e:	6e75                	lui	t3,0x1d
 120:	3d65                	jal	ffffffd8 <__global_pointer$+0x7fffde58>
 122:	6f72                	flw	ft10,28(sp)
 124:	74656b63          	bltu	a0,t1,87a <_start-0x7ffff786>
 128:	2d20                	fld	fs0,88(a0)
 12a:	616d                	addi	sp,sp,240
 12c:	6372                	flw	ft6,28(sp)
 12e:	3d68                	fld	fa0,248(a0)
 130:	7672                	flw	fa2,60(sp)
 132:	6d693233          	0x6d693233
 136:	2076                	fld	ft0,344(sp)
 138:	6d2d                	lui	s10,0xb
 13a:	6261                	lui	tp,0x18
 13c:	3d69                	jal	ffffffd6 <__global_pointer$+0x7fffde56>
 13e:	6c69                	lui	s8,0x1a
 140:	3370                	fld	fa2,224(a4)
 142:	2032                	fld	ft0,264(sp)
 144:	672d                	lui	a4,0xb
 146:	2d20                	fld	fs0,88(a0)
 148:	2d20734f          	0x2d20734f
 14c:	2d20324f          	0x2d20324f
 150:	2d20734f          	0x2d20734f
 154:	6266                	flw	ft4,88(sp)
 156:	6975                	lui	s2,0x1d
 158:	646c                	flw	fa1,76(s0)
 15a:	6e69                	lui	t3,0x1a
 15c:	696c2d67          	0x696c2d67
 160:	6762                	flw	fa4,24(sp)
 162:	2d206363          	bltu	zero,s2,428 <_start-0x7ffffbd8>
 166:	6e66                	flw	ft8,88(sp)
 168:	74732d6f          	jal	s10,330ae <_start-0x7ffccf52>
 16c:	6361                	lui	t1,0x18
 16e:	72702d6b          	0x72702d6b
 172:	6365746f          	jal	s0,577a8 <_start-0x7ffa8858>
 176:	6f74                	flw	fa3,92(a4)
 178:	2072                	fld	ft0,280(sp)
 17a:	662d                	lui	a2,0xb
 17c:	7865                	lui	a6,0xffff9
 17e:	74706563          	bltu	zero,t2,8c8 <_start-0x7ffff738>
 182:	6f69                	lui	t5,0x1a
 184:	736e                	flw	ft6,248(sp)
 186:	2d20                	fld	fs0,88(a0)
 188:	6e66                	flw	ft8,88(sp)
 18a:	632d6e6f          	jal	t3,d67bc <_start-0x7ff29844>
 18e:	6c61                	lui	s8,0x18
 190:	2d6c                	fld	fa1,216(a0)
 192:	7865                	lui	a6,0xffff9
 194:	74706563          	bltu	zero,t2,8de <_start-0x7ffff722>
 198:	6f69                	lui	t5,0x1a
 19a:	736e                	flw	ft6,248(sp)
 19c:	2d20                	fld	fs0,88(a0)
 19e:	7666                	flw	fa2,120(sp)
 1a0:	7369                	lui	t1,0xffffa
 1a2:	6269                	lui	tp,0x1a
 1a4:	6c69                	lui	s8,0x1a
 1a6:	7469                	lui	s0,0xffffa
 1a8:	3d79                	jal	46 <_start-0x7fffffba>
 1aa:	6968                	flw	fa0,84(a0)
 1ac:	6464                	flw	fs1,76(s0)
 1ae:	6e65                	lui	t3,0x19
 1b0:	5f00                	lw	s0,56(a4)
 1b2:	6275                	lui	tp,0x1d
 1b4:	6675                	lui	a2,0x1d
 1b6:	5f00                	lw	s0,56(a4)
 1b8:	6162                	flw	ft2,24(sp)
 1ba:	5f006573          	csrrsi	a0,0x5f0,0
 1be:	745f 5f6d 6f68      	0x6f685f6d745f
 1c4:	7275                	lui	tp,0xffffd
 1c6:	5f00                	lw	s0,56(a4)
 1c8:	6f746377          	0x6f746377
 1cc:	626d                	lui	tp,0x1b
 1ce:	735f 6174 6574      	0x65746174735f
 1d4:	5f00                	lw	s0,56(a4)
 1d6:	735f 0066 6f5f      	0x6f5f0066735f
 1dc:	5f6e                	lw	t5,248(sp)
 1de:	7865                	lui	a6,0xffff9
 1e0:	7469                	lui	s0,0xffffa
 1e2:	615f 6772 0073      	0x736772615f
 1e8:	635f 6f6f 696b      	0x696b6f6f635f
 1ee:	0065                	c.nop	25
 1f0:	5f5f 6773 756c      	0x756c67735f5f
 1f6:	0065                	c.nop	25
 1f8:	665f 616c 7367      	0x7367616c665f
 1fe:	5f00                	lw	s0,56(a4)
 200:	7369                	lui	t1,0xffffa
 202:	635f 6178 5f00      	0x5f006178635f
 208:	00736477          	0x736477
 20c:	5f5f 4946 454c      	0x454c49465f5f
 212:	5f00                	lw	s0,56(a4)
 214:	6572                	flw	fa0,28(sp)
 216:	746c7573          	csrrci	a0,0x746,24
 21a:	6b5f 5500 4953      	0x495355006b5f
 220:	7974                	flw	fa3,116(a0)
 222:	6570                	flw	fa2,76(a0)
 224:	6c00                	flw	fs0,24(s0)
 226:	20676e6f          	jal	t3,7642c <_start-0x7ff89bd4>
 22a:	6f6c                	flw	fa1,92(a4)
 22c:	676e                	flw	fa4,216(sp)
 22e:	6920                	flw	fs0,80(a0)
 230:	746e                	flw	fs0,248(sp)
 232:	5f00                	lw	s0,56(a4)
 234:	5f737973          	csrrci	s2,0x5f7,6
 238:	7265                	lui	tp,0xffff9
 23a:	6c72                	flw	fs8,28(sp)
 23c:	7369                	lui	t1,0xffffa
 23e:	0074                	addi	a3,sp,12
 240:	635f 7476 7562      	0x75627476635f
 246:	0066                	c.slli	zero,0x19
 248:	6d5f 7362 7472      	0x747273626d5f
 24e:	7363776f          	jal	a4,37984 <_start-0x7ffc867c>
 252:	735f 6174 6574      	0x65746174735f
 258:	5f00                	lw	s0,56(a4)
 25a:	626d                	lui	tp,0x1b
 25c:	6c72                	flw	fs8,28(sp)
 25e:	6e65                	lui	t3,0x19
 260:	735f 6174 6574      	0x65746174735f
 266:	7200                	flw	fs0,32(a2)
 268:	7369                	lui	t1,0xffffa
 26a:	635f7663          	bgeu	t5,s5,896 <_start-0x7ffff76a>
 26e:	6f6d                	lui	t5,0x1b
 270:	6564                	flw	fs1,76(a0)
 272:	006c                	addi	a1,sp,12
 274:	665f 616e 6772      	0x6772616e665f
 27a:	665f0073          	0x665f0073
 27e:	736e                	flw	ft6,248(sp)
 280:	5f00                	lw	s0,56(a4)
 282:	6e676973          	csrrsi	s2,0x6e6,14
 286:	5f00                	lw	s0,56(a4)
 288:	65647473          	csrrci	s0,0x656,8
 28c:	7272                	flw	ft4,60(sp)
 28e:	5f00                	lw	s0,56(a4)
 290:	6d6d6167          	0x6d6d6167
 294:	5f61                	li	t5,-8
 296:	6e676973          	csrrsi	s2,0x6e6,14
 29a:	006d6167          	0x6d6167
 29e:	6e5f 616d 6c6c      	0x6c6c616d6e5f
 2a4:	5f00636f          	jal	t1,6894 <_start-0x7fff976c>
 2a8:	6e75                	lui	t3,0x1d
 2aa:	63657073          	csrci	0x636,10
 2ae:	6669                	lui	a2,0x1a
 2b0:	6569                	lui	a0,0x1a
 2b2:	5f64                	lw	s1,124(a4)
 2b4:	6f6c                	flw	fa1,92(a4)
 2b6:	656c6163          	bltu	s8,s6,8f8 <_start-0x7ffff708>
 2ba:	695f 666e 006f      	0x6f666e695f
 2c0:	5f5f 6d74 7200      	0x72006d745f5f
 2c6:	7369                	lui	t1,0xffffa
 2c8:	615f7663          	bgeu	t5,s5,8d4 <_start-0x7ffff72c>
 2cc:	6962                	flw	fs2,24(sp)
 2ce:	745f 7079 0065      	0x657079745f
 2d4:	6d5f 7362 6174      	0x617473626d5f
 2da:	6574                	flw	fa3,76(a0)
 2dc:	5f00                	lw	s0,56(a4)
 2de:	775f 6863 0062      	0x626863775f
 2e4:	635f 7476 656c      	0x656c7476635f
 2ea:	006e                	c.slli	zero,0x1b
 2ec:	665f 6c69 0065      	0x656c69665f
 2f2:	6168                	flw	fa0,68(a0)
 2f4:	61766873          	csrrsi	a6,0x617,12
 2f8:	5f6c                	lw	a1,124(a4)
 2fa:	0074                	addi	a3,sp,12
 2fc:	5744                	lw	s1,44(a4)
 2fe:	6e75                	lui	t3,0x1d
 300:	6f69                	lui	t5,0x1a
 302:	006e                	c.slli	zero,0x1b
 304:	6e5f 6f69 7362      	0x73626f696e5f
 30a:	6c00                	flw	fs0,24(s0)
 30c:	20676e6f          	jal	t3,76512 <_start-0x7ff89aee>
 310:	6f6c                	flw	fa1,92(a4)
 312:	676e                	flw	fa4,216(sp)
 314:	7520                	flw	fs0,104(a0)
 316:	736e                	flw	ft6,248(sp)
 318:	6769                	lui	a4,0x1a
 31a:	656e                	flw	fa0,216(sp)
 31c:	2064                	fld	fs1,192(s0)
 31e:	6e69                	lui	t3,0x1a
 320:	0074                	addi	a3,sp,12
 322:	5744                	lw	s1,44(a4)
 324:	75727473          	csrrci	s0,0x757,4
 328:	73007463          	bgeu	zero,a6,a50 <_start-0x7ffff5b0>
 32c:	6f68                	flw	fa0,92(a4)
 32e:	7472                	flw	fs0,60(sp)
 330:	7520                	flw	fs0,104(a0)
 332:	736e                	flw	ft6,248(sp)
 334:	6769                	lui	a4,0x1a
 336:	656e                	flw	fa0,216(sp)
 338:	2064                	fld	fs1,192(s0)
 33a:	6e69                	lui	t3,0x1a
 33c:	0074                	addi	a3,sp,12
 33e:	5f5f 6c63 5f7a      	0x5f7a6c635f5f
 344:	6174                	flw	fa3,68(a0)
 346:	0062                	c.slli	zero,0x18
 348:	615f 6574 6978      	0x69786574615f
 34e:	3074                	fld	fa3,224(s0)
 350:	5f00                	lw	s0,56(a4)
 352:	6e676973          	csrrsi	s2,0x6e6,14
 356:	6c61                	lui	s8,0x18
 358:	625f 6675 5f00      	0x5f006675625f
 35e:	7361                	lui	t1,0xffff8
 360:	6d697463          	bgeu	s2,s6,a28 <_start-0x7ffff5d8>
 364:	5f65                	li	t5,-7
 366:	7562                	flw	fa0,56(sp)
 368:	0066                	c.slli	zero,0x19
 36a:	725f 7365 6c75      	0x6c757365725f
 370:	0074                	addi	a3,sp,12
 372:	5f5f 6377 0068      	0x6863775f5f
 378:	4241                	li	tp,16
 37a:	5f49                	li	t5,-14
 37c:	4c49                	li	s8,18
 37e:	3350                	fld	fa2,160(a4)
 380:	4632                	lw	a2,12(sp)
 382:	6500                	flw	fs0,8(a0)
 384:	766e                	flw	fa2,248(sp)
 386:	7269                	lui	tp,0xffffa
 388:	77006e6f          	jal	t3,6af8 <_start-0x7fff9508>
 38c:	6e69                	lui	t3,0x1a
 38e:	5f74                	lw	a3,124(a4)
 390:	0074                	addi	a3,sp,12
 392:	6c5f 636f 006b      	0x6b636f6c5f
 398:	5f5f 6875 4100      	0x410068755f5f
 39e:	4942                	lw	s2,16(sp)
 3a0:	495f 504c 3233      	0x3233504c495f
 3a6:	0045                	c.nop	17
 3a8:	6d5f 6c75 0074      	0x746c756d5f
 3ae:	5f5f 6c75 7500      	0x75006c755f5f
 3b4:	736e                	flw	ft6,248(sp)
 3b6:	6570                	flw	fa2,76(a0)
 3b8:	74735f63          	bge	t1,t2,b16 <_start-0x7ffff4ea>
 3bc:	6972                	flw	fs2,28(sp)
 3be:	676e                	flw	fa4,216(sp)
 3c0:	706f0073          	0x706f0073
 3c4:	7274                	flw	fa3,100(a2)
 3c6:	7365                	lui	t1,0xffff9
 3c8:	7465                	lui	s0,0xffff9
 3ca:	5f00                	lw	s0,56(a4)
 3cc:	74697277          	0x74697277
 3d0:	0065                	c.nop	25
 3d2:	5f5f 6d74 795f      	0x795f6d745f5f
 3d8:	6165                	addi	sp,sp,112
 3da:	0072                	c.slli	zero,0x1c
 3dc:	5f5f 6f63 6e75      	0x6e756f635f5f
 3e2:	0074                	addi	a3,sp,12
 3e4:	755f 756e 6573      	0x6573756e755f
 3ea:	5f64                	lw	s1,124(a4)
 3ec:	6172                	flw	ft2,28(sp)
 3ee:	646e                	flw	fs0,216(sp)
 3f0:	4100                	lw	s0,0(a0)
 3f2:	4942                	lw	s2,16(sp)
 3f4:	495f 504c 3233      	0x3233504c495f
 3fa:	0044                	addi	s1,sp,4
 3fc:	6972                	flw	fs2,28(sp)
 3fe:	5f766373          	csrrsi	t1,0x5f7,12
 402:	65646f63          	bltu	s0,s6,a60 <_start-0x7ffff5a0>
 406:	6d5f 646f 6c65      	0x6c65646f6d5f
 40c:	5f00                	lw	s0,56(a4)
 40e:	7366666f          	jal	a2,66b44 <_start-0x7ff994bc>
 412:	7465                	lui	s0,0xffff9
 414:	5f00                	lw	s0,56(a4)
 416:	6942                	flw	fs2,16(sp)
 418:	746e6967          	0x746e6967
 41c:	5f00                	lw	s0,56(a4)
 41e:	656e                	flw	fa0,216(sp)
 420:	7478                	flw	fa4,108(s0)
 422:	0066                	c.slli	zero,0x19
 424:	706d6f63          	bltu	s10,t1,b42 <_start-0x7ffff4be>
 428:	656c                	flw	fa1,76(a0)
 42a:	2078                	fld	fa4,192(s0)
 42c:	6c66                	flw	fs8,88(sp)
 42e:	0074616f          	jal	sp,46c34 <_start-0x7ffb93cc>
 432:	5f5f 6d74 6d5f      	0x6d5f6d745f5f
 438:	5f006e6f          	jal	t3,6a28 <_start-0x7fff95d8>
 43c:	7461                	lui	s0,0xffff8
 43e:	7865                	lui	a6,0xffff9
 440:	7469                	lui	s0,0xffffa
 442:	7300                	flw	fs0,32(a4)
 444:	6275                	lui	tp,0x1d
 446:	6174706f          	j	4825c <_start-0x7ffb7da4>
 44a:	6772                	flw	fa4,28(sp)
 44c:	5f00                	lw	s0,56(a4)
 44e:	735f 6964 6964      	0x69646964735f
 454:	696e                	flw	fs2,216(sp)
 456:	0074                	addi	a3,sp,12
 458:	6f5f 6666 745f      	0x745f66666f5f
 45e:	5f00                	lw	s0,56(a4)
 460:	765f 0068 5f5f      	0x5f5f0068765f
 466:	6c76                	flw	fs8,92(sp)
 468:	5f00                	lw	s0,56(a4)
 46a:	7266                	flw	ft4,120(sp)
 46c:	6565                	lui	a0,0x19
 46e:	696c                	flw	fa1,84(a0)
 470:	5f007473          	csrrci	s0,0x5f0,0
 474:	6974                	flw	fa3,84(a0)
 476:	656d                	lui	a0,0x1b
 478:	6f7a                	flw	ft10,156(sp)
 47a:	656e                	flw	fa0,216(sp)
 47c:	5f00                	lw	s0,56(a4)
 47e:	626d                	lui	tp,0x1b
 480:	74617473          	csrrci	s0,0x746,2
 484:	5f65                	li	t5,-7
 486:	0074                	addi	a3,sp,12
 488:	4c5f 434f 5f4b      	0x5f4b434f4c5f
 48e:	4552                	lw	a0,20(sp)
 490:	53525543          	fmadd.d	fa0,ft4,fs5,fa0,unknown
 494:	5649                	li	a2,-14
 496:	5f45                	li	t5,-15
 498:	0054                	addi	a3,sp,4
 49a:	725f 6165 0064      	0x646165725f
 4a0:	2e2e                	fld	ft8,200(sp)
 4a2:	2f2e2e2f          	0x2f2e2e2f
 4a6:	2e2e                	fld	ft8,200(sp)
 4a8:	2f2e2e2f          	0x2f2e2e2f
 4ac:	6972                	flw	fs2,28(sp)
 4ae:	2d766373          	csrrsi	t1,0x2d7,12
 4b2:	2f636367          	0x2f636367
 4b6:	696c                	flw	fa1,84(a0)
 4b8:	6762                	flw	fa4,24(sp)
 4ba:	6c2f6363          	bltu	t5,sp,b80 <_start-0x7ffff480>
 4be:	6269                	lui	tp,0x1a
 4c0:	32636367          	0x32636367
 4c4:	632e                	flw	ft6,200(sp)
 4c6:	4100                	lw	s0,0(a0)
 4c8:	4942                	lw	s2,16(sp)
 4ca:	4c5f 3650 0034      	0x3436504c5f
 4d0:	4241                	li	tp,16
 4d2:	5f49                	li	t5,-14
 4d4:	4c49                	li	s8,18
 4d6:	3350                	fld	fa2,160(a4)
 4d8:	0032                	c.slli	zero,0xc
 4da:	645f 6f73 685f      	0x685f6f73645f
 4e0:	6e61                	lui	t3,0x18
 4e2:	6c64                	flw	fs1,92(s0)
 4e4:	0065                	c.nop	25
 4e6:	4d5f4d43          	0x4d5f4d43
 4ea:	4445                	li	s0,17
 4ec:	4e41                	li	t3,16
 4ee:	0059                	c.nop	22
 4f0:	6e5f 7765 5f00      	0x5f0077656e5f
 4f6:	5f68                	lw	a0,124(a4)
 4f8:	7265                	lui	tp,0xffff9
 4fa:	6e72                	flw	ft8,28(sp)
 4fc:	665f006f          	j	f1360 <_start-0x7ff0eca0>
 500:	6f6c                	flw	fa1,92(a4)
 502:	745f6b63          	bltu	t5,t0,c58 <_start-0x7ffff3a8>
 506:	5f00                	lw	s0,56(a4)
 508:	745f 5f6d 6479      	0x64795f6d745f
 50e:	7961                	lui	s2,0xffff8
 510:	5f00                	lw	s0,56(a4)
 512:	6c66                	flw	fs8,88(sp)
 514:	6761                	lui	a4,0x18
 516:	5f003273          	csrrc	tp,0x5f0,zero
 51a:	6f69                	lui	t5,0x1a
 51c:	7362                	flw	ft6,56(sp)
 51e:	4300                	lw	s0,0(a4)
 520:	5f4d                	li	t5,-13
 522:	454d                	li	a0,19
 524:	4c44                	lw	s1,28(s0)
 526:	6800574f          	fnmadd.s	fa4,ft0,ft0,fa3,unknown
 52a:	6174                	flw	fa3,68(a0)
 52c:	5f62                	lw	t5,56(sp)
 52e:	6168                	flw	fa0,68(a0)
 530:	2f006873          	csrrsi	a6,0x2f0,0
 534:	6f68                	flw	fa0,92(a4)
 536:	656d                	lui	a0,0x1b
 538:	7261662f          	0x7261662f
 53c:	7365                	lui	t1,0xffff9
 53e:	636f442f          	0x636f442f
 542:	6d75                	lui	s10,0x1d
 544:	6e65                	lui	t3,0x19
 546:	7374                	flw	fa3,100(a4)
 548:	6365762f          	vamoande.v	zero,v22,(a0),v12
 54c:	6f74                	flw	fa3,92(a4)
 54e:	5f72                	lw	t5,60(sp)
 550:	6972                	flw	fs2,28(sp)
 552:	2f766373          	csrrsi	t1,0x2f7,12
 556:	6972                	flw	fs2,28(sp)
 558:	2d766373          	csrrsi	t1,0x2d7,12
 55c:	2d756e67          	0x2d756e67
 560:	6f74                	flw	fa3,92(a4)
 562:	68636c6f          	jal	s8,36be8 <_start-0x7ffc9418>
 566:	6961                	lui	s2,0x18
 568:	2f6e                	fld	ft10,216(sp)
 56a:	7562                	flw	fa0,56(sp)
 56c:	6c69                	lui	s8,0x1a
 56e:	2f64                	fld	fs1,216(a4)
 570:	7562                	flw	fa0,56(sp)
 572:	6c69                	lui	s8,0x1a
 574:	2d64                	fld	fs1,216(a0)
 576:	2d636367          	0x2d636367
 57a:	656e                	flw	fa0,216(sp)
 57c:	62696c77          	0x62696c77
 580:	732d                	lui	t1,0xfffeb
 582:	6174                	flw	fa3,68(a0)
 584:	2f326567          	0x2f326567
 588:	6972                	flw	fs2,28(sp)
 58a:	33766373          	csrrsi	t1,mhpmevent23,12
 58e:	2d32                	fld	fs10,264(sp)
 590:	6e75                	lui	t3,0x1d
 592:	776f6e6b          	0x776f6e6b
 596:	2d6e                	fld	fs10,216(sp)
 598:	6c65                	lui	s8,0x19
 59a:	2f66                	fld	ft10,88(sp)
 59c:	696c                	flw	fa1,84(a0)
 59e:	6762                	flw	fa4,24(sp)
 5a0:	5f006363          	bltu	zero,a6,b86 <_start-0x7ffff47a>
 5a4:	5f737973          	csrrci	s2,0x5f7,6
 5a8:	656e                	flw	fa0,216(sp)
 5aa:	7272                	flw	ft4,60(sp)
 5ac:	5f00                	lw	s0,56(a4)
 5ae:	626d                	lui	tp,0x1b
 5b0:	656c                	flw	fa1,76(a0)
 5b2:	5f6e                	lw	t5,248(sp)
 5b4:	74617473          	csrrci	s0,0x746,2
 5b8:	0065                	c.nop	25
 5ba:	695f 636e 5f00      	0x5f00636e695f
 5c0:	6e69                	lui	t3,0x1a
 5c2:	0064                	addi	s1,sp,12
 5c4:	5f5f 6475 7669      	0x766964755f5f
 5ca:	6964                	flw	fs1,84(a0)
 5cc:	5f5f0033          	0x5f5f0033
 5d0:	61656c63          	bltu	a0,s6,be8 <_start-0x7ffff418>
 5d4:	756e                	flw	fa0,248(sp)
 5d6:	0070                	addi	a2,sp,12
 5d8:	6d5f 7861 6477      	0x647778616d5f
 5de:	725f0073          	0x725f0073
 5e2:	6565                	lui	a0,0x19
 5e4:	746e                	flw	fs0,248(sp)
 5e6:	5f00                	lw	s0,56(a4)
 5e8:	785f 0030 5f5f      	0x5f5f0030785f
 5ee:	3178                	fld	fa4,224(a0)
 5f0:	5f00                	lw	s0,56(a4)
 5f2:	785f 0032 5f5f      	0x5f5f0032785f
 5f8:	3378                	fld	fa4,224(a4)
 5fa:	5f00                	lw	s0,56(a4)
 5fc:	765f 6c61 6575      	0x65756c61765f
 602:	5f00                	lw	s0,56(a4)
 604:	6b656573          	csrrsi	a0,0x6b6,10
 608:	5f00                	lw	s0,56(a4)
 60a:	7066                	flw	ft0,120(sp)
 60c:	745f736f          	jal	t1,f8550 <_start-0x7ff07ab0>
 610:	5f00                	lw	s0,56(a4)
 612:	6c62                	flw	fs8,24(sp)
 614:	7a69736b          	0x7a69736b
 618:	0065                	c.nop	25
 61a:	735f 7a69 0065      	0x657a69735f
 620:	5f5f 6475 7669      	0x766964755f5f
 626:	6f6d                	lui	t5,0x1b
 628:	6464                	flw	fs1,76(s0)
 62a:	3469                	jal	b4 <_start-0x7fffff4c>
 62c:	7500                	flw	fs0,40(a0)
 62e:	736e                	flw	ft6,248(sp)
 630:	6570                	flw	fa2,76(a0)
 632:	735f7663          	bgeu	t5,s5,d5e <_start-0x7ffff2a2>
 636:	7274                	flw	fa3,100(a2)
 638:	6e69                	lui	t3,0x1a
 63a:	5f007367          	0x5f007367
 63e:	64656573          	csrrsi	a0,0x646,10
 642:	6f00                	flw	fs0,24(a4)
 644:	7470                	flw	fa2,108(s0)
 646:	7265                	lui	tp,0xffff9
 648:	0072                	c.slli	zero,0x1c
 64a:	6968                	flw	fa0,84(a0)
 64c:	5f006867          	0x5f006867
 650:	715f 0030 5f5f      	0x5f5f0030715f
 656:	3171                	jal	2e2 <_start-0x7ffffd1e>
 658:	5f00                	lw	s0,56(a4)
 65a:	74727473          	csrrci	s0,0x747,4
 65e:	6c5f6b6f          	jal	s6,f7522 <_start-0x7ff08ade>
 662:	7361                	lui	t1,0xffff8
 664:	0074                	addi	a3,sp,12
 666:	505f4d43          	fmadd.s	fs10,ft10,ft5,fa0,rmm
 66a:	4349                	li	t1,18
 66c:	5f00                	lw	s0,56(a4)
 66e:	6e66                	flw	ft8,88(sp)
 670:	7974                	flw	fa3,116(a0)
 672:	6570                	flw	fa2,76(a0)
 674:	6e750073          	0x6e750073
 678:	6e676973          	csrrsi	s2,0x6e6,14
 67c:	6465                	lui	s0,0x19
 67e:	6320                	flw	fs0,64(a4)
 680:	6168                	flw	fa0,68(a0)
 682:	0072                	c.slli	zero,0x1c
 684:	615f 6464 5f00      	0x5f006464615f
 68a:	555f 6f4c 676e      	0x676e6f4c555f
 690:	6800                	flw	fs0,16(s0)
 692:	6174                	flw	fa3,68(a0)
 694:	5f62                	lw	t5,56(sp)
 696:	7165                	addi	sp,sp,-400
 698:	705f 696f 746e      	0x746e696f705f
 69e:	7265                	lui	tp,0xffff9
 6a0:	5f00                	lw	s0,56(a4)
 6a2:	785f 0072 675f      	0x675f0072785f
 6a8:	6f6c                	flw	fa1,92(a4)
 6aa:	6162                	flw	ft2,24(sp)
 6ac:	5f6c                	lw	a1,124(a4)
 6ae:	6d69                	lui	s10,0x1a
 6b0:	7570                	flw	fa2,108(a0)
 6b2:	6572                	flw	fa0,28(sp)
 6b4:	705f 7274 5500      	0x55007274705f
 6ba:	4944                	lw	s1,20(a0)
 6bc:	7974                	flw	fa3,116(a0)
 6be:	6570                	flw	fa2,76(a0)
 6c0:	5f00                	lw	s0,56(a4)
 6c2:	6f647473          	csrrci	s0,0x6f6,8
 6c6:	7475                	lui	s0,0xffffd
 6c8:	5f00                	lw	s0,56(a4)
 6ca:	745f 5f6d 6477      	0x64775f6d745f
 6d0:	7961                	lui	s2,0xffff8
 6d2:	5f00                	lw	s0,56(a4)
 6d4:	65756c67          	0x65756c67
 6d8:	5f00                	lw	s0,56(a4)
 6da:	69647473          	csrrci	s0,0x696,8
 6de:	006e                	c.slli	zero,0x1b
 6e0:	735f 6973 657a      	0x657a6973735f
 6e6:	745f 5f00 366c      	0x366c5f00745f
 6ec:	6134                	flw	fa3,64(a0)
 6ee:	625f 6675 5f00      	0x5f006675625f
 6f4:	5f676973          	csrrsi	s2,0x5f6,14
 6f8:	7566                	flw	fa0,120(sp)
 6fa:	636e                	flw	ft6,216(sp)
 6fc:	5f00                	lw	s0,56(a4)
 6fe:	705f 706f 6f63      	0x6f63706f705f
 704:	6e75                	lui	t3,0x1d
 706:	5f74                	lw	a3,124(a4)
 708:	6174                	flw	fa3,68(a0)
 70a:	0062                	c.slli	zero,0x18
 70c:	6e5f 7562 0066      	0x6675626e5f
 712:	755f 756e 6573      	0x6573756e755f
 718:	0064                	addi	s1,sp,12
 71a:	5f5f 3072 5f00      	0x5f0030725f5f
 720:	725f 0031 5f5f      	0x5f5f0031725f
 726:	6d74                	flw	fa3,92(a0)
 728:	695f 6473 7473      	0x74736473695f
 72e:	5f00                	lw	s0,56(a4)
 730:	6f6c                	flw	fa1,92(a4)
 732:	746c6163          	bltu	s8,t1,e74 <_start-0x7ffff18c>
 736:	6d69                	lui	s10,0x1a
 738:	5f65                	li	t5,-7
 73a:	7562                	flw	fa0,56(sp)
 73c:	0066                	c.slli	zero,0x19
 73e:	5f5f 6d74 6d5f      	0x6d5f6d745f5f
 744:	6e69                	lui	t3,0x1a
 746:	5f00                	lw	s0,56(a4)
 748:	3472                	fld	fs0,312(sp)
 74a:	0038                	addi	a4,sp,8
 74c:	4241                	li	tp,16
 74e:	5f49                	li	t5,-14
 750:	504c                	lw	a1,36(s0)
 752:	3436                	fld	fs0,360(sp)
 754:	0044                	addi	s1,sp,4
 756:	6f74706f          	j	4864c <_start-0x7ffb79b4>
 75a:	7470                	flw	fa2,108(s0)
 75c:	4100                	lw	s0,0(a0)
 75e:	4942                	lw	s2,16(sp)
 760:	4c5f 3650 4634      	0x463436504c5f
 766:	5f00                	lw	s0,56(a4)
 768:	626d                	lui	tp,0x1b
 76a:	6f74                	flw	fa3,92(a4)
 76c:	735f6377          	0x735f6377
 770:	6174                	flw	fa3,68(a0)
 772:	6574                	flw	fa3,76(a0)
 774:	5f00                	lw	s0,56(a4)
 776:	3570                	fld	fa2,232(a0)
 778:	6c5f0073          	0x6c5f0073
 77c:	6c61636f          	jal	t1,16e42 <_start-0x7ffe91be>
 780:	0065                	c.nop	25
 782:	5155                	li	sp,-11
 784:	7449                	lui	s0,0xffff2
 786:	7079                	c.lui	zero,0xffffe
 788:	0065                	c.nop	25
 78a:	5f5f 6273 6675      	0x667562735f5f
 790:	5f00                	lw	s0,56(a4)
 792:	745f 5f6d 646d      	0x646d5f6d745f
 798:	7961                	lui	s2,0xffff8
 79a:	5f00                	lw	s0,56(a4)
 79c:	6172                	flw	ft2,28(sp)
 79e:	646e                	flw	fs0,216(sp)
 7a0:	6e5f 7865 0074      	0x7478656e5f
 7a6:	7468                	flw	fa0,108(s0)
 7a8:	6261                	lui	tp,0x18
 7aa:	655f 0071 5f5f      	0x5f5f0071655f
 7b0:	6d75                	lui	s10,0x1d
 7b2:	6964646f          	jal	s0,46e48 <_start-0x7ffb91b8>
 7b6:	          	add	zero,zero,zero

Disassembly of section .debug_loc:

00000000 <.debug_loc>:
	...
       8:	0006                	c.slli	zero,0x1
       a:	935a                	add	t1,t1,s6
       c:	5b04                	lw	s1,48(a4)
       e:	00000493          	li	s1,0
      12:	0000                	unimp
      14:	0000                	unimp
      16:	0000                	unimp
      18:	0006                	c.slli	zero,0x1
      1a:	0af503f3          	0xaf503f3
      1e:	9f25                	0x9f25
	...
      28:	0006                	c.slli	zero,0x1
      2a:	935a                	add	t1,t1,s6
      2c:	5b04                	lw	s1,48(a4)
      2e:	00000493          	li	s1,0
      32:	0000                	unimp
      34:	0000                	unimp
      36:	0000                	unimp
      38:	0006                	c.slli	zero,0x1
      3a:	0af503f3          	0xaf503f3
      3e:	9f25                	0x9f25
	...
      48:	0006                	c.slli	zero,0x1
      4a:	935a                	add	t1,t1,s6
      4c:	5b04                	lw	s1,48(a4)
      4e:	00000493          	li	s1,0
      52:	0000                	unimp
      54:	0000                	unimp
      56:	0000                	unimp
      58:	0006                	c.slli	zero,0x1
      5a:	0af503f3          	0xaf503f3
      5e:	9f25                	0x9f25
	...
      68:	0006                	c.slli	zero,0x1
      6a:	935a                	add	t1,t1,s6
      6c:	5b04                	lw	s1,48(a4)
      6e:	00000493          	li	s1,0
      72:	0000                	unimp
      74:	0000                	unimp
      76:	0000                	unimp
      78:	0006                	c.slli	zero,0x1
      7a:	0af503f3          	0xaf503f3
      7e:	9f25                	0x9f25
	...
      88:	0006                	c.slli	zero,0x1
      8a:	935a                	add	t1,t1,s6
      8c:	5b04                	lw	s1,48(a4)
      8e:	00000493          	li	s1,0
      92:	0000                	unimp
      94:	0000                	unimp
      96:	0000                	unimp
      98:	0006                	c.slli	zero,0x1
      9a:	0af503f3          	0xaf503f3
      9e:	9f25                	0x9f25
	...
      a8:	0006                	c.slli	zero,0x1
      aa:	935a                	add	t1,t1,s6
      ac:	5b04                	lw	s1,48(a4)
      ae:	00000493          	li	s1,0
	...
      be:	0000                	unimp
      c0:	0006                	c.slli	zero,0x1
      c2:	935c                	0x935c
      c4:	5d04                	lw	s1,56(a0)
      c6:	00000493          	li	s1,0
      ca:	0000                	unimp
      cc:	0000                	unimp
      ce:	0000                	unimp
      d0:	0006                	c.slli	zero,0x1
      d2:	0cf503f3          	0xcf503f3
      d6:	9f25                	0x9f25
	...
      e0:	0006                	c.slli	zero,0x1
      e2:	935c                	0x935c
      e4:	5d04                	lw	s1,56(a0)
      e6:	00000493          	li	s1,0
      ea:	0000                	unimp
      ec:	0000                	unimp
      ee:	0000                	unimp
      f0:	0006                	c.slli	zero,0x1
      f2:	0cf503f3          	0xcf503f3
      f6:	9f25                	0x9f25
	...
     100:	0006                	c.slli	zero,0x1
     102:	935c                	0x935c
     104:	5d04                	lw	s1,56(a0)
     106:	00000493          	li	s1,0
     10a:	0000                	unimp
     10c:	0000                	unimp
     10e:	0000                	unimp
     110:	0006                	c.slli	zero,0x1
     112:	0cf503f3          	0xcf503f3
     116:	9f25                	0x9f25
	...
     120:	0006                	c.slli	zero,0x1
     122:	935c                	0x935c
     124:	5d04                	lw	s1,56(a0)
     126:	00000493          	li	s1,0
     12a:	0000                	unimp
     12c:	0000                	unimp
     12e:	0000                	unimp
     130:	0006                	c.slli	zero,0x1
     132:	0cf503f3          	0xcf503f3
     136:	9f25                	0x9f25
	...
     140:	0006                	c.slli	zero,0x1
     142:	935c                	0x935c
     144:	5d04                	lw	s1,56(a0)
     146:	00000493          	li	s1,0
	...
     156:	0000                	unimp
     158:	0002                	c.slli64	zero
     15a:	9f30                	0x9f30
	...
     164:	0002                	c.slli64	zero
     166:	9f30                	0x9f30
	...
     178:	0006                	c.slli	zero,0x1
     17a:	935c                	0x935c
     17c:	5d04                	lw	s1,56(a0)
     17e:	00000493          	li	s1,0
     182:	0000                	unimp
     184:	0000                	unimp
     186:	0000                	unimp
     188:	0006                	c.slli	zero,0x1
     18a:	935c                	0x935c
     18c:	6104                	flw	fs1,0(a0)
     18e:	00000493          	li	s1,0
     192:	0000                	unimp
     194:	0000                	unimp
     196:	0000                	unimp
     198:	0006                	c.slli	zero,0x1
     19a:	935c                	0x935c
     19c:	6104                	flw	fs1,0(a0)
     19e:	00000493          	li	s1,0
     1a2:	0000                	unimp
     1a4:	0000                	unimp
     1a6:	0000                	unimp
     1a8:	0006                	c.slli	zero,0x1
     1aa:	935c                	0x935c
     1ac:	5d04                	lw	s1,56(a0)
     1ae:	00000493          	li	s1,0
     1b2:	0000                	unimp
     1b4:	0000                	unimp
     1b6:	0000                	unimp
     1b8:	0006                	c.slli	zero,0x1
     1ba:	935c                	0x935c
     1bc:	6104                	flw	fs1,0(a0)
     1be:	00000493          	li	s1,0
     1c2:	0000                	unimp
     1c4:	0000                	unimp
     1c6:	0000                	unimp
     1c8:	0006                	c.slli	zero,0x1
     1ca:	935c                	0x935c
     1cc:	6104                	flw	fs1,0(a0)
     1ce:	00000493          	li	s1,0
     1d2:	0000                	unimp
     1d4:	0000                	unimp
     1d6:	0000                	unimp
     1d8:	0006                	c.slli	zero,0x1
     1da:	935c                	0x935c
     1dc:	5d04                	lw	s1,56(a0)
     1de:	00000493          	li	s1,0
     1e2:	0000                	unimp
     1e4:	0000                	unimp
     1e6:	0000                	unimp
     1e8:	0006                	c.slli	zero,0x1
     1ea:	935c                	0x935c
     1ec:	6104                	flw	fs1,0(a0)
     1ee:	00000493          	li	s1,0
     1f2:	0000                	unimp
     1f4:	0000                	unimp
     1f6:	0000                	unimp
     1f8:	0006                	c.slli	zero,0x1
     1fa:	935c                	0x935c
     1fc:	5d04                	lw	s1,56(a0)
     1fe:	00000493          	li	s1,0
	...
     20e:	0000                	unimp
     210:	0006                	c.slli	zero,0x1
     212:	935a                	add	t1,t1,s6
     214:	5b04                	lw	s1,48(a4)
     216:	00000493          	li	s1,0
     21a:	0000                	unimp
     21c:	0000                	unimp
     21e:	0000                	unimp
     220:	0006                	c.slli	zero,0x1
     222:	9356                	add	t1,t1,s5
     224:	5b04                	lw	s1,48(a4)
     226:	00000493          	li	s1,0
     22a:	0000                	unimp
     22c:	0000                	unimp
     22e:	0000                	unimp
     230:	0006                	c.slli	zero,0x1
     232:	9356                	add	t1,t1,s5
     234:	5b04                	lw	s1,48(a4)
     236:	00000493          	li	s1,0
     23a:	0000                	unimp
     23c:	0000                	unimp
     23e:	0000                	unimp
     240:	0006                	c.slli	zero,0x1
     242:	9356                	add	t1,t1,s5
     244:	5f04                	lw	s1,56(a4)
     246:	00000493          	li	s1,0
     24a:	0000                	unimp
     24c:	0000                	unimp
     24e:	0000                	unimp
     250:	0006                	c.slli	zero,0x1
     252:	935a                	add	t1,t1,s6
     254:	5f04                	lw	s1,56(a4)
     256:	00000493          	li	s1,0
     25a:	0000                	unimp
     25c:	0000                	unimp
     25e:	0000                	unimp
     260:	0006                	c.slli	zero,0x1
     262:	9356                	add	t1,t1,s5
     264:	5b04                	lw	s1,48(a4)
     266:	00000493          	li	s1,0
     26a:	0000                	unimp
     26c:	0000                	unimp
     26e:	0000                	unimp
     270:	0006                	c.slli	zero,0x1
     272:	9356                	add	t1,t1,s5
     274:	5f04                	lw	s1,56(a4)
     276:	00000493          	li	s1,0
     27a:	0000                	unimp
     27c:	0000                	unimp
     27e:	0000                	unimp
     280:	0006                	c.slli	zero,0x1
     282:	9356                	add	t1,t1,s5
     284:	5b04                	lw	s1,48(a4)
     286:	00000493          	li	s1,0
     28a:	0000                	unimp
     28c:	0000                	unimp
     28e:	0000                	unimp
     290:	0006                	c.slli	zero,0x1
     292:	9356                	add	t1,t1,s5
     294:	5f04                	lw	s1,56(a4)
     296:	00000493          	li	s1,0
     29a:	0000                	unimp
     29c:	0000                	unimp
     29e:	0000                	unimp
     2a0:	0006                	c.slli	zero,0x1
     2a2:	9356                	add	t1,t1,s5
     2a4:	5b04                	lw	s1,48(a4)
     2a6:	00000493          	li	s1,0
     2aa:	0000                	unimp
     2ac:	0000                	unimp
     2ae:	0000                	unimp
     2b0:	0006                	c.slli	zero,0x1
     2b2:	9356                	add	t1,t1,s5
     2b4:	5f04                	lw	s1,56(a4)
     2b6:	00000493          	li	s1,0
	...
     2c6:	0000                	unimp
     2c8:	0001                	nop
     2ca:	005c                	addi	a5,sp,4
     2cc:	0000                	unimp
     2ce:	0000                	unimp
     2d0:	0000                	unimp
     2d2:	0900                	addi	s0,sp,144
     2d4:	7c00                	flw	fs0,56(s0)
     2d6:	7e00                	flw	fs0,56(a2)
     2d8:	0800                	addi	s0,sp,16
     2da:	1aff                	0x1aff
     2dc:	9f24                	0x9f24
	...
     2e6:	0001                	nop
     2e8:	0060                	addi	s0,sp,12
     2ea:	0000                	unimp
     2ec:	0000                	unimp
     2ee:	0000                	unimp
     2f0:	0100                	addi	s0,sp,128
     2f2:	5c00                	lw	s0,56(s0)
	...
     2fc:	f731000b          	0xf731000b
     300:	7c2c                	flw	fa1,120(s0)
     302:	f700                	fsw	fs0,40(a4)
     304:	1b2c                	addi	a1,sp,440
     306:	009f00f7          	0x9f00f7
     30a:	0000                	unimp
     30c:	0000                	unimp
     30e:	0000                	unimp
     310:	0100                	addi	s0,sp,128
     312:	6000                	flw	fs0,0(s0)
	...
     31c:	0001                	nop
     31e:	0060                	addi	s0,sp,12
     320:	0000                	unimp
     322:	0000                	unimp
     324:	0000                	unimp
     326:	0900                	addi	s0,sp,144
     328:	8000                	0x8000
     32a:	7e00                	flw	fs0,56(a2)
     32c:	0800                	addi	s0,sp,16
     32e:	1aff                	0x1aff
     330:	9f24                	0x9f24
	...
     33a:	0001                	nop
     33c:	0060                	addi	s0,sp,12
     33e:	0000                	unimp
     340:	0000                	unimp
     342:	0000                	unimp
     344:	0100                	addi	s0,sp,128
     346:	5c00                	lw	s0,56(s0)
	...
     350:	0001                	nop
     352:	005c                	addi	a5,sp,4
	...
     360:	0000                	unimp
     362:	0100                	addi	s0,sp,128
     364:	5d00                	lw	s0,56(a0)
	...
     36e:	0001                	nop
     370:	0061                	c.nop	24
     372:	0000                	unimp
     374:	0000                	unimp
     376:	0000                	unimp
     378:	0100                	addi	s0,sp,128
     37a:	6100                	flw	fs0,0(a0)
	...
     384:	0001                	nop
     386:	005d                	c.nop	23
     388:	0000                	unimp
     38a:	0000                	unimp
     38c:	0000                	unimp
     38e:	0100                	addi	s0,sp,128
     390:	6100                	flw	fs0,0(a0)
	...
     39a:	0001                	nop
     39c:	0061                	c.nop	24
     39e:	0000                	unimp
     3a0:	0000                	unimp
     3a2:	0000                	unimp
     3a4:	0100                	addi	s0,sp,128
     3a6:	5d00                	lw	s0,56(a0)
	...
     3b0:	0001                	nop
     3b2:	0061                	c.nop	24
     3b4:	0000                	unimp
     3b6:	0000                	unimp
     3b8:	0000                	unimp
     3ba:	0100                	addi	s0,sp,128
     3bc:	5d00                	lw	s0,56(a0)
	...
     3c6:	0001                	nop
     3c8:	005d                	c.nop	23
	...
     3d6:	0000                	unimp
     3d8:	0100                	addi	s0,sp,128
     3da:	5a00                	lw	s0,48(a2)
	...
     3e4:	0001                	nop
     3e6:	0056                	c.slli	zero,0x15
     3e8:	0000                	unimp
     3ea:	0000                	unimp
     3ec:	0000                	unimp
     3ee:	0100                	addi	s0,sp,128
     3f0:	5600                	lw	s0,40(a2)
	...
     3fa:	0001                	nop
     3fc:	0056                	c.slli	zero,0x15
     3fe:	0000                	unimp
     400:	0000                	unimp
     402:	0000                	unimp
     404:	0100                	addi	s0,sp,128
     406:	5a00                	lw	s0,48(a2)
	...
     410:	0001                	nop
     412:	0056                	c.slli	zero,0x15
     414:	0000                	unimp
     416:	0000                	unimp
     418:	0000                	unimp
     41a:	0100                	addi	s0,sp,128
     41c:	5a00                	lw	s0,48(a2)
	...
     426:	0006                	c.slli	zero,0x1
     428:	007a                	c.slli	zero,0x1e
     42a:	9f24007b          	0x9f24007b
	...
     436:	0001                	nop
     438:	0056                	c.slli	zero,0x15
	...
     446:	0000                	unimp
     448:	0100                	addi	s0,sp,128
     44a:	5b00                	lw	s0,48(a4)
	...
     454:	0001                	nop
     456:	0000005b          	0x5b
     45a:	0000                	unimp
     45c:	0000                	unimp
     45e:	0100                	addi	s0,sp,128
     460:	5f00                	lw	s0,56(a4)
	...
     46a:	0001                	nop
     46c:	0000005b          	0x5b
     470:	0000                	unimp
     472:	0000                	unimp
     474:	0100                	addi	s0,sp,128
     476:	5f00                	lw	s0,56(a4)
	...
     480:	0001                	nop
     482:	0061                	c.nop	24
     484:	0000                	unimp
     486:	0000                	unimp
     488:	0000                	unimp
     48a:	0100                	addi	s0,sp,128
     48c:	5f00                	lw	s0,56(a4)
	...
     496:	0001                	nop
     498:	0000005b          	0x5b
     49c:	0000                	unimp
     49e:	0000                	unimp
     4a0:	0100                	addi	s0,sp,128
     4a2:	5f00                	lw	s0,56(a4)
	...
     4ac:	0001                	nop
     4ae:	0000005b          	0x5b
     4b2:	0000                	unimp
     4b4:	0000                	unimp
     4b6:	0100                	addi	s0,sp,128
     4b8:	5f00                	lw	s0,56(a4)
	...
     4c2:	0001                	nop
     4c4:	0056                	c.slli	zero,0x15
     4c6:	0000                	unimp
     4c8:	0000                	unimp
     4ca:	0000                	unimp
     4cc:	0100                	addi	s0,sp,128
     4ce:	5f00                	lw	s0,56(a4)
	...
     4d8:	0001                	nop
     4da:	0000005b          	0x5b
     4de:	0000                	unimp
     4e0:	0000                	unimp
     4e2:	0100                	addi	s0,sp,128
     4e4:	5f00                	lw	s0,56(a4)
	...
     4f6:	0001                	nop
     4f8:	0000005b          	0x5b
     4fc:	0000                	unimp
     4fe:	0000                	unimp
     500:	0100                	addi	s0,sp,128
     502:	5e00                	lw	s0,56(a2)
	...
     514:	0001                	nop
     516:	005e                	c.slli	zero,0x17
     518:	0000                	unimp
     51a:	0000                	unimp
     51c:	0000                	unimp
     51e:	0100                	addi	s0,sp,128
     520:	5e00                	lw	s0,56(a2)
	...
     532:	0002                	c.slli64	zero
     534:	9f31                	0x9f31
	...
     53e:	0001                	nop
     540:	0000005b          	0x5b
     544:	0000                	unimp
     546:	0000                	unimp
     548:	0100                	addi	s0,sp,128
     54a:	5b00                	lw	s0,48(a4)
	...
     55c:	0001                	nop
     55e:	005d                	c.nop	23
     560:	0000                	unimp
     562:	0000                	unimp
     564:	0000                	unimp
     566:	0100                	addi	s0,sp,128
     568:	6000                	flw	fs0,0(s0)
	...
     57a:	0001                	nop
     57c:	005e                	c.slli	zero,0x17
     57e:	0000                	unimp
     580:	0000                	unimp
     582:	0000                	unimp
     584:	0100                	addi	s0,sp,128
     586:	5e00                	lw	s0,56(a2)
	...
     590:	0001                	nop
     592:	005e                	c.slli	zero,0x17
     594:	0000                	unimp
     596:	0000                	unimp
     598:	0000                	unimp
     59a:	0100                	addi	s0,sp,128
     59c:	5b00                	lw	s0,48(a4)
	...
     5a6:	0001                	nop
     5a8:	0000005b          	0x5b
	...
     5b8:	0100                	addi	s0,sp,128
     5ba:	5c00                	lw	s0,56(s0)
	...
     5c4:	0009                	c.nop	2
     5c6:	007c                	addi	a5,sp,12
     5c8:	007e                	c.slli	zero,0x1f
     5ca:	ff08                	fsw	fa0,56(a4)
     5cc:	241a                	fld	fs0,384(sp)
     5ce:	009f 0000 0000      	0x9f
     5d4:	0000                	unimp
     5d6:	0100                	addi	s0,sp,128
     5d8:	6000                	flw	fs0,0(s0)
	...
     5e2:	0001                	nop
     5e4:	005c                	addi	a5,sp,4
	...
     5f2:	0000                	unimp
     5f4:	0100                	addi	s0,sp,128
     5f6:	5d00                	lw	s0,56(a0)
	...
     608:	0001                	nop
     60a:	005a                	c.slli	zero,0x16
     60c:	0000                	unimp
     60e:	0000                	unimp
     610:	0000                	unimp
     612:	0500                	addi	s0,sp,640
     614:	8000                	0x8000
     616:	4000                	lw	s0,0(s0)
     618:	9f25                	0x9f25
	...
     62a:	0001                	nop
     62c:	005c                	addi	a5,sp,4
	...
     63a:	0000                	unimp
     63c:	0100                	addi	s0,sp,128
     63e:	5b00                	lw	s0,48(a4)
	...
     648:	0001                	nop
     64a:	005e                	c.slli	zero,0x17
	...
     658:	0000                	unimp
     65a:	0100                	addi	s0,sp,128
     65c:	5d00                	lw	s0,56(a0)
	...
     666:	0001                	nop
     668:	005a                	c.slli	zero,0x16
	...
     676:	0000                	unimp
     678:	0100                	addi	s0,sp,128
     67a:	5e00                	lw	s0,56(a2)
	...
     684:	0001                	nop
     686:	005d                	c.nop	23
     688:	0000                	unimp
     68a:	0000                	unimp
     68c:	0000                	unimp
     68e:	0100                	addi	s0,sp,128
     690:	5d00                	lw	s0,56(a0)
	...
     6a2:	0001                	nop
     6a4:	005f 0000 0000      	0x5f
     6aa:	0000                	unimp
     6ac:	0100                	addi	s0,sp,128
     6ae:	5600                	lw	s0,40(a2)
	...
     6c0:	0001                	nop
     6c2:	005f 0000 0000      	0x5f
     6c8:	0000                	unimp
     6ca:	0600                	addi	s0,sp,768
     6cc:	7c00                	flw	fs0,56(s0)
     6ce:	7b00                	flw	fs0,48(a4)
     6d0:	1e00                	addi	s0,sp,816
     6d2:	009f 0000 0000      	0x9f
     6d8:	0000                	unimp
     6da:	0100                	addi	s0,sp,128
     6dc:	5b00                	lw	s0,48(a4)
	...
     6ee:	0001                	nop
     6f0:	0061                	c.nop	24
	...
     6fe:	0000                	unimp
     700:	1000                	addi	s0,sp,32
     702:	8c00                	0x8c00
     704:	0a00                	addi	s0,sp,272
     706:	ffff                	0xffff
     708:	7d1a                	flw	fs10,164(sp)
     70a:	0a00                	addi	s0,sp,272
     70c:	ffff                	0xffff
     70e:	401a                	0x401a
     710:	2224                	fld	fs1,64(a2)
     712:	009f 0000 0000      	0x9f
     718:	0000                	unimp
     71a:	1500                	addi	s0,sp,672
     71c:	8c00                	0x8c00
     71e:	0a00                	addi	s0,sp,272
     720:	ffff                	0xffff
     722:	8c1a                	mv	s8,t1
     724:	4000                	lw	s0,0(s0)
     726:	7625                	lui	a2,0xfffe9
     728:	2200                	fld	fs0,0(a2)
     72a:	ff0a                	fsw	ft2,188(sp)
     72c:	1aff                	0x1aff
     72e:	2440                	fld	fs0,136(s0)
     730:	9f22                	add	t5,t5,s0
	...
     742:	0001                	nop
     744:	006d                	c.nop	27
     746:	0000                	unimp
     748:	0000                	unimp
     74a:	0000                	unimp
     74c:	0500                	addi	s0,sp,640
     74e:	7d00                	flw	fs0,56(a0)
     750:	4000                	lw	s0,0(s0)
     752:	9f25                	0x9f25
	...
     764:	0001                	nop
     766:	005f 0000 0000      	0x5f
     76c:	0000                	unimp
     76e:	0700                	addi	s0,sp,896
     770:	7d00                	flw	fs0,56(a0)
     772:	4000                	lw	s0,0(s0)
     774:	4024                	lw	s1,64(s0)
     776:	9f25                	0x9f25
	...
     788:	0001                	nop
     78a:	005e                	c.slli	zero,0x17
     78c:	0000                	unimp
     78e:	0000                	unimp
     790:	0000                	unimp
     792:	0100                	addi	s0,sp,128
     794:	6c00                	flw	fs0,24(s0)
	...
     7a6:	0001                	nop
     7a8:	0060                	addi	s0,sp,12
     7aa:	0000                	unimp
     7ac:	0000                	unimp
     7ae:	0000                	unimp
     7b0:	0100                	addi	s0,sp,128
     7b2:	5e00                	lw	s0,56(a2)
	...
     7c4:	0001                	nop
     7c6:	0061                	c.nop	24
     7c8:	0000                	unimp
     7ca:	0000                	unimp
     7cc:	0000                	unimp
     7ce:	0100                	addi	s0,sp,128
     7d0:	6000                	flw	fs0,0(s0)
	...
     7da:	0008                	0x8
     7dc:	0076                	c.slli	zero,0x1d
     7de:	2540                	fld	fs0,136(a0)
     7e0:	0081                	addi	ra,ra,0
     7e2:	9f21                	0x9f21
	...
     7ec:	0001                	nop
     7ee:	0060                	addi	s0,sp,12
	...
     7fc:	0000                	unimp
     7fe:	0100                	addi	s0,sp,128
     800:	6100                	flw	fs0,0(a0)
	...
     80a:	0001                	nop
     80c:	005f 0000 0000      	0x5f
     812:	0000                	unimp
     814:	0a00                	addi	s0,sp,272
     816:	7600                	flw	fs0,40(a2)
     818:	4000                	lw	s0,0(s0)
     81a:	4024                	lw	s1,64(s0)
     81c:	8125                	srli	a0,a0,0x9
     81e:	2100                	fld	fs0,0(a0)
     820:	009f 0000 0000      	0x9f
     826:	0000                	unimp
     828:	0100                	addi	s0,sp,128
     82a:	5f00                	lw	s0,56(a4)
	...
     83c:	0001                	nop
     83e:	006e                	c.slli	zero,0x1b
     840:	0000                	unimp
     842:	0000                	unimp
     844:	0000                	unimp
     846:	0100                	addi	s0,sp,128
     848:	6d00                	flw	fs0,24(a0)
	...
     852:	000a                	c.slli	zero,0x2
     854:	007d                	c.nop	31
     856:	2440                	fld	fs0,136(s0)
     858:	2540                	fld	fs0,136(a0)
     85a:	0080                	addi	s0,sp,64
     85c:	9f1e                	add	t5,t5,t2
	...
     86e:	0001                	nop
     870:	006c                	addi	a1,sp,12
	...
     87e:	0000                	unimp
     880:	0600                	addi	s0,sp,768
     882:	7600                	flw	fs0,40(a2)
     884:	7c00                	flw	fs0,56(s0)
     886:	1e00                	addi	s0,sp,816
     888:	009f 0000 0000      	0x9f
     88e:	0000                	unimp
     890:	0100                	addi	s0,sp,128
     892:	5600                	lw	s0,40(a2)
	...
     89c:	0009                	c.nop	2
     89e:	7f8d                	lui	t6,0xfffe3
     8a0:	007e                	c.slli	zero,0x1f
     8a2:	7c1a                	flw	fs8,164(sp)
     8a4:	1e00                	addi	s0,sp,816
     8a6:	009f 0000 0000      	0x9f
     8ac:	0000                	unimp
     8ae:	0100                	addi	s0,sp,128
     8b0:	5d00                	lw	s0,56(a0)
	...
     8ba:	0008                	0x8
     8bc:	008c                	addi	a1,sp,64
     8be:	2540                	fld	fs0,136(a0)
     8c0:	0076                	c.slli	zero,0x1d
     8c2:	9f22                	add	t5,t5,s0
	...
     8d4:	0001                	nop
     8d6:	0060                	addi	s0,sp,12
	...
     8e4:	0000                	unimp
     8e6:	0100                	addi	s0,sp,128
     8e8:	6100                	flw	fs0,0(a0)
	...
     8fa:	0001                	nop
     8fc:	0056                	c.slli	zero,0x15
     8fe:	0000                	unimp
     900:	0000                	unimp
     902:	0000                	unimp
     904:	0600                	addi	s0,sp,768
     906:	8d00                	0x8d00
     908:	7e7f                	0x7e7f
     90a:	1a00                	addi	s0,sp,304
     90c:	009f 0000 0000      	0x9f
     912:	0000                	unimp
     914:	0600                	addi	s0,sp,768
     916:	7e00                	flw	fs0,56(a2)
     918:	7f00                	flw	fs0,56(a4)
     91a:	1a00                	addi	s0,sp,304
     91c:	009f 0000 0000      	0x9f
     922:	0000                	unimp
     924:	0600                	addi	s0,sp,768
     926:	8d00                	0x8d00
     928:	7e7f                	0x7e7f
     92a:	1a00                	addi	s0,sp,304
     92c:	009f 0000 0000      	0x9f
     932:	0000                	unimp
     934:	0600                	addi	s0,sp,768
     936:	7e00                	flw	fs0,56(a2)
     938:	8d01                	sub	a0,a0,s0
     93a:	1a7f                	0x1a7f
     93c:	009f 0000 0000      	0x9f
	...
     94a:	0000                	unimp
     94c:	0100                	addi	s0,sp,128
     94e:	6000                	flw	fs0,0(s0)
	...
     960:	0001                	nop
     962:	0061                	c.nop	24
     964:	0000                	unimp
     966:	0000                	unimp
     968:	0000                	unimp
     96a:	0500                	addi	s0,sp,640
     96c:	7e00                	flw	fs0,56(a2)
     96e:	4000                	lw	s0,0(s0)
     970:	9f25                	0x9f25
	...
     97a:	0005                	c.nop	1
     97c:	017e                	slli	sp,sp,0x1f
     97e:	2540                	fld	fs0,136(a0)
     980:	009f 0000 0000      	0x9f
	...
     98e:	0000                	unimp
     990:	0100                	addi	s0,sp,128
     992:	5c00                	lw	s0,56(s0)
	...
     9a4:	0001                	nop
     9a6:	0060                	addi	s0,sp,12
     9a8:	0000                	unimp
     9aa:	0000                	unimp
     9ac:	0000                	unimp
     9ae:	0100                	addi	s0,sp,128
     9b0:	6000                	flw	fs0,0(s0)
	...
     9ba:	0009                	c.nop	2
     9bc:	0080                	addi	s0,sp,64
     9be:	007e                	c.slli	zero,0x1f
     9c0:	ff08                	fsw	fa0,56(a4)
     9c2:	241a                	fld	fs0,384(sp)
     9c4:	009f 0000 0000      	0x9f
     9ca:	0000                	unimp
     9cc:	0100                	addi	s0,sp,128
     9ce:	6000                	flw	fs0,0(s0)
	...
     9e0:	0001                	nop
     9e2:	0061                	c.nop	24
     9e4:	0000                	unimp
     9e6:	0000                	unimp
     9e8:	0000                	unimp
     9ea:	0100                	addi	s0,sp,128
     9ec:	6100                	flw	fs0,0(a0)
	...
     9fe:	0001                	nop
     a00:	005c                	addi	a5,sp,4
	...
     a0e:	0000                	unimp
     a10:	0100                	addi	s0,sp,128
     a12:	6100                	flw	fs0,0(a0)
	...
     a1c:	00800007          	0x800007
     a20:	2440                	fld	fs0,136(s0)
     a22:	2540                	fld	fs0,136(a0)
     a24:	009f 0000 0000      	0x9f
	...
     a32:	0000                	unimp
     a34:	0100                	addi	s0,sp,128
     a36:	5f00                	lw	s0,56(a4)
	...
     a40:	0001                	nop
     a42:	005e                	c.slli	zero,0x17
	...
     a50:	0000                	unimp
     a52:	0100                	addi	s0,sp,128
     a54:	5d00                	lw	s0,56(a0)
	...
     a5e:	0001                	nop
     a60:	005a                	c.slli	zero,0x16
	...
     a6e:	0000                	unimp
     a70:	0100                	addi	s0,sp,128
     a72:	5e00                	lw	s0,56(a2)
	...
     a7c:	0001                	nop
     a7e:	005d                	c.nop	23
     a80:	0000                	unimp
     a82:	0000                	unimp
     a84:	0000                	unimp
     a86:	0100                	addi	s0,sp,128
     a88:	5d00                	lw	s0,56(a0)
	...
     a9a:	0001                	nop
     a9c:	005f 0000 0000      	0x5f
     aa2:	0000                	unimp
     aa4:	0100                	addi	s0,sp,128
     aa6:	5600                	lw	s0,40(a2)
	...
     ab8:	0001                	nop
     aba:	005a                	c.slli	zero,0x16
     abc:	0000                	unimp
     abe:	0000                	unimp
     ac0:	0000                	unimp
     ac2:	0100                	addi	s0,sp,128
     ac4:	6100                	flw	fs0,0(a0)
	...
     ad6:	0001                	nop
     ad8:	005a                	c.slli	zero,0x16
	...
     ae6:	0000                	unimp
     ae8:	0100                	addi	s0,sp,128
     aea:	5f00                	lw	s0,56(a4)
	...
     af4:	00800007          	0x800007
     af8:	2440                	fld	fs0,136(s0)
     afa:	2540                	fld	fs0,136(a0)
     afc:	009f 0000 0000      	0x9f
	...
     b0a:	0000                	unimp
     b0c:	0100                	addi	s0,sp,128
     b0e:	5b00                	lw	s0,48(a4)
	...
     b18:	0001                	nop
     b1a:	005c                	addi	a5,sp,4
	...
     b28:	0000                	unimp
     b2a:	0100                	addi	s0,sp,128
     b2c:	5d00                	lw	s0,56(a0)
	...
     b36:	0001                	nop
     b38:	005e                	c.slli	zero,0x17
	...
     b46:	0000                	unimp
     b48:	0100                	addi	s0,sp,128
     b4a:	5e00                	lw	s0,56(a2)
	...
     b54:	0001                	nop
     b56:	005e                	c.slli	zero,0x17
     b58:	0000                	unimp
     b5a:	0000                	unimp
     b5c:	0000                	unimp
     b5e:	0100                	addi	s0,sp,128
     b60:	5e00                	lw	s0,56(a2)
	...
     b6a:	0001                	nop
     b6c:	005d                	c.nop	23
	...
     b7a:	0000                	unimp
     b7c:	0100                	addi	s0,sp,128
     b7e:	5e00                	lw	s0,56(a2)
	...
     b88:	0001                	nop
     b8a:	005f 0000 0000      	0x5f
     b90:	0000                	unimp
     b92:	0100                	addi	s0,sp,128
     b94:	5f00                	lw	s0,56(a4)
	...
     ba6:	0001                	nop
     ba8:	005d                	c.nop	23
     baa:	0000                	unimp
     bac:	0000                	unimp
     bae:	0000                	unimp
     bb0:	0600                	addi	s0,sp,768
     bb2:	7f00                	flw	fs0,56(a4)
     bb4:	7b00                	flw	fs0,48(a4)
     bb6:	1e00                	addi	s0,sp,816
     bb8:	009f 0000 0000      	0x9f
     bbe:	0000                	unimp
     bc0:	0100                	addi	s0,sp,128
     bc2:	5b00                	lw	s0,48(a4)
	...
     bcc:	000a                	c.slli	zero,0x2
     bce:	0080                	addi	s0,sp,64
     bd0:	2440                	fld	fs0,136(s0)
     bd2:	2540                	fld	fs0,136(a0)
     bd4:	007d                	c.nop	31
     bd6:	9f1e                	add	t5,t5,t2
	...
     be8:	0001                	nop
     bea:	005d                	c.nop	23
     bec:	0000                	unimp
     bee:	0000                	unimp
     bf0:	0000                	unimp
     bf2:	0100                	addi	s0,sp,128
     bf4:	6100                	flw	fs0,0(a0)
	...
     c06:	0001                	nop
     c08:	005e                	c.slli	zero,0x17
     c0a:	0000                	unimp
     c0c:	0000                	unimp
     c0e:	0000                	unimp
     c10:	0100                	addi	s0,sp,128
     c12:	5e00                	lw	s0,56(a2)
	...
     c24:	0006                	c.slli	zero,0x1
     c26:	935a                	add	t1,t1,s6
     c28:	5b04                	lw	s1,48(a4)
     c2a:	00000493          	li	s1,0
     c2e:	0000                	unimp
     c30:	0000                	unimp
     c32:	0000                	unimp
     c34:	0006                	c.slli	zero,0x1
     c36:	0af503f3          	0xaf503f3
     c3a:	9f25                	0x9f25
	...
     c44:	0006                	c.slli	zero,0x1
     c46:	935a                	add	t1,t1,s6
     c48:	5b04                	lw	s1,48(a4)
     c4a:	00000493          	li	s1,0
     c4e:	0000                	unimp
     c50:	0000                	unimp
     c52:	0000                	unimp
     c54:	0006                	c.slli	zero,0x1
     c56:	0af503f3          	0xaf503f3
     c5a:	9f25                	0x9f25
	...
     c64:	0006                	c.slli	zero,0x1
     c66:	935a                	add	t1,t1,s6
     c68:	5b04                	lw	s1,48(a4)
     c6a:	00000493          	li	s1,0
     c6e:	0000                	unimp
     c70:	0000                	unimp
     c72:	0000                	unimp
     c74:	0006                	c.slli	zero,0x1
     c76:	0af503f3          	0xaf503f3
     c7a:	9f25                	0x9f25
	...
     c84:	0006                	c.slli	zero,0x1
     c86:	935a                	add	t1,t1,s6
     c88:	5b04                	lw	s1,48(a4)
     c8a:	00000493          	li	s1,0
     c8e:	0000                	unimp
     c90:	0000                	unimp
     c92:	0000                	unimp
     c94:	0006                	c.slli	zero,0x1
     c96:	0af503f3          	0xaf503f3
     c9a:	9f25                	0x9f25
	...
     ca4:	0006                	c.slli	zero,0x1
     ca6:	935a                	add	t1,t1,s6
     ca8:	5b04                	lw	s1,48(a4)
     caa:	00000493          	li	s1,0
     cae:	0000                	unimp
     cb0:	0000                	unimp
     cb2:	0000                	unimp
     cb4:	0006                	c.slli	zero,0x1
     cb6:	0af503f3          	0xaf503f3
     cba:	9f25                	0x9f25
	...
     ccc:	0006                	c.slli	zero,0x1
     cce:	935c                	0x935c
     cd0:	5d04                	lw	s1,56(a0)
     cd2:	00000493          	li	s1,0
     cd6:	0000                	unimp
     cd8:	0000                	unimp
     cda:	0000                	unimp
     cdc:	0006                	c.slli	zero,0x1
     cde:	0cf503f3          	0xcf503f3
     ce2:	9f25                	0x9f25
	...
     cec:	0006                	c.slli	zero,0x1
     cee:	935c                	0x935c
     cf0:	5d04                	lw	s1,56(a0)
     cf2:	00000493          	li	s1,0
     cf6:	0000                	unimp
     cf8:	0000                	unimp
     cfa:	0000                	unimp
     cfc:	0006                	c.slli	zero,0x1
     cfe:	0cf503f3          	0xcf503f3
     d02:	9f25                	0x9f25
	...
     d0c:	0006                	c.slli	zero,0x1
     d0e:	935c                	0x935c
     d10:	5d04                	lw	s1,56(a0)
     d12:	00000493          	li	s1,0
     d16:	0000                	unimp
     d18:	0000                	unimp
     d1a:	0000                	unimp
     d1c:	0006                	c.slli	zero,0x1
     d1e:	0cf503f3          	0xcf503f3
     d22:	9f25                	0x9f25
	...
     d34:	0006                	c.slli	zero,0x1
     d36:	935f 6004 0493      	0x4936004935f
	...
     d4c:	0006                	c.slli	zero,0x1
     d4e:	19f2                	slli	s3,s3,0x3c
     d50:	001e                	c.slli	zero,0x7
	...
     d5a:	0000                	unimp
     d5c:	0006                	c.slli	zero,0x1
     d5e:	19f2                	slli	s3,s3,0x3c
     d60:	001e                	c.slli	zero,0x7
	...
     d72:	0000                	unimp
     d74:	0006                	c.slli	zero,0x1
     d76:	935c                	0x935c
     d78:	5d04                	lw	s1,56(a0)
     d7a:	00000493          	li	s1,0
     d7e:	0000                	unimp
     d80:	0000                	unimp
     d82:	0000                	unimp
     d84:	0006                	c.slli	zero,0x1
     d86:	935c                	0x935c
     d88:	5e04                	lw	s1,56(a2)
     d8a:	00000493          	li	s1,0
     d8e:	0000                	unimp
     d90:	0000                	unimp
     d92:	0000                	unimp
     d94:	0006                	c.slli	zero,0x1
     d96:	935c                	0x935c
     d98:	5e04                	lw	s1,56(a2)
     d9a:	00000493          	li	s1,0
     d9e:	0000                	unimp
     da0:	0000                	unimp
     da2:	0000                	unimp
     da4:	0006                	c.slli	zero,0x1
     da6:	935c                	0x935c
     da8:	5e04                	lw	s1,56(a2)
     daa:	00000493          	li	s1,0
     dae:	0000                	unimp
     db0:	0000                	unimp
     db2:	0000                	unimp
     db4:	0006                	c.slli	zero,0x1
     db6:	9361                	srli	a4,a4,0x38
     db8:	5e04                	lw	s1,56(a2)
     dba:	00000493          	li	s1,0
     dbe:	0000                	unimp
     dc0:	0000                	unimp
     dc2:	0000                	unimp
     dc4:	0006                	c.slli	zero,0x1
     dc6:	935c                	0x935c
     dc8:	5d04                	lw	s1,56(a0)
     dca:	00000493          	li	s1,0
	...
     dda:	0000                	unimp
     ddc:	0006                	c.slli	zero,0x1
     dde:	935a                	add	t1,t1,s6
     de0:	5b04                	lw	s1,48(a4)
     de2:	00000493          	li	s1,0
     de6:	0000                	unimp
     de8:	0000                	unimp
     dea:	0000                	unimp
     dec:	0006                	c.slli	zero,0x1
     dee:	935a                	add	t1,t1,s6
     df0:	6004                	flw	fs1,0(s0)
     df2:	00000493          	li	s1,0
     df6:	0000                	unimp
     df8:	0000                	unimp
     dfa:	0000                	unimp
     dfc:	0006                	c.slli	zero,0x1
     dfe:	935a                	add	t1,t1,s6
     e00:	5b04                	lw	s1,48(a4)
     e02:	00000493          	li	s1,0
     e06:	0000                	unimp
     e08:	0000                	unimp
     e0a:	0000                	unimp
     e0c:	0006                	c.slli	zero,0x1
     e0e:	935a                	add	t1,t1,s6
     e10:	5b04                	lw	s1,48(a4)
     e12:	00000493          	li	s1,0
     e16:	0000                	unimp
     e18:	0000                	unimp
     e1a:	0000                	unimp
     e1c:	0006                	c.slli	zero,0x1
     e1e:	935a                	add	t1,t1,s6
     e20:	5b04                	lw	s1,48(a4)
     e22:	00000493          	li	s1,0
     e26:	0000                	unimp
     e28:	0000                	unimp
     e2a:	0000                	unimp
     e2c:	0006                	c.slli	zero,0x1
     e2e:	935a                	add	t1,t1,s6
     e30:	6004                	flw	fs1,0(s0)
     e32:	00000493          	li	s1,0
     e36:	0000                	unimp
     e38:	0000                	unimp
     e3a:	0000                	unimp
     e3c:	0006                	c.slli	zero,0x1
     e3e:	935a                	add	t1,t1,s6
     e40:	5b04                	lw	s1,48(a4)
     e42:	00000493          	li	s1,0
	...
     e52:	0000                	unimp
     e54:	0001                	nop
     e56:	005c                	addi	a5,sp,4
     e58:	0000                	unimp
     e5a:	0000                	unimp
     e5c:	0000                	unimp
     e5e:	0100                	addi	s0,sp,128
     e60:	6100                	flw	fs0,0(a0)
	...
     e6a:	0001                	nop
     e6c:	005c                	addi	a5,sp,4
     e6e:	0000                	unimp
     e70:	0000                	unimp
     e72:	0000                	unimp
     e74:	0100                	addi	s0,sp,128
     e76:	6100                	flw	fs0,0(a0)
	...
     e80:	0001                	nop
     e82:	005c                	addi	a5,sp,4
	...
     e90:	0000                	unimp
     e92:	0100                	addi	s0,sp,128
     e94:	5d00                	lw	s0,56(a0)
	...
     e9e:	0001                	nop
     ea0:	005e                	c.slli	zero,0x17
     ea2:	0000                	unimp
     ea4:	0000                	unimp
     ea6:	0000                	unimp
     ea8:	0100                	addi	s0,sp,128
     eaa:	5e00                	lw	s0,56(a2)
	...
     eb4:	0001                	nop
     eb6:	005e                	c.slli	zero,0x17
     eb8:	0000                	unimp
     eba:	0000                	unimp
     ebc:	0000                	unimp
     ebe:	0100                	addi	s0,sp,128
     ec0:	5e00                	lw	s0,56(a2)
	...
     eca:	0001                	nop
     ecc:	005d                	c.nop	23
     ece:	0000                	unimp
     ed0:	0000                	unimp
     ed2:	0000                	unimp
     ed4:	0100                	addi	s0,sp,128
     ed6:	5d00                	lw	s0,56(a0)
	...
     ee8:	0001                	nop
     eea:	005a                	c.slli	zero,0x16
     eec:	0000                	unimp
     eee:	0000                	unimp
     ef0:	0000                	unimp
     ef2:	0100                	addi	s0,sp,128
     ef4:	5f00                	lw	s0,56(a4)
	...
     efe:	0001                	nop
     f00:	005f 0000 0000      	0x5f
     f06:	0000                	unimp
     f08:	0100                	addi	s0,sp,128
     f0a:	5a00                	lw	s0,48(a2)
	...
     f14:	0001                	nop
     f16:	005f 0000 0000      	0x5f
     f1c:	0000                	unimp
     f1e:	0100                	addi	s0,sp,128
     f20:	5a00                	lw	s0,48(a2)
	...
     f2a:	0001                	nop
     f2c:	005a                	c.slli	zero,0x16
     f2e:	0000                	unimp
     f30:	0000                	unimp
     f32:	0000                	unimp
     f34:	0100                	addi	s0,sp,128
     f36:	5f00                	lw	s0,56(a4)
	...
     f40:	0001                	nop
     f42:	005a                	c.slli	zero,0x16
     f44:	0000                	unimp
     f46:	0000                	unimp
     f48:	0000                	unimp
     f4a:	0100                	addi	s0,sp,128
     f4c:	5e00                	lw	s0,56(a2)
	...
     f5e:	0001                	nop
     f60:	0000005b          	0x5b
     f64:	0000                	unimp
     f66:	0000                	unimp
     f68:	0100                	addi	s0,sp,128
     f6a:	6000                	flw	fs0,0(s0)
	...
     f74:	0001                	nop
     f76:	0000005b          	0x5b
     f7a:	0000                	unimp
     f7c:	0000                	unimp
     f7e:	0100                	addi	s0,sp,128
     f80:	5b00                	lw	s0,48(a4)
	...
     f8a:	0001                	nop
     f8c:	0060                	addi	s0,sp,12
     f8e:	0000                	unimp
     f90:	0000                	unimp
     f92:	0000                	unimp
     f94:	0100                	addi	s0,sp,128
     f96:	6c00                	flw	fs0,24(s0)
	...
     fa0:	0001                	nop
     fa2:	0000005b          	0x5b
     fa6:	0000                	unimp
     fa8:	0000                	unimp
     faa:	0100                	addi	s0,sp,128
     fac:	6000                	flw	fs0,0(s0)
	...
     fb6:	0001                	nop
     fb8:	0000005b          	0x5b
     fbc:	0000                	unimp
     fbe:	0000                	unimp
     fc0:	0100                	addi	s0,sp,128
     fc2:	5f00                	lw	s0,56(a4)
	...
     fcc:	0001                	nop
     fce:	0000005b          	0x5b
     fd2:	0000                	unimp
     fd4:	0000                	unimp
     fd6:	0100                	addi	s0,sp,128
     fd8:	5b00                	lw	s0,48(a4)
	...
     fea:	0001                	nop
     fec:	005e                	c.slli	zero,0x17
     fee:	0000                	unimp
     ff0:	0000                	unimp
     ff2:	0000                	unimp
     ff4:	0100                	addi	s0,sp,128
     ff6:	5e00                	lw	s0,56(a2)
	...
    1008:	0002                	c.slli64	zero
    100a:	9f31                	0x9f31
	...
    101c:	0002                	c.slli64	zero
    101e:	9f30                	0x9f30
	...
    1028:	0002                	c.slli64	zero
    102a:	9f30                	0x9f30
	...
    103c:	0001                	nop
    103e:	006c                	addi	a1,sp,12
    1040:	0000                	unimp
    1042:	0000                	unimp
    1044:	0000                	unimp
    1046:	0100                	addi	s0,sp,128
    1048:	6d00                	flw	fs0,24(a0)
	...
    105a:	0001                	nop
    105c:	0056                	c.slli	zero,0x15
    105e:	0000                	unimp
    1060:	0000                	unimp
    1062:	0000                	unimp
    1064:	0100                	addi	s0,sp,128
    1066:	5600                	lw	s0,40(a2)
	...
    1070:	0001                	nop
    1072:	0056                	c.slli	zero,0x15
    1074:	0000                	unimp
    1076:	0000                	unimp
    1078:	0000                	unimp
    107a:	0100                	addi	s0,sp,128
    107c:	6c00                	flw	fs0,24(s0)
	...
    1086:	0001                	nop
    1088:	006c                	addi	a1,sp,12
	...
    1096:	0000                	unimp
    1098:	0100                	addi	s0,sp,128
    109a:	5c00                	lw	s0,56(s0)
	...
    10a4:	0001                	nop
    10a6:	005c                	addi	a5,sp,4
	...
    10b4:	0000                	unimp
    10b6:	0100                	addi	s0,sp,128
    10b8:	5e00                	lw	s0,56(a2)
	...
    10ca:	0001                	nop
    10cc:	005c                	addi	a5,sp,4
	...
    10da:	0000                	unimp
    10dc:	0100                	addi	s0,sp,128
    10de:	5a00                	lw	s0,48(a2)
	...
    10e8:	00810007          	0x810007
    10ec:	2440                	fld	fs0,136(s0)
    10ee:	2540                	fld	fs0,136(a0)
    10f0:	009f 0000 0000      	0x9f
	...
    10fe:	0000                	unimp
    1100:	0100                	addi	s0,sp,128
    1102:	5d00                	lw	s0,56(a0)
	...
    1114:	0001                	nop
    1116:	005e                	c.slli	zero,0x17
    1118:	0000                	unimp
    111a:	0000                	unimp
    111c:	0000                	unimp
    111e:	0100                	addi	s0,sp,128
    1120:	5d00                	lw	s0,56(a0)
	...
    1132:	0001                	nop
    1134:	005e                	c.slli	zero,0x17
    1136:	0000                	unimp
    1138:	0000                	unimp
    113a:	0000                	unimp
    113c:	0100                	addi	s0,sp,128
    113e:	5f00                	lw	s0,56(a4)
	...
    1150:	0001                	nop
    1152:	0060                	addi	s0,sp,12
    1154:	0000                	unimp
    1156:	0000                	unimp
    1158:	0000                	unimp
    115a:	0100                	addi	s0,sp,128
    115c:	5d00                	lw	s0,56(a0)
	...
    116e:	0001                	nop
    1170:	0061                	c.nop	24
    1172:	0000                	unimp
    1174:	0000                	unimp
    1176:	0000                	unimp
    1178:	0100                	addi	s0,sp,128
    117a:	6100                	flw	fs0,0(a0)
	...
    118c:	0001                	nop
    118e:	005e                	c.slli	zero,0x17
    1190:	0000                	unimp
    1192:	0000                	unimp
    1194:	0000                	unimp
    1196:	0100                	addi	s0,sp,128
    1198:	5e00                	lw	s0,56(a2)
	...
    11aa:	0001                	nop
    11ac:	005e                	c.slli	zero,0x17
	...
    11ba:	0000                	unimp
    11bc:	0100                	addi	s0,sp,128
    11be:	5a00                	lw	s0,48(a2)
	...
    11c8:	00810007          	0x810007
    11cc:	2440                	fld	fs0,136(s0)
    11ce:	2540                	fld	fs0,136(a0)
    11d0:	009f 0000 0000      	0x9f
	...
    11de:	0000                	unimp
    11e0:	0100                	addi	s0,sp,128
    11e2:	5b00                	lw	s0,48(a4)
	...
    11f4:	0001                	nop
    11f6:	0000005b          	0x5b
	...
    1206:	0100                	addi	s0,sp,128
    1208:	5d00                	lw	s0,56(a0)
	...
    1212:	0001                	nop
    1214:	005d                	c.nop	23
    1216:	0000                	unimp
    1218:	0000                	unimp
    121a:	0000                	unimp
    121c:	0100                	addi	s0,sp,128
    121e:	5b00                	lw	s0,48(a4)
	...
    1230:	0001                	nop
    1232:	005d                	c.nop	23
    1234:	0000                	unimp
    1236:	0000                	unimp
    1238:	0000                	unimp
    123a:	0100                	addi	s0,sp,128
    123c:	5f00                	lw	s0,56(a4)
	...
    124e:	0001                	nop
    1250:	0000005b          	0x5b
    1254:	0000                	unimp
    1256:	0000                	unimp
    1258:	0100                	addi	s0,sp,128
    125a:	5b00                	lw	s0,48(a4)
	...
    126c:	0001                	nop
    126e:	005a                	c.slli	zero,0x16
	...
    127c:	0000                	unimp
    127e:	0100                	addi	s0,sp,128
    1280:	5b00                	lw	s0,48(a4)
	...
    128a:	00810007          	0x810007
    128e:	2440                	fld	fs0,136(s0)
    1290:	2540                	fld	fs0,136(a0)
    1292:	009f 0000 0000      	0x9f
	...
    12a0:	0000                	unimp
    12a2:	0100                	addi	s0,sp,128
    12a4:	5e00                	lw	s0,56(a2)
	...
    12b6:	0001                	nop
    12b8:	005c                	addi	a5,sp,4
	...
    12c6:	0000                	unimp
    12c8:	0100                	addi	s0,sp,128
    12ca:	5d00                	lw	s0,56(a0)
	...
    12d4:	0001                	nop
    12d6:	005d                	c.nop	23
    12d8:	0000                	unimp
    12da:	0000                	unimp
    12dc:	0000                	unimp
    12de:	0100                	addi	s0,sp,128
    12e0:	5c00                	lw	s0,56(s0)
	...
    12f2:	0001                	nop
    12f4:	005d                	c.nop	23
    12f6:	0000                	unimp
    12f8:	0000                	unimp
    12fa:	0000                	unimp
    12fc:	0100                	addi	s0,sp,128
    12fe:	5b00                	lw	s0,48(a4)
	...
    1310:	0001                	nop
    1312:	005e                	c.slli	zero,0x17
    1314:	0000                	unimp
    1316:	0000                	unimp
    1318:	0000                	unimp
    131a:	0100                	addi	s0,sp,128
    131c:	5c00                	lw	s0,56(s0)
	...
    132e:	0001                	nop
    1330:	005d                	c.nop	23
	...
    133e:	0000                	unimp
    1340:	0100                	addi	s0,sp,128
    1342:	5e00                	lw	s0,56(a2)
	...
    134c:	0001                	nop
    134e:	005e                	c.slli	zero,0x17
	...
    135c:	0000                	unimp
    135e:	0100                	addi	s0,sp,128
    1360:	5f00                	lw	s0,56(a4)
	...
    1372:	0001                	nop
    1374:	0056                	c.slli	zero,0x15
	...
    1382:	0000                	unimp
    1384:	0100                	addi	s0,sp,128
    1386:	5e00                	lw	s0,56(a2)
	...
    1390:	0001                	nop
    1392:	005c                	addi	a5,sp,4
    1394:	0000                	unimp
    1396:	0000                	unimp
    1398:	0000                	unimp
    139a:	0100                	addi	s0,sp,128
    139c:	5e00                	lw	s0,56(a2)
	...
    13ae:	0001                	nop
    13b0:	0060                	addi	s0,sp,12
    13b2:	0000                	unimp
    13b4:	0000                	unimp
    13b6:	0000                	unimp
    13b8:	0500                	addi	s0,sp,640
    13ba:	7d00                	flw	fs0,56(a0)
    13bc:	4000                	lw	s0,0(s0)
    13be:	9f25                	0x9f25
	...
    13d0:	0001                	nop
    13d2:	0000005b          	0x5b
    13d6:	0000                	unimp
    13d8:	0000                	unimp
    13da:	0700                	addi	s0,sp,896
    13dc:	7d00                	flw	fs0,56(a0)
    13de:	4000                	lw	s0,0(s0)
    13e0:	4024                	lw	s1,64(s0)
    13e2:	9f25                	0x9f25
	...
    13f4:	0001                	nop
    13f6:	005e                	c.slli	zero,0x17
    13f8:	0000                	unimp
    13fa:	0000                	unimp
    13fc:	0000                	unimp
    13fe:	0100                	addi	s0,sp,128
    1400:	5600                	lw	s0,40(a2)
	...
    1412:	0001                	nop
    1414:	0061                	c.nop	24
    1416:	0000                	unimp
    1418:	0000                	unimp
    141a:	0000                	unimp
    141c:	0100                	addi	s0,sp,128
    141e:	5f00                	lw	s0,56(a4)
	...
    1430:	0001                	nop
    1432:	0056                	c.slli	zero,0x15
    1434:	0000                	unimp
    1436:	0000                	unimp
    1438:	0000                	unimp
    143a:	0100                	addi	s0,sp,128
    143c:	6100                	flw	fs0,0(a0)
	...
    1446:	0001                	nop
    1448:	0061                	c.nop	24
	...
    1456:	0000                	unimp
    1458:	0100                	addi	s0,sp,128
    145a:	6e00                	flw	fs0,24(a2)
	...
    1464:	0001                	nop
    1466:	0000005b          	0x5b
    146a:	0000                	unimp
    146c:	0000                	unimp
    146e:	0100                	addi	s0,sp,128
    1470:	5b00                	lw	s0,48(a4)
	...
    1482:	0001                	nop
    1484:	006e                	c.slli	zero,0x1b
    1486:	0000                	unimp
    1488:	0000                	unimp
    148a:	0000                	unimp
    148c:	0600                	addi	s0,sp,768
    148e:	7b00                	flw	fs0,48(a4)
    1490:	7e00                	flw	fs0,56(a2)
    1492:	1e00                	addi	s0,sp,816
    1494:	009f 0000 0000      	0x9f
    149a:	0000                	unimp
    149c:	0100                	addi	s0,sp,128
    149e:	6000                	flw	fs0,0(s0)
	...
    14b0:	0001                	nop
    14b2:	005e                	c.slli	zero,0x17
	...
    14c0:	0000                	unimp
    14c2:	0100                	addi	s0,sp,128
    14c4:	6000                	flw	fs0,0(s0)
	...
    14ce:	0008                	0x8
    14d0:	007e                	c.slli	zero,0x1f
    14d2:	2540                	fld	fs0,136(a0)
    14d4:	0081                	addi	ra,ra,0
    14d6:	9f22                	add	t5,t5,s0
	...
    14e8:	0001                	nop
    14ea:	005f 0000 0000      	0x5f
	...
    14f8:	0000                	unimp
    14fa:	0100                	addi	s0,sp,128
    14fc:	5600                	lw	s0,40(a2)
	...
    150e:	0001                	nop
    1510:	0061                	c.nop	24
	...
    151e:	0000                	unimp
    1520:	0100                	addi	s0,sp,128
    1522:	5f00                	lw	s0,56(a4)
	...
    152c:	0006                	c.slli	zero,0x1
    152e:	7f8e                	flw	ft11,224(sp)
    1530:	007c                	addi	a5,sp,12
    1532:	9f1a                	add	t5,t5,t1
	...
    153c:	0006                	c.slli	zero,0x1
    153e:	007c                	addi	a5,sp,12
    1540:	007f                	0x7f
    1542:	9f1a                	add	t5,t5,t1
	...
    1554:	0001                	nop
    1556:	0056                	c.slli	zero,0x15
	...
    1564:	0000                	unimp
    1566:	0100                	addi	s0,sp,128
    1568:	5c00                	lw	s0,56(s0)
	...
    157a:	0001                	nop
    157c:	005e                	c.slli	zero,0x17
    157e:	0000                	unimp
    1580:	0000                	unimp
    1582:	0000                	unimp
	...

Disassembly of section .debug_ranges:

00000000 <.debug_ranges>:
   0:	0001                	nop
   2:	0000                	unimp
   4:	0001                	nop
   6:	0000                	unimp
   8:	0001                	nop
   a:	0000                	unimp
   c:	0001                	nop
   e:	0000                	unimp
  10:	0001                	nop
  12:	0000                	unimp
  14:	0001                	nop
  16:	0000                	unimp
  18:	0001                	nop
  1a:	0000                	unimp
  1c:	0001                	nop
	...
  26:	0000                	unimp
  28:	0001                	nop
  2a:	0000                	unimp
  2c:	0001                	nop
  2e:	0000                	unimp
  30:	0001                	nop
  32:	0000                	unimp
  34:	0001                	nop
	...
  3e:	0000                	unimp
  40:	0001                	nop
  42:	0000                	unimp
  44:	0001                	nop
  46:	0000                	unimp
  48:	0001                	nop
  4a:	0000                	unimp
  4c:	0001                	nop
	...
  56:	0000                	unimp
  58:	0001                	nop
  5a:	0000                	unimp
  5c:	0001                	nop
  5e:	0000                	unimp
  60:	0001                	nop
  62:	0000                	unimp
  64:	0001                	nop
  66:	0000                	unimp
  68:	0001                	nop
  6a:	0000                	unimp
  6c:	0001                	nop
  6e:	0000                	unimp
  70:	0001                	nop
  72:	0000                	unimp
  74:	0001                	nop
  76:	0000                	unimp
  78:	0001                	nop
  7a:	0000                	unimp
  7c:	0001                	nop
	...
  86:	0000                	unimp
  88:	0001                	nop
  8a:	0000                	unimp
  8c:	0001                	nop
  8e:	0000                	unimp
  90:	0001                	nop
  92:	0000                	unimp
  94:	0001                	nop
  96:	0000                	unimp
  98:	0001                	nop
  9a:	0000                	unimp
  9c:	0001                	nop
  9e:	0000                	unimp
  a0:	0001                	nop
  a2:	0000                	unimp
  a4:	0001                	nop
	...
  ae:	0000                	unimp
  b0:	0001                	nop
  b2:	0000                	unimp
  b4:	0001                	nop
  b6:	0000                	unimp
  b8:	0001                	nop
  ba:	0000                	unimp
  bc:	0001                	nop
	...
  c6:	0000                	unimp
  c8:	0001                	nop
  ca:	0000                	unimp
  cc:	0001                	nop
  ce:	0000                	unimp
  d0:	0001                	nop
  d2:	0000                	unimp
  d4:	0001                	nop
  d6:	0000                	unimp
  d8:	0001                	nop
  da:	0000                	unimp
  dc:	0001                	nop
	...
  e6:	0000                	unimp
  e8:	0001                	nop
  ea:	0000                	unimp
  ec:	0001                	nop
  ee:	0000                	unimp
  f0:	0001                	nop
  f2:	0000                	unimp
  f4:	0001                	nop
	...
  fe:	0000                	unimp
 100:	0001                	nop
 102:	0000                	unimp
 104:	0001                	nop
 106:	0000                	unimp
 108:	0001                	nop
 10a:	0000                	unimp
 10c:	0001                	nop
	...
 116:	0000                	unimp
 118:	0001                	nop
 11a:	0000                	unimp
 11c:	0001                	nop
 11e:	0000                	unimp
 120:	0001                	nop
 122:	0000                	unimp
 124:	0001                	nop
	...
 12e:	0000                	unimp
 130:	0001                	nop
 132:	0000                	unimp
 134:	0001                	nop
 136:	0000                	unimp
 138:	0001                	nop
 13a:	0000                	unimp
 13c:	0001                	nop
	...
 146:	0000                	unimp
 148:	0001                	nop
 14a:	0000                	unimp
 14c:	0001                	nop
 14e:	0000                	unimp
 150:	0001                	nop
 152:	0000                	unimp
 154:	0001                	nop
	...
 15e:	0000                	unimp
 160:	0001                	nop
 162:	0000                	unimp
 164:	0001                	nop
 166:	0000                	unimp
 168:	0001                	nop
 16a:	0000                	unimp
 16c:	0001                	nop
	...
 176:	0000                	unimp
 178:	0001                	nop
 17a:	0000                	unimp
 17c:	0001                	nop
 17e:	0000                	unimp
 180:	0001                	nop
 182:	0000                	unimp
 184:	0001                	nop
 186:	0000                	unimp
 188:	0001                	nop
 18a:	0000                	unimp
 18c:	0001                	nop
 18e:	0000                	unimp
 190:	0001                	nop
 192:	0000                	unimp
 194:	0001                	nop
 196:	0000                	unimp
 198:	0001                	nop
 19a:	0000                	unimp
 19c:	0001                	nop
 19e:	0000                	unimp
 1a0:	0001                	nop
 1a2:	0000                	unimp
 1a4:	0001                	nop
	...
 1ae:	0000                	unimp
 1b0:	0001                	nop
 1b2:	0000                	unimp
 1b4:	0001                	nop
 1b6:	0000                	unimp
 1b8:	0001                	nop
 1ba:	0000                	unimp
 1bc:	0001                	nop
 1be:	0000                	unimp
 1c0:	0001                	nop
 1c2:	0000                	unimp
 1c4:	0001                	nop
	...
