
/tmp/pocl_vortex_kernel-3e-a9-1d-05-03.elf:	file format ELF32-riscv


Disassembly of section .init:

80000000 _start:
80000000: 97 15 00 00                  	auipc	a1, 1
80000004: 93 85 45 87                  	addi	a1, a1, -1932
80000008: 73 25 60 02                  	csrr	a0, 38
8000000c: 6b 10 b5 00                  	<unknown>
80000010: ef 00 50 06                  	jal	2148
80000014: 13 05 10 00                  	addi	a0, zero, 1
80000018: 6b 00 05 00                  	<unknown>
8000001c: 13 85 81 c3                  	addi	a0, gp, -968
80000020: 13 86 c1 c3                  	addi	a2, gp, -964
80000024: 33 06 a6 40                  	sub	a2, a2, a0
80000028: 93 05 00 00                  	mv	a1, zero
8000002c: ef 00 d0 23                  	jal	2620
80000030: 17 15 00 00                  	auipc	a0, 1
80000034: 13 05 05 94                  	addi	a0, a0, -1728
80000038: ef 00 50 0f                  	jal	2292
8000003c: ef 00 10 19                  	jal	2448
80000040: ef 00 80 3c                  	jal	968
80000044: 6f 00 d0 0f                  	j	2300

Disassembly of section .text:

80000048 register_fini:
80000048: 93 07 00 00                  	mv	a5, zero
8000004c: 63 88 07 00                  	beqz	a5, 16
80000050: 37 15 00 80                  	lui	a0, 524289
80000054: 13 05 05 97                  	addi	a0, a0, -1680
80000058: 6f 00 50 0d                  	j	2260
8000005c: 67 80 00 00                  	ret

80000060 kernel_spawn_run_warp:
80000060: 13 01 01 fd                  	addi	sp, sp, -48
80000064: 23 26 11 02                  	sw	ra, 44(sp)
80000068: 23 24 81 02                  	sw	s0, 40(sp)
8000006c: 23 22 91 02                  	sw	s1, 36(sp)
80000070: 23 20 21 03                  	sw	s2, 32(sp)
80000074: 23 2e 31 01                  	sw	s3, 28(sp)
80000078: 23 2c 41 01                  	sw	s4, 24(sp)
8000007c: 23 2a 51 01                  	sw	s5, 20(sp)
80000080: 23 28 61 01                  	sw	s6, 16(sp)
80000084: 23 26 71 01                  	sw	s7, 12(sp)
80000088: 23 24 81 01                  	sw	s8, 8(sp)
8000008c: ef 00 90 07                  	jal	2168
80000090: ef 00 d0 02                  	jal	2092
80000094: ef 00 10 07                  	jal	2160
80000098: 83 a5 81 c3                  	lw	a1, -968(gp)
8000009c: 83 a5 05 00                  	lw	a1, 0(a1)
800000a0: 83 aa 05 00                  	lw	s5, 0(a1)
800000a4: 03 ab 45 00                  	lw	s6, 4(a1)
800000a8: 13 09 05 00                  	mv	s2, a0
800000ac: ef 00 10 03                  	jal	2096
800000b0: 93 09 05 00                  	mv	s3, a0
800000b4: ef 00 90 03                  	jal	2104
800000b8: 03 a8 81 c3                  	lw	a6, -968(gp)
800000bc: 03 27 48 01                  	lw	a4, 20(a6)
800000c0: 83 25 08 01                  	lw	a1, 16(a6)
800000c4: 93 06 07 00                  	mv	a3, a4
800000c8: 63 44 37 01                  	blt	a4, s3, 8
800000cc: 93 86 09 00                  	mv	a3, s3
800000d0: 33 a7 e9 00                  	slt	a4, s3, a4
800000d4: 33 87 e5 00                  	add	a4, a1, a4
800000d8: 93 07 10 00                  	addi	a5, zero, 1
800000dc: 63 46 f7 08                  	blt	a4, a5, 140
800000e0: 33 0a 5b 03                  	mul	s4, s6, s5
800000e4: 83 27 c8 00                  	lw	a5, 12(a6)
800000e8: 13 0c f7 ff                  	addi	s8, a4, -1
800000ec: b3 85 b9 02                  	mul	a1, s3, a1
800000f0: b3 85 b6 00                  	add	a1, a3, a1
800000f4: b3 05 b9 02                  	mul	a1, s2, a1
800000f8: b3 85 b7 00                  	add	a1, a5, a1
800000fc: 33 05 e5 02                  	mul	a0, a0, a4
80000100: b3 84 a5 00                  	add	s1, a1, a0
80000104: 33 09 60 41                  	neg	s2, s6
80000108: 33 0b 40 41                  	neg	s6, s4
8000010c: 33 c7 44 03                  	div	a4, s1, s4
80000110: 83 25 08 00                  	lw	a1, 0(a6)
80000114: 33 05 eb 02                  	mul	a0, s6, a4
80000118: 33 85 a4 00                  	add	a0, s1, a0
8000011c: b3 46 55 03                  	div	a3, a0, s5
80000120: 03 a5 c5 00                  	lw	a0, 12(a1)
80000124: b3 07 e9 02                  	mul	a5, s2, a4
80000128: b3 87 d7 40                  	sub	a5, a5, a3
8000012c: b3 87 fa 02                  	mul	a5, s5, a5
80000130: b3 08 f5 00                  	add	a7, a0, a5
80000134: 03 a4 05 01                  	lw	s0, 16(a1)
80000138: 03 a6 45 01                  	lw	a2, 20(a1)
8000013c: 83 27 48 00                  	lw	a5, 4(a6)
80000140: 03 25 88 00                  	lw	a0, 8(a6)
80000144: b3 06 d4 00                  	add	a3, s0, a3
80000148: 33 07 e6 00                  	add	a4, a2, a4
8000014c: 33 86 14 01                  	add	a2, s1, a7
80000150: e7 80 07 00                  	jalr	a5
80000154: 63 0a 0c 00                  	beqz	s8, 20
80000158: 03 a8 81 c3                  	lw	a6, -968(gp)
8000015c: 13 0c fc ff                  	addi	s8, s8, -1
80000160: 93 84 14 00                  	addi	s1, s1, 1
80000164: 6f f0 9f fa                  	j	-88
80000168: 13 b5 19 00                  	seqz	a0, s3
8000016c: 03 2c 81 00                  	lw	s8, 8(sp)
80000170: 83 2b c1 00                  	lw	s7, 12(sp)
80000174: 03 2b 01 01                  	lw	s6, 16(sp)
80000178: 83 2a 41 01                  	lw	s5, 20(sp)
8000017c: 03 2a 81 01                  	lw	s4, 24(sp)
80000180: 83 29 c1 01                  	lw	s3, 28(sp)
80000184: 03 29 01 02                  	lw	s2, 32(sp)
80000188: 83 24 41 02                  	lw	s1, 36(sp)
8000018c: 03 24 81 02                  	lw	s0, 40(sp)
80000190: 83 20 c1 02                  	lw	ra, 44(sp)
80000194: 13 01 01 03                  	addi	sp, sp, 48
80000198: 6f 00 40 72                  	j	1828

8000019c kernel_spawn_run_threads:
8000019c: 13 01 01 fe                  	addi	sp, sp, -32
800001a0: 23 2e 11 00                  	sw	ra, 28(sp)
800001a4: 23 2c 81 00                  	sw	s0, 24(sp)
800001a8: 23 2a 91 00                  	sw	s1, 20(sp)
800001ac: 23 28 21 01                  	sw	s2, 16(sp)
800001b0: 23 26 31 01                  	sw	s3, 12(sp)
800001b4: 93 89 05 00                  	mv	s3, a1
800001b8: ef 00 40 70                  	jal	1796
800001bc: 03 a5 81 c3                  	lw	a0, -968(gp)
800001c0: 03 25 05 00                  	lw	a0, 0(a0)
800001c4: 83 24 05 00                  	lw	s1, 0(a0)
800001c8: 03 25 45 00                  	lw	a0, 4(a0)
800001cc: 33 04 95 02                  	mul	s0, a0, s1
800001d0: ef 00 40 72                  	jal	1828
800001d4: 33 05 35 01                  	add	a0, a0, s3
800001d8: 03 a6 81 c3                  	lw	a2, -968(gp)
800001dc: 33 47 85 02                  	div	a4, a0, s0
800001e0: b3 05 87 02                  	mul	a1, a4, s0
800001e4: 33 05 b5 40                  	sub	a0, a0, a1
800001e8: 83 25 06 00                  	lw	a1, 0(a2)
800001ec: b3 46 95 02                  	div	a3, a0, s1
800001f0: b3 87 96 02                  	mul	a5, a3, s1
800001f4: 33 08 f5 40                  	sub	a6, a0, a5
800001f8: 83 a4 c5 00                  	lw	s1, 12(a1)
800001fc: 03 a4 05 01                  	lw	s0, 16(a1)
80000200: 83 a7 45 01                  	lw	a5, 20(a1)
80000204: 83 28 46 00                  	lw	a7, 4(a2)
80000208: 03 25 86 00                  	lw	a0, 8(a2)
8000020c: 33 06 98 00                  	add	a2, a6, s1
80000210: b3 06 d4 00                  	add	a3, s0, a3
80000214: 33 87 e7 00                  	add	a4, a5, a4
80000218: e7 80 08 00                  	jalr	a7
8000021c: 13 05 10 00                  	addi	a0, zero, 1
80000220: 83 29 c1 00                  	lw	s3, 12(sp)
80000224: 03 29 01 01                  	lw	s2, 16(sp)
80000228: 83 24 41 01                  	lw	s1, 20(sp)
8000022c: 03 24 81 01                  	lw	s0, 24(sp)
80000230: 83 20 c1 01                  	lw	ra, 28(sp)
80000234: 13 01 01 02                  	addi	sp, sp, 32
80000238: 6f 00 40 68                  	j	1668

8000023c kernel_spawn:
8000023c: 13 01 01 fc                  	addi	sp, sp, -64
80000240: 23 2e 11 02                  	sw	ra, 60(sp)
80000244: 23 2c 81 02                  	sw	s0, 56(sp)
80000248: 23 2a 91 02                  	sw	s1, 52(sp)
8000024c: 23 28 21 03                  	sw	s2, 48(sp)
80000250: 23 26 31 03                  	sw	s3, 44(sp)
80000254: 23 24 41 03                  	sw	s4, 40(sp)
80000258: 23 22 51 03                  	sw	s5, 36(sp)
8000025c: 23 20 61 03                  	sw	s6, 32(sp)
80000260: 13 0b 05 00                  	mv	s6, a0
80000264: 03 25 05 00                  	lw	a0, 0(a0)
80000268: 83 26 4b 00                  	lw	a3, 4(s6)
8000026c: 03 27 8b 00                  	lw	a4, 8(s6)
80000270: 13 09 06 00                  	mv	s2, a2
80000274: 93 89 05 00                  	mv	s3, a1
80000278: 33 85 a6 02                  	mul	a0, a3, a0
8000027c: b3 04 e5 02                  	mul	s1, a0, a4
80000280: ef 00 40 69                  	jal	1684
80000284: 13 04 05 00                  	mv	s0, a0
80000288: ef 00 40 68                  	jal	1668
8000028c: 13 0a 05 00                  	mv	s4, a0
80000290: ef 00 40 67                  	jal	1652
80000294: 93 0a 05 00                  	mv	s5, a0
80000298: ef 00 40 66                  	jal	1636
8000029c: b3 85 4a 03                  	mul	a1, s5, s4
800002a0: 13 06 10 00                  	addi	a2, zero, 1
800002a4: 63 c8 95 00                  	blt	a1, s1, 16
800002a8: 63 5a 86 00                  	bge	a2, s0, 20
800002ac: 63 4c c5 00                  	blt	a0, a2, 24
800002b0: 6f 00 00 13                  	j	304
800002b4: 33 c6 b4 02                  	div	a2, s1, a1
800002b8: e3 4a 86 fe                  	blt	a2, s0, -12
800002bc: 13 06 04 00                  	mv	a2, s0
800002c0: 63 50 c5 12                  	bge	a0, a2, 288
800002c4: 93 06 f4 ff                  	addi	a3, s0, -1
800002c8: b3 c5 c4 02                  	div	a1, s1, a2
800002cc: 63 0e d5 00                  	beq	a0, a3, 28
800002d0: 13 06 00 00                  	mv	a2, zero
800002d4: b3 06 b6 00                  	add	a3, a2, a1
800002d8: 33 c6 56 03                  	div	a2, a3, s5
800002dc: 13 07 00 00                  	mv	a4, zero
800002e0: 63 50 46 03                  	bge	a2, s4, 32
800002e4: 6f 00 00 02                  	j	32
800002e8: 33 86 c5 02                  	mul	a2, a1, a2
800002ec: 33 86 c4 40                  	sub	a2, s1, a2
800002f0: b3 06 b6 00                  	add	a3, a2, a1
800002f4: 33 c6 56 03                  	div	a2, a3, s5
800002f8: 13 07 00 00                  	mv	a4, zero
800002fc: 63 44 46 01                  	blt	a2, s4, 8
80000300: 33 47 46 03                  	div	a4, a2, s4
80000304: 93 07 00 00                  	mv	a5, zero
80000308: b3 0a 56 03                  	mul	s5, a2, s5
8000030c: 93 04 10 00                  	addi	s1, zero, 1
80000310: 63 08 07 00                  	beqz	a4, 16
80000314: b3 07 47 03                  	mul	a5, a4, s4
80000318: b3 07 f6 40                  	sub	a5, a2, a5
8000031c: 93 04 07 00                  	mv	s1, a4
80000320: 33 84 56 41                  	sub	s0, a3, s5
80000324: 23 24 61 01                  	sw	s6, 8(sp)
80000328: 23 26 31 01                  	sw	s3, 12(sp)
8000032c: 23 28 21 01                  	sw	s2, 16(sp)
80000330: 33 85 a5 02                  	mul	a0, a1, a0
80000334: 23 2a a1 00                  	sw	a0, 20(sp)
80000338: 23 2c 91 00                  	sw	s1, 24(sp)
8000033c: 23 2e f1 00                  	sw	a5, 28(sp)
80000340: 93 05 81 00                  	addi	a1, sp, 8
80000344: 93 06 20 00                  	addi	a3, zero, 2
80000348: 23 ac b1 c2                  	sw	a1, -968(gp)
8000034c: 63 40 d6 02                  	blt	a2, a3, 32
80000350: 63 44 46 01                  	blt	a2, s4, 8
80000354: 13 06 0a 00                  	mv	a2, s4
80000358: 37 05 00 80                  	lui	a0, 524288
8000035c: 93 05 05 06                  	addi	a1, a0, 96
80000360: 13 05 06 00                  	mv	a0, a2
80000364: ef 00 00 55                  	jal	1360
80000368: ef f0 9f cf                  	jal	-776
8000036c: 63 0a 04 06                  	beqz	s0, 116
80000370: 13 05 04 00                  	mv	a0, s0
80000374: ef 00 80 54                  	jal	1352
80000378: 03 a5 81 c3                  	lw	a0, -968(gp)
8000037c: 03 25 05 00                  	lw	a0, 0(a0)
80000380: 83 24 05 00                  	lw	s1, 0(a0)
80000384: 03 25 45 00                  	lw	a0, 4(a0)
80000388: 33 04 95 02                  	mul	s0, a0, s1
8000038c: ef 00 80 56                  	jal	1384
80000390: 33 05 55 01                  	add	a0, a0, s5
80000394: 03 a6 81 c3                  	lw	a2, -968(gp)
80000398: 33 47 85 02                  	div	a4, a0, s0
8000039c: b3 05 87 02                  	mul	a1, a4, s0
800003a0: 33 05 b5 40                  	sub	a0, a0, a1
800003a4: 83 25 06 00                  	lw	a1, 0(a2)
800003a8: b3 46 95 02                  	div	a3, a0, s1
800003ac: b3 87 96 02                  	mul	a5, a3, s1
800003b0: 33 08 f5 40                  	sub	a6, a0, a5
800003b4: 83 a4 c5 00                  	lw	s1, 12(a1)
800003b8: 03 a4 05 01                  	lw	s0, 16(a1)
800003bc: 83 a7 45 01                  	lw	a5, 20(a1)
800003c0: 83 28 46 00                  	lw	a7, 4(a2)
800003c4: 03 25 86 00                  	lw	a0, 8(a2)
800003c8: 33 06 98 00                  	add	a2, a6, s1
800003cc: b3 06 d4 00                  	add	a3, s0, a3
800003d0: 33 87 e7 00                  	add	a4, a5, a4
800003d4: e7 80 08 00                  	jalr	a7
800003d8: 13 05 10 00                  	addi	a0, zero, 1
800003dc: ef 00 00 4e                  	jal	1248
800003e0: 03 2b 01 02                  	lw	s6, 32(sp)
800003e4: 83 2a 41 02                  	lw	s5, 36(sp)
800003e8: 03 2a 81 02                  	lw	s4, 40(sp)
800003ec: 83 29 c1 02                  	lw	s3, 44(sp)
800003f0: 03 29 01 03                  	lw	s2, 48(sp)
800003f4: 83 24 41 03                  	lw	s1, 52(sp)
800003f8: 03 24 81 03                  	lw	s0, 56(sp)
800003fc: 83 20 c1 03                  	lw	ra, 60(sp)
80000400: 13 01 01 04                  	addi	sp, sp, 64
80000404: 67 80 00 00                  	ret

80000408 main:
80000408: 13 01 01 ff                  	addi	sp, sp, -16
8000040c: 23 26 11 00                  	sw	ra, 12(sp)
80000410: 37 05 00 80                  	lui	a0, 524288
80000414: 93 05 05 5a                  	addi	a1, a0, 1440
80000418: 37 05 ff 7f                  	lui	a0, 524272
8000041c: 13 06 45 03                  	addi	a2, a0, 52
80000420: 37 05 ff 7f                  	lui	a0, 524272
80000424: ef f0 9f e1                  	jal	-488
80000428: 13 05 00 00                  	mv	a0, zero
8000042c: 83 20 c1 00                  	lw	ra, 12(sp)
80000430: 13 01 01 01                  	addi	sp, sp, 16
80000434: 67 80 00 00                  	ret

80000438 _pocl_kernel_sgemm:
80000438: 13 01 01 fe                  	addi	sp, sp, -32
8000043c: 23 2e 11 00                  	sw	ra, 28(sp)
80000440: 23 2c 81 00                  	sw	s0, 24(sp)
80000444: 23 2a 91 00                  	sw	s1, 20(sp)
80000448: 23 28 21 01                  	sw	s2, 16(sp)
8000044c: 23 26 31 01                  	sw	s3, 12(sp)
80000450: 23 24 41 01                  	sw	s4, 8(sp)
80000454: 23 22 51 01                  	sw	s5, 4(sp)
80000458: 23 20 61 01                  	sw	s6, 0(sp)
8000045c: 13 04 01 02                  	addi	s0, sp, 32
80000460: 13 71 c1 ff                  	andi	sp, sp, -4
80000464: 93 08 00 00                  	mv	a7, zero
80000468: 83 22 87 01                  	lw	t0, 24(a4)
8000046c: 03 23 c7 01                  	lw	t1, 28(a4)
80000470: 83 24 c7 00                  	lw	s1, 12(a4)
80000474: 83 23 07 02                  	lw	t2, 32(a4)
80000478: 03 27 07 01                  	lw	a4, 16(a4)
8000047c: b3 87 f2 02                  	mul	a5, t0, a5
80000480: 33 89 f4 00                  	add	s2, s1, a5
80000484: b3 07 03 03                  	mul	a5, t1, a6
80000488: b3 0e f7 00                  	add	t4, a4, a5
8000048c: 33 87 d6 03                  	mul	a4, a3, t4
80000490: b3 07 e9 00                  	add	a5, s2, a4
80000494: 93 97 27 00                  	slli	a5, a5, 2
80000498: 33 08 f6 00                  	add	a6, a2, a5
8000049c: 13 17 27 00                  	slli	a4, a4, 2
800004a0: 33 8e e5 00                  	add	t3, a1, a4
800004a4: b7 15 00 80                  	lui	a1, 524289
800004a8: 93 85 45 43                  	addi	a1, a1, 1076
800004ac: 07 a0 05 00                  	flw	ft0, 0(a1)
800004b0: 93 15 29 00                  	slli	a1, s2, 2
800004b4: 33 0f b5 00                  	add	t5, a0, a1
800004b8: 93 95 26 00                  	slli	a1, a3, 2
800004bc: 6f 00 c0 00                  	j	12
800004c0: 93 88 18 00                  	addi	a7, a7, 1
800004c4: 63 f8 78 0a                  	bgeu	a7, t2, 176
800004c8: 63 5e d0 06                  	blez	a3, 124
800004cc: 93 0f 00 00                  	mv	t6, zero
800004d0: 93 09 0e 00                  	mv	s3, t3
800004d4: 93 07 00 00                  	mv	a5, zero
800004d8: 33 85 fe 01                  	add	a0, t4, t6
800004dc: 33 0a d5 02                  	mul	s4, a0, a3
800004e0: 13 0b 0f 00                  	mv	s6, t5
800004e4: b3 0a f9 00                  	add	s5, s2, a5
800004e8: 13 07 0b 00                  	mv	a4, s6
800004ec: 13 85 09 00                  	mv	a0, s3
800004f0: 93 84 06 00                  	mv	s1, a3
800004f4: d3 00 00 20                  	fmv.s	ft1, ft0
800004f8: 07 21 07 00                  	flw	ft2, 0(a4)
800004fc: 87 21 05 00                  	flw	ft3, 0(a0)
80000500: 53 71 31 10                  	fmul.s	ft2, ft2, ft3
80000504: d3 70 11 00                  	fadd.s	ft1, ft2, ft1
80000508: 93 84 f4 ff                  	addi	s1, s1, -1
8000050c: 13 05 45 00                  	addi	a0, a0, 4
80000510: 33 07 b7 00                  	add	a4, a4, a1
80000514: e3 92 04 fe                  	bnez	s1, -28
80000518: 33 85 4a 01                  	add	a0, s5, s4
8000051c: 13 15 25 00                  	slli	a0, a0, 2
80000520: 33 05 a6 00                  	add	a0, a2, a0
80000524: 27 20 15 00                  	fsw	ft1, 0(a0)
80000528: 93 87 17 00                  	addi	a5, a5, 1
8000052c: 13 0b 4b 00                  	addi	s6, s6, 4
80000530: e3 ea 57 fa                  	bltu	a5, t0, -76
80000534: 93 8f 1f 00                  	addi	t6, t6, 1
80000538: b3 89 b9 00                  	add	s3, s3, a1
8000053c: e3 ec 6f f8                  	bltu	t6, t1, -104
80000540: 6f f0 1f f8                  	j	-128
80000544: 13 05 00 00                  	mv	a0, zero
80000548: 93 04 08 00                  	mv	s1, a6
8000054c: 93 07 00 00                  	mv	a5, zero
80000550: 13 87 04 00                  	mv	a4, s1
80000554: 23 20 07 00                  	sw	zero, 0(a4)
80000558: 93 87 17 00                  	addi	a5, a5, 1
8000055c: 13 07 47 00                  	addi	a4, a4, 4
80000560: e3 ea 57 fe                  	bltu	a5, t0, -12
80000564: 13 05 15 00                  	addi	a0, a0, 1
80000568: b3 84 b4 00                  	add	s1, s1, a1
8000056c: e3 60 65 fe                  	bltu	a0, t1, -32
80000570: 6f f0 1f f5                  	j	-176
80000574: 13 01 04 fe                  	addi	sp, s0, -32
80000578: 03 2b 01 00                  	lw	s6, 0(sp)
8000057c: 83 2a 41 00                  	lw	s5, 4(sp)
80000580: 03 2a 81 00                  	lw	s4, 8(sp)
80000584: 83 29 c1 00                  	lw	s3, 12(sp)
80000588: 03 29 01 01                  	lw	s2, 16(sp)
8000058c: 83 24 41 01                  	lw	s1, 20(sp)
80000590: 03 24 81 01                  	lw	s0, 24(sp)
80000594: 83 20 c1 01                  	lw	ra, 28(sp)
80000598: 13 01 01 02                  	addi	sp, sp, 32
8000059c: 67 80 00 00                  	ret

800005a0 _pocl_kernel_sgemm_workgroup:
800005a0: 13 01 01 fe                  	addi	sp, sp, -32
800005a4: 23 2e 81 00                  	sw	s0, 28(sp)
800005a8: 23 2c 91 00                  	sw	s1, 24(sp)
800005ac: 23 2a 21 01                  	sw	s2, 20(sp)
800005b0: 23 28 31 01                  	sw	s3, 16(sp)
800005b4: 23 26 41 01                  	sw	s4, 12(sp)
800005b8: 23 24 51 01                  	sw	s5, 8(sp)
800005bc: 13 08 00 00                  	mv	a6, zero
800005c0: 03 27 05 00                  	lw	a4, 0(a0)
800005c4: 83 27 45 00                  	lw	a5, 4(a0)
800005c8: 83 24 85 00                  	lw	s1, 8(a0)
800005cc: 03 25 c5 00                  	lw	a0, 12(a0)
800005d0: 03 27 07 00                  	lw	a4, 0(a4)
800005d4: 83 a7 07 00                  	lw	a5, 0(a5)
800005d8: 83 af 04 00                  	lw	t6, 0(s1)
800005dc: 83 29 05 00                  	lw	s3, 0(a0)
800005e0: 03 aa 85 01                  	lw	s4, 24(a1)
800005e4: 83 a8 c5 01                  	lw	a7, 28(a1)
800005e8: 03 a5 c5 00                  	lw	a0, 12(a1)
800005ec: 83 a2 05 02                  	lw	t0, 32(a1)
800005f0: 83 a5 05 01                  	lw	a1, 16(a1)
800005f4: 33 06 ca 02                  	mul	a2, s4, a2
800005f8: 33 09 c5 00                  	add	s2, a0, a2
800005fc: 33 85 d8 02                  	mul	a0, a7, a3
80000600: 33 8e a5 00                  	add	t3, a1, a0
80000604: 33 85 c9 03                  	mul	a0, s3, t3
80000608: b3 05 a9 00                  	add	a1, s2, a0
8000060c: 93 95 25 00                  	slli	a1, a1, 2
80000610: 33 83 bf 00                  	add	t1, t6, a1
80000614: 13 15 25 00                  	slli	a0, a0, 2
80000618: b3 83 a7 00                  	add	t2, a5, a0
8000061c: 37 15 00 80                  	lui	a0, 524289
80000620: 13 05 85 43                  	addi	a0, a0, 1080
80000624: 07 20 05 00                  	flw	ft0, 0(a0)
80000628: 13 15 29 00                  	slli	a0, s2, 2
8000062c: b3 0e a7 00                  	add	t4, a4, a0
80000630: 13 96 29 00                  	slli	a2, s3, 2
80000634: 6f 00 c0 00                  	j	12
80000638: 13 08 18 00                  	addi	a6, a6, 1
8000063c: 63 78 58 0a                  	bgeu	a6, t0, 176
80000640: 63 5e 30 07                  	blez	s3, 124
80000644: 13 0f 00 00                  	mv	t5, zero
80000648: 93 8a 03 00                  	mv	s5, t2
8000064c: 13 05 00 00                  	mv	a0, zero
80000650: b3 05 ee 01                  	add	a1, t3, t5
80000654: 33 84 35 03                  	mul	s0, a1, s3
80000658: 93 87 0e 00                  	mv	a5, t4
8000065c: b3 05 a9 00                  	add	a1, s2, a0
80000660: 93 84 07 00                  	mv	s1, a5
80000664: 93 86 0a 00                  	mv	a3, s5
80000668: 13 87 09 00                  	mv	a4, s3
8000066c: d3 00 00 20                  	fmv.s	ft1, ft0
80000670: 07 a1 04 00                  	flw	ft2, 0(s1)
80000674: 87 a1 06 00                  	flw	ft3, 0(a3)
80000678: 53 71 31 10                  	fmul.s	ft2, ft2, ft3
8000067c: d3 70 11 00                  	fadd.s	ft1, ft2, ft1
80000680: 13 07 f7 ff                  	addi	a4, a4, -1
80000684: 93 86 46 00                  	addi	a3, a3, 4
80000688: b3 84 c4 00                  	add	s1, s1, a2
8000068c: e3 12 07 fe                  	bnez	a4, -28
80000690: b3 85 85 00                  	add	a1, a1, s0
80000694: 93 95 25 00                  	slli	a1, a1, 2
80000698: b3 85 bf 00                  	add	a1, t6, a1
8000069c: 27 a0 15 00                  	fsw	ft1, 0(a1)
800006a0: 13 05 15 00                  	addi	a0, a0, 1
800006a4: 93 87 47 00                  	addi	a5, a5, 4
800006a8: e3 6a 45 fb                  	bltu	a0, s4, -76
800006ac: 13 0f 1f 00                  	addi	t5, t5, 1
800006b0: b3 8a ca 00                  	add	s5, s5, a2
800006b4: e3 6c 1f f9                  	bltu	t5, a7, -104
800006b8: 6f f0 1f f8                  	j	-128
800006bc: 13 05 00 00                  	mv	a0, zero
800006c0: 93 06 03 00                  	mv	a3, t1
800006c4: 93 05 00 00                  	mv	a1, zero
800006c8: 13 87 06 00                  	mv	a4, a3
800006cc: 23 20 07 00                  	sw	zero, 0(a4)
800006d0: 93 85 15 00                  	addi	a1, a1, 1
800006d4: 13 07 47 00                  	addi	a4, a4, 4
800006d8: e3 ea 45 ff                  	bltu	a1, s4, -12
800006dc: 13 05 15 00                  	addi	a0, a0, 1
800006e0: b3 86 c6 00                  	add	a3, a3, a2
800006e4: e3 60 15 ff                  	bltu	a0, a7, -32
800006e8: 6f f0 1f f5                  	j	-176
800006ec: 83 2a 81 00                  	lw	s5, 8(sp)
800006f0: 03 2a c1 00                  	lw	s4, 12(sp)
800006f4: 83 29 01 01                  	lw	s3, 16(sp)
800006f8: 03 29 41 01                  	lw	s2, 20(sp)
800006fc: 83 24 81 01                  	lw	s1, 24(sp)
80000700: 03 24 c1 01                  	lw	s0, 28(sp)
80000704: 13 01 01 02                  	addi	sp, sp, 32
80000708: 67 80 00 00                  	ret

8000070c _pocl_kernel_sgemm_workgroup_fast:
8000070c: 13 01 01 fe                  	addi	sp, sp, -32
80000710: 23 2e 81 00                  	sw	s0, 28(sp)
80000714: 23 2c 91 00                  	sw	s1, 24(sp)
80000718: 23 2a 21 01                  	sw	s2, 20(sp)
8000071c: 23 28 31 01                  	sw	s3, 16(sp)
80000720: 23 26 41 01                  	sw	s4, 12(sp)
80000724: 23 24 51 01                  	sw	s5, 8(sp)
80000728: 13 08 00 00                  	mv	a6, zero
8000072c: 03 27 c5 00                  	lw	a4, 12(a0)
80000730: 83 27 05 00                  	lw	a5, 0(a0)
80000734: 83 24 45 00                  	lw	s1, 4(a0)
80000738: 83 2f 85 00                  	lw	t6, 8(a0)
8000073c: 83 29 07 00                  	lw	s3, 0(a4)
80000740: 03 aa 85 01                  	lw	s4, 24(a1)
80000744: 83 a8 c5 01                  	lw	a7, 28(a1)
80000748: 03 a5 c5 00                  	lw	a0, 12(a1)
8000074c: 83 a2 05 02                  	lw	t0, 32(a1)
80000750: 83 a5 05 01                  	lw	a1, 16(a1)
80000754: 33 06 ca 02                  	mul	a2, s4, a2
80000758: 33 09 c5 00                  	add	s2, a0, a2
8000075c: 33 85 d8 02                  	mul	a0, a7, a3
80000760: 33 8e a5 00                  	add	t3, a1, a0
80000764: 33 85 c9 03                  	mul	a0, s3, t3
80000768: b3 05 a9 00                  	add	a1, s2, a0
8000076c: 93 95 25 00                  	slli	a1, a1, 2
80000770: 33 83 bf 00                  	add	t1, t6, a1
80000774: 13 15 25 00                  	slli	a0, a0, 2
80000778: b3 83 a4 00                  	add	t2, s1, a0
8000077c: 37 15 00 80                  	lui	a0, 524289
80000780: 13 05 c5 43                  	addi	a0, a0, 1084
80000784: 07 20 05 00                  	flw	ft0, 0(a0)
80000788: 13 15 29 00                  	slli	a0, s2, 2
8000078c: b3 8e a7 00                  	add	t4, a5, a0
80000790: 13 96 29 00                  	slli	a2, s3, 2
80000794: 6f 00 c0 00                  	j	12
80000798: 13 08 18 00                  	addi	a6, a6, 1
8000079c: 63 78 58 0a                  	bgeu	a6, t0, 176
800007a0: 63 5e 30 07                  	blez	s3, 124
800007a4: 13 0f 00 00                  	mv	t5, zero
800007a8: 93 8a 03 00                  	mv	s5, t2
800007ac: 13 05 00 00                  	mv	a0, zero
800007b0: b3 05 ee 01                  	add	a1, t3, t5
800007b4: 33 84 35 03                  	mul	s0, a1, s3
800007b8: 93 87 0e 00                  	mv	a5, t4
800007bc: b3 05 a9 00                  	add	a1, s2, a0
800007c0: 93 84 07 00                  	mv	s1, a5
800007c4: 93 86 0a 00                  	mv	a3, s5
800007c8: 13 87 09 00                  	mv	a4, s3
800007cc: d3 00 00 20                  	fmv.s	ft1, ft0
800007d0: 07 a1 04 00                  	flw	ft2, 0(s1)
800007d4: 87 a1 06 00                  	flw	ft3, 0(a3)
800007d8: 53 71 31 10                  	fmul.s	ft2, ft2, ft3
800007dc: d3 70 11 00                  	fadd.s	ft1, ft2, ft1
800007e0: 13 07 f7 ff                  	addi	a4, a4, -1
800007e4: 93 86 46 00                  	addi	a3, a3, 4
800007e8: b3 84 c4 00                  	add	s1, s1, a2
800007ec: e3 12 07 fe                  	bnez	a4, -28
800007f0: b3 85 85 00                  	add	a1, a1, s0
800007f4: 93 95 25 00                  	slli	a1, a1, 2
800007f8: b3 85 bf 00                  	add	a1, t6, a1
800007fc: 27 a0 15 00                  	fsw	ft1, 0(a1)
80000800: 13 05 15 00                  	addi	a0, a0, 1
80000804: 93 87 47 00                  	addi	a5, a5, 4
80000808: e3 6a 45 fb                  	bltu	a0, s4, -76
8000080c: 13 0f 1f 00                  	addi	t5, t5, 1
80000810: b3 8a ca 00                  	add	s5, s5, a2
80000814: e3 6c 1f f9                  	bltu	t5, a7, -104
80000818: 6f f0 1f f8                  	j	-128
8000081c: 13 05 00 00                  	mv	a0, zero
80000820: 93 05 03 00                  	mv	a1, t1
80000824: 93 06 00 00                  	mv	a3, zero
80000828: 13 87 05 00                  	mv	a4, a1
8000082c: 23 20 07 00                  	sw	zero, 0(a4)
80000830: 93 86 16 00                  	addi	a3, a3, 1
80000834: 13 07 47 00                  	addi	a4, a4, 4
80000838: e3 ea 46 ff                  	bltu	a3, s4, -12
8000083c: 13 05 15 00                  	addi	a0, a0, 1
80000840: b3 85 c5 00                  	add	a1, a1, a2
80000844: e3 60 15 ff                  	bltu	a0, a7, -32
80000848: 6f f0 1f f5                  	j	-176
8000084c: 83 2a 81 00                  	lw	s5, 8(sp)
80000850: 03 2a c1 00                  	lw	s4, 12(sp)
80000854: 83 29 01 01                  	lw	s3, 16(sp)
80000858: 03 29 41 01                  	lw	s2, 20(sp)
8000085c: 83 24 81 01                  	lw	s1, 24(sp)
80000860: 03 24 c1 01                  	lw	s0, 28(sp)
80000864: 13 01 01 02                  	addi	sp, sp, 32
80000868: 67 80 00 00                  	ret

8000086c _exit:
8000086c: 13 05 00 00                  	mv	a0, zero
80000870: 6b 00 05 00                  	<unknown>

80000874 vx_set_sp:
80000874: 73 25 50 02                  	csrr	a0, 37
80000878: 6b 00 05 00                  	<unknown>
8000087c: 97 11 00 00                  	auipc	gp, 1
80000880: 93 81 c1 f8                  	addi	gp, gp, -116
80000884: f3 25 20 02                  	csrr	a1, 34
80000888: 93 95 a5 00                  	slli	a1, a1, 10
8000088c: 73 26 00 02                  	csrr	a2, 32
80000890: 13 16 26 00                  	slli	a2, a2, 2
80000894: 37 f1 ff 6f                  	lui	sp, 458751
80000898: 33 01 b1 40                  	sub	sp, sp, a1
8000089c: 33 01 c1 00                  	add	sp, sp, a2
800008a0: f3 26 10 02                  	csrr	a3, 33
800008a4: 63 86 06 00                  	beqz	a3, 12
800008a8: 13 05 00 00                  	mv	a0, zero
800008ac: 6b 00 05 00                  	<unknown>

800008b0 RETURN:
800008b0: 67 80 00 00                  	ret

800008b4 vx_wspawn:
800008b4: 6b 10 b5 00                  	<unknown>
800008b8: 67 80 00 00                  	ret

800008bc vx_tmc:
800008bc: 6b 00 05 00                  	<unknown>
800008c0: 67 80 00 00                  	ret

800008c4 vx_barrier:
800008c4: 6b 40 b5 00                  	<unknown>
800008c8: 67 80 00 00                  	ret

800008cc vx_split:
800008cc: 6b 20 05 00                  	<unknown>
800008d0: 67 80 00 00                  	ret

800008d4 vx_join:
800008d4: 6b 30 00 00                  	<unknown>
800008d8: 67 80 00 00                  	ret

800008dc vx_warp_id:
800008dc: 73 25 10 02                  	csrr	a0, 33
800008e0: 67 80 00 00                  	ret

800008e4 vx_warp_gid:
800008e4: 73 25 30 02                  	csrr	a0, 35
800008e8: 67 80 00 00                  	ret

800008ec vx_thread_id:
800008ec: 73 25 00 02                  	csrr	a0, 32
800008f0: 67 80 00 00                  	ret

800008f4 vx_thread_gid:
800008f4: 73 25 20 02                  	csrr	a0, 34
800008f8: 67 80 00 00                  	ret

800008fc vx_core_id:
800008fc: 73 25 40 02                  	csrr	a0, 36
80000900: 67 80 00 00                  	ret

80000904 vx_num_threads:
80000904: 73 25 50 02                  	csrr	a0, 37
80000908: 67 80 00 00                  	ret

8000090c vx_num_warps:
8000090c: 73 25 60 02                  	csrr	a0, 38
80000910: 67 80 00 00                  	ret

80000914 vx_num_cores:
80000914: 73 25 70 02                  	csrr	a0, 39
80000918: 67 80 00 00                  	ret

8000091c vx_num_cycles:
8000091c: 73 25 00 c0                  	rdcycle	a0
80000920: 67 80 00 00                  	ret

80000924 vx_num_instrs:
80000924: 73 25 20 c0                  	rdinstret	a0
80000928: 67 80 00 00                  	ret

8000092c atexit:
8000092c: 93 05 05 00                  	mv	a1, a0
80000930: 93 06 00 00                  	mv	a3, zero
80000934: 13 06 00 00                  	mv	a2, zero
80000938: 13 05 00 00                  	mv	a0, zero
8000093c: 6f 00 80 20                  	j	520

80000940 exit:
80000940: 13 01 01 ff                  	addi	sp, sp, -16
80000944: 93 05 00 00                  	mv	a1, zero
80000948: 23 24 81 00                  	sw	s0, 8(sp)
8000094c: 23 26 11 00                  	sw	ra, 12(sp)
80000950: 13 04 05 00                  	mv	s0, a0
80000954: ef 00 80 28                  	jal	648
80000958: 03 a5 81 c2                  	lw	a0, -984(gp)
8000095c: 83 27 c5 03                  	lw	a5, 60(a0)
80000960: 63 84 07 00                  	beqz	a5, 8
80000964: e7 80 07 00                  	jalr	a5
80000968: 13 05 04 00                  	mv	a0, s0
8000096c: ef f0 1f f0                  	jal	-256

80000970 __libc_fini_array:
80000970: 13 01 01 ff                  	addi	sp, sp, -16
80000974: 23 24 81 00                  	sw	s0, 8(sp)
80000978: b7 17 00 80                  	lui	a5, 524289
8000097c: 37 14 00 80                  	lui	s0, 524289
80000980: 13 04 44 00                  	addi	s0, s0, 4
80000984: 93 87 47 00                  	addi	a5, a5, 4
80000988: b3 87 87 40                  	sub	a5, a5, s0
8000098c: 23 22 91 00                  	sw	s1, 4(sp)
80000990: 23 26 11 00                  	sw	ra, 12(sp)
80000994: 93 d4 27 40                  	srai	s1, a5, 2
80000998: 63 80 04 02                  	beqz	s1, 32
8000099c: 93 87 c7 ff                  	addi	a5, a5, -4
800009a0: 33 84 87 00                  	add	s0, a5, s0
800009a4: 83 27 04 00                  	lw	a5, 0(s0)
800009a8: 93 84 f4 ff                  	addi	s1, s1, -1
800009ac: 13 04 c4 ff                  	addi	s0, s0, -4
800009b0: e7 80 07 00                  	jalr	a5
800009b4: e3 98 04 fe                  	bnez	s1, -16
800009b8: 83 20 c1 00                  	lw	ra, 12(sp)
800009bc: 03 24 81 00                  	lw	s0, 8(sp)
800009c0: 83 24 41 00                  	lw	s1, 4(sp)
800009c4: 13 01 01 01                  	addi	sp, sp, 16
800009c8: 67 80 00 00                  	ret

800009cc __libc_init_array:
800009cc: 13 01 01 ff                  	addi	sp, sp, -16
800009d0: 23 24 81 00                  	sw	s0, 8(sp)
800009d4: 23 20 21 01                  	sw	s2, 0(sp)
800009d8: 37 14 00 80                  	lui	s0, 524289
800009dc: 37 19 00 80                  	lui	s2, 524289
800009e0: 93 07 04 00                  	mv	a5, s0
800009e4: 13 09 09 00                  	mv	s2, s2
800009e8: 33 09 f9 40                  	sub	s2, s2, a5
800009ec: 23 26 11 00                  	sw	ra, 12(sp)
800009f0: 23 22 91 00                  	sw	s1, 4(sp)
800009f4: 13 59 29 40                  	srai	s2, s2, 2
800009f8: 63 00 09 02                  	beqz	s2, 32
800009fc: 13 04 04 00                  	mv	s0, s0
80000a00: 93 04 00 00                  	mv	s1, zero
80000a04: 83 27 04 00                  	lw	a5, 0(s0)
80000a08: 93 84 14 00                  	addi	s1, s1, 1
80000a0c: 13 04 44 00                  	addi	s0, s0, 4
80000a10: e7 80 07 00                  	jalr	a5
80000a14: e3 18 99 fe                  	bne	s2, s1, -16
80000a18: 37 14 00 80                  	lui	s0, 524289
80000a1c: 37 19 00 80                  	lui	s2, 524289
80000a20: 93 07 04 00                  	mv	a5, s0
80000a24: 13 09 49 00                  	addi	s2, s2, 4
80000a28: 33 09 f9 40                  	sub	s2, s2, a5
80000a2c: 13 59 29 40                  	srai	s2, s2, 2
80000a30: 63 00 09 02                  	beqz	s2, 32
80000a34: 13 04 04 00                  	mv	s0, s0
80000a38: 93 04 00 00                  	mv	s1, zero
80000a3c: 83 27 04 00                  	lw	a5, 0(s0)
80000a40: 93 84 14 00                  	addi	s1, s1, 1
80000a44: 13 04 44 00                  	addi	s0, s0, 4
80000a48: e7 80 07 00                  	jalr	a5
80000a4c: e3 18 99 fe                  	bne	s2, s1, -16
80000a50: 83 20 c1 00                  	lw	ra, 12(sp)
80000a54: 03 24 81 00                  	lw	s0, 8(sp)
80000a58: 83 24 41 00                  	lw	s1, 4(sp)
80000a5c: 03 29 01 00                  	lw	s2, 0(sp)
80000a60: 13 01 01 01                  	addi	sp, sp, 16
80000a64: 67 80 00 00                  	ret

80000a68 memset:
80000a68: 13 03 f0 00                  	addi	t1, zero, 15
80000a6c: 13 07 05 00                  	mv	a4, a0
80000a70: 63 7e c3 02                  	bgeu	t1, a2, 60
80000a74: 93 77 f7 00                  	andi	a5, a4, 15
80000a78: 63 90 07 0a                  	bnez	a5, 160
80000a7c: 63 92 05 08                  	bnez	a1, 132
80000a80: 93 76 06 ff                  	andi	a3, a2, -16
80000a84: 13 76 f6 00                  	andi	a2, a2, 15
80000a88: b3 86 e6 00                  	add	a3, a3, a4
80000a8c: 23 20 b7 00                  	sw	a1, 0(a4)
80000a90: 23 22 b7 00                  	sw	a1, 4(a4)
80000a94: 23 24 b7 00                  	sw	a1, 8(a4)
80000a98: 23 26 b7 00                  	sw	a1, 12(a4)
80000a9c: 13 07 07 01                  	addi	a4, a4, 16
80000aa0: e3 66 d7 fe                  	bltu	a4, a3, -20
80000aa4: 63 14 06 00                  	bnez	a2, 8
80000aa8: 67 80 00 00                  	ret
80000aac: b3 06 c3 40                  	sub	a3, t1, a2
80000ab0: 93 96 26 00                  	slli	a3, a3, 2
80000ab4: 97 02 00 00                  	auipc	t0, 0
80000ab8: b3 86 56 00                  	add	a3, a3, t0
80000abc: 67 80 c6 00                  	jr	12(a3)
80000ac0: 23 07 b7 00                  	sb	a1, 14(a4)
80000ac4: a3 06 b7 00                  	sb	a1, 13(a4)
80000ac8: 23 06 b7 00                  	sb	a1, 12(a4)
80000acc: a3 05 b7 00                  	sb	a1, 11(a4)
80000ad0: 23 05 b7 00                  	sb	a1, 10(a4)
80000ad4: a3 04 b7 00                  	sb	a1, 9(a4)
80000ad8: 23 04 b7 00                  	sb	a1, 8(a4)
80000adc: a3 03 b7 00                  	sb	a1, 7(a4)
80000ae0: 23 03 b7 00                  	sb	a1, 6(a4)
80000ae4: a3 02 b7 00                  	sb	a1, 5(a4)
80000ae8: 23 02 b7 00                  	sb	a1, 4(a4)
80000aec: a3 01 b7 00                  	sb	a1, 3(a4)
80000af0: 23 01 b7 00                  	sb	a1, 2(a4)
80000af4: a3 00 b7 00                  	sb	a1, 1(a4)
80000af8: 23 00 b7 00                  	sb	a1, 0(a4)
80000afc: 67 80 00 00                  	ret
80000b00: 93 f5 f5 0f                  	andi	a1, a1, 255
80000b04: 93 96 85 00                  	slli	a3, a1, 8
80000b08: b3 e5 d5 00                  	or	a1, a1, a3
80000b0c: 93 96 05 01                  	slli	a3, a1, 16
80000b10: b3 e5 d5 00                  	or	a1, a1, a3
80000b14: 6f f0 df f6                  	j	-148
80000b18: 93 96 27 00                  	slli	a3, a5, 2
80000b1c: 97 02 00 00                  	auipc	t0, 0
80000b20: b3 86 56 00                  	add	a3, a3, t0
80000b24: 93 82 00 00                  	mv	t0, ra
80000b28: e7 80 06 fa                  	jalr	-96(a3)
80000b2c: 93 80 02 00                  	mv	ra, t0
80000b30: 93 87 07 ff                  	addi	a5, a5, -16
80000b34: 33 07 f7 40                  	sub	a4, a4, a5
80000b38: 33 06 f6 00                  	add	a2, a2, a5
80000b3c: e3 78 c3 f6                  	bgeu	t1, a2, -144
80000b40: 6f f0 df f3                  	j	-196

80000b44 __register_exitproc:
80000b44: 03 a7 81 c2                  	lw	a4, -984(gp)
80000b48: 83 27 87 14                  	lw	a5, 328(a4)
80000b4c: 63 8c 07 04                  	beqz	a5, 88
80000b50: 03 a7 47 00                  	lw	a4, 4(a5)
80000b54: 13 08 f0 01                  	addi	a6, zero, 31
80000b58: 63 4e e8 06                  	blt	a6, a4, 124
80000b5c: 13 18 27 00                  	slli	a6, a4, 2
80000b60: 63 06 05 02                  	beqz	a0, 44
80000b64: 33 83 07 01                  	add	t1, a5, a6
80000b68: 23 24 c3 08                  	sw	a2, 136(t1)
80000b6c: 83 a8 87 18                  	lw	a7, 392(a5)
80000b70: 13 06 10 00                  	addi	a2, zero, 1
80000b74: 33 16 e6 00                  	sll	a2, a2, a4
80000b78: b3 e8 c8 00                  	or	a7, a7, a2
80000b7c: 23 a4 17 19                  	sw	a7, 392(a5)
80000b80: 23 24 d3 10                  	sw	a3, 264(t1)
80000b84: 93 06 20 00                  	addi	a3, zero, 2
80000b88: 63 04 d5 02                  	beq	a0, a3, 40
80000b8c: 13 07 17 00                  	addi	a4, a4, 1
80000b90: 23 a2 e7 00                  	sw	a4, 4(a5)
80000b94: b3 87 07 01                  	add	a5, a5, a6
80000b98: 23 a4 b7 00                  	sw	a1, 8(a5)
80000b9c: 13 05 00 00                  	mv	a0, zero
80000ba0: 67 80 00 00                  	ret
80000ba4: 93 07 c7 14                  	addi	a5, a4, 332
80000ba8: 23 24 f7 14                  	sw	a5, 328(a4)
80000bac: 6f f0 5f fa                  	j	-92
80000bb0: 83 a6 c7 18                  	lw	a3, 396(a5)
80000bb4: 13 07 17 00                  	addi	a4, a4, 1
80000bb8: 23 a2 e7 00                  	sw	a4, 4(a5)
80000bbc: 33 e6 c6 00                  	or	a2, a3, a2
80000bc0: 23 a6 c7 18                  	sw	a2, 396(a5)
80000bc4: b3 87 07 01                  	add	a5, a5, a6
80000bc8: 23 a4 b7 00                  	sw	a1, 8(a5)
80000bcc: 13 05 00 00                  	mv	a0, zero
80000bd0: 67 80 00 00                  	ret
80000bd4: 13 05 f0 ff                  	addi	a0, zero, -1
80000bd8: 67 80 00 00                  	ret

80000bdc __call_exitprocs:
80000bdc: 13 01 01 fd                  	addi	sp, sp, -48
80000be0: 23 2c 41 01                  	sw	s4, 24(sp)
80000be4: 03 aa 81 c2                  	lw	s4, -984(gp)
80000be8: 23 20 21 03                  	sw	s2, 32(sp)
80000bec: 23 26 11 02                  	sw	ra, 44(sp)
80000bf0: 03 29 8a 14                  	lw	s2, 328(s4)
80000bf4: 23 24 81 02                  	sw	s0, 40(sp)
80000bf8: 23 22 91 02                  	sw	s1, 36(sp)
80000bfc: 23 2e 31 01                  	sw	s3, 28(sp)
80000c00: 23 2a 51 01                  	sw	s5, 20(sp)
80000c04: 23 28 61 01                  	sw	s6, 16(sp)
80000c08: 23 26 71 01                  	sw	s7, 12(sp)
80000c0c: 23 24 81 01                  	sw	s8, 8(sp)
80000c10: 63 00 09 04                  	beqz	s2, 64
80000c14: 13 0b 05 00                  	mv	s6, a0
80000c18: 93 8b 05 00                  	mv	s7, a1
80000c1c: 93 0a 10 00                  	addi	s5, zero, 1
80000c20: 93 09 f0 ff                  	addi	s3, zero, -1
80000c24: 83 24 49 00                  	lw	s1, 4(s2)
80000c28: 13 84 f4 ff                  	addi	s0, s1, -1
80000c2c: 63 42 04 02                  	bltz	s0, 36
80000c30: 93 94 24 00                  	slli	s1, s1, 2
80000c34: b3 04 99 00                  	add	s1, s2, s1
80000c38: 63 84 0b 04                  	beqz	s7, 72
80000c3c: 83 a7 44 10                  	lw	a5, 260(s1)
80000c40: 63 80 77 05                  	beq	a5, s7, 64
80000c44: 13 04 f4 ff                  	addi	s0, s0, -1
80000c48: 93 84 c4 ff                  	addi	s1, s1, -4
80000c4c: e3 16 34 ff                  	bne	s0, s3, -20
80000c50: 83 20 c1 02                  	lw	ra, 44(sp)
80000c54: 03 24 81 02                  	lw	s0, 40(sp)
80000c58: 83 24 41 02                  	lw	s1, 36(sp)
80000c5c: 03 29 01 02                  	lw	s2, 32(sp)
80000c60: 83 29 c1 01                  	lw	s3, 28(sp)
80000c64: 03 2a 81 01                  	lw	s4, 24(sp)
80000c68: 83 2a 41 01                  	lw	s5, 20(sp)
80000c6c: 03 2b 01 01                  	lw	s6, 16(sp)
80000c70: 83 2b c1 00                  	lw	s7, 12(sp)
80000c74: 03 2c 81 00                  	lw	s8, 8(sp)
80000c78: 13 01 01 03                  	addi	sp, sp, 48
80000c7c: 67 80 00 00                  	ret
80000c80: 83 27 49 00                  	lw	a5, 4(s2)
80000c84: 83 a6 44 00                  	lw	a3, 4(s1)
80000c88: 93 87 f7 ff                  	addi	a5, a5, -1
80000c8c: 63 8e 87 04                  	beq	a5, s0, 92
80000c90: 23 a2 04 00                  	sw	zero, 4(s1)
80000c94: e3 88 06 fa                  	beqz	a3, -80
80000c98: 83 27 89 18                  	lw	a5, 392(s2)
80000c9c: 33 97 8a 00                  	sll	a4, s5, s0
80000ca0: 03 2c 49 00                  	lw	s8, 4(s2)
80000ca4: b3 77 f7 00                  	and	a5, a4, a5
80000ca8: 63 92 07 02                  	bnez	a5, 36
80000cac: e7 80 06 00                  	jalr	a3
80000cb0: 03 27 49 00                  	lw	a4, 4(s2)
80000cb4: 83 27 8a 14                  	lw	a5, 328(s4)
80000cb8: 63 14 87 01                  	bne	a4, s8, 8
80000cbc: e3 04 f9 f8                  	beq	s2, a5, -120
80000cc0: e3 88 07 f8                  	beqz	a5, -112
80000cc4: 13 89 07 00                  	mv	s2, a5
80000cc8: 6f f0 df f5                  	j	-164
80000ccc: 83 27 c9 18                  	lw	a5, 396(s2)
80000cd0: 83 a5 44 08                  	lw	a1, 132(s1)
80000cd4: 33 77 f7 00                  	and	a4, a4, a5
80000cd8: 63 1c 07 00                  	bnez	a4, 24
80000cdc: 13 05 0b 00                  	mv	a0, s6
80000ce0: e7 80 06 00                  	jalr	a3
80000ce4: 6f f0 df fc                  	j	-52
80000ce8: 23 22 89 00                  	sw	s0, 4(s2)
80000cec: 6f f0 9f fa                  	j	-88
80000cf0: 13 85 05 00                  	mv	a0, a1
80000cf4: e7 80 06 00                  	jalr	a3
80000cf8: 6f f0 9f fb                  	j	-72

Disassembly of section .init_array:

80001000 __preinit_array_start:
80001000: 48 00                        	<unknown>
80001002: 00 80                        	<unknown>

Disassembly of section .data:

80001008 impure_data:
80001008: 00 00                        	<unknown>
8000100a: 00 00                        	<unknown>
8000100c: f4 12                        	<unknown>
8000100e: 00 80                        	<unknown>
80001010: 5c 13                        	<unknown>
80001012: 00 80                        	<unknown>
80001014: c4 13                        	<unknown>
80001016: 00 80                        	<unknown>
		...
800010b0: 01 00                        	<unknown>
800010b2: 00 00                        	<unknown>
800010b4: 00 00                        	<unknown>
800010b6: 00 00                        	<unknown>
800010b8: 0e 33                        	<unknown>
800010ba: cd ab                        	<unknown>
800010bc: 34 12                        	<unknown>
800010be: 6d e6                        	<unknown>
800010c0: ec de                        	<unknown>
800010c2: 05 00                        	<unknown>
800010c4: 0b 00 00 00                  	<unknown>
		...

Disassembly of section .sdata:

80001430 _global_impure_ptr:
80001430: 08 10                        	<unknown>
80001432: 00 80                        	<unknown>
		...

Disassembly of section .bss:

80001440 g_wspawn_args:
...

Disassembly of section .comment:

00000000 .comment:
       0: 63 6c 61 6e                  	bltu	sp, t1, 1784
       4: 67 20 76 65                  	<unknown>
       8: 72 73                        	<unknown>
       a: 69 6f                        	<unknown>
       c: 6e 20                        	<unknown>
       e: 31 30                        	<unknown>
      10: 2e 30                        	<unknown>
      12: 2e 30                        	<unknown>
      14: 20 28                        	<unknown>
      16: 68 74                        	<unknown>
      18: 74 70                        	<unknown>
      1a: 73 3a 2f 2f                  	csrrc	s4, 754, t5
      1e: 67 69 74 68                  	<unknown>
      22: 75 62                        	<unknown>
      24: 2e 63                        	<unknown>
      26: 6f 6d 2f 6c                  	jal	s10, 1009346
      2a: 6c 76                        	<unknown>
      2c: 6d 2f                        	<unknown>
      2e: 6c 6c                        	<unknown>
      30: 76 6d                        	<unknown>
      32: 2d 70                        	<unknown>
      34: 72 6f                        	<unknown>
      36: 6a 65                        	<unknown>
      38: 63 74 2e 67                  	bgeu	t3, s2, 1640
      3c: 69 74                        	<unknown>
      3e: 20 37                        	<unknown>
      40: 33 63 35 33                  	<unknown>
      44: 65 36                        	<unknown>
      46: 31 32                        	<unknown>
      48: 61 61                        	<unknown>
      4a: 31 32                        	<unknown>
      4c: 35 61                        	<unknown>
      4e: 32 34                        	<unknown>
      50: 65 62                        	<unknown>
      52: 32 63                        	<unknown>
      54: 37 35 32 34                  	lui	a0, 213795
      58: 31 62                        	<unknown>
      5a: 32 65                        	<unknown>
      5c: 62 62                        	<unknown>
      5e: 64 35                        	<unknown>
      60: 36 30                        	<unknown>
      62: 62 38                        	<unknown>
      64: 35 63                        	<unknown>
      66: 37 29 00 47                  	lui	s2, 290818
      6a: 43 43 3a 20                  	fmadd.s	ft6, fs4, ft3, ft4, rmm
      6e: 28 47                        	<unknown>
      70: 4e 55                        	<unknown>
      72: 29 20                        	<unknown>
      74: 39 2e                        	<unknown>
      76: 32 2e                        	<unknown>
      78: 30 00                        	<unknown>

Disassembly of section .riscv.attributes:

00000000 .riscv.attributes:
       0: 41 25                        	<unknown>
       2: 00 00                        	<unknown>
       4: 00 72                        	<unknown>
       6: 69 73                        	<unknown>
       8: 63 76 00 01                  	bgeu	zero, a6, 12
       c: 1b 00 00 00                  	<unknown>
      10: 04 10                        	<unknown>
      12: 05 72                        	<unknown>
      14: 76 33                        	<unknown>
      16: 32 69                        	<unknown>
      18: 32 70                        	<unknown>
      1a: 30 5f                        	<unknown>
      1c: 6d 32                        	<unknown>
      1e: 70 30                        	<unknown>
      20: 5f 66 32 70                  	<unknown>
      24: 30 00                        	<unknown>

Disassembly of section .symtab:

00000000 .symtab:
		...
      14: 00 00                        	<unknown>
      16: 00 80                        	<unknown>
      18: 00 00                        	<unknown>
      1a: 00 00                        	<unknown>
      1c: 03 00 01 00                  	lb	zero, 0(sp)
      20: 00 00                        	<unknown>
      22: 00 00                        	<unknown>
      24: 48 00                        	<unknown>
      26: 00 80                        	<unknown>
      28: 00 00                        	<unknown>
      2a: 00 00                        	<unknown>
      2c: 03 00 02 00                  	lb	zero, 0(tp)
      30: 00 00                        	<unknown>
      32: 00 00                        	<unknown>
      34: 00 10                        	<unknown>
      36: 00 80                        	<unknown>
      38: 00 00                        	<unknown>
      3a: 00 00                        	<unknown>
      3c: 03 00 03 00                  	lb	zero, 0(t1)
      40: 00 00                        	<unknown>
      42: 00 00                        	<unknown>
      44: 08 10                        	<unknown>
      46: 00 80                        	<unknown>
      48: 00 00                        	<unknown>
      4a: 00 00                        	<unknown>
      4c: 03 00 04 00                  	lb	zero, 0(s0)
      50: 00 00                        	<unknown>
      52: 00 00                        	<unknown>
      54: 30 14                        	<unknown>
      56: 00 80                        	<unknown>
      58: 00 00                        	<unknown>
      5a: 00 00                        	<unknown>
      5c: 03 00 05 00                  	lb	zero, 0(a0)
      60: 00 00                        	<unknown>
      62: 00 00                        	<unknown>
      64: 40 14                        	<unknown>
      66: 00 80                        	<unknown>
      68: 00 00                        	<unknown>
      6a: 00 00                        	<unknown>
      6c: 03 00 06 00                  	lb	zero, 0(a2)
		...
      7c: 03 00 07 00                  	lb	zero, 0(a4)
		...
      8c: 03 00 08 00                  	lb	zero, 0(a6)
      90: 01 00                        	<unknown>
		...
      9a: 00 00                        	<unknown>
      9c: 04 00                        	<unknown>
      9e: f1 ff                        	<unknown>
      a0: 0e 00                        	<unknown>
      a2: 00 00                        	<unknown>
      a4: b0 08                        	<unknown>
      a6: 00 80                        	<unknown>
      a8: 00 00                        	<unknown>
      aa: 00 00                        	<unknown>
      ac: 00 00                        	<unknown>
      ae: 02 00                        	<unknown>
      b0: 15 00                        	<unknown>
		...
      ba: 00 00                        	<unknown>
      bc: 04 00                        	<unknown>
      be: f1 ff                        	<unknown>
      c0: 25 00                        	<unknown>
      c2: 00 00                        	<unknown>
      c4: 48 00                        	<unknown>
      c6: 00 80                        	<unknown>
      c8: 18 00                        	<unknown>
      ca: 00 00                        	<unknown>
      cc: 02 00                        	<unknown>
      ce: 02 00                        	<unknown>
      d0: 33 00 00 00                  	add	zero, zero, zero
		...
      dc: 04 00                        	<unknown>
      de: f1 ff                        	<unknown>
      e0: 57 00 00 00                  	<unknown>
		...
      ec: 04 00                        	<unknown>
      ee: f1 ff                        	<unknown>
      f0: 73 00 00 00                  	ecall	
		...
      fc: 04 00                        	<unknown>
      fe: f1 ff                        	<unknown>
     100: 75 00                        	<unknown>
		...
     10a: 00 00                        	<unknown>
     10c: 04 00                        	<unknown>
     10e: f1 ff                        	<unknown>
     110: 63 00 00 00                  	beqz	zero, 0
		...
     11c: 04 00                        	<unknown>
     11e: f1 ff                        	<unknown>
     120: 6a 00                        	<unknown>
		...
     12a: 00 00                        	<unknown>
     12c: 04 00                        	<unknown>
     12e: f1 ff                        	<unknown>
     130: 71 00                        	<unknown>
		...
     13a: 00 00                        	<unknown>
     13c: 04 00                        	<unknown>
     13e: f1 ff                        	<unknown>
     140: 7c 00                        	<unknown>
		...
     14a: 00 00                        	<unknown>
     14c: 04 00                        	<unknown>
     14e: f1 ff                        	<unknown>
     150: 85 00                        	<unknown>
     152: 00 00                        	<unknown>
     154: 08 10                        	<unknown>
     156: 00 80                        	<unknown>
     158: 28 04                        	<unknown>
     15a: 00 00                        	<unknown>
     15c: 01 00                        	<unknown>
     15e: 04 00                        	<unknown>
		...
     16c: 04 00                        	<unknown>
     16e: f1 ff                        	<unknown>
     170: 91 00                        	<unknown>
     172: 00 00                        	<unknown>
     174: 04 10                        	<unknown>
     176: 00 80                        	<unknown>
     178: 00 00                        	<unknown>
     17a: 00 00                        	<unknown>
     17c: 00 00                        	<unknown>
     17e: 03 00 a2 00                  	lb	zero, 10(tp)
     182: 00 00                        	<unknown>
     184: 04 10                        	<unknown>
     186: 00 80                        	<unknown>
     188: 00 00                        	<unknown>
     18a: 00 00                        	<unknown>
     18c: 00 00                        	<unknown>
     18e: 03 00 b5 00                  	lb	zero, 11(a0)
     192: 00 00                        	<unknown>
     194: 04 10                        	<unknown>
     196: 00 80                        	<unknown>
     198: 00 00                        	<unknown>
     19a: 00 00                        	<unknown>
     19c: 00 00                        	<unknown>
     19e: 03 00 c6 00                  	lb	zero, 12(a2)
     1a2: 00 00                        	<unknown>
     1a4: 00 10                        	<unknown>
     1a6: 00 80                        	<unknown>
     1a8: 00 00                        	<unknown>
     1aa: 00 00                        	<unknown>
     1ac: 00 00                        	<unknown>
     1ae: 03 00 da 00                  	lb	zero, 13(s4)
     1b2: 00 00                        	<unknown>
     1b4: 00 10                        	<unknown>
     1b6: 00 80                        	<unknown>
     1b8: 00 00                        	<unknown>
     1ba: 00 00                        	<unknown>
     1bc: 00 00                        	<unknown>
     1be: 03 00 ed 00                  	lb	zero, 14(s10)
     1c2: 00 00                        	<unknown>
     1c4: 00 10                        	<unknown>
     1c6: 00 80                        	<unknown>
     1c8: 00 00                        	<unknown>
     1ca: 00 00                        	<unknown>
     1cc: 00 00                        	<unknown>
     1ce: 03 00 03 01                  	lb	zero, 16(t1)
     1d2: 00 00                        	<unknown>
     1d4: 08 18                        	<unknown>
     1d6: 00 80                        	<unknown>
     1d8: 00 00                        	<unknown>
     1da: 00 00                        	<unknown>
     1dc: 10 00                        	<unknown>
     1de: f1 ff                        	<unknown>
     1e0: 15 01                        	<unknown>
     1e2: 00 00                        	<unknown>
     1e4: fc 08                        	<unknown>
     1e6: 00 80                        	<unknown>
     1e8: 00 00                        	<unknown>
     1ea: 00 00                        	<unknown>
     1ec: 12 00                        	<unknown>
     1ee: 02 00                        	<unknown>
     1f0: 20 01                        	<unknown>
     1f2: 00 00                        	<unknown>
     1f4: b4 08                        	<unknown>
     1f6: 00 80                        	<unknown>
     1f8: 00 00                        	<unknown>
     1fa: 00 00                        	<unknown>
     1fc: 12 00                        	<unknown>
     1fe: 02 00                        	<unknown>
     200: 2a 01                        	<unknown>
     202: 00 00                        	<unknown>
     204: 60 00                        	<unknown>
     206: 00 80                        	<unknown>
     208: 3c 01                        	<unknown>
     20a: 00 00                        	<unknown>
     20c: 12 00                        	<unknown>
     20e: 02 00                        	<unknown>
     210: 40 01                        	<unknown>
     212: 00 00                        	<unknown>
     214: 40 14                        	<unknown>
     216: 00 80                        	<unknown>
     218: 04 00                        	<unknown>
     21a: 00 00                        	<unknown>
     21c: 11 00                        	<unknown>
     21e: 06 00                        	<unknown>
     220: 4e 01                        	<unknown>
     222: 00 00                        	<unknown>
     224: bc 08                        	<unknown>
     226: 00 80                        	<unknown>
     228: 00 00                        	<unknown>
     22a: 00 00                        	<unknown>
     22c: 12 00                        	<unknown>
     22e: 02 00                        	<unknown>
     230: 55 01                        	<unknown>
     232: 00 00                        	<unknown>
     234: a0 05                        	<unknown>
     236: 00 80                        	<unknown>
     238: 6c 01                        	<unknown>
     23a: 00 00                        	<unknown>
     23c: 12 00                        	<unknown>
     23e: 02 00                        	<unknown>
     240: 72 01                        	<unknown>
     242: 00 00                        	<unknown>
     244: 30 14                        	<unknown>
     246: 00 80                        	<unknown>
     248: 00 00                        	<unknown>
     24a: 00 00                        	<unknown>
     24c: 10 00                        	<unknown>
     24e: 05 00                        	<unknown>
     250: 82 01                        	<unknown>
     252: 00 00                        	<unknown>
     254: d4 08                        	<unknown>
     256: 00 80                        	<unknown>
     258: 00 00                        	<unknown>
     25a: 00 00                        	<unknown>
     25c: 12 00                        	<unknown>
     25e: 02 00                        	<unknown>
     260: 8a 01                        	<unknown>
     262: 00 00                        	<unknown>
     264: 0c 09                        	<unknown>
     266: 00 80                        	<unknown>
     268: 00 00                        	<unknown>
     26a: 00 00                        	<unknown>
     26c: 12 00                        	<unknown>
     26e: 02 00                        	<unknown>
     270: 97 01 00 00                  	auipc	gp, 0
     274: 3c 02                        	<unknown>
     276: 00 80                        	<unknown>
     278: cc 01                        	<unknown>
     27a: 00 00                        	<unknown>
     27c: 12 00                        	<unknown>
     27e: 02 00                        	<unknown>
     280: a4 01                        	<unknown>
     282: 00 00                        	<unknown>
     284: cc 08                        	<unknown>
     286: 00 80                        	<unknown>
     288: 00 00                        	<unknown>
     28a: 00 00                        	<unknown>
     28c: 12 00                        	<unknown>
     28e: 02 00                        	<unknown>
     290: ad 01                        	<unknown>
     292: 00 00                        	<unknown>
     294: 30 14                        	<unknown>
     296: 00 80                        	<unknown>
     298: 04 00                        	<unknown>
     29a: 00 00                        	<unknown>
     29c: 11 00                        	<unknown>
     29e: 05 00                        	<unknown>
     2a0: c0 01                        	<unknown>
     2a2: 00 00                        	<unknown>
     2a4: cc 09                        	<unknown>
     2a6: 00 80                        	<unknown>
     2a8: 9c 00                        	<unknown>
     2aa: 00 00                        	<unknown>
     2ac: 12 00                        	<unknown>
     2ae: 02 00                        	<unknown>
     2b0: d2 01                        	<unknown>
     2b2: 00 00                        	<unknown>
     2b4: 04 09                        	<unknown>
     2b6: 00 80                        	<unknown>
     2b8: 00 00                        	<unknown>
     2ba: 00 00                        	<unknown>
     2bc: 12 00                        	<unknown>
     2be: 02 00                        	<unknown>
     2c0: e1 01                        	<unknown>
     2c2: 00 00                        	<unknown>
     2c4: dc 08                        	<unknown>
     2c6: 00 80                        	<unknown>
     2c8: 00 00                        	<unknown>
     2ca: 00 00                        	<unknown>
     2cc: 12 00                        	<unknown>
     2ce: 02 00                        	<unknown>
     2d0: ec 01                        	<unknown>
     2d2: 00 00                        	<unknown>
     2d4: ec 08                        	<unknown>
     2d6: 00 80                        	<unknown>
     2d8: 00 00                        	<unknown>
     2da: 00 00                        	<unknown>
     2dc: 12 00                        	<unknown>
     2de: 02 00                        	<unknown>
     2e0: f9 01                        	<unknown>
     2e2: 00 00                        	<unknown>
     2e4: 70 09                        	<unknown>
     2e6: 00 80                        	<unknown>
     2e8: 5c 00                        	<unknown>
     2ea: 00 00                        	<unknown>
     2ec: 12 00                        	<unknown>
     2ee: 02 00                        	<unknown>
     2f0: 0b 02 00 00                  	<unknown>
     2f4: 74 08                        	<unknown>
     2f6: 00 80                        	<unknown>
     2f8: 00 00                        	<unknown>
     2fa: 00 00                        	<unknown>
     2fc: 12 00                        	<unknown>
     2fe: 02 00                        	<unknown>
     300: 15 02                        	<unknown>
     302: 00 00                        	<unknown>
     304: c4 08                        	<unknown>
     306: 00 80                        	<unknown>
     308: 00 00                        	<unknown>
     30a: 00 00                        	<unknown>
     30c: 12 00                        	<unknown>
     30e: 02 00                        	<unknown>
     310: 20 02                        	<unknown>
     312: 00 00                        	<unknown>
     314: dc 0b                        	<unknown>
     316: 00 80                        	<unknown>
     318: 20 01                        	<unknown>
     31a: 00 00                        	<unknown>
     31c: 12 00                        	<unknown>
     31e: 02 00                        	<unknown>
     320: 56 02                        	<unknown>
     322: 00 00                        	<unknown>
     324: 00 00                        	<unknown>
     326: 00 80                        	<unknown>
     328: 48 00                        	<unknown>
     32a: 00 00                        	<unknown>
     32c: 12 00                        	<unknown>
     32e: 01 00                        	<unknown>
     330: 31 02                        	<unknown>
     332: 00 00                        	<unknown>
     334: 44 0b                        	<unknown>
     336: 00 80                        	<unknown>
     338: 98 00                        	<unknown>
     33a: 00 00                        	<unknown>
     33c: 12 00                        	<unknown>
     33e: 02 00                        	<unknown>
     340: 45 02                        	<unknown>
     342: 00 00                        	<unknown>
     344: 44 14                        	<unknown>
     346: 00 80                        	<unknown>
     348: 00 00                        	<unknown>
     34a: 00 00                        	<unknown>
     34c: 10 00                        	<unknown>
     34e: 06 00                        	<unknown>
     350: 51 02                        	<unknown>
     352: 00 00                        	<unknown>
     354: 40 14                        	<unknown>
     356: 00 80                        	<unknown>
     358: 00 00                        	<unknown>
     35a: 00 00                        	<unknown>
     35c: 10 00                        	<unknown>
     35e: 06 00                        	<unknown>
     360: 5d 02                        	<unknown>
     362: 00 00                        	<unknown>
     364: 0c 07                        	<unknown>
     366: 00 80                        	<unknown>
     368: 60 01                        	<unknown>
     36a: 00 00                        	<unknown>
     36c: 12 00                        	<unknown>
     36e: 02 00                        	<unknown>
     370: 7f 02 00 00                  	<unknown>
     374: 68 0a                        	<unknown>
     376: 00 80                        	<unknown>
     378: dc 00                        	<unknown>
     37a: 00 00                        	<unknown>
     37c: 12 00                        	<unknown>
     37e: 02 00                        	<unknown>
     380: 86 02                        	<unknown>
     382: 00 00                        	<unknown>
     384: 08 04                        	<unknown>
     386: 00 80                        	<unknown>
     388: 30 00                        	<unknown>
     38a: 00 00                        	<unknown>
     38c: 12 00                        	<unknown>
     38e: 02 00                        	<unknown>
     390: 8b 02 00 00                  	<unknown>
     394: 1c 09                        	<unknown>
     396: 00 80                        	<unknown>
     398: 00 00                        	<unknown>
     39a: 00 00                        	<unknown>
     39c: 12 00                        	<unknown>
     39e: 02 00                        	<unknown>
     3a0: 99 02                        	<unknown>
     3a2: 00 00                        	<unknown>
     3a4: 2c 09                        	<unknown>
     3a6: 00 80                        	<unknown>
     3a8: 14 00                        	<unknown>
     3aa: 00 00                        	<unknown>
     3ac: 12 00                        	<unknown>
     3ae: 02 00                        	<unknown>
     3b0: a0 02                        	<unknown>
     3b2: 00 00                        	<unknown>
     3b4: f4 08                        	<unknown>
     3b6: 00 80                        	<unknown>
     3b8: 00 00                        	<unknown>
     3ba: 00 00                        	<unknown>
     3bc: 12 00                        	<unknown>
     3be: 02 00                        	<unknown>
     3c0: ae 02                        	<unknown>
     3c2: 00 00                        	<unknown>
     3c4: 14 09                        	<unknown>
     3c6: 00 80                        	<unknown>
     3c8: 00 00                        	<unknown>
     3ca: 00 00                        	<unknown>
     3cc: 12 00                        	<unknown>
     3ce: 02 00                        	<unknown>
     3d0: bb 02 00 00                  	<unknown>
     3d4: e4 08                        	<unknown>
     3d6: 00 80                        	<unknown>
     3d8: 00 00                        	<unknown>
     3da: 00 00                        	<unknown>
     3dc: 12 00                        	<unknown>
     3de: 02 00                        	<unknown>
     3e0: c7 02 00 00                  	fmsub.s	ft5, ft0, ft0, ft0, rne
     3e4: 9c 01                        	<unknown>
     3e6: 00 80                        	<unknown>
     3e8: a0 00                        	<unknown>
     3ea: 00 00                        	<unknown>
     3ec: 12 00                        	<unknown>
     3ee: 02 00                        	<unknown>
     3f0: e0 02                        	<unknown>
     3f2: 00 00                        	<unknown>
     3f4: 08 10                        	<unknown>
     3f6: 00 80                        	<unknown>
     3f8: 00 00                        	<unknown>
     3fa: 00 00                        	<unknown>
     3fc: 10 00                        	<unknown>
     3fe: 04 00                        	<unknown>
     400: ef 02 00 00                  	jal	t0, 0
     404: 40 14                        	<unknown>
     406: 00 80                        	<unknown>
     408: 00 00                        	<unknown>
     40a: 00 00                        	<unknown>
     40c: 10 00                        	<unknown>
     40e: 05 00                        	<unknown>
     410: 9d 00                        	<unknown>
     412: 00 00                        	<unknown>
     414: 44 14                        	<unknown>
     416: 00 80                        	<unknown>
     418: 00 00                        	<unknown>
     41a: 00 00                        	<unknown>
     41c: 10 00                        	<unknown>
     41e: 06 00                        	<unknown>
     420: 0a 03                        	<unknown>
     422: 00 00                        	<unknown>
     424: 40 09                        	<unknown>
     426: 00 80                        	<unknown>
     428: 30 00                        	<unknown>
     42a: 00 00                        	<unknown>
     42c: 12 00                        	<unknown>
     42e: 02 00                        	<unknown>
     430: f6 02                        	<unknown>
     432: 00 00                        	<unknown>
     434: 38 04                        	<unknown>
     436: 00 80                        	<unknown>
     438: 68 01                        	<unknown>
     43a: 00 00                        	<unknown>
     43c: 12 00                        	<unknown>
     43e: 02 00                        	<unknown>
     440: 09 03                        	<unknown>
     442: 00 00                        	<unknown>
     444: 6c 08                        	<unknown>
     446: 00 80                        	<unknown>
     448: 00 00                        	<unknown>
     44a: 00 00                        	<unknown>
     44c: 12 00                        	<unknown>
     44e: 02 00                        	<unknown>
     450: 0f 03 00 00                  	<unknown>
     454: 24 09                        	<unknown>
     456: 00 80                        	<unknown>
     458: 00 00                        	<unknown>
     45a: 00 00                        	<unknown>
     45c: 12 00                        	<unknown>
     45e: 02 00                        	<unknown>

Disassembly of section .strtab:

00000000 .strtab:
       0: 00 76                        	<unknown>
       2: 78 5f                        	<unknown>
       4: 73 74 61 72                  	csrrci	s0, 1830, 2
       8: 74 2e                        	<unknown>
       a: 53 2e 6f 00                  	fadd.s	ft8, ft10, ft6, rdn
       e: 52 45                        	<unknown>
      10: 54 55                        	<unknown>
      12: 52 4e                        	<unknown>
      14: 00 5f                        	<unknown>
      16: 5f 63 61 6c                  	<unknown>
      1a: 6c 5f                        	<unknown>
      1c: 61 74                        	<unknown>
      1e: 65 78                        	<unknown>
      20: 69 74                        	<unknown>
      22: 2e 63                        	<unknown>
      24: 00 72                        	<unknown>
      26: 65 67                        	<unknown>
      28: 69 73                        	<unknown>
      2a: 74 65                        	<unknown>
      2c: 72 5f                        	<unknown>
      2e: 66 69                        	<unknown>
      30: 6e 69                        	<unknown>
      32: 00 70                        	<unknown>
      34: 6f 63 6c 5f                  	jal	t1, 812534
      38: 76 6f                        	<unknown>
      3a: 72 74                        	<unknown>
      3c: 65 78                        	<unknown>
      3e: 5f 6b 65 72                  	<unknown>
      42: 6e 65                        	<unknown>
      44: 6c 2d                        	<unknown>
      46: 37 38 2d 33                  	lui	a6, 209619
      4a: 36 2d                        	<unknown>
      4c: 32 62                        	<unknown>
      4e: 2d 35                        	<unknown>
      50: 32 2d                        	<unknown>
      52: 63 39 2e 63                  	<unknown>
      56: 00 70                        	<unknown>
      58: 61 72                        	<unknown>
      5a: 61 6c                        	<unknown>
      5c: 6c 65                        	<unknown>
      5e: 6c 5f                        	<unknown>
      60: 62 63                        	<unknown>
      62: 00 66                        	<unknown>
      64: 69 6e                        	<unknown>
      66: 69 2e                        	<unknown>
      68: 63 00 69 6e                  	beq	s2, t1, 1760
      6c: 69 74                        	<unknown>
      6e: 2e 63                        	<unknown>
      70: 00 5f                        	<unknown>
      72: 5f 61 74 65                  	<unknown>
      76: 78 69                        	<unknown>
      78: 74 2e                        	<unknown>
      7a: 63 00 69 6d                  	beq	s2, s6, 1728
      7e: 70 75                        	<unknown>
      80: 72 65                        	<unknown>
      82: 2e 63                        	<unknown>
      84: 00 69                        	<unknown>
      86: 6d 70                        	<unknown>
      88: 75 72                        	<unknown>
      8a: 65 5f                        	<unknown>
      8c: 64 61                        	<unknown>
      8e: 74 61                        	<unknown>
      90: 00 5f                        	<unknown>
      92: 5f 66 69 6e                  	<unknown>
      96: 69 5f                        	<unknown>
      98: 61 72                        	<unknown>
      9a: 72 61                        	<unknown>
      9c: 79 5f                        	<unknown>
      9e: 65 6e                        	<unknown>
      a0: 64 00                        	<unknown>
      a2: 5f 5f 66 69                  	<unknown>
      a6: 6e 69                        	<unknown>
      a8: 5f 61 72 72                  	<unknown>
      ac: 61 79                        	<unknown>
      ae: 5f 73 74 61                  	<unknown>
      b2: 72 74                        	<unknown>
      b4: 00 5f                        	<unknown>
      b6: 5f 69 6e 69                  	<unknown>
      ba: 74 5f                        	<unknown>
      bc: 61 72                        	<unknown>
      be: 72 61                        	<unknown>
      c0: 79 5f                        	<unknown>
      c2: 65 6e                        	<unknown>
      c4: 64 00                        	<unknown>
      c6: 5f 5f 70 72                  	<unknown>
      ca: 65 69                        	<unknown>
      cc: 6e 69                        	<unknown>
      ce: 74 5f                        	<unknown>
      d0: 61 72                        	<unknown>
      d2: 72 61                        	<unknown>
      d4: 79 5f                        	<unknown>
      d6: 65 6e                        	<unknown>
      d8: 64 00                        	<unknown>
      da: 5f 5f 69 6e                  	<unknown>
      de: 69 74                        	<unknown>
      e0: 5f 61 72 72                  	<unknown>
      e4: 61 79                        	<unknown>
      e6: 5f 73 74 61                  	<unknown>
      ea: 72 74                        	<unknown>
      ec: 00 5f                        	<unknown>
      ee: 5f 70 72 65                  	<unknown>
      f2: 69 6e                        	<unknown>
      f4: 69 74                        	<unknown>
      f6: 5f 61 72 72                  	<unknown>
      fa: 61 79                        	<unknown>
      fc: 5f 73 74 61                  	<unknown>
     100: 72 74                        	<unknown>
     102: 00 5f                        	<unknown>
     104: 5f 67 6c 6f                  	<unknown>
     108: 62 61                        	<unknown>
     10a: 6c 5f                        	<unknown>
     10c: 70 6f                        	<unknown>
     10e: 69 6e                        	<unknown>
     110: 74 65                        	<unknown>
     112: 72 24                        	<unknown>
     114: 00 76                        	<unknown>
     116: 78 5f                        	<unknown>
     118: 63 6f 72 65                  	bltu	tp, s7, 1630
     11c: 5f 69 64 00                  	<unknown>
     120: 76 78                        	<unknown>
     122: 5f 77 73 70                  	<unknown>
     126: 61 77                        	<unknown>
     128: 6e 00                        	<unknown>
     12a: 6b 65 72 6e                  	<unknown>
     12e: 65 6c                        	<unknown>
     130: 5f 73 70 61                  	<unknown>
     134: 77 6e 5f 72                  	<unknown>
     138: 75 6e                        	<unknown>
     13a: 5f 77 61 72                  	<unknown>
     13e: 70 00                        	<unknown>
     140: 67 5f 77 73                  	<unknown>
     144: 70 61                        	<unknown>
     146: 77 6e 5f 61                  	<unknown>
     14a: 72 67                        	<unknown>
     14c: 73 00 76 78                  	<unknown>
     150: 5f 74 6d 63                  	<unknown>
     154: 00 5f                        	<unknown>
     156: 70 6f                        	<unknown>
     158: 63 6c 5f 6b                  	bltu	t5, s5, 1720
     15c: 65 72                        	<unknown>
     15e: 6e 65                        	<unknown>
     160: 6c 5f                        	<unknown>
     162: 73 67 65 6d                  	csrrsi	a4, 1750, 10
     166: 6d 5f                        	<unknown>
     168: 77 6f 72 6b                  	<unknown>
     16c: 67 72 6f 75                  	<unknown>
     170: 70 00                        	<unknown>
     172: 5f 5f 53 44                  	<unknown>
     176: 41 54                        	<unknown>
     178: 41 5f                        	<unknown>
     17a: 42 45                        	<unknown>
     17c: 47 49 4e 5f                  	<unknown>
     180: 5f 00 76 78                  	<unknown>
     184: 5f 6a 6f 69                  	<unknown>
     188: 6e 00                        	<unknown>
     18a: 76 78                        	<unknown>
     18c: 5f 6e 75 6d                  	<unknown>
     190: 5f 77 61 72                  	<unknown>
     194: 70 73                        	<unknown>
     196: 00 6b                        	<unknown>
     198: 65 72                        	<unknown>
     19a: 6e 65                        	<unknown>
     19c: 6c 5f                        	<unknown>
     19e: 73 70 61 77                  	csrci	1910, 2
     1a2: 6e 00                        	<unknown>
     1a4: 76 78                        	<unknown>
     1a6: 5f 73 70 6c                  	<unknown>
     1aa: 69 74                        	<unknown>
     1ac: 00 5f                        	<unknown>
     1ae: 67 6c 6f 62                  	<unknown>
     1b2: 61 6c                        	<unknown>
     1b4: 5f 69 6d 70                  	<unknown>
     1b8: 75 72                        	<unknown>
     1ba: 65 5f                        	<unknown>
     1bc: 70 74                        	<unknown>
     1be: 72 00                        	<unknown>
     1c0: 5f 5f 6c 69                  	<unknown>
     1c4: 62 63                        	<unknown>
     1c6: 5f 69 6e 69                  	<unknown>
     1ca: 74 5f                        	<unknown>
     1cc: 61 72                        	<unknown>
     1ce: 72 61                        	<unknown>
     1d0: 79 00                        	<unknown>
     1d2: 76 78                        	<unknown>
     1d4: 5f 6e 75 6d                  	<unknown>
     1d8: 5f 74 68 72                  	<unknown>
     1dc: 65 61                        	<unknown>
     1de: 64 73                        	<unknown>
     1e0: 00 76                        	<unknown>
     1e2: 78 5f                        	<unknown>
     1e4: 77 61 72 70                  	<unknown>
     1e8: 5f 69 64 00                  	<unknown>
     1ec: 76 78                        	<unknown>
     1ee: 5f 74 68 72                  	<unknown>
     1f2: 65 61                        	<unknown>
     1f4: 64 5f                        	<unknown>
     1f6: 69 64                        	<unknown>
     1f8: 00 5f                        	<unknown>
     1fa: 5f 6c 69 62                  	<unknown>
     1fe: 63 5f 66 69                  	bge	a2, s6, 1694
     202: 6e 69                        	<unknown>
     204: 5f 61 72 72                  	<unknown>
     208: 61 79                        	<unknown>
     20a: 00 76                        	<unknown>
     20c: 78 5f                        	<unknown>
     20e: 73 65 74 5f                  	csrrsi	a0, 1527, 8
     212: 73 70 00 76                  	csrci	1888, 0
     216: 78 5f                        	<unknown>
     218: 62 61                        	<unknown>
     21a: 72 72                        	<unknown>
     21c: 69 65                        	<unknown>
     21e: 72 00                        	<unknown>
     220: 5f 5f 63 61                  	<unknown>
     224: 6c 6c                        	<unknown>
     226: 5f 65 78 69                  	<unknown>
     22a: 74 70                        	<unknown>
     22c: 72 6f                        	<unknown>
     22e: 63 73 00 5f                  	bgeu	zero, a6, 1510
     232: 5f 72 65 67                  	<unknown>
     236: 69 73                        	<unknown>
     238: 74 65                        	<unknown>
     23a: 72 5f                        	<unknown>
     23c: 65 78                        	<unknown>
     23e: 69 74                        	<unknown>
     240: 70 72                        	<unknown>
     242: 6f 63 00 5f                  	jal	t1, 26096
     246: 5f 42 53 53                  	<unknown>
     24a: 5f 45 4e 44                  	<unknown>
     24e: 5f 5f 00 5f                  	<unknown>
     252: 5f 62 73 73                  	<unknown>
     256: 5f 73 74 61                  	<unknown>
     25a: 72 74                        	<unknown>
     25c: 00 5f                        	<unknown>
     25e: 70 6f                        	<unknown>
     260: 63 6c 5f 6b                  	bltu	t5, s5, 1720
     264: 65 72                        	<unknown>
     266: 6e 65                        	<unknown>
     268: 6c 5f                        	<unknown>
     26a: 73 67 65 6d                  	csrrsi	a4, 1750, 10
     26e: 6d 5f                        	<unknown>
     270: 77 6f 72 6b                  	<unknown>
     274: 67 72 6f 75                  	<unknown>
     278: 70 5f                        	<unknown>
     27a: 66 61                        	<unknown>
     27c: 73 74 00 6d                  	csrrci	s0, 1744, 0
     280: 65 6d                        	<unknown>
     282: 73 65 74 00                  	csrrsi	a0, 7, 8
     286: 6d 61                        	<unknown>
     288: 69 6e                        	<unknown>
     28a: 00 76                        	<unknown>
     28c: 78 5f                        	<unknown>
     28e: 6e 75                        	<unknown>
     290: 6d 5f                        	<unknown>
     292: 63 79 63 6c                  	bgeu	t1, t1, 1746
     296: 65 73                        	<unknown>
     298: 00 61                        	<unknown>
     29a: 74 65                        	<unknown>
     29c: 78 69                        	<unknown>
     29e: 74 00                        	<unknown>
     2a0: 76 78                        	<unknown>
     2a2: 5f 74 68 72                  	<unknown>
     2a6: 65 61                        	<unknown>
     2a8: 64 5f                        	<unknown>
     2aa: 67 69 64 00                  	<unknown>
     2ae: 76 78                        	<unknown>
     2b0: 5f 6e 75 6d                  	<unknown>
     2b4: 5f 63 6f 72                  	<unknown>
     2b8: 65 73                        	<unknown>
     2ba: 00 76                        	<unknown>
     2bc: 78 5f                        	<unknown>
     2be: 77 61 72 70                  	<unknown>
     2c2: 5f 67 69 64                  	<unknown>
     2c6: 00 6b                        	<unknown>
     2c8: 65 72                        	<unknown>
     2ca: 6e 65                        	<unknown>
     2cc: 6c 5f                        	<unknown>
     2ce: 73 70 61 77                  	csrci	1910, 2
     2d2: 6e 5f                        	<unknown>
     2d4: 72 75                        	<unknown>
     2d6: 6e 5f                        	<unknown>
     2d8: 74 68                        	<unknown>
     2da: 72 65                        	<unknown>
     2dc: 61 64                        	<unknown>
     2de: 73 00 5f 5f                  	<unknown>
     2e2: 44 41                        	<unknown>
     2e4: 54 41                        	<unknown>
     2e6: 5f 42 45 47                  	<unknown>
     2ea: 49 4e                        	<unknown>
     2ec: 5f 5f 00 5f                  	<unknown>
     2f0: 65 64                        	<unknown>
     2f2: 61 74                        	<unknown>
     2f4: 61 00                        	<unknown>
     2f6: 5f 70 6f 63                  	<unknown>
     2fa: 6c 5f                        	<unknown>
     2fc: 6b 65 72 6e                  	<unknown>
     300: 65 6c                        	<unknown>
     302: 5f 73 67 65                  	<unknown>
     306: 6d 6d                        	<unknown>
     308: 00 5f                        	<unknown>
     30a: 65 78                        	<unknown>
     30c: 69 74                        	<unknown>
     30e: 00 76                        	<unknown>
     310: 78 5f                        	<unknown>
     312: 6e 75                        	<unknown>
     314: 6d 5f                        	<unknown>
     316: 69 6e                        	<unknown>
     318: 73 74 72 73                  	csrrci	s0, 1847, 4
     31c: 00                           	<unknown>

Disassembly of section .shstrtab:

00000000 .shstrtab:
       0: 00 2e                        	<unknown>
       2: 73 79 6d 74                  	csrrci	s2, 1862, 26
       6: 61 62                        	<unknown>
       8: 00 2e                        	<unknown>
       a: 73 74 72 74                  	csrrci	s0, 1863, 4
       e: 61 62                        	<unknown>
      10: 00 2e                        	<unknown>
      12: 73 68 73 74                  	csrrsi	a6, 1863, 6
      16: 72 74                        	<unknown>
      18: 61 62                        	<unknown>
      1a: 00 2e                        	<unknown>
      1c: 69 6e                        	<unknown>
      1e: 69 74                        	<unknown>
      20: 00 2e                        	<unknown>
      22: 74 65                        	<unknown>
      24: 78 74                        	<unknown>
      26: 00 2e                        	<unknown>
      28: 69 6e                        	<unknown>
      2a: 69 74                        	<unknown>
      2c: 5f 61 72 72                  	<unknown>
      30: 61 79                        	<unknown>
      32: 00 2e                        	<unknown>
      34: 64 61                        	<unknown>
      36: 74 61                        	<unknown>
      38: 00 2e                        	<unknown>
      3a: 73 64 61 74                  	csrrsi	s0, 1862, 2
      3e: 61 00                        	<unknown>
      40: 2e 62                        	<unknown>
      42: 73 73 00 2e                  	csrrci	t1, 736, 0
      46: 63 6f 6d 6d                  	bltu	s10, s6, 1758
      4a: 65 6e                        	<unknown>
      4c: 74 00                        	<unknown>
      4e: 2e 72                        	<unknown>
      50: 69 73                        	<unknown>
      52: 63 76 2e 61                  	bgeu	t3, s2, 1548
      56: 74 74                        	<unknown>
      58: 72 69                        	<unknown>
      5a: 62 75                        	<unknown>
      5c: 74 65                        	<unknown>
      5e: 73                           	<unknown>
      5f: 00                           	<unknown>
