
/tmp/pocl_vortex_kernel-cd-81-06-70-1c.elf:	file format ELF32-riscv


Disassembly of section .init:

80000000 _start:
80000000: 97 05 00 00                  	auipc	a1, 0
80000004: 93 85 85 62                  	addi	a1, a1, 1576
80000008: 73 25 10 fc                  	csrr	a0, 4033
8000000c: 6b 10 b5 00                  	<unknown>
80000010: ef 00 80 61                  	jal	1560
80000014: 13 05 10 00                  	addi	a0, zero, 1
80000018: 6b 00 05 00                  	<unknown>
8000001c: 17 25 00 00                  	auipc	a0, 2
80000020: 13 05 85 ed                  	addi	a0, a0, -296
80000024: 17 26 00 00                  	auipc	a2, 2
80000028: 13 06 06 f1                  	addi	a2, a2, -240
8000002c: 33 06 a6 40                  	sub	a2, a2, a0
80000030: 93 05 00 00                  	mv	a1, zero
80000034: ef 00 00 7f                  	jal	2032
80000038: 17 05 00 00                  	auipc	a0, 0
8000003c: 13 05 45 6f                  	addi	a0, a0, 1780
80000040: ef 00 40 6a                  	jal	1700
80000044: ef 00 40 74                  	jal	1860
80000048: ef 00 c0 40                  	jal	1036
8000004c: 6f 00 c0 6a                  	j	1708

Disassembly of section .text:

80000050 register_fini:
80000050: 93 07 00 00                  	mv	a5, zero
80000054: 63 88 07 00                  	beqz	a5, 16
80000058: 37 05 00 80                  	lui	a0, 524288
8000005c: 13 05 c5 72                  	addi	a0, a0, 1836
80000060: 6f 00 40 68                  	j	1668
80000064: 67 80 00 00                  	ret

80000068 kernel_spawn_callback:
80000068: 13 01 01 fd                  	addi	sp, sp, -48
8000006c: 23 26 11 02                  	sw	ra, 44(sp)
80000070: 23 24 81 02                  	sw	s0, 40(sp)
80000074: 23 22 91 02                  	sw	s1, 36(sp)
80000078: 23 20 21 03                  	sw	s2, 32(sp)
8000007c: 23 2e 31 01                  	sw	s3, 28(sp)
80000080: 23 2c 41 01                  	sw	s4, 24(sp)
80000084: 23 2a 51 01                  	sw	s5, 20(sp)
80000088: 23 28 61 01                  	sw	s6, 16(sp)
8000008c: 23 26 71 01                  	sw	s7, 12(sp)
80000090: 23 24 81 01                  	sw	s8, 8(sp)
80000094: ef 00 80 62                  	jal	1576
80000098: ef 00 40 5d                  	jal	1492
8000009c: ef 00 80 61                  	jal	1560
800000a0: 93 04 05 00                  	mv	s1, a0
800000a4: ef 00 80 5e                  	jal	1512
800000a8: 93 09 05 00                  	mv	s3, a0
800000ac: ef 00 00 5f                  	jal	1520
800000b0: 13 09 05 00                  	mv	s2, a0
800000b4: ef 00 80 60                  	jal	1544
800000b8: b7 25 00 80                  	lui	a1, 524290
800000bc: 93 85 45 ef                  	addi	a1, a1, -268
800000c0: 13 96 24 00                  	slli	a2, s1, 2
800000c4: b3 05 b6 00                  	add	a1, a2, a1
800000c8: 03 ac 05 00                  	lw	s8, 0(a1)
800000cc: 83 26 4c 01                  	lw	a3, 20(s8)
800000d0: 83 25 0c 01                  	lw	a1, 16(s8)
800000d4: 13 86 06 00                  	mv	a2, a3
800000d8: 63 c4 36 01                  	blt	a3, s3, 8
800000dc: 13 86 09 00                  	mv	a2, s3
800000e0: b3 a6 d9 00                  	slt	a3, s3, a3
800000e4: b3 86 d5 00                  	add	a3, a1, a3
800000e8: 13 07 10 00                  	addi	a4, zero, 1
800000ec: 63 c8 e6 08                  	blt	a3, a4, 144
800000f0: 33 87 35 03                  	mul	a4, a1, s3
800000f4: 83 25 0c 00                  	lw	a1, 0(s8)
800000f8: 33 06 e6 00                  	add	a2, a2, a4
800000fc: 03 27 cc 00                  	lw	a4, 12(s8)
80000100: 33 05 a6 02                  	mul	a0, a2, a0
80000104: 03 aa 05 00                  	lw	s4, 0(a1)
80000108: 03 a6 45 00                  	lw	a2, 4(a1)
8000010c: 33 05 e5 00                  	add	a0, a0, a4
80000110: 33 87 26 03                  	mul	a4, a3, s2
80000114: 33 04 e5 00                  	add	s0, a0, a4
80000118: 33 09 46 03                  	mul	s2, a2, s4
8000011c: b3 0a d4 00                  	add	s5, s0, a3
80000120: 33 0b c0 40                  	neg	s6, a2
80000124: b3 0b 20 41                  	neg	s7, s2
80000128: 33 46 24 03                  	div	a2, s0, s2
8000012c: 33 85 cb 02                  	mul	a0, s7, a2
80000130: 33 05 a4 00                  	add	a0, s0, a0
80000134: b3 46 45 03                  	div	a3, a0, s4
80000138: 03 a5 c5 00                  	lw	a0, 12(a1)
8000013c: 33 07 cb 02                  	mul	a4, s6, a2
80000140: 33 07 d7 40                  	sub	a4, a4, a3
80000144: 33 07 ea 02                  	mul	a4, s4, a4
80000148: 33 08 e5 00                  	add	a6, a0, a4
8000014c: 03 a7 05 01                  	lw	a4, 16(a1)
80000150: 83 a4 45 01                  	lw	s1, 20(a1)
80000154: 83 27 4c 00                  	lw	a5, 4(s8)
80000158: 03 25 8c 00                  	lw	a0, 8(s8)
8000015c: b3 06 d7 00                  	add	a3, a4, a3
80000160: 33 87 c4 00                  	add	a4, s1, a2
80000164: 33 06 04 01                  	add	a2, s0, a6
80000168: e7 80 07 00                  	jalr	a5
8000016c: 13 04 14 00                  	addi	s0, s0, 1
80000170: 63 56 54 01                  	bge	s0, s5, 12
80000174: 83 25 0c 00                  	lw	a1, 0(s8)
80000178: 6f f0 1f fb                  	j	-80
8000017c: 13 b5 19 00                  	seqz	a0, s3
80000180: 03 2c 81 00                  	lw	s8, 8(sp)
80000184: 83 2b c1 00                  	lw	s7, 12(sp)
80000188: 03 2b 01 01                  	lw	s6, 16(sp)
8000018c: 83 2a 41 01                  	lw	s5, 20(sp)
80000190: 03 2a 81 01                  	lw	s4, 24(sp)
80000194: 83 29 c1 01                  	lw	s3, 28(sp)
80000198: 03 29 01 02                  	lw	s2, 32(sp)
8000019c: 83 24 41 02                  	lw	s1, 36(sp)
800001a0: 03 24 81 02                  	lw	s0, 40(sp)
800001a4: 83 20 c1 02                  	lw	ra, 44(sp)
800001a8: 13 01 01 03                  	addi	sp, sp, 48
800001ac: 6f 00 00 4c                  	j	1216

800001b0 kernel_spawn_remaining_callback:
800001b0: 13 01 01 ff                  	addi	sp, sp, -16
800001b4: 23 26 11 00                  	sw	ra, 12(sp)
800001b8: 23 24 81 00                  	sw	s0, 8(sp)
800001bc: ef 00 00 4b                  	jal	1200
800001c0: ef 00 40 4f                  	jal	1268
800001c4: 13 04 05 00                  	mv	s0, a0
800001c8: ef 00 40 4e                  	jal	1252
800001cc: b7 25 00 80                  	lui	a1, 524290
800001d0: 93 85 45 ef                  	addi	a1, a1, -268
800001d4: 13 16 24 00                  	slli	a2, s0, 2
800001d8: b3 05 b6 00                  	add	a1, a2, a1
800001dc: 03 a6 05 00                  	lw	a2, 0(a1)
800001e0: 83 25 06 00                  	lw	a1, 0(a2)
800001e4: 83 26 c6 00                  	lw	a3, 12(a2)
800001e8: 03 a7 05 00                  	lw	a4, 0(a1)
800001ec: 83 a7 45 00                  	lw	a5, 4(a1)
800001f0: 33 85 a6 00                  	add	a0, a3, a0
800001f4: b3 86 e7 02                  	mul	a3, a5, a4
800001f8: b3 47 d5 02                  	div	a5, a0, a3
800001fc: b3 86 d7 02                  	mul	a3, a5, a3
80000200: 03 a4 c5 00                  	lw	s0, 12(a1)
80000204: 33 05 d5 40                  	sub	a0, a0, a3
80000208: b3 46 e5 02                  	div	a3, a0, a4
8000020c: 33 88 e6 02                  	mul	a6, a3, a4
80000210: b3 08 a4 00                  	add	a7, s0, a0
80000214: 03 a7 05 01                  	lw	a4, 16(a1)
80000218: 03 a4 45 01                  	lw	s0, 20(a1)
8000021c: 83 22 46 00                  	lw	t0, 4(a2)
80000220: 03 25 86 00                  	lw	a0, 8(a2)
80000224: 33 86 08 41                  	sub	a2, a7, a6
80000228: b3 06 d7 00                  	add	a3, a4, a3
8000022c: 33 07 f4 00                  	add	a4, s0, a5
80000230: e7 80 02 00                  	jalr	t0
80000234: 13 05 10 00                  	addi	a0, zero, 1
80000238: 03 24 81 00                  	lw	s0, 8(sp)
8000023c: 83 20 c1 00                  	lw	ra, 12(sp)
80000240: 13 01 01 01                  	addi	sp, sp, 16
80000244: 6f 00 80 42                  	j	1064

80000248 kernel_spawn:
80000248: 13 01 01 fc                  	addi	sp, sp, -64
8000024c: 23 2e 11 02                  	sw	ra, 60(sp)
80000250: 23 2c 81 02                  	sw	s0, 56(sp)
80000254: 23 2a 91 02                  	sw	s1, 52(sp)
80000258: 23 28 21 03                  	sw	s2, 48(sp)
8000025c: 23 26 31 03                  	sw	s3, 44(sp)
80000260: 23 24 41 03                  	sw	s4, 40(sp)
80000264: 23 22 51 03                  	sw	s5, 36(sp)
80000268: 23 20 61 03                  	sw	s6, 32(sp)
8000026c: 23 2e 71 01                  	sw	s7, 28(sp)
80000270: 23 2c 81 01                  	sw	s8, 24(sp)
80000274: 93 04 05 00                  	mv	s1, a0
80000278: 83 2b 05 00                  	lw	s7, 0(a0)
8000027c: 03 24 45 00                  	lw	s0, 4(a0)
80000280: 03 2c 85 00                  	lw	s8, 8(a0)
80000284: 13 09 06 00                  	mv	s2, a2
80000288: 93 89 05 00                  	mv	s3, a1
8000028c: ef 00 00 44                  	jal	1088
80000290: 13 0b 05 00                  	mv	s6, a0
80000294: ef 00 00 43                  	jal	1072
80000298: 13 0a 05 00                  	mv	s4, a0
8000029c: ef 00 00 42                  	jal	1056
800002a0: 93 0a 05 00                  	mv	s5, a0
800002a4: ef 00 00 41                  	jal	1040
800002a8: 93 05 f0 00                  	addi	a1, zero, 15
800002ac: 63 cc a5 16                  	blt	a1, a0, 376
800002b0: b3 05 74 03                  	mul	a1, s0, s7
800002b4: 33 86 85 03                  	mul	a2, a1, s8
800002b8: b3 85 4a 03                  	mul	a1, s5, s4
800002bc: 93 06 10 00                  	addi	a3, zero, 1
800002c0: 63 c8 c5 00                  	blt	a1, a2, 16
800002c4: 63 da 66 01                  	bge	a3, s6, 20
800002c8: 63 4c d5 00                  	blt	a0, a3, 24
800002cc: 6f 00 80 15                  	j	344
800002d0: b3 46 b6 02                  	div	a3, a2, a1
800002d4: e3 ca 66 ff                  	blt	a3, s6, -12
800002d8: 93 06 0b 00                  	mv	a3, s6
800002dc: 63 54 d5 14                  	bge	a0, a3, 328
800002e0: 13 07 fb ff                  	addi	a4, s6, -1
800002e4: b3 45 d6 02                  	div	a1, a2, a3
800002e8: 63 0e e5 00                  	beq	a0, a4, 28
800002ec: 13 06 00 00                  	mv	a2, zero
800002f0: b3 06 b6 00                  	add	a3, a2, a1
800002f4: 33 c6 56 03                  	div	a2, a3, s5
800002f8: 13 07 00 00                  	mv	a4, zero
800002fc: 63 50 46 03                  	bge	a2, s4, 32
80000300: 6f 00 00 02                  	j	32
80000304: b3 86 d5 02                  	mul	a3, a1, a3
80000308: 33 06 d6 40                  	sub	a2, a2, a3
8000030c: b3 06 b6 00                  	add	a3, a2, a1
80000310: 33 c6 56 03                  	div	a2, a3, s5
80000314: 13 07 00 00                  	mv	a4, zero
80000318: 63 44 46 01                  	blt	a2, s4, 8
8000031c: 33 47 46 03                  	div	a4, a2, s4
80000320: 93 07 00 00                  	mv	a5, zero
80000324: b3 0a 56 03                  	mul	s5, a2, s5
80000328: 13 04 10 00                  	addi	s0, zero, 1
8000032c: 63 08 07 00                  	beqz	a4, 16
80000330: b3 07 47 03                  	mul	a5, a4, s4
80000334: b3 07 f6 40                  	sub	a5, a2, a5
80000338: 13 04 07 00                  	mv	s0, a4
8000033c: 33 8b 56 41                  	sub	s6, a3, s5
80000340: 23 20 91 00                  	sw	s1, 0(sp)
80000344: 23 22 31 01                  	sw	s3, 4(sp)
80000348: 23 24 21 01                  	sw	s2, 8(sp)
8000034c: b3 85 a5 02                  	mul	a1, a1, a0
80000350: 23 26 b1 00                  	sw	a1, 12(sp)
80000354: 23 28 81 00                  	sw	s0, 16(sp)
80000358: 23 2a f1 00                  	sw	a5, 20(sp)
8000035c: b7 25 00 80                  	lui	a1, 524290
80000360: 93 85 45 ef                  	addi	a1, a1, -268
80000364: 13 15 25 00                  	slli	a0, a0, 2
80000368: 33 05 b5 00                  	add	a0, a0, a1
8000036c: 93 05 01 00                  	mv	a1, sp
80000370: 93 06 20 00                  	addi	a3, zero, 2
80000374: 23 20 b5 00                  	sw	a1, 0(a0)
80000378: 63 40 d6 02                  	blt	a2, a3, 32
8000037c: 63 44 46 01                  	blt	a2, s4, 8
80000380: 13 06 0a 00                  	mv	a2, s4
80000384: 37 05 00 80                  	lui	a0, 524288
80000388: 93 05 85 06                  	addi	a1, a0, 104
8000038c: 13 05 06 00                  	mv	a0, a2
80000390: ef 00 40 2d                  	jal	724
80000394: ef f0 5f cd                  	jal	-812
80000398: 63 06 0b 08                  	beqz	s6, 140
8000039c: 23 26 51 01                  	sw	s5, 12(sp)
800003a0: 13 05 0b 00                  	mv	a0, s6
800003a4: ef 00 80 2c                  	jal	712
800003a8: ef 00 c0 30                  	jal	780
800003ac: 13 04 05 00                  	mv	s0, a0
800003b0: ef 00 c0 2f                  	jal	764
800003b4: b7 25 00 80                  	lui	a1, 524290
800003b8: 93 85 45 ef                  	addi	a1, a1, -268
800003bc: 13 16 24 00                  	slli	a2, s0, 2
800003c0: b3 05 b6 00                  	add	a1, a2, a1
800003c4: 03 a6 05 00                  	lw	a2, 0(a1)
800003c8: 83 25 06 00                  	lw	a1, 0(a2)
800003cc: 83 26 c6 00                  	lw	a3, 12(a2)
800003d0: 03 a7 05 00                  	lw	a4, 0(a1)
800003d4: 83 a7 45 00                  	lw	a5, 4(a1)
800003d8: 33 85 a6 00                  	add	a0, a3, a0
800003dc: b3 86 e7 02                  	mul	a3, a5, a4
800003e0: b3 47 d5 02                  	div	a5, a0, a3
800003e4: b3 86 d7 02                  	mul	a3, a5, a3
800003e8: 83 a4 c5 00                  	lw	s1, 12(a1)
800003ec: 33 05 d5 40                  	sub	a0, a0, a3
800003f0: b3 46 e5 02                  	div	a3, a0, a4
800003f4: 33 88 e6 02                  	mul	a6, a3, a4
800003f8: b3 84 a4 00                  	add	s1, s1, a0
800003fc: 03 a4 05 01                  	lw	s0, 16(a1)
80000400: 03 a7 45 01                  	lw	a4, 20(a1)
80000404: 83 28 46 00                  	lw	a7, 4(a2)
80000408: 03 25 86 00                  	lw	a0, 8(a2)
8000040c: 33 86 04 41                  	sub	a2, s1, a6
80000410: b3 06 d4 00                  	add	a3, s0, a3
80000414: 33 07 f7 00                  	add	a4, a4, a5
80000418: e7 80 08 00                  	jalr	a7
8000041c: 13 05 10 00                  	addi	a0, zero, 1
80000420: ef 00 c0 24                  	jal	588
80000424: 03 2c 81 01                  	lw	s8, 24(sp)
80000428: 83 2b c1 01                  	lw	s7, 28(sp)
8000042c: 03 2b 01 02                  	lw	s6, 32(sp)
80000430: 83 2a 41 02                  	lw	s5, 36(sp)
80000434: 03 2a 81 02                  	lw	s4, 40(sp)
80000438: 83 29 c1 02                  	lw	s3, 44(sp)
8000043c: 03 29 01 03                  	lw	s2, 48(sp)
80000440: 83 24 41 03                  	lw	s1, 52(sp)
80000444: 03 24 81 03                  	lw	s0, 56(sp)
80000448: 83 20 c1 03                  	lw	ra, 60(sp)
8000044c: 13 01 01 04                  	addi	sp, sp, 64
80000450: 67 80 00 00                  	ret

80000454 main:
80000454: 13 01 01 ff                  	addi	sp, sp, -16
80000458: 23 26 11 00                  	sw	ra, 12(sp)
8000045c: 37 05 00 80                  	lui	a0, 524288
80000460: 93 05 85 51                  	addi	a1, a0, 1304
80000464: 37 05 ff 7f                  	lui	a0, 524272
80000468: 13 06 45 03                  	addi	a2, a0, 52
8000046c: 37 05 ff 7f                  	lui	a0, 524272
80000470: ef f0 9f dd                  	jal	-552
80000474: 13 05 00 00                  	mv	a0, zero
80000478: 83 20 c1 00                  	lw	ra, 12(sp)
8000047c: 13 01 01 01                  	addi	sp, sp, 16
80000480: 67 80 00 00                  	ret

80000484 _pocl_kernel_saxpy:
80000484: 13 01 01 ff                  	addi	sp, sp, -16
80000488: 23 26 11 00                  	sw	ra, 12(sp)
8000048c: 23 24 81 00                  	sw	s0, 8(sp)
80000490: 13 04 01 01                  	addi	s0, sp, 16
80000494: 13 71 c1 ff                  	andi	sp, sp, -4
80000498: 03 27 86 01                  	lw	a4, 24(a2)
8000049c: 83 27 c6 00                  	lw	a5, 12(a2)
800004a0: 93 08 00 00                  	mv	a7, zero
800004a4: b3 06 d7 02                  	mul	a3, a4, a3
800004a8: b3 86 d7 00                  	add	a3, a5, a3
800004ac: 83 22 c6 01                  	lw	t0, 28(a2)
800004b0: 03 28 06 02                  	lw	a6, 32(a2)
800004b4: 13 96 26 00                  	slli	a2, a3, 2
800004b8: 33 83 c5 00                  	add	t1, a1, a2
800004bc: b3 06 c5 00                  	add	a3, a0, a2
800004c0: 13 06 00 00                  	mv	a2, zero
800004c4: 93 07 00 00                  	mv	a5, zero
800004c8: 13 85 06 00                  	mv	a0, a3
800004cc: 93 05 03 00                  	mv	a1, t1
800004d0: 07 20 05 00                  	flw	ft0, 0(a0)
800004d4: 87 a0 05 00                  	flw	ft1, 0(a1)
800004d8: 53 70 a0 10                  	fmul.s	ft0, ft0, fa0
800004dc: 53 70 10 00                  	fadd.s	ft0, ft0, ft1
800004e0: 27 a0 05 00                  	fsw	ft0, 0(a1)
800004e4: 93 87 17 00                  	addi	a5, a5, 1
800004e8: 93 85 45 00                  	addi	a1, a1, 4
800004ec: 13 05 45 00                  	addi	a0, a0, 4
800004f0: e3 e0 e7 fe                  	bltu	a5, a4, -32
800004f4: 13 06 16 00                  	addi	a2, a2, 1
800004f8: e3 66 56 fc                  	bltu	a2, t0, -52
800004fc: 93 88 18 00                  	addi	a7, a7, 1
80000500: e3 e0 08 fd                  	bltu	a7, a6, -64
80000504: 13 01 04 ff                  	addi	sp, s0, -16
80000508: 03 24 81 00                  	lw	s0, 8(sp)
8000050c: 83 20 c1 00                  	lw	ra, 12(sp)
80000510: 13 01 01 01                  	addi	sp, sp, 16
80000514: 67 80 00 00                  	ret

80000518 _pocl_kernel_saxpy_workgroup:
80000518: 83 26 85 00                  	lw	a3, 8(a0)
8000051c: 93 08 00 00                  	mv	a7, zero
80000520: 03 27 05 00                  	lw	a4, 0(a0)
80000524: 83 27 45 00                  	lw	a5, 4(a0)
80000528: 07 a0 06 00                  	flw	ft0, 0(a3)
8000052c: 03 a5 85 01                  	lw	a0, 24(a1)
80000530: 83 a6 c5 00                  	lw	a3, 12(a1)
80000534: 03 27 07 00                  	lw	a4, 0(a4)
80000538: 83 a7 07 00                  	lw	a5, 0(a5)
8000053c: 33 06 c5 02                  	mul	a2, a0, a2
80000540: 33 86 c6 00                  	add	a2, a3, a2
80000544: 83 a2 c5 01                  	lw	t0, 28(a1)
80000548: 03 a8 05 02                  	lw	a6, 32(a1)
8000054c: 93 15 26 00                  	slli	a1, a2, 2
80000550: 33 83 b7 00                  	add	t1, a5, a1
80000554: 33 06 b7 00                  	add	a2, a4, a1
80000558: 93 05 00 00                  	mv	a1, zero
8000055c: 93 06 00 00                  	mv	a3, zero
80000560: 93 07 06 00                  	mv	a5, a2
80000564: 13 07 03 00                  	mv	a4, t1
80000568: 87 a0 07 00                  	flw	ft1, 0(a5)
8000056c: 07 21 07 00                  	flw	ft2, 0(a4)
80000570: d3 f0 00 10                  	fmul.s	ft1, ft1, ft0
80000574: d3 f0 20 00                  	fadd.s	ft1, ft1, ft2
80000578: 27 20 17 00                  	fsw	ft1, 0(a4)
8000057c: 93 86 16 00                  	addi	a3, a3, 1
80000580: 13 07 47 00                  	addi	a4, a4, 4
80000584: 93 87 47 00                  	addi	a5, a5, 4
80000588: e3 e0 a6 fe                  	bltu	a3, a0, -32
8000058c: 93 85 15 00                  	addi	a1, a1, 1
80000590: e3 e6 55 fc                  	bltu	a1, t0, -52
80000594: 93 88 18 00                  	addi	a7, a7, 1
80000598: e3 e0 08 fd                  	bltu	a7, a6, -64
8000059c: 67 80 00 00                  	ret

800005a0 _pocl_kernel_saxpy_workgroup_fast:
800005a0: 83 26 85 00                  	lw	a3, 8(a0)
800005a4: 93 08 00 00                  	mv	a7, zero
800005a8: 07 a0 06 00                  	flw	ft0, 0(a3)
800005ac: 03 a7 85 01                  	lw	a4, 24(a1)
800005b0: 83 a6 c5 00                  	lw	a3, 12(a1)
800005b4: 83 27 05 00                  	lw	a5, 0(a0)
800005b8: 03 25 45 00                  	lw	a0, 4(a0)
800005bc: 33 06 c7 02                  	mul	a2, a4, a2
800005c0: 33 86 c6 00                  	add	a2, a3, a2
800005c4: 83 a2 c5 01                  	lw	t0, 28(a1)
800005c8: 03 a8 05 02                  	lw	a6, 32(a1)
800005cc: 93 15 26 00                  	slli	a1, a2, 2
800005d0: 33 03 b5 00                  	add	t1, a0, a1
800005d4: 33 85 b7 00                  	add	a0, a5, a1
800005d8: 93 05 00 00                  	mv	a1, zero
800005dc: 93 06 00 00                  	mv	a3, zero
800005e0: 93 07 05 00                  	mv	a5, a0
800005e4: 13 06 03 00                  	mv	a2, t1
800005e8: 87 a0 07 00                  	flw	ft1, 0(a5)
800005ec: 07 21 06 00                  	flw	ft2, 0(a2)
800005f0: d3 f0 00 10                  	fmul.s	ft1, ft1, ft0
800005f4: d3 f0 20 00                  	fadd.s	ft1, ft1, ft2
800005f8: 27 20 16 00                  	fsw	ft1, 0(a2)
800005fc: 93 86 16 00                  	addi	a3, a3, 1
80000600: 13 06 46 00                  	addi	a2, a2, 4
80000604: 93 87 47 00                  	addi	a5, a5, 4
80000608: e3 e0 e6 fe                  	bltu	a3, a4, -32
8000060c: 93 85 15 00                  	addi	a1, a1, 1
80000610: e3 e6 55 fc                  	bltu	a1, t0, -52
80000614: 93 88 18 00                  	addi	a7, a7, 1
80000618: e3 e0 08 fd                  	bltu	a7, a6, -64
8000061c: 67 80 00 00                  	ret

80000620 _exit:
80000620: 13 05 00 00                  	mv	a0, zero
80000624: 6b 00 05 00                  	<unknown>

80000628 vx_set_sp:
80000628: 73 25 00 fc                  	csrr	a0, 4032
8000062c: 6b 00 05 00                  	<unknown>
80000630: 97 21 00 00                  	auipc	gp, 2
80000634: 93 81 81 c9                  	addi	gp, gp, -872
80000638: 17 01 00 7f                  	auipc	sp, 520192
8000063c: 13 01 81 9c                  	addi	sp, sp, -1592
80000640: 93 05 00 40                  	addi	a1, zero, 1024
80000644: 73 26 10 cc                  	csrr	a2, 3265
80000648: b3 85 c5 02                  	mul	a1, a1, a2
8000064c: 33 01 b1 40                  	sub	sp, sp, a1
80000650: f3 26 30 cc                  	csrr	a3, 3267
80000654: 63 86 06 00                  	beqz	a3, 12
80000658: 13 05 00 00                  	mv	a0, zero
8000065c: 6b 00 05 00                  	<unknown>

80000660 RETURN:
80000660: 67 80 00 00                  	ret

80000664 vx_wspawn:
80000664: 6b 10 b5 00                  	<unknown>
80000668: 67 80 00 00                  	ret

8000066c vx_tmc:
8000066c: 6b 00 05 00                  	<unknown>
80000670: 67 80 00 00                  	ret

80000674 vx_barrier:
80000674: 6b 40 b5 00                  	<unknown>
80000678: 67 80 00 00                  	ret

8000067c vx_split:
8000067c: 6b 20 05 00                  	<unknown>
80000680: 67 80 00 00                  	ret

80000684 vx_join:
80000684: 6b 30 00 00                  	<unknown>
80000688: 67 80 00 00                  	ret

8000068c vx_warp_id:
8000068c: 73 25 30 cc                  	csrr	a0, 3267
80000690: 67 80 00 00                  	ret

80000694 vx_warp_gid:
80000694: 73 25 40 f1                  	csrr	a0, mhartid
80000698: 67 80 00 00                  	ret

8000069c vx_thread_id:
8000069c: 73 25 00 cc                  	csrr	a0, 3264
800006a0: 67 80 00 00                  	ret

800006a4 vx_thread_lid:
800006a4: 73 25 10 cc                  	csrr	a0, 3265
800006a8: 67 80 00 00                  	ret

800006ac vx_thread_gid:
800006ac: 73 25 20 cc                  	csrr	a0, 3266
800006b0: 67 80 00 00                  	ret

800006b4 vx_core_id:
800006b4: 73 25 50 cc                  	csrr	a0, 3269
800006b8: 67 80 00 00                  	ret

800006bc vx_num_threads:
800006bc: 73 25 00 fc                  	csrr	a0, 4032
800006c0: 67 80 00 00                  	ret

800006c4 vx_num_warps:
800006c4: 73 25 10 fc                  	csrr	a0, 4033
800006c8: 67 80 00 00                  	ret

800006cc vx_num_cores:
800006cc: 73 25 20 fc                  	csrr	a0, 4034
800006d0: 67 80 00 00                  	ret

800006d4 vx_num_cycles:
800006d4: 73 25 00 b0                  	csrr	a0, mcycle
800006d8: 67 80 00 00                  	ret

800006dc vx_num_instrs:
800006dc: 73 25 20 b0                  	csrr	a0, minstret
800006e0: 67 80 00 00                  	ret

800006e4 atexit:
800006e4: 93 05 05 00                  	mv	a1, a0
800006e8: 93 06 00 00                  	mv	a3, zero
800006ec: 13 06 00 00                  	mv	a2, zero
800006f0: 13 05 00 00                  	mv	a0, zero
800006f4: 6f 00 c0 20                  	j	524

800006f8 exit:
800006f8: 13 01 01 ff                  	addi	sp, sp, -16
800006fc: 93 05 00 00                  	mv	a1, zero
80000700: 23 24 81 00                  	sw	s0, 8(sp)
80000704: 23 26 11 00                  	sw	ra, 12(sp)
80000708: 13 04 05 00                  	mv	s0, a0
8000070c: ef 00 00 29                  	jal	656
80000710: b7 27 00 80                  	lui	a5, 524290
80000714: 03 a5 07 ef                  	lw	a0, -272(a5)
80000718: 83 27 c5 03                  	lw	a5, 60(a0)
8000071c: 63 84 07 00                  	beqz	a5, 8
80000720: e7 80 07 00                  	jalr	a5
80000724: 13 05 04 00                  	mv	a0, s0
80000728: ef f0 9f ef                  	jal	-264

8000072c __libc_fini_array:
8000072c: 13 01 01 ff                  	addi	sp, sp, -16
80000730: 23 24 81 00                  	sw	s0, 8(sp)
80000734: b7 27 00 80                  	lui	a5, 524290
80000738: 37 24 00 80                  	lui	s0, 524290
8000073c: 13 04 44 ac                  	addi	s0, s0, -1340
80000740: 93 87 47 ac                  	addi	a5, a5, -1340
80000744: b3 87 87 40                  	sub	a5, a5, s0
80000748: 23 22 91 00                  	sw	s1, 4(sp)
8000074c: 23 26 11 00                  	sw	ra, 12(sp)
80000750: 93 d4 27 40                  	srai	s1, a5, 2
80000754: 63 80 04 02                  	beqz	s1, 32
80000758: 93 87 c7 ff                  	addi	a5, a5, -4
8000075c: 33 84 87 00                  	add	s0, a5, s0
80000760: 83 27 04 00                  	lw	a5, 0(s0)
80000764: 93 84 f4 ff                  	addi	s1, s1, -1
80000768: 13 04 c4 ff                  	addi	s0, s0, -4
8000076c: e7 80 07 00                  	jalr	a5
80000770: e3 98 04 fe                  	bnez	s1, -16
80000774: 83 20 c1 00                  	lw	ra, 12(sp)
80000778: 03 24 81 00                  	lw	s0, 8(sp)
8000077c: 83 24 41 00                  	lw	s1, 4(sp)
80000780: 13 01 01 01                  	addi	sp, sp, 16
80000784: 67 80 00 00                  	ret

80000788 __libc_init_array:
80000788: 13 01 01 ff                  	addi	sp, sp, -16
8000078c: 23 24 81 00                  	sw	s0, 8(sp)
80000790: 23 20 21 01                  	sw	s2, 0(sp)
80000794: 37 24 00 80                  	lui	s0, 524290
80000798: 37 29 00 80                  	lui	s2, 524290
8000079c: 93 07 04 ac                  	addi	a5, s0, -1344
800007a0: 13 09 09 ac                  	addi	s2, s2, -1344
800007a4: 33 09 f9 40                  	sub	s2, s2, a5
800007a8: 23 26 11 00                  	sw	ra, 12(sp)
800007ac: 23 22 91 00                  	sw	s1, 4(sp)
800007b0: 13 59 29 40                  	srai	s2, s2, 2
800007b4: 63 00 09 02                  	beqz	s2, 32
800007b8: 13 04 04 ac                  	addi	s0, s0, -1344
800007bc: 93 04 00 00                  	mv	s1, zero
800007c0: 83 27 04 00                  	lw	a5, 0(s0)
800007c4: 93 84 14 00                  	addi	s1, s1, 1
800007c8: 13 04 44 00                  	addi	s0, s0, 4
800007cc: e7 80 07 00                  	jalr	a5
800007d0: e3 18 99 fe                  	bne	s2, s1, -16
800007d4: 37 24 00 80                  	lui	s0, 524290
800007d8: 37 29 00 80                  	lui	s2, 524290
800007dc: 93 07 04 ac                  	addi	a5, s0, -1344
800007e0: 13 09 49 ac                  	addi	s2, s2, -1340
800007e4: 33 09 f9 40                  	sub	s2, s2, a5
800007e8: 13 59 29 40                  	srai	s2, s2, 2
800007ec: 63 00 09 02                  	beqz	s2, 32
800007f0: 13 04 04 ac                  	addi	s0, s0, -1344
800007f4: 93 04 00 00                  	mv	s1, zero
800007f8: 83 27 04 00                  	lw	a5, 0(s0)
800007fc: 93 84 14 00                  	addi	s1, s1, 1
80000800: 13 04 44 00                  	addi	s0, s0, 4
80000804: e7 80 07 00                  	jalr	a5
80000808: e3 18 99 fe                  	bne	s2, s1, -16
8000080c: 83 20 c1 00                  	lw	ra, 12(sp)
80000810: 03 24 81 00                  	lw	s0, 8(sp)
80000814: 83 24 41 00                  	lw	s1, 4(sp)
80000818: 03 29 01 00                  	lw	s2, 0(sp)
8000081c: 13 01 01 01                  	addi	sp, sp, 16
80000820: 67 80 00 00                  	ret

80000824 memset:
80000824: 13 03 f0 00                  	addi	t1, zero, 15
80000828: 13 07 05 00                  	mv	a4, a0
8000082c: 63 7e c3 02                  	bgeu	t1, a2, 60
80000830: 93 77 f7 00                  	andi	a5, a4, 15
80000834: 63 90 07 0a                  	bnez	a5, 160
80000838: 63 92 05 08                  	bnez	a1, 132
8000083c: 93 76 06 ff                  	andi	a3, a2, -16
80000840: 13 76 f6 00                  	andi	a2, a2, 15
80000844: b3 86 e6 00                  	add	a3, a3, a4
80000848: 23 20 b7 00                  	sw	a1, 0(a4)
8000084c: 23 22 b7 00                  	sw	a1, 4(a4)
80000850: 23 24 b7 00                  	sw	a1, 8(a4)
80000854: 23 26 b7 00                  	sw	a1, 12(a4)
80000858: 13 07 07 01                  	addi	a4, a4, 16
8000085c: e3 66 d7 fe                  	bltu	a4, a3, -20
80000860: 63 14 06 00                  	bnez	a2, 8
80000864: 67 80 00 00                  	ret
80000868: b3 06 c3 40                  	sub	a3, t1, a2
8000086c: 93 96 26 00                  	slli	a3, a3, 2
80000870: 97 02 00 00                  	auipc	t0, 0
80000874: b3 86 56 00                  	add	a3, a3, t0
80000878: 67 80 c6 00                  	jr	12(a3)
8000087c: 23 07 b7 00                  	sb	a1, 14(a4)
80000880: a3 06 b7 00                  	sb	a1, 13(a4)
80000884: 23 06 b7 00                  	sb	a1, 12(a4)
80000888: a3 05 b7 00                  	sb	a1, 11(a4)
8000088c: 23 05 b7 00                  	sb	a1, 10(a4)
80000890: a3 04 b7 00                  	sb	a1, 9(a4)
80000894: 23 04 b7 00                  	sb	a1, 8(a4)
80000898: a3 03 b7 00                  	sb	a1, 7(a4)
8000089c: 23 03 b7 00                  	sb	a1, 6(a4)
800008a0: a3 02 b7 00                  	sb	a1, 5(a4)
800008a4: 23 02 b7 00                  	sb	a1, 4(a4)
800008a8: a3 01 b7 00                  	sb	a1, 3(a4)
800008ac: 23 01 b7 00                  	sb	a1, 2(a4)
800008b0: a3 00 b7 00                  	sb	a1, 1(a4)
800008b4: 23 00 b7 00                  	sb	a1, 0(a4)
800008b8: 67 80 00 00                  	ret
800008bc: 93 f5 f5 0f                  	andi	a1, a1, 255
800008c0: 93 96 85 00                  	slli	a3, a1, 8
800008c4: b3 e5 d5 00                  	or	a1, a1, a3
800008c8: 93 96 05 01                  	slli	a3, a1, 16
800008cc: b3 e5 d5 00                  	or	a1, a1, a3
800008d0: 6f f0 df f6                  	j	-148
800008d4: 93 96 27 00                  	slli	a3, a5, 2
800008d8: 97 02 00 00                  	auipc	t0, 0
800008dc: b3 86 56 00                  	add	a3, a3, t0
800008e0: 93 82 00 00                  	mv	t0, ra
800008e4: e7 80 06 fa                  	jalr	-96(a3)
800008e8: 93 80 02 00                  	mv	ra, t0
800008ec: 93 87 07 ff                  	addi	a5, a5, -16
800008f0: 33 07 f7 40                  	sub	a4, a4, a5
800008f4: 33 06 f6 00                  	add	a2, a2, a5
800008f8: e3 78 c3 f6                  	bgeu	t1, a2, -144
800008fc: 6f f0 df f3                  	j	-196

80000900 __register_exitproc:
80000900: b7 27 00 80                  	lui	a5, 524290
80000904: 03 a7 07 ef                  	lw	a4, -272(a5)
80000908: 83 27 87 14                  	lw	a5, 328(a4)
8000090c: 63 8c 07 04                  	beqz	a5, 88
80000910: 03 a7 47 00                  	lw	a4, 4(a5)
80000914: 13 08 f0 01                  	addi	a6, zero, 31
80000918: 63 4e e8 06                  	blt	a6, a4, 124
8000091c: 13 18 27 00                  	slli	a6, a4, 2
80000920: 63 06 05 02                  	beqz	a0, 44
80000924: 33 83 07 01                  	add	t1, a5, a6
80000928: 23 24 c3 08                  	sw	a2, 136(t1)
8000092c: 83 a8 87 18                  	lw	a7, 392(a5)
80000930: 13 06 10 00                  	addi	a2, zero, 1
80000934: 33 16 e6 00                  	sll	a2, a2, a4
80000938: b3 e8 c8 00                  	or	a7, a7, a2
8000093c: 23 a4 17 19                  	sw	a7, 392(a5)
80000940: 23 24 d3 10                  	sw	a3, 264(t1)
80000944: 93 06 20 00                  	addi	a3, zero, 2
80000948: 63 04 d5 02                  	beq	a0, a3, 40
8000094c: 13 07 17 00                  	addi	a4, a4, 1
80000950: 23 a2 e7 00                  	sw	a4, 4(a5)
80000954: b3 87 07 01                  	add	a5, a5, a6
80000958: 23 a4 b7 00                  	sw	a1, 8(a5)
8000095c: 13 05 00 00                  	mv	a0, zero
80000960: 67 80 00 00                  	ret
80000964: 93 07 c7 14                  	addi	a5, a4, 332
80000968: 23 24 f7 14                  	sw	a5, 328(a4)
8000096c: 6f f0 5f fa                  	j	-92
80000970: 83 a6 c7 18                  	lw	a3, 396(a5)
80000974: 13 07 17 00                  	addi	a4, a4, 1
80000978: 23 a2 e7 00                  	sw	a4, 4(a5)
8000097c: 33 e6 c6 00                  	or	a2, a3, a2
80000980: 23 a6 c7 18                  	sw	a2, 396(a5)
80000984: b3 87 07 01                  	add	a5, a5, a6
80000988: 23 a4 b7 00                  	sw	a1, 8(a5)
8000098c: 13 05 00 00                  	mv	a0, zero
80000990: 67 80 00 00                  	ret
80000994: 13 05 f0 ff                  	addi	a0, zero, -1
80000998: 67 80 00 00                  	ret

8000099c __call_exitprocs:
8000099c: 13 01 01 fd                  	addi	sp, sp, -48
800009a0: b7 27 00 80                  	lui	a5, 524290
800009a4: 23 2c 41 01                  	sw	s4, 24(sp)
800009a8: 03 aa 07 ef                  	lw	s4, -272(a5)
800009ac: 23 20 21 03                  	sw	s2, 32(sp)
800009b0: 23 26 11 02                  	sw	ra, 44(sp)
800009b4: 03 29 8a 14                  	lw	s2, 328(s4)
800009b8: 23 24 81 02                  	sw	s0, 40(sp)
800009bc: 23 22 91 02                  	sw	s1, 36(sp)
800009c0: 23 2e 31 01                  	sw	s3, 28(sp)
800009c4: 23 2a 51 01                  	sw	s5, 20(sp)
800009c8: 23 28 61 01                  	sw	s6, 16(sp)
800009cc: 23 26 71 01                  	sw	s7, 12(sp)
800009d0: 23 24 81 01                  	sw	s8, 8(sp)
800009d4: 63 00 09 04                  	beqz	s2, 64
800009d8: 13 0b 05 00                  	mv	s6, a0
800009dc: 93 8b 05 00                  	mv	s7, a1
800009e0: 93 0a 10 00                  	addi	s5, zero, 1
800009e4: 93 09 f0 ff                  	addi	s3, zero, -1
800009e8: 83 24 49 00                  	lw	s1, 4(s2)
800009ec: 13 84 f4 ff                  	addi	s0, s1, -1
800009f0: 63 42 04 02                  	bltz	s0, 36
800009f4: 93 94 24 00                  	slli	s1, s1, 2
800009f8: b3 04 99 00                  	add	s1, s2, s1
800009fc: 63 84 0b 04                  	beqz	s7, 72
80000a00: 83 a7 44 10                  	lw	a5, 260(s1)
80000a04: 63 80 77 05                  	beq	a5, s7, 64
80000a08: 13 04 f4 ff                  	addi	s0, s0, -1
80000a0c: 93 84 c4 ff                  	addi	s1, s1, -4
80000a10: e3 16 34 ff                  	bne	s0, s3, -20
80000a14: 83 20 c1 02                  	lw	ra, 44(sp)
80000a18: 03 24 81 02                  	lw	s0, 40(sp)
80000a1c: 83 24 41 02                  	lw	s1, 36(sp)
80000a20: 03 29 01 02                  	lw	s2, 32(sp)
80000a24: 83 29 c1 01                  	lw	s3, 28(sp)
80000a28: 03 2a 81 01                  	lw	s4, 24(sp)
80000a2c: 83 2a 41 01                  	lw	s5, 20(sp)
80000a30: 03 2b 01 01                  	lw	s6, 16(sp)
80000a34: 83 2b c1 00                  	lw	s7, 12(sp)
80000a38: 03 2c 81 00                  	lw	s8, 8(sp)
80000a3c: 13 01 01 03                  	addi	sp, sp, 48
80000a40: 67 80 00 00                  	ret
80000a44: 83 27 49 00                  	lw	a5, 4(s2)
80000a48: 83 a6 44 00                  	lw	a3, 4(s1)
80000a4c: 93 87 f7 ff                  	addi	a5, a5, -1
80000a50: 63 8e 87 04                  	beq	a5, s0, 92
80000a54: 23 a2 04 00                  	sw	zero, 4(s1)
80000a58: e3 88 06 fa                  	beqz	a3, -80
80000a5c: 83 27 89 18                  	lw	a5, 392(s2)
80000a60: 33 97 8a 00                  	sll	a4, s5, s0
80000a64: 03 2c 49 00                  	lw	s8, 4(s2)
80000a68: b3 77 f7 00                  	and	a5, a4, a5
80000a6c: 63 92 07 02                  	bnez	a5, 36
80000a70: e7 80 06 00                  	jalr	a3
80000a74: 03 27 49 00                  	lw	a4, 4(s2)
80000a78: 83 27 8a 14                  	lw	a5, 328(s4)
80000a7c: 63 14 87 01                  	bne	a4, s8, 8
80000a80: e3 04 f9 f8                  	beq	s2, a5, -120
80000a84: e3 88 07 f8                  	beqz	a5, -112
80000a88: 13 89 07 00                  	mv	s2, a5
80000a8c: 6f f0 df f5                  	j	-164
80000a90: 83 27 c9 18                  	lw	a5, 396(s2)
80000a94: 83 a5 44 08                  	lw	a1, 132(s1)
80000a98: 33 77 f7 00                  	and	a4, a4, a5
80000a9c: 63 1c 07 00                  	bnez	a4, 24
80000aa0: 13 05 0b 00                  	mv	a0, s6
80000aa4: e7 80 06 00                  	jalr	a3
80000aa8: 6f f0 df fc                  	j	-52
80000aac: 23 22 89 00                  	sw	s0, 4(s2)
80000ab0: 6f f0 9f fa                  	j	-88
80000ab4: 13 85 05 00                  	mv	a0, a1
80000ab8: e7 80 06 00                  	jalr	a3
80000abc: 6f f0 9f fb                  	j	-72

Disassembly of section .init_array:

80001ac0 __preinit_array_start:
80001ac0: 50 00                        	<unknown>
80001ac2: 00 80                        	<unknown>

Disassembly of section .data:

80001ac8 impure_data:
80001ac8: 00 00                        	<unknown>
80001aca: 00 00                        	<unknown>
80001acc: b4 1d                        	<unknown>
80001ace: 00 80                        	<unknown>
80001ad0: 1c 1e                        	<unknown>
80001ad2: 00 80                        	<unknown>
80001ad4: 84 1e                        	<unknown>
80001ad6: 00 80                        	<unknown>
		...
80001b70: 01 00                        	<unknown>
80001b72: 00 00                        	<unknown>
80001b74: 00 00                        	<unknown>
80001b76: 00 00                        	<unknown>
80001b78: 0e 33                        	<unknown>
80001b7a: cd ab                        	<unknown>
80001b7c: 34 12                        	<unknown>
80001b7e: 6d e6                        	<unknown>
80001b80: ec de                        	<unknown>
80001b82: 05 00                        	<unknown>
80001b84: 0b 00 00 00                  	<unknown>
		...

Disassembly of section .sdata:

80001ef0 _global_impure_ptr:
80001ef0: c8 1a                        	<unknown>
80001ef2: 00 80                        	<unknown>

Disassembly of section .bss:

80001ef4 g_wspawn_args:
...

Disassembly of section .comment:

00000000 .comment:
       0: 63 6c 61 6e                  	bltu	sp, t1, 1784
       4: 67 20 76 65                  	<unknown>
       8: 72 73                        	<unknown>
       a: 69 6f                        	<unknown>
       c: 6e 20                        	<unknown>
       e: 31 30                        	<unknown>
      10: 2e 30                        	<unknown>
      12: 2e 30                        	<unknown>
      14: 20 28                        	<unknown>
      16: 68 74                        	<unknown>
      18: 74 70                        	<unknown>
      1a: 73 3a 2f 2f                  	csrrc	s4, 754, t5
      1e: 67 69 74 68                  	<unknown>
      22: 75 62                        	<unknown>
      24: 2e 63                        	<unknown>
      26: 6f 6d 2f 6c                  	jal	s10, 1009346
      2a: 6c 76                        	<unknown>
      2c: 6d 2f                        	<unknown>
      2e: 6c 6c                        	<unknown>
      30: 76 6d                        	<unknown>
      32: 2d 70                        	<unknown>
      34: 72 6f                        	<unknown>
      36: 6a 65                        	<unknown>
      38: 63 74 2e 67                  	bgeu	t3, s2, 1640
      3c: 69 74                        	<unknown>
      3e: 20 37                        	<unknown>
      40: 33 63 35 33                  	<unknown>
      44: 65 36                        	<unknown>
      46: 31 32                        	<unknown>
      48: 61 61                        	<unknown>
      4a: 31 32                        	<unknown>
      4c: 35 61                        	<unknown>
      4e: 32 34                        	<unknown>
      50: 65 62                        	<unknown>
      52: 32 63                        	<unknown>
      54: 37 35 32 34                  	lui	a0, 213795
      58: 31 62                        	<unknown>
      5a: 32 65                        	<unknown>
      5c: 62 62                        	<unknown>
      5e: 64 35                        	<unknown>
      60: 36 30                        	<unknown>
      62: 62 38                        	<unknown>
      64: 35 63                        	<unknown>
      66: 37 29 00 47                  	lui	s2, 290818
      6a: 43 43 3a 20                  	fmadd.s	ft6, fs4, ft3, ft4, rmm
      6e: 28 47                        	<unknown>
      70: 4e 55                        	<unknown>
      72: 29 20                        	<unknown>
      74: 39 2e                        	<unknown>
      76: 32 2e                        	<unknown>
      78: 30 00                        	<unknown>

Disassembly of section .riscv.attributes:

00000000 .riscv.attributes:
       0: 41 25                        	<unknown>
       2: 00 00                        	<unknown>
       4: 00 72                        	<unknown>
       6: 69 73                        	<unknown>
       8: 63 76 00 01                  	bgeu	zero, a6, 12
       c: 1b 00 00 00                  	<unknown>
      10: 04 10                        	<unknown>
      12: 05 72                        	<unknown>
      14: 76 33                        	<unknown>
      16: 32 69                        	<unknown>
      18: 32 70                        	<unknown>
      1a: 30 5f                        	<unknown>
      1c: 6d 32                        	<unknown>
      1e: 70 30                        	<unknown>
      20: 5f 66 32 70                  	<unknown>
      24: 30 00                        	<unknown>

Disassembly of section .symtab:

00000000 .symtab:
		...
      14: 00 00                        	<unknown>
      16: 00 80                        	<unknown>
      18: 00 00                        	<unknown>
      1a: 00 00                        	<unknown>
      1c: 03 00 01 00                  	lb	zero, 0(sp)
      20: 00 00                        	<unknown>
      22: 00 00                        	<unknown>
      24: 50 00                        	<unknown>
      26: 00 80                        	<unknown>
      28: 00 00                        	<unknown>
      2a: 00 00                        	<unknown>
      2c: 03 00 02 00                  	lb	zero, 0(tp)
      30: 00 00                        	<unknown>
      32: 00 00                        	<unknown>
      34: c0 1a                        	<unknown>
      36: 00 80                        	<unknown>
      38: 00 00                        	<unknown>
      3a: 00 00                        	<unknown>
      3c: 03 00 03 00                  	lb	zero, 0(t1)
      40: 00 00                        	<unknown>
      42: 00 00                        	<unknown>
      44: c8 1a                        	<unknown>
      46: 00 80                        	<unknown>
      48: 00 00                        	<unknown>
      4a: 00 00                        	<unknown>
      4c: 03 00 04 00                  	lb	zero, 0(s0)
      50: 00 00                        	<unknown>
      52: 00 00                        	<unknown>
      54: f0 1e                        	<unknown>
      56: 00 80                        	<unknown>
      58: 00 00                        	<unknown>
      5a: 00 00                        	<unknown>
      5c: 03 00 05 00                  	lb	zero, 0(a0)
      60: 00 00                        	<unknown>
      62: 00 00                        	<unknown>
      64: f4 1e                        	<unknown>
      66: 00 80                        	<unknown>
      68: 00 00                        	<unknown>
      6a: 00 00                        	<unknown>
      6c: 03 00 06 00                  	lb	zero, 0(a2)
		...
      7c: 03 00 07 00                  	lb	zero, 0(a4)
		...
      8c: 03 00 08 00                  	lb	zero, 0(a6)
      90: 01 00                        	<unknown>
		...
      9a: 00 00                        	<unknown>
      9c: 04 00                        	<unknown>
      9e: f1 ff                        	<unknown>
      a0: 0e 00                        	<unknown>
      a2: 00 00                        	<unknown>
      a4: 60 06                        	<unknown>
      a6: 00 80                        	<unknown>
      a8: 00 00                        	<unknown>
      aa: 00 00                        	<unknown>
      ac: 00 00                        	<unknown>
      ae: 02 00                        	<unknown>
      b0: 15 00                        	<unknown>
		...
      ba: 00 00                        	<unknown>
      bc: 04 00                        	<unknown>
      be: f1 ff                        	<unknown>
      c0: 25 00                        	<unknown>
      c2: 00 00                        	<unknown>
      c4: 50 00                        	<unknown>
      c6: 00 80                        	<unknown>
      c8: 18 00                        	<unknown>
      ca: 00 00                        	<unknown>
      cc: 02 00                        	<unknown>
      ce: 02 00                        	<unknown>
      d0: 33 00 00 00                  	add	zero, zero, zero
		...
      dc: 04 00                        	<unknown>
      de: f1 ff                        	<unknown>
      e0: 57 00 00 00                  	<unknown>
		...
      ec: 04 00                        	<unknown>
      ee: f1 ff                        	<unknown>
      f0: 73 00 00 00                  	ecall	
		...
      fc: 04 00                        	<unknown>
      fe: f1 ff                        	<unknown>
     100: 75 00                        	<unknown>
		...
     10a: 00 00                        	<unknown>
     10c: 04 00                        	<unknown>
     10e: f1 ff                        	<unknown>
     110: 63 00 00 00                  	beqz	zero, 0
		...
     11c: 04 00                        	<unknown>
     11e: f1 ff                        	<unknown>
     120: 6a 00                        	<unknown>
		...
     12a: 00 00                        	<unknown>
     12c: 04 00                        	<unknown>
     12e: f1 ff                        	<unknown>
     130: 71 00                        	<unknown>
		...
     13a: 00 00                        	<unknown>
     13c: 04 00                        	<unknown>
     13e: f1 ff                        	<unknown>
     140: 7c 00                        	<unknown>
		...
     14a: 00 00                        	<unknown>
     14c: 04 00                        	<unknown>
     14e: f1 ff                        	<unknown>
     150: 85 00                        	<unknown>
     152: 00 00                        	<unknown>
     154: c8 1a                        	<unknown>
     156: 00 80                        	<unknown>
     158: 28 04                        	<unknown>
     15a: 00 00                        	<unknown>
     15c: 01 00                        	<unknown>
     15e: 04 00                        	<unknown>
		...
     16c: 04 00                        	<unknown>
     16e: f1 ff                        	<unknown>
     170: 91 00                        	<unknown>
     172: 00 00                        	<unknown>
     174: c4 1a                        	<unknown>
     176: 00 80                        	<unknown>
     178: 00 00                        	<unknown>
     17a: 00 00                        	<unknown>
     17c: 00 00                        	<unknown>
     17e: 03 00 a2 00                  	lb	zero, 10(tp)
     182: 00 00                        	<unknown>
     184: c4 1a                        	<unknown>
     186: 00 80                        	<unknown>
     188: 00 00                        	<unknown>
     18a: 00 00                        	<unknown>
     18c: 00 00                        	<unknown>
     18e: 03 00 b5 00                  	lb	zero, 11(a0)
     192: 00 00                        	<unknown>
     194: c4 1a                        	<unknown>
     196: 00 80                        	<unknown>
     198: 00 00                        	<unknown>
     19a: 00 00                        	<unknown>
     19c: 00 00                        	<unknown>
     19e: 03 00 c6 00                  	lb	zero, 12(a2)
     1a2: 00 00                        	<unknown>
     1a4: c0 1a                        	<unknown>
     1a6: 00 80                        	<unknown>
     1a8: 00 00                        	<unknown>
     1aa: 00 00                        	<unknown>
     1ac: 00 00                        	<unknown>
     1ae: 03 00 da 00                  	lb	zero, 13(s4)
     1b2: 00 00                        	<unknown>
     1b4: c0 1a                        	<unknown>
     1b6: 00 80                        	<unknown>
     1b8: 00 00                        	<unknown>
     1ba: 00 00                        	<unknown>
     1bc: 00 00                        	<unknown>
     1be: 03 00 ed 00                  	lb	zero, 14(s10)
     1c2: 00 00                        	<unknown>
     1c4: c0 1a                        	<unknown>
     1c6: 00 80                        	<unknown>
     1c8: 00 00                        	<unknown>
     1ca: 00 00                        	<unknown>
     1cc: 00 00                        	<unknown>
     1ce: 03 00 03 01                  	lb	zero, 16(t1)
     1d2: 00 00                        	<unknown>
     1d4: b4 06                        	<unknown>
     1d6: 00 80                        	<unknown>
     1d8: 00 00                        	<unknown>
     1da: 00 00                        	<unknown>
     1dc: 12 00                        	<unknown>
     1de: 02 00                        	<unknown>
     1e0: 0e 01                        	<unknown>
		...
     1ea: 00 00                        	<unknown>
     1ec: 10 00                        	<unknown>
     1ee: f1 ff                        	<unknown>
     1f0: 1c 01                        	<unknown>
     1f2: 00 00                        	<unknown>
     1f4: 64 06                        	<unknown>
     1f6: 00 80                        	<unknown>
     1f8: 00 00                        	<unknown>
     1fa: 00 00                        	<unknown>
     1fc: 12 00                        	<unknown>
     1fe: 02 00                        	<unknown>
     200: 26 01                        	<unknown>
     202: 00 00                        	<unknown>
     204: 00 04                        	<unknown>
     206: 00 00                        	<unknown>
     208: 00 00                        	<unknown>
     20a: 00 00                        	<unknown>
     20c: 10 00                        	<unknown>
     20e: f1 ff                        	<unknown>
     210: 33 01 00 00                  	add	sp, zero, zero
     214: f4 1e                        	<unknown>
     216: 00 80                        	<unknown>
     218: 40 00                        	<unknown>
     21a: 00 00                        	<unknown>
     21c: 11 00                        	<unknown>
     21e: 06 00                        	<unknown>
     220: 41 01                        	<unknown>
     222: 00 00                        	<unknown>
     224: 6c 06                        	<unknown>
     226: 00 80                        	<unknown>
     228: 00 00                        	<unknown>
     22a: 00 00                        	<unknown>
     22c: 12 00                        	<unknown>
     22e: 02 00                        	<unknown>
     230: 48 01                        	<unknown>
     232: 00 00                        	<unknown>
     234: f0 1e                        	<unknown>
     236: 00 80                        	<unknown>
     238: 00 00                        	<unknown>
     23a: 00 00                        	<unknown>
     23c: 10 00                        	<unknown>
     23e: 05 00                        	<unknown>
     240: 58 01                        	<unknown>
     242: 00 00                        	<unknown>
     244: 68 00                        	<unknown>
     246: 00 80                        	<unknown>
     248: 48 01                        	<unknown>
     24a: 00 00                        	<unknown>
     24c: 12 00                        	<unknown>
     24e: 02 00                        	<unknown>
     250: 6e 01                        	<unknown>
     252: 00 00                        	<unknown>
     254: c8 22                        	<unknown>
     256: 00 80                        	<unknown>
     258: 00 00                        	<unknown>
     25a: 00 00                        	<unknown>
     25c: 10 00                        	<unknown>
     25e: f1 ff                        	<unknown>
     260: 7f 01 00 00                  	<unknown>
     264: 84 06                        	<unknown>
     266: 00 80                        	<unknown>
     268: 00 00                        	<unknown>
     26a: 00 00                        	<unknown>
     26c: 12 00                        	<unknown>
     26e: 02 00                        	<unknown>
     270: 87 01 00 00                  	<unknown>
     274: c4 06                        	<unknown>
     276: 00 80                        	<unknown>
     278: 00 00                        	<unknown>
     27a: 00 00                        	<unknown>
     27c: 12 00                        	<unknown>
     27e: 02 00                        	<unknown>
     280: 94 01                        	<unknown>
     282: 00 00                        	<unknown>
     284: 48 02                        	<unknown>
     286: 00 80                        	<unknown>
     288: 0c 02                        	<unknown>
     28a: 00 00                        	<unknown>
     28c: 12 00                        	<unknown>
     28e: 02 00                        	<unknown>
     290: a1 01                        	<unknown>
     292: 00 00                        	<unknown>
     294: 7c 06                        	<unknown>
     296: 00 80                        	<unknown>
     298: 00 00                        	<unknown>
     29a: 00 00                        	<unknown>
     29c: 12 00                        	<unknown>
     29e: 02 00                        	<unknown>
     2a0: aa 01                        	<unknown>
     2a2: 00 00                        	<unknown>
     2a4: f0 1e                        	<unknown>
     2a6: 00 80                        	<unknown>
     2a8: 04 00                        	<unknown>
     2aa: 00 00                        	<unknown>
     2ac: 11 00                        	<unknown>
     2ae: 05 00                        	<unknown>
     2b0: bd 01                        	<unknown>
     2b2: 00 00                        	<unknown>
     2b4: 88 07                        	<unknown>
     2b6: 00 80                        	<unknown>
     2b8: 9c 00                        	<unknown>
     2ba: 00 00                        	<unknown>
     2bc: 12 00                        	<unknown>
     2be: 02 00                        	<unknown>
     2c0: cf 01 00 00                  	fnmadd.s	ft3, ft0, ft0, ft0, rne
     2c4: bc 06                        	<unknown>
     2c6: 00 80                        	<unknown>
     2c8: 00 00                        	<unknown>
     2ca: 00 00                        	<unknown>
     2cc: 12 00                        	<unknown>
     2ce: 02 00                        	<unknown>
     2d0: de 01                        	<unknown>
     2d2: 00 00                        	<unknown>
     2d4: 8c 06                        	<unknown>
     2d6: 00 80                        	<unknown>
     2d8: 00 00                        	<unknown>
     2da: 00 00                        	<unknown>
     2dc: 12 00                        	<unknown>
     2de: 02 00                        	<unknown>
     2e0: e9 01                        	<unknown>
     2e2: 00 00                        	<unknown>
     2e4: 9c 06                        	<unknown>
     2e6: 00 80                        	<unknown>
     2e8: 00 00                        	<unknown>
     2ea: 00 00                        	<unknown>
     2ec: 12 00                        	<unknown>
     2ee: 02 00                        	<unknown>
     2f0: f6 01                        	<unknown>
     2f2: 00 00                        	<unknown>
     2f4: 2c 07                        	<unknown>
     2f6: 00 80                        	<unknown>
     2f8: 5c 00                        	<unknown>
     2fa: 00 00                        	<unknown>
     2fc: 12 00                        	<unknown>
     2fe: 02 00                        	<unknown>
     300: 08 02                        	<unknown>
     302: 00 00                        	<unknown>
     304: 84 04                        	<unknown>
     306: 00 80                        	<unknown>
     308: 94 00                        	<unknown>
     30a: 00 00                        	<unknown>
     30c: 12 00                        	<unknown>
     30e: 02 00                        	<unknown>
     310: 1b 02 00 00                  	<unknown>
     314: 00 00                        	<unknown>
     316: 00 ff                        	<unknown>
     318: 00 00                        	<unknown>
     31a: 00 00                        	<unknown>
     31c: 10 00                        	<unknown>
     31e: f1 ff                        	<unknown>
     320: 27 02 00 00                  	<unknown>
     324: 28 06                        	<unknown>
     326: 00 80                        	<unknown>
     328: 00 00                        	<unknown>
     32a: 00 00                        	<unknown>
     32c: 12 00                        	<unknown>
     32e: 02 00                        	<unknown>
     330: 31 02                        	<unknown>
     332: 00 00                        	<unknown>
     334: 74 06                        	<unknown>
     336: 00 80                        	<unknown>
     338: 00 00                        	<unknown>
     33a: 00 00                        	<unknown>
     33c: 12 00                        	<unknown>
     33e: 02 00                        	<unknown>
     340: 3c 02                        	<unknown>
     342: 00 00                        	<unknown>
     344: 9c 09                        	<unknown>
     346: 00 80                        	<unknown>
     348: 24 01                        	<unknown>
     34a: 00 00                        	<unknown>
     34c: 12 00                        	<unknown>
     34e: 02 00                        	<unknown>
     350: 72 02                        	<unknown>
     352: 00 00                        	<unknown>
     354: 00 00                        	<unknown>
     356: 00 80                        	<unknown>
     358: 50 00                        	<unknown>
     35a: 00 00                        	<unknown>
     35c: 12 00                        	<unknown>
     35e: 01 00                        	<unknown>
     360: 4d 02                        	<unknown>
     362: 00 00                        	<unknown>
     364: 00 09                        	<unknown>
     366: 00 80                        	<unknown>
     368: 9c 00                        	<unknown>
     36a: 00 00                        	<unknown>
     36c: 12 00                        	<unknown>
     36e: 02 00                        	<unknown>
     370: 61 02                        	<unknown>
     372: 00 00                        	<unknown>
     374: 34 1f                        	<unknown>
     376: 00 80                        	<unknown>
     378: 00 00                        	<unknown>
     37a: 00 00                        	<unknown>
     37c: 10 00                        	<unknown>
     37e: 06 00                        	<unknown>
     380: 6d 02                        	<unknown>
     382: 00 00                        	<unknown>
     384: f4 1e                        	<unknown>
     386: 00 80                        	<unknown>
     388: 00 00                        	<unknown>
     38a: 00 00                        	<unknown>
     38c: 10 00                        	<unknown>
     38e: 06 00                        	<unknown>
     390: 79 02                        	<unknown>
     392: 00 00                        	<unknown>
     394: 24 08                        	<unknown>
     396: 00 80                        	<unknown>
     398: dc 00                        	<unknown>
     39a: 00 00                        	<unknown>
     39c: 12 00                        	<unknown>
     39e: 02 00                        	<unknown>
     3a0: 80 02                        	<unknown>
     3a2: 00 00                        	<unknown>
     3a4: 54 04                        	<unknown>
     3a6: 00 80                        	<unknown>
     3a8: 30 00                        	<unknown>
     3aa: 00 00                        	<unknown>
     3ac: 12 00                        	<unknown>
     3ae: 02 00                        	<unknown>
     3b0: 85 02                        	<unknown>
     3b2: 00 00                        	<unknown>
     3b4: a0 05                        	<unknown>
     3b6: 00 80                        	<unknown>
     3b8: 80 00                        	<unknown>
     3ba: 00 00                        	<unknown>
     3bc: 12 00                        	<unknown>
     3be: 02 00                        	<unknown>
     3c0: a7 02 00 00                  	<unknown>
     3c4: d4 06                        	<unknown>
     3c6: 00 80                        	<unknown>
     3c8: 00 00                        	<unknown>
     3ca: 00 00                        	<unknown>
     3cc: 12 00                        	<unknown>
     3ce: 02 00                        	<unknown>
     3d0: b5 02                        	<unknown>
     3d2: 00 00                        	<unknown>
     3d4: e4 06                        	<unknown>
     3d6: 00 80                        	<unknown>
     3d8: 14 00                        	<unknown>
     3da: 00 00                        	<unknown>
     3dc: 12 00                        	<unknown>
     3de: 02 00                        	<unknown>
     3e0: bc 02                        	<unknown>
     3e2: 00 00                        	<unknown>
     3e4: ac 06                        	<unknown>
     3e6: 00 80                        	<unknown>
     3e8: 00 00                        	<unknown>
     3ea: 00 00                        	<unknown>
     3ec: 12 00                        	<unknown>
     3ee: 02 00                        	<unknown>
     3f0: ca 02                        	<unknown>
     3f2: 00 00                        	<unknown>
     3f4: cc 06                        	<unknown>
     3f6: 00 80                        	<unknown>
     3f8: 00 00                        	<unknown>
     3fa: 00 00                        	<unknown>
     3fc: 12 00                        	<unknown>
     3fe: 02 00                        	<unknown>
     400: d7 02 00 00                  	<unknown>
     404: 94 06                        	<unknown>
     406: 00 80                        	<unknown>
     408: 00 00                        	<unknown>
     40a: 00 00                        	<unknown>
     40c: 12 00                        	<unknown>
     40e: 02 00                        	<unknown>
     410: e3 02 00 00                  	beqz	zero, 2052
     414: c8 1a                        	<unknown>
     416: 00 80                        	<unknown>
     418: 00 00                        	<unknown>
     41a: 00 00                        	<unknown>
     41c: 10 00                        	<unknown>
     41e: 04 00                        	<unknown>
     420: f2 02                        	<unknown>
     422: 00 00                        	<unknown>
     424: f4 1e                        	<unknown>
     426: 00 80                        	<unknown>
     428: 00 00                        	<unknown>
     42a: 00 00                        	<unknown>
     42c: 10 00                        	<unknown>
     42e: 05 00                        	<unknown>
     430: 9d 00                        	<unknown>
     432: 00 00                        	<unknown>
     434: 34 1f                        	<unknown>
     436: 00 80                        	<unknown>
     438: 00 00                        	<unknown>
     43a: 00 00                        	<unknown>
     43c: 10 00                        	<unknown>
     43e: 06 00                        	<unknown>
     440: 28 03                        	<unknown>
     442: 00 00                        	<unknown>
     444: f8 06                        	<unknown>
     446: 00 80                        	<unknown>
     448: 34 00                        	<unknown>
     44a: 00 00                        	<unknown>
     44c: 12 00                        	<unknown>
     44e: 02 00                        	<unknown>
     450: f9 02                        	<unknown>
     452: 00 00                        	<unknown>
     454: b0 01                        	<unknown>
     456: 00 80                        	<unknown>
     458: 98 00                        	<unknown>
     45a: 00 00                        	<unknown>
     45c: 12 00                        	<unknown>
     45e: 02 00                        	<unknown>
     460: 19 03                        	<unknown>
     462: 00 00                        	<unknown>
     464: a4 06                        	<unknown>
     466: 00 80                        	<unknown>
     468: 00 00                        	<unknown>
     46a: 00 00                        	<unknown>
     46c: 12 00                        	<unknown>
     46e: 02 00                        	<unknown>
     470: 27 03 00 00                  	<unknown>
     474: 20 06                        	<unknown>
     476: 00 80                        	<unknown>
     478: 00 00                        	<unknown>
     47a: 00 00                        	<unknown>
     47c: 12 00                        	<unknown>
     47e: 02 00                        	<unknown>
     480: 2d 03                        	<unknown>
     482: 00 00                        	<unknown>
     484: 18 05                        	<unknown>
     486: 00 80                        	<unknown>
     488: 88 00                        	<unknown>
     48a: 00 00                        	<unknown>
     48c: 12 00                        	<unknown>
     48e: 02 00                        	<unknown>
     490: 4a 03                        	<unknown>
     492: 00 00                        	<unknown>
     494: dc 06                        	<unknown>
     496: 00 80                        	<unknown>
     498: 00 00                        	<unknown>
     49a: 00 00                        	<unknown>
     49c: 12 00                        	<unknown>
     49e: 02 00                        	<unknown>

Disassembly of section .strtab:

00000000 .strtab:
       0: 00 76                        	<unknown>
       2: 78 5f                        	<unknown>
       4: 73 74 61 72                  	csrrci	s0, 1830, 2
       8: 74 2e                        	<unknown>
       a: 53 2e 6f 00                  	fadd.s	ft8, ft10, ft6, rdn
       e: 52 45                        	<unknown>
      10: 54 55                        	<unknown>
      12: 52 4e                        	<unknown>
      14: 00 5f                        	<unknown>
      16: 5f 63 61 6c                  	<unknown>
      1a: 6c 5f                        	<unknown>
      1c: 61 74                        	<unknown>
      1e: 65 78                        	<unknown>
      20: 69 74                        	<unknown>
      22: 2e 63                        	<unknown>
      24: 00 72                        	<unknown>
      26: 65 67                        	<unknown>
      28: 69 73                        	<unknown>
      2a: 74 65                        	<unknown>
      2c: 72 5f                        	<unknown>
      2e: 66 69                        	<unknown>
      30: 6e 69                        	<unknown>
      32: 00 70                        	<unknown>
      34: 6f 63 6c 5f                  	jal	t1, 812534
      38: 76 6f                        	<unknown>
      3a: 72 74                        	<unknown>
      3c: 65 78                        	<unknown>
      3e: 5f 6b 65 72                  	<unknown>
      42: 6e 65                        	<unknown>
      44: 6c 2d                        	<unknown>
      46: 61 30                        	<unknown>
      48: 2d 38                        	<unknown>
      4a: 65 2d                        	<unknown>
      4c: 38 62                        	<unknown>
      4e: 2d 64                        	<unknown>
      50: 39 2d                        	<unknown>
      52: 32 66                        	<unknown>
      54: 2e 63                        	<unknown>
      56: 00 70                        	<unknown>
      58: 61 72                        	<unknown>
      5a: 61 6c                        	<unknown>
      5c: 6c 65                        	<unknown>
      5e: 6c 5f                        	<unknown>
      60: 62 63                        	<unknown>
      62: 00 66                        	<unknown>
      64: 69 6e                        	<unknown>
      66: 69 2e                        	<unknown>
      68: 63 00 69 6e                  	beq	s2, t1, 1760
      6c: 69 74                        	<unknown>
      6e: 2e 63                        	<unknown>
      70: 00 5f                        	<unknown>
      72: 5f 61 74 65                  	<unknown>
      76: 78 69                        	<unknown>
      78: 74 2e                        	<unknown>
      7a: 63 00 69 6d                  	beq	s2, s6, 1728
      7e: 70 75                        	<unknown>
      80: 72 65                        	<unknown>
      82: 2e 63                        	<unknown>
      84: 00 69                        	<unknown>
      86: 6d 70                        	<unknown>
      88: 75 72                        	<unknown>
      8a: 65 5f                        	<unknown>
      8c: 64 61                        	<unknown>
      8e: 74 61                        	<unknown>
      90: 00 5f                        	<unknown>
      92: 5f 66 69 6e                  	<unknown>
      96: 69 5f                        	<unknown>
      98: 61 72                        	<unknown>
      9a: 72 61                        	<unknown>
      9c: 79 5f                        	<unknown>
      9e: 65 6e                        	<unknown>
      a0: 64 00                        	<unknown>
      a2: 5f 5f 66 69                  	<unknown>
      a6: 6e 69                        	<unknown>
      a8: 5f 61 72 72                  	<unknown>
      ac: 61 79                        	<unknown>
      ae: 5f 73 74 61                  	<unknown>
      b2: 72 74                        	<unknown>
      b4: 00 5f                        	<unknown>
      b6: 5f 69 6e 69                  	<unknown>
      ba: 74 5f                        	<unknown>
      bc: 61 72                        	<unknown>
      be: 72 61                        	<unknown>
      c0: 79 5f                        	<unknown>
      c2: 65 6e                        	<unknown>
      c4: 64 00                        	<unknown>
      c6: 5f 5f 70 72                  	<unknown>
      ca: 65 69                        	<unknown>
      cc: 6e 69                        	<unknown>
      ce: 74 5f                        	<unknown>
      d0: 61 72                        	<unknown>
      d2: 72 61                        	<unknown>
      d4: 79 5f                        	<unknown>
      d6: 65 6e                        	<unknown>
      d8: 64 00                        	<unknown>
      da: 5f 5f 69 6e                  	<unknown>
      de: 69 74                        	<unknown>
      e0: 5f 61 72 72                  	<unknown>
      e4: 61 79                        	<unknown>
      e6: 5f 73 74 61                  	<unknown>
      ea: 72 74                        	<unknown>
      ec: 00 5f                        	<unknown>
      ee: 5f 70 72 65                  	<unknown>
      f2: 69 6e                        	<unknown>
      f4: 69 74                        	<unknown>
      f6: 5f 61 72 72                  	<unknown>
      fa: 61 79                        	<unknown>
      fc: 5f 73 74 61                  	<unknown>
     100: 72 74                        	<unknown>
     102: 00 76                        	<unknown>
     104: 78 5f                        	<unknown>
     106: 63 6f 72 65                  	bltu	tp, s7, 1630
     10a: 5f 69 64 00                  	<unknown>
     10e: 5f 5f 73 74                  	<unknown>
     112: 61 63                        	<unknown>
     114: 6b 5f 75 73                  	<unknown>
     118: 61 67                        	<unknown>
     11a: 65 00                        	<unknown>
     11c: 76 78                        	<unknown>
     11e: 5f 77 73 70                  	<unknown>
     122: 61 77                        	<unknown>
     124: 6e 00                        	<unknown>
     126: 5f 5f 73 74                  	<unknown>
     12a: 61 63                        	<unknown>
     12c: 6b 5f 73 69                  	<unknown>
     130: 7a 65                        	<unknown>
     132: 00 67                        	<unknown>
     134: 5f 77 73 70                  	<unknown>
     138: 61 77                        	<unknown>
     13a: 6e 5f                        	<unknown>
     13c: 61 72                        	<unknown>
     13e: 67 73 00 76                  	<unknown>
     142: 78 5f                        	<unknown>
     144: 74 6d                        	<unknown>
     146: 63 00 5f 5f                  	beq	t5, s5, 1504
     14a: 53 44 41 54                  	<unknown>
     14e: 41 5f                        	<unknown>
     150: 42 45                        	<unknown>
     152: 47 49 4e 5f                  	<unknown>
     156: 5f 00 6b 65                  	<unknown>
     15a: 72 6e                        	<unknown>
     15c: 65 6c                        	<unknown>
     15e: 5f 73 70 61                  	<unknown>
     162: 77 6e 5f 63                  	<unknown>
     166: 61 6c                        	<unknown>
     168: 6c 62                        	<unknown>
     16a: 61 63                        	<unknown>
     16c: 6b 00 5f 5f                  	<unknown>
     170: 67 6c 6f 62                  	<unknown>
     174: 61 6c                        	<unknown>
     176: 5f 70 6f 69                  	<unknown>
     17a: 6e 74                        	<unknown>
     17c: 65 72                        	<unknown>
     17e: 00 76                        	<unknown>
     180: 78 5f                        	<unknown>
     182: 6a 6f                        	<unknown>
     184: 69 6e                        	<unknown>
     186: 00 76                        	<unknown>
     188: 78 5f                        	<unknown>
     18a: 6e 75                        	<unknown>
     18c: 6d 5f                        	<unknown>
     18e: 77 61 72 70                  	<unknown>
     192: 73 00 6b 65                  	<unknown>
     196: 72 6e                        	<unknown>
     198: 65 6c                        	<unknown>
     19a: 5f 73 70 61                  	<unknown>
     19e: 77 6e 00 76                  	<unknown>
     1a2: 78 5f                        	<unknown>
     1a4: 73 70 6c 69                  	csrci	1686, 24
     1a8: 74 00                        	<unknown>
     1aa: 5f 67 6c 6f                  	<unknown>
     1ae: 62 61                        	<unknown>
     1b0: 6c 5f                        	<unknown>
     1b2: 69 6d                        	<unknown>
     1b4: 70 75                        	<unknown>
     1b6: 72 65                        	<unknown>
     1b8: 5f 70 74 72                  	<unknown>
     1bc: 00 5f                        	<unknown>
     1be: 5f 6c 69 62                  	<unknown>
     1c2: 63 5f 69 6e                  	bge	s2, t1, 1790
     1c6: 69 74                        	<unknown>
     1c8: 5f 61 72 72                  	<unknown>
     1cc: 61 79                        	<unknown>
     1ce: 00 76                        	<unknown>
     1d0: 78 5f                        	<unknown>
     1d2: 6e 75                        	<unknown>
     1d4: 6d 5f                        	<unknown>
     1d6: 74 68                        	<unknown>
     1d8: 72 65                        	<unknown>
     1da: 61 64                        	<unknown>
     1dc: 73 00 76 78                  	<unknown>
     1e0: 5f 77 61 72                  	<unknown>
     1e4: 70 5f                        	<unknown>
     1e6: 69 64                        	<unknown>
     1e8: 00 76                        	<unknown>
     1ea: 78 5f                        	<unknown>
     1ec: 74 68                        	<unknown>
     1ee: 72 65                        	<unknown>
     1f0: 61 64                        	<unknown>
     1f2: 5f 69 64 00                  	<unknown>
     1f6: 5f 5f 6c 69                  	<unknown>
     1fa: 62 63                        	<unknown>
     1fc: 5f 66 69 6e                  	<unknown>
     200: 69 5f                        	<unknown>
     202: 61 72                        	<unknown>
     204: 72 61                        	<unknown>
     206: 79 00                        	<unknown>
     208: 5f 70 6f 63                  	<unknown>
     20c: 6c 5f                        	<unknown>
     20e: 6b 65 72 6e                  	<unknown>
     212: 65 6c                        	<unknown>
     214: 5f 73 61 78                  	<unknown>
     218: 70 79                        	<unknown>
     21a: 00 5f                        	<unknown>
     21c: 5f 73 74 61                  	<unknown>
     220: 63 6b 5f 74                  	bltu	t5, t0, 1878
     224: 6f 70 00 76                  	j	30560
     228: 78 5f                        	<unknown>
     22a: 73 65 74 5f                  	csrrsi	a0, 1527, 8
     22e: 73 70 00 76                  	csrci	1888, 0
     232: 78 5f                        	<unknown>
     234: 62 61                        	<unknown>
     236: 72 72                        	<unknown>
     238: 69 65                        	<unknown>
     23a: 72 00                        	<unknown>
     23c: 5f 5f 63 61                  	<unknown>
     240: 6c 6c                        	<unknown>
     242: 5f 65 78 69                  	<unknown>
     246: 74 70                        	<unknown>
     248: 72 6f                        	<unknown>
     24a: 63 73 00 5f                  	bgeu	zero, a6, 1510
     24e: 5f 72 65 67                  	<unknown>
     252: 69 73                        	<unknown>
     254: 74 65                        	<unknown>
     256: 72 5f                        	<unknown>
     258: 65 78                        	<unknown>
     25a: 69 74                        	<unknown>
     25c: 70 72                        	<unknown>
     25e: 6f 63 00 5f                  	jal	t1, 26096
     262: 5f 42 53 53                  	<unknown>
     266: 5f 45 4e 44                  	<unknown>
     26a: 5f 5f 00 5f                  	<unknown>
     26e: 5f 62 73 73                  	<unknown>
     272: 5f 73 74 61                  	<unknown>
     276: 72 74                        	<unknown>
     278: 00 6d                        	<unknown>
     27a: 65 6d                        	<unknown>
     27c: 73 65 74 00                  	csrrsi	a0, 7, 8
     280: 6d 61                        	<unknown>
     282: 69 6e                        	<unknown>
     284: 00 5f                        	<unknown>
     286: 70 6f                        	<unknown>
     288: 63 6c 5f 6b                  	bltu	t5, s5, 1720
     28c: 65 72                        	<unknown>
     28e: 6e 65                        	<unknown>
     290: 6c 5f                        	<unknown>
     292: 73 61 78 70                  	csrrsi	sp, 1799, 16
     296: 79 5f                        	<unknown>
     298: 77 6f 72 6b                  	<unknown>
     29c: 67 72 6f 75                  	<unknown>
     2a0: 70 5f                        	<unknown>
     2a2: 66 61                        	<unknown>
     2a4: 73 74 00 76                  	csrrci	s0, 1888, 0
     2a8: 78 5f                        	<unknown>
     2aa: 6e 75                        	<unknown>
     2ac: 6d 5f                        	<unknown>
     2ae: 63 79 63 6c                  	bgeu	t1, t1, 1746
     2b2: 65 73                        	<unknown>
     2b4: 00 61                        	<unknown>
     2b6: 74 65                        	<unknown>
     2b8: 78 69                        	<unknown>
     2ba: 74 00                        	<unknown>
     2bc: 76 78                        	<unknown>
     2be: 5f 74 68 72                  	<unknown>
     2c2: 65 61                        	<unknown>
     2c4: 64 5f                        	<unknown>
     2c6: 67 69 64 00                  	<unknown>
     2ca: 76 78                        	<unknown>
     2cc: 5f 6e 75 6d                  	<unknown>
     2d0: 5f 63 6f 72                  	<unknown>
     2d4: 65 73                        	<unknown>
     2d6: 00 76                        	<unknown>
     2d8: 78 5f                        	<unknown>
     2da: 77 61 72 70                  	<unknown>
     2de: 5f 67 69 64                  	<unknown>
     2e2: 00 5f                        	<unknown>
     2e4: 5f 44 41 54                  	<unknown>
     2e8: 41 5f                        	<unknown>
     2ea: 42 45                        	<unknown>
     2ec: 47 49 4e 5f                  	<unknown>
     2f0: 5f 00 5f 65                  	<unknown>
     2f4: 64 61                        	<unknown>
     2f6: 74 61                        	<unknown>
     2f8: 00 6b                        	<unknown>
     2fa: 65 72                        	<unknown>
     2fc: 6e 65                        	<unknown>
     2fe: 6c 5f                        	<unknown>
     300: 73 70 61 77                  	csrci	1910, 2
     304: 6e 5f                        	<unknown>
     306: 72 65                        	<unknown>
     308: 6d 61                        	<unknown>
     30a: 69 6e                        	<unknown>
     30c: 69 6e                        	<unknown>
     30e: 67 5f 63 61                  	<unknown>
     312: 6c 6c                        	<unknown>
     314: 62 61                        	<unknown>
     316: 63 6b 00 76                  	bltu	zero, zero, 1910
     31a: 78 5f                        	<unknown>
     31c: 74 68                        	<unknown>
     31e: 72 65                        	<unknown>
     320: 61 64                        	<unknown>
     322: 5f 6c 69 64                  	<unknown>
     326: 00 5f                        	<unknown>
     328: 65 78                        	<unknown>
     32a: 69 74                        	<unknown>
     32c: 00 5f                        	<unknown>
     32e: 70 6f                        	<unknown>
     330: 63 6c 5f 6b                  	bltu	t5, s5, 1720
     334: 65 72                        	<unknown>
     336: 6e 65                        	<unknown>
     338: 6c 5f                        	<unknown>
     33a: 73 61 78 70                  	csrrsi	sp, 1799, 16
     33e: 79 5f                        	<unknown>
     340: 77 6f 72 6b                  	<unknown>
     344: 67 72 6f 75                  	<unknown>
     348: 70 00                        	<unknown>
     34a: 76 78                        	<unknown>
     34c: 5f 6e 75 6d                  	<unknown>
     350: 5f 69 6e 73                  	<unknown>
     354: 74 72                        	<unknown>
     356: 73                           	<unknown>
     357: 00                           	<unknown>

Disassembly of section .shstrtab:

00000000 .shstrtab:
       0: 00 2e                        	<unknown>
       2: 73 79 6d 74                  	csrrci	s2, 1862, 26
       6: 61 62                        	<unknown>
       8: 00 2e                        	<unknown>
       a: 73 74 72 74                  	csrrci	s0, 1863, 4
       e: 61 62                        	<unknown>
      10: 00 2e                        	<unknown>
      12: 73 68 73 74                  	csrrsi	a6, 1863, 6
      16: 72 74                        	<unknown>
      18: 61 62                        	<unknown>
      1a: 00 2e                        	<unknown>
      1c: 69 6e                        	<unknown>
      1e: 69 74                        	<unknown>
      20: 00 2e                        	<unknown>
      22: 74 65                        	<unknown>
      24: 78 74                        	<unknown>
      26: 00 2e                        	<unknown>
      28: 69 6e                        	<unknown>
      2a: 69 74                        	<unknown>
      2c: 5f 61 72 72                  	<unknown>
      30: 61 79                        	<unknown>
      32: 00 2e                        	<unknown>
      34: 64 61                        	<unknown>
      36: 74 61                        	<unknown>
      38: 00 2e                        	<unknown>
      3a: 73 64 61 74                  	csrrsi	s0, 1862, 2
      3e: 61 00                        	<unknown>
      40: 2e 62                        	<unknown>
      42: 73 73 00 2e                  	csrrci	t1, 736, 0
      46: 63 6f 6d 6d                  	bltu	s10, s6, 1758
      4a: 65 6e                        	<unknown>
      4c: 74 00                        	<unknown>
      4e: 2e 72                        	<unknown>
      50: 69 73                        	<unknown>
      52: 63 76 2e 61                  	bgeu	t3, s2, 1548
      56: 74 74                        	<unknown>
      58: 72 69                        	<unknown>
      5a: 62 75                        	<unknown>
      5c: 74 65                        	<unknown>
      5e: 73                           	<unknown>
      5f: 00                           	<unknown>
