
/tmp/pocl_vortex_kernel-2d-83-e2-a6-92.elf:	file format ELF32-riscv


Disassembly of section .init:

80000000 _start:
80000000: 97 05 00 00                  	auipc	a1, 0
80000004: 93 85 c5 73                  	addi	a1, a1, 1852
80000008: 73 25 60 02                  	csrr	a0, 38
8000000c: 6b 10 b5 00                  	<unknown>
80000010: ef 00 c0 72                  	jal	1836
80000014: 13 05 10 00                  	addi	a0, zero, 1
80000018: 6b 00 05 00                  	<unknown>
8000001c: 13 85 c1 c2                  	addi	a0, gp, -980
80000020: 13 86 01 c3                  	addi	a2, gp, -976
80000024: 33 06 a6 40                  	sub	a2, a2, a0
80000028: 93 05 00 00                  	mv	a1, zero
8000002c: ef 00 50 10                  	jal	2308
80000030: 17 15 00 00                  	auipc	a0, 1
80000034: 13 05 85 80                  	addi	a0, a0, -2040
80000038: ef 00 c0 7b                  	jal	1980
8000003c: ef 00 90 05                  	jal	2136
80000040: ef 00 80 3c                  	jal	968
80000044: 6f 00 40 7c                  	j	1988

Disassembly of section .text:

80000048 register_fini:
80000048: 93 07 00 00                  	mv	a5, zero
8000004c: 63 88 07 00                  	beqz	a5, 16
80000050: 37 15 00 80                  	lui	a0, 524289
80000054: 13 05 85 83                  	addi	a0, a0, -1992
80000058: 6f 00 c0 79                  	j	1948
8000005c: 67 80 00 00                  	ret

80000060 kernel_spawn_run_warp:
80000060: 13 01 01 fd                  	addi	sp, sp, -48
80000064: 23 26 11 02                  	sw	ra, 44(sp)
80000068: 23 24 81 02                  	sw	s0, 40(sp)
8000006c: 23 22 91 02                  	sw	s1, 36(sp)
80000070: 23 20 21 03                  	sw	s2, 32(sp)
80000074: 23 2e 31 01                  	sw	s3, 28(sp)
80000078: 23 2c 41 01                  	sw	s4, 24(sp)
8000007c: 23 2a 51 01                  	sw	s5, 20(sp)
80000080: 23 28 61 01                  	sw	s6, 16(sp)
80000084: 23 26 71 01                  	sw	s7, 12(sp)
80000088: 23 24 81 01                  	sw	s8, 8(sp)
8000008c: ef 00 00 74                  	jal	1856
80000090: ef 00 40 6f                  	jal	1780
80000094: ef 00 80 73                  	jal	1848
80000098: 83 a5 c1 c2                  	lw	a1, -980(gp)
8000009c: 83 a5 05 00                  	lw	a1, 0(a1)
800000a0: 83 aa 05 00                  	lw	s5, 0(a1)
800000a4: 03 ab 45 00                  	lw	s6, 4(a1)
800000a8: 13 09 05 00                  	mv	s2, a0
800000ac: ef 00 80 6f                  	jal	1784
800000b0: 93 09 05 00                  	mv	s3, a0
800000b4: ef 00 00 70                  	jal	1792
800000b8: 03 a8 c1 c2                  	lw	a6, -980(gp)
800000bc: 03 27 48 01                  	lw	a4, 20(a6)
800000c0: 83 25 08 01                  	lw	a1, 16(a6)
800000c4: 93 06 07 00                  	mv	a3, a4
800000c8: 63 44 37 01                  	blt	a4, s3, 8
800000cc: 93 86 09 00                  	mv	a3, s3
800000d0: 33 a7 e9 00                  	slt	a4, s3, a4
800000d4: 33 87 e5 00                  	add	a4, a1, a4
800000d8: 93 07 10 00                  	addi	a5, zero, 1
800000dc: 63 46 f7 08                  	blt	a4, a5, 140
800000e0: 33 0a 5b 03                  	mul	s4, s6, s5
800000e4: 83 27 c8 00                  	lw	a5, 12(a6)
800000e8: 13 0c f7 ff                  	addi	s8, a4, -1
800000ec: b3 85 b9 02                  	mul	a1, s3, a1
800000f0: b3 85 b6 00                  	add	a1, a3, a1
800000f4: b3 05 b9 02                  	mul	a1, s2, a1
800000f8: b3 85 b7 00                  	add	a1, a5, a1
800000fc: 33 05 e5 02                  	mul	a0, a0, a4
80000100: b3 84 a5 00                  	add	s1, a1, a0
80000104: 33 09 60 41                  	neg	s2, s6
80000108: 33 0b 40 41                  	neg	s6, s4
8000010c: 33 c7 44 03                  	div	a4, s1, s4
80000110: 83 25 08 00                  	lw	a1, 0(a6)
80000114: 33 05 eb 02                  	mul	a0, s6, a4
80000118: 33 85 a4 00                  	add	a0, s1, a0
8000011c: b3 46 55 03                  	div	a3, a0, s5
80000120: 03 a5 c5 00                  	lw	a0, 12(a1)
80000124: b3 07 e9 02                  	mul	a5, s2, a4
80000128: b3 87 d7 40                  	sub	a5, a5, a3
8000012c: b3 87 fa 02                  	mul	a5, s5, a5
80000130: b3 08 f5 00                  	add	a7, a0, a5
80000134: 03 a4 05 01                  	lw	s0, 16(a1)
80000138: 03 a6 45 01                  	lw	a2, 20(a1)
8000013c: 83 27 48 00                  	lw	a5, 4(a6)
80000140: 03 25 88 00                  	lw	a0, 8(a6)
80000144: b3 06 d4 00                  	add	a3, s0, a3
80000148: 33 07 e6 00                  	add	a4, a2, a4
8000014c: 33 86 14 01                  	add	a2, s1, a7
80000150: e7 80 07 00                  	jalr	a5
80000154: 63 0a 0c 00                  	beqz	s8, 20
80000158: 03 a8 c1 c2                  	lw	a6, -980(gp)
8000015c: 13 0c fc ff                  	addi	s8, s8, -1
80000160: 93 84 14 00                  	addi	s1, s1, 1
80000164: 6f f0 9f fa                  	j	-88
80000168: 13 b5 19 00                  	seqz	a0, s3
8000016c: 03 2c 81 00                  	lw	s8, 8(sp)
80000170: 83 2b c1 00                  	lw	s7, 12(sp)
80000174: 03 2b 01 01                  	lw	s6, 16(sp)
80000178: 83 2a 41 01                  	lw	s5, 20(sp)
8000017c: 03 2a 81 01                  	lw	s4, 24(sp)
80000180: 83 29 c1 01                  	lw	s3, 28(sp)
80000184: 03 29 01 02                  	lw	s2, 32(sp)
80000188: 83 24 41 02                  	lw	s1, 36(sp)
8000018c: 03 24 81 02                  	lw	s0, 40(sp)
80000190: 83 20 c1 02                  	lw	ra, 44(sp)
80000194: 13 01 01 03                  	addi	sp, sp, 48
80000198: 6f 00 c0 5e                  	j	1516

8000019c kernel_spawn_run_threads:
8000019c: 13 01 01 fe                  	addi	sp, sp, -32
800001a0: 23 2e 11 00                  	sw	ra, 28(sp)
800001a4: 23 2c 81 00                  	sw	s0, 24(sp)
800001a8: 23 2a 91 00                  	sw	s1, 20(sp)
800001ac: 23 28 21 01                  	sw	s2, 16(sp)
800001b0: 23 26 31 01                  	sw	s3, 12(sp)
800001b4: 93 89 05 00                  	mv	s3, a1
800001b8: ef 00 c0 5c                  	jal	1484
800001bc: 03 a5 c1 c2                  	lw	a0, -980(gp)
800001c0: 03 25 05 00                  	lw	a0, 0(a0)
800001c4: 83 24 05 00                  	lw	s1, 0(a0)
800001c8: 03 25 45 00                  	lw	a0, 4(a0)
800001cc: 33 04 95 02                  	mul	s0, a0, s1
800001d0: ef 00 c0 5e                  	jal	1516
800001d4: 33 05 35 01                  	add	a0, a0, s3
800001d8: 03 a6 c1 c2                  	lw	a2, -980(gp)
800001dc: 33 47 85 02                  	div	a4, a0, s0
800001e0: b3 05 87 02                  	mul	a1, a4, s0
800001e4: 33 05 b5 40                  	sub	a0, a0, a1
800001e8: 83 25 06 00                  	lw	a1, 0(a2)
800001ec: b3 46 95 02                  	div	a3, a0, s1
800001f0: b3 87 96 02                  	mul	a5, a3, s1
800001f4: 33 08 f5 40                  	sub	a6, a0, a5
800001f8: 83 a4 c5 00                  	lw	s1, 12(a1)
800001fc: 03 a4 05 01                  	lw	s0, 16(a1)
80000200: 83 a7 45 01                  	lw	a5, 20(a1)
80000204: 83 28 46 00                  	lw	a7, 4(a2)
80000208: 03 25 86 00                  	lw	a0, 8(a2)
8000020c: 33 06 98 00                  	add	a2, a6, s1
80000210: b3 06 d4 00                  	add	a3, s0, a3
80000214: 33 87 e7 00                  	add	a4, a5, a4
80000218: e7 80 08 00                  	jalr	a7
8000021c: 13 05 10 00                  	addi	a0, zero, 1
80000220: 83 29 c1 00                  	lw	s3, 12(sp)
80000224: 03 29 01 01                  	lw	s2, 16(sp)
80000228: 83 24 41 01                  	lw	s1, 20(sp)
8000022c: 03 24 81 01                  	lw	s0, 24(sp)
80000230: 83 20 c1 01                  	lw	ra, 28(sp)
80000234: 13 01 01 02                  	addi	sp, sp, 32
80000238: 6f 00 c0 54                  	j	1356

8000023c kernel_spawn:
8000023c: 13 01 01 fc                  	addi	sp, sp, -64
80000240: 23 2e 11 02                  	sw	ra, 60(sp)
80000244: 23 2c 81 02                  	sw	s0, 56(sp)
80000248: 23 2a 91 02                  	sw	s1, 52(sp)
8000024c: 23 28 21 03                  	sw	s2, 48(sp)
80000250: 23 26 31 03                  	sw	s3, 44(sp)
80000254: 23 24 41 03                  	sw	s4, 40(sp)
80000258: 23 22 51 03                  	sw	s5, 36(sp)
8000025c: 23 20 61 03                  	sw	s6, 32(sp)
80000260: 13 0b 05 00                  	mv	s6, a0
80000264: 03 25 05 00                  	lw	a0, 0(a0)
80000268: 83 26 4b 00                  	lw	a3, 4(s6)
8000026c: 03 27 8b 00                  	lw	a4, 8(s6)
80000270: 13 09 06 00                  	mv	s2, a2
80000274: 93 89 05 00                  	mv	s3, a1
80000278: 33 85 a6 02                  	mul	a0, a3, a0
8000027c: b3 04 e5 02                  	mul	s1, a0, a4
80000280: ef 00 c0 55                  	jal	1372
80000284: 13 04 05 00                  	mv	s0, a0
80000288: ef 00 c0 54                  	jal	1356
8000028c: 13 0a 05 00                  	mv	s4, a0
80000290: ef 00 c0 53                  	jal	1340
80000294: 93 0a 05 00                  	mv	s5, a0
80000298: ef 00 c0 52                  	jal	1324
8000029c: b3 85 4a 03                  	mul	a1, s5, s4
800002a0: 13 06 10 00                  	addi	a2, zero, 1
800002a4: 63 c8 95 00                  	blt	a1, s1, 16
800002a8: 63 5a 86 00                  	bge	a2, s0, 20
800002ac: 63 4c c5 00                  	blt	a0, a2, 24
800002b0: 6f 00 00 13                  	j	304
800002b4: 33 c6 b4 02                  	div	a2, s1, a1
800002b8: e3 4a 86 fe                  	blt	a2, s0, -12
800002bc: 13 06 04 00                  	mv	a2, s0
800002c0: 63 50 c5 12                  	bge	a0, a2, 288
800002c4: 93 06 f4 ff                  	addi	a3, s0, -1
800002c8: b3 c5 c4 02                  	div	a1, s1, a2
800002cc: 63 0e d5 00                  	beq	a0, a3, 28
800002d0: 13 06 00 00                  	mv	a2, zero
800002d4: b3 06 b6 00                  	add	a3, a2, a1
800002d8: 33 c6 56 03                  	div	a2, a3, s5
800002dc: 13 07 00 00                  	mv	a4, zero
800002e0: 63 50 46 03                  	bge	a2, s4, 32
800002e4: 6f 00 00 02                  	j	32
800002e8: 33 86 c5 02                  	mul	a2, a1, a2
800002ec: 33 86 c4 40                  	sub	a2, s1, a2
800002f0: b3 06 b6 00                  	add	a3, a2, a1
800002f4: 33 c6 56 03                  	div	a2, a3, s5
800002f8: 13 07 00 00                  	mv	a4, zero
800002fc: 63 44 46 01                  	blt	a2, s4, 8
80000300: 33 47 46 03                  	div	a4, a2, s4
80000304: 93 07 00 00                  	mv	a5, zero
80000308: b3 0a 56 03                  	mul	s5, a2, s5
8000030c: 93 04 10 00                  	addi	s1, zero, 1
80000310: 63 08 07 00                  	beqz	a4, 16
80000314: b3 07 47 03                  	mul	a5, a4, s4
80000318: b3 07 f6 40                  	sub	a5, a2, a5
8000031c: 93 04 07 00                  	mv	s1, a4
80000320: 33 84 56 41                  	sub	s0, a3, s5
80000324: 23 24 61 01                  	sw	s6, 8(sp)
80000328: 23 26 31 01                  	sw	s3, 12(sp)
8000032c: 23 28 21 01                  	sw	s2, 16(sp)
80000330: 33 85 a5 02                  	mul	a0, a1, a0
80000334: 23 2a a1 00                  	sw	a0, 20(sp)
80000338: 23 2c 91 00                  	sw	s1, 24(sp)
8000033c: 23 2e f1 00                  	sw	a5, 28(sp)
80000340: 93 05 81 00                  	addi	a1, sp, 8
80000344: 93 06 20 00                  	addi	a3, zero, 2
80000348: 23 a6 b1 c2                  	sw	a1, -980(gp)
8000034c: 63 40 d6 02                  	blt	a2, a3, 32
80000350: 63 44 46 01                  	blt	a2, s4, 8
80000354: 13 06 0a 00                  	mv	a2, s4
80000358: 37 05 00 80                  	lui	a0, 524288
8000035c: 93 05 05 06                  	addi	a1, a0, 96
80000360: 13 05 06 00                  	mv	a0, a2
80000364: ef 00 80 41                  	jal	1048
80000368: ef f0 9f cf                  	jal	-776
8000036c: 63 0a 04 06                  	beqz	s0, 116
80000370: 13 05 04 00                  	mv	a0, s0
80000374: ef 00 00 41                  	jal	1040
80000378: 03 a5 c1 c2                  	lw	a0, -980(gp)
8000037c: 03 25 05 00                  	lw	a0, 0(a0)
80000380: 83 24 05 00                  	lw	s1, 0(a0)
80000384: 03 25 45 00                  	lw	a0, 4(a0)
80000388: 33 04 95 02                  	mul	s0, a0, s1
8000038c: ef 00 00 43                  	jal	1072
80000390: 33 05 55 01                  	add	a0, a0, s5
80000394: 03 a6 c1 c2                  	lw	a2, -980(gp)
80000398: 33 47 85 02                  	div	a4, a0, s0
8000039c: b3 05 87 02                  	mul	a1, a4, s0
800003a0: 33 05 b5 40                  	sub	a0, a0, a1
800003a4: 83 25 06 00                  	lw	a1, 0(a2)
800003a8: b3 46 95 02                  	div	a3, a0, s1
800003ac: b3 87 96 02                  	mul	a5, a3, s1
800003b0: 33 08 f5 40                  	sub	a6, a0, a5
800003b4: 83 a4 c5 00                  	lw	s1, 12(a1)
800003b8: 03 a4 05 01                  	lw	s0, 16(a1)
800003bc: 83 a7 45 01                  	lw	a5, 20(a1)
800003c0: 83 28 46 00                  	lw	a7, 4(a2)
800003c4: 03 25 86 00                  	lw	a0, 8(a2)
800003c8: 33 06 98 00                  	add	a2, a6, s1
800003cc: b3 06 d4 00                  	add	a3, s0, a3
800003d0: 33 87 e7 00                  	add	a4, a5, a4
800003d4: e7 80 08 00                  	jalr	a7
800003d8: 13 05 10 00                  	addi	a0, zero, 1
800003dc: ef 00 80 3a                  	jal	936
800003e0: 03 2b 01 02                  	lw	s6, 32(sp)
800003e4: 83 2a 41 02                  	lw	s5, 36(sp)
800003e8: 03 2a 81 02                  	lw	s4, 40(sp)
800003ec: 83 29 c1 02                  	lw	s3, 44(sp)
800003f0: 03 29 01 03                  	lw	s2, 48(sp)
800003f4: 83 24 41 03                  	lw	s1, 52(sp)
800003f8: 03 24 81 03                  	lw	s0, 56(sp)
800003fc: 83 20 c1 03                  	lw	ra, 60(sp)
80000400: 13 01 01 04                  	addi	sp, sp, 64
80000404: 67 80 00 00                  	ret

80000408 main:
80000408: 13 01 01 ff                  	addi	sp, sp, -16
8000040c: 23 26 11 00                  	sw	ra, 12(sp)
80000410: 37 05 00 80                  	lui	a0, 524288
80000414: 93 05 c5 53                  	addi	a1, a0, 1340
80000418: 37 05 ff 7f                  	lui	a0, 524272
8000041c: 13 06 45 03                  	addi	a2, a0, 52
80000420: 37 05 ff 7f                  	lui	a0, 524272
80000424: ef f0 9f e1                  	jal	-488
80000428: 13 05 00 00                  	mv	a0, zero
8000042c: 83 20 c1 00                  	lw	ra, 12(sp)
80000430: 13 01 01 01                  	addi	sp, sp, 16
80000434: 67 80 00 00                  	ret

80000438 _pocl_kernel_kmeans_swap:
80000438: 13 01 01 fe                  	addi	sp, sp, -32
8000043c: 23 2e 11 00                  	sw	ra, 28(sp)
80000440: 23 2c 81 00                  	sw	s0, 24(sp)
80000444: 23 2a 91 00                  	sw	s1, 20(sp)
80000448: 23 28 21 01                  	sw	s2, 16(sp)
8000044c: 23 26 31 01                  	sw	s3, 12(sp)
80000450: 23 24 41 01                  	sw	s4, 8(sp)
80000454: 23 22 51 01                  	sw	s5, 4(sp)
80000458: 23 20 61 01                  	sw	s6, 0(sp)
8000045c: 13 04 01 02                  	addi	s0, sp, 32
80000460: 13 71 c1 ff                  	andi	sp, sp, -4
80000464: 13 08 00 00                  	mv	a6, zero
80000468: 83 28 87 01                  	lw	a7, 24(a4)
8000046c: 83 24 c7 00                  	lw	s1, 12(a4)
80000470: 83 22 c7 01                  	lw	t0, 28(a4)
80000474: 03 23 07 02                  	lw	t1, 32(a4)
80000478: 33 87 f8 02                  	mul	a4, a7, a5
8000047c: b3 8f e4 00                  	add	t6, s1, a4
80000480: 13 97 2f 00                  	slli	a4, t6, 2
80000484: b3 83 e5 00                  	add	t2, a1, a4
80000488: 13 17 26 00                  	slli	a4, a2, 2
8000048c: b3 85 f6 03                  	mul	a1, a3, t6
80000490: 93 95 25 00                  	slli	a1, a1, 2
80000494: b3 0e b5 00                  	add	t4, a0, a1
80000498: 13 99 26 00                  	slli	s2, a3, 2
8000049c: 13 0e 10 00                  	addi	t3, zero, 1
800004a0: 6f 00 c0 00                  	j	12
800004a4: 13 08 18 00                  	addi	a6, a6, 1
800004a8: 63 74 68 06                  	bgeu	a6, t1, 104
800004ac: e3 cc c6 ff                  	blt	a3, t3, -8
800004b0: 13 0f 00 00                  	mv	t5, zero
800004b4: 6f 00 c0 00                  	j	12
800004b8: 13 0f 1f 00                  	addi	t5, t5, 1
800004bc: e3 74 5f fe                  	bgeu	t5, t0, -24
800004c0: 13 0b 00 00                  	mv	s6, zero
800004c4: 93 89 0e 00                  	mv	s3, t4
800004c8: 13 8a 03 00                  	mv	s4, t2
800004cc: 6f 00 40 01                  	j	20
800004d0: 13 0b 1b 00                  	addi	s6, s6, 1
800004d4: 13 0a 4a 00                  	addi	s4, s4, 4
800004d8: b3 89 29 01                  	add	s3, s3, s2
800004dc: e3 7e 1b fd                  	bgeu	s6, a7, -36
800004e0: b3 8a 6f 01                  	add	s5, t6, s6
800004e4: 93 87 09 00                  	mv	a5, s3
800004e8: 93 04 0a 00                  	mv	s1, s4
800004ec: 93 85 06 00                  	mv	a1, a3
800004f0: e3 f0 ca fe                  	bgeu	s5, a2, -32
800004f4: 03 a5 07 00                  	lw	a0, 0(a5)
800004f8: 23 a0 a4 00                  	sw	a0, 0(s1)
800004fc: 93 85 f5 ff                  	addi	a1, a1, -1
80000500: b3 84 e4 00                  	add	s1, s1, a4
80000504: 93 87 47 00                  	addi	a5, a5, 4
80000508: e3 96 05 fe                  	bnez	a1, -20
8000050c: 6f f0 5f fc                  	j	-60
80000510: 13 01 04 fe                  	addi	sp, s0, -32
80000514: 03 2b 01 00                  	lw	s6, 0(sp)
80000518: 83 2a 41 00                  	lw	s5, 4(sp)
8000051c: 03 2a 81 00                  	lw	s4, 8(sp)
80000520: 83 29 c1 00                  	lw	s3, 12(sp)
80000524: 03 29 01 01                  	lw	s2, 16(sp)
80000528: 83 24 41 01                  	lw	s1, 20(sp)
8000052c: 03 24 81 01                  	lw	s0, 24(sp)
80000530: 83 20 c1 01                  	lw	ra, 28(sp)
80000534: 13 01 01 02                  	addi	sp, sp, 32
80000538: 67 80 00 00                  	ret

8000053c _pocl_kernel_kmeans_swap_workgroup:
8000053c: 13 01 01 fe                  	addi	sp, sp, -32
80000540: 23 2e 81 00                  	sw	s0, 28(sp)
80000544: 23 2c 91 00                  	sw	s1, 24(sp)
80000548: 23 2a 21 01                  	sw	s2, 20(sp)
8000054c: 23 28 31 01                  	sw	s3, 16(sp)
80000550: 23 26 41 01                  	sw	s4, 12(sp)
80000554: 13 08 00 00                  	mv	a6, zero
80000558: 83 26 05 00                  	lw	a3, 0(a0)
8000055c: 03 27 45 00                  	lw	a4, 4(a0)
80000560: 83 27 85 00                  	lw	a5, 8(a0)
80000564: 03 25 c5 00                  	lw	a0, 12(a0)
80000568: 83 a4 06 00                  	lw	s1, 0(a3)
8000056c: 83 26 07 00                  	lw	a3, 0(a4)
80000570: 03 af 07 00                  	lw	t5, 0(a5)
80000574: 03 29 05 00                  	lw	s2, 0(a0)
80000578: 83 af 85 01                  	lw	t6, 24(a1)
8000057c: 03 a5 c5 00                  	lw	a0, 12(a1)
80000580: 83 a2 c5 01                  	lw	t0, 28(a1)
80000584: 83 a8 05 02                  	lw	a7, 32(a1)
80000588: b3 85 cf 02                  	mul	a1, t6, a2
8000058c: b3 09 b5 00                  	add	s3, a0, a1
80000590: 13 95 29 00                  	slli	a0, s3, 2
80000594: 33 83 a6 00                  	add	t1, a3, a0
80000598: 93 16 2f 00                  	slli	a3, t5, 2
8000059c: 33 05 39 03                  	mul	a0, s2, s3
800005a0: 13 15 25 00                  	slli	a0, a0, 2
800005a4: b3 83 a4 00                  	add	t2, s1, a0
800005a8: 13 1a 29 00                  	slli	s4, s2, 2
800005ac: 13 0e 10 00                  	addi	t3, zero, 1
800005b0: 6f 00 c0 00                  	j	12
800005b4: 13 08 18 00                  	addi	a6, a6, 1
800005b8: 63 74 18 07                  	bgeu	a6, a7, 104
800005bc: e3 4c c9 ff                  	blt	s2, t3, -8
800005c0: 93 0e 00 00                  	mv	t4, zero
800005c4: 6f 00 c0 00                  	j	12
800005c8: 93 8e 1e 00                  	addi	t4, t4, 1
800005cc: e3 f4 5e fe                  	bgeu	t4, t0, -24
800005d0: 13 05 00 00                  	mv	a0, zero
800005d4: 93 87 03 00                  	mv	a5, t2
800005d8: 13 07 03 00                  	mv	a4, t1
800005dc: 6f 00 40 01                  	j	20
800005e0: 13 05 15 00                  	addi	a0, a0, 1
800005e4: 13 07 47 00                  	addi	a4, a4, 4
800005e8: b3 87 47 01                  	add	a5, a5, s4
800005ec: e3 7e f5 fd                  	bgeu	a0, t6, -36
800005f0: b3 85 a9 00                  	add	a1, s3, a0
800005f4: 93 84 07 00                  	mv	s1, a5
800005f8: 13 04 07 00                  	mv	s0, a4
800005fc: 13 06 09 00                  	mv	a2, s2
80000600: e3 f0 e5 ff                  	bgeu	a1, t5, -32
80000604: 83 a5 04 00                  	lw	a1, 0(s1)
80000608: 23 20 b4 00                  	sw	a1, 0(s0)
8000060c: 13 06 f6 ff                  	addi	a2, a2, -1
80000610: 33 04 d4 00                  	add	s0, s0, a3
80000614: 93 84 44 00                  	addi	s1, s1, 4
80000618: e3 16 06 fe                  	bnez	a2, -20
8000061c: 6f f0 5f fc                  	j	-60
80000620: 03 2a c1 00                  	lw	s4, 12(sp)
80000624: 83 29 01 01                  	lw	s3, 16(sp)
80000628: 03 29 41 01                  	lw	s2, 20(sp)
8000062c: 83 24 81 01                  	lw	s1, 24(sp)
80000630: 03 24 c1 01                  	lw	s0, 28(sp)
80000634: 13 01 01 02                  	addi	sp, sp, 32
80000638: 67 80 00 00                  	ret

8000063c _pocl_kernel_kmeans_swap_workgroup_fast:
8000063c: 13 01 01 fe                  	addi	sp, sp, -32
80000640: 23 2e 81 00                  	sw	s0, 28(sp)
80000644: 23 2c 91 00                  	sw	s1, 24(sp)
80000648: 23 2a 21 01                  	sw	s2, 20(sp)
8000064c: 23 28 31 01                  	sw	s3, 16(sp)
80000650: 23 26 41 01                  	sw	s4, 12(sp)
80000654: 13 08 00 00                  	mv	a6, zero
80000658: 83 26 85 00                  	lw	a3, 8(a0)
8000065c: 03 27 c5 00                  	lw	a4, 12(a0)
80000660: 83 27 05 00                  	lw	a5, 0(a0)
80000664: 03 25 45 00                  	lw	a0, 4(a0)
80000668: 03 af 06 00                  	lw	t5, 0(a3)
8000066c: 03 29 07 00                  	lw	s2, 0(a4)
80000670: 83 af 85 01                  	lw	t6, 24(a1)
80000674: 83 a6 c5 00                  	lw	a3, 12(a1)
80000678: 83 a2 c5 01                  	lw	t0, 28(a1)
8000067c: 83 a8 05 02                  	lw	a7, 32(a1)
80000680: b3 85 cf 02                  	mul	a1, t6, a2
80000684: b3 89 b6 00                  	add	s3, a3, a1
80000688: 93 95 29 00                  	slli	a1, s3, 2
8000068c: 33 03 b5 00                  	add	t1, a0, a1
80000690: 93 16 2f 00                  	slli	a3, t5, 2
80000694: 33 05 39 03                  	mul	a0, s2, s3
80000698: 13 15 25 00                  	slli	a0, a0, 2
8000069c: b3 83 a7 00                  	add	t2, a5, a0
800006a0: 13 1a 29 00                  	slli	s4, s2, 2
800006a4: 13 0e 10 00                  	addi	t3, zero, 1
800006a8: 6f 00 c0 00                  	j	12
800006ac: 13 08 18 00                  	addi	a6, a6, 1
800006b0: 63 74 18 07                  	bgeu	a6, a7, 104
800006b4: e3 4c c9 ff                  	blt	s2, t3, -8
800006b8: 93 0e 00 00                  	mv	t4, zero
800006bc: 6f 00 c0 00                  	j	12
800006c0: 93 8e 1e 00                  	addi	t4, t4, 1
800006c4: e3 f4 5e fe                  	bgeu	t4, t0, -24
800006c8: 13 05 00 00                  	mv	a0, zero
800006cc: 93 87 03 00                  	mv	a5, t2
800006d0: 13 07 03 00                  	mv	a4, t1
800006d4: 6f 00 40 01                  	j	20
800006d8: 13 05 15 00                  	addi	a0, a0, 1
800006dc: 13 07 47 00                  	addi	a4, a4, 4
800006e0: b3 87 47 01                  	add	a5, a5, s4
800006e4: e3 7e f5 fd                  	bgeu	a0, t6, -36
800006e8: b3 85 a9 00                  	add	a1, s3, a0
800006ec: 93 84 07 00                  	mv	s1, a5
800006f0: 13 04 07 00                  	mv	s0, a4
800006f4: 13 06 09 00                  	mv	a2, s2
800006f8: e3 f0 e5 ff                  	bgeu	a1, t5, -32
800006fc: 83 a5 04 00                  	lw	a1, 0(s1)
80000700: 23 20 b4 00                  	sw	a1, 0(s0)
80000704: 13 06 f6 ff                  	addi	a2, a2, -1
80000708: 33 04 d4 00                  	add	s0, s0, a3
8000070c: 93 84 44 00                  	addi	s1, s1, 4
80000710: e3 16 06 fe                  	bnez	a2, -20
80000714: 6f f0 5f fc                  	j	-60
80000718: 03 2a c1 00                  	lw	s4, 12(sp)
8000071c: 83 29 01 01                  	lw	s3, 16(sp)
80000720: 03 29 41 01                  	lw	s2, 20(sp)
80000724: 83 24 81 01                  	lw	s1, 24(sp)
80000728: 03 24 c1 01                  	lw	s0, 28(sp)
8000072c: 13 01 01 02                  	addi	sp, sp, 32
80000730: 67 80 00 00                  	ret

80000734 _exit:
80000734: 13 05 00 00                  	mv	a0, zero
80000738: 6b 00 05 00                  	<unknown>

8000073c vx_set_sp:
8000073c: 73 25 50 02                  	csrr	a0, 37
80000740: 6b 00 05 00                  	<unknown>
80000744: 97 21 00 00                  	auipc	gp, 2
80000748: 93 81 41 c8                  	addi	gp, gp, -892
8000074c: f3 25 20 02                  	csrr	a1, 34
80000750: 93 95 a5 00                  	slli	a1, a1, 10
80000754: 73 26 00 02                  	csrr	a2, 32
80000758: 13 16 26 00                  	slli	a2, a2, 2
8000075c: 37 f1 ff 6f                  	lui	sp, 458751
80000760: 33 01 b1 40                  	sub	sp, sp, a1
80000764: 33 01 c1 00                  	add	sp, sp, a2
80000768: f3 26 10 02                  	csrr	a3, 33
8000076c: 63 86 06 00                  	beqz	a3, 12
80000770: 13 05 00 00                  	mv	a0, zero
80000774: 6b 00 05 00                  	<unknown>

80000778 RETURN:
80000778: 67 80 00 00                  	ret

8000077c vx_wspawn:
8000077c: 6b 10 b5 00                  	<unknown>
80000780: 67 80 00 00                  	ret

80000784 vx_tmc:
80000784: 6b 00 05 00                  	<unknown>
80000788: 67 80 00 00                  	ret

8000078c vx_barrier:
8000078c: 6b 40 b5 00                  	<unknown>
80000790: 67 80 00 00                  	ret

80000794 vx_split:
80000794: 6b 20 05 00                  	<unknown>
80000798: 67 80 00 00                  	ret

8000079c vx_join:
8000079c: 6b 30 00 00                  	<unknown>
800007a0: 67 80 00 00                  	ret

800007a4 vx_warp_id:
800007a4: 73 25 10 02                  	csrr	a0, 33
800007a8: 67 80 00 00                  	ret

800007ac vx_warp_gid:
800007ac: 73 25 30 02                  	csrr	a0, 35
800007b0: 67 80 00 00                  	ret

800007b4 vx_thread_id:
800007b4: 73 25 00 02                  	csrr	a0, 32
800007b8: 67 80 00 00                  	ret

800007bc vx_thread_gid:
800007bc: 73 25 20 02                  	csrr	a0, 34
800007c0: 67 80 00 00                  	ret

800007c4 vx_core_id:
800007c4: 73 25 40 02                  	csrr	a0, 36
800007c8: 67 80 00 00                  	ret

800007cc vx_num_threads:
800007cc: 73 25 50 02                  	csrr	a0, 37
800007d0: 67 80 00 00                  	ret

800007d4 vx_num_warps:
800007d4: 73 25 60 02                  	csrr	a0, 38
800007d8: 67 80 00 00                  	ret

800007dc vx_num_cores:
800007dc: 73 25 70 02                  	csrr	a0, 39
800007e0: 67 80 00 00                  	ret

800007e4 vx_num_cycles:
800007e4: 73 25 00 c0                  	rdcycle	a0
800007e8: 67 80 00 00                  	ret

800007ec vx_num_instrs:
800007ec: 73 25 20 c0                  	rdinstret	a0
800007f0: 67 80 00 00                  	ret

800007f4 atexit:
800007f4: 93 05 05 00                  	mv	a1, a0
800007f8: 93 06 00 00                  	mv	a3, zero
800007fc: 13 06 00 00                  	mv	a2, zero
80000800: 13 05 00 00                  	mv	a0, zero
80000804: 6f 00 80 20                  	j	520

80000808 exit:
80000808: 13 01 01 ff                  	addi	sp, sp, -16
8000080c: 93 05 00 00                  	mv	a1, zero
80000810: 23 24 81 00                  	sw	s0, 8(sp)
80000814: 23 26 11 00                  	sw	ra, 12(sp)
80000818: 13 04 05 00                  	mv	s0, a0
8000081c: ef 00 80 28                  	jal	648
80000820: 03 a5 81 c2                  	lw	a0, -984(gp)
80000824: 83 27 c5 03                  	lw	a5, 60(a0)
80000828: 63 84 07 00                  	beqz	a5, 8
8000082c: e7 80 07 00                  	jalr	a5
80000830: 13 05 04 00                  	mv	a0, s0
80000834: ef f0 1f f0                  	jal	-256

80000838 __libc_fini_array:
80000838: 13 01 01 ff                  	addi	sp, sp, -16
8000083c: 23 24 81 00                  	sw	s0, 8(sp)
80000840: b7 27 00 80                  	lui	a5, 524290
80000844: 37 24 00 80                  	lui	s0, 524290
80000848: 13 04 84 bc                  	addi	s0, s0, -1080
8000084c: 93 87 87 bc                  	addi	a5, a5, -1080
80000850: b3 87 87 40                  	sub	a5, a5, s0
80000854: 23 22 91 00                  	sw	s1, 4(sp)
80000858: 23 26 11 00                  	sw	ra, 12(sp)
8000085c: 93 d4 27 40                  	srai	s1, a5, 2
80000860: 63 80 04 02                  	beqz	s1, 32
80000864: 93 87 c7 ff                  	addi	a5, a5, -4
80000868: 33 84 87 00                  	add	s0, a5, s0
8000086c: 83 27 04 00                  	lw	a5, 0(s0)
80000870: 93 84 f4 ff                  	addi	s1, s1, -1
80000874: 13 04 c4 ff                  	addi	s0, s0, -4
80000878: e7 80 07 00                  	jalr	a5
8000087c: e3 98 04 fe                  	bnez	s1, -16
80000880: 83 20 c1 00                  	lw	ra, 12(sp)
80000884: 03 24 81 00                  	lw	s0, 8(sp)
80000888: 83 24 41 00                  	lw	s1, 4(sp)
8000088c: 13 01 01 01                  	addi	sp, sp, 16
80000890: 67 80 00 00                  	ret

80000894 __libc_init_array:
80000894: 13 01 01 ff                  	addi	sp, sp, -16
80000898: 23 24 81 00                  	sw	s0, 8(sp)
8000089c: 23 20 21 01                  	sw	s2, 0(sp)
800008a0: 37 24 00 80                  	lui	s0, 524290
800008a4: 37 29 00 80                  	lui	s2, 524290
800008a8: 93 07 44 bc                  	addi	a5, s0, -1084
800008ac: 13 09 49 bc                  	addi	s2, s2, -1084
800008b0: 33 09 f9 40                  	sub	s2, s2, a5
800008b4: 23 26 11 00                  	sw	ra, 12(sp)
800008b8: 23 22 91 00                  	sw	s1, 4(sp)
800008bc: 13 59 29 40                  	srai	s2, s2, 2
800008c0: 63 00 09 02                  	beqz	s2, 32
800008c4: 13 04 44 bc                  	addi	s0, s0, -1084
800008c8: 93 04 00 00                  	mv	s1, zero
800008cc: 83 27 04 00                  	lw	a5, 0(s0)
800008d0: 93 84 14 00                  	addi	s1, s1, 1
800008d4: 13 04 44 00                  	addi	s0, s0, 4
800008d8: e7 80 07 00                  	jalr	a5
800008dc: e3 18 99 fe                  	bne	s2, s1, -16
800008e0: 37 24 00 80                  	lui	s0, 524290
800008e4: 37 29 00 80                  	lui	s2, 524290
800008e8: 93 07 44 bc                  	addi	a5, s0, -1084
800008ec: 13 09 89 bc                  	addi	s2, s2, -1080
800008f0: 33 09 f9 40                  	sub	s2, s2, a5
800008f4: 13 59 29 40                  	srai	s2, s2, 2
800008f8: 63 00 09 02                  	beqz	s2, 32
800008fc: 13 04 44 bc                  	addi	s0, s0, -1084
80000900: 93 04 00 00                  	mv	s1, zero
80000904: 83 27 04 00                  	lw	a5, 0(s0)
80000908: 93 84 14 00                  	addi	s1, s1, 1
8000090c: 13 04 44 00                  	addi	s0, s0, 4
80000910: e7 80 07 00                  	jalr	a5
80000914: e3 18 99 fe                  	bne	s2, s1, -16
80000918: 83 20 c1 00                  	lw	ra, 12(sp)
8000091c: 03 24 81 00                  	lw	s0, 8(sp)
80000920: 83 24 41 00                  	lw	s1, 4(sp)
80000924: 03 29 01 00                  	lw	s2, 0(sp)
80000928: 13 01 01 01                  	addi	sp, sp, 16
8000092c: 67 80 00 00                  	ret

80000930 memset:
80000930: 13 03 f0 00                  	addi	t1, zero, 15
80000934: 13 07 05 00                  	mv	a4, a0
80000938: 63 7e c3 02                  	bgeu	t1, a2, 60
8000093c: 93 77 f7 00                  	andi	a5, a4, 15
80000940: 63 90 07 0a                  	bnez	a5, 160
80000944: 63 92 05 08                  	bnez	a1, 132
80000948: 93 76 06 ff                  	andi	a3, a2, -16
8000094c: 13 76 f6 00                  	andi	a2, a2, 15
80000950: b3 86 e6 00                  	add	a3, a3, a4
80000954: 23 20 b7 00                  	sw	a1, 0(a4)
80000958: 23 22 b7 00                  	sw	a1, 4(a4)
8000095c: 23 24 b7 00                  	sw	a1, 8(a4)
80000960: 23 26 b7 00                  	sw	a1, 12(a4)
80000964: 13 07 07 01                  	addi	a4, a4, 16
80000968: e3 66 d7 fe                  	bltu	a4, a3, -20
8000096c: 63 14 06 00                  	bnez	a2, 8
80000970: 67 80 00 00                  	ret
80000974: b3 06 c3 40                  	sub	a3, t1, a2
80000978: 93 96 26 00                  	slli	a3, a3, 2
8000097c: 97 02 00 00                  	auipc	t0, 0
80000980: b3 86 56 00                  	add	a3, a3, t0
80000984: 67 80 c6 00                  	jr	12(a3)
80000988: 23 07 b7 00                  	sb	a1, 14(a4)
8000098c: a3 06 b7 00                  	sb	a1, 13(a4)
80000990: 23 06 b7 00                  	sb	a1, 12(a4)
80000994: a3 05 b7 00                  	sb	a1, 11(a4)
80000998: 23 05 b7 00                  	sb	a1, 10(a4)
8000099c: a3 04 b7 00                  	sb	a1, 9(a4)
800009a0: 23 04 b7 00                  	sb	a1, 8(a4)
800009a4: a3 03 b7 00                  	sb	a1, 7(a4)
800009a8: 23 03 b7 00                  	sb	a1, 6(a4)
800009ac: a3 02 b7 00                  	sb	a1, 5(a4)
800009b0: 23 02 b7 00                  	sb	a1, 4(a4)
800009b4: a3 01 b7 00                  	sb	a1, 3(a4)
800009b8: 23 01 b7 00                  	sb	a1, 2(a4)
800009bc: a3 00 b7 00                  	sb	a1, 1(a4)
800009c0: 23 00 b7 00                  	sb	a1, 0(a4)
800009c4: 67 80 00 00                  	ret
800009c8: 93 f5 f5 0f                  	andi	a1, a1, 255
800009cc: 93 96 85 00                  	slli	a3, a1, 8
800009d0: b3 e5 d5 00                  	or	a1, a1, a3
800009d4: 93 96 05 01                  	slli	a3, a1, 16
800009d8: b3 e5 d5 00                  	or	a1, a1, a3
800009dc: 6f f0 df f6                  	j	-148
800009e0: 93 96 27 00                  	slli	a3, a5, 2
800009e4: 97 02 00 00                  	auipc	t0, 0
800009e8: b3 86 56 00                  	add	a3, a3, t0
800009ec: 93 82 00 00                  	mv	t0, ra
800009f0: e7 80 06 fa                  	jalr	-96(a3)
800009f4: 93 80 02 00                  	mv	ra, t0
800009f8: 93 87 07 ff                  	addi	a5, a5, -16
800009fc: 33 07 f7 40                  	sub	a4, a4, a5
80000a00: 33 06 f6 00                  	add	a2, a2, a5
80000a04: e3 78 c3 f6                  	bgeu	t1, a2, -144
80000a08: 6f f0 df f3                  	j	-196

80000a0c __register_exitproc:
80000a0c: 03 a7 81 c2                  	lw	a4, -984(gp)
80000a10: 83 27 87 14                  	lw	a5, 328(a4)
80000a14: 63 8c 07 04                  	beqz	a5, 88
80000a18: 03 a7 47 00                  	lw	a4, 4(a5)
80000a1c: 13 08 f0 01                  	addi	a6, zero, 31
80000a20: 63 4e e8 06                  	blt	a6, a4, 124
80000a24: 13 18 27 00                  	slli	a6, a4, 2
80000a28: 63 06 05 02                  	beqz	a0, 44
80000a2c: 33 83 07 01                  	add	t1, a5, a6
80000a30: 23 24 c3 08                  	sw	a2, 136(t1)
80000a34: 83 a8 87 18                  	lw	a7, 392(a5)
80000a38: 13 06 10 00                  	addi	a2, zero, 1
80000a3c: 33 16 e6 00                  	sll	a2, a2, a4
80000a40: b3 e8 c8 00                  	or	a7, a7, a2
80000a44: 23 a4 17 19                  	sw	a7, 392(a5)
80000a48: 23 24 d3 10                  	sw	a3, 264(t1)
80000a4c: 93 06 20 00                  	addi	a3, zero, 2
80000a50: 63 04 d5 02                  	beq	a0, a3, 40
80000a54: 13 07 17 00                  	addi	a4, a4, 1
80000a58: 23 a2 e7 00                  	sw	a4, 4(a5)
80000a5c: b3 87 07 01                  	add	a5, a5, a6
80000a60: 23 a4 b7 00                  	sw	a1, 8(a5)
80000a64: 13 05 00 00                  	mv	a0, zero
80000a68: 67 80 00 00                  	ret
80000a6c: 93 07 c7 14                  	addi	a5, a4, 332
80000a70: 23 24 f7 14                  	sw	a5, 328(a4)
80000a74: 6f f0 5f fa                  	j	-92
80000a78: 83 a6 c7 18                  	lw	a3, 396(a5)
80000a7c: 13 07 17 00                  	addi	a4, a4, 1
80000a80: 23 a2 e7 00                  	sw	a4, 4(a5)
80000a84: 33 e6 c6 00                  	or	a2, a3, a2
80000a88: 23 a6 c7 18                  	sw	a2, 396(a5)
80000a8c: b3 87 07 01                  	add	a5, a5, a6
80000a90: 23 a4 b7 00                  	sw	a1, 8(a5)
80000a94: 13 05 00 00                  	mv	a0, zero
80000a98: 67 80 00 00                  	ret
80000a9c: 13 05 f0 ff                  	addi	a0, zero, -1
80000aa0: 67 80 00 00                  	ret

80000aa4 __call_exitprocs:
80000aa4: 13 01 01 fd                  	addi	sp, sp, -48
80000aa8: 23 2c 41 01                  	sw	s4, 24(sp)
80000aac: 03 aa 81 c2                  	lw	s4, -984(gp)
80000ab0: 23 20 21 03                  	sw	s2, 32(sp)
80000ab4: 23 26 11 02                  	sw	ra, 44(sp)
80000ab8: 03 29 8a 14                  	lw	s2, 328(s4)
80000abc: 23 24 81 02                  	sw	s0, 40(sp)
80000ac0: 23 22 91 02                  	sw	s1, 36(sp)
80000ac4: 23 2e 31 01                  	sw	s3, 28(sp)
80000ac8: 23 2a 51 01                  	sw	s5, 20(sp)
80000acc: 23 28 61 01                  	sw	s6, 16(sp)
80000ad0: 23 26 71 01                  	sw	s7, 12(sp)
80000ad4: 23 24 81 01                  	sw	s8, 8(sp)
80000ad8: 63 00 09 04                  	beqz	s2, 64
80000adc: 13 0b 05 00                  	mv	s6, a0
80000ae0: 93 8b 05 00                  	mv	s7, a1
80000ae4: 93 0a 10 00                  	addi	s5, zero, 1
80000ae8: 93 09 f0 ff                  	addi	s3, zero, -1
80000aec: 83 24 49 00                  	lw	s1, 4(s2)
80000af0: 13 84 f4 ff                  	addi	s0, s1, -1
80000af4: 63 42 04 02                  	bltz	s0, 36
80000af8: 93 94 24 00                  	slli	s1, s1, 2
80000afc: b3 04 99 00                  	add	s1, s2, s1
80000b00: 63 84 0b 04                  	beqz	s7, 72
80000b04: 83 a7 44 10                  	lw	a5, 260(s1)
80000b08: 63 80 77 05                  	beq	a5, s7, 64
80000b0c: 13 04 f4 ff                  	addi	s0, s0, -1
80000b10: 93 84 c4 ff                  	addi	s1, s1, -4
80000b14: e3 16 34 ff                  	bne	s0, s3, -20
80000b18: 83 20 c1 02                  	lw	ra, 44(sp)
80000b1c: 03 24 81 02                  	lw	s0, 40(sp)
80000b20: 83 24 41 02                  	lw	s1, 36(sp)
80000b24: 03 29 01 02                  	lw	s2, 32(sp)
80000b28: 83 29 c1 01                  	lw	s3, 28(sp)
80000b2c: 03 2a 81 01                  	lw	s4, 24(sp)
80000b30: 83 2a 41 01                  	lw	s5, 20(sp)
80000b34: 03 2b 01 01                  	lw	s6, 16(sp)
80000b38: 83 2b c1 00                  	lw	s7, 12(sp)
80000b3c: 03 2c 81 00                  	lw	s8, 8(sp)
80000b40: 13 01 01 03                  	addi	sp, sp, 48
80000b44: 67 80 00 00                  	ret
80000b48: 83 27 49 00                  	lw	a5, 4(s2)
80000b4c: 83 a6 44 00                  	lw	a3, 4(s1)
80000b50: 93 87 f7 ff                  	addi	a5, a5, -1
80000b54: 63 8e 87 04                  	beq	a5, s0, 92
80000b58: 23 a2 04 00                  	sw	zero, 4(s1)
80000b5c: e3 88 06 fa                  	beqz	a3, -80
80000b60: 83 27 89 18                  	lw	a5, 392(s2)
80000b64: 33 97 8a 00                  	sll	a4, s5, s0
80000b68: 03 2c 49 00                  	lw	s8, 4(s2)
80000b6c: b3 77 f7 00                  	and	a5, a4, a5
80000b70: 63 92 07 02                  	bnez	a5, 36
80000b74: e7 80 06 00                  	jalr	a3
80000b78: 03 27 49 00                  	lw	a4, 4(s2)
80000b7c: 83 27 8a 14                  	lw	a5, 328(s4)
80000b80: 63 14 87 01                  	bne	a4, s8, 8
80000b84: e3 04 f9 f8                  	beq	s2, a5, -120
80000b88: e3 88 07 f8                  	beqz	a5, -112
80000b8c: 13 89 07 00                  	mv	s2, a5
80000b90: 6f f0 df f5                  	j	-164
80000b94: 83 27 c9 18                  	lw	a5, 396(s2)
80000b98: 83 a5 44 08                  	lw	a1, 132(s1)
80000b9c: 33 77 f7 00                  	and	a4, a4, a5
80000ba0: 63 1c 07 00                  	bnez	a4, 24
80000ba4: 13 05 0b 00                  	mv	a0, s6
80000ba8: e7 80 06 00                  	jalr	a3
80000bac: 6f f0 df fc                  	j	-52
80000bb0: 23 22 89 00                  	sw	s0, 4(s2)
80000bb4: 6f f0 9f fa                  	j	-88
80000bb8: 13 85 05 00                  	mv	a0, a1
80000bbc: e7 80 06 00                  	jalr	a3
80000bc0: 6f f0 9f fb                  	j	-72

Disassembly of section .init_array:

80001bc4 __preinit_array_start:
80001bc4: 48 00                        	<unknown>
80001bc6: 00 80                        	<unknown>

Disassembly of section .data:

80001bc8 impure_data:
80001bc8: 00 00                        	<unknown>
80001bca: 00 00                        	<unknown>
80001bcc: b4 1e                        	<unknown>
80001bce: 00 80                        	<unknown>
80001bd0: 1c 1f                        	<unknown>
80001bd2: 00 80                        	<unknown>
80001bd4: 84 1f                        	<unknown>
80001bd6: 00 80                        	<unknown>
		...
80001c70: 01 00                        	<unknown>
80001c72: 00 00                        	<unknown>
80001c74: 00 00                        	<unknown>
80001c76: 00 00                        	<unknown>
80001c78: 0e 33                        	<unknown>
80001c7a: cd ab                        	<unknown>
80001c7c: 34 12                        	<unknown>
80001c7e: 6d e6                        	<unknown>
80001c80: ec de                        	<unknown>
80001c82: 05 00                        	<unknown>
80001c84: 0b 00 00 00                  	<unknown>
		...

Disassembly of section .sdata:

80001ff0 _global_impure_ptr:
80001ff0: c8 1b                        	<unknown>
80001ff2: 00 80                        	<unknown>

Disassembly of section .bss:

80001ff4 g_wspawn_args:
...

Disassembly of section .comment:

00000000 .comment:
       0: 63 6c 61 6e                  	bltu	sp, t1, 1784
       4: 67 20 76 65                  	<unknown>
       8: 72 73                        	<unknown>
       a: 69 6f                        	<unknown>
       c: 6e 20                        	<unknown>
       e: 31 30                        	<unknown>
      10: 2e 30                        	<unknown>
      12: 2e 30                        	<unknown>
      14: 20 28                        	<unknown>
      16: 68 74                        	<unknown>
      18: 74 70                        	<unknown>
      1a: 73 3a 2f 2f                  	csrrc	s4, 754, t5
      1e: 67 69 74 68                  	<unknown>
      22: 75 62                        	<unknown>
      24: 2e 63                        	<unknown>
      26: 6f 6d 2f 6c                  	jal	s10, 1009346
      2a: 6c 76                        	<unknown>
      2c: 6d 2f                        	<unknown>
      2e: 6c 6c                        	<unknown>
      30: 76 6d                        	<unknown>
      32: 2d 70                        	<unknown>
      34: 72 6f                        	<unknown>
      36: 6a 65                        	<unknown>
      38: 63 74 2e 67                  	bgeu	t3, s2, 1640
      3c: 69 74                        	<unknown>
      3e: 20 37                        	<unknown>
      40: 33 63 35 33                  	<unknown>
      44: 65 36                        	<unknown>
      46: 31 32                        	<unknown>
      48: 61 61                        	<unknown>
      4a: 31 32                        	<unknown>
      4c: 35 61                        	<unknown>
      4e: 32 34                        	<unknown>
      50: 65 62                        	<unknown>
      52: 32 63                        	<unknown>
      54: 37 35 32 34                  	lui	a0, 213795
      58: 31 62                        	<unknown>
      5a: 32 65                        	<unknown>
      5c: 62 62                        	<unknown>
      5e: 64 35                        	<unknown>
      60: 36 30                        	<unknown>
      62: 62 38                        	<unknown>
      64: 35 63                        	<unknown>
      66: 37 29 00 47                  	lui	s2, 290818
      6a: 43 43 3a 20                  	fmadd.s	ft6, fs4, ft3, ft4, rmm
      6e: 28 47                        	<unknown>
      70: 4e 55                        	<unknown>
      72: 29 20                        	<unknown>
      74: 39 2e                        	<unknown>
      76: 32 2e                        	<unknown>
      78: 30 00                        	<unknown>

Disassembly of section .riscv.attributes:

00000000 .riscv.attributes:
       0: 41 25                        	<unknown>
       2: 00 00                        	<unknown>
       4: 00 72                        	<unknown>
       6: 69 73                        	<unknown>
       8: 63 76 00 01                  	bgeu	zero, a6, 12
       c: 1b 00 00 00                  	<unknown>
      10: 04 10                        	<unknown>
      12: 05 72                        	<unknown>
      14: 76 33                        	<unknown>
      16: 32 69                        	<unknown>
      18: 32 70                        	<unknown>
      1a: 30 5f                        	<unknown>
      1c: 6d 32                        	<unknown>
      1e: 70 30                        	<unknown>
      20: 5f 66 32 70                  	<unknown>
      24: 30 00                        	<unknown>

Disassembly of section .symtab:

00000000 .symtab:
		...
      14: 00 00                        	<unknown>
      16: 00 80                        	<unknown>
      18: 00 00                        	<unknown>
      1a: 00 00                        	<unknown>
      1c: 03 00 01 00                  	lb	zero, 0(sp)
      20: 00 00                        	<unknown>
      22: 00 00                        	<unknown>
      24: 48 00                        	<unknown>
      26: 00 80                        	<unknown>
      28: 00 00                        	<unknown>
      2a: 00 00                        	<unknown>
      2c: 03 00 02 00                  	lb	zero, 0(tp)
      30: 00 00                        	<unknown>
      32: 00 00                        	<unknown>
      34: c4 1b                        	<unknown>
      36: 00 80                        	<unknown>
      38: 00 00                        	<unknown>
      3a: 00 00                        	<unknown>
      3c: 03 00 03 00                  	lb	zero, 0(t1)
      40: 00 00                        	<unknown>
      42: 00 00                        	<unknown>
      44: c8 1b                        	<unknown>
      46: 00 80                        	<unknown>
      48: 00 00                        	<unknown>
      4a: 00 00                        	<unknown>
      4c: 03 00 04 00                  	lb	zero, 0(s0)
      50: 00 00                        	<unknown>
      52: 00 00                        	<unknown>
      54: f0 1f                        	<unknown>
      56: 00 80                        	<unknown>
      58: 00 00                        	<unknown>
      5a: 00 00                        	<unknown>
      5c: 03 00 05 00                  	lb	zero, 0(a0)
      60: 00 00                        	<unknown>
      62: 00 00                        	<unknown>
      64: f4 1f                        	<unknown>
      66: 00 80                        	<unknown>
      68: 00 00                        	<unknown>
      6a: 00 00                        	<unknown>
      6c: 03 00 06 00                  	lb	zero, 0(a2)
		...
      7c: 03 00 07 00                  	lb	zero, 0(a4)
		...
      8c: 03 00 08 00                  	lb	zero, 0(a6)
      90: 01 00                        	<unknown>
		...
      9a: 00 00                        	<unknown>
      9c: 04 00                        	<unknown>
      9e: f1 ff                        	<unknown>
      a0: 0e 00                        	<unknown>
      a2: 00 00                        	<unknown>
      a4: 78 07                        	<unknown>
      a6: 00 80                        	<unknown>
      a8: 00 00                        	<unknown>
      aa: 00 00                        	<unknown>
      ac: 00 00                        	<unknown>
      ae: 02 00                        	<unknown>
      b0: 15 00                        	<unknown>
		...
      ba: 00 00                        	<unknown>
      bc: 04 00                        	<unknown>
      be: f1 ff                        	<unknown>
      c0: 25 00                        	<unknown>
      c2: 00 00                        	<unknown>
      c4: 48 00                        	<unknown>
      c6: 00 80                        	<unknown>
      c8: 18 00                        	<unknown>
      ca: 00 00                        	<unknown>
      cc: 02 00                        	<unknown>
      ce: 02 00                        	<unknown>
      d0: 33 00 00 00                  	add	zero, zero, zero
		...
      dc: 04 00                        	<unknown>
      de: f1 ff                        	<unknown>
      e0: 57 00 00 00                  	<unknown>
		...
      ec: 04 00                        	<unknown>
      ee: f1 ff                        	<unknown>
      f0: 73 00 00 00                  	ecall	
		...
      fc: 04 00                        	<unknown>
      fe: f1 ff                        	<unknown>
     100: 75 00                        	<unknown>
		...
     10a: 00 00                        	<unknown>
     10c: 04 00                        	<unknown>
     10e: f1 ff                        	<unknown>
     110: 63 00 00 00                  	beqz	zero, 0
		...
     11c: 04 00                        	<unknown>
     11e: f1 ff                        	<unknown>
     120: 6a 00                        	<unknown>
		...
     12a: 00 00                        	<unknown>
     12c: 04 00                        	<unknown>
     12e: f1 ff                        	<unknown>
     130: 71 00                        	<unknown>
		...
     13a: 00 00                        	<unknown>
     13c: 04 00                        	<unknown>
     13e: f1 ff                        	<unknown>
     140: 7c 00                        	<unknown>
		...
     14a: 00 00                        	<unknown>
     14c: 04 00                        	<unknown>
     14e: f1 ff                        	<unknown>
     150: 85 00                        	<unknown>
     152: 00 00                        	<unknown>
     154: c8 1b                        	<unknown>
     156: 00 80                        	<unknown>
     158: 28 04                        	<unknown>
     15a: 00 00                        	<unknown>
     15c: 01 00                        	<unknown>
     15e: 04 00                        	<unknown>
		...
     16c: 04 00                        	<unknown>
     16e: f1 ff                        	<unknown>
     170: 91 00                        	<unknown>
     172: 00 00                        	<unknown>
     174: c8 1b                        	<unknown>
     176: 00 80                        	<unknown>
     178: 00 00                        	<unknown>
     17a: 00 00                        	<unknown>
     17c: 00 00                        	<unknown>
     17e: 04 00                        	<unknown>
     180: a2 00                        	<unknown>
     182: 00 00                        	<unknown>
     184: c8 1b                        	<unknown>
     186: 00 80                        	<unknown>
     188: 00 00                        	<unknown>
     18a: 00 00                        	<unknown>
     18c: 00 00                        	<unknown>
     18e: 04 00                        	<unknown>
     190: b5 00                        	<unknown>
     192: 00 00                        	<unknown>
     194: c8 1b                        	<unknown>
     196: 00 80                        	<unknown>
     198: 00 00                        	<unknown>
     19a: 00 00                        	<unknown>
     19c: 00 00                        	<unknown>
     19e: 03 00 c6 00                  	lb	zero, 12(a2)
     1a2: 00 00                        	<unknown>
     1a4: c4 1b                        	<unknown>
     1a6: 00 80                        	<unknown>
     1a8: 00 00                        	<unknown>
     1aa: 00 00                        	<unknown>
     1ac: 00 00                        	<unknown>
     1ae: 03 00 da 00                  	lb	zero, 13(s4)
     1b2: 00 00                        	<unknown>
     1b4: c4 1b                        	<unknown>
     1b6: 00 80                        	<unknown>
     1b8: 00 00                        	<unknown>
     1ba: 00 00                        	<unknown>
     1bc: 00 00                        	<unknown>
     1be: 03 00 ed 00                  	lb	zero, 14(s10)
     1c2: 00 00                        	<unknown>
     1c4: c4 1b                        	<unknown>
     1c6: 00 80                        	<unknown>
     1c8: 00 00                        	<unknown>
     1ca: 00 00                        	<unknown>
     1cc: 00 00                        	<unknown>
     1ce: 03 00 03 01                  	lb	zero, 16(t1)
     1d2: 00 00                        	<unknown>
     1d4: c8 23                        	<unknown>
     1d6: 00 80                        	<unknown>
     1d8: 00 00                        	<unknown>
     1da: 00 00                        	<unknown>
     1dc: 10 00                        	<unknown>
     1de: f1 ff                        	<unknown>
     1e0: 15 01                        	<unknown>
     1e2: 00 00                        	<unknown>
     1e4: c4 07                        	<unknown>
     1e6: 00 80                        	<unknown>
     1e8: 00 00                        	<unknown>
     1ea: 00 00                        	<unknown>
     1ec: 12 00                        	<unknown>
     1ee: 02 00                        	<unknown>
     1f0: 20 01                        	<unknown>
     1f2: 00 00                        	<unknown>
     1f4: 7c 07                        	<unknown>
     1f6: 00 80                        	<unknown>
     1f8: 00 00                        	<unknown>
     1fa: 00 00                        	<unknown>
     1fc: 12 00                        	<unknown>
     1fe: 02 00                        	<unknown>
     200: 2a 01                        	<unknown>
     202: 00 00                        	<unknown>
     204: 60 00                        	<unknown>
     206: 00 80                        	<unknown>
     208: 3c 01                        	<unknown>
     20a: 00 00                        	<unknown>
     20c: 12 00                        	<unknown>
     20e: 02 00                        	<unknown>
     210: 40 01                        	<unknown>
     212: 00 00                        	<unknown>
     214: f4 1f                        	<unknown>
     216: 00 80                        	<unknown>
     218: 04 00                        	<unknown>
     21a: 00 00                        	<unknown>
     21c: 11 00                        	<unknown>
     21e: 06 00                        	<unknown>
     220: 4e 01                        	<unknown>
     222: 00 00                        	<unknown>
     224: 84 07                        	<unknown>
     226: 00 80                        	<unknown>
     228: 00 00                        	<unknown>
     22a: 00 00                        	<unknown>
     22c: 12 00                        	<unknown>
     22e: 02 00                        	<unknown>
     230: 55 01                        	<unknown>
     232: 00 00                        	<unknown>
     234: f0 1f                        	<unknown>
     236: 00 80                        	<unknown>
     238: 00 00                        	<unknown>
     23a: 00 00                        	<unknown>
     23c: 10 00                        	<unknown>
     23e: 05 00                        	<unknown>
     240: 65 01                        	<unknown>
     242: 00 00                        	<unknown>
     244: 3c 05                        	<unknown>
     246: 00 80                        	<unknown>
     248: 00 01                        	<unknown>
     24a: 00 00                        	<unknown>
     24c: 12 00                        	<unknown>
     24e: 02 00                        	<unknown>
     250: 88 01                        	<unknown>
     252: 00 00                        	<unknown>
     254: 9c 07                        	<unknown>
     256: 00 80                        	<unknown>
     258: 00 00                        	<unknown>
     25a: 00 00                        	<unknown>
     25c: 12 00                        	<unknown>
     25e: 02 00                        	<unknown>
     260: 90 01                        	<unknown>
     262: 00 00                        	<unknown>
     264: d4 07                        	<unknown>
     266: 00 80                        	<unknown>
     268: 00 00                        	<unknown>
     26a: 00 00                        	<unknown>
     26c: 12 00                        	<unknown>
     26e: 02 00                        	<unknown>
     270: 9d 01                        	<unknown>
     272: 00 00                        	<unknown>
     274: 3c 02                        	<unknown>
     276: 00 80                        	<unknown>
     278: cc 01                        	<unknown>
     27a: 00 00                        	<unknown>
     27c: 12 00                        	<unknown>
     27e: 02 00                        	<unknown>
     280: aa 01                        	<unknown>
     282: 00 00                        	<unknown>
     284: 94 07                        	<unknown>
     286: 00 80                        	<unknown>
     288: 00 00                        	<unknown>
     28a: 00 00                        	<unknown>
     28c: 12 00                        	<unknown>
     28e: 02 00                        	<unknown>
     290: b3 01 00 00                  	add	gp, zero, zero
     294: f0 1f                        	<unknown>
     296: 00 80                        	<unknown>
     298: 04 00                        	<unknown>
     29a: 00 00                        	<unknown>
     29c: 11 00                        	<unknown>
     29e: 05 00                        	<unknown>
     2a0: c6 01                        	<unknown>
     2a2: 00 00                        	<unknown>
     2a4: 94 08                        	<unknown>
     2a6: 00 80                        	<unknown>
     2a8: 9c 00                        	<unknown>
     2aa: 00 00                        	<unknown>
     2ac: 12 00                        	<unknown>
     2ae: 02 00                        	<unknown>
     2b0: d8 01                        	<unknown>
     2b2: 00 00                        	<unknown>
     2b4: cc 07                        	<unknown>
     2b6: 00 80                        	<unknown>
     2b8: 00 00                        	<unknown>
     2ba: 00 00                        	<unknown>
     2bc: 12 00                        	<unknown>
     2be: 02 00                        	<unknown>
     2c0: e7 01 00 00                  	jalr	gp, zero
     2c4: a4 07                        	<unknown>
     2c6: 00 80                        	<unknown>
     2c8: 00 00                        	<unknown>
     2ca: 00 00                        	<unknown>
     2cc: 12 00                        	<unknown>
     2ce: 02 00                        	<unknown>
     2d0: f2 01                        	<unknown>
     2d2: 00 00                        	<unknown>
     2d4: b4 07                        	<unknown>
     2d6: 00 80                        	<unknown>
     2d8: 00 00                        	<unknown>
     2da: 00 00                        	<unknown>
     2dc: 12 00                        	<unknown>
     2de: 02 00                        	<unknown>
     2e0: ff 01 00 00                  	<unknown>
     2e4: 38 08                        	<unknown>
     2e6: 00 80                        	<unknown>
     2e8: 5c 00                        	<unknown>
     2ea: 00 00                        	<unknown>
     2ec: 12 00                        	<unknown>
     2ee: 02 00                        	<unknown>
     2f0: 11 02                        	<unknown>
     2f2: 00 00                        	<unknown>
     2f4: 3c 07                        	<unknown>
     2f6: 00 80                        	<unknown>
     2f8: 00 00                        	<unknown>
     2fa: 00 00                        	<unknown>
     2fc: 12 00                        	<unknown>
     2fe: 02 00                        	<unknown>
     300: 1b 02 00 00                  	<unknown>
     304: 8c 07                        	<unknown>
     306: 00 80                        	<unknown>
     308: 00 00                        	<unknown>
     30a: 00 00                        	<unknown>
     30c: 12 00                        	<unknown>
     30e: 02 00                        	<unknown>
     310: 26 02                        	<unknown>
     312: 00 00                        	<unknown>
     314: a4 0a                        	<unknown>
     316: 00 80                        	<unknown>
     318: 20 01                        	<unknown>
     31a: 00 00                        	<unknown>
     31c: 12 00                        	<unknown>
     31e: 02 00                        	<unknown>
     320: 5c 02                        	<unknown>
     322: 00 00                        	<unknown>
     324: 00 00                        	<unknown>
     326: 00 80                        	<unknown>
     328: 48 00                        	<unknown>
     32a: 00 00                        	<unknown>
     32c: 12 00                        	<unknown>
     32e: 01 00                        	<unknown>
     330: 37 02 00 00                  	lui	tp, 0
     334: 0c 0a                        	<unknown>
     336: 00 80                        	<unknown>
     338: 98 00                        	<unknown>
     33a: 00 00                        	<unknown>
     33c: 12 00                        	<unknown>
     33e: 02 00                        	<unknown>
     340: 4b 02 00 00                  	fnmsub.s	ft4, ft0, ft0, ft0, rne
     344: f8 1f                        	<unknown>
     346: 00 80                        	<unknown>
     348: 00 00                        	<unknown>
     34a: 00 00                        	<unknown>
     34c: 10 00                        	<unknown>
     34e: 06 00                        	<unknown>
     350: 57 02 00 00                  	<unknown>
     354: f4 1f                        	<unknown>
     356: 00 80                        	<unknown>
     358: 00 00                        	<unknown>
     35a: 00 00                        	<unknown>
     35c: 10 00                        	<unknown>
     35e: 06 00                        	<unknown>
     360: 63 02 00 00                  	beqz	zero, 4
     364: 30 09                        	<unknown>
     366: 00 80                        	<unknown>
     368: dc 00                        	<unknown>
     36a: 00 00                        	<unknown>
     36c: 12 00                        	<unknown>
     36e: 02 00                        	<unknown>
     370: 6a 02                        	<unknown>
     372: 00 00                        	<unknown>
     374: 08 04                        	<unknown>
     376: 00 80                        	<unknown>
     378: 30 00                        	<unknown>
     37a: 00 00                        	<unknown>
     37c: 12 00                        	<unknown>
     37e: 02 00                        	<unknown>
     380: 6f 02 00 00                  	jal	tp, 0
     384: e4 07                        	<unknown>
     386: 00 80                        	<unknown>
     388: 00 00                        	<unknown>
     38a: 00 00                        	<unknown>
     38c: 12 00                        	<unknown>
     38e: 02 00                        	<unknown>
     390: 7d 02                        	<unknown>
     392: 00 00                        	<unknown>
     394: f4 07                        	<unknown>
     396: 00 80                        	<unknown>
     398: 14 00                        	<unknown>
     39a: 00 00                        	<unknown>
     39c: 12 00                        	<unknown>
     39e: 02 00                        	<unknown>
     3a0: 84 02                        	<unknown>
     3a2: 00 00                        	<unknown>
     3a4: bc 07                        	<unknown>
     3a6: 00 80                        	<unknown>
     3a8: 00 00                        	<unknown>
     3aa: 00 00                        	<unknown>
     3ac: 12 00                        	<unknown>
     3ae: 02 00                        	<unknown>
     3b0: 92 02                        	<unknown>
     3b2: 00 00                        	<unknown>
     3b4: dc 07                        	<unknown>
     3b6: 00 80                        	<unknown>
     3b8: 00 00                        	<unknown>
     3ba: 00 00                        	<unknown>
     3bc: 12 00                        	<unknown>
     3be: 02 00                        	<unknown>
     3c0: 9f 02 00 00                  	<unknown>
     3c4: ac 07                        	<unknown>
     3c6: 00 80                        	<unknown>
     3c8: 00 00                        	<unknown>
     3ca: 00 00                        	<unknown>
     3cc: 12 00                        	<unknown>
     3ce: 02 00                        	<unknown>
     3d0: ab 02 00 00                  	<unknown>
     3d4: 9c 01                        	<unknown>
     3d6: 00 80                        	<unknown>
     3d8: a0 00                        	<unknown>
     3da: 00 00                        	<unknown>
     3dc: 12 00                        	<unknown>
     3de: 02 00                        	<unknown>
     3e0: c4 02                        	<unknown>
     3e2: 00 00                        	<unknown>
     3e4: 3c 06                        	<unknown>
     3e6: 00 80                        	<unknown>
     3e8: f8 00                        	<unknown>
     3ea: 00 00                        	<unknown>
     3ec: 12 00                        	<unknown>
     3ee: 02 00                        	<unknown>
     3f0: ec 02                        	<unknown>
     3f2: 00 00                        	<unknown>
     3f4: c8 1b                        	<unknown>
     3f6: 00 80                        	<unknown>
     3f8: 00 00                        	<unknown>
     3fa: 00 00                        	<unknown>
     3fc: 10 00                        	<unknown>
     3fe: 04 00                        	<unknown>
     400: fb 02 00 00                  	<unknown>
     404: f4 1f                        	<unknown>
     406: 00 80                        	<unknown>
     408: 00 00                        	<unknown>
     40a: 00 00                        	<unknown>
     40c: 10 00                        	<unknown>
     40e: 05 00                        	<unknown>
     410: 9d 00                        	<unknown>
     412: 00 00                        	<unknown>
     414: f8 1f                        	<unknown>
     416: 00 80                        	<unknown>
     418: 00 00                        	<unknown>
     41a: 00 00                        	<unknown>
     41c: 10 00                        	<unknown>
     41e: 06 00                        	<unknown>
     420: 02 03                        	<unknown>
     422: 00 00                        	<unknown>
     424: 38 04                        	<unknown>
     426: 00 80                        	<unknown>
     428: 04 01                        	<unknown>
     42a: 00 00                        	<unknown>
     42c: 12 00                        	<unknown>
     42e: 02 00                        	<unknown>
     430: 1c 03                        	<unknown>
     432: 00 00                        	<unknown>
     434: 08 08                        	<unknown>
     436: 00 80                        	<unknown>
     438: 30 00                        	<unknown>
     43a: 00 00                        	<unknown>
     43c: 12 00                        	<unknown>
     43e: 02 00                        	<unknown>
     440: 1b 03 00 00                  	<unknown>
     444: 34 07                        	<unknown>
     446: 00 80                        	<unknown>
     448: 00 00                        	<unknown>
     44a: 00 00                        	<unknown>
     44c: 12 00                        	<unknown>
     44e: 02 00                        	<unknown>
     450: 21 03                        	<unknown>
     452: 00 00                        	<unknown>
     454: ec 07                        	<unknown>
     456: 00 80                        	<unknown>
     458: 00 00                        	<unknown>
     45a: 00 00                        	<unknown>
     45c: 12 00                        	<unknown>
     45e: 02 00                        	<unknown>

Disassembly of section .strtab:

00000000 .strtab:
       0: 00 76                        	<unknown>
       2: 78 5f                        	<unknown>
       4: 73 74 61 72                  	csrrci	s0, 1830, 2
       8: 74 2e                        	<unknown>
       a: 53 2e 6f 00                  	fadd.s	ft8, ft10, ft6, rdn
       e: 52 45                        	<unknown>
      10: 54 55                        	<unknown>
      12: 52 4e                        	<unknown>
      14: 00 5f                        	<unknown>
      16: 5f 63 61 6c                  	<unknown>
      1a: 6c 5f                        	<unknown>
      1c: 61 74                        	<unknown>
      1e: 65 78                        	<unknown>
      20: 69 74                        	<unknown>
      22: 2e 63                        	<unknown>
      24: 00 72                        	<unknown>
      26: 65 67                        	<unknown>
      28: 69 73                        	<unknown>
      2a: 74 65                        	<unknown>
      2c: 72 5f                        	<unknown>
      2e: 66 69                        	<unknown>
      30: 6e 69                        	<unknown>
      32: 00 70                        	<unknown>
      34: 6f 63 6c 5f                  	jal	t1, 812534
      38: 76 6f                        	<unknown>
      3a: 72 74                        	<unknown>
      3c: 65 78                        	<unknown>
      3e: 5f 6b 65 72                  	<unknown>
      42: 6e 65                        	<unknown>
      44: 6c 2d                        	<unknown>
      46: 66 32                        	<unknown>
      48: 2d 39                        	<unknown>
      4a: 37 2d 35 38                  	lui	s10, 230226
      4e: 2d 39                        	<unknown>
      50: 35 2d                        	<unknown>
      52: 65 66                        	<unknown>
      54: 2e 63                        	<unknown>
      56: 00 70                        	<unknown>
      58: 61 72                        	<unknown>
      5a: 61 6c                        	<unknown>
      5c: 6c 65                        	<unknown>
      5e: 6c 5f                        	<unknown>
      60: 62 63                        	<unknown>
      62: 00 66                        	<unknown>
      64: 69 6e                        	<unknown>
      66: 69 2e                        	<unknown>
      68: 63 00 69 6e                  	beq	s2, t1, 1760
      6c: 69 74                        	<unknown>
      6e: 2e 63                        	<unknown>
      70: 00 5f                        	<unknown>
      72: 5f 61 74 65                  	<unknown>
      76: 78 69                        	<unknown>
      78: 74 2e                        	<unknown>
      7a: 63 00 69 6d                  	beq	s2, s6, 1728
      7e: 70 75                        	<unknown>
      80: 72 65                        	<unknown>
      82: 2e 63                        	<unknown>
      84: 00 69                        	<unknown>
      86: 6d 70                        	<unknown>
      88: 75 72                        	<unknown>
      8a: 65 5f                        	<unknown>
      8c: 64 61                        	<unknown>
      8e: 74 61                        	<unknown>
      90: 00 5f                        	<unknown>
      92: 5f 66 69 6e                  	<unknown>
      96: 69 5f                        	<unknown>
      98: 61 72                        	<unknown>
      9a: 72 61                        	<unknown>
      9c: 79 5f                        	<unknown>
      9e: 65 6e                        	<unknown>
      a0: 64 00                        	<unknown>
      a2: 5f 5f 66 69                  	<unknown>
      a6: 6e 69                        	<unknown>
      a8: 5f 61 72 72                  	<unknown>
      ac: 61 79                        	<unknown>
      ae: 5f 73 74 61                  	<unknown>
      b2: 72 74                        	<unknown>
      b4: 00 5f                        	<unknown>
      b6: 5f 69 6e 69                  	<unknown>
      ba: 74 5f                        	<unknown>
      bc: 61 72                        	<unknown>
      be: 72 61                        	<unknown>
      c0: 79 5f                        	<unknown>
      c2: 65 6e                        	<unknown>
      c4: 64 00                        	<unknown>
      c6: 5f 5f 70 72                  	<unknown>
      ca: 65 69                        	<unknown>
      cc: 6e 69                        	<unknown>
      ce: 74 5f                        	<unknown>
      d0: 61 72                        	<unknown>
      d2: 72 61                        	<unknown>
      d4: 79 5f                        	<unknown>
      d6: 65 6e                        	<unknown>
      d8: 64 00                        	<unknown>
      da: 5f 5f 69 6e                  	<unknown>
      de: 69 74                        	<unknown>
      e0: 5f 61 72 72                  	<unknown>
      e4: 61 79                        	<unknown>
      e6: 5f 73 74 61                  	<unknown>
      ea: 72 74                        	<unknown>
      ec: 00 5f                        	<unknown>
      ee: 5f 70 72 65                  	<unknown>
      f2: 69 6e                        	<unknown>
      f4: 69 74                        	<unknown>
      f6: 5f 61 72 72                  	<unknown>
      fa: 61 79                        	<unknown>
      fc: 5f 73 74 61                  	<unknown>
     100: 72 74                        	<unknown>
     102: 00 5f                        	<unknown>
     104: 5f 67 6c 6f                  	<unknown>
     108: 62 61                        	<unknown>
     10a: 6c 5f                        	<unknown>
     10c: 70 6f                        	<unknown>
     10e: 69 6e                        	<unknown>
     110: 74 65                        	<unknown>
     112: 72 24                        	<unknown>
     114: 00 76                        	<unknown>
     116: 78 5f                        	<unknown>
     118: 63 6f 72 65                  	bltu	tp, s7, 1630
     11c: 5f 69 64 00                  	<unknown>
     120: 76 78                        	<unknown>
     122: 5f 77 73 70                  	<unknown>
     126: 61 77                        	<unknown>
     128: 6e 00                        	<unknown>
     12a: 6b 65 72 6e                  	<unknown>
     12e: 65 6c                        	<unknown>
     130: 5f 73 70 61                  	<unknown>
     134: 77 6e 5f 72                  	<unknown>
     138: 75 6e                        	<unknown>
     13a: 5f 77 61 72                  	<unknown>
     13e: 70 00                        	<unknown>
     140: 67 5f 77 73                  	<unknown>
     144: 70 61                        	<unknown>
     146: 77 6e 5f 61                  	<unknown>
     14a: 72 67                        	<unknown>
     14c: 73 00 76 78                  	<unknown>
     150: 5f 74 6d 63                  	<unknown>
     154: 00 5f                        	<unknown>
     156: 5f 53 44 41                  	<unknown>
     15a: 54 41                        	<unknown>
     15c: 5f 42 45 47                  	<unknown>
     160: 49 4e                        	<unknown>
     162: 5f 5f 00 5f                  	<unknown>
     166: 70 6f                        	<unknown>
     168: 63 6c 5f 6b                  	bltu	t5, s5, 1720
     16c: 65 72                        	<unknown>
     16e: 6e 65                        	<unknown>
     170: 6c 5f                        	<unknown>
     172: 6b 6d 65 61                  	<unknown>
     176: 6e 73                        	<unknown>
     178: 5f 73 77 61                  	<unknown>
     17c: 70 5f                        	<unknown>
     17e: 77 6f 72 6b                  	<unknown>
     182: 67 72 6f 75                  	<unknown>
     186: 70 00                        	<unknown>
     188: 76 78                        	<unknown>
     18a: 5f 6a 6f 69                  	<unknown>
     18e: 6e 00                        	<unknown>
     190: 76 78                        	<unknown>
     192: 5f 6e 75 6d                  	<unknown>
     196: 5f 77 61 72                  	<unknown>
     19a: 70 73                        	<unknown>
     19c: 00 6b                        	<unknown>
     19e: 65 72                        	<unknown>
     1a0: 6e 65                        	<unknown>
     1a2: 6c 5f                        	<unknown>
     1a4: 73 70 61 77                  	csrci	1910, 2
     1a8: 6e 00                        	<unknown>
     1aa: 76 78                        	<unknown>
     1ac: 5f 73 70 6c                  	<unknown>
     1b0: 69 74                        	<unknown>
     1b2: 00 5f                        	<unknown>
     1b4: 67 6c 6f 62                  	<unknown>
     1b8: 61 6c                        	<unknown>
     1ba: 5f 69 6d 70                  	<unknown>
     1be: 75 72                        	<unknown>
     1c0: 65 5f                        	<unknown>
     1c2: 70 74                        	<unknown>
     1c4: 72 00                        	<unknown>
     1c6: 5f 5f 6c 69                  	<unknown>
     1ca: 62 63                        	<unknown>
     1cc: 5f 69 6e 69                  	<unknown>
     1d0: 74 5f                        	<unknown>
     1d2: 61 72                        	<unknown>
     1d4: 72 61                        	<unknown>
     1d6: 79 00                        	<unknown>
     1d8: 76 78                        	<unknown>
     1da: 5f 6e 75 6d                  	<unknown>
     1de: 5f 74 68 72                  	<unknown>
     1e2: 65 61                        	<unknown>
     1e4: 64 73                        	<unknown>
     1e6: 00 76                        	<unknown>
     1e8: 78 5f                        	<unknown>
     1ea: 77 61 72 70                  	<unknown>
     1ee: 5f 69 64 00                  	<unknown>
     1f2: 76 78                        	<unknown>
     1f4: 5f 74 68 72                  	<unknown>
     1f8: 65 61                        	<unknown>
     1fa: 64 5f                        	<unknown>
     1fc: 69 64                        	<unknown>
     1fe: 00 5f                        	<unknown>
     200: 5f 6c 69 62                  	<unknown>
     204: 63 5f 66 69                  	bge	a2, s6, 1694
     208: 6e 69                        	<unknown>
     20a: 5f 61 72 72                  	<unknown>
     20e: 61 79                        	<unknown>
     210: 00 76                        	<unknown>
     212: 78 5f                        	<unknown>
     214: 73 65 74 5f                  	csrrsi	a0, 1527, 8
     218: 73 70 00 76                  	csrci	1888, 0
     21c: 78 5f                        	<unknown>
     21e: 62 61                        	<unknown>
     220: 72 72                        	<unknown>
     222: 69 65                        	<unknown>
     224: 72 00                        	<unknown>
     226: 5f 5f 63 61                  	<unknown>
     22a: 6c 6c                        	<unknown>
     22c: 5f 65 78 69                  	<unknown>
     230: 74 70                        	<unknown>
     232: 72 6f                        	<unknown>
     234: 63 73 00 5f                  	bgeu	zero, a6, 1510
     238: 5f 72 65 67                  	<unknown>
     23c: 69 73                        	<unknown>
     23e: 74 65                        	<unknown>
     240: 72 5f                        	<unknown>
     242: 65 78                        	<unknown>
     244: 69 74                        	<unknown>
     246: 70 72                        	<unknown>
     248: 6f 63 00 5f                  	jal	t1, 26096
     24c: 5f 42 53 53                  	<unknown>
     250: 5f 45 4e 44                  	<unknown>
     254: 5f 5f 00 5f                  	<unknown>
     258: 5f 62 73 73                  	<unknown>
     25c: 5f 73 74 61                  	<unknown>
     260: 72 74                        	<unknown>
     262: 00 6d                        	<unknown>
     264: 65 6d                        	<unknown>
     266: 73 65 74 00                  	csrrsi	a0, 7, 8
     26a: 6d 61                        	<unknown>
     26c: 69 6e                        	<unknown>
     26e: 00 76                        	<unknown>
     270: 78 5f                        	<unknown>
     272: 6e 75                        	<unknown>
     274: 6d 5f                        	<unknown>
     276: 63 79 63 6c                  	bgeu	t1, t1, 1746
     27a: 65 73                        	<unknown>
     27c: 00 61                        	<unknown>
     27e: 74 65                        	<unknown>
     280: 78 69                        	<unknown>
     282: 74 00                        	<unknown>
     284: 76 78                        	<unknown>
     286: 5f 74 68 72                  	<unknown>
     28a: 65 61                        	<unknown>
     28c: 64 5f                        	<unknown>
     28e: 67 69 64 00                  	<unknown>
     292: 76 78                        	<unknown>
     294: 5f 6e 75 6d                  	<unknown>
     298: 5f 63 6f 72                  	<unknown>
     29c: 65 73                        	<unknown>
     29e: 00 76                        	<unknown>
     2a0: 78 5f                        	<unknown>
     2a2: 77 61 72 70                  	<unknown>
     2a6: 5f 67 69 64                  	<unknown>
     2aa: 00 6b                        	<unknown>
     2ac: 65 72                        	<unknown>
     2ae: 6e 65                        	<unknown>
     2b0: 6c 5f                        	<unknown>
     2b2: 73 70 61 77                  	csrci	1910, 2
     2b6: 6e 5f                        	<unknown>
     2b8: 72 75                        	<unknown>
     2ba: 6e 5f                        	<unknown>
     2bc: 74 68                        	<unknown>
     2be: 72 65                        	<unknown>
     2c0: 61 64                        	<unknown>
     2c2: 73 00 5f 70                  	<unknown>
     2c6: 6f 63 6c 5f                  	jal	t1, 812534
     2ca: 6b 65 72 6e                  	<unknown>
     2ce: 65 6c                        	<unknown>
     2d0: 5f 6b 6d 65                  	<unknown>
     2d4: 61 6e                        	<unknown>
     2d6: 73 5f 73 77                  	csrrwi	t5, 1911, 6
     2da: 61 70                        	<unknown>
     2dc: 5f 77 6f 72                  	<unknown>
     2e0: 6b 67 72 6f                  	<unknown>
     2e4: 75 70                        	<unknown>
     2e6: 5f 66 61 73                  	<unknown>
     2ea: 74 00                        	<unknown>
     2ec: 5f 5f 44 41                  	<unknown>
     2f0: 54 41                        	<unknown>
     2f2: 5f 42 45 47                  	<unknown>
     2f6: 49 4e                        	<unknown>
     2f8: 5f 5f 00 5f                  	<unknown>
     2fc: 65 64                        	<unknown>
     2fe: 61 74                        	<unknown>
     300: 61 00                        	<unknown>
     302: 5f 70 6f 63                  	<unknown>
     306: 6c 5f                        	<unknown>
     308: 6b 65 72 6e                  	<unknown>
     30c: 65 6c                        	<unknown>
     30e: 5f 6b 6d 65                  	<unknown>
     312: 61 6e                        	<unknown>
     314: 73 5f 73 77                  	csrrwi	t5, 1911, 6
     318: 61 70                        	<unknown>
     31a: 00 5f                        	<unknown>
     31c: 65 78                        	<unknown>
     31e: 69 74                        	<unknown>
     320: 00 76                        	<unknown>
     322: 78 5f                        	<unknown>
     324: 6e 75                        	<unknown>
     326: 6d 5f                        	<unknown>
     328: 69 6e                        	<unknown>
     32a: 73 74 72 73                  	csrrci	s0, 1847, 4
     32e: 00                           	<unknown>

Disassembly of section .shstrtab:

00000000 .shstrtab:
       0: 00 2e                        	<unknown>
       2: 73 79 6d 74                  	csrrci	s2, 1862, 26
       6: 61 62                        	<unknown>
       8: 00 2e                        	<unknown>
       a: 73 74 72 74                  	csrrci	s0, 1863, 4
       e: 61 62                        	<unknown>
      10: 00 2e                        	<unknown>
      12: 73 68 73 74                  	csrrsi	a6, 1863, 6
      16: 72 74                        	<unknown>
      18: 61 62                        	<unknown>
      1a: 00 2e                        	<unknown>
      1c: 69 6e                        	<unknown>
      1e: 69 74                        	<unknown>
      20: 00 2e                        	<unknown>
      22: 74 65                        	<unknown>
      24: 78 74                        	<unknown>
      26: 00 2e                        	<unknown>
      28: 69 6e                        	<unknown>
      2a: 69 74                        	<unknown>
      2c: 5f 61 72 72                  	<unknown>
      30: 61 79                        	<unknown>
      32: 00 2e                        	<unknown>
      34: 64 61                        	<unknown>
      36: 74 61                        	<unknown>
      38: 00 2e                        	<unknown>
      3a: 73 64 61 74                  	csrrsi	s0, 1862, 2
      3e: 61 00                        	<unknown>
      40: 2e 62                        	<unknown>
      42: 73 73 00 2e                  	csrrci	t1, 736, 0
      46: 63 6f 6d 6d                  	bltu	s10, s6, 1758
      4a: 65 6e                        	<unknown>
      4c: 74 00                        	<unknown>
      4e: 2e 72                        	<unknown>
      50: 69 73                        	<unknown>
      52: 63 76 2e 61                  	bgeu	t3, s2, 1548
      56: 74 74                        	<unknown>
      58: 72 69                        	<unknown>
      5a: 62 75                        	<unknown>
      5c: 74 65                        	<unknown>
      5e: 73                           	<unknown>
      5f: 00                           	<unknown>
