
kernel.elf:     file format elf32-littleriscv


Disassembly of section .init:

80000000 <_start>:
80000000:	00001597          	auipc	a1,0x1
80000004:	b8c58593          	addi	a1,a1,-1140 # 80000b8c <vx_set_sp>
80000008:	02602573          	csrr	a0,0x26
8000000c:	00b5106b          	0xb5106b
80000010:	37d000ef          	jal	ra,80000b8c <vx_set_sp>
80000014:	00100513          	li	a0,1
80000018:	0005006b          	0x5006b
8000001c:	c3018513          	addi	a0,gp,-976 # 800026c8 <g_spawn>
80000020:	c3818613          	addi	a2,gp,-968 # 800026d0 <__BSS_END__>
80000024:	40a60633          	sub	a2,a2,a0
80000028:	00000593          	li	a1,0
8000002c:	789000ef          	jal	ra,80000fb4 <memset>
80000030:	00001517          	auipc	a0,0x1
80000034:	e8c50513          	addi	a0,a0,-372 # 80000ebc <__libc_fini_array>
80000038:	639000ef          	jal	ra,80000e70 <atexit>
8000003c:	6dd000ef          	jal	ra,80000f18 <__libc_init_array>
80000040:	008000ef          	jal	ra,80000048 <main>
80000044:	6490006f          	j	80000e8c <exit>

Disassembly of section .text:

80000048 <main>:
80000048:	ff010113          	addi	sp,sp,-16
8000004c:	00112623          	sw	ra,12(sp)
80000050:	00812423          	sw	s0,8(sp)
80000054:	3d1000ef          	jal	ra,80000c24 <vx_num_warps>
80000058:	00050413          	mv	s0,a0
8000005c:	3c1000ef          	jal	ra,80000c1c <vx_num_threads>
80000060:	7ffff7b7          	lui	a5,0x7ffff
80000064:	0007a783          	lw	a5,0(a5) # 7ffff000 <_start-0x1000>
80000068:	00050593          	mv	a1,a0
8000006c:	00040513          	mv	a0,s0
80000070:	00279713          	slli	a4,a5,0x2
80000074:	800017b7          	lui	a5,0x80001
80000078:	24878793          	addi	a5,a5,584 # 80001248 <__global_pointer$+0xffffe7b0>
8000007c:	00812403          	lw	s0,8(sp)
80000080:	00e787b3          	add	a5,a5,a4
80000084:	00c12083          	lw	ra,12(sp)
80000088:	0007a603          	lw	a2,0(a5)
8000008c:	7ffff6b7          	lui	a3,0x7ffff
80000090:	01010113          	addi	sp,sp,16
80000094:	3f10006f          	j	80000c84 <vx_spawn_warps>

80000098 <register_fini>:
80000098:	00000793          	li	a5,0
8000009c:	00078863          	beqz	a5,800000ac <register_fini+0x14>
800000a0:	80001537          	lui	a0,0x80001
800000a4:	ebc50513          	addi	a0,a0,-324 # 80000ebc <__global_pointer$+0xffffe424>
800000a8:	5c90006f          	j	80000e70 <atexit>
800000ac:	00008067          	ret

800000b0 <kernel_iadd>:
800000b0:	fe010113          	addi	sp,sp,-32
800000b4:	00812c23          	sw	s0,24(sp)
800000b8:	00452403          	lw	s0,4(a0)
800000bc:	00912a23          	sw	s1,20(sp)
800000c0:	01212823          	sw	s2,16(sp)
800000c4:	01312623          	sw	s3,12(sp)
800000c8:	00c52483          	lw	s1,12(a0)
800000cc:	00852983          	lw	s3,8(a0)
800000d0:	01052903          	lw	s2,16(a0)
800000d4:	00112e23          	sw	ra,28(sp)
800000d8:	335000ef          	jal	ra,80000c0c <vx_thread_gid>
800000dc:	02850533          	mul	a0,a0,s0
800000e0:	04040063          	beqz	s0,80000120 <kernel_iadd+0x70>
800000e4:	00a406b3          	add	a3,s0,a0
800000e8:	00269693          	slli	a3,a3,0x2
800000ec:	00251513          	slli	a0,a0,0x2
800000f0:	013507b3          	add	a5,a0,s3
800000f4:	013686b3          	add	a3,a3,s3
800000f8:	41390833          	sub	a6,s2,s3
800000fc:	41348533          	sub	a0,s1,s3
80000100:	00f50733          	add	a4,a0,a5
80000104:	0007a583          	lw	a1,0(a5)
80000108:	00072703          	lw	a4,0(a4)
8000010c:	00f80633          	add	a2,a6,a5
80000110:	00478793          	addi	a5,a5,4
80000114:	00b70733          	add	a4,a4,a1
80000118:	00e62023          	sw	a4,0(a2)
8000011c:	fef692e3          	bne	a3,a5,80000100 <kernel_iadd+0x50>
80000120:	01c12083          	lw	ra,28(sp)
80000124:	01812403          	lw	s0,24(sp)
80000128:	01412483          	lw	s1,20(sp)
8000012c:	01012903          	lw	s2,16(sp)
80000130:	00c12983          	lw	s3,12(sp)
80000134:	02010113          	addi	sp,sp,32
80000138:	00008067          	ret

8000013c <kernel_imul>:
8000013c:	fe010113          	addi	sp,sp,-32
80000140:	00812c23          	sw	s0,24(sp)
80000144:	00452403          	lw	s0,4(a0)
80000148:	00912a23          	sw	s1,20(sp)
8000014c:	01212823          	sw	s2,16(sp)
80000150:	01312623          	sw	s3,12(sp)
80000154:	00c52483          	lw	s1,12(a0)
80000158:	00852983          	lw	s3,8(a0)
8000015c:	01052903          	lw	s2,16(a0)
80000160:	00112e23          	sw	ra,28(sp)
80000164:	2a9000ef          	jal	ra,80000c0c <vx_thread_gid>
80000168:	02850533          	mul	a0,a0,s0
8000016c:	04040063          	beqz	s0,800001ac <kernel_imul+0x70>
80000170:	00a406b3          	add	a3,s0,a0
80000174:	00269693          	slli	a3,a3,0x2
80000178:	00251513          	slli	a0,a0,0x2
8000017c:	013507b3          	add	a5,a0,s3
80000180:	013686b3          	add	a3,a3,s3
80000184:	41390833          	sub	a6,s2,s3
80000188:	41348533          	sub	a0,s1,s3
8000018c:	00f50733          	add	a4,a0,a5
80000190:	0007a583          	lw	a1,0(a5)
80000194:	00072703          	lw	a4,0(a4)
80000198:	00f80633          	add	a2,a6,a5
8000019c:	00478793          	addi	a5,a5,4
800001a0:	02b70733          	mul	a4,a4,a1
800001a4:	00e62023          	sw	a4,0(a2)
800001a8:	fef692e3          	bne	a3,a5,8000018c <kernel_imul+0x50>
800001ac:	01c12083          	lw	ra,28(sp)
800001b0:	01812403          	lw	s0,24(sp)
800001b4:	01412483          	lw	s1,20(sp)
800001b8:	01012903          	lw	s2,16(sp)
800001bc:	00c12983          	lw	s3,12(sp)
800001c0:	02010113          	addi	sp,sp,32
800001c4:	00008067          	ret

800001c8 <kernel_idiv>:
800001c8:	fe010113          	addi	sp,sp,-32
800001cc:	00812c23          	sw	s0,24(sp)
800001d0:	00452403          	lw	s0,4(a0)
800001d4:	00912a23          	sw	s1,20(sp)
800001d8:	01212823          	sw	s2,16(sp)
800001dc:	01312623          	sw	s3,12(sp)
800001e0:	00c52483          	lw	s1,12(a0)
800001e4:	00852983          	lw	s3,8(a0)
800001e8:	01052903          	lw	s2,16(a0)
800001ec:	00112e23          	sw	ra,28(sp)
800001f0:	21d000ef          	jal	ra,80000c0c <vx_thread_gid>
800001f4:	02850533          	mul	a0,a0,s0
800001f8:	04040063          	beqz	s0,80000238 <kernel_idiv+0x70>
800001fc:	00a406b3          	add	a3,s0,a0
80000200:	00269693          	slli	a3,a3,0x2
80000204:	00251513          	slli	a0,a0,0x2
80000208:	013507b3          	add	a5,a0,s3
8000020c:	013686b3          	add	a3,a3,s3
80000210:	41390833          	sub	a6,s2,s3
80000214:	41348533          	sub	a0,s1,s3
80000218:	00f50633          	add	a2,a0,a5
8000021c:	0007a703          	lw	a4,0(a5)
80000220:	00062583          	lw	a1,0(a2)
80000224:	00f80633          	add	a2,a6,a5
80000228:	00478793          	addi	a5,a5,4
8000022c:	02b74733          	div	a4,a4,a1
80000230:	00e62023          	sw	a4,0(a2)
80000234:	fef692e3          	bne	a3,a5,80000218 <kernel_idiv+0x50>
80000238:	01c12083          	lw	ra,28(sp)
8000023c:	01812403          	lw	s0,24(sp)
80000240:	01412483          	lw	s1,20(sp)
80000244:	01012903          	lw	s2,16(sp)
80000248:	00c12983          	lw	s3,12(sp)
8000024c:	02010113          	addi	sp,sp,32
80000250:	00008067          	ret

80000254 <kernel_idiv_mul>:
80000254:	fe010113          	addi	sp,sp,-32
80000258:	00812c23          	sw	s0,24(sp)
8000025c:	00452403          	lw	s0,4(a0)
80000260:	00912a23          	sw	s1,20(sp)
80000264:	01212823          	sw	s2,16(sp)
80000268:	01312623          	sw	s3,12(sp)
8000026c:	00c52903          	lw	s2,12(a0)
80000270:	00852983          	lw	s3,8(a0)
80000274:	01052483          	lw	s1,16(a0)
80000278:	00112e23          	sw	ra,28(sp)
8000027c:	191000ef          	jal	ra,80000c0c <vx_thread_gid>
80000280:	02850533          	mul	a0,a0,s0
80000284:	04040463          	beqz	s0,800002cc <kernel_idiv_mul+0x78>
80000288:	00a405b3          	add	a1,s0,a0
8000028c:	00259593          	slli	a1,a1,0x2
80000290:	00251513          	slli	a0,a0,0x2
80000294:	013507b3          	add	a5,a0,s3
80000298:	013585b3          	add	a1,a1,s3
8000029c:	413908b3          	sub	a7,s2,s3
800002a0:	41348833          	sub	a6,s1,s3
800002a4:	00f886b3          	add	a3,a7,a5
800002a8:	0007a703          	lw	a4,0(a5)
800002ac:	0006a603          	lw	a2,0(a3) # 7ffff000 <_start-0x1000>
800002b0:	00f80533          	add	a0,a6,a5
800002b4:	00478793          	addi	a5,a5,4
800002b8:	02c746b3          	div	a3,a4,a2
800002bc:	02c70733          	mul	a4,a4,a2
800002c0:	00e68733          	add	a4,a3,a4
800002c4:	00e52023          	sw	a4,0(a0)
800002c8:	fcf59ee3          	bne	a1,a5,800002a4 <kernel_idiv_mul+0x50>
800002cc:	01c12083          	lw	ra,28(sp)
800002d0:	01812403          	lw	s0,24(sp)
800002d4:	01412483          	lw	s1,20(sp)
800002d8:	01012903          	lw	s2,16(sp)
800002dc:	00c12983          	lw	s3,12(sp)
800002e0:	02010113          	addi	sp,sp,32
800002e4:	00008067          	ret

800002e8 <kernel_fadd>:
800002e8:	fe010113          	addi	sp,sp,-32
800002ec:	00812c23          	sw	s0,24(sp)
800002f0:	00452403          	lw	s0,4(a0)
800002f4:	00912a23          	sw	s1,20(sp)
800002f8:	01212823          	sw	s2,16(sp)
800002fc:	01312623          	sw	s3,12(sp)
80000300:	00c52483          	lw	s1,12(a0)
80000304:	00852983          	lw	s3,8(a0)
80000308:	01052903          	lw	s2,16(a0)
8000030c:	00112e23          	sw	ra,28(sp)
80000310:	0fd000ef          	jal	ra,80000c0c <vx_thread_gid>
80000314:	02850533          	mul	a0,a0,s0
80000318:	04040063          	beqz	s0,80000358 <kernel_fadd+0x70>
8000031c:	00a40733          	add	a4,s0,a0
80000320:	00271713          	slli	a4,a4,0x2
80000324:	00251513          	slli	a0,a0,0x2
80000328:	013507b3          	add	a5,a0,s3
8000032c:	01370733          	add	a4,a4,s3
80000330:	413905b3          	sub	a1,s2,s3
80000334:	41348633          	sub	a2,s1,s3
80000338:	00f606b3          	add	a3,a2,a5
8000033c:	0007a707          	flw	fa4,0(a5)
80000340:	0006a787          	flw	fa5,0(a3)
80000344:	00f586b3          	add	a3,a1,a5
80000348:	00478793          	addi	a5,a5,4
8000034c:	00e7f7d3          	fadd.s	fa5,fa5,fa4
80000350:	00f6a027          	fsw	fa5,0(a3)
80000354:	fef712e3          	bne	a4,a5,80000338 <kernel_fadd+0x50>
80000358:	01c12083          	lw	ra,28(sp)
8000035c:	01812403          	lw	s0,24(sp)
80000360:	01412483          	lw	s1,20(sp)
80000364:	01012903          	lw	s2,16(sp)
80000368:	00c12983          	lw	s3,12(sp)
8000036c:	02010113          	addi	sp,sp,32
80000370:	00008067          	ret

80000374 <kernel_fsub>:
80000374:	fe010113          	addi	sp,sp,-32
80000378:	00812c23          	sw	s0,24(sp)
8000037c:	00452403          	lw	s0,4(a0)
80000380:	00912a23          	sw	s1,20(sp)
80000384:	01212823          	sw	s2,16(sp)
80000388:	01312623          	sw	s3,12(sp)
8000038c:	00c52483          	lw	s1,12(a0)
80000390:	00852983          	lw	s3,8(a0)
80000394:	01052903          	lw	s2,16(a0)
80000398:	00112e23          	sw	ra,28(sp)
8000039c:	071000ef          	jal	ra,80000c0c <vx_thread_gid>
800003a0:	02850533          	mul	a0,a0,s0
800003a4:	04040063          	beqz	s0,800003e4 <kernel_fsub+0x70>
800003a8:	00a40733          	add	a4,s0,a0
800003ac:	00271713          	slli	a4,a4,0x2
800003b0:	00251513          	slli	a0,a0,0x2
800003b4:	013507b3          	add	a5,a0,s3
800003b8:	01370733          	add	a4,a4,s3
800003bc:	413905b3          	sub	a1,s2,s3
800003c0:	41348633          	sub	a2,s1,s3
800003c4:	00f606b3          	add	a3,a2,a5
800003c8:	0007a787          	flw	fa5,0(a5)
800003cc:	0006a707          	flw	fa4,0(a3)
800003d0:	00f586b3          	add	a3,a1,a5
800003d4:	00478793          	addi	a5,a5,4
800003d8:	08e7f7d3          	fsub.s	fa5,fa5,fa4
800003dc:	00f6a027          	fsw	fa5,0(a3)
800003e0:	fef712e3          	bne	a4,a5,800003c4 <kernel_fsub+0x50>
800003e4:	01c12083          	lw	ra,28(sp)
800003e8:	01812403          	lw	s0,24(sp)
800003ec:	01412483          	lw	s1,20(sp)
800003f0:	01012903          	lw	s2,16(sp)
800003f4:	00c12983          	lw	s3,12(sp)
800003f8:	02010113          	addi	sp,sp,32
800003fc:	00008067          	ret

80000400 <kernel_fmul>:
80000400:	fe010113          	addi	sp,sp,-32
80000404:	00812c23          	sw	s0,24(sp)
80000408:	00452403          	lw	s0,4(a0)
8000040c:	00912a23          	sw	s1,20(sp)
80000410:	01212823          	sw	s2,16(sp)
80000414:	01312623          	sw	s3,12(sp)
80000418:	00c52483          	lw	s1,12(a0)
8000041c:	00852983          	lw	s3,8(a0)
80000420:	01052903          	lw	s2,16(a0)
80000424:	00112e23          	sw	ra,28(sp)
80000428:	7e4000ef          	jal	ra,80000c0c <vx_thread_gid>
8000042c:	02850533          	mul	a0,a0,s0
80000430:	04040063          	beqz	s0,80000470 <kernel_fmul+0x70>
80000434:	00a40733          	add	a4,s0,a0
80000438:	00271713          	slli	a4,a4,0x2
8000043c:	00251513          	slli	a0,a0,0x2
80000440:	013507b3          	add	a5,a0,s3
80000444:	01370733          	add	a4,a4,s3
80000448:	413905b3          	sub	a1,s2,s3
8000044c:	41348633          	sub	a2,s1,s3
80000450:	00f606b3          	add	a3,a2,a5
80000454:	0007a707          	flw	fa4,0(a5)
80000458:	0006a787          	flw	fa5,0(a3)
8000045c:	00f586b3          	add	a3,a1,a5
80000460:	00478793          	addi	a5,a5,4
80000464:	10e7f7d3          	fmul.s	fa5,fa5,fa4
80000468:	00f6a027          	fsw	fa5,0(a3)
8000046c:	fef712e3          	bne	a4,a5,80000450 <kernel_fmul+0x50>
80000470:	01c12083          	lw	ra,28(sp)
80000474:	01812403          	lw	s0,24(sp)
80000478:	01412483          	lw	s1,20(sp)
8000047c:	01012903          	lw	s2,16(sp)
80000480:	00c12983          	lw	s3,12(sp)
80000484:	02010113          	addi	sp,sp,32
80000488:	00008067          	ret

8000048c <kernel_fmadd>:
8000048c:	fe010113          	addi	sp,sp,-32
80000490:	00812c23          	sw	s0,24(sp)
80000494:	00452403          	lw	s0,4(a0)
80000498:	00912a23          	sw	s1,20(sp)
8000049c:	01212823          	sw	s2,16(sp)
800004a0:	01312623          	sw	s3,12(sp)
800004a4:	00c52903          	lw	s2,12(a0)
800004a8:	00852983          	lw	s3,8(a0)
800004ac:	01052483          	lw	s1,16(a0)
800004b0:	00112e23          	sw	ra,28(sp)
800004b4:	758000ef          	jal	ra,80000c0c <vx_thread_gid>
800004b8:	02850533          	mul	a0,a0,s0
800004bc:	04040063          	beqz	s0,800004fc <kernel_fmadd+0x70>
800004c0:	00a40733          	add	a4,s0,a0
800004c4:	00271713          	slli	a4,a4,0x2
800004c8:	00251513          	slli	a0,a0,0x2
800004cc:	013507b3          	add	a5,a0,s3
800004d0:	01370733          	add	a4,a4,s3
800004d4:	413905b3          	sub	a1,s2,s3
800004d8:	41348633          	sub	a2,s1,s3
800004dc:	00f586b3          	add	a3,a1,a5
800004e0:	0007a707          	flw	fa4,0(a5)
800004e4:	0006a787          	flw	fa5,0(a3)
800004e8:	00f606b3          	add	a3,a2,a5
800004ec:	00478793          	addi	a5,a5,4
800004f0:	78f777c3          	fmadd.s	fa5,fa4,fa5,fa5
800004f4:	00f6a027          	fsw	fa5,0(a3)
800004f8:	fef712e3          	bne	a4,a5,800004dc <kernel_fmadd+0x50>
800004fc:	01c12083          	lw	ra,28(sp)
80000500:	01812403          	lw	s0,24(sp)
80000504:	01412483          	lw	s1,20(sp)
80000508:	01012903          	lw	s2,16(sp)
8000050c:	00c12983          	lw	s3,12(sp)
80000510:	02010113          	addi	sp,sp,32
80000514:	00008067          	ret

80000518 <kernel_fmsub>:
80000518:	fe010113          	addi	sp,sp,-32
8000051c:	00812c23          	sw	s0,24(sp)
80000520:	00452403          	lw	s0,4(a0)
80000524:	00912a23          	sw	s1,20(sp)
80000528:	01212823          	sw	s2,16(sp)
8000052c:	01312623          	sw	s3,12(sp)
80000530:	00c52903          	lw	s2,12(a0)
80000534:	00852983          	lw	s3,8(a0)
80000538:	01052483          	lw	s1,16(a0)
8000053c:	00112e23          	sw	ra,28(sp)
80000540:	6cc000ef          	jal	ra,80000c0c <vx_thread_gid>
80000544:	02850533          	mul	a0,a0,s0
80000548:	04040063          	beqz	s0,80000588 <kernel_fmsub+0x70>
8000054c:	00a40733          	add	a4,s0,a0
80000550:	00271713          	slli	a4,a4,0x2
80000554:	00251513          	slli	a0,a0,0x2
80000558:	013507b3          	add	a5,a0,s3
8000055c:	01370733          	add	a4,a4,s3
80000560:	413905b3          	sub	a1,s2,s3
80000564:	41348633          	sub	a2,s1,s3
80000568:	00f586b3          	add	a3,a1,a5
8000056c:	0007a707          	flw	fa4,0(a5)
80000570:	0006a787          	flw	fa5,0(a3)
80000574:	00f606b3          	add	a3,a2,a5
80000578:	00478793          	addi	a5,a5,4
8000057c:	78f777c7          	fmsub.s	fa5,fa4,fa5,fa5
80000580:	00f6a027          	fsw	fa5,0(a3)
80000584:	fef712e3          	bne	a4,a5,80000568 <kernel_fmsub+0x50>
80000588:	01c12083          	lw	ra,28(sp)
8000058c:	01812403          	lw	s0,24(sp)
80000590:	01412483          	lw	s1,20(sp)
80000594:	01012903          	lw	s2,16(sp)
80000598:	00c12983          	lw	s3,12(sp)
8000059c:	02010113          	addi	sp,sp,32
800005a0:	00008067          	ret

800005a4 <kernel_fnmadd>:
800005a4:	fe010113          	addi	sp,sp,-32
800005a8:	00812c23          	sw	s0,24(sp)
800005ac:	00452403          	lw	s0,4(a0)
800005b0:	00912a23          	sw	s1,20(sp)
800005b4:	01212823          	sw	s2,16(sp)
800005b8:	01312623          	sw	s3,12(sp)
800005bc:	00c52903          	lw	s2,12(a0)
800005c0:	00852983          	lw	s3,8(a0)
800005c4:	01052483          	lw	s1,16(a0)
800005c8:	00112e23          	sw	ra,28(sp)
800005cc:	640000ef          	jal	ra,80000c0c <vx_thread_gid>
800005d0:	02850533          	mul	a0,a0,s0
800005d4:	04040063          	beqz	s0,80000614 <kernel_fnmadd+0x70>
800005d8:	00a40733          	add	a4,s0,a0
800005dc:	00271713          	slli	a4,a4,0x2
800005e0:	00251513          	slli	a0,a0,0x2
800005e4:	013507b3          	add	a5,a0,s3
800005e8:	01370733          	add	a4,a4,s3
800005ec:	413905b3          	sub	a1,s2,s3
800005f0:	41348633          	sub	a2,s1,s3
800005f4:	00f586b3          	add	a3,a1,a5
800005f8:	0007a707          	flw	fa4,0(a5)
800005fc:	0006a787          	flw	fa5,0(a3)
80000600:	00f606b3          	add	a3,a2,a5
80000604:	00478793          	addi	a5,a5,4
80000608:	78f777cf          	fnmadd.s	fa5,fa4,fa5,fa5
8000060c:	00f6a027          	fsw	fa5,0(a3)
80000610:	fef712e3          	bne	a4,a5,800005f4 <kernel_fnmadd+0x50>
80000614:	01c12083          	lw	ra,28(sp)
80000618:	01812403          	lw	s0,24(sp)
8000061c:	01412483          	lw	s1,20(sp)
80000620:	01012903          	lw	s2,16(sp)
80000624:	00c12983          	lw	s3,12(sp)
80000628:	02010113          	addi	sp,sp,32
8000062c:	00008067          	ret

80000630 <kernel_fnmsub>:
80000630:	fe010113          	addi	sp,sp,-32
80000634:	00812c23          	sw	s0,24(sp)
80000638:	00452403          	lw	s0,4(a0)
8000063c:	00912a23          	sw	s1,20(sp)
80000640:	01212823          	sw	s2,16(sp)
80000644:	01312623          	sw	s3,12(sp)
80000648:	00c52903          	lw	s2,12(a0)
8000064c:	00852983          	lw	s3,8(a0)
80000650:	01052483          	lw	s1,16(a0)
80000654:	00112e23          	sw	ra,28(sp)
80000658:	5b4000ef          	jal	ra,80000c0c <vx_thread_gid>
8000065c:	02850533          	mul	a0,a0,s0
80000660:	04040063          	beqz	s0,800006a0 <kernel_fnmsub+0x70>
80000664:	00a40733          	add	a4,s0,a0
80000668:	00271713          	slli	a4,a4,0x2
8000066c:	00251513          	slli	a0,a0,0x2
80000670:	013507b3          	add	a5,a0,s3
80000674:	01370733          	add	a4,a4,s3
80000678:	413905b3          	sub	a1,s2,s3
8000067c:	41348633          	sub	a2,s1,s3
80000680:	00f586b3          	add	a3,a1,a5
80000684:	0007a707          	flw	fa4,0(a5)
80000688:	0006a787          	flw	fa5,0(a3)
8000068c:	00f606b3          	add	a3,a2,a5
80000690:	00478793          	addi	a5,a5,4
80000694:	78f777cb          	fnmsub.s	fa5,fa4,fa5,fa5
80000698:	00f6a027          	fsw	fa5,0(a3)
8000069c:	fef712e3          	bne	a4,a5,80000680 <kernel_fnmsub+0x50>
800006a0:	01c12083          	lw	ra,28(sp)
800006a4:	01812403          	lw	s0,24(sp)
800006a8:	01412483          	lw	s1,20(sp)
800006ac:	01012903          	lw	s2,16(sp)
800006b0:	00c12983          	lw	s3,12(sp)
800006b4:	02010113          	addi	sp,sp,32
800006b8:	00008067          	ret

800006bc <kernel_fnmadd_madd>:
800006bc:	fe010113          	addi	sp,sp,-32
800006c0:	00812c23          	sw	s0,24(sp)
800006c4:	00452403          	lw	s0,4(a0)
800006c8:	00912a23          	sw	s1,20(sp)
800006cc:	01212823          	sw	s2,16(sp)
800006d0:	01312623          	sw	s3,12(sp)
800006d4:	00c52903          	lw	s2,12(a0)
800006d8:	00852983          	lw	s3,8(a0)
800006dc:	01052483          	lw	s1,16(a0)
800006e0:	00112e23          	sw	ra,28(sp)
800006e4:	528000ef          	jal	ra,80000c0c <vx_thread_gid>
800006e8:	02850533          	mul	a0,a0,s0
800006ec:	04040463          	beqz	s0,80000734 <kernel_fnmadd_madd+0x78>
800006f0:	00a40733          	add	a4,s0,a0
800006f4:	00271713          	slli	a4,a4,0x2
800006f8:	00251513          	slli	a0,a0,0x2
800006fc:	013507b3          	add	a5,a0,s3
80000700:	01370733          	add	a4,a4,s3
80000704:	413905b3          	sub	a1,s2,s3
80000708:	41348633          	sub	a2,s1,s3
8000070c:	00f586b3          	add	a3,a1,a5
80000710:	0007a687          	flw	fa3,0(a5)
80000714:	0006a787          	flw	fa5,0(a3)
80000718:	00f606b3          	add	a3,a2,a5
8000071c:	00478793          	addi	a5,a5,4
80000720:	78f6f74f          	fnmadd.s	fa4,fa3,fa5,fa5
80000724:	78f6f7c3          	fmadd.s	fa5,fa3,fa5,fa5
80000728:	00f777d3          	fadd.s	fa5,fa4,fa5
8000072c:	00f6a027          	fsw	fa5,0(a3)
80000730:	fcf71ee3          	bne	a4,a5,8000070c <kernel_fnmadd_madd+0x50>
80000734:	01c12083          	lw	ra,28(sp)
80000738:	01812403          	lw	s0,24(sp)
8000073c:	01412483          	lw	s1,20(sp)
80000740:	01012903          	lw	s2,16(sp)
80000744:	00c12983          	lw	s3,12(sp)
80000748:	02010113          	addi	sp,sp,32
8000074c:	00008067          	ret

80000750 <kernel_fdiv>:
80000750:	fe010113          	addi	sp,sp,-32
80000754:	00812c23          	sw	s0,24(sp)
80000758:	00452403          	lw	s0,4(a0)
8000075c:	00912a23          	sw	s1,20(sp)
80000760:	01212823          	sw	s2,16(sp)
80000764:	01312623          	sw	s3,12(sp)
80000768:	00c52483          	lw	s1,12(a0)
8000076c:	00852983          	lw	s3,8(a0)
80000770:	01052903          	lw	s2,16(a0)
80000774:	00112e23          	sw	ra,28(sp)
80000778:	494000ef          	jal	ra,80000c0c <vx_thread_gid>
8000077c:	02850533          	mul	a0,a0,s0
80000780:	04040063          	beqz	s0,800007c0 <kernel_fdiv+0x70>
80000784:	00a40733          	add	a4,s0,a0
80000788:	00271713          	slli	a4,a4,0x2
8000078c:	00251513          	slli	a0,a0,0x2
80000790:	013507b3          	add	a5,a0,s3
80000794:	01370733          	add	a4,a4,s3
80000798:	413905b3          	sub	a1,s2,s3
8000079c:	41348633          	sub	a2,s1,s3
800007a0:	00f606b3          	add	a3,a2,a5
800007a4:	0007a787          	flw	fa5,0(a5)
800007a8:	0006a707          	flw	fa4,0(a3)
800007ac:	00f586b3          	add	a3,a1,a5
800007b0:	00478793          	addi	a5,a5,4
800007b4:	18e7f7d3          	fdiv.s	fa5,fa5,fa4
800007b8:	00f6a027          	fsw	fa5,0(a3)
800007bc:	fef712e3          	bne	a4,a5,800007a0 <kernel_fdiv+0x50>
800007c0:	01c12083          	lw	ra,28(sp)
800007c4:	01812403          	lw	s0,24(sp)
800007c8:	01412483          	lw	s1,20(sp)
800007cc:	01012903          	lw	s2,16(sp)
800007d0:	00c12983          	lw	s3,12(sp)
800007d4:	02010113          	addi	sp,sp,32
800007d8:	00008067          	ret

800007dc <kernel_fdiv2>:
800007dc:	fe010113          	addi	sp,sp,-32
800007e0:	00812c23          	sw	s0,24(sp)
800007e4:	00452403          	lw	s0,4(a0)
800007e8:	00912a23          	sw	s1,20(sp)
800007ec:	01212823          	sw	s2,16(sp)
800007f0:	01312623          	sw	s3,12(sp)
800007f4:	00c52903          	lw	s2,12(a0)
800007f8:	00852983          	lw	s3,8(a0)
800007fc:	01052483          	lw	s1,16(a0)
80000800:	00112e23          	sw	ra,28(sp)
80000804:	408000ef          	jal	ra,80000c0c <vx_thread_gid>
80000808:	02850533          	mul	a0,a0,s0
8000080c:	04040463          	beqz	s0,80000854 <kernel_fdiv2+0x78>
80000810:	00a40733          	add	a4,s0,a0
80000814:	00271713          	slli	a4,a4,0x2
80000818:	00251513          	slli	a0,a0,0x2
8000081c:	013507b3          	add	a5,a0,s3
80000820:	01370733          	add	a4,a4,s3
80000824:	413905b3          	sub	a1,s2,s3
80000828:	41348633          	sub	a2,s1,s3
8000082c:	00f586b3          	add	a3,a1,a5
80000830:	0007a687          	flw	fa3,0(a5)
80000834:	0006a787          	flw	fa5,0(a3)
80000838:	00f606b3          	add	a3,a2,a5
8000083c:	00478793          	addi	a5,a5,4
80000840:	18f6f753          	fdiv.s	fa4,fa3,fa5
80000844:	18d7f7d3          	fdiv.s	fa5,fa5,fa3
80000848:	00f777d3          	fadd.s	fa5,fa4,fa5
8000084c:	00f6a027          	fsw	fa5,0(a3)
80000850:	fcf71ee3          	bne	a4,a5,8000082c <kernel_fdiv2+0x50>
80000854:	01c12083          	lw	ra,28(sp)
80000858:	01812403          	lw	s0,24(sp)
8000085c:	01412483          	lw	s1,20(sp)
80000860:	01012903          	lw	s2,16(sp)
80000864:	00c12983          	lw	s3,12(sp)
80000868:	02010113          	addi	sp,sp,32
8000086c:	00008067          	ret

80000870 <kernel_ftoi>:
80000870:	fe010113          	addi	sp,sp,-32
80000874:	00812c23          	sw	s0,24(sp)
80000878:	00452403          	lw	s0,4(a0)
8000087c:	00912a23          	sw	s1,20(sp)
80000880:	01212823          	sw	s2,16(sp)
80000884:	01312623          	sw	s3,12(sp)
80000888:	00c52483          	lw	s1,12(a0)
8000088c:	00852983          	lw	s3,8(a0)
80000890:	01052903          	lw	s2,16(a0)
80000894:	00112e23          	sw	ra,28(sp)
80000898:	374000ef          	jal	ra,80000c0c <vx_thread_gid>
8000089c:	02850533          	mul	a0,a0,s0
800008a0:	04040263          	beqz	s0,800008e4 <kernel_ftoi+0x74>
800008a4:	00a406b3          	add	a3,s0,a0
800008a8:	00269693          	slli	a3,a3,0x2
800008ac:	00251513          	slli	a0,a0,0x2
800008b0:	013507b3          	add	a5,a0,s3
800008b4:	013686b3          	add	a3,a3,s3
800008b8:	41390533          	sub	a0,s2,s3
800008bc:	413485b3          	sub	a1,s1,s3
800008c0:	00f58733          	add	a4,a1,a5
800008c4:	0007a707          	flw	fa4,0(a5)
800008c8:	00072787          	flw	fa5,0(a4)
800008cc:	00f50633          	add	a2,a0,a5
800008d0:	00478793          	addi	a5,a5,4
800008d4:	00e7f7d3          	fadd.s	fa5,fa5,fa4
800008d8:	c0079753          	fcvt.w.s	a4,fa5,rtz
800008dc:	00e62023          	sw	a4,0(a2)
800008e0:	fef690e3          	bne	a3,a5,800008c0 <kernel_ftoi+0x50>
800008e4:	01c12083          	lw	ra,28(sp)
800008e8:	01812403          	lw	s0,24(sp)
800008ec:	01412483          	lw	s1,20(sp)
800008f0:	01012903          	lw	s2,16(sp)
800008f4:	00c12983          	lw	s3,12(sp)
800008f8:	02010113          	addi	sp,sp,32
800008fc:	00008067          	ret

80000900 <kernel_ftou>:
80000900:	fe010113          	addi	sp,sp,-32
80000904:	00812c23          	sw	s0,24(sp)
80000908:	00452403          	lw	s0,4(a0)
8000090c:	00912a23          	sw	s1,20(sp)
80000910:	01212823          	sw	s2,16(sp)
80000914:	01312623          	sw	s3,12(sp)
80000918:	00c52483          	lw	s1,12(a0)
8000091c:	00852983          	lw	s3,8(a0)
80000920:	01052903          	lw	s2,16(a0)
80000924:	00112e23          	sw	ra,28(sp)
80000928:	2e4000ef          	jal	ra,80000c0c <vx_thread_gid>
8000092c:	02850533          	mul	a0,a0,s0
80000930:	04040263          	beqz	s0,80000974 <kernel_ftou+0x74>
80000934:	00a406b3          	add	a3,s0,a0
80000938:	00269693          	slli	a3,a3,0x2
8000093c:	00251513          	slli	a0,a0,0x2
80000940:	013507b3          	add	a5,a0,s3
80000944:	013686b3          	add	a3,a3,s3
80000948:	41390533          	sub	a0,s2,s3
8000094c:	413485b3          	sub	a1,s1,s3
80000950:	00f58733          	add	a4,a1,a5
80000954:	0007a707          	flw	fa4,0(a5)
80000958:	00072787          	flw	fa5,0(a4)
8000095c:	00f50633          	add	a2,a0,a5
80000960:	00478793          	addi	a5,a5,4
80000964:	00e7f7d3          	fadd.s	fa5,fa5,fa4
80000968:	c0179753          	fcvt.wu.s	a4,fa5,rtz
8000096c:	00e62023          	sw	a4,0(a2)
80000970:	fef690e3          	bne	a3,a5,80000950 <kernel_ftou+0x50>
80000974:	01c12083          	lw	ra,28(sp)
80000978:	01812403          	lw	s0,24(sp)
8000097c:	01412483          	lw	s1,20(sp)
80000980:	01012903          	lw	s2,16(sp)
80000984:	00c12983          	lw	s3,12(sp)
80000988:	02010113          	addi	sp,sp,32
8000098c:	00008067          	ret

80000990 <kernel_itof>:
80000990:	fe010113          	addi	sp,sp,-32
80000994:	00812c23          	sw	s0,24(sp)
80000998:	00452403          	lw	s0,4(a0)
8000099c:	00912a23          	sw	s1,20(sp)
800009a0:	01212823          	sw	s2,16(sp)
800009a4:	01312623          	sw	s3,12(sp)
800009a8:	00c52483          	lw	s1,12(a0)
800009ac:	00852983          	lw	s3,8(a0)
800009b0:	01052903          	lw	s2,16(a0)
800009b4:	00112e23          	sw	ra,28(sp)
800009b8:	254000ef          	jal	ra,80000c0c <vx_thread_gid>
800009bc:	02850533          	mul	a0,a0,s0
800009c0:	04040263          	beqz	s0,80000a04 <kernel_itof+0x74>
800009c4:	00a406b3          	add	a3,s0,a0
800009c8:	00269693          	slli	a3,a3,0x2
800009cc:	00251513          	slli	a0,a0,0x2
800009d0:	013507b3          	add	a5,a0,s3
800009d4:	013686b3          	add	a3,a3,s3
800009d8:	41390833          	sub	a6,s2,s3
800009dc:	41348533          	sub	a0,s1,s3
800009e0:	00f50733          	add	a4,a0,a5
800009e4:	0007a583          	lw	a1,0(a5)
800009e8:	00072703          	lw	a4,0(a4)
800009ec:	00f80633          	add	a2,a6,a5
800009f0:	00478793          	addi	a5,a5,4
800009f4:	00b70733          	add	a4,a4,a1
800009f8:	d00777d3          	fcvt.s.w	fa5,a4
800009fc:	00f62027          	fsw	fa5,0(a2)
80000a00:	fef690e3          	bne	a3,a5,800009e0 <kernel_itof+0x50>
80000a04:	01c12083          	lw	ra,28(sp)
80000a08:	01812403          	lw	s0,24(sp)
80000a0c:	01412483          	lw	s1,20(sp)
80000a10:	01012903          	lw	s2,16(sp)
80000a14:	00c12983          	lw	s3,12(sp)
80000a18:	02010113          	addi	sp,sp,32
80000a1c:	00008067          	ret

80000a20 <kernel_utof>:
80000a20:	fe010113          	addi	sp,sp,-32
80000a24:	00812c23          	sw	s0,24(sp)
80000a28:	00452403          	lw	s0,4(a0)
80000a2c:	00912a23          	sw	s1,20(sp)
80000a30:	01212823          	sw	s2,16(sp)
80000a34:	01312623          	sw	s3,12(sp)
80000a38:	00c52483          	lw	s1,12(a0)
80000a3c:	00852983          	lw	s3,8(a0)
80000a40:	01052903          	lw	s2,16(a0)
80000a44:	00112e23          	sw	ra,28(sp)
80000a48:	1c4000ef          	jal	ra,80000c0c <vx_thread_gid>
80000a4c:	02850533          	mul	a0,a0,s0
80000a50:	04040263          	beqz	s0,80000a94 <kernel_utof+0x74>
80000a54:	00a406b3          	add	a3,s0,a0
80000a58:	00269693          	slli	a3,a3,0x2
80000a5c:	00251513          	slli	a0,a0,0x2
80000a60:	013507b3          	add	a5,a0,s3
80000a64:	013686b3          	add	a3,a3,s3
80000a68:	41390833          	sub	a6,s2,s3
80000a6c:	41348533          	sub	a0,s1,s3
80000a70:	00f50733          	add	a4,a0,a5
80000a74:	0007a583          	lw	a1,0(a5)
80000a78:	00072703          	lw	a4,0(a4)
80000a7c:	00f80633          	add	a2,a6,a5
80000a80:	00478793          	addi	a5,a5,4
80000a84:	00b70733          	add	a4,a4,a1
80000a88:	d01777d3          	fcvt.s.wu	fa5,a4
80000a8c:	00f62027          	fsw	fa5,0(a2)
80000a90:	fef690e3          	bne	a3,a5,80000a70 <kernel_utof+0x50>
80000a94:	01c12083          	lw	ra,28(sp)
80000a98:	01812403          	lw	s0,24(sp)
80000a9c:	01412483          	lw	s1,20(sp)
80000aa0:	01012903          	lw	s2,16(sp)
80000aa4:	00c12983          	lw	s3,12(sp)
80000aa8:	02010113          	addi	sp,sp,32
80000aac:	00008067          	ret

80000ab0 <kernel_fsqrt>:
80000ab0:	fc010113          	addi	sp,sp,-64
80000ab4:	02912c23          	sw	s1,56(sp)
80000ab8:	00452483          	lw	s1,4(a0)
80000abc:	03212a23          	sw	s2,52(sp)
80000ac0:	03312823          	sw	s3,48(sp)
80000ac4:	03412623          	sw	s4,44(sp)
80000ac8:	00c52983          	lw	s3,12(a0)
80000acc:	00852a03          	lw	s4,8(a0)
80000ad0:	01052903          	lw	s2,16(a0)
80000ad4:	02112e23          	sw	ra,60(sp)
80000ad8:	00812e27          	fsw	fs0,28(sp)
80000adc:	00912c27          	fsw	fs1,24(sp)
80000ae0:	12c000ef          	jal	ra,80000c0c <vx_thread_gid>
80000ae4:	02950533          	mul	a0,a0,s1
80000ae8:	04048c63          	beqz	s1,80000b40 <kernel_fsqrt+0x90>
80000aec:	00a484b3          	add	s1,s1,a0
80000af0:	f00004d3          	fmv.w.x	fs1,zero
80000af4:	00251513          	slli	a0,a0,0x2
80000af8:	00249493          	slli	s1,s1,0x2
80000afc:	01450533          	add	a0,a0,s4
80000b00:	014484b3          	add	s1,s1,s4
80000b04:	414989b3          	sub	s3,s3,s4
80000b08:	41490933          	sub	s2,s2,s4
80000b0c:	00a987b3          	add	a5,s3,a0
80000b10:	0007a507          	flw	fa0,0(a5)
80000b14:	00052787          	flw	fa5,0(a0)
80000b18:	00a90733          	add	a4,s2,a0
80000b1c:	10f57553          	fmul.s	fa0,fa0,fa5
80000b20:	001026f3          	frflags	a3
80000b24:	a09517d3          	flt.s	a5,fa0,fs1
80000b28:	00169073          	fsflags	a3
80000b2c:	58057453          	fsqrt.s	fs0,fa0
80000b30:	02079a63          	bnez	a5,80000b64 <kernel_fsqrt+0xb4>
80000b34:	00450513          	addi	a0,a0,4
80000b38:	00872027          	fsw	fs0,0(a4)
80000b3c:	fc9518e3          	bne	a0,s1,80000b0c <kernel_fsqrt+0x5c>
80000b40:	03c12083          	lw	ra,60(sp)
80000b44:	03812483          	lw	s1,56(sp)
80000b48:	03412903          	lw	s2,52(sp)
80000b4c:	03012983          	lw	s3,48(sp)
80000b50:	02c12a03          	lw	s4,44(sp)
80000b54:	01c12407          	flw	fs0,28(sp)
80000b58:	01812487          	flw	fs1,24(sp)
80000b5c:	04010113          	addi	sp,sp,64
80000b60:	00008067          	ret
80000b64:	00a12623          	sw	a0,12(sp)
80000b68:	18c000ef          	jal	ra,80000cf4 <sqrtf>
80000b6c:	00c12503          	lw	a0,12(sp)
80000b70:	00a907b3          	add	a5,s2,a0
80000b74:	0087a027          	fsw	fs0,0(a5)
80000b78:	00450513          	addi	a0,a0,4
80000b7c:	f8a498e3          	bne	s1,a0,80000b0c <kernel_fsqrt+0x5c>
80000b80:	fc1ff06f          	j	80000b40 <kernel_fsqrt+0x90>

80000b84 <_exit>:
80000b84:	00000513          	li	a0,0
80000b88:	0005006b          	0x5006b

80000b8c <vx_set_sp>:
80000b8c:	02502573          	csrr	a0,0x25
80000b90:	0005006b          	0x5006b
80000b94:	00002197          	auipc	gp,0x2
80000b98:	f0418193          	addi	gp,gp,-252 # 80002a98 <__global_pointer$>
80000b9c:	022025f3          	csrr	a1,0x22
80000ba0:	00a59593          	slli	a1,a1,0xa
80000ba4:	02002673          	csrr	a2,0x20
80000ba8:	00261613          	slli	a2,a2,0x2
80000bac:	6ffff137          	lui	sp,0x6ffff
80000bb0:	40b10133          	sub	sp,sp,a1
80000bb4:	00c10133          	add	sp,sp,a2
80000bb8:	021026f3          	csrr	a3,0x21
80000bbc:	00068663          	beqz	a3,80000bc8 <RETURN>
80000bc0:	00000513          	li	a0,0
80000bc4:	0005006b          	0x5006b

80000bc8 <RETURN>:
80000bc8:	00008067          	ret

80000bcc <vx_wspawn>:
80000bcc:	00b5106b          	0xb5106b
80000bd0:	00008067          	ret

80000bd4 <vx_tmc>:
80000bd4:	0005006b          	0x5006b
80000bd8:	00008067          	ret

80000bdc <vx_barrier>:
80000bdc:	00b5406b          	0xb5406b
80000be0:	00008067          	ret

80000be4 <vx_split>:
80000be4:	0005206b          	0x5206b
80000be8:	00008067          	ret

80000bec <vx_join>:
80000bec:	0000306b          	0x306b
80000bf0:	00008067          	ret

80000bf4 <vx_warp_id>:
80000bf4:	02102573          	csrr	a0,0x21
80000bf8:	00008067          	ret

80000bfc <vx_warp_gid>:
80000bfc:	02302573          	csrr	a0,0x23
80000c00:	00008067          	ret

80000c04 <vx_thread_id>:
80000c04:	02002573          	csrr	a0,0x20
80000c08:	00008067          	ret

80000c0c <vx_thread_gid>:
80000c0c:	02202573          	csrr	a0,0x22
80000c10:	00008067          	ret

80000c14 <vx_core_id>:
80000c14:	02402573          	csrr	a0,0x24
80000c18:	00008067          	ret

80000c1c <vx_num_threads>:
80000c1c:	02502573          	csrr	a0,0x25
80000c20:	00008067          	ret

80000c24 <vx_num_warps>:
80000c24:	02602573          	csrr	a0,0x26
80000c28:	00008067          	ret

80000c2c <vx_num_cores>:
80000c2c:	02702573          	csrr	a0,0x27
80000c30:	00008067          	ret

80000c34 <vx_num_cycles>:
80000c34:	c0002573          	rdcycle	a0
80000c38:	00008067          	ret

80000c3c <vx_num_instrs>:
80000c3c:	c0202573          	rdinstret	a0
80000c40:	00008067          	ret

80000c44 <spawn_warp_runonce>:
80000c44:	ff010113          	addi	sp,sp,-16 # 6fffeff0 <_start-0x10001010>
80000c48:	00812423          	sw	s0,8(sp)
80000c4c:	c301a783          	lw	a5,-976(gp) # 800026c8 <g_spawn>
80000c50:	00112623          	sw	ra,12(sp)
80000c54:	0087a503          	lw	a0,8(a5)
80000c58:	f7dff0ef          	jal	ra,80000bd4 <vx_tmc>
80000c5c:	c301a783          	lw	a5,-976(gp) # 800026c8 <g_spawn>
80000c60:	0047a503          	lw	a0,4(a5)
80000c64:	0007a783          	lw	a5,0(a5)
80000c68:	000780e7          	jalr	a5
80000c6c:	f89ff0ef          	jal	ra,80000bf4 <vx_warp_id>
80000c70:	00812403          	lw	s0,8(sp)
80000c74:	00c12083          	lw	ra,12(sp)
80000c78:	00153513          	seqz	a0,a0
80000c7c:	01010113          	addi	sp,sp,16
80000c80:	f55ff06f          	j	80000bd4 <vx_tmc>

80000c84 <vx_spawn_warps>:
80000c84:	fe010113          	addi	sp,sp,-32
80000c88:	00410793          	addi	a5,sp,4
80000c8c:	00812c23          	sw	s0,24(sp)
80000c90:	c2f1a823          	sw	a5,-976(gp) # 800026c8 <g_spawn>
80000c94:	00112e23          	sw	ra,28(sp)
80000c98:	00c12223          	sw	a2,4(sp)
80000c9c:	00d12423          	sw	a3,8(sp)
80000ca0:	00b12623          	sw	a1,12(sp)
80000ca4:	00100793          	li	a5,1
80000ca8:	00a7dc63          	bge	a5,a0,80000cc0 <vx_spawn_warps+0x3c>
80000cac:	800015b7          	lui	a1,0x80001
80000cb0:	c4458593          	addi	a1,a1,-956 # 80000c44 <__global_pointer$+0xffffe1ac>
80000cb4:	f19ff0ef          	jal	ra,80000bcc <vx_wspawn>
80000cb8:	c301a783          	lw	a5,-976(gp) # 800026c8 <g_spawn>
80000cbc:	0087a583          	lw	a1,8(a5)
80000cc0:	00058513          	mv	a0,a1
80000cc4:	f11ff0ef          	jal	ra,80000bd4 <vx_tmc>
80000cc8:	c301a783          	lw	a5,-976(gp) # 800026c8 <g_spawn>
80000ccc:	0047a503          	lw	a0,4(a5)
80000cd0:	0007a783          	lw	a5,0(a5)
80000cd4:	000780e7          	jalr	a5
80000cd8:	f1dff0ef          	jal	ra,80000bf4 <vx_warp_id>
80000cdc:	00153513          	seqz	a0,a0
80000ce0:	ef5ff0ef          	jal	ra,80000bd4 <vx_tmc>
80000ce4:	01c12083          	lw	ra,28(sp)
80000ce8:	01812403          	lw	s0,24(sp)
80000cec:	02010113          	addi	sp,sp,32
80000cf0:	00008067          	ret

80000cf4 <sqrtf>:
80000cf4:	fe010113          	addi	sp,sp,-32
80000cf8:	00812627          	fsw	fs0,12(sp)
80000cfc:	00112e23          	sw	ra,28(sp)
80000d00:	20a50453          	fmv.s	fs0,fa0
80000d04:	00912427          	fsw	fs1,8(sp)
80000d08:	05c000ef          	jal	ra,80000d64 <__ieee754_sqrtf>
80000d0c:	c341a703          	lw	a4,-972(gp) # 800026cc <__fdlib_version>
80000d10:	fff00793          	li	a5,-1
80000d14:	00f70c63          	beq	a4,a5,80000d2c <sqrtf+0x38>
80000d18:	a08427d3          	feq.s	a5,fs0,fs0
80000d1c:	00078863          	beqz	a5,80000d2c <sqrtf+0x38>
80000d20:	f00004d3          	fmv.w.x	fs1,zero
80000d24:	a09417d3          	flt.s	a5,fs0,fs1
80000d28:	00079c63          	bnez	a5,80000d40 <sqrtf+0x4c>
80000d2c:	01c12083          	lw	ra,28(sp)
80000d30:	00c12407          	flw	fs0,12(sp)
80000d34:	00812487          	flw	fs1,8(sp)
80000d38:	02010113          	addi	sp,sp,32
80000d3c:	00008067          	ret
80000d40:	144000ef          	jal	ra,80000e84 <__errno>
80000d44:	01c12083          	lw	ra,28(sp)
80000d48:	02100793          	li	a5,33
80000d4c:	00f52023          	sw	a5,0(a0)
80000d50:	1894f553          	fdiv.s	fa0,fs1,fs1
80000d54:	00c12407          	flw	fs0,12(sp)
80000d58:	00812487          	flw	fs1,8(sp)
80000d5c:	02010113          	addi	sp,sp,32
80000d60:	00008067          	ret

80000d64 <__ieee754_sqrtf>:
80000d64:	e00506d3          	fmv.x.w	a3,fa0
80000d68:	7f800737          	lui	a4,0x7f800
80000d6c:	00169793          	slli	a5,a3,0x1
80000d70:	0017d793          	srli	a5,a5,0x1
80000d74:	0ce7f263          	bgeu	a5,a4,80000e38 <__ieee754_sqrtf+0xd4>
80000d78:	e0050553          	fmv.x.w	a0,fa0
80000d7c:	0a078a63          	beqz	a5,80000e30 <__ieee754_sqrtf+0xcc>
80000d80:	00068793          	mv	a5,a3
80000d84:	0c06c663          	bltz	a3,80000e50 <__ieee754_sqrtf+0xec>
80000d88:	00d77633          	and	a2,a4,a3
80000d8c:	4176d713          	srai	a4,a3,0x17
80000d90:	02061463          	bnez	a2,80000db8 <__ieee754_sqrtf+0x54>
80000d94:	00800637          	lui	a2,0x800
80000d98:	00d676b3          	and	a3,a2,a3
80000d9c:	0c069463          	bnez	a3,80000e64 <__ieee754_sqrtf+0x100>
80000da0:	00179793          	slli	a5,a5,0x1
80000da4:	00879593          	slli	a1,a5,0x8
80000da8:	00068613          	mv	a2,a3
80000dac:	00168693          	addi	a3,a3,1
80000db0:	fe05d8e3          	bgez	a1,80000da0 <__ieee754_sqrtf+0x3c>
80000db4:	40c70733          	sub	a4,a4,a2
80000db8:	008006b7          	lui	a3,0x800
80000dbc:	fff68613          	addi	a2,a3,-1 # 7fffff <_start-0x7f800001>
80000dc0:	00c7f7b3          	and	a5,a5,a2
80000dc4:	f8170713          	addi	a4,a4,-127 # 7f7fff81 <_start-0x80007f>
80000dc8:	00d7e6b3          	or	a3,a5,a3
80000dcc:	00177613          	andi	a2,a4,1
80000dd0:	00169793          	slli	a5,a3,0x1
80000dd4:	06061a63          	bnez	a2,80000e48 <__ieee754_sqrtf+0xe4>
80000dd8:	40175813          	srai	a6,a4,0x1
80000ddc:	01900693          	li	a3,25
80000de0:	00000513          	li	a0,0
80000de4:	00000593          	li	a1,0
80000de8:	01000737          	lui	a4,0x1000
80000dec:	00e58633          	add	a2,a1,a4
80000df0:	fff68693          	addi	a3,a3,-1
80000df4:	00c7c863          	blt	a5,a2,80000e04 <__ieee754_sqrtf+0xa0>
80000df8:	00e605b3          	add	a1,a2,a4
80000dfc:	40c787b3          	sub	a5,a5,a2
80000e00:	00e50533          	add	a0,a0,a4
80000e04:	00179793          	slli	a5,a5,0x1
80000e08:	00175713          	srli	a4,a4,0x1
80000e0c:	fe0690e3          	bnez	a3,80000dec <__ieee754_sqrtf+0x88>
80000e10:	00078663          	beqz	a5,80000e1c <__ieee754_sqrtf+0xb8>
80000e14:	00150513          	addi	a0,a0,1
80000e18:	ffe57513          	andi	a0,a0,-2
80000e1c:	40155513          	srai	a0,a0,0x1
80000e20:	3f0007b7          	lui	a5,0x3f000
80000e24:	00f50533          	add	a0,a0,a5
80000e28:	01781713          	slli	a4,a6,0x17
80000e2c:	00a70533          	add	a0,a4,a0
80000e30:	f0050553          	fmv.w.x	fa0,a0
80000e34:	00008067          	ret
80000e38:	50a577c3          	fmadd.s	fa5,fa0,fa0,fa0
80000e3c:	e0078553          	fmv.x.w	a0,fa5
80000e40:	f0050553          	fmv.w.x	fa0,a0
80000e44:	00008067          	ret
80000e48:	00269793          	slli	a5,a3,0x2
80000e4c:	f8dff06f          	j	80000dd8 <__ieee754_sqrtf+0x74>
80000e50:	08a577d3          	fsub.s	fa5,fa0,fa0
80000e54:	18f7f7d3          	fdiv.s	fa5,fa5,fa5
80000e58:	e0078553          	fmv.x.w	a0,fa5
80000e5c:	f0050553          	fmv.w.x	fa0,a0
80000e60:	00008067          	ret
80000e64:	fff00613          	li	a2,-1
80000e68:	40c70733          	sub	a4,a4,a2
80000e6c:	f4dff06f          	j	80000db8 <__ieee754_sqrtf+0x54>

80000e70 <atexit>:
80000e70:	00050593          	mv	a1,a0
80000e74:	00000693          	li	a3,0
80000e78:	00000613          	li	a2,0
80000e7c:	00000513          	li	a0,0
80000e80:	2100006f          	j	80001090 <__register_exitproc>

80000e84 <__errno>:
80000e84:	c2c1a503          	lw	a0,-980(gp) # 800026c4 <_impure_ptr>
80000e88:	00008067          	ret

80000e8c <exit>:
80000e8c:	ff010113          	addi	sp,sp,-16
80000e90:	00000593          	li	a1,0
80000e94:	00812423          	sw	s0,8(sp)
80000e98:	00112623          	sw	ra,12(sp)
80000e9c:	00050413          	mv	s0,a0
80000ea0:	288000ef          	jal	ra,80001128 <__call_exitprocs>
80000ea4:	c281a503          	lw	a0,-984(gp) # 800026c0 <_global_impure_ptr>
80000ea8:	03c52783          	lw	a5,60(a0)
80000eac:	00078463          	beqz	a5,80000eb4 <exit+0x28>
80000eb0:	000780e7          	jalr	a5 # 3f000000 <_start-0x41000000>
80000eb4:	00040513          	mv	a0,s0
80000eb8:	ccdff0ef          	jal	ra,80000b84 <_exit>

80000ebc <__libc_fini_array>:
80000ebc:	ff010113          	addi	sp,sp,-16
80000ec0:	00812423          	sw	s0,8(sp)
80000ec4:	800027b7          	lui	a5,0x80002
80000ec8:	80002437          	lui	s0,0x80002
80000ecc:	29840413          	addi	s0,s0,664 # 80002298 <__global_pointer$+0xfffff800>
80000ed0:	29878793          	addi	a5,a5,664 # 80002298 <__global_pointer$+0xfffff800>
80000ed4:	408787b3          	sub	a5,a5,s0
80000ed8:	00912223          	sw	s1,4(sp)
80000edc:	00112623          	sw	ra,12(sp)
80000ee0:	4027d493          	srai	s1,a5,0x2
80000ee4:	02048063          	beqz	s1,80000f04 <__libc_fini_array+0x48>
80000ee8:	ffc78793          	addi	a5,a5,-4
80000eec:	00878433          	add	s0,a5,s0
80000ef0:	00042783          	lw	a5,0(s0)
80000ef4:	fff48493          	addi	s1,s1,-1
80000ef8:	ffc40413          	addi	s0,s0,-4
80000efc:	000780e7          	jalr	a5
80000f00:	fe0498e3          	bnez	s1,80000ef0 <__libc_fini_array+0x34>
80000f04:	00c12083          	lw	ra,12(sp)
80000f08:	00812403          	lw	s0,8(sp)
80000f0c:	00412483          	lw	s1,4(sp)
80000f10:	01010113          	addi	sp,sp,16
80000f14:	00008067          	ret

80000f18 <__libc_init_array>:
80000f18:	ff010113          	addi	sp,sp,-16
80000f1c:	00812423          	sw	s0,8(sp)
80000f20:	01212023          	sw	s2,0(sp)
80000f24:	80002437          	lui	s0,0x80002
80000f28:	80002937          	lui	s2,0x80002
80000f2c:	29440793          	addi	a5,s0,660 # 80002294 <__global_pointer$+0xfffff7fc>
80000f30:	29490913          	addi	s2,s2,660 # 80002294 <__global_pointer$+0xfffff7fc>
80000f34:	40f90933          	sub	s2,s2,a5
80000f38:	00112623          	sw	ra,12(sp)
80000f3c:	00912223          	sw	s1,4(sp)
80000f40:	40295913          	srai	s2,s2,0x2
80000f44:	02090063          	beqz	s2,80000f64 <__libc_init_array+0x4c>
80000f48:	29440413          	addi	s0,s0,660
80000f4c:	00000493          	li	s1,0
80000f50:	00042783          	lw	a5,0(s0)
80000f54:	00148493          	addi	s1,s1,1
80000f58:	00440413          	addi	s0,s0,4
80000f5c:	000780e7          	jalr	a5
80000f60:	fe9918e3          	bne	s2,s1,80000f50 <__libc_init_array+0x38>
80000f64:	80002437          	lui	s0,0x80002
80000f68:	80002937          	lui	s2,0x80002
80000f6c:	29440793          	addi	a5,s0,660 # 80002294 <__global_pointer$+0xfffff7fc>
80000f70:	29890913          	addi	s2,s2,664 # 80002298 <__global_pointer$+0xfffff800>
80000f74:	40f90933          	sub	s2,s2,a5
80000f78:	40295913          	srai	s2,s2,0x2
80000f7c:	02090063          	beqz	s2,80000f9c <__libc_init_array+0x84>
80000f80:	29440413          	addi	s0,s0,660
80000f84:	00000493          	li	s1,0
80000f88:	00042783          	lw	a5,0(s0)
80000f8c:	00148493          	addi	s1,s1,1
80000f90:	00440413          	addi	s0,s0,4
80000f94:	000780e7          	jalr	a5
80000f98:	fe9918e3          	bne	s2,s1,80000f88 <__libc_init_array+0x70>
80000f9c:	00c12083          	lw	ra,12(sp)
80000fa0:	00812403          	lw	s0,8(sp)
80000fa4:	00412483          	lw	s1,4(sp)
80000fa8:	00012903          	lw	s2,0(sp)
80000fac:	01010113          	addi	sp,sp,16
80000fb0:	00008067          	ret

80000fb4 <memset>:
80000fb4:	00f00313          	li	t1,15
80000fb8:	00050713          	mv	a4,a0
80000fbc:	02c37e63          	bgeu	t1,a2,80000ff8 <memset+0x44>
80000fc0:	00f77793          	andi	a5,a4,15
80000fc4:	0a079063          	bnez	a5,80001064 <memset+0xb0>
80000fc8:	08059263          	bnez	a1,8000104c <memset+0x98>
80000fcc:	ff067693          	andi	a3,a2,-16
80000fd0:	00f67613          	andi	a2,a2,15
80000fd4:	00e686b3          	add	a3,a3,a4
80000fd8:	00b72023          	sw	a1,0(a4) # 1000000 <_start-0x7f000000>
80000fdc:	00b72223          	sw	a1,4(a4)
80000fe0:	00b72423          	sw	a1,8(a4)
80000fe4:	00b72623          	sw	a1,12(a4)
80000fe8:	01070713          	addi	a4,a4,16
80000fec:	fed766e3          	bltu	a4,a3,80000fd8 <memset+0x24>
80000ff0:	00061463          	bnez	a2,80000ff8 <memset+0x44>
80000ff4:	00008067          	ret
80000ff8:	40c306b3          	sub	a3,t1,a2
80000ffc:	00269693          	slli	a3,a3,0x2
80001000:	00000297          	auipc	t0,0x0
80001004:	005686b3          	add	a3,a3,t0
80001008:	00c68067          	jr	12(a3)
8000100c:	00b70723          	sb	a1,14(a4)
80001010:	00b706a3          	sb	a1,13(a4)
80001014:	00b70623          	sb	a1,12(a4)
80001018:	00b705a3          	sb	a1,11(a4)
8000101c:	00b70523          	sb	a1,10(a4)
80001020:	00b704a3          	sb	a1,9(a4)
80001024:	00b70423          	sb	a1,8(a4)
80001028:	00b703a3          	sb	a1,7(a4)
8000102c:	00b70323          	sb	a1,6(a4)
80001030:	00b702a3          	sb	a1,5(a4)
80001034:	00b70223          	sb	a1,4(a4)
80001038:	00b701a3          	sb	a1,3(a4)
8000103c:	00b70123          	sb	a1,2(a4)
80001040:	00b700a3          	sb	a1,1(a4)
80001044:	00b70023          	sb	a1,0(a4)
80001048:	00008067          	ret
8000104c:	0ff5f593          	andi	a1,a1,255
80001050:	00859693          	slli	a3,a1,0x8
80001054:	00d5e5b3          	or	a1,a1,a3
80001058:	01059693          	slli	a3,a1,0x10
8000105c:	00d5e5b3          	or	a1,a1,a3
80001060:	f6dff06f          	j	80000fcc <memset+0x18>
80001064:	00279693          	slli	a3,a5,0x2
80001068:	00000297          	auipc	t0,0x0
8000106c:	005686b3          	add	a3,a3,t0
80001070:	00008293          	mv	t0,ra
80001074:	fa0680e7          	jalr	-96(a3)
80001078:	00028093          	mv	ra,t0
8000107c:	ff078793          	addi	a5,a5,-16
80001080:	40f70733          	sub	a4,a4,a5
80001084:	00f60633          	add	a2,a2,a5
80001088:	f6c378e3          	bgeu	t1,a2,80000ff8 <memset+0x44>
8000108c:	f3dff06f          	j	80000fc8 <memset+0x14>

80001090 <__register_exitproc>:
80001090:	c281a703          	lw	a4,-984(gp) # 800026c0 <_global_impure_ptr>
80001094:	14872783          	lw	a5,328(a4)
80001098:	04078c63          	beqz	a5,800010f0 <__register_exitproc+0x60>
8000109c:	0047a703          	lw	a4,4(a5)
800010a0:	01f00813          	li	a6,31
800010a4:	06e84e63          	blt	a6,a4,80001120 <__register_exitproc+0x90>
800010a8:	00271813          	slli	a6,a4,0x2
800010ac:	02050663          	beqz	a0,800010d8 <__register_exitproc+0x48>
800010b0:	01078333          	add	t1,a5,a6
800010b4:	08c32423          	sw	a2,136(t1)
800010b8:	1887a883          	lw	a7,392(a5)
800010bc:	00100613          	li	a2,1
800010c0:	00e61633          	sll	a2,a2,a4
800010c4:	00c8e8b3          	or	a7,a7,a2
800010c8:	1917a423          	sw	a7,392(a5)
800010cc:	10d32423          	sw	a3,264(t1)
800010d0:	00200693          	li	a3,2
800010d4:	02d50463          	beq	a0,a3,800010fc <__register_exitproc+0x6c>
800010d8:	00170713          	addi	a4,a4,1
800010dc:	00e7a223          	sw	a4,4(a5)
800010e0:	010787b3          	add	a5,a5,a6
800010e4:	00b7a423          	sw	a1,8(a5)
800010e8:	00000513          	li	a0,0
800010ec:	00008067          	ret
800010f0:	14c70793          	addi	a5,a4,332
800010f4:	14f72423          	sw	a5,328(a4)
800010f8:	fa5ff06f          	j	8000109c <__register_exitproc+0xc>
800010fc:	18c7a683          	lw	a3,396(a5)
80001100:	00170713          	addi	a4,a4,1
80001104:	00e7a223          	sw	a4,4(a5)
80001108:	00c6e633          	or	a2,a3,a2
8000110c:	18c7a623          	sw	a2,396(a5)
80001110:	010787b3          	add	a5,a5,a6
80001114:	00b7a423          	sw	a1,8(a5)
80001118:	00000513          	li	a0,0
8000111c:	00008067          	ret
80001120:	fff00513          	li	a0,-1
80001124:	00008067          	ret

80001128 <__call_exitprocs>:
80001128:	fd010113          	addi	sp,sp,-48
8000112c:	01412c23          	sw	s4,24(sp)
80001130:	c281aa03          	lw	s4,-984(gp) # 800026c0 <_global_impure_ptr>
80001134:	03212023          	sw	s2,32(sp)
80001138:	02112623          	sw	ra,44(sp)
8000113c:	148a2903          	lw	s2,328(s4)
80001140:	02812423          	sw	s0,40(sp)
80001144:	02912223          	sw	s1,36(sp)
80001148:	01312e23          	sw	s3,28(sp)
8000114c:	01512a23          	sw	s5,20(sp)
80001150:	01612823          	sw	s6,16(sp)
80001154:	01712623          	sw	s7,12(sp)
80001158:	01812423          	sw	s8,8(sp)
8000115c:	04090063          	beqz	s2,8000119c <__call_exitprocs+0x74>
80001160:	00050b13          	mv	s6,a0
80001164:	00058b93          	mv	s7,a1
80001168:	00100a93          	li	s5,1
8000116c:	fff00993          	li	s3,-1
80001170:	00492483          	lw	s1,4(s2)
80001174:	fff48413          	addi	s0,s1,-1
80001178:	02044263          	bltz	s0,8000119c <__call_exitprocs+0x74>
8000117c:	00249493          	slli	s1,s1,0x2
80001180:	009904b3          	add	s1,s2,s1
80001184:	040b8463          	beqz	s7,800011cc <__call_exitprocs+0xa4>
80001188:	1044a783          	lw	a5,260(s1)
8000118c:	05778063          	beq	a5,s7,800011cc <__call_exitprocs+0xa4>
80001190:	fff40413          	addi	s0,s0,-1
80001194:	ffc48493          	addi	s1,s1,-4
80001198:	ff3416e3          	bne	s0,s3,80001184 <__call_exitprocs+0x5c>
8000119c:	02c12083          	lw	ra,44(sp)
800011a0:	02812403          	lw	s0,40(sp)
800011a4:	02412483          	lw	s1,36(sp)
800011a8:	02012903          	lw	s2,32(sp)
800011ac:	01c12983          	lw	s3,28(sp)
800011b0:	01812a03          	lw	s4,24(sp)
800011b4:	01412a83          	lw	s5,20(sp)
800011b8:	01012b03          	lw	s6,16(sp)
800011bc:	00c12b83          	lw	s7,12(sp)
800011c0:	00812c03          	lw	s8,8(sp)
800011c4:	03010113          	addi	sp,sp,48
800011c8:	00008067          	ret
800011cc:	00492783          	lw	a5,4(s2)
800011d0:	0044a683          	lw	a3,4(s1)
800011d4:	fff78793          	addi	a5,a5,-1
800011d8:	04878e63          	beq	a5,s0,80001234 <__call_exitprocs+0x10c>
800011dc:	0004a223          	sw	zero,4(s1)
800011e0:	fa0688e3          	beqz	a3,80001190 <__call_exitprocs+0x68>
800011e4:	18892783          	lw	a5,392(s2)
800011e8:	008a9733          	sll	a4,s5,s0
800011ec:	00492c03          	lw	s8,4(s2)
800011f0:	00f777b3          	and	a5,a4,a5
800011f4:	02079263          	bnez	a5,80001218 <__call_exitprocs+0xf0>
800011f8:	000680e7          	jalr	a3
800011fc:	00492703          	lw	a4,4(s2)
80001200:	148a2783          	lw	a5,328(s4)
80001204:	01871463          	bne	a4,s8,8000120c <__call_exitprocs+0xe4>
80001208:	f8f904e3          	beq	s2,a5,80001190 <__call_exitprocs+0x68>
8000120c:	f80788e3          	beqz	a5,8000119c <__call_exitprocs+0x74>
80001210:	00078913          	mv	s2,a5
80001214:	f5dff06f          	j	80001170 <__call_exitprocs+0x48>
80001218:	18c92783          	lw	a5,396(s2)
8000121c:	0844a583          	lw	a1,132(s1)
80001220:	00f77733          	and	a4,a4,a5
80001224:	00071c63          	bnez	a4,8000123c <__call_exitprocs+0x114>
80001228:	000b0513          	mv	a0,s6
8000122c:	000680e7          	jalr	a3
80001230:	fcdff06f          	j	800011fc <__call_exitprocs+0xd4>
80001234:	00892223          	sw	s0,4(s2)
80001238:	fa9ff06f          	j	800011e0 <__call_exitprocs+0xb8>
8000123c:	00058513          	mv	a0,a1
80001240:	000680e7          	jalr	a3
80001244:	fb9ff06f          	j	800011fc <__call_exitprocs+0xd4>

Disassembly of section .rodata:

80001248 <sc_tests>:
80001248:	00b0                	addi	a2,sp,72
8000124a:	8000                	0x8000
8000124c:	013c                	addi	a5,sp,136
8000124e:	8000                	0x8000
80001250:	01c8                	addi	a0,sp,196
80001252:	8000                	0x8000
80001254:	0254                	addi	a3,sp,260
80001256:	8000                	0x8000
80001258:	02e8                	addi	a0,sp,332
8000125a:	8000                	0x8000
8000125c:	0374                	addi	a3,sp,396
8000125e:	8000                	0x8000
80001260:	0400                	addi	s0,sp,512
80001262:	8000                	0x8000
80001264:	048c                	addi	a1,sp,576
80001266:	8000                	0x8000
80001268:	0518                	addi	a4,sp,640
8000126a:	8000                	0x8000
8000126c:	05a4                	addi	s1,sp,712
8000126e:	8000                	0x8000
80001270:	0630                	addi	a2,sp,776
80001272:	8000                	0x8000
80001274:	06bc                	addi	a5,sp,840
80001276:	8000                	0x8000
80001278:	0750                	addi	a2,sp,900
8000127a:	8000                	0x8000
8000127c:	07dc                	addi	a5,sp,964
8000127e:	8000                	0x8000
80001280:	0ab0                	addi	a2,sp,344
80001282:	8000                	0x8000
80001284:	0870                	addi	a2,sp,28
80001286:	8000                	0x8000
80001288:	0900                	addi	s0,sp,144
8000128a:	8000                	0x8000
8000128c:	0990                	addi	a2,sp,208
8000128e:	8000                	0x8000
80001290:	0a20                	addi	s0,sp,280
80001292:	8000                	0x8000

Disassembly of section .init_array:

80002294 <__init_array_start>:
80002294:	0098                	addi	a4,sp,64
80002296:	8000                	0x8000

Disassembly of section .data:

80002298 <impure_data>:
80002298:	0000                	unimp
8000229a:	0000                	unimp
8000229c:	2584                	fld	fs1,8(a1)
8000229e:	8000                	0x8000
800022a0:	25ec                	fld	fa1,200(a1)
800022a2:	8000                	0x8000
800022a4:	2654                	fld	fa3,136(a2)
800022a6:	8000                	0x8000
	...
80002340:	0001                	nop
80002342:	0000                	unimp
80002344:	0000                	unimp
80002346:	0000                	unimp
80002348:	330e                	fld	ft6,224(sp)
8000234a:	abcd                	j	8000293c <__BSS_END__+0x26c>
8000234c:	1234                	addi	a3,sp,296
8000234e:	e66d                	bnez	a2,80002438 <impure_data+0x1a0>
80002350:	deec                	sw	a1,124(a3)
80002352:	0005                	c.nop	1
80002354:	0000000b          	0xb
	...

Disassembly of section .sdata:

800026c0 <_global_impure_ptr>:
800026c0:	2298                	fld	fa4,0(a3)
800026c2:	8000                	0x8000

800026c4 <_impure_ptr>:
800026c4:	2298                	fld	fa4,0(a3)
800026c6:	8000                	0x8000

Disassembly of section .sbss:

800026c8 <g_spawn>:
800026c8:	0000                	unimp
	...

800026cc <__fdlib_version>:
800026cc:	0000                	unimp
	...

Disassembly of section .comment:

00000000 <.comment>:
   0:	3a434347          	fmsub.d	ft6,ft6,ft4,ft7,rmm
   4:	2820                	fld	fs0,80(s0)
   6:	29554e47          	fmsub.s	ft8,fa0,fs5,ft5,rmm
   a:	3920                	fld	fs0,112(a0)
   c:	322e                	fld	ft4,232(sp)
   e:	302e                	fld	ft0,232(sp)
	...

Disassembly of section .riscv.attributes:

00000000 <.riscv.attributes>:
   0:	2541                	jal	680 <_start-0x7ffff980>
   2:	0000                	unimp
   4:	7200                	flw	fs0,32(a2)
   6:	7369                	lui	t1,0xffffa
   8:	01007663          	bgeu	zero,a6,14 <_start-0x7fffffec>
   c:	0000001b          	0x1b
  10:	1004                	addi	s1,sp,32
  12:	7205                	lui	tp,0xfffe1
  14:	3376                	fld	ft6,376(sp)
  16:	6932                	flw	fs2,12(sp)
  18:	7032                	flw	ft0,44(sp)
  1a:	5f30                	lw	a2,120(a4)
  1c:	326d                	jal	fffff9c6 <__global_pointer$+0x7fffcf2e>
  1e:	3070                	fld	fa2,224(s0)
  20:	665f 7032 0030      	0x307032665f
