
kernel.elf:     file format elf32-littleriscv


Disassembly of section .init:

80000000 <_start>:
80000000:	00001597          	auipc	a1,0x1
80000004:	ba458593          	addi	a1,a1,-1116 # 80000ba4 <vx_set_sp>
80000008:	02602573          	csrr	a0,0x26
8000000c:	00b5106b          	0xb5106b
80000010:	395000ef          	jal	ra,80000ba4 <vx_set_sp>
80000014:	00100513          	li	a0,1
80000018:	0005006b          	0x5006b
8000001c:	c3818513          	addi	a0,gp,-968 # 800038a0 <g_spawn>
80000020:	c4018613          	addi	a2,gp,-960 # 800038a8 <__BSS_END__>
80000024:	40a60633          	sub	a2,a2,a0
80000028:	00000593          	li	a1,0
8000002c:	7e1010ef          	jal	ra,8000200c <memset>
80000030:	00002517          	auipc	a0,0x2
80000034:	ee450513          	addi	a0,a0,-284 # 80001f14 <__libc_fini_array>
80000038:	691010ef          	jal	ra,80001ec8 <atexit>
8000003c:	735010ef          	jal	ra,80001f70 <__libc_init_array>
80000040:	008000ef          	jal	ra,80000048 <main>
80000044:	6a10106f          	j	80001ee4 <exit>

Disassembly of section .text:

80000048 <main>:
80000048:	ff010113          	addi	sp,sp,-16
8000004c:	00112623          	sw	ra,12(sp)
80000050:	00812423          	sw	s0,8(sp)
80000054:	3e9000ef          	jal	ra,80000c3c <vx_num_warps>
80000058:	00050413          	mv	s0,a0
8000005c:	3d9000ef          	jal	ra,80000c34 <vx_num_threads>
80000060:	7ffff7b7          	lui	a5,0x7ffff
80000064:	0007a783          	lw	a5,0(a5) # 7ffff000 <_start-0x1000>
80000068:	00050593          	mv	a1,a0
8000006c:	00040513          	mv	a0,s0
80000070:	00279713          	slli	a4,a5,0x2
80000074:	800027b7          	lui	a5,0x80002
80000078:	2a078793          	addi	a5,a5,672 # 800022a0 <__global_pointer$+0xffffe638>
8000007c:	00812403          	lw	s0,8(sp)
80000080:	00e787b3          	add	a5,a5,a4
80000084:	00c12083          	lw	ra,12(sp)
80000088:	0007a603          	lw	a2,0(a5)
8000008c:	7ffff6b7          	lui	a3,0x7ffff
80000090:	01010113          	addi	sp,sp,16
80000094:	4090006f          	j	80000c9c <vx_spawn_warps>

80000098 <register_fini>:
80000098:	00000793          	li	a5,0
8000009c:	00078863          	beqz	a5,800000ac <register_fini+0x14>
800000a0:	80002537          	lui	a0,0x80002
800000a4:	f1450513          	addi	a0,a0,-236 # 80001f14 <__global_pointer$+0xffffe2ac>
800000a8:	6210106f          	j	80001ec8 <atexit>
800000ac:	00008067          	ret

800000b0 <kernel_iadd>:
800000b0:	fe010113          	addi	sp,sp,-32
800000b4:	00812c23          	sw	s0,24(sp)
800000b8:	00452403          	lw	s0,4(a0)
800000bc:	00912a23          	sw	s1,20(sp)
800000c0:	01212823          	sw	s2,16(sp)
800000c4:	01312623          	sw	s3,12(sp)
800000c8:	00c52483          	lw	s1,12(a0)
800000cc:	00852983          	lw	s3,8(a0)
800000d0:	01052903          	lw	s2,16(a0)
800000d4:	00112e23          	sw	ra,28(sp)
800000d8:	34d000ef          	jal	ra,80000c24 <vx_thread_gid>
800000dc:	02850533          	mul	a0,a0,s0
800000e0:	04040063          	beqz	s0,80000120 <kernel_iadd+0x70>
800000e4:	00a406b3          	add	a3,s0,a0
800000e8:	00269693          	slli	a3,a3,0x2
800000ec:	00251513          	slli	a0,a0,0x2
800000f0:	013507b3          	add	a5,a0,s3
800000f4:	013686b3          	add	a3,a3,s3
800000f8:	41390833          	sub	a6,s2,s3
800000fc:	41348533          	sub	a0,s1,s3
80000100:	00f50733          	add	a4,a0,a5
80000104:	0007a583          	lw	a1,0(a5)
80000108:	00072703          	lw	a4,0(a4)
8000010c:	00f80633          	add	a2,a6,a5
80000110:	00478793          	addi	a5,a5,4
80000114:	00b70733          	add	a4,a4,a1
80000118:	00e62023          	sw	a4,0(a2)
8000011c:	fef692e3          	bne	a3,a5,80000100 <kernel_iadd+0x50>
80000120:	01c12083          	lw	ra,28(sp)
80000124:	01812403          	lw	s0,24(sp)
80000128:	01412483          	lw	s1,20(sp)
8000012c:	01012903          	lw	s2,16(sp)
80000130:	00c12983          	lw	s3,12(sp)
80000134:	02010113          	addi	sp,sp,32
80000138:	00008067          	ret

8000013c <kernel_imul>:
8000013c:	fe010113          	addi	sp,sp,-32
80000140:	00812c23          	sw	s0,24(sp)
80000144:	00452403          	lw	s0,4(a0)
80000148:	00912a23          	sw	s1,20(sp)
8000014c:	01212823          	sw	s2,16(sp)
80000150:	01312623          	sw	s3,12(sp)
80000154:	00c52483          	lw	s1,12(a0)
80000158:	00852983          	lw	s3,8(a0)
8000015c:	01052903          	lw	s2,16(a0)
80000160:	00112e23          	sw	ra,28(sp)
80000164:	2c1000ef          	jal	ra,80000c24 <vx_thread_gid>
80000168:	02850533          	mul	a0,a0,s0
8000016c:	04040063          	beqz	s0,800001ac <kernel_imul+0x70>
80000170:	00a406b3          	add	a3,s0,a0
80000174:	00269693          	slli	a3,a3,0x2
80000178:	00251513          	slli	a0,a0,0x2
8000017c:	013507b3          	add	a5,a0,s3
80000180:	013686b3          	add	a3,a3,s3
80000184:	41390833          	sub	a6,s2,s3
80000188:	41348533          	sub	a0,s1,s3
8000018c:	00f50733          	add	a4,a0,a5
80000190:	0007a583          	lw	a1,0(a5)
80000194:	00072703          	lw	a4,0(a4)
80000198:	00f80633          	add	a2,a6,a5
8000019c:	00478793          	addi	a5,a5,4
800001a0:	02b70733          	mul	a4,a4,a1
800001a4:	00e62023          	sw	a4,0(a2)
800001a8:	fef692e3          	bne	a3,a5,8000018c <kernel_imul+0x50>
800001ac:	01c12083          	lw	ra,28(sp)
800001b0:	01812403          	lw	s0,24(sp)
800001b4:	01412483          	lw	s1,20(sp)
800001b8:	01012903          	lw	s2,16(sp)
800001bc:	00c12983          	lw	s3,12(sp)
800001c0:	02010113          	addi	sp,sp,32
800001c4:	00008067          	ret

800001c8 <kernel_idiv>:
800001c8:	fe010113          	addi	sp,sp,-32
800001cc:	00812c23          	sw	s0,24(sp)
800001d0:	00452403          	lw	s0,4(a0)
800001d4:	00912a23          	sw	s1,20(sp)
800001d8:	01212823          	sw	s2,16(sp)
800001dc:	01312623          	sw	s3,12(sp)
800001e0:	00c52483          	lw	s1,12(a0)
800001e4:	00852983          	lw	s3,8(a0)
800001e8:	01052903          	lw	s2,16(a0)
800001ec:	00112e23          	sw	ra,28(sp)
800001f0:	235000ef          	jal	ra,80000c24 <vx_thread_gid>
800001f4:	02850533          	mul	a0,a0,s0
800001f8:	04040063          	beqz	s0,80000238 <kernel_idiv+0x70>
800001fc:	00a406b3          	add	a3,s0,a0
80000200:	00269693          	slli	a3,a3,0x2
80000204:	00251513          	slli	a0,a0,0x2
80000208:	013507b3          	add	a5,a0,s3
8000020c:	013686b3          	add	a3,a3,s3
80000210:	41390833          	sub	a6,s2,s3
80000214:	41348533          	sub	a0,s1,s3
80000218:	00f50633          	add	a2,a0,a5
8000021c:	0007a703          	lw	a4,0(a5)
80000220:	00062583          	lw	a1,0(a2)
80000224:	00f80633          	add	a2,a6,a5
80000228:	00478793          	addi	a5,a5,4
8000022c:	02b74733          	div	a4,a4,a1
80000230:	00e62023          	sw	a4,0(a2)
80000234:	fef692e3          	bne	a3,a5,80000218 <kernel_idiv+0x50>
80000238:	01c12083          	lw	ra,28(sp)
8000023c:	01812403          	lw	s0,24(sp)
80000240:	01412483          	lw	s1,20(sp)
80000244:	01012903          	lw	s2,16(sp)
80000248:	00c12983          	lw	s3,12(sp)
8000024c:	02010113          	addi	sp,sp,32
80000250:	00008067          	ret

80000254 <kernel_idiv_mul>:
80000254:	fe010113          	addi	sp,sp,-32
80000258:	00812c23          	sw	s0,24(sp)
8000025c:	00452403          	lw	s0,4(a0)
80000260:	00912a23          	sw	s1,20(sp)
80000264:	01212823          	sw	s2,16(sp)
80000268:	01312623          	sw	s3,12(sp)
8000026c:	00c52903          	lw	s2,12(a0)
80000270:	00852983          	lw	s3,8(a0)
80000274:	01052483          	lw	s1,16(a0)
80000278:	00112e23          	sw	ra,28(sp)
8000027c:	1a9000ef          	jal	ra,80000c24 <vx_thread_gid>
80000280:	02850533          	mul	a0,a0,s0
80000284:	04040463          	beqz	s0,800002cc <kernel_idiv_mul+0x78>
80000288:	00a405b3          	add	a1,s0,a0
8000028c:	00259593          	slli	a1,a1,0x2
80000290:	00251513          	slli	a0,a0,0x2
80000294:	013507b3          	add	a5,a0,s3
80000298:	013585b3          	add	a1,a1,s3
8000029c:	413908b3          	sub	a7,s2,s3
800002a0:	41348833          	sub	a6,s1,s3
800002a4:	00f886b3          	add	a3,a7,a5
800002a8:	0007a703          	lw	a4,0(a5)
800002ac:	0006a603          	lw	a2,0(a3) # 7ffff000 <_start-0x1000>
800002b0:	00f80533          	add	a0,a6,a5
800002b4:	00478793          	addi	a5,a5,4
800002b8:	02c746b3          	div	a3,a4,a2
800002bc:	02c70733          	mul	a4,a4,a2
800002c0:	00e68733          	add	a4,a3,a4
800002c4:	00e52023          	sw	a4,0(a0)
800002c8:	fcf59ee3          	bne	a1,a5,800002a4 <kernel_idiv_mul+0x50>
800002cc:	01c12083          	lw	ra,28(sp)
800002d0:	01812403          	lw	s0,24(sp)
800002d4:	01412483          	lw	s1,20(sp)
800002d8:	01012903          	lw	s2,16(sp)
800002dc:	00c12983          	lw	s3,12(sp)
800002e0:	02010113          	addi	sp,sp,32
800002e4:	00008067          	ret

800002e8 <kernel_fadd>:
800002e8:	fe010113          	addi	sp,sp,-32
800002ec:	00812c23          	sw	s0,24(sp)
800002f0:	00452403          	lw	s0,4(a0)
800002f4:	00912a23          	sw	s1,20(sp)
800002f8:	01212823          	sw	s2,16(sp)
800002fc:	01312623          	sw	s3,12(sp)
80000300:	00c52483          	lw	s1,12(a0)
80000304:	00852983          	lw	s3,8(a0)
80000308:	01052903          	lw	s2,16(a0)
8000030c:	00112e23          	sw	ra,28(sp)
80000310:	115000ef          	jal	ra,80000c24 <vx_thread_gid>
80000314:	02850533          	mul	a0,a0,s0
80000318:	04040063          	beqz	s0,80000358 <kernel_fadd+0x70>
8000031c:	00a40733          	add	a4,s0,a0
80000320:	00271713          	slli	a4,a4,0x2
80000324:	00251513          	slli	a0,a0,0x2
80000328:	013507b3          	add	a5,a0,s3
8000032c:	01370733          	add	a4,a4,s3
80000330:	413905b3          	sub	a1,s2,s3
80000334:	41348633          	sub	a2,s1,s3
80000338:	00f606b3          	add	a3,a2,a5
8000033c:	0007a707          	flw	fa4,0(a5)
80000340:	0006a787          	flw	fa5,0(a3)
80000344:	00f586b3          	add	a3,a1,a5
80000348:	00478793          	addi	a5,a5,4
8000034c:	00e7f7d3          	fadd.s	fa5,fa5,fa4
80000350:	00f6a027          	fsw	fa5,0(a3)
80000354:	fef712e3          	bne	a4,a5,80000338 <kernel_fadd+0x50>
80000358:	01c12083          	lw	ra,28(sp)
8000035c:	01812403          	lw	s0,24(sp)
80000360:	01412483          	lw	s1,20(sp)
80000364:	01012903          	lw	s2,16(sp)
80000368:	00c12983          	lw	s3,12(sp)
8000036c:	02010113          	addi	sp,sp,32
80000370:	00008067          	ret

80000374 <kernel_fsub>:
80000374:	fe010113          	addi	sp,sp,-32
80000378:	00812c23          	sw	s0,24(sp)
8000037c:	00452403          	lw	s0,4(a0)
80000380:	00912a23          	sw	s1,20(sp)
80000384:	01212823          	sw	s2,16(sp)
80000388:	01312623          	sw	s3,12(sp)
8000038c:	00c52483          	lw	s1,12(a0)
80000390:	00852983          	lw	s3,8(a0)
80000394:	01052903          	lw	s2,16(a0)
80000398:	00112e23          	sw	ra,28(sp)
8000039c:	089000ef          	jal	ra,80000c24 <vx_thread_gid>
800003a0:	02850533          	mul	a0,a0,s0
800003a4:	04040063          	beqz	s0,800003e4 <kernel_fsub+0x70>
800003a8:	00a40733          	add	a4,s0,a0
800003ac:	00271713          	slli	a4,a4,0x2
800003b0:	00251513          	slli	a0,a0,0x2
800003b4:	013507b3          	add	a5,a0,s3
800003b8:	01370733          	add	a4,a4,s3
800003bc:	413905b3          	sub	a1,s2,s3
800003c0:	41348633          	sub	a2,s1,s3
800003c4:	00f606b3          	add	a3,a2,a5
800003c8:	0007a787          	flw	fa5,0(a5)
800003cc:	0006a707          	flw	fa4,0(a3)
800003d0:	00f586b3          	add	a3,a1,a5
800003d4:	00478793          	addi	a5,a5,4
800003d8:	08e7f7d3          	fsub.s	fa5,fa5,fa4
800003dc:	00f6a027          	fsw	fa5,0(a3)
800003e0:	fef712e3          	bne	a4,a5,800003c4 <kernel_fsub+0x50>
800003e4:	01c12083          	lw	ra,28(sp)
800003e8:	01812403          	lw	s0,24(sp)
800003ec:	01412483          	lw	s1,20(sp)
800003f0:	01012903          	lw	s2,16(sp)
800003f4:	00c12983          	lw	s3,12(sp)
800003f8:	02010113          	addi	sp,sp,32
800003fc:	00008067          	ret

80000400 <kernel_fmul>:
80000400:	fe010113          	addi	sp,sp,-32
80000404:	00812c23          	sw	s0,24(sp)
80000408:	00452403          	lw	s0,4(a0)
8000040c:	00912a23          	sw	s1,20(sp)
80000410:	01212823          	sw	s2,16(sp)
80000414:	01312623          	sw	s3,12(sp)
80000418:	00c52483          	lw	s1,12(a0)
8000041c:	00852983          	lw	s3,8(a0)
80000420:	01052903          	lw	s2,16(a0)
80000424:	00112e23          	sw	ra,28(sp)
80000428:	7fc000ef          	jal	ra,80000c24 <vx_thread_gid>
8000042c:	02850533          	mul	a0,a0,s0
80000430:	04040063          	beqz	s0,80000470 <kernel_fmul+0x70>
80000434:	00a40733          	add	a4,s0,a0
80000438:	00271713          	slli	a4,a4,0x2
8000043c:	00251513          	slli	a0,a0,0x2
80000440:	013507b3          	add	a5,a0,s3
80000444:	01370733          	add	a4,a4,s3
80000448:	413905b3          	sub	a1,s2,s3
8000044c:	41348633          	sub	a2,s1,s3
80000450:	00f606b3          	add	a3,a2,a5
80000454:	0007a707          	flw	fa4,0(a5)
80000458:	0006a787          	flw	fa5,0(a3)
8000045c:	00f586b3          	add	a3,a1,a5
80000460:	00478793          	addi	a5,a5,4
80000464:	10e7f7d3          	fmul.s	fa5,fa5,fa4
80000468:	00f6a027          	fsw	fa5,0(a3)
8000046c:	fef712e3          	bne	a4,a5,80000450 <kernel_fmul+0x50>
80000470:	01c12083          	lw	ra,28(sp)
80000474:	01812403          	lw	s0,24(sp)
80000478:	01412483          	lw	s1,20(sp)
8000047c:	01012903          	lw	s2,16(sp)
80000480:	00c12983          	lw	s3,12(sp)
80000484:	02010113          	addi	sp,sp,32
80000488:	00008067          	ret

8000048c <kernel_fmadd>:
8000048c:	fe010113          	addi	sp,sp,-32
80000490:	00812c23          	sw	s0,24(sp)
80000494:	00452403          	lw	s0,4(a0)
80000498:	00912a23          	sw	s1,20(sp)
8000049c:	01212823          	sw	s2,16(sp)
800004a0:	01312623          	sw	s3,12(sp)
800004a4:	00c52903          	lw	s2,12(a0)
800004a8:	00852983          	lw	s3,8(a0)
800004ac:	01052483          	lw	s1,16(a0)
800004b0:	00112e23          	sw	ra,28(sp)
800004b4:	770000ef          	jal	ra,80000c24 <vx_thread_gid>
800004b8:	02850533          	mul	a0,a0,s0
800004bc:	04040263          	beqz	s0,80000500 <kernel_fmadd+0x74>
800004c0:	00a40733          	add	a4,s0,a0
800004c4:	00251513          	slli	a0,a0,0x2
800004c8:	00271713          	slli	a4,a4,0x2
800004cc:	c281a687          	flw	fa3,-984(gp) # 80003890 <__SDATA_BEGIN__>
800004d0:	01370733          	add	a4,a4,s3
800004d4:	013507b3          	add	a5,a0,s3
800004d8:	413905b3          	sub	a1,s2,s3
800004dc:	41348633          	sub	a2,s1,s3
800004e0:	00f586b3          	add	a3,a1,a5
800004e4:	0007a787          	flw	fa5,0(a5)
800004e8:	0006a707          	flw	fa4,0(a3)
800004ec:	00f606b3          	add	a3,a2,a5
800004f0:	00478793          	addi	a5,a5,4
800004f4:	68e7f7c3          	fmadd.s	fa5,fa5,fa4,fa3
800004f8:	00f6a027          	fsw	fa5,0(a3)
800004fc:	fef712e3          	bne	a4,a5,800004e0 <kernel_fmadd+0x54>
80000500:	01c12083          	lw	ra,28(sp)
80000504:	01812403          	lw	s0,24(sp)
80000508:	01412483          	lw	s1,20(sp)
8000050c:	01012903          	lw	s2,16(sp)
80000510:	00c12983          	lw	s3,12(sp)
80000514:	02010113          	addi	sp,sp,32
80000518:	00008067          	ret

8000051c <kernel_fmsub>:
8000051c:	fe010113          	addi	sp,sp,-32
80000520:	00812c23          	sw	s0,24(sp)
80000524:	00452403          	lw	s0,4(a0)
80000528:	00912a23          	sw	s1,20(sp)
8000052c:	01212823          	sw	s2,16(sp)
80000530:	01312623          	sw	s3,12(sp)
80000534:	00c52903          	lw	s2,12(a0)
80000538:	00852983          	lw	s3,8(a0)
8000053c:	01052483          	lw	s1,16(a0)
80000540:	00112e23          	sw	ra,28(sp)
80000544:	6e0000ef          	jal	ra,80000c24 <vx_thread_gid>
80000548:	02850533          	mul	a0,a0,s0
8000054c:	04040263          	beqz	s0,80000590 <kernel_fmsub+0x74>
80000550:	00a40733          	add	a4,s0,a0
80000554:	00251513          	slli	a0,a0,0x2
80000558:	00271713          	slli	a4,a4,0x2
8000055c:	c2c1a687          	flw	fa3,-980(gp) # 80003894 <__SDATA_BEGIN__+0x4>
80000560:	01370733          	add	a4,a4,s3
80000564:	013507b3          	add	a5,a0,s3
80000568:	413905b3          	sub	a1,s2,s3
8000056c:	41348633          	sub	a2,s1,s3
80000570:	00f586b3          	add	a3,a1,a5
80000574:	0007a787          	flw	fa5,0(a5)
80000578:	0006a707          	flw	fa4,0(a3)
8000057c:	00f606b3          	add	a3,a2,a5
80000580:	00478793          	addi	a5,a5,4
80000584:	68e7f7c3          	fmadd.s	fa5,fa5,fa4,fa3
80000588:	00f6a027          	fsw	fa5,0(a3)
8000058c:	fef712e3          	bne	a4,a5,80000570 <kernel_fmsub+0x54>
80000590:	01c12083          	lw	ra,28(sp)
80000594:	01812403          	lw	s0,24(sp)
80000598:	01412483          	lw	s1,20(sp)
8000059c:	01012903          	lw	s2,16(sp)
800005a0:	00c12983          	lw	s3,12(sp)
800005a4:	02010113          	addi	sp,sp,32
800005a8:	00008067          	ret

800005ac <kernel_fnmadd>:
800005ac:	fe010113          	addi	sp,sp,-32
800005b0:	00812c23          	sw	s0,24(sp)
800005b4:	00452403          	lw	s0,4(a0)
800005b8:	00912a23          	sw	s1,20(sp)
800005bc:	01212823          	sw	s2,16(sp)
800005c0:	01312623          	sw	s3,12(sp)
800005c4:	00c52903          	lw	s2,12(a0)
800005c8:	00852983          	lw	s3,8(a0)
800005cc:	01052483          	lw	s1,16(a0)
800005d0:	00112e23          	sw	ra,28(sp)
800005d4:	650000ef          	jal	ra,80000c24 <vx_thread_gid>
800005d8:	02850533          	mul	a0,a0,s0
800005dc:	04040263          	beqz	s0,80000620 <kernel_fnmadd+0x74>
800005e0:	00a40733          	add	a4,s0,a0
800005e4:	00251513          	slli	a0,a0,0x2
800005e8:	00271713          	slli	a4,a4,0x2
800005ec:	c2c1a687          	flw	fa3,-980(gp) # 80003894 <__SDATA_BEGIN__+0x4>
800005f0:	01370733          	add	a4,a4,s3
800005f4:	013507b3          	add	a5,a0,s3
800005f8:	413905b3          	sub	a1,s2,s3
800005fc:	41348633          	sub	a2,s1,s3
80000600:	00f586b3          	add	a3,a1,a5
80000604:	0007a787          	flw	fa5,0(a5)
80000608:	0006a707          	flw	fa4,0(a3)
8000060c:	00f606b3          	add	a3,a2,a5
80000610:	00478793          	addi	a5,a5,4
80000614:	68e7f7cb          	fnmsub.s	fa5,fa5,fa4,fa3
80000618:	00f6a027          	fsw	fa5,0(a3)
8000061c:	fef712e3          	bne	a4,a5,80000600 <kernel_fnmadd+0x54>
80000620:	01c12083          	lw	ra,28(sp)
80000624:	01812403          	lw	s0,24(sp)
80000628:	01412483          	lw	s1,20(sp)
8000062c:	01012903          	lw	s2,16(sp)
80000630:	00c12983          	lw	s3,12(sp)
80000634:	02010113          	addi	sp,sp,32
80000638:	00008067          	ret

8000063c <kernel_fnmsub>:
8000063c:	fe010113          	addi	sp,sp,-32
80000640:	00812c23          	sw	s0,24(sp)
80000644:	00452403          	lw	s0,4(a0)
80000648:	00912a23          	sw	s1,20(sp)
8000064c:	01212823          	sw	s2,16(sp)
80000650:	01312623          	sw	s3,12(sp)
80000654:	00c52903          	lw	s2,12(a0)
80000658:	00852983          	lw	s3,8(a0)
8000065c:	01052483          	lw	s1,16(a0)
80000660:	00112e23          	sw	ra,28(sp)
80000664:	5c0000ef          	jal	ra,80000c24 <vx_thread_gid>
80000668:	02850533          	mul	a0,a0,s0
8000066c:	04040263          	beqz	s0,800006b0 <kernel_fnmsub+0x74>
80000670:	00a40733          	add	a4,s0,a0
80000674:	00251513          	slli	a0,a0,0x2
80000678:	00271713          	slli	a4,a4,0x2
8000067c:	c281a687          	flw	fa3,-984(gp) # 80003890 <__SDATA_BEGIN__>
80000680:	01370733          	add	a4,a4,s3
80000684:	013507b3          	add	a5,a0,s3
80000688:	413905b3          	sub	a1,s2,s3
8000068c:	41348633          	sub	a2,s1,s3
80000690:	00f586b3          	add	a3,a1,a5
80000694:	0007a787          	flw	fa5,0(a5)
80000698:	0006a707          	flw	fa4,0(a3)
8000069c:	00f606b3          	add	a3,a2,a5
800006a0:	00478793          	addi	a5,a5,4
800006a4:	68e7f7cb          	fnmsub.s	fa5,fa5,fa4,fa3
800006a8:	00f6a027          	fsw	fa5,0(a3)
800006ac:	fef712e3          	bne	a4,a5,80000690 <kernel_fnmsub+0x54>
800006b0:	01c12083          	lw	ra,28(sp)
800006b4:	01812403          	lw	s0,24(sp)
800006b8:	01412483          	lw	s1,20(sp)
800006bc:	01012903          	lw	s2,16(sp)
800006c0:	00c12983          	lw	s3,12(sp)
800006c4:	02010113          	addi	sp,sp,32
800006c8:	00008067          	ret

800006cc <kernel_fnmadd_madd>:
800006cc:	fe010113          	addi	sp,sp,-32
800006d0:	00812c23          	sw	s0,24(sp)
800006d4:	00452403          	lw	s0,4(a0)
800006d8:	00912a23          	sw	s1,20(sp)
800006dc:	01212823          	sw	s2,16(sp)
800006e0:	01312623          	sw	s3,12(sp)
800006e4:	00c52903          	lw	s2,12(a0)
800006e8:	00852983          	lw	s3,8(a0)
800006ec:	01052483          	lw	s1,16(a0)
800006f0:	00112e23          	sw	ra,28(sp)
800006f4:	530000ef          	jal	ra,80000c24 <vx_thread_gid>
800006f8:	02850533          	mul	a0,a0,s0
800006fc:	04040863          	beqz	s0,8000074c <kernel_fnmadd_madd+0x80>
80000700:	00a40733          	add	a4,s0,a0
80000704:	c2c1a587          	flw	fa1,-980(gp) # 80003894 <__SDATA_BEGIN__+0x4>
80000708:	00251513          	slli	a0,a0,0x2
8000070c:	00271713          	slli	a4,a4,0x2
80000710:	c281a607          	flw	fa2,-984(gp) # 80003890 <__SDATA_BEGIN__>
80000714:	01370733          	add	a4,a4,s3
80000718:	013507b3          	add	a5,a0,s3
8000071c:	413905b3          	sub	a1,s2,s3
80000720:	41348633          	sub	a2,s1,s3
80000724:	00f586b3          	add	a3,a1,a5
80000728:	0007a787          	flw	fa5,0(a5)
8000072c:	0006a687          	flw	fa3,0(a3)
80000730:	00f606b3          	add	a3,a2,a5
80000734:	00478793          	addi	a5,a5,4
80000738:	58d7f74b          	fnmsub.s	fa4,fa5,fa3,fa1
8000073c:	60d7f7c3          	fmadd.s	fa5,fa5,fa3,fa2
80000740:	00f777d3          	fadd.s	fa5,fa4,fa5
80000744:	00f6a027          	fsw	fa5,0(a3)
80000748:	fcf71ee3          	bne	a4,a5,80000724 <kernel_fnmadd_madd+0x58>
8000074c:	01c12083          	lw	ra,28(sp)
80000750:	01812403          	lw	s0,24(sp)
80000754:	01412483          	lw	s1,20(sp)
80000758:	01012903          	lw	s2,16(sp)
8000075c:	00c12983          	lw	s3,12(sp)
80000760:	02010113          	addi	sp,sp,32
80000764:	00008067          	ret

80000768 <kernel_fdiv>:
80000768:	fe010113          	addi	sp,sp,-32
8000076c:	00812c23          	sw	s0,24(sp)
80000770:	00452403          	lw	s0,4(a0)
80000774:	00912a23          	sw	s1,20(sp)
80000778:	01212823          	sw	s2,16(sp)
8000077c:	01312623          	sw	s3,12(sp)
80000780:	00c52483          	lw	s1,12(a0)
80000784:	00852983          	lw	s3,8(a0)
80000788:	01052903          	lw	s2,16(a0)
8000078c:	00112e23          	sw	ra,28(sp)
80000790:	494000ef          	jal	ra,80000c24 <vx_thread_gid>
80000794:	02850533          	mul	a0,a0,s0
80000798:	04040063          	beqz	s0,800007d8 <kernel_fdiv+0x70>
8000079c:	00a40733          	add	a4,s0,a0
800007a0:	00271713          	slli	a4,a4,0x2
800007a4:	00251513          	slli	a0,a0,0x2
800007a8:	013507b3          	add	a5,a0,s3
800007ac:	01370733          	add	a4,a4,s3
800007b0:	413905b3          	sub	a1,s2,s3
800007b4:	41348633          	sub	a2,s1,s3
800007b8:	00f606b3          	add	a3,a2,a5
800007bc:	0007a787          	flw	fa5,0(a5)
800007c0:	0006a707          	flw	fa4,0(a3)
800007c4:	00f586b3          	add	a3,a1,a5
800007c8:	00478793          	addi	a5,a5,4
800007cc:	18e7f7d3          	fdiv.s	fa5,fa5,fa4
800007d0:	00f6a027          	fsw	fa5,0(a3)
800007d4:	fef712e3          	bne	a4,a5,800007b8 <kernel_fdiv+0x50>
800007d8:	01c12083          	lw	ra,28(sp)
800007dc:	01812403          	lw	s0,24(sp)
800007e0:	01412483          	lw	s1,20(sp)
800007e4:	01012903          	lw	s2,16(sp)
800007e8:	00c12983          	lw	s3,12(sp)
800007ec:	02010113          	addi	sp,sp,32
800007f0:	00008067          	ret

800007f4 <kernel_fdiv2>:
800007f4:	fe010113          	addi	sp,sp,-32
800007f8:	00812c23          	sw	s0,24(sp)
800007fc:	00452403          	lw	s0,4(a0)
80000800:	00912a23          	sw	s1,20(sp)
80000804:	01212823          	sw	s2,16(sp)
80000808:	01312623          	sw	s3,12(sp)
8000080c:	00c52903          	lw	s2,12(a0)
80000810:	00852983          	lw	s3,8(a0)
80000814:	01052483          	lw	s1,16(a0)
80000818:	00112e23          	sw	ra,28(sp)
8000081c:	408000ef          	jal	ra,80000c24 <vx_thread_gid>
80000820:	02850533          	mul	a0,a0,s0
80000824:	04040463          	beqz	s0,8000086c <kernel_fdiv2+0x78>
80000828:	00a40733          	add	a4,s0,a0
8000082c:	00271713          	slli	a4,a4,0x2
80000830:	00251513          	slli	a0,a0,0x2
80000834:	013507b3          	add	a5,a0,s3
80000838:	01370733          	add	a4,a4,s3
8000083c:	413905b3          	sub	a1,s2,s3
80000840:	41348633          	sub	a2,s1,s3
80000844:	00f586b3          	add	a3,a1,a5
80000848:	0007a687          	flw	fa3,0(a5)
8000084c:	0006a787          	flw	fa5,0(a3)
80000850:	00f606b3          	add	a3,a2,a5
80000854:	00478793          	addi	a5,a5,4
80000858:	18f6f753          	fdiv.s	fa4,fa3,fa5
8000085c:	18d7f7d3          	fdiv.s	fa5,fa5,fa3
80000860:	00f777d3          	fadd.s	fa5,fa4,fa5
80000864:	00f6a027          	fsw	fa5,0(a3)
80000868:	fcf71ee3          	bne	a4,a5,80000844 <kernel_fdiv2+0x50>
8000086c:	01c12083          	lw	ra,28(sp)
80000870:	01812403          	lw	s0,24(sp)
80000874:	01412483          	lw	s1,20(sp)
80000878:	01012903          	lw	s2,16(sp)
8000087c:	00c12983          	lw	s3,12(sp)
80000880:	02010113          	addi	sp,sp,32
80000884:	00008067          	ret

80000888 <kernel_ftoi>:
80000888:	fe010113          	addi	sp,sp,-32
8000088c:	00812c23          	sw	s0,24(sp)
80000890:	00452403          	lw	s0,4(a0)
80000894:	00912a23          	sw	s1,20(sp)
80000898:	01212823          	sw	s2,16(sp)
8000089c:	01312623          	sw	s3,12(sp)
800008a0:	00c52483          	lw	s1,12(a0)
800008a4:	00852983          	lw	s3,8(a0)
800008a8:	01052903          	lw	s2,16(a0)
800008ac:	00112e23          	sw	ra,28(sp)
800008b0:	374000ef          	jal	ra,80000c24 <vx_thread_gid>
800008b4:	02850533          	mul	a0,a0,s0
800008b8:	04040263          	beqz	s0,800008fc <kernel_ftoi+0x74>
800008bc:	00a406b3          	add	a3,s0,a0
800008c0:	00269693          	slli	a3,a3,0x2
800008c4:	00251513          	slli	a0,a0,0x2
800008c8:	013507b3          	add	a5,a0,s3
800008cc:	013686b3          	add	a3,a3,s3
800008d0:	41390533          	sub	a0,s2,s3
800008d4:	413485b3          	sub	a1,s1,s3
800008d8:	00f58733          	add	a4,a1,a5
800008dc:	0007a707          	flw	fa4,0(a5)
800008e0:	00072787          	flw	fa5,0(a4)
800008e4:	00f50633          	add	a2,a0,a5
800008e8:	00478793          	addi	a5,a5,4
800008ec:	00e7f7d3          	fadd.s	fa5,fa5,fa4
800008f0:	c0079753          	fcvt.w.s	a4,fa5,rtz
800008f4:	00e62023          	sw	a4,0(a2)
800008f8:	fef690e3          	bne	a3,a5,800008d8 <kernel_ftoi+0x50>
800008fc:	01c12083          	lw	ra,28(sp)
80000900:	01812403          	lw	s0,24(sp)
80000904:	01412483          	lw	s1,20(sp)
80000908:	01012903          	lw	s2,16(sp)
8000090c:	00c12983          	lw	s3,12(sp)
80000910:	02010113          	addi	sp,sp,32
80000914:	00008067          	ret

80000918 <kernel_ftou>:
80000918:	fe010113          	addi	sp,sp,-32
8000091c:	00812c23          	sw	s0,24(sp)
80000920:	00452403          	lw	s0,4(a0)
80000924:	00912a23          	sw	s1,20(sp)
80000928:	01212823          	sw	s2,16(sp)
8000092c:	01312623          	sw	s3,12(sp)
80000930:	00c52483          	lw	s1,12(a0)
80000934:	00852983          	lw	s3,8(a0)
80000938:	01052903          	lw	s2,16(a0)
8000093c:	00112e23          	sw	ra,28(sp)
80000940:	2e4000ef          	jal	ra,80000c24 <vx_thread_gid>
80000944:	02850533          	mul	a0,a0,s0
80000948:	04040263          	beqz	s0,8000098c <kernel_ftou+0x74>
8000094c:	00a406b3          	add	a3,s0,a0
80000950:	00269693          	slli	a3,a3,0x2
80000954:	00251513          	slli	a0,a0,0x2
80000958:	013507b3          	add	a5,a0,s3
8000095c:	013686b3          	add	a3,a3,s3
80000960:	41390533          	sub	a0,s2,s3
80000964:	413485b3          	sub	a1,s1,s3
80000968:	00f58733          	add	a4,a1,a5
8000096c:	0007a707          	flw	fa4,0(a5)
80000970:	00072787          	flw	fa5,0(a4)
80000974:	00f50633          	add	a2,a0,a5
80000978:	00478793          	addi	a5,a5,4
8000097c:	00e7f7d3          	fadd.s	fa5,fa5,fa4
80000980:	c0179753          	fcvt.wu.s	a4,fa5,rtz
80000984:	00e62023          	sw	a4,0(a2)
80000988:	fef690e3          	bne	a3,a5,80000968 <kernel_ftou+0x50>
8000098c:	01c12083          	lw	ra,28(sp)
80000990:	01812403          	lw	s0,24(sp)
80000994:	01412483          	lw	s1,20(sp)
80000998:	01012903          	lw	s2,16(sp)
8000099c:	00c12983          	lw	s3,12(sp)
800009a0:	02010113          	addi	sp,sp,32
800009a4:	00008067          	ret

800009a8 <kernel_itof>:
800009a8:	fe010113          	addi	sp,sp,-32
800009ac:	00812c23          	sw	s0,24(sp)
800009b0:	00452403          	lw	s0,4(a0)
800009b4:	00912a23          	sw	s1,20(sp)
800009b8:	01212823          	sw	s2,16(sp)
800009bc:	01312623          	sw	s3,12(sp)
800009c0:	00c52483          	lw	s1,12(a0)
800009c4:	00852983          	lw	s3,8(a0)
800009c8:	01052903          	lw	s2,16(a0)
800009cc:	00112e23          	sw	ra,28(sp)
800009d0:	254000ef          	jal	ra,80000c24 <vx_thread_gid>
800009d4:	02850533          	mul	a0,a0,s0
800009d8:	04040263          	beqz	s0,80000a1c <kernel_itof+0x74>
800009dc:	00a406b3          	add	a3,s0,a0
800009e0:	00269693          	slli	a3,a3,0x2
800009e4:	00251513          	slli	a0,a0,0x2
800009e8:	013507b3          	add	a5,a0,s3
800009ec:	013686b3          	add	a3,a3,s3
800009f0:	41390833          	sub	a6,s2,s3
800009f4:	41348533          	sub	a0,s1,s3
800009f8:	00f50733          	add	a4,a0,a5
800009fc:	0007a583          	lw	a1,0(a5)
80000a00:	00072703          	lw	a4,0(a4)
80000a04:	00f80633          	add	a2,a6,a5
80000a08:	00478793          	addi	a5,a5,4
80000a0c:	00b70733          	add	a4,a4,a1
80000a10:	d00777d3          	fcvt.s.w	fa5,a4
80000a14:	00f62027          	fsw	fa5,0(a2)
80000a18:	fef690e3          	bne	a3,a5,800009f8 <kernel_itof+0x50>
80000a1c:	01c12083          	lw	ra,28(sp)
80000a20:	01812403          	lw	s0,24(sp)
80000a24:	01412483          	lw	s1,20(sp)
80000a28:	01012903          	lw	s2,16(sp)
80000a2c:	00c12983          	lw	s3,12(sp)
80000a30:	02010113          	addi	sp,sp,32
80000a34:	00008067          	ret

80000a38 <kernel_utof>:
80000a38:	fe010113          	addi	sp,sp,-32
80000a3c:	00812c23          	sw	s0,24(sp)
80000a40:	00452403          	lw	s0,4(a0)
80000a44:	00912a23          	sw	s1,20(sp)
80000a48:	01212823          	sw	s2,16(sp)
80000a4c:	01312623          	sw	s3,12(sp)
80000a50:	00c52483          	lw	s1,12(a0)
80000a54:	00852983          	lw	s3,8(a0)
80000a58:	01052903          	lw	s2,16(a0)
80000a5c:	00112e23          	sw	ra,28(sp)
80000a60:	1c4000ef          	jal	ra,80000c24 <vx_thread_gid>
80000a64:	02850533          	mul	a0,a0,s0
80000a68:	04040263          	beqz	s0,80000aac <kernel_utof+0x74>
80000a6c:	00a406b3          	add	a3,s0,a0
80000a70:	00269693          	slli	a3,a3,0x2
80000a74:	00251513          	slli	a0,a0,0x2
80000a78:	013507b3          	add	a5,a0,s3
80000a7c:	013686b3          	add	a3,a3,s3
80000a80:	41390833          	sub	a6,s2,s3
80000a84:	41348533          	sub	a0,s1,s3
80000a88:	00f50733          	add	a4,a0,a5
80000a8c:	0007a583          	lw	a1,0(a5)
80000a90:	00072703          	lw	a4,0(a4)
80000a94:	00f80633          	add	a2,a6,a5
80000a98:	00478793          	addi	a5,a5,4
80000a9c:	00b70733          	add	a4,a4,a1
80000aa0:	d01777d3          	fcvt.s.wu	fa5,a4
80000aa4:	00f62027          	fsw	fa5,0(a2)
80000aa8:	fef690e3          	bne	a3,a5,80000a88 <kernel_utof+0x50>
80000aac:	01c12083          	lw	ra,28(sp)
80000ab0:	01812403          	lw	s0,24(sp)
80000ab4:	01412483          	lw	s1,20(sp)
80000ab8:	01012903          	lw	s2,16(sp)
80000abc:	00c12983          	lw	s3,12(sp)
80000ac0:	02010113          	addi	sp,sp,32
80000ac4:	00008067          	ret

80000ac8 <kernel_fsqrt>:
80000ac8:	fd010113          	addi	sp,sp,-48
80000acc:	02912223          	sw	s1,36(sp)
80000ad0:	00452483          	lw	s1,4(a0)
80000ad4:	03212023          	sw	s2,32(sp)
80000ad8:	01312e23          	sw	s3,28(sp)
80000adc:	01412c23          	sw	s4,24(sp)
80000ae0:	00c52983          	lw	s3,12(a0)
80000ae4:	00852a03          	lw	s4,8(a0)
80000ae8:	01052903          	lw	s2,16(a0)
80000aec:	02112623          	sw	ra,44(sp)
80000af0:	02812423          	sw	s0,40(sp)
80000af4:	130000ef          	jal	ra,80000c24 <vx_thread_gid>
80000af8:	02950533          	mul	a0,a0,s1
80000afc:	04048c63          	beqz	s1,80000b54 <kernel_fsqrt+0x8c>
80000b00:	00a484b3          	add	s1,s1,a0
80000b04:	f00006d3          	fmv.w.x	fa3,zero
80000b08:	00251513          	slli	a0,a0,0x2
80000b0c:	00249493          	slli	s1,s1,0x2
80000b10:	01450433          	add	s0,a0,s4
80000b14:	014484b3          	add	s1,s1,s4
80000b18:	414989b3          	sub	s3,s3,s4
80000b1c:	41490933          	sub	s2,s2,s4
80000b20:	008987b3          	add	a5,s3,s0
80000b24:	00042707          	flw	fa4,0(s0)
80000b28:	0007a787          	flw	fa5,0(a5)
80000b2c:	00890733          	add	a4,s2,s0
80000b30:	10e7f7d3          	fmul.s	fa5,fa5,fa4
80000b34:	001026f3          	frflags	a3
80000b38:	a0d797d3          	flt.s	a5,fa5,fa3
80000b3c:	00169073          	fsflags	a3
80000b40:	5807f753          	fsqrt.s	fa4,fa5
80000b44:	02079863          	bnez	a5,80000b74 <kernel_fsqrt+0xac>
80000b48:	00440413          	addi	s0,s0,4
80000b4c:	00e72027          	fsw	fa4,0(a4)
80000b50:	fc9418e3          	bne	s0,s1,80000b20 <kernel_fsqrt+0x58>
80000b54:	02c12083          	lw	ra,44(sp)
80000b58:	02812403          	lw	s0,40(sp)
80000b5c:	02412483          	lw	s1,36(sp)
80000b60:	02012903          	lw	s2,32(sp)
80000b64:	01c12983          	lw	s3,28(sp)
80000b68:	01812a03          	lw	s4,24(sp)
80000b6c:	03010113          	addi	sp,sp,48
80000b70:	00008067          	ret
80000b74:	e0078553          	fmv.x.w	a0,fa5
80000b78:	00e12627          	fsw	fa4,12(sp)
80000b7c:	190000ef          	jal	ra,80000d0c <sqrtf>
80000b80:	00c12707          	flw	fa4,12(sp)
80000b84:	008907b3          	add	a5,s2,s0
80000b88:	00440413          	addi	s0,s0,4
80000b8c:	00e7a027          	fsw	fa4,0(a5)
80000b90:	f00006d3          	fmv.w.x	fa3,zero
80000b94:	f88496e3          	bne	s1,s0,80000b20 <kernel_fsqrt+0x58>
80000b98:	fbdff06f          	j	80000b54 <kernel_fsqrt+0x8c>

80000b9c <_exit>:
80000b9c:	00000513          	li	a0,0
80000ba0:	0005006b          	0x5006b

80000ba4 <vx_set_sp>:
80000ba4:	02502573          	csrr	a0,0x25
80000ba8:	0005006b          	0x5006b
80000bac:	00003197          	auipc	gp,0x3
80000bb0:	0bc18193          	addi	gp,gp,188 # 80003c68 <__global_pointer$>
80000bb4:	022025f3          	csrr	a1,0x22
80000bb8:	00a59593          	slli	a1,a1,0xa
80000bbc:	02002673          	csrr	a2,0x20
80000bc0:	00261613          	slli	a2,a2,0x2
80000bc4:	6ffff137          	lui	sp,0x6ffff
80000bc8:	40b10133          	sub	sp,sp,a1
80000bcc:	00c10133          	add	sp,sp,a2
80000bd0:	021026f3          	csrr	a3,0x21
80000bd4:	00068663          	beqz	a3,80000be0 <RETURN>
80000bd8:	00000513          	li	a0,0
80000bdc:	0005006b          	0x5006b

80000be0 <RETURN>:
80000be0:	00008067          	ret

80000be4 <vx_wspawn>:
80000be4:	00b5106b          	0xb5106b
80000be8:	00008067          	ret

80000bec <vx_tmc>:
80000bec:	0005006b          	0x5006b
80000bf0:	00008067          	ret

80000bf4 <vx_barrier>:
80000bf4:	00b5406b          	0xb5406b
80000bf8:	00008067          	ret

80000bfc <vx_split>:
80000bfc:	0005206b          	0x5206b
80000c00:	00008067          	ret

80000c04 <vx_join>:
80000c04:	0000306b          	0x306b
80000c08:	00008067          	ret

80000c0c <vx_warp_id>:
80000c0c:	02102573          	csrr	a0,0x21
80000c10:	00008067          	ret

80000c14 <vx_warp_gid>:
80000c14:	02302573          	csrr	a0,0x23
80000c18:	00008067          	ret

80000c1c <vx_thread_id>:
80000c1c:	02002573          	csrr	a0,0x20
80000c20:	00008067          	ret

80000c24 <vx_thread_gid>:
80000c24:	02202573          	csrr	a0,0x22
80000c28:	00008067          	ret

80000c2c <vx_core_id>:
80000c2c:	02402573          	csrr	a0,0x24
80000c30:	00008067          	ret

80000c34 <vx_num_threads>:
80000c34:	02502573          	csrr	a0,0x25
80000c38:	00008067          	ret

80000c3c <vx_num_warps>:
80000c3c:	02602573          	csrr	a0,0x26
80000c40:	00008067          	ret

80000c44 <vx_num_cores>:
80000c44:	02702573          	csrr	a0,0x27
80000c48:	00008067          	ret

80000c4c <vx_num_cycles>:
80000c4c:	c0002573          	rdcycle	a0
80000c50:	00008067          	ret

80000c54 <vx_num_instrs>:
80000c54:	c0202573          	rdinstret	a0
80000c58:	00008067          	ret

80000c5c <spawn_warp_runonce>:
80000c5c:	ff010113          	addi	sp,sp,-16 # 6fffeff0 <_start-0x10001010>
80000c60:	00812423          	sw	s0,8(sp)
80000c64:	c381a783          	lw	a5,-968(gp) # 800038a0 <g_spawn>
80000c68:	00112623          	sw	ra,12(sp)
80000c6c:	0087a503          	lw	a0,8(a5)
80000c70:	f7dff0ef          	jal	ra,80000bec <vx_tmc>
80000c74:	c381a783          	lw	a5,-968(gp) # 800038a0 <g_spawn>
80000c78:	0047a503          	lw	a0,4(a5)
80000c7c:	0007a783          	lw	a5,0(a5)
80000c80:	000780e7          	jalr	a5
80000c84:	f89ff0ef          	jal	ra,80000c0c <vx_warp_id>
80000c88:	00812403          	lw	s0,8(sp)
80000c8c:	00c12083          	lw	ra,12(sp)
80000c90:	00153513          	seqz	a0,a0
80000c94:	01010113          	addi	sp,sp,16
80000c98:	f55ff06f          	j	80000bec <vx_tmc>

80000c9c <vx_spawn_warps>:
80000c9c:	fe010113          	addi	sp,sp,-32
80000ca0:	00410793          	addi	a5,sp,4
80000ca4:	00812c23          	sw	s0,24(sp)
80000ca8:	c2f1ac23          	sw	a5,-968(gp) # 800038a0 <g_spawn>
80000cac:	00112e23          	sw	ra,28(sp)
80000cb0:	00c12223          	sw	a2,4(sp)
80000cb4:	00d12423          	sw	a3,8(sp)
80000cb8:	00b12623          	sw	a1,12(sp)
80000cbc:	00100793          	li	a5,1
80000cc0:	00a7dc63          	bge	a5,a0,80000cd8 <vx_spawn_warps+0x3c>
80000cc4:	800015b7          	lui	a1,0x80001
80000cc8:	c5c58593          	addi	a1,a1,-932 # 80000c5c <__global_pointer$+0xffffcff4>
80000ccc:	f19ff0ef          	jal	ra,80000be4 <vx_wspawn>
80000cd0:	c381a783          	lw	a5,-968(gp) # 800038a0 <g_spawn>
80000cd4:	0087a583          	lw	a1,8(a5)
80000cd8:	00058513          	mv	a0,a1
80000cdc:	f11ff0ef          	jal	ra,80000bec <vx_tmc>
80000ce0:	c381a783          	lw	a5,-968(gp) # 800038a0 <g_spawn>
80000ce4:	0047a503          	lw	a0,4(a5)
80000ce8:	0007a783          	lw	a5,0(a5)
80000cec:	000780e7          	jalr	a5
80000cf0:	f1dff0ef          	jal	ra,80000c0c <vx_warp_id>
80000cf4:	00153513          	seqz	a0,a0
80000cf8:	ef5ff0ef          	jal	ra,80000bec <vx_tmc>
80000cfc:	01c12083          	lw	ra,28(sp)
80000d00:	01812403          	lw	s0,24(sp)
80000d04:	02010113          	addi	sp,sp,32
80000d08:	00008067          	ret

80000d0c <sqrtf>:
80000d0c:	ff010113          	addi	sp,sp,-16
80000d10:	00812423          	sw	s0,8(sp)
80000d14:	00912223          	sw	s1,4(sp)
80000d18:	00112623          	sw	ra,12(sp)
80000d1c:	00050413          	mv	s0,a0
80000d20:	080000ef          	jal	ra,80000da0 <__ieee754_sqrtf>
80000d24:	c3c1a703          	lw	a4,-964(gp) # 800038a4 <__fdlib_version>
80000d28:	fff00793          	li	a5,-1
80000d2c:	00050493          	mv	s1,a0
80000d30:	02f70263          	beq	a4,a5,80000d54 <sqrtf+0x48>
80000d34:	00040593          	mv	a1,s0
80000d38:	00040513          	mv	a0,s0
80000d3c:	0fc010ef          	jal	ra,80001e38 <__unordsf2>
80000d40:	00051a63          	bnez	a0,80000d54 <sqrtf+0x48>
80000d44:	00000593          	li	a1,0
80000d48:	00040513          	mv	a0,s0
80000d4c:	0f5000ef          	jal	ra,80001640 <__lesf2>
80000d50:	00054e63          	bltz	a0,80000d6c <sqrtf+0x60>
80000d54:	00c12083          	lw	ra,12(sp)
80000d58:	00812403          	lw	s0,8(sp)
80000d5c:	00048513          	mv	a0,s1
80000d60:	00412483          	lw	s1,4(sp)
80000d64:	01010113          	addi	sp,sp,16
80000d68:	00008067          	ret
80000d6c:	170010ef          	jal	ra,80001edc <__errno>
80000d70:	02100793          	li	a5,33
80000d74:	00000593          	li	a1,0
80000d78:	00f52023          	sw	a5,0(a0)
80000d7c:	00058513          	mv	a0,a1
80000d80:	594000ef          	jal	ra,80001314 <__divsf3>
80000d84:	00c12083          	lw	ra,12(sp)
80000d88:	00812403          	lw	s0,8(sp)
80000d8c:	00050493          	mv	s1,a0
80000d90:	00048513          	mv	a0,s1
80000d94:	00412483          	lw	s1,4(sp)
80000d98:	01010113          	addi	sp,sp,16
80000d9c:	00008067          	ret

80000da0 <__ieee754_sqrtf>:
80000da0:	ff010113          	addi	sp,sp,-16
80000da4:	00151713          	slli	a4,a0,0x1
80000da8:	00812423          	sw	s0,8(sp)
80000dac:	00112623          	sw	ra,12(sp)
80000db0:	00175713          	srli	a4,a4,0x1
80000db4:	7f800637          	lui	a2,0x7f800
80000db8:	00050413          	mv	s0,a0
80000dbc:	00050593          	mv	a1,a0
80000dc0:	0cc77663          	bgeu	a4,a2,80000e8c <__ieee754_sqrtf+0xec>
80000dc4:	0a070a63          	beqz	a4,80000e78 <__ieee754_sqrtf+0xd8>
80000dc8:	00050693          	mv	a3,a0
80000dcc:	0e054663          	bltz	a0,80000eb8 <__ieee754_sqrtf+0x118>
80000dd0:	00a67633          	and	a2,a2,a0
80000dd4:	41755793          	srai	a5,a0,0x17
80000dd8:	02061463          	bnez	a2,80000e00 <__ieee754_sqrtf+0x60>
80000ddc:	008005b7          	lui	a1,0x800
80000de0:	00a5f433          	and	s0,a1,a0
80000de4:	0e041c63          	bnez	s0,80000edc <__ieee754_sqrtf+0x13c>
80000de8:	00169693          	slli	a3,a3,0x1
80000dec:	00869613          	slli	a2,a3,0x8
80000df0:	00040713          	mv	a4,s0
80000df4:	00140413          	addi	s0,s0,1
80000df8:	fe0658e3          	bgez	a2,80000de8 <__ieee754_sqrtf+0x48>
80000dfc:	40e787b3          	sub	a5,a5,a4
80000e00:	00800637          	lui	a2,0x800
80000e04:	fff60593          	addi	a1,a2,-1 # 7fffff <_start-0x7f800001>
80000e08:	f8178713          	addi	a4,a5,-127
80000e0c:	00b6f6b3          	and	a3,a3,a1
80000e10:	00c6e6b3          	or	a3,a3,a2
80000e14:	00177613          	andi	a2,a4,1
80000e18:	00169793          	slli	a5,a3,0x1
80000e1c:	08061a63          	bnez	a2,80000eb0 <__ieee754_sqrtf+0x110>
80000e20:	40175813          	srai	a6,a4,0x1
80000e24:	01900693          	li	a3,25
80000e28:	00000513          	li	a0,0
80000e2c:	00000593          	li	a1,0
80000e30:	01000737          	lui	a4,0x1000
80000e34:	00e58633          	add	a2,a1,a4
80000e38:	fff68693          	addi	a3,a3,-1
80000e3c:	00c7c863          	blt	a5,a2,80000e4c <__ieee754_sqrtf+0xac>
80000e40:	00e605b3          	add	a1,a2,a4
80000e44:	40c787b3          	sub	a5,a5,a2
80000e48:	00e50533          	add	a0,a0,a4
80000e4c:	00179793          	slli	a5,a5,0x1
80000e50:	00175713          	srli	a4,a4,0x1
80000e54:	fe0690e3          	bnez	a3,80000e34 <__ieee754_sqrtf+0x94>
80000e58:	00078663          	beqz	a5,80000e64 <__ieee754_sqrtf+0xc4>
80000e5c:	00150513          	addi	a0,a0,1
80000e60:	ffe57513          	andi	a0,a0,-2
80000e64:	40155513          	srai	a0,a0,0x1
80000e68:	3f0005b7          	lui	a1,0x3f000
80000e6c:	00b505b3          	add	a1,a0,a1
80000e70:	01781793          	slli	a5,a6,0x17
80000e74:	00b785b3          	add	a1,a5,a1
80000e78:	00c12083          	lw	ra,12(sp)
80000e7c:	00812403          	lw	s0,8(sp)
80000e80:	00058513          	mv	a0,a1
80000e84:	01010113          	addi	sp,sp,16
80000e88:	00008067          	ret
80000e8c:	069000ef          	jal	ra,800016f4 <__mulsf3>
80000e90:	00040593          	mv	a1,s0
80000e94:	054000ef          	jal	ra,80000ee8 <__addsf3>
80000e98:	00c12083          	lw	ra,12(sp)
80000e9c:	00812403          	lw	s0,8(sp)
80000ea0:	00050593          	mv	a1,a0
80000ea4:	00058513          	mv	a0,a1
80000ea8:	01010113          	addi	sp,sp,16
80000eac:	00008067          	ret
80000eb0:	00269793          	slli	a5,a3,0x2
80000eb4:	f6dff06f          	j	80000e20 <__ieee754_sqrtf+0x80>
80000eb8:	335000ef          	jal	ra,800019ec <__subsf3>
80000ebc:	00050593          	mv	a1,a0
80000ec0:	454000ef          	jal	ra,80001314 <__divsf3>
80000ec4:	00c12083          	lw	ra,12(sp)
80000ec8:	00812403          	lw	s0,8(sp)
80000ecc:	00050593          	mv	a1,a0
80000ed0:	00058513          	mv	a0,a1
80000ed4:	01010113          	addi	sp,sp,16
80000ed8:	00008067          	ret
80000edc:	fff00713          	li	a4,-1
80000ee0:	40e787b3          	sub	a5,a5,a4
80000ee4:	f1dff06f          	j	80000e00 <__ieee754_sqrtf+0x60>

80000ee8 <__addsf3>:
80000ee8:	ff010113          	addi	sp,sp,-16
80000eec:	01755713          	srli	a4,a0,0x17
80000ef0:	00800637          	lui	a2,0x800
80000ef4:	fff60613          	addi	a2,a2,-1 # 7fffff <_start-0x7f800001>
80000ef8:	01212023          	sw	s2,0(sp)
80000efc:	0ff77913          	andi	s2,a4,255
80000f00:	0175d713          	srli	a4,a1,0x17
80000f04:	00a677b3          	and	a5,a2,a0
80000f08:	00912223          	sw	s1,4(sp)
80000f0c:	00b67633          	and	a2,a2,a1
80000f10:	0ff77713          	andi	a4,a4,255
80000f14:	00112623          	sw	ra,12(sp)
80000f18:	00812423          	sw	s0,8(sp)
80000f1c:	01f55493          	srli	s1,a0,0x1f
80000f20:	01f5d593          	srli	a1,a1,0x1f
80000f24:	00379793          	slli	a5,a5,0x3
80000f28:	00361613          	slli	a2,a2,0x3
80000f2c:	40e906b3          	sub	a3,s2,a4
80000f30:	18b49463          	bne	s1,a1,800010b8 <__addsf3+0x1d0>
80000f34:	08d05c63          	blez	a3,80000fcc <__addsf3+0xe4>
80000f38:	04071c63          	bnez	a4,80000f90 <__addsf3+0xa8>
80000f3c:	34060463          	beqz	a2,80001284 <__addsf3+0x39c>
80000f40:	fff68693          	addi	a3,a3,-1
80000f44:	02069e63          	bnez	a3,80000f80 <__addsf3+0x98>
80000f48:	00c787b3          	add	a5,a5,a2
80000f4c:	00090713          	mv	a4,s2
80000f50:	00579693          	slli	a3,a5,0x5
80000f54:	1006dc63          	bgez	a3,8000106c <__addsf3+0x184>
80000f58:	00170713          	addi	a4,a4,1 # 1000001 <_start-0x7effffff>
80000f5c:	0ff00693          	li	a3,255
80000f60:	32d70c63          	beq	a4,a3,80001298 <__addsf3+0x3b0>
80000f64:	7e0006b7          	lui	a3,0x7e000
80000f68:	0017f613          	andi	a2,a5,1
80000f6c:	fff68693          	addi	a3,a3,-1 # 7dffffff <_start-0x2000001>
80000f70:	0017d793          	srli	a5,a5,0x1
80000f74:	00d7f7b3          	and	a5,a5,a3
80000f78:	00c7e7b3          	or	a5,a5,a2
80000f7c:	0f00006f          	j	8000106c <__addsf3+0x184>
80000f80:	0ff00713          	li	a4,255
80000f84:	00e91e63          	bne	s2,a4,80000fa0 <__addsf3+0xb8>
80000f88:	0ff00713          	li	a4,255
80000f8c:	0e00006f          	j	8000106c <__addsf3+0x184>
80000f90:	0ff00713          	li	a4,255
80000f94:	fee90ae3          	beq	s2,a4,80000f88 <__addsf3+0xa0>
80000f98:	04000737          	lui	a4,0x4000
80000f9c:	00e66633          	or	a2,a2,a4
80000fa0:	01b00593          	li	a1,27
80000fa4:	00100713          	li	a4,1
80000fa8:	00d5ce63          	blt	a1,a3,80000fc4 <__addsf3+0xdc>
80000fac:	02000593          	li	a1,32
80000fb0:	00d65733          	srl	a4,a2,a3
80000fb4:	40d586b3          	sub	a3,a1,a3
80000fb8:	00d61633          	sll	a2,a2,a3
80000fbc:	00c03633          	snez	a2,a2
80000fc0:	00c76733          	or	a4,a4,a2
80000fc4:	00e787b3          	add	a5,a5,a4
80000fc8:	f85ff06f          	j	80000f4c <__addsf3+0x64>
80000fcc:	06068663          	beqz	a3,80001038 <__addsf3+0x150>
80000fd0:	412705b3          	sub	a1,a4,s2
80000fd4:	02091463          	bnez	s2,80000ffc <__addsf3+0x114>
80000fd8:	00078e63          	beqz	a5,80000ff4 <__addsf3+0x10c>
80000fdc:	fff58593          	addi	a1,a1,-1 # 3effffff <_start-0x41000001>
80000fe0:	00059663          	bnez	a1,80000fec <__addsf3+0x104>
80000fe4:	00c787b3          	add	a5,a5,a2
80000fe8:	f69ff06f          	j	80000f50 <__addsf3+0x68>
80000fec:	0ff00693          	li	a3,255
80000ff0:	00d71e63          	bne	a4,a3,8000100c <__addsf3+0x124>
80000ff4:	00060793          	mv	a5,a2
80000ff8:	0740006f          	j	8000106c <__addsf3+0x184>
80000ffc:	0ff00693          	li	a3,255
80001000:	fed70ae3          	beq	a4,a3,80000ff4 <__addsf3+0x10c>
80001004:	040006b7          	lui	a3,0x4000
80001008:	00d7e7b3          	or	a5,a5,a3
8000100c:	01b00513          	li	a0,27
80001010:	00100693          	li	a3,1
80001014:	00b54e63          	blt	a0,a1,80001030 <__addsf3+0x148>
80001018:	02000693          	li	a3,32
8000101c:	40b686b3          	sub	a3,a3,a1
80001020:	00b7d533          	srl	a0,a5,a1
80001024:	00d797b3          	sll	a5,a5,a3
80001028:	00f037b3          	snez	a5,a5
8000102c:	00f566b3          	or	a3,a0,a5
80001030:	00c687b3          	add	a5,a3,a2
80001034:	f1dff06f          	j	80000f50 <__addsf3+0x68>
80001038:	00190593          	addi	a1,s2,1
8000103c:	0fe5f713          	andi	a4,a1,254
80001040:	06071063          	bnez	a4,800010a0 <__addsf3+0x1b8>
80001044:	04091263          	bnez	s2,80001088 <__addsf3+0x1a0>
80001048:	fa0786e3          	beqz	a5,80000ff4 <__addsf3+0x10c>
8000104c:	02060063          	beqz	a2,8000106c <__addsf3+0x184>
80001050:	00c787b3          	add	a5,a5,a2
80001054:	00579693          	slli	a3,a5,0x5
80001058:	0006da63          	bgez	a3,8000106c <__addsf3+0x184>
8000105c:	fc000737          	lui	a4,0xfc000
80001060:	fff70713          	addi	a4,a4,-1 # fbffffff <__global_pointer$+0x7bffc397>
80001064:	00e7f7b3          	and	a5,a5,a4
80001068:	00100713          	li	a4,1
8000106c:	0077f693          	andi	a3,a5,7
80001070:	22068663          	beqz	a3,8000129c <__addsf3+0x3b4>
80001074:	00f7f693          	andi	a3,a5,15
80001078:	00400613          	li	a2,4
8000107c:	22c68063          	beq	a3,a2,8000129c <__addsf3+0x3b4>
80001080:	00478793          	addi	a5,a5,4
80001084:	2180006f          	j	8000129c <__addsf3+0x3b4>
80001088:	20078263          	beqz	a5,8000128c <__addsf3+0x3a4>
8000108c:	ee060ee3          	beqz	a2,80000f88 <__addsf3+0xa0>
80001090:	00000493          	li	s1,0
80001094:	020007b7          	lui	a5,0x2000
80001098:	0ff00713          	li	a4,255
8000109c:	2000006f          	j	8000129c <__addsf3+0x3b4>
800010a0:	0ff00713          	li	a4,255
800010a4:	1ee58863          	beq	a1,a4,80001294 <__addsf3+0x3ac>
800010a8:	00c787b3          	add	a5,a5,a2
800010ac:	0017d793          	srli	a5,a5,0x1
800010b0:	00058713          	mv	a4,a1
800010b4:	fb9ff06f          	j	8000106c <__addsf3+0x184>
800010b8:	08d05663          	blez	a3,80001144 <__addsf3+0x25c>
800010bc:	06071863          	bnez	a4,8000112c <__addsf3+0x244>
800010c0:	00090713          	mv	a4,s2
800010c4:	fa0604e3          	beqz	a2,8000106c <__addsf3+0x184>
800010c8:	fff68693          	addi	a3,a3,-1 # 3ffffff <_start-0x7c000001>
800010cc:	02069263          	bnez	a3,800010f0 <__addsf3+0x208>
800010d0:	40c787b3          	sub	a5,a5,a2
800010d4:	00579693          	slli	a3,a5,0x5
800010d8:	f806dae3          	bgez	a3,8000106c <__addsf3+0x184>
800010dc:	04000437          	lui	s0,0x4000
800010e0:	fff40413          	addi	s0,s0,-1 # 3ffffff <_start-0x7c000001>
800010e4:	0087f433          	and	s0,a5,s0
800010e8:	00070913          	mv	s2,a4
800010ec:	1380006f          	j	80001224 <__addsf3+0x33c>
800010f0:	0ff00593          	li	a1,255
800010f4:	0ff00713          	li	a4,255
800010f8:	f6b90ae3          	beq	s2,a1,8000106c <__addsf3+0x184>
800010fc:	01b00593          	li	a1,27
80001100:	00100713          	li	a4,1
80001104:	00d5ce63          	blt	a1,a3,80001120 <__addsf3+0x238>
80001108:	02000593          	li	a1,32
8000110c:	00d65733          	srl	a4,a2,a3
80001110:	40d586b3          	sub	a3,a1,a3
80001114:	00d61633          	sll	a2,a2,a3
80001118:	00c03633          	snez	a2,a2
8000111c:	00c76733          	or	a4,a4,a2
80001120:	40e787b3          	sub	a5,a5,a4
80001124:	00090713          	mv	a4,s2
80001128:	fadff06f          	j	800010d4 <__addsf3+0x1ec>
8000112c:	0ff00593          	li	a1,255
80001130:	0ff00713          	li	a4,255
80001134:	f2b90ce3          	beq	s2,a1,8000106c <__addsf3+0x184>
80001138:	04000737          	lui	a4,0x4000
8000113c:	00e66633          	or	a2,a2,a4
80001140:	fbdff06f          	j	800010fc <__addsf3+0x214>
80001144:	06068a63          	beqz	a3,800011b8 <__addsf3+0x2d0>
80001148:	41270533          	sub	a0,a4,s2
8000114c:	02091863          	bnez	s2,8000117c <__addsf3+0x294>
80001150:	02078063          	beqz	a5,80001170 <__addsf3+0x288>
80001154:	fff50513          	addi	a0,a0,-1
80001158:	00051863          	bnez	a0,80001168 <__addsf3+0x280>
8000115c:	40f607b3          	sub	a5,a2,a5
80001160:	00058493          	mv	s1,a1
80001164:	f71ff06f          	j	800010d4 <__addsf3+0x1ec>
80001168:	0ff00693          	li	a3,255
8000116c:	02d71063          	bne	a4,a3,8000118c <__addsf3+0x2a4>
80001170:	00060793          	mv	a5,a2
80001174:	00058493          	mv	s1,a1
80001178:	ef5ff06f          	j	8000106c <__addsf3+0x184>
8000117c:	0ff00693          	li	a3,255
80001180:	fed708e3          	beq	a4,a3,80001170 <__addsf3+0x288>
80001184:	040006b7          	lui	a3,0x4000
80001188:	00d7e7b3          	or	a5,a5,a3
8000118c:	01b00813          	li	a6,27
80001190:	00100693          	li	a3,1
80001194:	00a84e63          	blt	a6,a0,800011b0 <__addsf3+0x2c8>
80001198:	02000693          	li	a3,32
8000119c:	40a686b3          	sub	a3,a3,a0
800011a0:	00a7d833          	srl	a6,a5,a0
800011a4:	00d797b3          	sll	a5,a5,a3
800011a8:	00f037b3          	snez	a5,a5
800011ac:	00f866b3          	or	a3,a6,a5
800011b0:	40d607b3          	sub	a5,a2,a3
800011b4:	fadff06f          	j	80001160 <__addsf3+0x278>
800011b8:	00190713          	addi	a4,s2,1
800011bc:	0fe77713          	andi	a4,a4,254
800011c0:	04071863          	bnez	a4,80001210 <__addsf3+0x328>
800011c4:	02091c63          	bnez	s2,800011fc <__addsf3+0x314>
800011c8:	00079a63          	bnez	a5,800011dc <__addsf3+0x2f4>
800011cc:	fa0612e3          	bnez	a2,80001170 <__addsf3+0x288>
800011d0:	00000793          	li	a5,0
800011d4:	00000493          	li	s1,0
800011d8:	0c40006f          	j	8000129c <__addsf3+0x3b4>
800011dc:	e80608e3          	beqz	a2,8000106c <__addsf3+0x184>
800011e0:	40c786b3          	sub	a3,a5,a2
800011e4:	00569513          	slli	a0,a3,0x5
800011e8:	40f607b3          	sub	a5,a2,a5
800011ec:	f80544e3          	bltz	a0,80001174 <__addsf3+0x28c>
800011f0:	fe0680e3          	beqz	a3,800011d0 <__addsf3+0x2e8>
800011f4:	00068793          	mv	a5,a3
800011f8:	e75ff06f          	j	8000106c <__addsf3+0x184>
800011fc:	e80798e3          	bnez	a5,8000108c <__addsf3+0x1a4>
80001200:	e80608e3          	beqz	a2,80001090 <__addsf3+0x1a8>
80001204:	00060793          	mv	a5,a2
80001208:	00058493          	mv	s1,a1
8000120c:	d7dff06f          	j	80000f88 <__addsf3+0xa0>
80001210:	40c78433          	sub	s0,a5,a2
80001214:	00541713          	slli	a4,s0,0x5
80001218:	04075463          	bgez	a4,80001260 <__addsf3+0x378>
8000121c:	40f60433          	sub	s0,a2,a5
80001220:	00058493          	mv	s1,a1
80001224:	00040513          	mv	a0,s0
80001228:	455000ef          	jal	ra,80001e7c <__clzsi2>
8000122c:	ffb50713          	addi	a4,a0,-5
80001230:	00e41433          	sll	s0,s0,a4
80001234:	03274e63          	blt	a4,s2,80001270 <__addsf3+0x388>
80001238:	41270733          	sub	a4,a4,s2
8000123c:	00170713          	addi	a4,a4,1 # 4000001 <_start-0x7bffffff>
80001240:	02000693          	li	a3,32
80001244:	00e457b3          	srl	a5,s0,a4
80001248:	40e68733          	sub	a4,a3,a4
8000124c:	00e41433          	sll	s0,s0,a4
80001250:	00803433          	snez	s0,s0
80001254:	0087e7b3          	or	a5,a5,s0
80001258:	00000713          	li	a4,0
8000125c:	e11ff06f          	j	8000106c <__addsf3+0x184>
80001260:	fc0412e3          	bnez	s0,80001224 <__addsf3+0x33c>
80001264:	00000793          	li	a5,0
80001268:	00000713          	li	a4,0
8000126c:	f69ff06f          	j	800011d4 <__addsf3+0x2ec>
80001270:	fc0007b7          	lui	a5,0xfc000
80001274:	fff78793          	addi	a5,a5,-1 # fbffffff <__global_pointer$+0x7bffc397>
80001278:	40e90733          	sub	a4,s2,a4
8000127c:	00f477b3          	and	a5,s0,a5
80001280:	dedff06f          	j	8000106c <__addsf3+0x184>
80001284:	00090713          	mv	a4,s2
80001288:	de5ff06f          	j	8000106c <__addsf3+0x184>
8000128c:	00060793          	mv	a5,a2
80001290:	cf9ff06f          	j	80000f88 <__addsf3+0xa0>
80001294:	0ff00713          	li	a4,255
80001298:	00000793          	li	a5,0
8000129c:	00579693          	slli	a3,a5,0x5
800012a0:	0006de63          	bgez	a3,800012bc <__addsf3+0x3d4>
800012a4:	00170713          	addi	a4,a4,1
800012a8:	0ff00693          	li	a3,255
800012ac:	06d70063          	beq	a4,a3,8000130c <__addsf3+0x424>
800012b0:	fc0006b7          	lui	a3,0xfc000
800012b4:	fff68693          	addi	a3,a3,-1 # fbffffff <__global_pointer$+0x7bffc397>
800012b8:	00d7f7b3          	and	a5,a5,a3
800012bc:	0ff00693          	li	a3,255
800012c0:	0037d793          	srli	a5,a5,0x3
800012c4:	00d71863          	bne	a4,a3,800012d4 <__addsf3+0x3ec>
800012c8:	00078663          	beqz	a5,800012d4 <__addsf3+0x3ec>
800012cc:	004007b7          	lui	a5,0x400
800012d0:	00000493          	li	s1,0
800012d4:	00c12083          	lw	ra,12(sp)
800012d8:	00812403          	lw	s0,8(sp)
800012dc:	7f800537          	lui	a0,0x7f800
800012e0:	01771713          	slli	a4,a4,0x17
800012e4:	00979793          	slli	a5,a5,0x9
800012e8:	00a77733          	and	a4,a4,a0
800012ec:	0097d793          	srli	a5,a5,0x9
800012f0:	01f49513          	slli	a0,s1,0x1f
800012f4:	00f767b3          	or	a5,a4,a5
800012f8:	00412483          	lw	s1,4(sp)
800012fc:	00012903          	lw	s2,0(sp)
80001300:	00a7e533          	or	a0,a5,a0
80001304:	01010113          	addi	sp,sp,16
80001308:	00008067          	ret
8000130c:	00000793          	li	a5,0
80001310:	fadff06f          	j	800012bc <__addsf3+0x3d4>

80001314 <__divsf3>:
80001314:	fe010113          	addi	sp,sp,-32
80001318:	00912a23          	sw	s1,20(sp)
8000131c:	01755493          	srli	s1,a0,0x17
80001320:	01212823          	sw	s2,16(sp)
80001324:	01312623          	sw	s3,12(sp)
80001328:	01412423          	sw	s4,8(sp)
8000132c:	00951993          	slli	s3,a0,0x9
80001330:	00112e23          	sw	ra,28(sp)
80001334:	00812c23          	sw	s0,24(sp)
80001338:	01512223          	sw	s5,4(sp)
8000133c:	0ff4f493          	andi	s1,s1,255
80001340:	00058a13          	mv	s4,a1
80001344:	0099d993          	srli	s3,s3,0x9
80001348:	01f55913          	srli	s2,a0,0x1f
8000134c:	08048463          	beqz	s1,800013d4 <__divsf3+0xc0>
80001350:	0ff00793          	li	a5,255
80001354:	0af48063          	beq	s1,a5,800013f4 <__divsf3+0xe0>
80001358:	00399993          	slli	s3,s3,0x3
8000135c:	040007b7          	lui	a5,0x4000
80001360:	00f9e9b3          	or	s3,s3,a5
80001364:	f8148493          	addi	s1,s1,-127
80001368:	00000a93          	li	s5,0
8000136c:	017a5793          	srli	a5,s4,0x17
80001370:	009a1413          	slli	s0,s4,0x9
80001374:	0ff7f793          	andi	a5,a5,255
80001378:	00945413          	srli	s0,s0,0x9
8000137c:	01fa5a13          	srli	s4,s4,0x1f
80001380:	08078a63          	beqz	a5,80001414 <__divsf3+0x100>
80001384:	0ff00713          	li	a4,255
80001388:	0ae78663          	beq	a5,a4,80001434 <__divsf3+0x120>
8000138c:	00341413          	slli	s0,s0,0x3
80001390:	04000737          	lui	a4,0x4000
80001394:	00e46433          	or	s0,s0,a4
80001398:	f8178793          	addi	a5,a5,-127 # 3ffff81 <_start-0x7c00007f>
8000139c:	00000693          	li	a3,0
800013a0:	002a9613          	slli	a2,s5,0x2
800013a4:	00d66633          	or	a2,a2,a3
800013a8:	40f484b3          	sub	s1,s1,a5
800013ac:	fff60613          	addi	a2,a2,-1
800013b0:	00e00793          	li	a5,14
800013b4:	01494533          	xor	a0,s2,s4
800013b8:	08c7ee63          	bltu	a5,a2,80001454 <__divsf3+0x140>
800013bc:	800027b7          	lui	a5,0x80002
800013c0:	2ec78793          	addi	a5,a5,748 # 800022ec <__global_pointer$+0xffffe684>
800013c4:	00261613          	slli	a2,a2,0x2
800013c8:	00f60633          	add	a2,a2,a5
800013cc:	00062783          	lw	a5,0(a2)
800013d0:	00078067          	jr	a5
800013d4:	02098a63          	beqz	s3,80001408 <__divsf3+0xf4>
800013d8:	00098513          	mv	a0,s3
800013dc:	2a1000ef          	jal	ra,80001e7c <__clzsi2>
800013e0:	ffb50793          	addi	a5,a0,-5 # 7f7ffffb <_start-0x800005>
800013e4:	f8a00493          	li	s1,-118
800013e8:	00f999b3          	sll	s3,s3,a5
800013ec:	40a484b3          	sub	s1,s1,a0
800013f0:	f79ff06f          	j	80001368 <__divsf3+0x54>
800013f4:	0ff00493          	li	s1,255
800013f8:	00200a93          	li	s5,2
800013fc:	f60988e3          	beqz	s3,8000136c <__divsf3+0x58>
80001400:	00300a93          	li	s5,3
80001404:	f69ff06f          	j	8000136c <__divsf3+0x58>
80001408:	00000493          	li	s1,0
8000140c:	00100a93          	li	s5,1
80001410:	f5dff06f          	j	8000136c <__divsf3+0x58>
80001414:	02040a63          	beqz	s0,80001448 <__divsf3+0x134>
80001418:	00040513          	mv	a0,s0
8000141c:	261000ef          	jal	ra,80001e7c <__clzsi2>
80001420:	ffb50793          	addi	a5,a0,-5
80001424:	00f41433          	sll	s0,s0,a5
80001428:	f8a00793          	li	a5,-118
8000142c:	40a787b3          	sub	a5,a5,a0
80001430:	f6dff06f          	j	8000139c <__divsf3+0x88>
80001434:	0ff00793          	li	a5,255
80001438:	00200693          	li	a3,2
8000143c:	f60402e3          	beqz	s0,800013a0 <__divsf3+0x8c>
80001440:	00300693          	li	a3,3
80001444:	f5dff06f          	j	800013a0 <__divsf3+0x8c>
80001448:	00000793          	li	a5,0
8000144c:	00100693          	li	a3,1
80001450:	f51ff06f          	j	800013a0 <__divsf3+0x8c>
80001454:	00541593          	slli	a1,s0,0x5
80001458:	1289f263          	bgeu	s3,s0,8000157c <__divsf3+0x268>
8000145c:	fff48493          	addi	s1,s1,-1
80001460:	00000693          	li	a3,0
80001464:	0105d413          	srli	s0,a1,0x10
80001468:	0289d8b3          	divu	a7,s3,s0
8000146c:	000107b7          	lui	a5,0x10
80001470:	fff78793          	addi	a5,a5,-1 # ffff <_start-0x7fff0001>
80001474:	00f5f7b3          	and	a5,a1,a5
80001478:	0106d693          	srli	a3,a3,0x10
8000147c:	0289f733          	remu	a4,s3,s0
80001480:	00088613          	mv	a2,a7
80001484:	03178833          	mul	a6,a5,a7
80001488:	01071713          	slli	a4,a4,0x10
8000148c:	00e6e733          	or	a4,a3,a4
80001490:	01077e63          	bgeu	a4,a6,800014ac <__divsf3+0x198>
80001494:	00b70733          	add	a4,a4,a1
80001498:	fff88613          	addi	a2,a7,-1
8000149c:	00b76863          	bltu	a4,a1,800014ac <__divsf3+0x198>
800014a0:	01077663          	bgeu	a4,a6,800014ac <__divsf3+0x198>
800014a4:	ffe88613          	addi	a2,a7,-2
800014a8:	00b70733          	add	a4,a4,a1
800014ac:	41070733          	sub	a4,a4,a6
800014b0:	02875833          	divu	a6,a4,s0
800014b4:	02877733          	remu	a4,a4,s0
800014b8:	030786b3          	mul	a3,a5,a6
800014bc:	01071793          	slli	a5,a4,0x10
800014c0:	00080713          	mv	a4,a6
800014c4:	00d7fe63          	bgeu	a5,a3,800014e0 <__divsf3+0x1cc>
800014c8:	00b787b3          	add	a5,a5,a1
800014cc:	fff80713          	addi	a4,a6,-1
800014d0:	00b7e863          	bltu	a5,a1,800014e0 <__divsf3+0x1cc>
800014d4:	00d7f663          	bgeu	a5,a3,800014e0 <__divsf3+0x1cc>
800014d8:	ffe80713          	addi	a4,a6,-2
800014dc:	00b787b3          	add	a5,a5,a1
800014e0:	01061413          	slli	s0,a2,0x10
800014e4:	40d787b3          	sub	a5,a5,a3
800014e8:	00e46433          	or	s0,s0,a4
800014ec:	00f037b3          	snez	a5,a5
800014f0:	00f46433          	or	s0,s0,a5
800014f4:	07f48713          	addi	a4,s1,127
800014f8:	0ce05c63          	blez	a4,800015d0 <__divsf3+0x2bc>
800014fc:	00747793          	andi	a5,s0,7
80001500:	00078a63          	beqz	a5,80001514 <__divsf3+0x200>
80001504:	00f47793          	andi	a5,s0,15
80001508:	00400693          	li	a3,4
8000150c:	00d78463          	beq	a5,a3,80001514 <__divsf3+0x200>
80001510:	00440413          	addi	s0,s0,4
80001514:	00441793          	slli	a5,s0,0x4
80001518:	0007da63          	bgez	a5,8000152c <__divsf3+0x218>
8000151c:	f80007b7          	lui	a5,0xf8000
80001520:	fff78793          	addi	a5,a5,-1 # f7ffffff <__global_pointer$+0x77ffc397>
80001524:	00f47433          	and	s0,s0,a5
80001528:	08048713          	addi	a4,s1,128
8000152c:	0fe00793          	li	a5,254
80001530:	00345413          	srli	s0,s0,0x3
80001534:	06e7cc63          	blt	a5,a4,800015ac <__divsf3+0x298>
80001538:	01771713          	slli	a4,a4,0x17
8000153c:	7f8007b7          	lui	a5,0x7f800
80001540:	00941413          	slli	s0,s0,0x9
80001544:	00f77733          	and	a4,a4,a5
80001548:	00945413          	srli	s0,s0,0x9
8000154c:	00876433          	or	s0,a4,s0
80001550:	01f51513          	slli	a0,a0,0x1f
80001554:	01c12083          	lw	ra,28(sp)
80001558:	00a46533          	or	a0,s0,a0
8000155c:	01812403          	lw	s0,24(sp)
80001560:	01412483          	lw	s1,20(sp)
80001564:	01012903          	lw	s2,16(sp)
80001568:	00c12983          	lw	s3,12(sp)
8000156c:	00812a03          	lw	s4,8(sp)
80001570:	00412a83          	lw	s5,4(sp)
80001574:	02010113          	addi	sp,sp,32
80001578:	00008067          	ret
8000157c:	01f99693          	slli	a3,s3,0x1f
80001580:	0019d993          	srli	s3,s3,0x1
80001584:	ee1ff06f          	j	80001464 <__divsf3+0x150>
80001588:	00090513          	mv	a0,s2
8000158c:	00098413          	mv	s0,s3
80001590:	000a8693          	mv	a3,s5
80001594:	00300793          	li	a5,3
80001598:	08f68663          	beq	a3,a5,80001624 <__divsf3+0x310>
8000159c:	00100793          	li	a5,1
800015a0:	08f68a63          	beq	a3,a5,80001634 <__divsf3+0x320>
800015a4:	00200793          	li	a5,2
800015a8:	f4f696e3          	bne	a3,a5,800014f4 <__divsf3+0x1e0>
800015ac:	00000413          	li	s0,0
800015b0:	0ff00713          	li	a4,255
800015b4:	f85ff06f          	j	80001538 <__divsf3+0x224>
800015b8:	000a0513          	mv	a0,s4
800015bc:	fd9ff06f          	j	80001594 <__divsf3+0x280>
800015c0:	00400437          	lui	s0,0x400
800015c4:	00000513          	li	a0,0
800015c8:	00300693          	li	a3,3
800015cc:	fc9ff06f          	j	80001594 <__divsf3+0x280>
800015d0:	00100793          	li	a5,1
800015d4:	40e787b3          	sub	a5,a5,a4
800015d8:	01b00713          	li	a4,27
800015dc:	04f74c63          	blt	a4,a5,80001634 <__divsf3+0x320>
800015e0:	09e48493          	addi	s1,s1,158
800015e4:	00f457b3          	srl	a5,s0,a5
800015e8:	00941433          	sll	s0,s0,s1
800015ec:	00803433          	snez	s0,s0
800015f0:	0087e433          	or	s0,a5,s0
800015f4:	00747793          	andi	a5,s0,7
800015f8:	00078a63          	beqz	a5,8000160c <__divsf3+0x2f8>
800015fc:	00f47793          	andi	a5,s0,15
80001600:	00400713          	li	a4,4
80001604:	00e78463          	beq	a5,a4,8000160c <__divsf3+0x2f8>
80001608:	00440413          	addi	s0,s0,4 # 400004 <_start-0x7fbffffc>
8000160c:	00541793          	slli	a5,s0,0x5
80001610:	00345413          	srli	s0,s0,0x3
80001614:	0207d263          	bgez	a5,80001638 <__divsf3+0x324>
80001618:	00000413          	li	s0,0
8000161c:	00100713          	li	a4,1
80001620:	f19ff06f          	j	80001538 <__divsf3+0x224>
80001624:	00400437          	lui	s0,0x400
80001628:	0ff00713          	li	a4,255
8000162c:	00000513          	li	a0,0
80001630:	f09ff06f          	j	80001538 <__divsf3+0x224>
80001634:	00000413          	li	s0,0
80001638:	00000713          	li	a4,0
8000163c:	efdff06f          	j	80001538 <__divsf3+0x224>

80001640 <__lesf2>:
80001640:	01755693          	srli	a3,a0,0x17
80001644:	008007b7          	lui	a5,0x800
80001648:	fff78793          	addi	a5,a5,-1 # 7fffff <_start-0x7f800001>
8000164c:	0175d713          	srli	a4,a1,0x17
80001650:	0ff6f693          	andi	a3,a3,255
80001654:	0ff00813          	li	a6,255
80001658:	00a7f633          	and	a2,a5,a0
8000165c:	0ff77713          	andi	a4,a4,255
80001660:	00b7f7b3          	and	a5,a5,a1
80001664:	01f55513          	srli	a0,a0,0x1f
80001668:	01f5d593          	srli	a1,a1,0x1f
8000166c:	01069863          	bne	a3,a6,8000167c <__lesf2+0x3c>
80001670:	06060a63          	beqz	a2,800016e4 <__lesf2+0xa4>
80001674:	00200513          	li	a0,2
80001678:	00008067          	ret
8000167c:	01071463          	bne	a4,a6,80001684 <__lesf2+0x44>
80001680:	fe079ae3          	bnez	a5,80001674 <__lesf2+0x34>
80001684:	06069263          	bnez	a3,800016e8 <__lesf2+0xa8>
80001688:	00071463          	bnez	a4,80001690 <__lesf2+0x50>
8000168c:	04078863          	beqz	a5,800016dc <__lesf2+0x9c>
80001690:	00060c63          	beqz	a2,800016a8 <__lesf2+0x68>
80001694:	00b51463          	bne	a0,a1,8000169c <__lesf2+0x5c>
80001698:	02d75063          	bge	a4,a3,800016b8 <__lesf2+0x78>
8000169c:	02050c63          	beqz	a0,800016d4 <__lesf2+0x94>
800016a0:	fff00513          	li	a0,-1
800016a4:	00008067          	ret
800016a8:	fff00513          	li	a0,-1
800016ac:	00058a63          	beqz	a1,800016c0 <__lesf2+0x80>
800016b0:	00058513          	mv	a0,a1
800016b4:	00008067          	ret
800016b8:	00e6d663          	bge	a3,a4,800016c4 <__lesf2+0x84>
800016bc:	fe0502e3          	beqz	a0,800016a0 <__lesf2+0x60>
800016c0:	00008067          	ret
800016c4:	fcc7ece3          	bltu	a5,a2,8000169c <__lesf2+0x5c>
800016c8:	fef66ae3          	bltu	a2,a5,800016bc <__lesf2+0x7c>
800016cc:	00000513          	li	a0,0
800016d0:	00008067          	ret
800016d4:	00100513          	li	a0,1
800016d8:	00008067          	ret
800016dc:	fe0608e3          	beqz	a2,800016cc <__lesf2+0x8c>
800016e0:	fbdff06f          	j	8000169c <__lesf2+0x5c>
800016e4:	f8d70ee3          	beq	a4,a3,80001680 <__lesf2+0x40>
800016e8:	fa0716e3          	bnez	a4,80001694 <__lesf2+0x54>
800016ec:	fa0788e3          	beqz	a5,8000169c <__lesf2+0x5c>
800016f0:	fa5ff06f          	j	80001694 <__lesf2+0x54>

800016f4 <__mulsf3>:
800016f4:	fe010113          	addi	sp,sp,-32
800016f8:	01212823          	sw	s2,16(sp)
800016fc:	01755913          	srli	s2,a0,0x17
80001700:	00912a23          	sw	s1,20(sp)
80001704:	01312623          	sw	s3,12(sp)
80001708:	01412423          	sw	s4,8(sp)
8000170c:	00951493          	slli	s1,a0,0x9
80001710:	00112e23          	sw	ra,28(sp)
80001714:	00812c23          	sw	s0,24(sp)
80001718:	01512223          	sw	s5,4(sp)
8000171c:	0ff97913          	andi	s2,s2,255
80001720:	00058a13          	mv	s4,a1
80001724:	0094d493          	srli	s1,s1,0x9
80001728:	01f55993          	srli	s3,a0,0x1f
8000172c:	08090663          	beqz	s2,800017b8 <__mulsf3+0xc4>
80001730:	0ff00793          	li	a5,255
80001734:	0af90263          	beq	s2,a5,800017d8 <__mulsf3+0xe4>
80001738:	00349493          	slli	s1,s1,0x3
8000173c:	040007b7          	lui	a5,0x4000
80001740:	00f4e4b3          	or	s1,s1,a5
80001744:	f8190913          	addi	s2,s2,-127
80001748:	00000a93          	li	s5,0
8000174c:	017a5793          	srli	a5,s4,0x17
80001750:	009a1413          	slli	s0,s4,0x9
80001754:	0ff7f793          	andi	a5,a5,255
80001758:	00945413          	srli	s0,s0,0x9
8000175c:	01fa5a13          	srli	s4,s4,0x1f
80001760:	08078c63          	beqz	a5,800017f8 <__mulsf3+0x104>
80001764:	0ff00713          	li	a4,255
80001768:	0ae78863          	beq	a5,a4,80001818 <__mulsf3+0x124>
8000176c:	00341413          	slli	s0,s0,0x3
80001770:	04000737          	lui	a4,0x4000
80001774:	00e46433          	or	s0,s0,a4
80001778:	f8178793          	addi	a5,a5,-127 # 3ffff81 <_start-0x7c00007f>
8000177c:	00000713          	li	a4,0
80001780:	002a9693          	slli	a3,s5,0x2
80001784:	00e6e6b3          	or	a3,a3,a4
80001788:	00f907b3          	add	a5,s2,a5
8000178c:	fff68693          	addi	a3,a3,-1
80001790:	00e00593          	li	a1,14
80001794:	0149c533          	xor	a0,s3,s4
80001798:	00178613          	addi	a2,a5,1
8000179c:	08d5ee63          	bltu	a1,a3,80001838 <__mulsf3+0x144>
800017a0:	800027b7          	lui	a5,0x80002
800017a4:	32878793          	addi	a5,a5,808 # 80002328 <__global_pointer$+0xffffe6c0>
800017a8:	00269693          	slli	a3,a3,0x2
800017ac:	00f686b3          	add	a3,a3,a5
800017b0:	0006a783          	lw	a5,0(a3)
800017b4:	00078067          	jr	a5
800017b8:	02048a63          	beqz	s1,800017ec <__mulsf3+0xf8>
800017bc:	00048513          	mv	a0,s1
800017c0:	6bc000ef          	jal	ra,80001e7c <__clzsi2>
800017c4:	ffb50793          	addi	a5,a0,-5
800017c8:	f8a00913          	li	s2,-118
800017cc:	00f494b3          	sll	s1,s1,a5
800017d0:	40a90933          	sub	s2,s2,a0
800017d4:	f75ff06f          	j	80001748 <__mulsf3+0x54>
800017d8:	0ff00913          	li	s2,255
800017dc:	00200a93          	li	s5,2
800017e0:	f60486e3          	beqz	s1,8000174c <__mulsf3+0x58>
800017e4:	00300a93          	li	s5,3
800017e8:	f65ff06f          	j	8000174c <__mulsf3+0x58>
800017ec:	00000913          	li	s2,0
800017f0:	00100a93          	li	s5,1
800017f4:	f59ff06f          	j	8000174c <__mulsf3+0x58>
800017f8:	02040a63          	beqz	s0,8000182c <__mulsf3+0x138>
800017fc:	00040513          	mv	a0,s0
80001800:	67c000ef          	jal	ra,80001e7c <__clzsi2>
80001804:	ffb50793          	addi	a5,a0,-5
80001808:	00f41433          	sll	s0,s0,a5
8000180c:	f8a00793          	li	a5,-118
80001810:	40a787b3          	sub	a5,a5,a0
80001814:	f69ff06f          	j	8000177c <__mulsf3+0x88>
80001818:	0ff00793          	li	a5,255
8000181c:	00200713          	li	a4,2
80001820:	f60400e3          	beqz	s0,80001780 <__mulsf3+0x8c>
80001824:	00300713          	li	a4,3
80001828:	f59ff06f          	j	80001780 <__mulsf3+0x8c>
8000182c:	00000793          	li	a5,0
80001830:	00100713          	li	a4,1
80001834:	f4dff06f          	j	80001780 <__mulsf3+0x8c>
80001838:	00010737          	lui	a4,0x10
8000183c:	fff70893          	addi	a7,a4,-1 # ffff <_start-0x7fff0001>
80001840:	0104d693          	srli	a3,s1,0x10
80001844:	01045593          	srli	a1,s0,0x10
80001848:	0114f4b3          	and	s1,s1,a7
8000184c:	01147433          	and	s0,s0,a7
80001850:	02940833          	mul	a6,s0,s1
80001854:	02868433          	mul	s0,a3,s0
80001858:	02b686b3          	mul	a3,a3,a1
8000185c:	029585b3          	mul	a1,a1,s1
80001860:	01085493          	srli	s1,a6,0x10
80001864:	008585b3          	add	a1,a1,s0
80001868:	00b484b3          	add	s1,s1,a1
8000186c:	0084f463          	bgeu	s1,s0,80001874 <__mulsf3+0x180>
80001870:	00e686b3          	add	a3,a3,a4
80001874:	0114f733          	and	a4,s1,a7
80001878:	01071713          	slli	a4,a4,0x10
8000187c:	01187833          	and	a6,a6,a7
80001880:	01070733          	add	a4,a4,a6
80001884:	00671413          	slli	s0,a4,0x6
80001888:	0104d493          	srli	s1,s1,0x10
8000188c:	00803433          	snez	s0,s0
80001890:	01a75713          	srli	a4,a4,0x1a
80001894:	00d484b3          	add	s1,s1,a3
80001898:	00e46733          	or	a4,s0,a4
8000189c:	00649493          	slli	s1,s1,0x6
800018a0:	00e4e433          	or	s0,s1,a4
800018a4:	00449713          	slli	a4,s1,0x4
800018a8:	08075c63          	bgez	a4,80001940 <__mulsf3+0x24c>
800018ac:	00145793          	srli	a5,s0,0x1
800018b0:	00147413          	andi	s0,s0,1
800018b4:	0087e433          	or	s0,a5,s0
800018b8:	07f60713          	addi	a4,a2,127
800018bc:	08e05663          	blez	a4,80001948 <__mulsf3+0x254>
800018c0:	00747793          	andi	a5,s0,7
800018c4:	00078a63          	beqz	a5,800018d8 <__mulsf3+0x1e4>
800018c8:	00f47793          	andi	a5,s0,15
800018cc:	00400693          	li	a3,4
800018d0:	00d78463          	beq	a5,a3,800018d8 <__mulsf3+0x1e4>
800018d4:	00440413          	addi	s0,s0,4 # 400004 <_start-0x7fbffffc>
800018d8:	00441793          	slli	a5,s0,0x4
800018dc:	0007da63          	bgez	a5,800018f0 <__mulsf3+0x1fc>
800018e0:	f80007b7          	lui	a5,0xf8000
800018e4:	fff78793          	addi	a5,a5,-1 # f7ffffff <__global_pointer$+0x77ffc397>
800018e8:	00f47433          	and	s0,s0,a5
800018ec:	08060713          	addi	a4,a2,128
800018f0:	0fe00793          	li	a5,254
800018f4:	00345413          	srli	s0,s0,0x3
800018f8:	0ae7d863          	bge	a5,a4,800019a8 <__mulsf3+0x2b4>
800018fc:	00000413          	li	s0,0
80001900:	0ff00713          	li	a4,255
80001904:	0a40006f          	j	800019a8 <__mulsf3+0x2b4>
80001908:	00098513          	mv	a0,s3
8000190c:	00048413          	mv	s0,s1
80001910:	000a8713          	mv	a4,s5
80001914:	00200793          	li	a5,2
80001918:	fef702e3          	beq	a4,a5,800018fc <__mulsf3+0x208>
8000191c:	00300793          	li	a5,3
80001920:	06f70e63          	beq	a4,a5,8000199c <__mulsf3+0x2a8>
80001924:	00100793          	li	a5,1
80001928:	f8f718e3          	bne	a4,a5,800018b8 <__mulsf3+0x1c4>
8000192c:	00000413          	li	s0,0
80001930:	00000713          	li	a4,0
80001934:	0740006f          	j	800019a8 <__mulsf3+0x2b4>
80001938:	000a0513          	mv	a0,s4
8000193c:	fd9ff06f          	j	80001914 <__mulsf3+0x220>
80001940:	00078613          	mv	a2,a5
80001944:	f75ff06f          	j	800018b8 <__mulsf3+0x1c4>
80001948:	00100793          	li	a5,1
8000194c:	40e787b3          	sub	a5,a5,a4
80001950:	01b00713          	li	a4,27
80001954:	fcf74ce3          	blt	a4,a5,8000192c <__mulsf3+0x238>
80001958:	09e60613          	addi	a2,a2,158
8000195c:	00f457b3          	srl	a5,s0,a5
80001960:	00c41433          	sll	s0,s0,a2
80001964:	00803433          	snez	s0,s0
80001968:	0087e433          	or	s0,a5,s0
8000196c:	00747793          	andi	a5,s0,7
80001970:	00078a63          	beqz	a5,80001984 <__mulsf3+0x290>
80001974:	00f47793          	andi	a5,s0,15
80001978:	00400713          	li	a4,4
8000197c:	00e78463          	beq	a5,a4,80001984 <__mulsf3+0x290>
80001980:	00440413          	addi	s0,s0,4
80001984:	00541793          	slli	a5,s0,0x5
80001988:	00345413          	srli	s0,s0,0x3
8000198c:	fa07d2e3          	bgez	a5,80001930 <__mulsf3+0x23c>
80001990:	00000413          	li	s0,0
80001994:	00100713          	li	a4,1
80001998:	0100006f          	j	800019a8 <__mulsf3+0x2b4>
8000199c:	00400437          	lui	s0,0x400
800019a0:	0ff00713          	li	a4,255
800019a4:	00000513          	li	a0,0
800019a8:	01771713          	slli	a4,a4,0x17
800019ac:	7f8007b7          	lui	a5,0x7f800
800019b0:	00941413          	slli	s0,s0,0x9
800019b4:	00f77733          	and	a4,a4,a5
800019b8:	00945413          	srli	s0,s0,0x9
800019bc:	00876433          	or	s0,a4,s0
800019c0:	01f51513          	slli	a0,a0,0x1f
800019c4:	01c12083          	lw	ra,28(sp)
800019c8:	00a46533          	or	a0,s0,a0
800019cc:	01812403          	lw	s0,24(sp)
800019d0:	01412483          	lw	s1,20(sp)
800019d4:	01012903          	lw	s2,16(sp)
800019d8:	00c12983          	lw	s3,12(sp)
800019dc:	00812a03          	lw	s4,8(sp)
800019e0:	00412a83          	lw	s5,4(sp)
800019e4:	02010113          	addi	sp,sp,32
800019e8:	00008067          	ret

800019ec <__subsf3>:
800019ec:	008006b7          	lui	a3,0x800
800019f0:	ff010113          	addi	sp,sp,-16
800019f4:	fff68693          	addi	a3,a3,-1 # 7fffff <_start-0x7f800001>
800019f8:	01755613          	srli	a2,a0,0x17
800019fc:	0175d893          	srli	a7,a1,0x17
80001a00:	00a6f7b3          	and	a5,a3,a0
80001a04:	00912223          	sw	s1,4(sp)
80001a08:	00b6f6b3          	and	a3,a3,a1
80001a0c:	01212023          	sw	s2,0(sp)
80001a10:	0ff67613          	andi	a2,a2,255
80001a14:	01f55493          	srli	s1,a0,0x1f
80001a18:	0ff8f893          	andi	a7,a7,255
80001a1c:	00112623          	sw	ra,12(sp)
80001a20:	00812423          	sw	s0,8(sp)
80001a24:	0ff00513          	li	a0,255
80001a28:	00060913          	mv	s2,a2
80001a2c:	00379793          	slli	a5,a5,0x3
80001a30:	00088713          	mv	a4,a7
80001a34:	01f5d593          	srli	a1,a1,0x1f
80001a38:	00369693          	slli	a3,a3,0x3
80001a3c:	00a89463          	bne	a7,a0,80001a44 <__subsf3+0x58>
80001a40:	00069463          	bnez	a3,80001a48 <__subsf3+0x5c>
80001a44:	0015c593          	xori	a1,a1,1
80001a48:	41160833          	sub	a6,a2,a7
80001a4c:	16959e63          	bne	a1,s1,80001bc8 <__subsf3+0x1dc>
80001a50:	09005c63          	blez	a6,80001ae8 <__subsf3+0xfc>
80001a54:	04089c63          	bnez	a7,80001aac <__subsf3+0xc0>
80001a58:	34068463          	beqz	a3,80001da0 <__subsf3+0x3b4>
80001a5c:	fff80813          	addi	a6,a6,-1
80001a60:	02081e63          	bnez	a6,80001a9c <__subsf3+0xb0>
80001a64:	00d787b3          	add	a5,a5,a3
80001a68:	00060713          	mv	a4,a2
80001a6c:	00579693          	slli	a3,a5,0x5
80001a70:	1006dc63          	bgez	a3,80001b88 <__subsf3+0x19c>
80001a74:	00170713          	addi	a4,a4,1
80001a78:	0ff00693          	li	a3,255
80001a7c:	32d70c63          	beq	a4,a3,80001db4 <__subsf3+0x3c8>
80001a80:	7e0006b7          	lui	a3,0x7e000
80001a84:	0017f613          	andi	a2,a5,1
80001a88:	fff68693          	addi	a3,a3,-1 # 7dffffff <_start-0x2000001>
80001a8c:	0017d793          	srli	a5,a5,0x1
80001a90:	00d7f7b3          	and	a5,a5,a3
80001a94:	00c7e7b3          	or	a5,a5,a2
80001a98:	0f00006f          	j	80001b88 <__subsf3+0x19c>
80001a9c:	0ff00713          	li	a4,255
80001aa0:	00e61e63          	bne	a2,a4,80001abc <__subsf3+0xd0>
80001aa4:	0ff00713          	li	a4,255
80001aa8:	0e00006f          	j	80001b88 <__subsf3+0x19c>
80001aac:	0ff00713          	li	a4,255
80001ab0:	fee60ae3          	beq	a2,a4,80001aa4 <__subsf3+0xb8>
80001ab4:	04000737          	lui	a4,0x4000
80001ab8:	00e6e6b3          	or	a3,a3,a4
80001abc:	01b00593          	li	a1,27
80001ac0:	00100713          	li	a4,1
80001ac4:	0105ce63          	blt	a1,a6,80001ae0 <__subsf3+0xf4>
80001ac8:	02000713          	li	a4,32
80001acc:	0106d5b3          	srl	a1,a3,a6
80001ad0:	41070833          	sub	a6,a4,a6
80001ad4:	010696b3          	sll	a3,a3,a6
80001ad8:	00d036b3          	snez	a3,a3
80001adc:	00d5e733          	or	a4,a1,a3
80001ae0:	00e787b3          	add	a5,a5,a4
80001ae4:	f85ff06f          	j	80001a68 <__subsf3+0x7c>
80001ae8:	06080663          	beqz	a6,80001b54 <__subsf3+0x168>
80001aec:	40c885b3          	sub	a1,a7,a2
80001af0:	02061463          	bnez	a2,80001b18 <__subsf3+0x12c>
80001af4:	2a078a63          	beqz	a5,80001da8 <__subsf3+0x3bc>
80001af8:	fff58593          	addi	a1,a1,-1
80001afc:	00059663          	bnez	a1,80001b08 <__subsf3+0x11c>
80001b00:	00d787b3          	add	a5,a5,a3
80001b04:	f69ff06f          	j	80001a6c <__subsf3+0x80>
80001b08:	0ff00613          	li	a2,255
80001b0c:	00c89e63          	bne	a7,a2,80001b28 <__subsf3+0x13c>
80001b10:	00068793          	mv	a5,a3
80001b14:	f91ff06f          	j	80001aa4 <__subsf3+0xb8>
80001b18:	0ff00613          	li	a2,255
80001b1c:	fec88ae3          	beq	a7,a2,80001b10 <__subsf3+0x124>
80001b20:	04000637          	lui	a2,0x4000
80001b24:	00c7e7b3          	or	a5,a5,a2
80001b28:	01b00513          	li	a0,27
80001b2c:	00100613          	li	a2,1
80001b30:	00b54e63          	blt	a0,a1,80001b4c <__subsf3+0x160>
80001b34:	02000613          	li	a2,32
80001b38:	40b60633          	sub	a2,a2,a1
80001b3c:	00b7d533          	srl	a0,a5,a1
80001b40:	00c797b3          	sll	a5,a5,a2
80001b44:	00f037b3          	snez	a5,a5
80001b48:	00f56633          	or	a2,a0,a5
80001b4c:	00d607b3          	add	a5,a2,a3
80001b50:	f1dff06f          	j	80001a6c <__subsf3+0x80>
80001b54:	00160593          	addi	a1,a2,1 # 4000001 <_start-0x7bffffff>
80001b58:	0fe5f713          	andi	a4,a1,254
80001b5c:	04071a63          	bnez	a4,80001bb0 <__subsf3+0x1c4>
80001b60:	04061263          	bnez	a2,80001ba4 <__subsf3+0x1b8>
80001b64:	24078263          	beqz	a5,80001da8 <__subsf3+0x3bc>
80001b68:	02068063          	beqz	a3,80001b88 <__subsf3+0x19c>
80001b6c:	00d787b3          	add	a5,a5,a3
80001b70:	00579693          	slli	a3,a5,0x5
80001b74:	0006da63          	bgez	a3,80001b88 <__subsf3+0x19c>
80001b78:	fc000737          	lui	a4,0xfc000
80001b7c:	fff70713          	addi	a4,a4,-1 # fbffffff <__global_pointer$+0x7bffc397>
80001b80:	00e7f7b3          	and	a5,a5,a4
80001b84:	00100713          	li	a4,1
80001b88:	0077f693          	andi	a3,a5,7
80001b8c:	22068663          	beqz	a3,80001db8 <__subsf3+0x3cc>
80001b90:	00f7f693          	andi	a3,a5,15
80001b94:	00400613          	li	a2,4
80001b98:	22c68063          	beq	a3,a2,80001db8 <__subsf3+0x3cc>
80001b9c:	00478793          	addi	a5,a5,4 # 7f800004 <_start-0x7ffffc>
80001ba0:	2180006f          	j	80001db8 <__subsf3+0x3cc>
80001ba4:	f60786e3          	beqz	a5,80001b10 <__subsf3+0x124>
80001ba8:	ee068ee3          	beqz	a3,80001aa4 <__subsf3+0xb8>
80001bac:	1700006f          	j	80001d1c <__subsf3+0x330>
80001bb0:	0ff00713          	li	a4,255
80001bb4:	1ee58e63          	beq	a1,a4,80001db0 <__subsf3+0x3c4>
80001bb8:	00d787b3          	add	a5,a5,a3
80001bbc:	0017d793          	srli	a5,a5,0x1
80001bc0:	00058713          	mv	a4,a1
80001bc4:	fc5ff06f          	j	80001b88 <__subsf3+0x19c>
80001bc8:	09005663          	blez	a6,80001c54 <__subsf3+0x268>
80001bcc:	06089863          	bnez	a7,80001c3c <__subsf3+0x250>
80001bd0:	00060713          	mv	a4,a2
80001bd4:	fa068ae3          	beqz	a3,80001b88 <__subsf3+0x19c>
80001bd8:	fff80813          	addi	a6,a6,-1
80001bdc:	02081263          	bnez	a6,80001c00 <__subsf3+0x214>
80001be0:	40d787b3          	sub	a5,a5,a3
80001be4:	00579693          	slli	a3,a5,0x5
80001be8:	fa06d0e3          	bgez	a3,80001b88 <__subsf3+0x19c>
80001bec:	04000437          	lui	s0,0x4000
80001bf0:	fff40413          	addi	s0,s0,-1 # 3ffffff <_start-0x7c000001>
80001bf4:	0087f433          	and	s0,a5,s0
80001bf8:	00070913          	mv	s2,a4
80001bfc:	1440006f          	j	80001d40 <__subsf3+0x354>
80001c00:	0ff00593          	li	a1,255
80001c04:	0ff00713          	li	a4,255
80001c08:	f8b600e3          	beq	a2,a1,80001b88 <__subsf3+0x19c>
80001c0c:	01b00593          	li	a1,27
80001c10:	00100713          	li	a4,1
80001c14:	0105ce63          	blt	a1,a6,80001c30 <__subsf3+0x244>
80001c18:	02000713          	li	a4,32
80001c1c:	0106d5b3          	srl	a1,a3,a6
80001c20:	41070833          	sub	a6,a4,a6
80001c24:	010696b3          	sll	a3,a3,a6
80001c28:	00d036b3          	snez	a3,a3
80001c2c:	00d5e733          	or	a4,a1,a3
80001c30:	40e787b3          	sub	a5,a5,a4
80001c34:	00060713          	mv	a4,a2
80001c38:	fadff06f          	j	80001be4 <__subsf3+0x1f8>
80001c3c:	0ff00593          	li	a1,255
80001c40:	0ff00713          	li	a4,255
80001c44:	f4b602e3          	beq	a2,a1,80001b88 <__subsf3+0x19c>
80001c48:	04000737          	lui	a4,0x4000
80001c4c:	00e6e6b3          	or	a3,a3,a4
80001c50:	fbdff06f          	j	80001c0c <__subsf3+0x220>
80001c54:	06080a63          	beqz	a6,80001cc8 <__subsf3+0x2dc>
80001c58:	40c88533          	sub	a0,a7,a2
80001c5c:	02061863          	bnez	a2,80001c8c <__subsf3+0x2a0>
80001c60:	08078063          	beqz	a5,80001ce0 <__subsf3+0x2f4>
80001c64:	fff50513          	addi	a0,a0,-1
80001c68:	00051863          	bnez	a0,80001c78 <__subsf3+0x28c>
80001c6c:	40f687b3          	sub	a5,a3,a5
80001c70:	00058493          	mv	s1,a1
80001c74:	f71ff06f          	j	80001be4 <__subsf3+0x1f8>
80001c78:	0ff00613          	li	a2,255
80001c7c:	02c89063          	bne	a7,a2,80001c9c <__subsf3+0x2b0>
80001c80:	00068793          	mv	a5,a3
80001c84:	00058493          	mv	s1,a1
80001c88:	e1dff06f          	j	80001aa4 <__subsf3+0xb8>
80001c8c:	0ff00613          	li	a2,255
80001c90:	fec888e3          	beq	a7,a2,80001c80 <__subsf3+0x294>
80001c94:	04000637          	lui	a2,0x4000
80001c98:	00c7e7b3          	or	a5,a5,a2
80001c9c:	01b00813          	li	a6,27
80001ca0:	00100613          	li	a2,1
80001ca4:	00a84e63          	blt	a6,a0,80001cc0 <__subsf3+0x2d4>
80001ca8:	02000613          	li	a2,32
80001cac:	40a60633          	sub	a2,a2,a0
80001cb0:	00a7d833          	srl	a6,a5,a0
80001cb4:	00c797b3          	sll	a5,a5,a2
80001cb8:	00f037b3          	snez	a5,a5
80001cbc:	00f86633          	or	a2,a6,a5
80001cc0:	40c687b3          	sub	a5,a3,a2
80001cc4:	fadff06f          	j	80001c70 <__subsf3+0x284>
80001cc8:	00160713          	addi	a4,a2,1 # 4000001 <_start-0x7bffffff>
80001ccc:	0fe77713          	andi	a4,a4,254
80001cd0:	04071e63          	bnez	a4,80001d2c <__subsf3+0x340>
80001cd4:	04061063          	bnez	a2,80001d14 <__subsf3+0x328>
80001cd8:	00079863          	bnez	a5,80001ce8 <__subsf3+0x2fc>
80001cdc:	02068663          	beqz	a3,80001d08 <__subsf3+0x31c>
80001ce0:	00068793          	mv	a5,a3
80001ce4:	0180006f          	j	80001cfc <__subsf3+0x310>
80001ce8:	ea0680e3          	beqz	a3,80001b88 <__subsf3+0x19c>
80001cec:	40d78633          	sub	a2,a5,a3
80001cf0:	00561513          	slli	a0,a2,0x5
80001cf4:	00055863          	bgez	a0,80001d04 <__subsf3+0x318>
80001cf8:	40f687b3          	sub	a5,a3,a5
80001cfc:	00058493          	mv	s1,a1
80001d00:	e89ff06f          	j	80001b88 <__subsf3+0x19c>
80001d04:	12061263          	bnez	a2,80001e28 <__subsf3+0x43c>
80001d08:	00000793          	li	a5,0
80001d0c:	00000493          	li	s1,0
80001d10:	0a80006f          	j	80001db8 <__subsf3+0x3cc>
80001d14:	e8079ae3          	bnez	a5,80001ba8 <__subsf3+0x1bc>
80001d18:	f60694e3          	bnez	a3,80001c80 <__subsf3+0x294>
80001d1c:	00000493          	li	s1,0
80001d20:	020007b7          	lui	a5,0x2000
80001d24:	0ff00713          	li	a4,255
80001d28:	0900006f          	j	80001db8 <__subsf3+0x3cc>
80001d2c:	40d78433          	sub	s0,a5,a3
80001d30:	00541713          	slli	a4,s0,0x5
80001d34:	04075463          	bgez	a4,80001d7c <__subsf3+0x390>
80001d38:	40f68433          	sub	s0,a3,a5
80001d3c:	00058493          	mv	s1,a1
80001d40:	00040513          	mv	a0,s0
80001d44:	138000ef          	jal	ra,80001e7c <__clzsi2>
80001d48:	ffb50713          	addi	a4,a0,-5
80001d4c:	00e41433          	sll	s0,s0,a4
80001d50:	03274e63          	blt	a4,s2,80001d8c <__subsf3+0x3a0>
80001d54:	41270733          	sub	a4,a4,s2
80001d58:	00170713          	addi	a4,a4,1 # 4000001 <_start-0x7bffffff>
80001d5c:	02000693          	li	a3,32
80001d60:	00e457b3          	srl	a5,s0,a4
80001d64:	40e68733          	sub	a4,a3,a4
80001d68:	00e41433          	sll	s0,s0,a4
80001d6c:	00803433          	snez	s0,s0
80001d70:	0087e7b3          	or	a5,a5,s0
80001d74:	00000713          	li	a4,0
80001d78:	e11ff06f          	j	80001b88 <__subsf3+0x19c>
80001d7c:	fc0412e3          	bnez	s0,80001d40 <__subsf3+0x354>
80001d80:	00000793          	li	a5,0
80001d84:	00000713          	li	a4,0
80001d88:	f85ff06f          	j	80001d0c <__subsf3+0x320>
80001d8c:	fc0007b7          	lui	a5,0xfc000
80001d90:	fff78793          	addi	a5,a5,-1 # fbffffff <__global_pointer$+0x7bffc397>
80001d94:	40e90733          	sub	a4,s2,a4
80001d98:	00f477b3          	and	a5,s0,a5
80001d9c:	dedff06f          	j	80001b88 <__subsf3+0x19c>
80001da0:	00060713          	mv	a4,a2
80001da4:	de5ff06f          	j	80001b88 <__subsf3+0x19c>
80001da8:	00068793          	mv	a5,a3
80001dac:	dddff06f          	j	80001b88 <__subsf3+0x19c>
80001db0:	0ff00713          	li	a4,255
80001db4:	00000793          	li	a5,0
80001db8:	00579693          	slli	a3,a5,0x5
80001dbc:	0006de63          	bgez	a3,80001dd8 <__subsf3+0x3ec>
80001dc0:	00170713          	addi	a4,a4,1
80001dc4:	0ff00693          	li	a3,255
80001dc8:	06d70463          	beq	a4,a3,80001e30 <__subsf3+0x444>
80001dcc:	fc0006b7          	lui	a3,0xfc000
80001dd0:	fff68693          	addi	a3,a3,-1 # fbffffff <__global_pointer$+0x7bffc397>
80001dd4:	00d7f7b3          	and	a5,a5,a3
80001dd8:	0ff00693          	li	a3,255
80001ddc:	0037d793          	srli	a5,a5,0x3
80001de0:	00d71863          	bne	a4,a3,80001df0 <__subsf3+0x404>
80001de4:	00078663          	beqz	a5,80001df0 <__subsf3+0x404>
80001de8:	004007b7          	lui	a5,0x400
80001dec:	00000493          	li	s1,0
80001df0:	00c12083          	lw	ra,12(sp)
80001df4:	00812403          	lw	s0,8(sp)
80001df8:	7f800537          	lui	a0,0x7f800
80001dfc:	01771713          	slli	a4,a4,0x17
80001e00:	00979793          	slli	a5,a5,0x9
80001e04:	00a77733          	and	a4,a4,a0
80001e08:	0097d793          	srli	a5,a5,0x9
80001e0c:	01f49513          	slli	a0,s1,0x1f
80001e10:	00f767b3          	or	a5,a4,a5
80001e14:	00412483          	lw	s1,4(sp)
80001e18:	00012903          	lw	s2,0(sp)
80001e1c:	00a7e533          	or	a0,a5,a0
80001e20:	01010113          	addi	sp,sp,16
80001e24:	00008067          	ret
80001e28:	00060793          	mv	a5,a2
80001e2c:	d5dff06f          	j	80001b88 <__subsf3+0x19c>
80001e30:	00000793          	li	a5,0
80001e34:	fa5ff06f          	j	80001dd8 <__subsf3+0x3ec>

80001e38 <__unordsf2>:
80001e38:	008007b7          	lui	a5,0x800
80001e3c:	fff78793          	addi	a5,a5,-1 # 7fffff <_start-0x7f800001>
80001e40:	00a7f733          	and	a4,a5,a0
80001e44:	01755513          	srli	a0,a0,0x17
80001e48:	00b7f7b3          	and	a5,a5,a1
80001e4c:	0ff57513          	andi	a0,a0,255
80001e50:	0175d593          	srli	a1,a1,0x17
80001e54:	0ff00693          	li	a3,255
80001e58:	0ff5f593          	andi	a1,a1,255
80001e5c:	00d51663          	bne	a0,a3,80001e68 <__unordsf2+0x30>
80001e60:	00100513          	li	a0,1
80001e64:	00071a63          	bnez	a4,80001e78 <__unordsf2+0x40>
80001e68:	0ff00713          	li	a4,255
80001e6c:	00000513          	li	a0,0
80001e70:	00e59463          	bne	a1,a4,80001e78 <__unordsf2+0x40>
80001e74:	00f03533          	snez	a0,a5
80001e78:	00008067          	ret

80001e7c <__clzsi2>:
80001e7c:	000107b7          	lui	a5,0x10
80001e80:	02f57a63          	bgeu	a0,a5,80001eb4 <__clzsi2+0x38>
80001e84:	0ff00793          	li	a5,255
80001e88:	00a7b7b3          	sltu	a5,a5,a0
80001e8c:	00379793          	slli	a5,a5,0x3
80001e90:	80002737          	lui	a4,0x80002
80001e94:	02000693          	li	a3,32
80001e98:	40f686b3          	sub	a3,a3,a5
80001e9c:	00f55533          	srl	a0,a0,a5
80001ea0:	36470793          	addi	a5,a4,868 # 80002364 <__global_pointer$+0xffffe6fc>
80001ea4:	00a78533          	add	a0,a5,a0
80001ea8:	00054503          	lbu	a0,0(a0) # 7f800000 <_start-0x800000>
80001eac:	40a68533          	sub	a0,a3,a0
80001eb0:	00008067          	ret
80001eb4:	01000737          	lui	a4,0x1000
80001eb8:	01000793          	li	a5,16
80001ebc:	fce56ae3          	bltu	a0,a4,80001e90 <__clzsi2+0x14>
80001ec0:	01800793          	li	a5,24
80001ec4:	fcdff06f          	j	80001e90 <__clzsi2+0x14>

80001ec8 <atexit>:
80001ec8:	00050593          	mv	a1,a0
80001ecc:	00000693          	li	a3,0
80001ed0:	00000613          	li	a2,0
80001ed4:	00000513          	li	a0,0
80001ed8:	2100006f          	j	800020e8 <__register_exitproc>

80001edc <__errno>:
80001edc:	c341a503          	lw	a0,-972(gp) # 8000389c <_impure_ptr>
80001ee0:	00008067          	ret

80001ee4 <exit>:
80001ee4:	ff010113          	addi	sp,sp,-16
80001ee8:	00000593          	li	a1,0
80001eec:	00812423          	sw	s0,8(sp)
80001ef0:	00112623          	sw	ra,12(sp)
80001ef4:	00050413          	mv	s0,a0
80001ef8:	288000ef          	jal	ra,80002180 <__call_exitprocs>
80001efc:	c301a503          	lw	a0,-976(gp) # 80003898 <_global_impure_ptr>
80001f00:	03c52783          	lw	a5,60(a0)
80001f04:	00078463          	beqz	a5,80001f0c <exit+0x28>
80001f08:	000780e7          	jalr	a5 # 10000 <_start-0x7fff0000>
80001f0c:	00040513          	mv	a0,s0
80001f10:	c8dfe0ef          	jal	ra,80000b9c <_exit>

80001f14 <__libc_fini_array>:
80001f14:	ff010113          	addi	sp,sp,-16
80001f18:	00812423          	sw	s0,8(sp)
80001f1c:	800037b7          	lui	a5,0x80003
80001f20:	80003437          	lui	s0,0x80003
80001f24:	46840413          	addi	s0,s0,1128 # 80003468 <__global_pointer$+0xfffff800>
80001f28:	46878793          	addi	a5,a5,1128 # 80003468 <__global_pointer$+0xfffff800>
80001f2c:	408787b3          	sub	a5,a5,s0
80001f30:	00912223          	sw	s1,4(sp)
80001f34:	00112623          	sw	ra,12(sp)
80001f38:	4027d493          	srai	s1,a5,0x2
80001f3c:	02048063          	beqz	s1,80001f5c <__libc_fini_array+0x48>
80001f40:	ffc78793          	addi	a5,a5,-4
80001f44:	00878433          	add	s0,a5,s0
80001f48:	00042783          	lw	a5,0(s0)
80001f4c:	fff48493          	addi	s1,s1,-1
80001f50:	ffc40413          	addi	s0,s0,-4
80001f54:	000780e7          	jalr	a5
80001f58:	fe0498e3          	bnez	s1,80001f48 <__libc_fini_array+0x34>
80001f5c:	00c12083          	lw	ra,12(sp)
80001f60:	00812403          	lw	s0,8(sp)
80001f64:	00412483          	lw	s1,4(sp)
80001f68:	01010113          	addi	sp,sp,16
80001f6c:	00008067          	ret

80001f70 <__libc_init_array>:
80001f70:	ff010113          	addi	sp,sp,-16
80001f74:	00812423          	sw	s0,8(sp)
80001f78:	01212023          	sw	s2,0(sp)
80001f7c:	80003437          	lui	s0,0x80003
80001f80:	80003937          	lui	s2,0x80003
80001f84:	46440793          	addi	a5,s0,1124 # 80003464 <__global_pointer$+0xfffff7fc>
80001f88:	46490913          	addi	s2,s2,1124 # 80003464 <__global_pointer$+0xfffff7fc>
80001f8c:	40f90933          	sub	s2,s2,a5
80001f90:	00112623          	sw	ra,12(sp)
80001f94:	00912223          	sw	s1,4(sp)
80001f98:	40295913          	srai	s2,s2,0x2
80001f9c:	02090063          	beqz	s2,80001fbc <__libc_init_array+0x4c>
80001fa0:	46440413          	addi	s0,s0,1124
80001fa4:	00000493          	li	s1,0
80001fa8:	00042783          	lw	a5,0(s0)
80001fac:	00148493          	addi	s1,s1,1
80001fb0:	00440413          	addi	s0,s0,4
80001fb4:	000780e7          	jalr	a5
80001fb8:	fe9918e3          	bne	s2,s1,80001fa8 <__libc_init_array+0x38>
80001fbc:	80003437          	lui	s0,0x80003
80001fc0:	80003937          	lui	s2,0x80003
80001fc4:	46440793          	addi	a5,s0,1124 # 80003464 <__global_pointer$+0xfffff7fc>
80001fc8:	46890913          	addi	s2,s2,1128 # 80003468 <__global_pointer$+0xfffff800>
80001fcc:	40f90933          	sub	s2,s2,a5
80001fd0:	40295913          	srai	s2,s2,0x2
80001fd4:	02090063          	beqz	s2,80001ff4 <__libc_init_array+0x84>
80001fd8:	46440413          	addi	s0,s0,1124
80001fdc:	00000493          	li	s1,0
80001fe0:	00042783          	lw	a5,0(s0)
80001fe4:	00148493          	addi	s1,s1,1
80001fe8:	00440413          	addi	s0,s0,4
80001fec:	000780e7          	jalr	a5
80001ff0:	fe9918e3          	bne	s2,s1,80001fe0 <__libc_init_array+0x70>
80001ff4:	00c12083          	lw	ra,12(sp)
80001ff8:	00812403          	lw	s0,8(sp)
80001ffc:	00412483          	lw	s1,4(sp)
80002000:	00012903          	lw	s2,0(sp)
80002004:	01010113          	addi	sp,sp,16
80002008:	00008067          	ret

8000200c <memset>:
8000200c:	00f00313          	li	t1,15
80002010:	00050713          	mv	a4,a0
80002014:	02c37e63          	bgeu	t1,a2,80002050 <memset+0x44>
80002018:	00f77793          	andi	a5,a4,15
8000201c:	0a079063          	bnez	a5,800020bc <memset+0xb0>
80002020:	08059263          	bnez	a1,800020a4 <memset+0x98>
80002024:	ff067693          	andi	a3,a2,-16
80002028:	00f67613          	andi	a2,a2,15
8000202c:	00e686b3          	add	a3,a3,a4
80002030:	00b72023          	sw	a1,0(a4) # 1000000 <_start-0x7f000000>
80002034:	00b72223          	sw	a1,4(a4)
80002038:	00b72423          	sw	a1,8(a4)
8000203c:	00b72623          	sw	a1,12(a4)
80002040:	01070713          	addi	a4,a4,16
80002044:	fed766e3          	bltu	a4,a3,80002030 <memset+0x24>
80002048:	00061463          	bnez	a2,80002050 <memset+0x44>
8000204c:	00008067          	ret
80002050:	40c306b3          	sub	a3,t1,a2
80002054:	00269693          	slli	a3,a3,0x2
80002058:	00000297          	auipc	t0,0x0
8000205c:	005686b3          	add	a3,a3,t0
80002060:	00c68067          	jr	12(a3)
80002064:	00b70723          	sb	a1,14(a4)
80002068:	00b706a3          	sb	a1,13(a4)
8000206c:	00b70623          	sb	a1,12(a4)
80002070:	00b705a3          	sb	a1,11(a4)
80002074:	00b70523          	sb	a1,10(a4)
80002078:	00b704a3          	sb	a1,9(a4)
8000207c:	00b70423          	sb	a1,8(a4)
80002080:	00b703a3          	sb	a1,7(a4)
80002084:	00b70323          	sb	a1,6(a4)
80002088:	00b702a3          	sb	a1,5(a4)
8000208c:	00b70223          	sb	a1,4(a4)
80002090:	00b701a3          	sb	a1,3(a4)
80002094:	00b70123          	sb	a1,2(a4)
80002098:	00b700a3          	sb	a1,1(a4)
8000209c:	00b70023          	sb	a1,0(a4)
800020a0:	00008067          	ret
800020a4:	0ff5f593          	andi	a1,a1,255
800020a8:	00859693          	slli	a3,a1,0x8
800020ac:	00d5e5b3          	or	a1,a1,a3
800020b0:	01059693          	slli	a3,a1,0x10
800020b4:	00d5e5b3          	or	a1,a1,a3
800020b8:	f6dff06f          	j	80002024 <memset+0x18>
800020bc:	00279693          	slli	a3,a5,0x2
800020c0:	00000297          	auipc	t0,0x0
800020c4:	005686b3          	add	a3,a3,t0
800020c8:	00008293          	mv	t0,ra
800020cc:	fa0680e7          	jalr	-96(a3)
800020d0:	00028093          	mv	ra,t0
800020d4:	ff078793          	addi	a5,a5,-16
800020d8:	40f70733          	sub	a4,a4,a5
800020dc:	00f60633          	add	a2,a2,a5
800020e0:	f6c378e3          	bgeu	t1,a2,80002050 <memset+0x44>
800020e4:	f3dff06f          	j	80002020 <memset+0x14>

800020e8 <__register_exitproc>:
800020e8:	c301a703          	lw	a4,-976(gp) # 80003898 <_global_impure_ptr>
800020ec:	14872783          	lw	a5,328(a4)
800020f0:	04078c63          	beqz	a5,80002148 <__register_exitproc+0x60>
800020f4:	0047a703          	lw	a4,4(a5)
800020f8:	01f00813          	li	a6,31
800020fc:	06e84e63          	blt	a6,a4,80002178 <__register_exitproc+0x90>
80002100:	00271813          	slli	a6,a4,0x2
80002104:	02050663          	beqz	a0,80002130 <__register_exitproc+0x48>
80002108:	01078333          	add	t1,a5,a6
8000210c:	08c32423          	sw	a2,136(t1)
80002110:	1887a883          	lw	a7,392(a5)
80002114:	00100613          	li	a2,1
80002118:	00e61633          	sll	a2,a2,a4
8000211c:	00c8e8b3          	or	a7,a7,a2
80002120:	1917a423          	sw	a7,392(a5)
80002124:	10d32423          	sw	a3,264(t1)
80002128:	00200693          	li	a3,2
8000212c:	02d50463          	beq	a0,a3,80002154 <__register_exitproc+0x6c>
80002130:	00170713          	addi	a4,a4,1
80002134:	00e7a223          	sw	a4,4(a5)
80002138:	010787b3          	add	a5,a5,a6
8000213c:	00b7a423          	sw	a1,8(a5)
80002140:	00000513          	li	a0,0
80002144:	00008067          	ret
80002148:	14c70793          	addi	a5,a4,332
8000214c:	14f72423          	sw	a5,328(a4)
80002150:	fa5ff06f          	j	800020f4 <__register_exitproc+0xc>
80002154:	18c7a683          	lw	a3,396(a5)
80002158:	00170713          	addi	a4,a4,1
8000215c:	00e7a223          	sw	a4,4(a5)
80002160:	00c6e633          	or	a2,a3,a2
80002164:	18c7a623          	sw	a2,396(a5)
80002168:	010787b3          	add	a5,a5,a6
8000216c:	00b7a423          	sw	a1,8(a5)
80002170:	00000513          	li	a0,0
80002174:	00008067          	ret
80002178:	fff00513          	li	a0,-1
8000217c:	00008067          	ret

80002180 <__call_exitprocs>:
80002180:	fd010113          	addi	sp,sp,-48
80002184:	01412c23          	sw	s4,24(sp)
80002188:	c301aa03          	lw	s4,-976(gp) # 80003898 <_global_impure_ptr>
8000218c:	03212023          	sw	s2,32(sp)
80002190:	02112623          	sw	ra,44(sp)
80002194:	148a2903          	lw	s2,328(s4)
80002198:	02812423          	sw	s0,40(sp)
8000219c:	02912223          	sw	s1,36(sp)
800021a0:	01312e23          	sw	s3,28(sp)
800021a4:	01512a23          	sw	s5,20(sp)
800021a8:	01612823          	sw	s6,16(sp)
800021ac:	01712623          	sw	s7,12(sp)
800021b0:	01812423          	sw	s8,8(sp)
800021b4:	04090063          	beqz	s2,800021f4 <__call_exitprocs+0x74>
800021b8:	00050b13          	mv	s6,a0
800021bc:	00058b93          	mv	s7,a1
800021c0:	00100a93          	li	s5,1
800021c4:	fff00993          	li	s3,-1
800021c8:	00492483          	lw	s1,4(s2)
800021cc:	fff48413          	addi	s0,s1,-1
800021d0:	02044263          	bltz	s0,800021f4 <__call_exitprocs+0x74>
800021d4:	00249493          	slli	s1,s1,0x2
800021d8:	009904b3          	add	s1,s2,s1
800021dc:	040b8463          	beqz	s7,80002224 <__call_exitprocs+0xa4>
800021e0:	1044a783          	lw	a5,260(s1)
800021e4:	05778063          	beq	a5,s7,80002224 <__call_exitprocs+0xa4>
800021e8:	fff40413          	addi	s0,s0,-1
800021ec:	ffc48493          	addi	s1,s1,-4
800021f0:	ff3416e3          	bne	s0,s3,800021dc <__call_exitprocs+0x5c>
800021f4:	02c12083          	lw	ra,44(sp)
800021f8:	02812403          	lw	s0,40(sp)
800021fc:	02412483          	lw	s1,36(sp)
80002200:	02012903          	lw	s2,32(sp)
80002204:	01c12983          	lw	s3,28(sp)
80002208:	01812a03          	lw	s4,24(sp)
8000220c:	01412a83          	lw	s5,20(sp)
80002210:	01012b03          	lw	s6,16(sp)
80002214:	00c12b83          	lw	s7,12(sp)
80002218:	00812c03          	lw	s8,8(sp)
8000221c:	03010113          	addi	sp,sp,48
80002220:	00008067          	ret
80002224:	00492783          	lw	a5,4(s2)
80002228:	0044a683          	lw	a3,4(s1)
8000222c:	fff78793          	addi	a5,a5,-1
80002230:	04878e63          	beq	a5,s0,8000228c <__call_exitprocs+0x10c>
80002234:	0004a223          	sw	zero,4(s1)
80002238:	fa0688e3          	beqz	a3,800021e8 <__call_exitprocs+0x68>
8000223c:	18892783          	lw	a5,392(s2)
80002240:	008a9733          	sll	a4,s5,s0
80002244:	00492c03          	lw	s8,4(s2)
80002248:	00f777b3          	and	a5,a4,a5
8000224c:	02079263          	bnez	a5,80002270 <__call_exitprocs+0xf0>
80002250:	000680e7          	jalr	a3
80002254:	00492703          	lw	a4,4(s2)
80002258:	148a2783          	lw	a5,328(s4)
8000225c:	01871463          	bne	a4,s8,80002264 <__call_exitprocs+0xe4>
80002260:	f8f904e3          	beq	s2,a5,800021e8 <__call_exitprocs+0x68>
80002264:	f80788e3          	beqz	a5,800021f4 <__call_exitprocs+0x74>
80002268:	00078913          	mv	s2,a5
8000226c:	f5dff06f          	j	800021c8 <__call_exitprocs+0x48>
80002270:	18c92783          	lw	a5,396(s2)
80002274:	0844a583          	lw	a1,132(s1)
80002278:	00f77733          	and	a4,a4,a5
8000227c:	00071c63          	bnez	a4,80002294 <__call_exitprocs+0x114>
80002280:	000b0513          	mv	a0,s6
80002284:	000680e7          	jalr	a3
80002288:	fcdff06f          	j	80002254 <__call_exitprocs+0xd4>
8000228c:	00892223          	sw	s0,4(s2)
80002290:	fa9ff06f          	j	80002238 <__call_exitprocs+0xb8>
80002294:	00058513          	mv	a0,a1
80002298:	000680e7          	jalr	a3
8000229c:	fb9ff06f          	j	80002254 <__call_exitprocs+0xd4>

Disassembly of section .rodata:

800022a0 <sc_tests>:
800022a0:	00b0                	addi	a2,sp,72
800022a2:	8000                	0x8000
800022a4:	013c                	addi	a5,sp,136
800022a6:	8000                	0x8000
800022a8:	01c8                	addi	a0,sp,196
800022aa:	8000                	0x8000
800022ac:	0254                	addi	a3,sp,260
800022ae:	8000                	0x8000
800022b0:	02e8                	addi	a0,sp,332
800022b2:	8000                	0x8000
800022b4:	0374                	addi	a3,sp,396
800022b6:	8000                	0x8000
800022b8:	0400                	addi	s0,sp,512
800022ba:	8000                	0x8000
800022bc:	048c                	addi	a1,sp,576
800022be:	8000                	0x8000
800022c0:	051c                	addi	a5,sp,640
800022c2:	8000                	0x8000
800022c4:	05ac                	addi	a1,sp,712
800022c6:	8000                	0x8000
800022c8:	063c                	addi	a5,sp,776
800022ca:	8000                	0x8000
800022cc:	06cc                	addi	a1,sp,836
800022ce:	8000                	0x8000
800022d0:	0768                	addi	a0,sp,908
800022d2:	8000                	0x8000
800022d4:	07f4                	addi	a3,sp,972
800022d6:	8000                	0x8000
800022d8:	0ac8                	addi	a0,sp,340
800022da:	8000                	0x8000
800022dc:	0888                	addi	a0,sp,80
800022de:	8000                	0x8000
800022e0:	0918                	addi	a4,sp,144
800022e2:	8000                	0x8000
800022e4:	09a8                	addi	a0,sp,216
800022e6:	8000                	0x8000
800022e8:	0a38                	addi	a4,sp,280
800022ea:	8000                	0x8000
800022ec:	15ac                	addi	a1,sp,744
800022ee:	8000                	0x8000
800022f0:	1634                	addi	a3,sp,808
800022f2:	8000                	0x8000
800022f4:	15b8                	addi	a4,sp,744
800022f6:	8000                	0x8000
800022f8:	1634                	addi	a3,sp,808
800022fa:	8000                	0x8000
800022fc:	1624                	addi	s1,sp,808
800022fe:	8000                	0x8000
80002300:	1634                	addi	a3,sp,808
80002302:	8000                	0x8000
80002304:	15b8                	addi	a4,sp,744
80002306:	8000                	0x8000
80002308:	15ac                	addi	a1,sp,744
8000230a:	8000                	0x8000
8000230c:	15ac                	addi	a1,sp,744
8000230e:	8000                	0x8000
80002310:	1624                	addi	s1,sp,808
80002312:	8000                	0x8000
80002314:	15b8                	addi	a4,sp,744
80002316:	8000                	0x8000
80002318:	1588                	addi	a0,sp,736
8000231a:	8000                	0x8000
8000231c:	1588                	addi	a0,sp,736
8000231e:	8000                	0x8000
80002320:	1588                	addi	a0,sp,736
80002322:	8000                	0x8000
80002324:	15c0                	addi	s0,sp,740
80002326:	8000                	0x8000
80002328:	1914                	addi	a3,sp,176
8000232a:	8000                	0x8000
8000232c:	1914                	addi	a3,sp,176
8000232e:	8000                	0x8000
80002330:	1938                	addi	a4,sp,184
80002332:	8000                	0x8000
80002334:	190c                	addi	a1,sp,176
80002336:	8000                	0x8000
80002338:	190c                	addi	a1,sp,176
8000233a:	8000                	0x8000
8000233c:	199c                	addi	a5,sp,240
8000233e:	8000                	0x8000
80002340:	1938                	addi	a4,sp,184
80002342:	8000                	0x8000
80002344:	190c                	addi	a1,sp,176
80002346:	8000                	0x8000
80002348:	199c                	addi	a5,sp,240
8000234a:	8000                	0x8000
8000234c:	190c                	addi	a1,sp,176
8000234e:	8000                	0x8000
80002350:	1938                	addi	a4,sp,184
80002352:	8000                	0x8000
80002354:	1908                	addi	a0,sp,176
80002356:	8000                	0x8000
80002358:	1908                	addi	a0,sp,176
8000235a:	8000                	0x8000
8000235c:	1908                	addi	a0,sp,176
8000235e:	8000                	0x8000
80002360:	199c                	addi	a5,sp,240
80002362:	8000                	0x8000

80002364 <__clz_tab>:
80002364:	0100                	addi	s0,sp,128
80002366:	0202                	c.slli64	tp
80002368:	03030303          	lb	t1,48(t1)
8000236c:	0404                	addi	s1,sp,512
8000236e:	0404                	addi	s1,sp,512
80002370:	0404                	addi	s1,sp,512
80002372:	0404                	addi	s1,sp,512
80002374:	0505                	addi	a0,a0,1
80002376:	0505                	addi	a0,a0,1
80002378:	0505                	addi	a0,a0,1
8000237a:	0505                	addi	a0,a0,1
8000237c:	0505                	addi	a0,a0,1
8000237e:	0505                	addi	a0,a0,1
80002380:	0505                	addi	a0,a0,1
80002382:	0505                	addi	a0,a0,1
80002384:	0606                	slli	a2,a2,0x1
80002386:	0606                	slli	a2,a2,0x1
80002388:	0606                	slli	a2,a2,0x1
8000238a:	0606                	slli	a2,a2,0x1
8000238c:	0606                	slli	a2,a2,0x1
8000238e:	0606                	slli	a2,a2,0x1
80002390:	0606                	slli	a2,a2,0x1
80002392:	0606                	slli	a2,a2,0x1
80002394:	0606                	slli	a2,a2,0x1
80002396:	0606                	slli	a2,a2,0x1
80002398:	0606                	slli	a2,a2,0x1
8000239a:	0606                	slli	a2,a2,0x1
8000239c:	0606                	slli	a2,a2,0x1
8000239e:	0606                	slli	a2,a2,0x1
800023a0:	0606                	slli	a2,a2,0x1
800023a2:	0606                	slli	a2,a2,0x1
800023a4:	07070707          	0x7070707
800023a8:	07070707          	0x7070707
800023ac:	07070707          	0x7070707
800023b0:	07070707          	0x7070707
800023b4:	07070707          	0x7070707
800023b8:	07070707          	0x7070707
800023bc:	07070707          	0x7070707
800023c0:	07070707          	0x7070707
800023c4:	07070707          	0x7070707
800023c8:	07070707          	0x7070707
800023cc:	07070707          	0x7070707
800023d0:	07070707          	0x7070707
800023d4:	07070707          	0x7070707
800023d8:	07070707          	0x7070707
800023dc:	07070707          	0x7070707
800023e0:	07070707          	0x7070707
800023e4:	0808                	addi	a0,sp,16
800023e6:	0808                	addi	a0,sp,16
800023e8:	0808                	addi	a0,sp,16
800023ea:	0808                	addi	a0,sp,16
800023ec:	0808                	addi	a0,sp,16
800023ee:	0808                	addi	a0,sp,16
800023f0:	0808                	addi	a0,sp,16
800023f2:	0808                	addi	a0,sp,16
800023f4:	0808                	addi	a0,sp,16
800023f6:	0808                	addi	a0,sp,16
800023f8:	0808                	addi	a0,sp,16
800023fa:	0808                	addi	a0,sp,16
800023fc:	0808                	addi	a0,sp,16
800023fe:	0808                	addi	a0,sp,16
80002400:	0808                	addi	a0,sp,16
80002402:	0808                	addi	a0,sp,16
80002404:	0808                	addi	a0,sp,16
80002406:	0808                	addi	a0,sp,16
80002408:	0808                	addi	a0,sp,16
8000240a:	0808                	addi	a0,sp,16
8000240c:	0808                	addi	a0,sp,16
8000240e:	0808                	addi	a0,sp,16
80002410:	0808                	addi	a0,sp,16
80002412:	0808                	addi	a0,sp,16
80002414:	0808                	addi	a0,sp,16
80002416:	0808                	addi	a0,sp,16
80002418:	0808                	addi	a0,sp,16
8000241a:	0808                	addi	a0,sp,16
8000241c:	0808                	addi	a0,sp,16
8000241e:	0808                	addi	a0,sp,16
80002420:	0808                	addi	a0,sp,16
80002422:	0808                	addi	a0,sp,16
80002424:	0808                	addi	a0,sp,16
80002426:	0808                	addi	a0,sp,16
80002428:	0808                	addi	a0,sp,16
8000242a:	0808                	addi	a0,sp,16
8000242c:	0808                	addi	a0,sp,16
8000242e:	0808                	addi	a0,sp,16
80002430:	0808                	addi	a0,sp,16
80002432:	0808                	addi	a0,sp,16
80002434:	0808                	addi	a0,sp,16
80002436:	0808                	addi	a0,sp,16
80002438:	0808                	addi	a0,sp,16
8000243a:	0808                	addi	a0,sp,16
8000243c:	0808                	addi	a0,sp,16
8000243e:	0808                	addi	a0,sp,16
80002440:	0808                	addi	a0,sp,16
80002442:	0808                	addi	a0,sp,16
80002444:	0808                	addi	a0,sp,16
80002446:	0808                	addi	a0,sp,16
80002448:	0808                	addi	a0,sp,16
8000244a:	0808                	addi	a0,sp,16
8000244c:	0808                	addi	a0,sp,16
8000244e:	0808                	addi	a0,sp,16
80002450:	0808                	addi	a0,sp,16
80002452:	0808                	addi	a0,sp,16
80002454:	0808                	addi	a0,sp,16
80002456:	0808                	addi	a0,sp,16
80002458:	0808                	addi	a0,sp,16
8000245a:	0808                	addi	a0,sp,16
8000245c:	0808                	addi	a0,sp,16
8000245e:	0808                	addi	a0,sp,16
80002460:	0808                	addi	a0,sp,16
80002462:	0808                	addi	a0,sp,16

Disassembly of section .init_array:

80003464 <__init_array_start>:
80003464:	0098                	addi	a4,sp,64
80003466:	8000                	0x8000

Disassembly of section .data:

80003468 <impure_data>:
80003468:	0000                	unimp
8000346a:	0000                	unimp
8000346c:	3754                	fld	fa3,168(a4)
8000346e:	8000                	0x8000
80003470:	37bc                	fld	fa5,104(a5)
80003472:	8000                	0x8000
80003474:	3824                	fld	fs1,112(s0)
80003476:	8000                	0x8000
	...
80003510:	0001                	nop
80003512:	0000                	unimp
80003514:	0000                	unimp
80003516:	0000                	unimp
80003518:	330e                	fld	ft6,224(sp)
8000351a:	abcd                	j	80003b0c <__BSS_END__+0x264>
8000351c:	1234                	addi	a3,sp,296
8000351e:	e66d                	bnez	a2,80003608 <impure_data+0x1a0>
80003520:	deec                	sw	a1,124(a3)
80003522:	0005                	c.nop	1
80003524:	0000000b          	0xb
	...

Disassembly of section .sdata:

80003890 <__SDATA_BEGIN__>:
80003890:	0000                	unimp
80003892:	3f00                	fld	fs0,56(a4)
80003894:	0000                	unimp
80003896:	bf00                	fsd	fs0,56(a4)

80003898 <_global_impure_ptr>:
80003898:	3468                	fld	fa0,232(s0)
8000389a:	8000                	0x8000

8000389c <_impure_ptr>:
8000389c:	3468                	fld	fa0,232(s0)
8000389e:	8000                	0x8000

Disassembly of section .sbss:

800038a0 <g_spawn>:
800038a0:	0000                	unimp
	...

800038a4 <__fdlib_version>:
800038a4:	0000                	unimp
	...

Disassembly of section .comment:

00000000 <.comment>:
   0:	3a434347          	fmsub.d	ft6,ft6,ft4,ft7,rmm
   4:	2820                	fld	fs0,80(s0)
   6:	29554e47          	fmsub.s	ft8,fa0,fs5,ft5,rmm
   a:	3920                	fld	fs0,112(a0)
   c:	322e                	fld	ft4,232(sp)
   e:	302e                	fld	ft0,232(sp)
	...

Disassembly of section .riscv.attributes:

00000000 <.riscv.attributes>:
   0:	2541                	jal	680 <_start-0x7ffff980>
   2:	0000                	unimp
   4:	7200                	flw	fs0,32(a2)
   6:	7369                	lui	t1,0xffffa
   8:	01007663          	bgeu	zero,a6,14 <_start-0x7fffffec>
   c:	0000001b          	0x1b
  10:	1004                	addi	s1,sp,32
  12:	7205                	lui	tp,0xfffe1
  14:	3376                	fld	ft6,376(sp)
  16:	6932                	flw	fs2,12(sp)
  18:	7032                	flw	ft0,44(sp)
  1a:	5f30                	lw	a2,120(a4)
  1c:	326d                	jal	fffff9c6 <__global_pointer$+0x7fffbd5e>
  1e:	3070                	fld	fa2,224(s0)
  20:	665f 7032 0030      	0x307032665f

Disassembly of section .debug_aranges:

00000000 <.debug_aranges>:
   0:	001c                	0x1c
   2:	0000                	unimp
   4:	0002                	c.slli64	zero
   6:	0000                	unimp
   8:	0000                	unimp
   a:	0004                	0x4
   c:	0000                	unimp
   e:	0000                	unimp
  10:	0ee8                	addi	a0,sp,860
  12:	8000                	0x8000
  14:	042c                	addi	a1,sp,520
	...
  1e:	0000                	unimp
  20:	001c                	0x1c
  22:	0000                	unimp
  24:	0002                	c.slli64	zero
  26:	035d                	addi	t1,t1,23
  28:	0000                	unimp
  2a:	0004                	0x4
  2c:	0000                	unimp
  2e:	0000                	unimp
  30:	1314                	addi	a3,sp,416
  32:	8000                	0x8000
  34:	032c                	addi	a1,sp,392
	...
  3e:	0000                	unimp
  40:	001c                	0x1c
  42:	0000                	unimp
  44:	0002                	c.slli64	zero
  46:	0718                	addi	a4,sp,896
  48:	0000                	unimp
  4a:	0004                	0x4
  4c:	0000                	unimp
  4e:	0000                	unimp
  50:	1640                	addi	s0,sp,804
  52:	8000                	0x8000
  54:	00b4                	addi	a3,sp,72
	...
  5e:	0000                	unimp
  60:	001c                	0x1c
  62:	0000                	unimp
  64:	0002                	c.slli64	zero
  66:	097f                	0x97f
  68:	0000                	unimp
  6a:	0004                	0x4
  6c:	0000                	unimp
  6e:	0000                	unimp
  70:	16f4                	addi	a3,sp,876
  72:	8000                	0x8000
  74:	02f8                	addi	a4,sp,332
	...
  7e:	0000                	unimp
  80:	001c                	0x1c
  82:	0000                	unimp
  84:	0002                	c.slli64	zero
  86:	00000d2b          	0xd2b
  8a:	0004                	0x4
  8c:	0000                	unimp
  8e:	0000                	unimp
  90:	19ec                	addi	a1,sp,252
  92:	8000                	0x8000
  94:	044c                	addi	a1,sp,516
	...
  9e:	0000                	unimp
  a0:	001c                	0x1c
  a2:	0000                	unimp
  a4:	0002                	c.slli64	zero
  a6:	1088                	addi	a0,sp,96
  a8:	0000                	unimp
  aa:	0004                	0x4
  ac:	0000                	unimp
  ae:	0000                	unimp
  b0:	1e38                	addi	a4,sp,824
  b2:	8000                	0x8000
  b4:	0044                	addi	s1,sp,4
	...
  be:	0000                	unimp
  c0:	001c                	0x1c
  c2:	0000                	unimp
  c4:	0002                	c.slli64	zero
  c6:	000012db          	0x12db
  ca:	0004                	0x4
  cc:	0000                	unimp
  ce:	0000                	unimp
  d0:	1e7c                	addi	a5,sp,828
  d2:	8000                	0x8000
  d4:	004c                	addi	a1,sp,4
	...
  de:	0000                	unimp
  e0:	0014                	0x14
  e2:	0000                	unimp
  e4:	0002                	c.slli64	zero
  e6:	1eb2                	slli	t4,t4,0x2c
  e8:	0000                	unimp
  ea:	0004                	0x4
	...

Disassembly of section .debug_info:

00000000 <.debug_info>:
       0:	0359                	addi	t1,t1,22
       2:	0000                	unimp
       4:	0004                	0x4
       6:	0000                	unimp
       8:	0000                	unimp
       a:	0104                	addi	s1,sp,128
       c:	0182                	c.slli64	gp
       e:	0000                	unimp
      10:	3e0c                	fld	fa1,56(a2)
      12:	0002                	c.slli64	zero
      14:	f600                	fsw	fs0,40(a2)
      16:	0000                	unimp
      18:	e800                	fsw	fs0,16(s0)
      1a:	000e                	c.slli	zero,0x3
      1c:	2c80                	fld	fs0,24(s1)
      1e:	0004                	0x4
      20:	0000                	unimp
      22:	0000                	unimp
      24:	0200                	addi	s0,sp,256
      26:	0404                	addi	s1,sp,512
      28:	000008cb          	fnmsub.s	fa7,ft0,ft0,ft0,rne
      2c:	69050403          	lb	s0,1680(a0)
      30:	746e                	flw	fs0,248(sp)
      32:	0200                	addi	s0,sp,256
      34:	0601                	addi	a2,a2,0
      36:	0062                	c.slli	zero,0x18
      38:	0000                	unimp
      3a:	0802                	c.slli64	a6
      3c:	7405                	lui	s0,0xfffe1
      3e:	0001                	nop
      40:	0400                	addi	s0,sp,512
      42:	00c8                	addi	a0,sp,68
      44:	0000                	unimp
      46:	4a02                	lw	s4,0(sp)
      48:	1601                	addi	a2,a2,-32
      4a:	00000053          	fadd.s	ft0,ft0,ft0,rne
      4e:	4105                	li	sp,1
      50:	0000                	unimp
      52:	0200                	addi	s0,sp,256
      54:	0801                	addi	a6,a6,0
      56:	0060                	addi	s0,sp,12
      58:	0000                	unimp
      5a:	0402                	c.slli64	s0
      5c:	0000e907          	0xe907
      60:	0200                	addi	s0,sp,256
      62:	0708                	addi	a0,sp,896
      64:	00df 0000 0202      	0x202000000df
      6a:	00008c07          	0x8c07
      6e:	0600                	addi	s0,sp,768
      70:	004e                	c.slli	zero,0x13
      72:	0000                	unimp
      74:	007f                	0x7f
      76:	0000                	unimp
      78:	00005a07          	0x5a07
      7c:	ff00                	fsw	fs0,56(a4)
      7e:	0500                	addi	s0,sp,640
      80:	0000006f          	j	80 <_start-0x7fffff80>
      84:	d008                	sw	a0,32(s0)
      86:	0000                	unimp
      88:	0400                	addi	s0,sp,512
      8a:	163c                	addi	a5,sp,808
      8c:	007f                	0x7f
      8e:	0000                	unimp
      90:	8709                	srai	a4,a4,0x2
      92:	0002                	c.slli64	zero
      94:	0300                	addi	s0,sp,384
      96:	0f45                	addi	t5,t5,17
      98:	0025                	c.nop	9
      9a:	0000                	unimp
      9c:	040a                	slli	s0,s0,0x2
      9e:	d6034a03          	lbu	s4,-672(t1) # ffff9d60 <__global_pointer$+0x7fff60f8>
      a2:	0000                	unimp
      a4:	0b00                	addi	s0,sp,400
      a6:	00da                	slli	ra,ra,0x16
      a8:	0000                	unimp
      aa:	5a0e5103          	lhu	sp,1440(t3)
      ae:	0000                	unimp
      b0:	0400                	addi	s0,sp,512
      b2:	0c000917          	auipc	s2,0xc000
      b6:	7865                	lui	a6,0xffff9
      b8:	0070                	addi	a2,sp,12
      ba:	5a0e5203          	lhu	tp,1440(t3)
      be:	0000                	unimp
      c0:	0400                	addi	s0,sp,512
      c2:	0108                	addi	a0,sp,128
      c4:	0b00                	addi	s0,sp,400
      c6:	0781                	addi	a5,a5,0
      c8:	0000                	unimp
      ca:	5a0e5303          	lhu	t1,1440(t3)
      ce:	0000                	unimp
      d0:	0400                	addi	s0,sp,512
      d2:	0001                	nop
      d4:	0000                	unimp
      d6:	7b0d                	lui	s6,0xfffe3
      d8:	0002                	c.slli64	zero
      da:	0400                	addi	s0,sp,512
      dc:	fc074703          	lbu	a4,-64(a4)
      e0:	0000                	unimp
      e2:	0e00                	addi	s0,sp,784
      e4:	6c66                	flw	fs8,88(sp)
      e6:	0074                	addi	a3,sp,12
      e8:	900a4903          	lbu	s2,-1792(s4)
      ec:	0000                	unimp
      ee:	0f00                	addi	s0,sp,912
      f0:	0239                	addi	tp,tp,14
      f2:	0000                	unimp
      f4:	9c055503          	lhu	a0,-1600(a0)
      f8:	0000                	unimp
      fa:	0000                	unimp
      fc:	8310                	0x8310
      fe:	0000                	unimp
     100:	0100                	addi	s0,sp,128
     102:	00900123          	sb	s1,2(zero) # 2 <_start-0x7ffffffe>
     106:	0000                	unimp
     108:	0ee8                	addi	a0,sp,860
     10a:	8000                	0x8000
     10c:	042c                	addi	a1,sp,520
     10e:	0000                	unimp
     110:	9c01                	0x9c01
     112:	034e                	slli	t1,t1,0x13
     114:	0000                	unimp
     116:	6111                	addi	sp,sp,256
     118:	0100                	addi	s0,sp,128
     11a:	00901223          	sh	s1,4(zero) # 4 <_start-0x7ffffffc>
     11e:	0000                	unimp
     120:	0000                	unimp
     122:	0000                	unimp
     124:	6211                	lui	tp,0x4
     126:	0100                	addi	s0,sp,128
     128:	00901c23          	sh	s1,24(zero) # 18 <_start-0x7fffffe8>
     12c:	0000                	unimp
     12e:	0116                	slli	sp,sp,0x5
     130:	0000                	unimp
     132:	2812                	fld	fa6,256(sp)
     134:	0000                	unimp
     136:	0100                	addi	s0,sp,128
     138:	0325                	addi	t1,t1,9
     13a:	002c                	addi	a1,sp,8
     13c:	0000                	unimp
     13e:	0139                	addi	sp,sp,14
     140:	0000                	unimp
     142:	0002a713          	slti	a4,t0,0
     146:	0100                	addi	s0,sp,128
     148:	0325                	addi	t1,t1,9
     14a:	002c                	addi	a1,sp,8
     14c:	0000                	unimp
     14e:	1400                	addi	s0,sp,544
     150:	5f41                	li	t5,-16
     152:	26010063          	beqz	sp,3b2 <_start-0x7ffffc4e>
     156:	00034e03          	lbu	t3,0(t1)
     15a:	1500                	addi	s0,sp,672
     15c:	5f41                	li	t5,-16
     15e:	26010073          	0x26010073
     162:	00034e03          	lbu	t3,0(t1)
     166:	7d00                	flw	fs0,56(a0)
     168:	0001                	nop
     16a:	1500                	addi	s0,sp,672
     16c:	5f41                	li	t5,-16
     16e:	0065                	c.nop	25
     170:	2601                	jal	470 <_start-0x7ffffb90>
     172:	00034e03          	lbu	t3,0(t1)
     176:	2b00                	fld	fs0,16(a4)
     178:	0002                	c.slli64	zero
     17a:	1500                	addi	s0,sp,672
     17c:	5f41                	li	t5,-16
     17e:	0066                	c.slli	zero,0x19
     180:	2601                	jal	480 <_start-0x7ffffb80>
     182:	00035503          	lhu	a0,0(t1)
     186:	8b00                	0x8b00
     188:	0002                	c.slli64	zero
     18a:	1400                	addi	s0,sp,544
     18c:	5f42                	lw	t5,48(sp)
     18e:	27010063          	beq	sp,a6,3ee <_start-0x7ffffc12>
     192:	00034e03          	lbu	t3,0(t1)
     196:	1500                	addi	s0,sp,672
     198:	5f42                	lw	t5,48(sp)
     19a:	27010073          	0x27010073
     19e:	00034e03          	lbu	t3,0(t1)
     1a2:	8c00                	0x8c00
     1a4:	0004                	0x4
     1a6:	1500                	addi	s0,sp,672
     1a8:	5f42                	lw	t5,48(sp)
     1aa:	0065                	c.nop	25
     1ac:	2701                	jal	8ac <_start-0x7ffff754>
     1ae:	00034e03          	lbu	t3,0(t1)
     1b2:	0d00                	addi	s0,sp,656
     1b4:	0005                	c.nop	1
     1b6:	1500                	addi	s0,sp,672
     1b8:	5f42                	lw	t5,48(sp)
     1ba:	0066                	c.slli	zero,0x19
     1bc:	2701                	jal	8bc <_start-0x7ffff744>
     1be:	00035503          	lhu	a0,0(t1)
     1c2:	8300                	0x8300
     1c4:	0005                	c.nop	1
     1c6:	1400                	addi	s0,sp,544
     1c8:	5f52                	lw	t5,52(sp)
     1ca:	28010063          	beqz	sp,44a <_start-0x7ffffbb6>
     1ce:	00034e03          	lbu	t3,0(t1)
     1d2:	1500                	addi	s0,sp,672
     1d4:	5f52                	lw	t5,52(sp)
     1d6:	28010073          	0x28010073
     1da:	00034e03          	lbu	t3,0(t1)
     1de:	f900                	fsw	fs0,48(a0)
     1e0:	0005                	c.nop	1
     1e2:	1500                	addi	s0,sp,672
     1e4:	5f52                	lw	t5,52(sp)
     1e6:	0065                	c.nop	25
     1e8:	2801                	jal	1f8 <_start-0x7ffffe08>
     1ea:	00034e03          	lbu	t3,0(t1)
     1ee:	7a00                	flw	fs0,48(a2)
     1f0:	0006                	c.slli	zero,0x1
     1f2:	1500                	addi	s0,sp,672
     1f4:	5f52                	lw	t5,52(sp)
     1f6:	0066                	c.slli	zero,0x19
     1f8:	2801                	jal	208 <_start-0x7ffffdf8>
     1fa:	00035503          	lhu	a0,0(t1)
     1fe:	ce00                	sw	s0,24(a2)
     200:	15000007          	0x15000007
     204:	0072                	c.slli	zero,0x1c
     206:	2901                	jal	616 <_start-0x7ffff9ea>
     208:	900a                	c.add	zero,sp
     20a:	0000                	unimp
     20c:	5f00                	lw	s0,56(a4)
     20e:	0009                	c.nop	2
     210:	1600                	addi	s0,sp,800
     212:	0000                	unimp
     214:	0000                	unimp
     216:	00000227          	0x227
     21a:	00006e17          	auipc	t3,0x6
     21e:	0100                	addi	s0,sp,128
     220:	032c                	addi	a1,sp,392
     222:	00d6                	slli	ra,ra,0x15
     224:	0000                	unimp
     226:	1600                	addi	s0,sp,800
     228:	0048                	addi	a0,sp,4
     22a:	0000                	unimp
     22c:	023d                	addi	tp,tp,15
     22e:	0000                	unimp
     230:	00006e17          	auipc	t3,0x6
     234:	0100                	addi	s0,sp,128
     236:	032d                	addi	t1,t1,11
     238:	00d6                	slli	ra,ra,0x15
     23a:	0000                	unimp
     23c:	1600                	addi	s0,sp,800
     23e:	0068                	addi	a0,sp,12
     240:	0000                	unimp
     242:	00000287          	0x287
     246:	6c18                	flw	fa4,24(s0)
     248:	0002                	c.slli64	zero
     24a:	0100                	addi	s0,sp,128
     24c:	032e                	slli	t1,t1,0xb
     24e:	0fa0                	addi	s0,sp,984
     250:	8000                	0x8000
     252:	7118                	flw	fa4,32(a0)
     254:	0002                	c.slli64	zero
     256:	0100                	addi	s0,sp,128
     258:	032e                	slli	t1,t1,0xb
     25a:	100c                	addi	a1,sp,32
     25c:	8000                	0x8000
     25e:	7618                	flw	fa4,40(a2)
     260:	0002                	c.slli64	zero
     262:	0100                	addi	s0,sp,128
     264:	032e                	slli	t1,t1,0xb
     266:	0f50                	addi	a2,sp,916
     268:	8000                	0x8000
     26a:	5718                	lw	a4,40(a4)
     26c:	0000                	unimp
     26e:	0100                	addi	s0,sp,128
     270:	032e                	slli	t1,t1,0xb
     272:	106c                	addi	a1,sp,44
     274:	8000                	0x8000
     276:	2212                	fld	ft4,256(sp)
     278:	0002                	c.slli64	zero
     27a:	0100                	addi	s0,sp,128
     27c:	032e                	slli	t1,t1,0xb
     27e:	002c                	addi	a1,sp,8
     280:	0000                	unimp
     282:	0984                	addi	s1,sp,208
     284:	0000                	unimp
     286:	1600                	addi	s0,sp,800
     288:	00a8                	addi	a0,sp,72
     28a:	0000                	unimp
     28c:	000002f3          	0x2f3
     290:	9f18                	0x9f18
     292:	0000                	unimp
     294:	0100                	addi	s0,sp,128
     296:	032e                	slli	t1,t1,0xb
     298:	10fc                	addi	a5,sp,108
     29a:	8000                	0x8000
     29c:	a418                	fsd	fa4,8(s0)
     29e:	0000                	unimp
     2a0:	0100                	addi	s0,sp,128
     2a2:	032e                	slli	t1,t1,0xb
     2a4:	118c                	addi	a1,sp,224
     2a6:	8000                	0x8000
     2a8:	a918                	fsd	fa4,16(a0)
     2aa:	0000                	unimp
     2ac:	0100                	addi	s0,sp,128
     2ae:	032e                	slli	t1,t1,0xb
     2b0:	10d4                	addi	a3,sp,100
     2b2:	8000                	0x8000
     2b4:	c318                	sw	a4,0(a4)
     2b6:	0000                	unimp
     2b8:	0100                	addi	s0,sp,128
     2ba:	032e                	slli	t1,t1,0xb
     2bc:	1224                	addi	s1,sp,296
     2be:	8000                	0x8000
     2c0:	5518                	lw	a4,40(a0)
     2c2:	0001                	nop
     2c4:	0100                	addi	s0,sp,128
     2c6:	032e                	slli	t1,t1,0xb
     2c8:	106c                	addi	a1,sp,44
     2ca:	8000                	0x8000
     2cc:	2212                	fld	ft4,256(sp)
     2ce:	0002                	c.slli64	zero
     2d0:	0100                	addi	s0,sp,128
     2d2:	032e                	slli	t1,t1,0xb
     2d4:	002c                	addi	a1,sp,8
     2d6:	0000                	unimp
     2d8:	09fa                	slli	s3,s3,0x1e
     2da:	0000                	unimp
     2dc:	e819                	bnez	s0,2f2 <_start-0x7ffffd0e>
     2de:	0000                	unimp
     2e0:	1200                	addi	s0,sp,288
     2e2:	015e                	slli	sp,sp,0x17
     2e4:	0000                	unimp
     2e6:	2e01                	jal	5f6 <_start-0x7ffffa0a>
     2e8:	00002c03          	lw	s8,0(zero) # 0 <_start-0x80000000>
     2ec:	6e00                	flw	fs0,24(a2)
     2ee:	000a                	c.slli	zero,0x2
     2f0:	0000                	unimp
     2f2:	1600                	addi	s0,sp,800
     2f4:	0108                	addi	a0,sp,128
     2f6:	0000                	unimp
     2f8:	0000033b          	0x33b
     2fc:	00028e17          	auipc	t3,0x28
     300:	0100                	addi	s0,sp,128
     302:	002c032f          	0x2c032f
     306:	0000                	unimp
     308:	171a                	slli	a4,a4,0x26
     30a:	002d                	c.nop	11
     30c:	0000                	unimp
     30e:	2f01                	jal	a1e <_start-0x7ffff5e2>
     310:	00034e03          	lbu	t3,0(t1)
     314:	1700                	addi	s0,sp,928
     316:	00000013          	nop
     31a:	2f01                	jal	a2a <_start-0x7ffff5d6>
     31c:	00034e03          	lbu	t3,0(t1)
     320:	1700                	addi	s0,sp,928
     322:	00ae                	slli	ra,ra,0xb
     324:	0000                	unimp
     326:	2f01                	jal	a36 <_start-0x7ffff5ca>
     328:	00034e03          	lbu	t3,0(t1)
     32c:	1700                	addi	s0,sp,928
     32e:	0042                	c.slli	zero,0x10
     330:	0000                	unimp
     332:	2f01                	jal	a42 <_start-0x7ffff5be>
     334:	00035503          	lhu	a0,0(t1)
     338:	0000                	unimp
     33a:	1900                	addi	s0,sp,176
     33c:	0128                	addi	a0,sp,136
     33e:	0000                	unimp
     340:	00000017          	auipc	zero,0x0
     344:	0100                	addi	s0,sp,128
     346:	00d6032f          	0xd6032f
     34a:	0000                	unimp
     34c:	0000                	unimp
     34e:	0402                	c.slli64	s0
     350:	7905                	lui	s2,0xfffe1
     352:	0001                	nop
     354:	0200                	addi	s0,sp,256
     356:	0704                	addi	s1,sp,896
     358:	00e4                	addi	s1,sp,76
     35a:	0000                	unimp
     35c:	b700                	fsd	fs0,40(a4)
     35e:	04000003          	lb	zero,64(zero) # 40 <_start-0x7fffffc0>
     362:	8400                	0x8400
     364:	0001                	nop
     366:	0400                	addi	s0,sp,512
     368:	8201                	c.srli64	a2
     36a:	0001                	nop
     36c:	0c00                	addi	s0,sp,528
     36e:	000002db          	0x2db
     372:	00f6                	slli	ra,ra,0x1d
     374:	0000                	unimp
     376:	1314                	addi	a3,sp,416
     378:	8000                	0x8000
     37a:	032c                	addi	a1,sp,392
     37c:	0000                	unimp
     37e:	0a4e                	slli	s4,s4,0x13
     380:	0000                	unimp
     382:	0402                	c.slli64	s0
     384:	cb04                	sw	s1,16(a4)
     386:	0008                	0x8
     388:	0300                	addi	s0,sp,384
     38a:	0504                	addi	s1,sp,640
     38c:	6e69                	lui	t3,0x1a
     38e:	0074                	addi	a3,sp,12
     390:	0102                	c.slli64	sp
     392:	6206                	flw	ft4,64(sp)
     394:	0000                	unimp
     396:	0200                	addi	s0,sp,256
     398:	0508                	addi	a0,sp,640
     39a:	0174                	addi	a3,sp,140
     39c:	0000                	unimp
     39e:	c804                	sw	s1,16(s0)
     3a0:	0000                	unimp
     3a2:	0200                	addi	s0,sp,256
     3a4:	014a                	slli	sp,sp,0x12
     3a6:	5316                	lw	t1,100(sp)
     3a8:	0000                	unimp
     3aa:	0500                	addi	s0,sp,640
     3ac:	0041                	c.nop	16
     3ae:	0000                	unimp
     3b0:	0102                	c.slli64	sp
     3b2:	6008                	flw	fa0,0(s0)
     3b4:	0000                	unimp
     3b6:	0200                	addi	s0,sp,256
     3b8:	0704                	addi	s1,sp,896
     3ba:	00e9                	addi	ra,ra,26
     3bc:	0000                	unimp
     3be:	0802                	c.slli64	a6
     3c0:	0000df07          	0xdf07
     3c4:	0200                	addi	s0,sp,256
     3c6:	0702                	c.slli64	a4
     3c8:	008c                	addi	a1,sp,64
     3ca:	0000                	unimp
     3cc:	4e06                	lw	t3,64(sp)
     3ce:	0000                	unimp
     3d0:	7f00                	flw	fs0,56(a4)
     3d2:	0000                	unimp
     3d4:	0700                	addi	s0,sp,896
     3d6:	005a                	c.slli	zero,0x16
     3d8:	0000                	unimp
     3da:	00ff                	0xff
     3dc:	6f05                	lui	t5,0x1
     3de:	0000                	unimp
     3e0:	0800                	addi	s0,sp,16
     3e2:	00d0                	addi	a2,sp,68
     3e4:	0000                	unimp
     3e6:	3c04                	fld	fs1,56(s0)
     3e8:	7f16                	flw	ft10,100(sp)
     3ea:	0000                	unimp
     3ec:	0900                	addi	s0,sp,144
     3ee:	00000287          	0x287
     3f2:	250f4503          	lbu	a0,592(t5) # 1250 <_start-0x7fffedb0>
     3f6:	0000                	unimp
     3f8:	0a00                	addi	s0,sp,272
     3fa:	0304                	addi	s1,sp,384
     3fc:	034a                	slli	t1,t1,0x12
     3fe:	00d6                	slli	ra,ra,0x15
     400:	0000                	unimp
     402:	0000da0b          	0xda0b
     406:	0300                	addi	s0,sp,384
     408:	0e51                	addi	t3,t3,20
     40a:	005a                	c.slli	zero,0x16
     40c:	0000                	unimp
     40e:	1704                	addi	s1,sp,928
     410:	0009                	c.nop	2
     412:	650c                	flw	fa1,8(a0)
     414:	7078                	flw	fa4,100(s0)
     416:	0300                	addi	s0,sp,384
     418:	0e52                	slli	t3,t3,0x14
     41a:	005a                	c.slli	zero,0x16
     41c:	0000                	unimp
     41e:	0804                	addi	s1,sp,16
     420:	0001                	nop
     422:	0007810b          	0x7810b
     426:	0300                	addi	s0,sp,384
     428:	005a0e53          	fadd.s	ft8,fs4,ft5,rne
     42c:	0000                	unimp
     42e:	0104                	addi	s1,sp,128
     430:	0000                	unimp
     432:	0d00                	addi	s0,sp,656
     434:	0000027b          	0x27b
     438:	0304                	addi	s1,sp,384
     43a:	00fc0747          	fmsub.s	fa4,fs8,fa5,ft0,rne
     43e:	0000                	unimp
     440:	660e                	flw	fa2,192(sp)
     442:	746c                	flw	fa1,108(s0)
     444:	0300                	addi	s0,sp,384
     446:	0a49                	addi	s4,s4,18
     448:	0090                	addi	a2,sp,64
     44a:	0000                	unimp
     44c:	0002390f          	0x2390f
     450:	0300                	addi	s0,sp,384
     452:	0555                	addi	a0,a0,21
     454:	009c                	addi	a5,sp,64
     456:	0000                	unimp
     458:	1000                	addi	s0,sp,32
     45a:	0325                	addi	t1,t1,9
     45c:	0000                	unimp
     45e:	2301                	jal	95e <_start-0x7ffff6a2>
     460:	9001                	srli	s0,s0,0x20
     462:	0000                	unimp
     464:	1400                	addi	s0,sp,544
     466:	2c800013          	li	zero,712
     46a:	01000003          	lb	zero,16(zero) # 10 <_start-0x7ffffff0>
     46e:	ac9c                	fsd	fa5,24(s1)
     470:	11000003          	lb	zero,272(zero) # 110 <_start-0x7ffffef0>
     474:	0061                	c.nop	24
     476:	2301                	jal	976 <_start-0x7ffff68a>
     478:	9012                	c.add	zero,tp
     47a:	0000                	unimp
     47c:	ce00                	sw	s0,24(a2)
     47e:	000a                	c.slli	zero,0x2
     480:	1100                	addi	s0,sp,160
     482:	0062                	c.slli	zero,0x18
     484:	2301                	jal	984 <_start-0x7ffff67c>
     486:	901c                	0x901c
     488:	0000                	unimp
     48a:	2700                	fld	fs0,8(a4)
     48c:	1200000b          	0x1200000b
     490:	0028                	addi	a0,sp,8
     492:	0000                	unimp
     494:	2501                	jal	a94 <_start-0x7ffff56c>
     496:	00002c03          	lw	s8,0(zero) # 0 <_start-0x80000000>
     49a:	8600                	0x8600
     49c:	1300000b          	0x1300000b
     4a0:	000002a7          	0x2a7
     4a4:	2501                	jal	aa4 <_start-0x7ffff55c>
     4a6:	00002c03          	lw	s8,0(zero) # 0 <_start-0x80000000>
     4aa:	0000                	unimp
     4ac:	4114                	lw	a3,0(a0)
     4ae:	635f 0100 0326      	0x3260100635f
     4b4:	03ac                	addi	a1,sp,456
     4b6:	0000                	unimp
     4b8:	0ba6                	slli	s7,s7,0x9
     4ba:	0000                	unimp
     4bc:	4114                	lw	a3,0(a0)
     4be:	735f 0100 0326      	0x3260100735f
     4c4:	03ac                	addi	a1,sp,456
     4c6:	0000                	unimp
     4c8:	00000bdb          	0xbdb
     4cc:	4114                	lw	a3,0(a0)
     4ce:	655f 0100 0326      	0x3260100655f
     4d4:	03ac                	addi	a1,sp,456
     4d6:	0000                	unimp
     4d8:	00000c03          	lb	s8,0(zero) # 0 <_start-0x80000000>
     4dc:	4114                	lw	a3,0(a0)
     4de:	665f 0100 0326      	0x3260100665f
     4e4:	000003b3          	add	t2,zero,zero
     4e8:	0c85                	addi	s9,s9,1
     4ea:	0000                	unimp
     4ec:	4214                	lw	a3,0(a2)
     4ee:	635f 0100 0327      	0x3270100635f
     4f4:	03ac                	addi	a1,sp,456
     4f6:	0000                	unimp
     4f8:	0cf5                	addi	s9,s9,29
     4fa:	0000                	unimp
     4fc:	4214                	lw	a3,0(a2)
     4fe:	735f 0100 0327      	0x3270100735f
     504:	03ac                	addi	a1,sp,456
     506:	0000                	unimp
     508:	0d40                	addi	s0,sp,660
     50a:	0000                	unimp
     50c:	4214                	lw	a3,0(a2)
     50e:	655f 0100 0327      	0x3270100655f
     514:	03ac                	addi	a1,sp,456
     516:	0000                	unimp
     518:	0d78                	addi	a4,sp,668
     51a:	0000                	unimp
     51c:	4214                	lw	a3,0(a2)
     51e:	665f 0100 0327      	0x3270100665f
     524:	000003b3          	add	t2,zero,zero
     528:	00000dcb          	fnmsub.s	fs11,ft0,ft0,ft0,rne
     52c:	5214                	lw	a3,32(a2)
     52e:	635f 0100 0328      	0x3280100635f
     534:	03ac                	addi	a1,sp,456
     536:	0000                	unimp
     538:	00000e1b          	0xe1b
     53c:	5214                	lw	a3,32(a2)
     53e:	735f 0100 0328      	0x3280100735f
     544:	03ac                	addi	a1,sp,456
     546:	0000                	unimp
     548:	0e5c                	addi	a5,sp,788
     54a:	0000                	unimp
     54c:	5214                	lw	a3,32(a2)
     54e:	655f 0100 0328      	0x3280100655f
     554:	03ac                	addi	a1,sp,456
     556:	0000                	unimp
     558:	0ee1                	addi	t4,t4,24
     55a:	0000                	unimp
     55c:	5214                	lw	a3,32(a2)
     55e:	665f 0100 0328      	0x3280100665f
     564:	000003b3          	add	t2,zero,zero
     568:	00000f63          	beqz	zero,586 <_start-0x7ffffa7a>
     56c:	7214                	flw	fa3,32(a2)
     56e:	0100                	addi	s0,sp,128
     570:	0a29                	addi	s4,s4,10
     572:	0090                	addi	a2,sp,64
     574:	0000                	unimp
     576:	00000fc7          	fmsub.s	ft11,ft0,ft0,ft0,rne
     57a:	4015                	c.li	zero,5
     57c:	0001                	nop
     57e:	3300                	fld	fs0,32(a4)
     580:	0002                	c.slli64	zero
     582:	1600                	addi	s0,sp,800
     584:	006e                	c.slli	zero,0x1b
     586:	0000                	unimp
     588:	2c01                	jal	798 <_start-0x7ffff868>
     58a:	0000d603          	lhu	a2,0(ra)
     58e:	0000                	unimp
     590:	6815                	lui	a6,0x5
     592:	0001                	nop
     594:	4d00                	lw	s0,24(a0)
     596:	0002                	c.slli64	zero
     598:	1200                	addi	s0,sp,288
     59a:	0401                	addi	s0,s0,0
     59c:	0000                	unimp
     59e:	2c01                	jal	7ae <_start-0x7ffff852>
     5a0:	0003ac03          	lw	s8,0(t2)
     5a4:	ec00                	fsw	fs0,24(s0)
     5a6:	0000000f          	fence	unknown,unknown
     5aa:	8015                	srli	s0,s0,0x5
     5ac:	0001                	nop
     5ae:	6300                	flw	fs0,0(a4)
     5b0:	0002                	c.slli64	zero
     5b2:	1600                	addi	s0,sp,800
     5b4:	006e                	c.slli	zero,0x1b
     5b6:	0000                	unimp
     5b8:	2d01                	jal	bc8 <_start-0x7ffff438>
     5ba:	0000d603          	lhu	a2,0(ra)
     5be:	0000                	unimp
     5c0:	9815                	andi	s0,s0,-27
     5c2:	0001                	nop
     5c4:	7d00                	flw	fs0,56(a0)
     5c6:	0002                	c.slli64	zero
     5c8:	1200                	addi	s0,sp,288
     5ca:	0401                	addi	s0,s0,0
     5cc:	0000                	unimp
     5ce:	2d01                	jal	bde <_start-0x7ffff422>
     5d0:	0003ac03          	lw	s8,0(t2)
     5d4:	0100                	addi	s0,sp,128
     5d6:	0010                	0x10
     5d8:	0000                	unimp
     5da:	b015                	j	fffffdfe <__global_pointer$+0x7fffc196>
     5dc:	0001                	nop
     5de:	4d00                	lw	s0,24(a0)
     5e0:	12000003          	lb	zero,288(zero) # 120 <_start-0x7ffffee0>
     5e4:	0345                	addi	t1,t1,17
     5e6:	0000                	unimp
     5e8:	2e01                	jal	8f8 <_start-0x7ffff708>
     5ea:	0003b303          	0x3b303
     5ee:	1600                	addi	s0,sp,800
     5f0:	0010                	0x10
     5f2:	1200                	addi	s0,sp,288
     5f4:	03e5                	addi	t2,t2,25
     5f6:	0000                	unimp
     5f8:	2e01                	jal	908 <_start-0x7ffff6f8>
     5fa:	0003b303          	0x3b303
     5fe:	3400                	fld	fs0,40(s0)
     600:	0010                	0x10
     602:	1200                	addi	s0,sp,288
     604:	000003af          	0x3af
     608:	2e01                	jal	918 <_start-0x7ffff6e8>
     60a:	0003b303          	0x3b303
     60e:	5e00                	lw	s0,56(a2)
     610:	0010                	0x10
     612:	1200                	addi	s0,sp,288
     614:	0361                	addi	t1,t1,24
     616:	0000                	unimp
     618:	2e01                	jal	928 <_start-0x7ffff6d8>
     61a:	0003b303          	0x3b303
     61e:	8300                	0x8300
     620:	0010                	0x10
     622:	1200                	addi	s0,sp,288
     624:	03ca                	slli	t2,t2,0x12
     626:	0000                	unimp
     628:	2e01                	jal	938 <_start-0x7ffff6c8>
     62a:	0003b303          	0x3b303
     62e:	a600                	fsd	fs0,8(a2)
     630:	0010                	0x10
     632:	1700                	addi	s0,sp,928
     634:	01c8                	addi	a0,sp,196
     636:	0000                	unimp
     638:	2012                	fld	ft0,256(sp)
     63a:	01000003          	lb	zero,16(zero) # 10 <_start-0x7ffffff0>
     63e:	032e                	slli	t1,t1,0xb
     640:	000003b3          	add	t2,zero,zero
     644:	10c4                	addi	s1,sp,100
     646:	0000                	unimp
     648:	aa12                	fsd	ft4,272(sp)
     64a:	01000003          	lb	zero,16(zero) # 10 <_start-0x7ffffff0>
     64e:	032e                	slli	t1,t1,0xb
     650:	000003b3          	add	t2,zero,zero
     654:	10e6                	slli	ra,ra,0x39
     656:	0000                	unimp
     658:	b612                	fsd	ft4,296(sp)
     65a:	0002                	c.slli64	zero
     65c:	0100                	addi	s0,sp,128
     65e:	032e                	slli	t1,t1,0xb
     660:	000003b3          	add	t2,zero,zero
     664:	110a                	slli	sp,sp,0x22
     666:	0000                	unimp
     668:	b112                	fsd	ft4,160(sp)
     66a:	0002                	c.slli64	zero
     66c:	0100                	addi	s0,sp,128
     66e:	032e                	slli	t1,t1,0xb
     670:	000003b3          	add	t2,zero,zero
     674:	1128                	addi	a0,sp,168
     676:	0000                	unimp
     678:	bb12                	fsd	ft4,432(sp)
     67a:	0002                	c.slli64	zero
     67c:	0100                	addi	s0,sp,128
     67e:	032e                	slli	t1,t1,0xb
     680:	000003b3          	add	t2,zero,zero
     684:	1146                	slli	sp,sp,0x31
     686:	0000                	unimp
     688:	ac12                	fsd	ft4,24(sp)
     68a:	0002                	c.slli64	zero
     68c:	0100                	addi	s0,sp,128
     68e:	032e                	slli	t1,t1,0xb
     690:	000003b3          	add	t2,zero,zero
     694:	11a4                	addi	s1,sp,232
     696:	0000                	unimp
     698:	5f14                	lw	a3,56(a4)
     69a:	6d5f 0100 032e      	0x32e01006d5f
     6a0:	000003b3          	add	t2,zero,zero
     6a4:	11f8                	addi	a4,sp,236
     6a6:	0000                	unimp
     6a8:	0000                	unimp
     6aa:	e815                	bnez	s0,6de <_start-0x7ffff922>
     6ac:	0001                	nop
     6ae:	9500                	0x9500
     6b0:	16000003          	lb	zero,352(zero) # 160 <_start-0x7ffffea0>
     6b4:	02c0                	addi	s0,sp,324
     6b6:	0000                	unimp
     6b8:	2f01                	jal	dc8 <_start-0x7ffff238>
     6ba:	00002c03          	lw	s8,0(zero) # 0 <_start-0x80000000>
     6be:	1800                	addi	s0,sp,48
     6c0:	7c16                	flw	fs8,100(sp)
     6c2:	01000003          	lb	zero,16(zero) # 10 <_start-0x7ffffff0>
     6c6:	03ac032f          	0x3ac032f
     6ca:	0000                	unimp
     6cc:	9316                	add	t1,t1,t0
     6ce:	01000003          	lb	zero,16(zero) # 10 <_start-0x7ffffff0>
     6d2:	03ac032f          	0x3ac032f
     6d6:	0000                	unimp
     6d8:	2e16                	fld	ft8,320(sp)
     6da:	01000003          	lb	zero,16(zero) # 10 <_start-0x7ffffff0>
     6de:	03ac032f          	0x3ac032f
     6e2:	0000                	unimp
     6e4:	0916                	slli	s2,s2,0x5
     6e6:	01000003          	lb	zero,16(zero) # 10 <_start-0x7ffffff0>
     6ea:	03b3032f          	0x3b3032f
     6ee:	0000                	unimp
     6f0:	0000                	unimp
     6f2:	3819                	jal	ffffff08 <__global_pointer$+0x7fffc2a0>
     6f4:	0015                	c.nop	5
     6f6:	1c80                	addi	s0,sp,624
     6f8:	0000                	unimp
     6fa:	1600                	addi	s0,sp,800
     6fc:	0000                	unimp
     6fe:	0000                	unimp
     700:	2f01                	jal	e10 <_start-0x7ffff1f0>
     702:	0000d603          	lhu	a2,0(ra)
     706:	0000                	unimp
     708:	0200                	addi	s0,sp,256
     70a:	0504                	addi	s1,sp,640
     70c:	0179                	addi	sp,sp,30
     70e:	0000                	unimp
     710:	0402                	c.slli64	s0
     712:	0000e407          	0xe407
     716:	0000                	unimp
     718:	00000263          	beqz	zero,71c <_start-0x7ffff8e4>
     71c:	0004                	0x4
     71e:	000002f3          	0x2f3
     722:	0104                	addi	s1,sp,128
     724:	0182                	c.slli64	gp
     726:	0000                	unimp
     728:	430c                	lw	a1,0(a4)
     72a:	0004                	0x4
     72c:	f600                	fsw	fs0,40(a2)
     72e:	0000                	unimp
     730:	4000                	lw	s0,0(s0)
     732:	0016                	c.slli	zero,0x5
     734:	b480                	fsd	fs0,40(s1)
     736:	0000                	unimp
     738:	d000                	sw	s0,32(s0)
     73a:	0012                	c.slli	zero,0x4
     73c:	0200                	addi	s0,sp,256
     73e:	0404                	addi	s1,sp,512
     740:	000008cb          	fnmsub.s	fa7,ft0,ft0,ft0,rne
     744:	00041c03          	lh	s8,0(s0) # fffe1000 <__global_pointer$+0x7ffdd398>
     748:	0200                	addi	s0,sp,256
     74a:	0d50                	addi	a2,sp,660
     74c:	0038                	addi	a4,sp,8
     74e:	0000                	unimp
     750:	0404                	addi	s1,sp,512
     752:	6905                	lui	s2,0x1
     754:	746e                	flw	fs0,248(sp)
     756:	0200                	addi	s0,sp,256
     758:	0601                	addi	a2,a2,0
     75a:	0062                	c.slli	zero,0x18
     75c:	0000                	unimp
     75e:	0802                	c.slli64	a6
     760:	7405                	lui	s0,0xfffe1
     762:	0001                	nop
     764:	0500                	addi	s0,sp,640
     766:	00c8                	addi	a0,sp,68
     768:	0000                	unimp
     76a:	16014a03          	lbu	s4,352(sp)
     76e:	005f 0000 4d06      	0x4d060000005f
     774:	0000                	unimp
     776:	0200                	addi	s0,sp,256
     778:	0801                	addi	a6,a6,0
     77a:	0060                	addi	s0,sp,12
     77c:	0000                	unimp
     77e:	0402                	c.slli64	s0
     780:	0000e907          	0xe907
     784:	0200                	addi	s0,sp,256
     786:	0708                	addi	a0,sp,896
     788:	00df 0000 0202      	0x202000000df
     78e:	00008c07          	0x8c07
     792:	0700                	addi	s0,sp,896
     794:	005a                	c.slli	zero,0x16
     796:	0000                	unimp
     798:	0000008b          	0x8b
     79c:	6608                	flw	fa0,8(a2)
     79e:	0000                	unimp
     7a0:	ff00                	fsw	fs0,56(a4)
     7a2:	0600                	addi	s0,sp,768
     7a4:	0000007b          	0x7b
     7a8:	d009                	beqz	s0,6aa <_start-0x7ffff956>
     7aa:	0000                	unimp
     7ac:	0500                	addi	s0,sp,640
     7ae:	163c                	addi	a5,sp,808
     7b0:	0000008b          	0x8b
     7b4:	00028703          	lb	a4,0(t0) # 800020c0 <memset+0xb4>
     7b8:	0400                	addi	s0,sp,512
     7ba:	0f45                	addi	t5,t5,17
     7bc:	0025                	c.nop	9
     7be:	0000                	unimp
     7c0:	040a                	slli	s0,s0,0x2
     7c2:	4a04                	lw	s1,16(a2)
     7c4:	0000e203          	0xe203
     7c8:	0b00                	addi	s0,sp,400
     7ca:	00da                	slli	ra,ra,0x16
     7cc:	0000                	unimp
     7ce:	5104                	lw	s1,32(a0)
     7d0:	660e                	flw	fa2,192(sp)
     7d2:	0000                	unimp
     7d4:	0400                	addi	s0,sp,512
     7d6:	0c000917          	auipc	s2,0xc000
     7da:	7865                	lui	a6,0xffff9
     7dc:	0070                	addi	a2,sp,12
     7de:	5204                	lw	s1,32(a2)
     7e0:	660e                	flw	fa2,192(sp)
     7e2:	0000                	unimp
     7e4:	0400                	addi	s0,sp,512
     7e6:	0108                	addi	a0,sp,128
     7e8:	0b00                	addi	s0,sp,400
     7ea:	0781                	addi	a5,a5,0
     7ec:	0000                	unimp
     7ee:	5304                	lw	s1,32(a4)
     7f0:	660e                	flw	fa2,192(sp)
     7f2:	0000                	unimp
     7f4:	0400                	addi	s0,sp,512
     7f6:	0001                	nop
     7f8:	0000                	unimp
     7fa:	7b0d                	lui	s6,0xfffe3
     7fc:	0002                	c.slli64	zero
     7fe:	0400                	addi	s0,sp,512
     800:	4704                	lw	s1,8(a4)
     802:	00010807          	0x10807
     806:	0e00                	addi	s0,sp,784
     808:	6c66                	flw	fs8,88(sp)
     80a:	0074                	addi	a3,sp,12
     80c:	4904                	lw	s1,16(a0)
     80e:	9c0a                	add	s8,s8,sp
     810:	0000                	unimp
     812:	0f00                	addi	s0,sp,912
     814:	0239                	addi	tp,tp,14
     816:	0000                	unimp
     818:	5504                	lw	s1,40(a0)
     81a:	a805                	j	84a <_start-0x7ffff7b6>
     81c:	0000                	unimp
     81e:	0000                	unimp
     820:	3b10                	fld	fa2,48(a4)
     822:	0004                	0x4
     824:	0100                	addi	s0,sp,128
     826:	002c0123          	sb	sp,2(s8)
     82a:	0000                	unimp
     82c:	1640                	addi	s0,sp,804
     82e:	8000                	0x8000
     830:	00b4                	addi	a3,sp,72
     832:	0000                	unimp
     834:	9c01                	0x9c01
     836:	0258                	addi	a4,sp,260
     838:	0000                	unimp
     83a:	6111                	addi	sp,sp,256
     83c:	0100                	addi	s0,sp,128
     83e:	009c1123          	sh	s1,2(s8)
     842:	0000                	unimp
     844:	1226                	slli	tp,tp,0x29
     846:	0000                	unimp
     848:	6211                	lui	tp,0x4
     84a:	0100                	addi	s0,sp,128
     84c:	009c1b23          	sh	s1,22(s8)
     850:	0000                	unimp
     852:	1249                	addi	tp,tp,-14
     854:	0000                	unimp
     856:	2812                	fld	fa6,256(sp)
     858:	0000                	unimp
     85a:	0100                	addi	s0,sp,128
     85c:	0325                	addi	t1,t1,9
     85e:	0038                	addi	a4,sp,8
     860:	0000                	unimp
     862:	126c                	addi	a1,sp,300
     864:	0000                	unimp
     866:	0002a713          	slti	a4,t0,0
     86a:	0100                	addi	s0,sp,128
     86c:	0325                	addi	t1,t1,9
     86e:	0038                	addi	a4,sp,8
     870:	0000                	unimp
     872:	1400                	addi	s0,sp,544
     874:	5f41                	li	t5,-16
     876:	26010063          	beqz	sp,ad6 <_start-0x7ffff52a>
     87a:	00025803          	lhu	a6,0(tp) # 4000 <_start-0x7fffc000>
     87e:	1500                	addi	s0,sp,672
     880:	5f41                	li	t5,-16
     882:	26010073          	0x26010073
     886:	00025803          	lhu	a6,0(tp) # 0 <_start-0x80000000>
     88a:	8c00                	0x8c00
     88c:	0012                	c.slli	zero,0x4
     88e:	1600                	addi	s0,sp,800
     890:	5f41                	li	t5,-16
     892:	0065                	c.nop	25
     894:	2601                	jal	b94 <_start-0x7ffff46c>
     896:	00025803          	lhu	a6,0(tp) # 0 <_start-0x80000000>
     89a:	0600                	addi	s0,sp,768
     89c:	007d                	c.nop	31
     89e:	ff08                	fsw	fa0,56(a4)
     8a0:	9f1a                	add	t5,t5,t1
     8a2:	4116                	lw	sp,68(sp)
     8a4:	665f 0100 0326      	0x3260100665f
     8aa:	025f 0000 5c01      	0x5c010000025f
     8b0:	4214                	lw	a3,0(a2)
     8b2:	635f 0100 0327      	0x3270100635f
     8b8:	0258                	addi	a4,sp,260
     8ba:	0000                	unimp
     8bc:	4216                	lw	tp,68(sp)
     8be:	735f 0100 0327      	0x3270100735f
     8c4:	0258                	addi	a4,sp,260
     8c6:	0000                	unimp
     8c8:	5b01                	li	s6,-32
     8ca:	4216                	lw	tp,68(sp)
     8cc:	655f 0100 0327      	0x3270100655f
     8d2:	0258                	addi	a4,sp,260
     8d4:	0000                	unimp
     8d6:	7e06                	flw	ft8,96(sp)
     8d8:	0800                	addi	s0,sp,16
     8da:	1aff                	0x1aff
     8dc:	169f 5f42 0066      	0x665f42169f
     8e2:	2701                	jal	fe2 <_start-0x7ffff01e>
     8e4:	00025f03          	lhu	t5,0(tp) # 0 <_start-0x80000000>
     8e8:	0100                	addi	s0,sp,128
     8ea:	155f 0072 2801      	0x28010072155f
     8f0:	00002c0b          	0x2c0b
     8f4:	e100                	fsw	fs0,0(a0)
     8f6:	0012                	c.slli	zero,0x4
     8f8:	1700                	addi	s0,sp,928
     8fa:	0200                	addi	s0,sp,256
     8fc:	0000                	unimp
     8fe:	000001f7          	0x1f7
     902:	6e18                	flw	fa4,24(a2)
     904:	0000                	unimp
     906:	0100                	addi	s0,sp,128
     908:	00e2032b          	0xe2032b
     90c:	0000                	unimp
     90e:	1700                	addi	s0,sp,928
     910:	0220                	addi	s0,sp,264
     912:	0000                	unimp
     914:	020d                	addi	tp,tp,3
     916:	0000                	unimp
     918:	6e18                	flw	fa4,24(a2)
     91a:	0000                	unimp
     91c:	0100                	addi	s0,sp,128
     91e:	032c                	addi	a1,sp,392
     920:	00e2                	slli	ra,ra,0x18
     922:	0000                	unimp
     924:	1900                	addi	s0,sp,176
     926:	021f 0000 2a18      	0x2a180000021f
     92c:	0004                	0x4
     92e:	0100                	addi	s0,sp,128
     930:	032d                	addi	t1,t1,11
     932:	0038                	addi	a4,sp,8
     934:	0000                	unimp
     936:	1900                	addi	s0,sp,176
     938:	0231                	addi	tp,tp,12
     93a:	0000                	unimp
     93c:	2a18                	fld	fa4,16(a2)
     93e:	0004                	0x4
     940:	0100                	addi	s0,sp,128
     942:	032d                	addi	t1,t1,11
     944:	0038                	addi	a4,sp,8
     946:	0000                	unimp
     948:	1a00                	addi	s0,sp,304
     94a:	0238                	addi	a4,sp,264
     94c:	0000                	unimp
     94e:	7012                	flw	ft0,36(sp)
     950:	0004                	0x4
     952:	0100                	addi	s0,sp,128
     954:	032d                	addi	t1,t1,11
     956:	0038                	addi	a4,sp,8
     958:	0000                	unimp
     95a:	12f5                	addi	t0,t0,-3
     95c:	0000                	unimp
     95e:	8212                	mv	tp,tp
     960:	0004                	0x4
     962:	0100                	addi	s0,sp,128
     964:	032d                	addi	t1,t1,11
     966:	0038                	addi	a4,sp,8
     968:	0000                	unimp
     96a:	0000133f 04020000 	0x40200000000133f
     972:	7905                	lui	s2,0xfffe1
     974:	0001                	nop
     976:	0200                	addi	s0,sp,256
     978:	0704                	addi	s1,sp,896
     97a:	00e4                	addi	s1,sp,76
     97c:	0000                	unimp
     97e:	a800                	fsd	fs0,16(s0)
     980:	04000003          	lb	zero,64(zero) # 40 <_start-0x7fffffc0>
     984:	7b00                	flw	fs0,48(a4)
     986:	0004                	0x4
     988:	0400                	addi	s0,sp,512
     98a:	8201                	c.srli64	a2
     98c:	0001                	nop
     98e:	0c00                	addi	s0,sp,528
     990:	04dd                	addi	s1,s1,23
     992:	0000                	unimp
     994:	00f6                	slli	ra,ra,0x1d
     996:	0000                	unimp
     998:	16f4                	addi	a3,sp,876
     99a:	8000                	0x8000
     99c:	02f8                	addi	a4,sp,332
     99e:	0000                	unimp
     9a0:	000015ef          	jal	a1,19a0 <_start-0x7fffe660>
     9a4:	0402                	c.slli64	s0
     9a6:	cb04                	sw	s1,16(a4)
     9a8:	0008                	0x8
     9aa:	0300                	addi	s0,sp,384
     9ac:	0504                	addi	s1,sp,640
     9ae:	6e69                	lui	t3,0x1a
     9b0:	0074                	addi	a3,sp,12
     9b2:	0102                	c.slli64	sp
     9b4:	6206                	flw	ft4,64(sp)
     9b6:	0000                	unimp
     9b8:	0200                	addi	s0,sp,256
     9ba:	0508                	addi	a0,sp,640
     9bc:	0174                	addi	a3,sp,140
     9be:	0000                	unimp
     9c0:	c804                	sw	s1,16(s0)
     9c2:	0000                	unimp
     9c4:	0200                	addi	s0,sp,256
     9c6:	014a                	slli	sp,sp,0x12
     9c8:	5316                	lw	t1,100(sp)
     9ca:	0000                	unimp
     9cc:	0500                	addi	s0,sp,640
     9ce:	0041                	c.nop	16
     9d0:	0000                	unimp
     9d2:	0102                	c.slli64	sp
     9d4:	6008                	flw	fa0,0(s0)
     9d6:	0000                	unimp
     9d8:	0200                	addi	s0,sp,256
     9da:	0704                	addi	s1,sp,896
     9dc:	00e9                	addi	ra,ra,26
     9de:	0000                	unimp
     9e0:	0802                	c.slli64	a6
     9e2:	0000df07          	0xdf07
     9e6:	0400                	addi	s0,sp,512
     9e8:	04d0                	addi	a2,sp,580
     9ea:	0000                	unimp
     9ec:	4e02                	lw	t3,0(sp)
     9ee:	1601                	addi	a2,a2,-32
     9f0:	0075                	c.nop	29
     9f2:	0000                	unimp
     9f4:	0202                	c.slli64	tp
     9f6:	00008c07          	0x8c07
     9fa:	0600                	addi	s0,sp,768
     9fc:	004e                	c.slli	zero,0x13
     9fe:	0000                	unimp
     a00:	008c                	addi	a1,sp,64
     a02:	0000                	unimp
     a04:	00005a07          	0x5a07
     a08:	ff00                	fsw	fs0,56(a4)
     a0a:	0500                	addi	s0,sp,640
     a0c:	007c                	addi	a5,sp,12
     a0e:	0000                	unimp
     a10:	d008                	sw	a0,32(s0)
     a12:	0000                	unimp
     a14:	0400                	addi	s0,sp,512
     a16:	163c                	addi	a5,sp,808
     a18:	008c                	addi	a1,sp,64
     a1a:	0000                	unimp
     a1c:	8709                	srai	a4,a4,0x2
     a1e:	0002                	c.slli64	zero
     a20:	0300                	addi	s0,sp,384
     a22:	0f45                	addi	t5,t5,17
     a24:	0025                	c.nop	9
     a26:	0000                	unimp
     a28:	040a                	slli	s0,s0,0x2
     a2a:	e3034a03          	lbu	s4,-464(t1)
     a2e:	0000                	unimp
     a30:	0b00                	addi	s0,sp,400
     a32:	00da                	slli	ra,ra,0x16
     a34:	0000                	unimp
     a36:	5a0e5103          	lhu	sp,1440(t3) # 1a5a0 <_start-0x7ffe5a60>
     a3a:	0000                	unimp
     a3c:	0400                	addi	s0,sp,512
     a3e:	0c000917          	auipc	s2,0xc000
     a42:	7865                	lui	a6,0xffff9
     a44:	0070                	addi	a2,sp,12
     a46:	5a0e5203          	lhu	tp,1440(t3)
     a4a:	0000                	unimp
     a4c:	0400                	addi	s0,sp,512
     a4e:	0108                	addi	a0,sp,128
     a50:	0b00                	addi	s0,sp,400
     a52:	0781                	addi	a5,a5,0
     a54:	0000                	unimp
     a56:	5a0e5303          	lhu	t1,1440(t3)
     a5a:	0000                	unimp
     a5c:	0400                	addi	s0,sp,512
     a5e:	0001                	nop
     a60:	0000                	unimp
     a62:	7b0d                	lui	s6,0xfffe3
     a64:	0002                	c.slli64	zero
     a66:	0400                	addi	s0,sp,512
     a68:	09074703          	lbu	a4,144(a4)
     a6c:	0001                	nop
     a6e:	0e00                	addi	s0,sp,784
     a70:	6c66                	flw	fs8,88(sp)
     a72:	0074                	addi	a3,sp,12
     a74:	9d0a4903          	lbu	s2,-1584(s4)
     a78:	0000                	unimp
     a7a:	0f00                	addi	s0,sp,912
     a7c:	0239                	addi	tp,tp,14
     a7e:	0000                	unimp
     a80:	a9055503          	lhu	a0,-1392(a0)
     a84:	0000                	unimp
     a86:	0000                	unimp
     a88:	2410                	fld	fa2,8(s0)
     a8a:	0005                	c.nop	1
     a8c:	0100                	addi	s0,sp,128
     a8e:	009d0123          	sb	s1,2(s10)
     a92:	0000                	unimp
     a94:	16f4                	addi	a3,sp,876
     a96:	8000                	0x8000
     a98:	02f8                	addi	a4,sp,332
     a9a:	0000                	unimp
     a9c:	9c01                	0x9c01
     a9e:	039d                	addi	t2,t2,7
     aa0:	0000                	unimp
     aa2:	6111                	addi	sp,sp,256
     aa4:	0100                	addi	s0,sp,128
     aa6:	009d1223          	sh	s1,4(s10)
     aaa:	0000                	unimp
     aac:	0000136b          	0x136b
     ab0:	6211                	lui	tp,0x4
     ab2:	0100                	addi	s0,sp,128
     ab4:	009d1c23          	sh	s1,24(s10)
     ab8:	0000                	unimp
     aba:	13c4                	addi	s1,sp,484
     abc:	0000                	unimp
     abe:	2812                	fld	fa6,256(sp)
     ac0:	0000                	unimp
     ac2:	0100                	addi	s0,sp,128
     ac4:	0325                	addi	t1,t1,9
     ac6:	002c                	addi	a1,sp,8
     ac8:	0000                	unimp
     aca:	00001423          	sh	zero,8(zero) # 8 <_start-0x7ffffff8>
     ace:	0002a713          	slti	a4,t0,0
     ad2:	0100                	addi	s0,sp,128
     ad4:	0325                	addi	t1,t1,9
     ad6:	002c                	addi	a1,sp,8
     ad8:	0000                	unimp
     ada:	1400                	addi	s0,sp,544
     adc:	5f41                	li	t5,-16
     ade:	26010063          	beqz	sp,d3e <_start-0x7ffff2c2>
     ae2:	00039d03          	lh	s10,0(t2)
     ae6:	4300                	lw	s0,0(a4)
     ae8:	0014                	0x14
     aea:	1400                	addi	s0,sp,544
     aec:	5f41                	li	t5,-16
     aee:	26010073          	0x26010073
     af2:	00039d03          	lh	s10,0(t2)
     af6:	6d00                	flw	fs0,24(a0)
     af8:	0014                	0x14
     afa:	1400                	addi	s0,sp,544
     afc:	5f41                	li	t5,-16
     afe:	0065                	c.nop	25
     b00:	2601                	jal	e00 <_start-0x7ffff200>
     b02:	00039d03          	lh	s10,0(t2)
     b06:	8500                	0x8500
     b08:	0014                	0x14
     b0a:	1400                	addi	s0,sp,544
     b0c:	5f41                	li	t5,-16
     b0e:	0066                	c.slli	zero,0x19
     b10:	2601                	jal	e10 <_start-0x7ffff1f0>
     b12:	0003a403          	lw	s0,0(t2)
     b16:	0700                	addi	s0,sp,896
     b18:	0015                	c.nop	5
     b1a:	1400                	addi	s0,sp,544
     b1c:	5f42                	lw	t5,48(sp)
     b1e:	27010063          	beq	sp,a6,d7e <_start-0x7ffff282>
     b22:	00039d03          	lh	s10,0(t2)
     b26:	6c00                	flw	fs0,24(s0)
     b28:	0015                	c.nop	5
     b2a:	1400                	addi	s0,sp,544
     b2c:	5f42                	lw	t5,48(sp)
     b2e:	27010073          	0x27010073
     b32:	00039d03          	lh	s10,0(t2)
     b36:	ac00                	fsd	fs0,24(s0)
     b38:	0015                	c.nop	5
     b3a:	1400                	addi	s0,sp,544
     b3c:	5f42                	lw	t5,48(sp)
     b3e:	0065                	c.nop	25
     b40:	2701                	jal	1240 <_start-0x7fffedc0>
     b42:	00039d03          	lh	s10,0(t2)
     b46:	d400                	sw	s0,40(s0)
     b48:	0015                	c.nop	5
     b4a:	1400                	addi	s0,sp,544
     b4c:	5f42                	lw	t5,48(sp)
     b4e:	0066                	c.slli	zero,0x19
     b50:	2701                	jal	1250 <_start-0x7fffedb0>
     b52:	0003a403          	lw	s0,0(t2)
     b56:	2700                	fld	fs0,8(a4)
     b58:	0016                	c.slli	zero,0x5
     b5a:	1400                	addi	s0,sp,544
     b5c:	5f52                	lw	t5,52(sp)
     b5e:	28010063          	beqz	sp,dde <_start-0x7ffff222>
     b62:	00039d03          	lh	s10,0(t2)
     b66:	7700                	flw	fs0,40(a4)
     b68:	0016                	c.slli	zero,0x5
     b6a:	1400                	addi	s0,sp,544
     b6c:	5f52                	lw	t5,52(sp)
     b6e:	28010073          	0x28010073
     b72:	00039d03          	lh	s10,0(t2)
     b76:	a200                	fsd	fs0,0(a2)
     b78:	0016                	c.slli	zero,0x5
     b7a:	1400                	addi	s0,sp,544
     b7c:	5f52                	lw	t5,52(sp)
     b7e:	0065                	c.nop	25
     b80:	2801                	jal	b90 <_start-0x7ffff470>
     b82:	00039d03          	lh	s10,0(t2)
     b86:	f600                	fsw	fs0,40(a2)
     b88:	0016                	c.slli	zero,0x5
     b8a:	1400                	addi	s0,sp,544
     b8c:	5f52                	lw	t5,52(sp)
     b8e:	0066                	c.slli	zero,0x19
     b90:	2801                	jal	ba0 <_start-0x7ffff460>
     b92:	0003a403          	lw	s0,0(t2)
     b96:	9000                	0x9000
     b98:	14000017          	auipc	zero,0x14000
     b9c:	0072                	c.slli	zero,0x1c
     b9e:	2901                	jal	fae <_start-0x7ffff052>
     ba0:	9d0a                	add	s10,s10,sp
     ba2:	0000                	unimp
     ba4:	f400                	fsw	fs0,40(s0)
     ba6:	15000017          	auipc	zero,0x15000
     baa:	0260                	addi	s0,sp,268
     bac:	0000                	unimp
     bae:	0240                	addi	s0,sp,260
     bb0:	0000                	unimp
     bb2:	6e16                	flw	ft8,68(sp)
     bb4:	0000                	unimp
     bb6:	0100                	addi	s0,sp,128
     bb8:	032c                	addi	a1,sp,392
     bba:	000000e3          	beqz	zero,13ba <_start-0x7fffec46>
     bbe:	1500                	addi	s0,sp,672
     bc0:	0288                	addi	a0,sp,320
     bc2:	0000                	unimp
     bc4:	025a                	slli	tp,tp,0x16
     bc6:	0000                	unimp
     bc8:	0112                	slli	sp,sp,0x4
     bca:	0004                	0x4
     bcc:	0100                	addi	s0,sp,128
     bce:	032c                	addi	a1,sp,392
     bd0:	039d                	addi	t2,t2,7
     bd2:	0000                	unimp
     bd4:	1819                	addi	a6,a6,-26
     bd6:	0000                	unimp
     bd8:	1500                	addi	s0,sp,672
     bda:	02a0                	addi	s0,sp,328
     bdc:	0000                	unimp
     bde:	0270                	addi	a2,sp,268
     be0:	0000                	unimp
     be2:	6e16                	flw	ft8,68(sp)
     be4:	0000                	unimp
     be6:	0100                	addi	s0,sp,128
     be8:	032d                	addi	t1,t1,11
     bea:	000000e3          	beqz	zero,13ea <_start-0x7fffec16>
     bee:	1500                	addi	s0,sp,672
     bf0:	02b8                	addi	a4,sp,328
     bf2:	0000                	unimp
     bf4:	028a                	slli	t0,t0,0x2
     bf6:	0000                	unimp
     bf8:	0112                	slli	sp,sp,0x4
     bfa:	0004                	0x4
     bfc:	0100                	addi	s0,sp,128
     bfe:	032d                	addi	t1,t1,11
     c00:	039d                	addi	t2,t2,7
     c02:	0000                	unimp
     c04:	182e                	slli	a6,a6,0x2b
     c06:	0000                	unimp
     c08:	1700                	addi	s0,sp,928
     c0a:	1838                	addi	a4,sp,56
     c0c:	8000                	0x8000
     c0e:	006c                	addi	a1,sp,12
     c10:	0000                	unimp
     c12:	033e                	slli	t1,t1,0xf
     c14:	0000                	unimp
     c16:	9412                	add	s0,s0,tp
     c18:	0004                	0x4
     c1a:	0100                	addi	s0,sp,128
     c1c:	032e                	slli	t1,t1,0xb
     c1e:	03a4                	addi	s1,sp,456
     c20:	0000                	unimp
     c22:	00001843          	fmadd.s	fa6,ft0,ft0,ft0,rtz
     c26:	ad12                	fsd	ft4,152(sp)
     c28:	0004                	0x4
     c2a:	0100                	addi	s0,sp,128
     c2c:	032e                	slli	t1,t1,0xb
     c2e:	03a4                	addi	s1,sp,456
     c30:	0000                	unimp
     c32:	186c                	addi	a1,sp,60
     c34:	0000                	unimp
     c36:	d018                	sw	a4,32(s0)
     c38:	0002                	c.slli64	zero
     c3a:	1200                	addi	s0,sp,288
     c3c:	04d8                	addi	a4,sp,580
     c3e:	0000                	unimp
     c40:	2e01                	jal	f50 <_start-0x7ffff0b0>
     c42:	0003a403          	lw	s0,0(t2)
     c46:	9100                	0x9100
     c48:	0018                	0x18
     c4a:	1200                	addi	s0,sp,288
     c4c:	0000050b          	0x50b
     c50:	2e01                	jal	f60 <_start-0x7ffff0a0>
     c52:	0003a403          	lw	s0,0(t2)
     c56:	a400                	fsd	fs0,8(s0)
     c58:	0018                	0x18
     c5a:	1200                	addi	s0,sp,288
     c5c:	0510                	addi	a2,sp,640
     c5e:	0000                	unimp
     c60:	2e01                	jal	f70 <_start-0x7ffff090>
     c62:	0003a403          	lw	s0,0(t2)
     c66:	d200                	sw	s0,32(a2)
     c68:	0018                	0x18
     c6a:	1200                	addi	s0,sp,288
     c6c:	0515                	addi	a0,a0,5
     c6e:	0000                	unimp
     c70:	2e01                	jal	f80 <_start-0x7ffff080>
     c72:	0003a403          	lw	s0,0(t2)
     c76:	e500                	fsw	fs0,8(a0)
     c78:	0018                	0x18
     c7a:	1200                	addi	s0,sp,288
     c7c:	000004cb          	fnmsub.s	fs1,ft0,ft0,ft0,rne
     c80:	2e01                	jal	f90 <_start-0x7ffff070>
     c82:	00006803          	0x6803
     c86:	0300                	addi	s0,sp,384
     c88:	0019                	c.nop	6
     c8a:	1200                	addi	s0,sp,288
     c8c:	051f 0000 2e01      	0x2e010000051f
     c92:	00006803          	0x6803
     c96:	1600                	addi	s0,sp,800
     c98:	0019                	c.nop	6
     c9a:	1200                	addi	s0,sp,288
     c9c:	04c6                	slli	s1,s1,0x11
     c9e:	0000                	unimp
     ca0:	2e01                	jal	fb0 <_start-0x7ffff050>
     ca2:	00006803          	0x6803
     ca6:	2900                	fld	fs0,16(a0)
     ca8:	0019                	c.nop	6
     caa:	1200                	addi	s0,sp,288
     cac:	051a                	slli	a0,a0,0x6
     cae:	0000                	unimp
     cb0:	2e01                	jal	fc0 <_start-0x7ffff040>
     cb2:	00006803          	0x6803
     cb6:	3c00                	fld	fs0,56(s0)
     cb8:	0019                	c.nop	6
     cba:	0000                	unimp
     cbc:	1500                	addi	s0,sp,672
     cbe:	02f0                	addi	a2,sp,332
     cc0:	0000                	unimp
     cc2:	0386                	slli	t2,t2,0x1
     cc4:	0000                	unimp
     cc6:	c016                	sw	t0,0(sp)
     cc8:	0002                	c.slli64	zero
     cca:	0100                	addi	s0,sp,128
     ccc:	002c032f          	0x2c032f
     cd0:	0000                	unimp
     cd2:	1619                	addi	a2,a2,-26
     cd4:	037c                	addi	a5,sp,396
     cd6:	0000                	unimp
     cd8:	2f01                	jal	13e8 <_start-0x7fffec18>
     cda:	00039d03          	lh	s10,0(t2)
     cde:	1600                	addi	s0,sp,800
     ce0:	00000393          	li	t2,0
     ce4:	2f01                	jal	13f4 <_start-0x7fffec0c>
     ce6:	00039d03          	lh	s10,0(t2)
     cea:	1600                	addi	s0,sp,800
     cec:	032e                	slli	t1,t1,0xb
     cee:	0000                	unimp
     cf0:	2f01                	jal	1400 <_start-0x7fffec00>
     cf2:	00039d03          	lh	s10,0(t2)
     cf6:	1600                	addi	s0,sp,800
     cf8:	0309                	addi	t1,t1,2
     cfa:	0000                	unimp
     cfc:	2f01                	jal	140c <_start-0x7fffebf4>
     cfe:	0003a403          	lw	s0,0(t2)
     d02:	0000                	unimp
     d04:	1a00                	addi	s0,sp,304
     d06:	19a8                	addi	a0,sp,248
     d08:	8000                	0x8000
     d0a:	001c                	0x1c
     d0c:	0000                	unimp
     d0e:	0016                	c.slli	zero,0x5
     d10:	0000                	unimp
     d12:	0100                	addi	s0,sp,128
     d14:	00e3032f          	0xe3032f
     d18:	0000                	unimp
     d1a:	0000                	unimp
     d1c:	0402                	c.slli64	s0
     d1e:	7905                	lui	s2,0xfffe1
     d20:	0001                	nop
     d22:	0200                	addi	s0,sp,256
     d24:	0704                	addi	s1,sp,896
     d26:	00e4                	addi	s1,sp,76
     d28:	0000                	unimp
     d2a:	5900                	lw	s0,48(a0)
     d2c:	04000003          	lb	zero,64(zero) # 40 <_start-0x7fffffc0>
     d30:	f500                	fsw	fs0,40(a0)
     d32:	0005                	c.nop	1
     d34:	0400                	addi	s0,sp,512
     d36:	8201                	c.srli64	a2
     d38:	0001                	nop
     d3a:	0c00                	addi	s0,sp,528
     d3c:	052d                	addi	a0,a0,11
     d3e:	0000                	unimp
     d40:	00f6                	slli	ra,ra,0x1d
     d42:	0000                	unimp
     d44:	19ec                	addi	a1,sp,252
     d46:	8000                	0x8000
     d48:	044c                	addi	a1,sp,516
     d4a:	0000                	unimp
     d4c:	1d75                	addi	s10,s10,-3
     d4e:	0000                	unimp
     d50:	0402                	c.slli64	s0
     d52:	cb04                	sw	s1,16(a4)
     d54:	0008                	0x8
     d56:	0300                	addi	s0,sp,384
     d58:	0504                	addi	s1,sp,640
     d5a:	6e69                	lui	t3,0x1a
     d5c:	0074                	addi	a3,sp,12
     d5e:	0102                	c.slli64	sp
     d60:	6206                	flw	ft4,64(sp)
     d62:	0000                	unimp
     d64:	0200                	addi	s0,sp,256
     d66:	0508                	addi	a0,sp,640
     d68:	0174                	addi	a3,sp,140
     d6a:	0000                	unimp
     d6c:	c804                	sw	s1,16(s0)
     d6e:	0000                	unimp
     d70:	0200                	addi	s0,sp,256
     d72:	014a                	slli	sp,sp,0x12
     d74:	5316                	lw	t1,100(sp)
     d76:	0000                	unimp
     d78:	0500                	addi	s0,sp,640
     d7a:	0041                	c.nop	16
     d7c:	0000                	unimp
     d7e:	0102                	c.slli64	sp
     d80:	6008                	flw	fa0,0(s0)
     d82:	0000                	unimp
     d84:	0200                	addi	s0,sp,256
     d86:	0704                	addi	s1,sp,896
     d88:	00e9                	addi	ra,ra,26
     d8a:	0000                	unimp
     d8c:	0802                	c.slli64	a6
     d8e:	0000df07          	0xdf07
     d92:	0200                	addi	s0,sp,256
     d94:	0702                	c.slli64	a4
     d96:	008c                	addi	a1,sp,64
     d98:	0000                	unimp
     d9a:	4e06                	lw	t3,64(sp)
     d9c:	0000                	unimp
     d9e:	7f00                	flw	fs0,56(a4)
     da0:	0000                	unimp
     da2:	0700                	addi	s0,sp,896
     da4:	005a                	c.slli	zero,0x16
     da6:	0000                	unimp
     da8:	00ff                	0xff
     daa:	6f05                	lui	t5,0x1
     dac:	0000                	unimp
     dae:	0800                	addi	s0,sp,16
     db0:	00d0                	addi	a2,sp,68
     db2:	0000                	unimp
     db4:	3c04                	fld	fs1,56(s0)
     db6:	7f16                	flw	ft10,100(sp)
     db8:	0000                	unimp
     dba:	0900                	addi	s0,sp,144
     dbc:	00000287          	0x287
     dc0:	250f4503          	lbu	a0,592(t5) # 1250 <_start-0x7fffedb0>
     dc4:	0000                	unimp
     dc6:	0a00                	addi	s0,sp,272
     dc8:	0304                	addi	s1,sp,384
     dca:	034a                	slli	t1,t1,0x12
     dcc:	00d6                	slli	ra,ra,0x15
     dce:	0000                	unimp
     dd0:	0000da0b          	0xda0b
     dd4:	0300                	addi	s0,sp,384
     dd6:	0e51                	addi	t3,t3,20
     dd8:	005a                	c.slli	zero,0x16
     dda:	0000                	unimp
     ddc:	1704                	addi	s1,sp,928
     dde:	0009                	c.nop	2
     de0:	650c                	flw	fa1,8(a0)
     de2:	7078                	flw	fa4,100(s0)
     de4:	0300                	addi	s0,sp,384
     de6:	0e52                	slli	t3,t3,0x14
     de8:	005a                	c.slli	zero,0x16
     dea:	0000                	unimp
     dec:	0804                	addi	s1,sp,16
     dee:	0001                	nop
     df0:	0007810b          	0x7810b
     df4:	0300                	addi	s0,sp,384
     df6:	005a0e53          	fadd.s	ft8,fs4,ft5,rne
     dfa:	0000                	unimp
     dfc:	0104                	addi	s1,sp,128
     dfe:	0000                	unimp
     e00:	0d00                	addi	s0,sp,656
     e02:	0000027b          	0x27b
     e06:	0304                	addi	s1,sp,384
     e08:	00fc0747          	fmsub.s	fa4,fs8,fa5,ft0,rne
     e0c:	0000                	unimp
     e0e:	660e                	flw	fa2,192(sp)
     e10:	746c                	flw	fa1,108(s0)
     e12:	0300                	addi	s0,sp,384
     e14:	0a49                	addi	s4,s4,18
     e16:	0090                	addi	a2,sp,64
     e18:	0000                	unimp
     e1a:	0002390f          	0x2390f
     e1e:	0300                	addi	s0,sp,384
     e20:	0555                	addi	a0,a0,21
     e22:	009c                	addi	a5,sp,64
     e24:	0000                	unimp
     e26:	1000                	addi	s0,sp,32
     e28:	0000055b          	0x55b
     e2c:	2301                	jal	132c <_start-0x7fffecd4>
     e2e:	9001                	srli	s0,s0,0x20
     e30:	0000                	unimp
     e32:	ec00                	fsw	fs0,24(s0)
     e34:	0019                	c.nop	6
     e36:	4c80                	lw	s0,24(s1)
     e38:	0004                	0x4
     e3a:	0100                	addi	s0,sp,128
     e3c:	4e9c                	lw	a5,24(a3)
     e3e:	11000003          	lb	zero,272(zero) # 110 <_start-0x7ffffef0>
     e42:	0061                	c.nop	24
     e44:	2301                	jal	1344 <_start-0x7fffecbc>
     e46:	9012                	c.add	zero,tp
     e48:	0000                	unimp
     e4a:	4f00                	lw	s0,24(a4)
     e4c:	0019                	c.nop	6
     e4e:	1100                	addi	s0,sp,160
     e50:	0062                	c.slli	zero,0x18
     e52:	2301                	jal	1352 <_start-0x7fffecae>
     e54:	901c                	0x901c
     e56:	0000                	unimp
     e58:	7200                	flw	fs0,32(a2)
     e5a:	0019                	c.nop	6
     e5c:	1200                	addi	s0,sp,288
     e5e:	0028                	addi	a0,sp,8
     e60:	0000                	unimp
     e62:	2501                	jal	1462 <_start-0x7fffeb9e>
     e64:	00002c03          	lw	s8,0(zero) # 0 <_start-0x80000000>
     e68:	9500                	0x9500
     e6a:	0019                	c.nop	6
     e6c:	1300                	addi	s0,sp,416
     e6e:	000002a7          	0x2a7
     e72:	2501                	jal	1472 <_start-0x7fffeb8e>
     e74:	00002c03          	lw	s8,0(zero) # 0 <_start-0x80000000>
     e78:	0000                	unimp
     e7a:	4114                	lw	a3,0(a0)
     e7c:	635f 0100 0326      	0x3260100635f
     e82:	034e                	slli	t1,t1,0x13
     e84:	0000                	unimp
     e86:	4115                	li	sp,5
     e88:	735f 0100 0326      	0x3260100735f
     e8e:	034e                	slli	t1,t1,0x13
     e90:	0000                	unimp
     e92:	19f1                	addi	s3,s3,-4
     e94:	0000                	unimp
     e96:	4115                	li	sp,5
     e98:	655f 0100 0326      	0x3260100655f
     e9e:	034e                	slli	t1,t1,0x13
     ea0:	0000                	unimp
     ea2:	1a7d                	addi	s4,s4,-1
     ea4:	0000                	unimp
     ea6:	4115                	li	sp,5
     ea8:	665f 0100 0326      	0x3260100665f
     eae:	0355                	addi	t1,t1,21
     eb0:	0000                	unimp
     eb2:	1b8d                	addi	s7,s7,-29
     eb4:	0000                	unimp
     eb6:	4214                	lw	a3,0(a2)
     eb8:	635f 0100 0327      	0x3270100635f
     ebe:	034e                	slli	t1,t1,0x13
     ec0:	0000                	unimp
     ec2:	4215                	li	tp,5
     ec4:	735f 0100 0327      	0x3270100735f
     eca:	034e                	slli	t1,t1,0x13
     ecc:	0000                	unimp
     ece:	1c9d                	addi	s9,s9,-25
     ed0:	0000                	unimp
     ed2:	4215                	li	tp,5
     ed4:	655f 0100 0327      	0x3270100655f
     eda:	034e                	slli	t1,t1,0x13
     edc:	0000                	unimp
     ede:	1d44                	addi	s1,sp,692
     ee0:	0000                	unimp
     ee2:	4215                	li	tp,5
     ee4:	665f 0100 0327      	0x3270100665f
     eea:	0355                	addi	t1,t1,21
     eec:	0000                	unimp
     eee:	1e49                	addi	t3,t3,-14
     ef0:	0000                	unimp
     ef2:	5214                	lw	a3,32(a2)
     ef4:	635f 0100 0328      	0x3280100635f
     efa:	034e                	slli	t1,t1,0x13
     efc:	0000                	unimp
     efe:	5215                	li	tp,-27
     f00:	735f 0100 0328      	0x3280100735f
     f06:	034e                	slli	t1,t1,0x13
     f08:	0000                	unimp
     f0a:	1eca                	slli	t4,t4,0x32
     f0c:	0000                	unimp
     f0e:	5215                	li	tp,-27
     f10:	655f 0100 0328      	0x3280100655f
     f16:	034e                	slli	t1,t1,0x13
     f18:	0000                	unimp
     f1a:	1f6c                	addi	a1,sp,956
     f1c:	0000                	unimp
     f1e:	5215                	li	tp,-27
     f20:	665f 0100 0328      	0x3280100665f
     f26:	0355                	addi	t1,t1,21
     f28:	0000                	unimp
     f2a:	20e1                	jal	ff2 <_start-0x7ffff00e>
     f2c:	0000                	unimp
     f2e:	7215                	lui	tp,0xfffe5
     f30:	0100                	addi	s0,sp,128
     f32:	0a29                	addi	s4,s4,10
     f34:	0090                	addi	a2,sp,64
     f36:	0000                	unimp
     f38:	2279                	jal	10c6 <_start-0x7fffef3a>
     f3a:	0000                	unimp
     f3c:	0816                	slli	a6,a6,0x5
     f3e:	27000003          	lb	zero,624(zero) # 270 <_start-0x7ffffd90>
     f42:	0002                	c.slli64	zero
     f44:	1700                	addi	s0,sp,928
     f46:	006e                	c.slli	zero,0x1b
     f48:	0000                	unimp
     f4a:	2c01                	jal	115a <_start-0x7fffeea6>
     f4c:	0000d603          	lhu	a2,0(ra)
     f50:	0000                	unimp
     f52:	5016                	0x5016
     f54:	3d000003          	lb	zero,976(zero) # 3d0 <_start-0x7ffffc30>
     f58:	0002                	c.slli64	zero
     f5a:	1700                	addi	s0,sp,928
     f5c:	006e                	c.slli	zero,0x1b
     f5e:	0000                	unimp
     f60:	2d01                	jal	1570 <_start-0x7fffea90>
     f62:	0000d603          	lhu	a2,0(ra)
     f66:	0000                	unimp
     f68:	6816                	flw	fa6,68(sp)
     f6a:	87000003          	lb	zero,-1936(zero) # fffff870 <__global_pointer$+0x7fffbc08>
     f6e:	0002                	c.slli64	zero
     f70:	1800                	addi	s0,sp,48
     f72:	026c                	addi	a1,sp,268
     f74:	0000                	unimp
     f76:	2e01                	jal	1286 <_start-0x7fffed7a>
     f78:	001abc03          	0x1abc03
     f7c:	1880                	addi	s0,sp,112
     f7e:	0271                	addi	tp,tp,28
     f80:	0000                	unimp
     f82:	2e01                	jal	1292 <_start-0x7fffed6e>
     f84:	001b2803          	lw	a6,1(s6) # fffe3001 <__global_pointer$+0x7ffdf399>
     f88:	1880                	addi	s0,sp,112
     f8a:	0276                	slli	tp,tp,0x1d
     f8c:	0000                	unimp
     f8e:	2e01                	jal	129e <_start-0x7fffed62>
     f90:	001a6c03          	0x1a6c03
     f94:	1880                	addi	s0,sp,112
     f96:	00000057          	0x57
     f9a:	2e01                	jal	12aa <_start-0x7fffed56>
     f9c:	001b8803          	lb	a6,1(s7)
     fa0:	1280                	addi	s0,sp,352
     fa2:	0222                	slli	tp,tp,0x8
     fa4:	0000                	unimp
     fa6:	2e01                	jal	12b6 <_start-0x7fffed4a>
     fa8:	00002c03          	lw	s8,0(zero) # 0 <_start-0x80000000>
     fac:	9e00                	0x9e00
     fae:	0022                	c.slli	zero,0x8
     fb0:	0000                	unimp
     fb2:	a816                	fsd	ft5,16(sp)
     fb4:	f3000003          	lb	zero,-208(zero) # ffffff30 <__global_pointer$+0x7fffc2c8>
     fb8:	0002                	c.slli64	zero
     fba:	1800                	addi	s0,sp,48
     fbc:	009f 0000 2e01      	0x2e010000009f
     fc2:	001c0c03          	lb	s8,1(s8)
     fc6:	1880                	addi	s0,sp,112
     fc8:	00a4                	addi	s1,sp,72
     fca:	0000                	unimp
     fcc:	2e01                	jal	12dc <_start-0x7fffed24>
     fce:	001c9c03          	lh	s8,1(s9)
     fd2:	1880                	addi	s0,sp,112
     fd4:	00a9                	addi	ra,ra,10
     fd6:	0000                	unimp
     fd8:	2e01                	jal	12e8 <_start-0x7fffed18>
     fda:	001be403          	0x1be403
     fde:	1880                	addi	s0,sp,112
     fe0:	000000c3          	fmadd.s	ft1,ft0,ft0,ft0,rne
     fe4:	2e01                	jal	12f4 <_start-0x7fffed0c>
     fe6:	001d4003          	lbu	zero,1(s10)
     fea:	1880                	addi	s0,sp,112
     fec:	0155                	addi	sp,sp,21
     fee:	0000                	unimp
     ff0:	2e01                	jal	1300 <_start-0x7fffed00>
     ff2:	001b8803          	lb	a6,1(s7)
     ff6:	1280                	addi	s0,sp,352
     ff8:	0222                	slli	tp,tp,0x8
     ffa:	0000                	unimp
     ffc:	2e01                	jal	130c <_start-0x7fffecf4>
     ffe:	00002c03          	lw	s8,0(zero) # 0 <_start-0x80000000>
    1002:	8d00                	0x8d00
    1004:	19000023          	sb	a6,384(zero) # 180 <_start-0x7ffffe80>
    1008:	03f8                	addi	a4,sp,460
    100a:	0000                	unimp
    100c:	5e12                	lw	t3,36(sp)
    100e:	0001                	nop
    1010:	0100                	addi	s0,sp,128
    1012:	032e                	slli	t1,t1,0xb
    1014:	002c                	addi	a1,sp,8
    1016:	0000                	unimp
    1018:	24a1                	jal	1260 <_start-0x7fffeda0>
    101a:	0000                	unimp
    101c:	0000                	unimp
    101e:	1816                	slli	a6,a6,0x25
    1020:	0004                	0x4
    1022:	3b00                	fld	fs0,48(a4)
    1024:	17000003          	lb	zero,368(zero) # 170 <_start-0x7ffffe90>
    1028:	028e                	slli	t0,t0,0x3
    102a:	0000                	unimp
    102c:	2f01                	jal	173c <_start-0x7fffe8c4>
    102e:	00002c03          	lw	s8,0(zero) # 0 <_start-0x80000000>
    1032:	1a00                	addi	s0,sp,304
    1034:	00002d17          	auipc	s10,0x2
    1038:	0100                	addi	s0,sp,128
    103a:	034e032f          	0x34e032f
    103e:	0000                	unimp
    1040:	00001317          	auipc	t1,0x1
    1044:	0100                	addi	s0,sp,128
    1046:	034e032f          	0x34e032f
    104a:	0000                	unimp
    104c:	0000ae17          	auipc	t3,0xa
    1050:	0100                	addi	s0,sp,128
    1052:	034e032f          	0x34e032f
    1056:	0000                	unimp
    1058:	00004217          	auipc	tp,0x4
    105c:	0100                	addi	s0,sp,128
    105e:	0355032f          	0x355032f
    1062:	0000                	unimp
    1064:	0000                	unimp
    1066:	3819                	jal	87c <_start-0x7ffff784>
    1068:	0004                	0x4
    106a:	1700                	addi	s0,sp,928
    106c:	0000                	unimp
    106e:	0000                	unimp
    1070:	2f01                	jal	1780 <_start-0x7fffe880>
    1072:	0000d603          	lhu	a2,0(ra)
    1076:	0000                	unimp
    1078:	0200                	addi	s0,sp,256
    107a:	0504                	addi	s1,sp,640
    107c:	0179                	addi	sp,sp,30
    107e:	0000                	unimp
    1080:	0402                	c.slli64	s0
    1082:	0000e407          	0xe407
    1086:	0000                	unimp
    1088:	0000024f          	fnmadd.s	ft4,ft0,ft0,ft0,rne
    108c:	0004                	0x4
    108e:	0779                	addi	a4,a4,30
    1090:	0000                	unimp
    1092:	0104                	addi	s1,sp,128
    1094:	0182                	c.slli64	gp
    1096:	0000                	unimp
    1098:	640c                	flw	fa1,8(s0)
    109a:	0005                	c.nop	1
    109c:	f600                	fsw	fs0,40(a2)
    109e:	0000                	unimp
    10a0:	3800                	fld	fs0,48(s0)
    10a2:	001e                	c.slli	zero,0x7
    10a4:	4480                	lw	s0,8(s1)
    10a6:	0000                	unimp
    10a8:	2300                	fld	fs0,0(a4)
    10aa:	0028                	addi	a0,sp,8
    10ac:	0200                	addi	s0,sp,256
    10ae:	0404                	addi	s1,sp,512
    10b0:	000008cb          	fnmsub.s	fa7,ft0,ft0,ft0,rne
    10b4:	00041c03          	lh	s8,0(s0) # fffe1000 <__global_pointer$+0x7ffdd398>
    10b8:	0200                	addi	s0,sp,256
    10ba:	0d50                	addi	a2,sp,660
    10bc:	0038                	addi	a4,sp,8
    10be:	0000                	unimp
    10c0:	0404                	addi	s1,sp,512
    10c2:	6905                	lui	s2,0x1
    10c4:	746e                	flw	fs0,248(sp)
    10c6:	0200                	addi	s0,sp,256
    10c8:	0601                	addi	a2,a2,0
    10ca:	0062                	c.slli	zero,0x18
    10cc:	0000                	unimp
    10ce:	0802                	c.slli64	a6
    10d0:	7405                	lui	s0,0xfffe1
    10d2:	0001                	nop
    10d4:	0500                	addi	s0,sp,640
    10d6:	00c8                	addi	a0,sp,68
    10d8:	0000                	unimp
    10da:	16014a03          	lbu	s4,352(sp)
    10de:	005f 0000 4d06      	0x4d060000005f
    10e4:	0000                	unimp
    10e6:	0200                	addi	s0,sp,256
    10e8:	0801                	addi	a6,a6,0
    10ea:	0060                	addi	s0,sp,12
    10ec:	0000                	unimp
    10ee:	0402                	c.slli64	s0
    10f0:	0000e907          	0xe907
    10f4:	0200                	addi	s0,sp,256
    10f6:	0708                	addi	a0,sp,896
    10f8:	00df 0000 0202      	0x202000000df
    10fe:	00008c07          	0x8c07
    1102:	0700                	addi	s0,sp,896
    1104:	005a                	c.slli	zero,0x16
    1106:	0000                	unimp
    1108:	0000008b          	0x8b
    110c:	6608                	flw	fa0,8(a2)
    110e:	0000                	unimp
    1110:	ff00                	fsw	fs0,56(a4)
    1112:	0600                	addi	s0,sp,768
    1114:	0000007b          	0x7b
    1118:	d009                	beqz	s0,101a <_start-0x7fffefe6>
    111a:	0000                	unimp
    111c:	0500                	addi	s0,sp,640
    111e:	163c                	addi	a5,sp,808
    1120:	0000008b          	0x8b
    1124:	00028703          	lb	a4,0(t0)
    1128:	0400                	addi	s0,sp,512
    112a:	0f45                	addi	t5,t5,17
    112c:	0025                	c.nop	9
    112e:	0000                	unimp
    1130:	040a                	slli	s0,s0,0x2
    1132:	4a04                	lw	s1,16(a2)
    1134:	0000e203          	0xe203
    1138:	0b00                	addi	s0,sp,400
    113a:	00da                	slli	ra,ra,0x16
    113c:	0000                	unimp
    113e:	5104                	lw	s1,32(a0)
    1140:	660e                	flw	fa2,192(sp)
    1142:	0000                	unimp
    1144:	0400                	addi	s0,sp,512
    1146:	0c000917          	auipc	s2,0xc000
    114a:	7865                	lui	a6,0xffff9
    114c:	0070                	addi	a2,sp,12
    114e:	5204                	lw	s1,32(a2)
    1150:	660e                	flw	fa2,192(sp)
    1152:	0000                	unimp
    1154:	0400                	addi	s0,sp,512
    1156:	0108                	addi	a0,sp,128
    1158:	0b00                	addi	s0,sp,400
    115a:	0781                	addi	a5,a5,0
    115c:	0000                	unimp
    115e:	5304                	lw	s1,32(a4)
    1160:	660e                	flw	fa2,192(sp)
    1162:	0000                	unimp
    1164:	0400                	addi	s0,sp,512
    1166:	0001                	nop
    1168:	0000                	unimp
    116a:	7b0d                	lui	s6,0xfffe3
    116c:	0002                	c.slli64	zero
    116e:	0400                	addi	s0,sp,512
    1170:	4704                	lw	s1,8(a4)
    1172:	00010807          	0x10807
    1176:	0e00                	addi	s0,sp,784
    1178:	6c66                	flw	fs8,88(sp)
    117a:	0074                	addi	a3,sp,12
    117c:	4904                	lw	s1,16(a0)
    117e:	9c0a                	add	s8,s8,sp
    1180:	0000                	unimp
    1182:	0f00                	addi	s0,sp,912
    1184:	0239                	addi	tp,tp,14
    1186:	0000                	unimp
    1188:	5504                	lw	s1,40(a0)
    118a:	a805                	j	11ba <_start-0x7fffee46>
    118c:	0000                	unimp
    118e:	0000                	unimp
    1190:	9410                	0x9410
    1192:	0005                	c.nop	1
    1194:	0100                	addi	s0,sp,128
    1196:	0122                	slli	sp,sp,0x8
    1198:	002c                	addi	a1,sp,8
    119a:	0000                	unimp
    119c:	1e38                	addi	a4,sp,824
    119e:	8000                	0x8000
    11a0:	0044                	addi	s1,sp,4
    11a2:	0000                	unimp
    11a4:	9c01                	0x9c01
    11a6:	0244                	addi	s1,sp,260
    11a8:	0000                	unimp
    11aa:	6111                	addi	sp,sp,256
    11ac:	0100                	addi	s0,sp,128
    11ae:	1422                	slli	s0,s0,0x28
    11b0:	009c                	addi	a5,sp,64
    11b2:	0000                	unimp
    11b4:	2501                	jal	17b4 <_start-0x7fffe84c>
    11b6:	0000                	unimp
    11b8:	6211                	lui	tp,0x4
    11ba:	0100                	addi	s0,sp,128
    11bc:	1e22                	slli	t3,t3,0x28
    11be:	009c                	addi	a5,sp,64
    11c0:	0000                	unimp
    11c2:	2524                	fld	fs1,72(a0)
    11c4:	0000                	unimp
    11c6:	2812                	fld	fa6,256(sp)
    11c8:	0000                	unimp
    11ca:	0100                	addi	s0,sp,128
    11cc:	0324                	addi	s1,sp,392
    11ce:	0038                	addi	a4,sp,8
    11d0:	0000                	unimp
    11d2:	1200                	addi	s0,sp,288
    11d4:	000002a7          	0x2a7
    11d8:	2401                	jal	13d8 <_start-0x7fffec28>
    11da:	00003803          	0x3803
    11de:	0000                	unimp
    11e0:	635f4113          	xori	sp,t5,1589
    11e4:	0100                	addi	s0,sp,128
    11e6:	0325                	addi	t1,t1,9
    11e8:	0244                	addi	s1,sp,260
    11ea:	0000                	unimp
    11ec:	735f4113          	xori	sp,t5,1845
    11f0:	0100                	addi	s0,sp,128
    11f2:	0325                	addi	t1,t1,9
    11f4:	0244                	addi	s1,sp,260
    11f6:	0000                	unimp
    11f8:	655f4113          	xori	sp,t5,1621
    11fc:	0100                	addi	s0,sp,128
    11fe:	0325                	addi	t1,t1,9
    1200:	0244                	addi	s1,sp,260
    1202:	0000                	unimp
    1204:	4114                	lw	a3,0(a0)
    1206:	665f 0100 0325      	0x3250100665f
    120c:	0000024b          	fnmsub.s	ft4,ft0,ft0,ft0,rne
    1210:	00002547          	fmsub.s	fa0,ft0,ft0,ft0,rdn
    1214:	635f4213          	xori	tp,t5,1589
    1218:	0100                	addi	s0,sp,128
    121a:	0326                	slli	t1,t1,0x9
    121c:	0244                	addi	s1,sp,260
    121e:	0000                	unimp
    1220:	735f4213          	xori	tp,t5,1845
    1224:	0100                	addi	s0,sp,128
    1226:	0326                	slli	t1,t1,0x9
    1228:	0244                	addi	s1,sp,260
    122a:	0000                	unimp
    122c:	4215                	li	tp,5
    122e:	655f 0100 0326      	0x3260100655f
    1234:	0244                	addi	s1,sp,260
    1236:	0000                	unimp
    1238:	7b06                	flw	fs6,96(sp)
    123a:	0800                	addi	s0,sp,16
    123c:	1aff                	0x1aff
    123e:	159f 5f42 0066      	0x665f42159f
    1244:	2601                	jal	1544 <_start-0x7fffeabc>
    1246:	00024b03          	lbu	s6,0(tp) # 4000 <_start-0x7fffc000>
    124a:	0100                	addi	s0,sp,128
    124c:	135f 0072 2701      	0x27010072135f
    1252:	00002c0b          	0x2c0b
    1256:	1600                	addi	s0,sp,800
    1258:	1e38                	addi	a4,sp,824
    125a:	8000                	0x8000
    125c:	000c                	0xc
    125e:	0000                	unimp
    1260:	01e9                	addi	gp,gp,26
    1262:	0000                	unimp
    1264:	00006e17          	auipc	t3,0x6
    1268:	0100                	addi	s0,sp,128
    126a:	032a                	slli	t1,t1,0xa
    126c:	00e2                	slli	ra,ra,0x18
    126e:	0000                	unimp
    1270:	1800                	addi	s0,sp,48
    1272:	0450                	addi	a2,sp,516
    1274:	0000                	unimp
    1276:	01ff                	0x1ff
    1278:	0000                	unimp
    127a:	00006e17          	auipc	t3,0x6
    127e:	0100                	addi	s0,sp,128
    1280:	00e2032b          	0xe2032b
    1284:	0000                	unimp
    1286:	1900                	addi	s0,sp,176
    1288:	0211                	addi	tp,tp,4
    128a:	0000                	unimp
    128c:	00042a17          	auipc	s4,0x42
    1290:	0100                	addi	s0,sp,128
    1292:	032c                	addi	a1,sp,392
    1294:	0038                	addi	a4,sp,8
    1296:	0000                	unimp
    1298:	1900                	addi	s0,sp,176
    129a:	00000223          	sb	zero,4(zero) # 4 <_start-0x7ffffffc>
    129e:	00042a17          	auipc	s4,0x42
    12a2:	0100                	addi	s0,sp,128
    12a4:	032c                	addi	a1,sp,392
    12a6:	0038                	addi	a4,sp,8
    12a8:	0000                	unimp
    12aa:	1900                	addi	s0,sp,176
    12ac:	0235                	addi	tp,tp,13
    12ae:	0000                	unimp
    12b0:	00042a17          	auipc	s4,0x42
    12b4:	0100                	addi	s0,sp,128
    12b6:	032c                	addi	a1,sp,392
    12b8:	0038                	addi	a4,sp,8
    12ba:	0000                	unimp
    12bc:	1a00                	addi	s0,sp,304
    12be:	00042a17          	auipc	s4,0x42
    12c2:	0100                	addi	s0,sp,128
    12c4:	032c                	addi	a1,sp,392
    12c6:	0038                	addi	a4,sp,8
    12c8:	0000                	unimp
    12ca:	0000                	unimp
    12cc:	0402                	c.slli64	s0
    12ce:	7905                	lui	s2,0xfffe1
    12d0:	0001                	nop
    12d2:	0200                	addi	s0,sp,256
    12d4:	0704                	addi	s1,sp,896
    12d6:	00e4                	addi	s1,sp,76
    12d8:	0000                	unimp
    12da:	d300                	sw	s0,32(a4)
    12dc:	0400000b          	0x400000b
    12e0:	f900                	fsw	fs0,48(a0)
    12e2:	0008                	0x8
    12e4:	0400                	addi	s0,sp,512
    12e6:	8201                	c.srli64	a2
    12e8:	0001                	nop
    12ea:	0c00                	addi	s0,sp,528
    12ec:	0935                	addi	s2,s2,13
    12ee:	0000                	unimp
    12f0:	00f6                	slli	ra,ra,0x1d
    12f2:	0000                	unimp
    12f4:	1e7c                	addi	a5,sp,828
    12f6:	8000                	0x8000
    12f8:	004c                	addi	a1,sp,4
    12fa:	0000                	unimp
    12fc:	29ea                	fld	fs3,152(sp)
    12fe:	0000                	unimp
    1300:	0402                	c.slli64	s0
    1302:	6905                	lui	s2,0x1
    1304:	746e                	flw	fs0,248(sp)
    1306:	0300                	addi	s0,sp,384
    1308:	0704                	addi	s1,sp,896
    130a:	00e9                	addi	ra,ra,26
    130c:	0000                	unimp
    130e:	74050803          	lb	a6,1856(a0)
    1312:	0001                	nop
    1314:	0300                	addi	s0,sp,384
    1316:	0410                	addi	a2,sp,512
    1318:	064e                	slli	a2,a2,0x13
    131a:	0000                	unimp
    131c:	62060103          	lb	sp,1568(a2)
    1320:	0000                	unimp
    1322:	0300                	addi	s0,sp,384
    1324:	0801                	addi	a6,a6,0
    1326:	0060                	addi	s0,sp,12
    1328:	0000                	unimp
    132a:	9f050203          	lb	tp,-1552(a0)
    132e:	0005                	c.nop	1
    1330:	0300                	addi	s0,sp,384
    1332:	0702                	c.slli64	a4
    1334:	008c                	addi	a1,sp,64
    1336:	0000                	unimp
    1338:	79050403          	lb	s0,1936(a0)
    133c:	0001                	nop
    133e:	0300                	addi	s0,sp,384
    1340:	0704                	addi	s1,sp,896
    1342:	00e4                	addi	s1,sp,76
    1344:	0000                	unimp
    1346:	df070803          	lb	a6,-528(a4)
    134a:	0000                	unimp
    134c:	0400                	addi	s0,sp,512
    134e:	0832                	slli	a6,a6,0xc
    1350:	0000                	unimp
    1352:	5e02                	lw	t3,32(sp)
    1354:	1701                	addi	a4,a4,-32
    1356:	002c                	addi	a1,sp,8
    1358:	0000                	unimp
    135a:	f705                	bnez	a4,1282 <_start-0x7fffed7e>
    135c:	0008                	0x8
    135e:	0300                	addi	s0,sp,384
    1360:	0e2e                	slli	t3,t3,0xb
    1362:	005d                	c.nop	23
    1364:	0000                	unimp
    1366:	5905                	li	s2,-31
    1368:	000a                	c.slli	zero,0x2
    136a:	0300                	addi	s0,sp,384
    136c:	0e74                	addi	a3,sp,796
    136e:	005d                	c.nop	23
    1370:	0000                	unimp
    1372:	f305                	bnez	a4,1292 <_start-0x7fffed6e>
    1374:	000a                	c.slli	zero,0x2
    1376:	0300                	addi	s0,sp,384
    1378:	00251793          	slli	a5,a0,0x2
    137c:	0000                	unimp
    137e:	0406                	slli	s0,s0,0x1
    1380:	c503a503          	lw	a0,-944(t2)
    1384:	0000                	unimp
    1386:	0700                	addi	s0,sp,896
    1388:	0824                	addi	s1,sp,24
    138a:	0000                	unimp
    138c:	720ca703          	lw	a4,1824(s9)
    1390:	0000                	unimp
    1392:	0700                	addi	s0,sp,896
    1394:	000007cb          	fnmsub.s	fa5,ft0,ft0,ft0,rne
    1398:	c513a803          	lw	a6,-943(t2)
    139c:	0000                	unimp
    139e:	0000                	unimp
    13a0:	4808                	lw	a0,16(s0)
    13a2:	0000                	unimp
    13a4:	d500                	sw	s0,40(a0)
    13a6:	0000                	unimp
    13a8:	0900                	addi	s0,sp,144
    13aa:	002c                	addi	a1,sp,8
    13ac:	0000                	unimp
    13ae:	080a0003          	lb	zero,128(s4) # 4333e <_start-0x7ffbccc2>
    13b2:	f909a203          	lw	tp,-112(s3)
    13b6:	0000                	unimp
    13b8:	0b00                	addi	s0,sp,400
    13ba:	00000a43          	fmadd.s	fs4,ft0,ft0,ft0,rne
    13be:	2507a403          	lw	s0,592(a5)
    13c2:	0000                	unimp
    13c4:	0000                	unimp
    13c6:	000a4b0b          	0xa4b0b
    13ca:	0300                	addi	s0,sp,384
    13cc:	05a9                	addi	a1,a1,10
    13ce:	000000a3          	sb	zero,1(zero) # 1 <_start-0x7fffffff>
    13d2:	0004                	0x4
    13d4:	1205                	addi	tp,tp,-31
    13d6:	0009                	c.nop	2
    13d8:	0300                	addi	s0,sp,384
    13da:	03aa                	slli	t2,t2,0xa
    13dc:	00d5                	addi	ra,ra,21
    13de:	0000                	unimp
    13e0:	040c                	addi	a1,sp,512
    13e2:	a405                	j	1602 <_start-0x7fffe9fe>
    13e4:	000a                	c.slli	zero,0x2
    13e6:	0400                	addi	s0,sp,512
    13e8:	1916                	slli	s2,s2,0x25
    13ea:	0064                	addi	s1,sp,12
    13ec:	0000                	unimp
    13ee:	1d05                	addi	s10,s10,-31
    13f0:	0009                	c.nop	2
    13f2:	0500                	addi	s0,sp,640
    13f4:	0d0c                	addi	a1,sp,656
    13f6:	0025                	c.nop	9
    13f8:	0000                	unimp
    13fa:	9305                	srli	a4,a4,0x21
    13fc:	0009                	c.nop	2
    13fe:	0400                	addi	s0,sp,512
    1400:	01131b23          	sh	a7,22(t1) # 2056 <_start-0x7fffdfaa>
    1404:	0000                	unimp
    1406:	8e0d                	sub	a2,a2,a1
    1408:	18000007          	0x18000007
    140c:	3404                	fld	fs1,40(s0)
    140e:	8508                	0x8508
    1410:	0001                	nop
    1412:	0b00                	addi	s0,sp,400
    1414:	09e6                	slli	s3,s3,0x19
    1416:	0000                	unimp
    1418:	3604                	fld	fs1,40(a2)
    141a:	00018513          	mv	a0,gp
    141e:	0000                	unimp
    1420:	5f0e                	lw	t5,224(sp)
    1422:	3704006b          	0x3704006b
    1426:	00002507          	flw	fa0,0(zero) # 0 <_start-0x80000000>
    142a:	0400                	addi	s0,sp,512
    142c:	000a2e0b          	0xa2e0b
    1430:	0400                	addi	s0,sp,512
    1432:	00250b37          	lui	s6,0x250
    1436:	0000                	unimp
    1438:	0b08                	addi	a0,sp,400
    143a:	0780                	addi	s0,sp,960
    143c:	0000                	unimp
    143e:	3704                	fld	fs1,40(a4)
    1440:	2514                	fld	fa3,8(a0)
    1442:	0000                	unimp
    1444:	0c00                	addi	s0,sp,528
    1446:	0006fc0b          	0x6fc0b
    144a:	0400                	addi	s0,sp,512
    144c:	00251b37          	lui	s6,0x251
    1450:	0000                	unimp
    1452:	0e10                	addi	a2,sp,784
    1454:	785f 0400 0b38      	0xb380400785f
    145a:	0000018b          	0x18b
    145e:	0014                	0x14
    1460:	012b040f          	0x12b040f
    1464:	0000                	unimp
    1466:	0708                	addi	a0,sp,896
    1468:	0001                	nop
    146a:	9b00                	0x9b00
    146c:	0001                	nop
    146e:	0900                	addi	s0,sp,144
    1470:	002c                	addi	a1,sp,8
    1472:	0000                	unimp
    1474:	0000                	unimp
    1476:	ae0d                	j	17a8 <_start-0x7fffe858>
    1478:	24000007          	0x24000007
    147c:	3c04                	fld	fs1,56(s0)
    147e:	1e08                	addi	a0,sp,816
    1480:	0002                	c.slli64	zero
    1482:	0b00                	addi	s0,sp,400
    1484:	0694                	addi	a3,sp,832
    1486:	0000                	unimp
    1488:	3e04                	fld	fs1,56(a2)
    148a:	2509                	jal	1a8c <_start-0x7fffe574>
    148c:	0000                	unimp
    148e:	0000                	unimp
    1490:	000b470b          	0xb470b
    1494:	0400                	addi	s0,sp,512
    1496:	0025093f 0b040000 	0xb0400000025093f
    149e:	06b0                	addi	a2,sp,840
    14a0:	0000                	unimp
    14a2:	4004                	lw	s1,0(s0)
    14a4:	2509                	jal	1aa6 <_start-0x7fffe55a>
    14a6:	0000                	unimp
    14a8:	0800                	addi	s0,sp,16
    14aa:	000b830b          	0xb830b
    14ae:	0400                	addi	s0,sp,512
    14b0:	0941                	addi	s2,s2,16
    14b2:	0025                	c.nop	9
    14b4:	0000                	unimp
    14b6:	0b0c                	addi	a1,sp,400
    14b8:	08d1                	addi	a7,a7,20
    14ba:	0000                	unimp
    14bc:	4204                	lw	s1,0(a2)
    14be:	2509                	jal	1ac0 <_start-0x7fffe540>
    14c0:	0000                	unimp
    14c2:	1000                	addi	s0,sp,32
    14c4:	00087a0b          	0x87a0b
    14c8:	0400                	addi	s0,sp,512
    14ca:	00250943          	fmadd.s	fs2,fa0,ft2,ft0,rne
    14ce:	0000                	unimp
    14d0:	0b14                	addi	a3,sp,400
    14d2:	0adc                	addi	a5,sp,340
    14d4:	0000                	unimp
    14d6:	4404                	lw	s1,8(s0)
    14d8:	2509                	jal	1ada <_start-0x7fffe526>
    14da:	0000                	unimp
    14dc:	1800                	addi	s0,sp,48
    14de:	00099c0b          	0x99c0b
    14e2:	0400                	addi	s0,sp,512
    14e4:	0945                	addi	s2,s2,17
    14e6:	0025                	c.nop	9
    14e8:	0000                	unimp
    14ea:	0b1c                	addi	a5,sp,400
    14ec:	0b2d                	addi	s6,s6,11
    14ee:	0000                	unimp
    14f0:	4604                	lw	s1,8(a2)
    14f2:	2509                	jal	1af4 <_start-0x7fffe50c>
    14f4:	0000                	unimp
    14f6:	2000                	fld	fs0,0(s0)
    14f8:	1000                	addi	s0,sp,32
    14fa:	000006cf          	fnmadd.s	fa3,ft0,ft0,ft0,rne
    14fe:	0108                	addi	a0,sp,128
    1500:	4f04                	lw	s1,24(a4)
    1502:	6308                	flw	fa0,0(a4)
    1504:	0002                	c.slli64	zero
    1506:	0b00                	addi	s0,sp,400
    1508:	00000773          	0x773
    150c:	5004                	lw	s1,32(s0)
    150e:	630a                	flw	ft6,128(sp)
    1510:	0002                	c.slli64	zero
    1512:	0000                	unimp
    1514:	00096f0b          	0x96f0b
    1518:	0400                	addi	s0,sp,512
    151a:	0951                	addi	s2,s2,20
    151c:	00000263          	beqz	zero,1520 <_start-0x7fffeae0>
    1520:	1180                	addi	s0,sp,224
    1522:	0a96                	slli	s5,s5,0x5
    1524:	0000                	unimp
    1526:	5304                	lw	s1,32(a4)
    1528:	070a                	slli	a4,a4,0x2
    152a:	0001                	nop
    152c:	0000                	unimp
    152e:	1101                	addi	sp,sp,-32
    1530:	06f4                	addi	a3,sp,844
    1532:	0000                	unimp
    1534:	5604                	lw	s1,40(a2)
    1536:	070a                	slli	a4,a4,0x2
    1538:	0001                	nop
    153a:	0400                	addi	s0,sp,512
    153c:	0001                	nop
    153e:	0508                	addi	a0,sp,640
    1540:	0001                	nop
    1542:	7300                	flw	fs0,32(a4)
    1544:	0002                	c.slli64	zero
    1546:	0900                	addi	s0,sp,144
    1548:	002c                	addi	a1,sp,8
    154a:	0000                	unimp
    154c:	001f da10 0008      	0x8da10001f
    1552:	9000                	0x9000
    1554:	0401                	addi	s0,s0,0
    1556:	0862                	slli	a6,a6,0x18
    1558:	02b6                	slli	t0,t0,0xd
    155a:	0000                	unimp
    155c:	0009e60b          	0x9e60b
    1560:	0400                	addi	s0,sp,512
    1562:	02b61263          	bne	a2,a1,1586 <_start-0x7fffea7a>
    1566:	0000                	unimp
    1568:	0b00                	addi	s0,sp,400
    156a:	09fe                	slli	s3,s3,0x1f
    156c:	0000                	unimp
    156e:	6404                	flw	fs1,8(s0)
    1570:	2506                	fld	fa0,64(sp)
    1572:	0000                	unimp
    1574:	0400                	addi	s0,sp,512
    1576:	00077b0b          	0x77b0b
    157a:	0400                	addi	s0,sp,512
    157c:	0966                	slli	s2,s2,0x19
    157e:	02bc                	addi	a5,sp,328
    1580:	0000                	unimp
    1582:	0b08                	addi	a0,sp,400
    1584:	000006cf          	fnmadd.s	fa3,ft0,ft0,ft0,rne
    1588:	6704                	flw	fs1,8(a4)
    158a:	1e1e                	slli	t3,t3,0x27
    158c:	0002                	c.slli64	zero
    158e:	8800                	0x8800
    1590:	0f00                	addi	s0,sp,912
    1592:	7304                	flw	fs1,32(a4)
    1594:	0002                	c.slli64	zero
    1596:	0800                	addi	s0,sp,16
    1598:	02cc                	addi	a1,sp,324
    159a:	0000                	unimp
    159c:	02cc                	addi	a1,sp,324
    159e:	0000                	unimp
    15a0:	2c09                	jal	17b2 <_start-0x7fffe84e>
    15a2:	0000                	unimp
    15a4:	1f00                	addi	s0,sp,944
    15a6:	0f00                	addi	s0,sp,912
    15a8:	d204                	sw	s1,32(a2)
    15aa:	0002                	c.slli64	zero
    15ac:	1200                	addi	s0,sp,288
    15ae:	a60d                	j	18d0 <_start-0x7fffe730>
    15b0:	0009                	c.nop	2
    15b2:	0800                	addi	s0,sp,16
    15b4:	7a04                	flw	fs1,48(a2)
    15b6:	fb08                	fsw	fa0,48(a4)
    15b8:	0002                	c.slli64	zero
    15ba:	0b00                	addi	s0,sp,400
    15bc:	06aa                	slli	a3,a3,0xa
    15be:	0000                	unimp
    15c0:	7b04                	flw	fs1,48(a4)
    15c2:	fb11                	bnez	a4,14d6 <_start-0x7fffeb2a>
    15c4:	0002                	c.slli64	zero
    15c6:	0000                	unimp
    15c8:	0005bb0b          	0x5bb0b
    15cc:	0400                	addi	s0,sp,512
    15ce:	067c                	addi	a5,sp,780
    15d0:	0025                	c.nop	9
    15d2:	0000                	unimp
    15d4:	0004                	0x4
    15d6:	0048040f          	0x48040f
    15da:	0000                	unimp
    15dc:	cf0d                	beqz	a4,1616 <_start-0x7fffe9ea>
    15de:	0009                	c.nop	2
    15e0:	6800                	flw	fs0,16(s0)
    15e2:	ba04                	fsd	fs1,48(a2)
    15e4:	4408                	lw	a0,8(s0)
    15e6:	0004                	0x4
    15e8:	0e00                	addi	s0,sp,784
    15ea:	705f 0400 12bb      	0x12bb0400705f
    15f0:	000002fb          	0x2fb
    15f4:	0e00                	addi	s0,sp,784
    15f6:	725f 0400 07bc      	0x7bc0400725f
    15fc:	0025                	c.nop	9
    15fe:	0000                	unimp
    1600:	0e04                	addi	s1,sp,784
    1602:	775f 0400 07bd      	0x7bd0400775f
    1608:	0025                	c.nop	9
    160a:	0000                	unimp
    160c:	0b08                	addi	a0,sp,400
    160e:	06ed                	addi	a3,a3,27
    1610:	0000                	unimp
    1612:	be04                	fsd	fs1,56(a2)
    1614:	4f09                	li	t5,2
    1616:	0000                	unimp
    1618:	0c00                	addi	s0,sp,528
    161a:	0007da0b          	0x7da0b
    161e:	0400                	addi	s0,sp,512
    1620:	004f09bf 0e0e0000 	0xe0e0000004f09bf
    1628:	625f 0066 c004      	0xc0040066625f
    162e:	d311                	beqz	a4,1532 <_start-0x7fffeace>
    1630:	0002                	c.slli64	zero
    1632:	1000                	addi	s0,sp,32
    1634:	00063d0b          	0x63d0b
    1638:	0400                	addi	s0,sp,512
    163a:	07c1                	addi	a5,a5,16
    163c:	0025                	c.nop	9
    163e:	0000                	unimp
    1640:	0b18                	addi	a4,sp,400
    1642:	06dd                	addi	a3,a3,23
    1644:	0000                	unimp
    1646:	c804                	sw	s1,16(s0)
    1648:	050a                	slli	a0,a0,0x2
    164a:	0001                	nop
    164c:	1c00                	addi	s0,sp,560
    164e:	00092f0b          	0x92f0b
    1652:	0400                	addi	s0,sp,512
    1654:	1dca                	slli	s11,s11,0x32
    1656:	05c8                	addi	a0,sp,708
    1658:	0000                	unimp
    165a:	0b20                	addi	s0,sp,408
    165c:	00000873          	0x873
    1660:	cc04                	sw	s1,24(s0)
    1662:	f71d                	bnez	a4,1590 <_start-0x7fffea70>
    1664:	0005                	c.nop	1
    1666:	2400                	fld	fs0,8(s0)
    1668:	000a530b          	0xa530b
    166c:	0400                	addi	s0,sp,512
    166e:	061b0dcf          	fnmadd.q	fs11,fs6,ft1,ft0,rne
    1672:	0000                	unimp
    1674:	0b28                	addi	a0,sp,408
    1676:	069d                	addi	a3,a3,7
    1678:	0000                	unimp
    167a:	d004                	sw	s1,32(s0)
    167c:	3509                	jal	147e <_start-0x7fffeb82>
    167e:	0006                	c.slli	zero,0x1
    1680:	2c00                	fld	fs0,24(s0)
    1682:	5f0e                	lw	t5,224(sp)
    1684:	6275                	lui	tp,0x1d
    1686:	0400                	addi	s0,sp,512
    1688:	02d311d3          	fadd.d	ft3,ft6,fa3,rtz
    168c:	0000                	unimp
    168e:	0e30                	addi	a2,sp,792
    1690:	755f 0070 d404      	0xd4040070755f
    1696:	fb12                	fsw	ft4,180(sp)
    1698:	0002                	c.slli64	zero
    169a:	3800                	fld	fs0,48(s0)
    169c:	5f0e                	lw	t5,224(sp)
    169e:	7275                	lui	tp,0xffffd
    16a0:	0400                	addi	s0,sp,512
    16a2:	07d5                	addi	a5,a5,21
    16a4:	0025                	c.nop	9
    16a6:	0000                	unimp
    16a8:	0b3c                	addi	a5,sp,408
    16aa:	06a4                	addi	s1,sp,840
    16ac:	0000                	unimp
    16ae:	d804                	sw	s1,48(s0)
    16b0:	3b11                	jal	13c4 <_start-0x7fffec3c>
    16b2:	0006                	c.slli	zero,0x1
    16b4:	4000                	lw	s0,0(s0)
    16b6:	000b1f0b          	0xb1f0b
    16ba:	0400                	addi	s0,sp,512
    16bc:	11d9                	addi	gp,gp,-10
    16be:	0000064b          	fnmsub.s	fa2,ft0,ft0,ft0,rne
    16c2:	6c5f0e43          	0x6c5f0e43
    16c6:	0062                	c.slli	zero,0x18
    16c8:	dc04                	sw	s1,56(s0)
    16ca:	d311                	beqz	a4,15ce <_start-0x7fffea32>
    16cc:	0002                	c.slli64	zero
    16ce:	4400                	lw	s0,8(s0)
    16d0:	000a6a0b          	0xa6a0b
    16d4:	0400                	addi	s0,sp,512
    16d6:	07df 0025 0000      	0x2507df
    16dc:	0b4c                	addi	a1,sp,404
    16de:	08ad                	addi	a7,a7,11
    16e0:	0000                	unimp
    16e2:	e004                	fsw	fs1,0(s0)
    16e4:	7f0a                	flw	ft10,160(sp)
    16e6:	0000                	unimp
    16e8:	5000                	lw	s0,32(s0)
    16ea:	0005fa0b          	0x5fa0b
    16ee:	0400                	addi	s0,sp,512
    16f0:	046212e3          	bne	tp,t1,1f34 <_start-0x7fffe0cc>
    16f4:	0000                	unimp
    16f6:	0b54                	addi	a3,sp,404
    16f8:	0839                	addi	a6,a6,14
    16fa:	0000                	unimp
    16fc:	e704                	fsw	fs1,8(a4)
    16fe:	1f0c                	addi	a1,sp,944
    1700:	0001                	nop
    1702:	5800                	lw	s0,48(s0)
    1704:	0007c20b          	0x7c20b
    1708:	0400                	addi	s0,sp,512
    170a:	0ee9                	addi	t4,t4,26
    170c:	00f9                	addi	ra,ra,30
    170e:	0000                	unimp
    1710:	0b5c                	addi	a5,sp,404
    1712:	09ad                	addi	s3,s3,11
    1714:	0000                	unimp
    1716:	ea04                	fsw	fs1,16(a2)
    1718:	2509                	jal	1d1a <_start-0x7fffe2e6>
    171a:	0000                	unimp
    171c:	6400                	flw	fs0,8(s0)
    171e:	1300                	addi	s0,sp,416
    1720:	00000097          	auipc	ra,0x0
    1724:	0462                	slli	s0,s0,0x18
    1726:	0000                	unimp
    1728:	6214                	flw	fa3,0(a2)
    172a:	0004                	0x4
    172c:	1400                	addi	s0,sp,544
    172e:	0105                	addi	sp,sp,1
    1730:	0000                	unimp
    1732:	b614                	fsd	fa3,40(a2)
    1734:	0005                	c.nop	1
    1736:	1400                	addi	s0,sp,544
    1738:	0025                	c.nop	9
    173a:	0000                	unimp
    173c:	0f00                	addi	s0,sp,912
    173e:	6d04                	flw	fs1,24(a0)
    1740:	0004                	0x4
    1742:	1500                	addi	s0,sp,672
    1744:	0462                	slli	s0,s0,0x18
    1746:	0000                	unimp
    1748:	3616                	fld	fa2,352(sp)
    174a:	000a                	c.slli	zero,0x2
    174c:	2800                	fld	fs0,16(s0)
    174e:	0404                	addi	s1,sp,512
    1750:	0265                	addi	tp,tp,25
    1752:	b608                	fsd	fa0,40(a2)
    1754:	0005                	c.nop	1
    1756:	1700                	addi	s0,sp,928
    1758:	098c                	addi	a1,sp,208
    175a:	0000                	unimp
    175c:	6704                	flw	fs1,8(a4)
    175e:	0702                	c.slli64	a4
    1760:	0025                	c.nop	9
    1762:	0000                	unimp
    1764:	1700                	addi	s0,sp,928
    1766:	0aec                	addi	a1,sp,348
    1768:	0000                	unimp
    176a:	6c04                	flw	fs1,24(s0)
    176c:	0b02                	c.slli64	s6
    176e:	000006a7          	0x6a7
    1772:	1704                	addi	s1,sp,928
    1774:	0ad4                	addi	a3,sp,340
    1776:	0000                	unimp
    1778:	6c04                	flw	fs1,24(s0)
    177a:	1402                	slli	s0,s0,0x20
    177c:	000006a7          	0x6a7
    1780:	1708                	addi	a0,sp,928
    1782:	0786                	slli	a5,a5,0x1
    1784:	0000                	unimp
    1786:	6c04                	flw	fs1,24(s0)
    1788:	1e02                	slli	t3,t3,0x20
    178a:	000006a7          	0x6a7
    178e:	170c                	addi	a1,sp,928
    1790:	09f9                	addi	s3,s3,30
    1792:	0000                	unimp
    1794:	6e04                	flw	fs1,24(a2)
    1796:	0802                	c.slli64	a6
    1798:	0025                	c.nop	9
    179a:	0000                	unimp
    179c:	1710                	addi	a2,sp,928
    179e:	05c9                	addi	a1,a1,18
    17a0:	0000                	unimp
    17a2:	6f04                	flw	fs1,24(a4)
    17a4:	0802                	c.slli64	a6
    17a6:	000008a7          	0x8a7
    17aa:	1714                	addi	a3,sp,928
    17ac:	0a15                	addi	s4,s4,5
    17ae:	0000                	unimp
    17b0:	7204                	flw	fs1,32(a2)
    17b2:	0702                	c.slli64	a4
    17b4:	0025                	c.nop	9
    17b6:	0000                	unimp
    17b8:	1730                	addi	a2,sp,936
    17ba:	00000a03          	lb	s4,0(zero) # 0 <_start-0x80000000>
    17be:	7304                	flw	fs1,32(a4)
    17c0:	1602                	slli	a2,a2,0x20
    17c2:	08bc                	addi	a5,sp,88
    17c4:	0000                	unimp
    17c6:	1734                	addi	a3,sp,936
    17c8:	08ec                	addi	a1,sp,92
    17ca:	0000                	unimp
    17cc:	7504                	flw	fs1,40(a0)
    17ce:	0702                	c.slli64	a4
    17d0:	0025                	c.nop	9
    17d2:	0000                	unimp
    17d4:	1738                	addi	a4,sp,936
    17d6:	00000a0b          	0xa0b
    17da:	7704                	flw	fs1,40(a4)
    17dc:	0a02                	c.slli64	s4
    17de:	08cd                	addi	a7,a7,19
    17e0:	0000                	unimp
    17e2:	173c                	addi	a5,sp,936
    17e4:	081c                	addi	a5,sp,16
    17e6:	0000                	unimp
    17e8:	7a04                	flw	fs1,48(a2)
    17ea:	1302                	slli	t1,t1,0x20
    17ec:	0185                	addi	gp,gp,1
    17ee:	0000                	unimp
    17f0:	1740                	addi	s0,sp,932
    17f2:	0708                	addi	a0,sp,896
    17f4:	0000                	unimp
    17f6:	7b04                	flw	fs1,48(a4)
    17f8:	0702                	c.slli64	a4
    17fa:	0025                	c.nop	9
    17fc:	0000                	unimp
    17fe:	1744                	addi	s1,sp,932
    1800:	0b7e                	slli	s6,s6,0x1f
    1802:	0000                	unimp
    1804:	7c04                	flw	fs1,56(s0)
    1806:	1302                	slli	t1,t1,0x20
    1808:	0185                	addi	gp,gp,1
    180a:	0000                	unimp
    180c:	1748                	addi	a0,sp,932
    180e:	08fe                	slli	a7,a7,0x1f
    1810:	0000                	unimp
    1812:	7d04                	flw	fs1,56(a0)
    1814:	1402                	slli	s0,s0,0x20
    1816:	000008d3          	fadd.s	fa7,ft0,ft0,rne
    181a:	174c                	addi	a1,sp,932
    181c:	07d2                	slli	a5,a5,0x14
    181e:	0000                	unimp
    1820:	8004                	0x8004
    1822:	0702                	c.slli64	a4
    1824:	0025                	c.nop	9
    1826:	0000                	unimp
    1828:	1750                	addi	a2,sp,932
    182a:	0000073f 09028104 	0x90281040000073f
    1832:	05b6                	slli	a1,a1,0xd
    1834:	0000                	unimp
    1836:	1754                	addi	a3,sp,932
    1838:	0985                	addi	s3,s3,1
    183a:	0000                	unimp
    183c:	a404                	fsd	fs1,8(s0)
    183e:	0702                	c.slli64	a4
    1840:	0882                	c.slli64	a7
    1842:	0000                	unimp
    1844:	1858                	addi	a4,sp,52
    1846:	08da                	slli	a7,a7,0x16
    1848:	0000                	unimp
    184a:	a804                	fsd	fs1,16(s0)
    184c:	1302                	slli	t1,t1,0x20
    184e:	02b6                	slli	t0,t0,0xd
    1850:	0000                	unimp
    1852:	0148                	addi	a0,sp,132
    1854:	fa18                	fsw	fa4,48(a2)
    1856:	04000007          	0x4000007
    185a:	02a9                	addi	t0,t0,10
    185c:	7312                	flw	ft6,36(sp)
    185e:	0002                	c.slli64	zero
    1860:	4c00                	lw	s0,24(s0)
    1862:	1801                	addi	a6,a6,-32
    1864:	0b06                	slli	s6,s6,0x1
    1866:	0000                	unimp
    1868:	ad04                	fsd	fs1,24(a0)
    186a:	0c02                	c.slli64	s8
    186c:	08e4                	addi	s1,sp,92
    186e:	0000                	unimp
    1870:	02dc                	addi	a5,sp,324
    1872:	e518                	fsw	fa4,8(a0)
    1874:	0006                	c.slli	zero,0x1
    1876:	0400                	addi	s0,sp,512
    1878:	02b2                	slli	t0,t0,0xc
    187a:	6810                	flw	fa2,16(s0)
    187c:	0006                	c.slli	zero,0x1
    187e:	e000                	fsw	fs0,0(s0)
    1880:	1802                	slli	a6,a6,0x20
    1882:	06ca                	slli	a3,a3,0x12
    1884:	0000                	unimp
    1886:	b404                	fsd	fs1,40(s0)
    1888:	0a02                	c.slli64	s4
    188a:	08f0                	addi	a2,sp,92
    188c:	0000                	unimp
    188e:	02ec                	addi	a1,sp,332
    1890:	0f00                	addi	s0,sp,912
    1892:	bc04                	fsd	fs1,56(s0)
    1894:	0005                	c.nop	1
    1896:	0300                	addi	s0,sp,384
    1898:	0801                	addi	a6,a6,0
    189a:	0069                	c.nop	26
    189c:	0000                	unimp
    189e:	bc15                	j	12d2 <_start-0x7fffed2e>
    18a0:	0005                	c.nop	1
    18a2:	0f00                	addi	s0,sp,912
    18a4:	4404                	lw	s1,8(s0)
    18a6:	0004                	0x4
    18a8:	1300                	addi	s0,sp,416
    18aa:	00000097          	auipc	ra,0x0
    18ae:	05ec                	addi	a1,sp,716
    18b0:	0000                	unimp
    18b2:	6214                	flw	fa3,0(a2)
    18b4:	0004                	0x4
    18b6:	1400                	addi	s0,sp,544
    18b8:	0105                	addi	sp,sp,1
    18ba:	0000                	unimp
    18bc:	ec14                	fsw	fa3,24(s0)
    18be:	0005                	c.nop	1
    18c0:	1400                	addi	s0,sp,544
    18c2:	0025                	c.nop	9
    18c4:	0000                	unimp
    18c6:	0f00                	addi	s0,sp,912
    18c8:	c304                	sw	s1,0(a4)
    18ca:	0005                	c.nop	1
    18cc:	1500                	addi	s0,sp,672
    18ce:	05ec                	addi	a1,sp,716
    18d0:	0000                	unimp
    18d2:	05ce040f          	0x5ce040f
    18d6:	0000                	unimp
    18d8:	00008b13          	mv	s6,ra
    18dc:	1b00                	addi	s0,sp,432
    18de:	0006                	c.slli	zero,0x1
    18e0:	1400                	addi	s0,sp,544
    18e2:	0462                	slli	s0,s0,0x18
    18e4:	0000                	unimp
    18e6:	0514                	addi	a3,sp,640
    18e8:	0001                	nop
    18ea:	1400                	addi	s0,sp,544
    18ec:	0000008b          	0x8b
    18f0:	2514                	fld	fa3,8(a0)
    18f2:	0000                	unimp
    18f4:	0000                	unimp
    18f6:	05fd040f          	0x5fd040f
    18fa:	0000                	unimp
    18fc:	00002513          	slti	a0,zero,0
    1900:	3500                	fld	fs0,40(a0)
    1902:	0006                	c.slli	zero,0x1
    1904:	1400                	addi	s0,sp,544
    1906:	0462                	slli	s0,s0,0x18
    1908:	0000                	unimp
    190a:	0514                	addi	a3,sp,640
    190c:	0001                	nop
    190e:	0000                	unimp
    1910:	0621040f          	0x621040f
    1914:	0000                	unimp
    1916:	4808                	lw	a0,16(s0)
    1918:	0000                	unimp
    191a:	4b00                	lw	s0,16(a4)
    191c:	0006                	c.slli	zero,0x1
    191e:	0900                	addi	s0,sp,144
    1920:	002c                	addi	a1,sp,8
    1922:	0000                	unimp
    1924:	0002                	c.slli64	zero
    1926:	4808                	lw	a0,16(s0)
    1928:	0000                	unimp
    192a:	5b00                	lw	s0,48(a4)
    192c:	0006                	c.slli	zero,0x1
    192e:	0900                	addi	s0,sp,144
    1930:	002c                	addi	a1,sp,8
    1932:	0000                	unimp
    1934:	0000                	unimp
    1936:	0104                	addi	s1,sp,128
    1938:	04000007          	0x4000007
    193c:	0124                	addi	s1,sp,136
    193e:	011a                	slli	sp,sp,0x6
    1940:	19000003          	lb	zero,400(zero) # 190 <_start-0x7ffffe70>
    1944:	0ae6                	slli	s5,s5,0x19
    1946:	0000                	unimp
    1948:	040c                	addi	a1,sp,512
    194a:	0128                	addi	a0,sp,136
    194c:	a108                	fsd	fa0,0(a0)
    194e:	0006                	c.slli	zero,0x1
    1950:	1700                	addi	s0,sp,928
    1952:	09e6                	slli	s3,s3,0x19
    1954:	0000                	unimp
    1956:	2a04                	fld	fs1,16(a2)
    1958:	1101                	addi	sp,sp,-32
    195a:	06a1                	addi	a3,a3,8
    195c:	0000                	unimp
    195e:	1700                	addi	s0,sp,928
    1960:	07ea                	slli	a5,a5,0x1a
    1962:	0000                	unimp
    1964:	2b04                	fld	fs1,16(a4)
    1966:	0701                	addi	a4,a4,0
    1968:	0025                	c.nop	9
    196a:	0000                	unimp
    196c:	1704                	addi	s1,sp,928
    196e:	09b5                	addi	s3,s3,13
    1970:	0000                	unimp
    1972:	2c04                	fld	fs1,24(s0)
    1974:	0b01                	addi	s6,s6,0
    1976:	000006a7          	0x6a7
    197a:	0008                	0x8
    197c:	0668040f          	0x668040f
    1980:	0000                	unimp
    1982:	065b040f          	0x65b040f
    1986:	0000                	unimp
    1988:	c119                	beqz	a0,198e <_start-0x7fffe672>
    198a:	0005                	c.nop	1
    198c:	0e00                	addi	s0,sp,784
    198e:	4404                	lw	s1,8(s0)
    1990:	0801                	addi	a6,a6,0
    1992:	06e6                	slli	a3,a3,0x19
    1994:	0000                	unimp
    1996:	000a3d17          	auipc	s10,0xa3
    199a:	0400                	addi	s0,sp,512
    199c:	0145                	addi	sp,sp,17
    199e:	e612                	fsw	ft4,12(sp)
    19a0:	0006                	c.slli	zero,0x1
    19a2:	0000                	unimp
    19a4:	00085517          	auipc	a0,0x85
    19a8:	0400                	addi	s0,sp,512
    19aa:	0146                	slli	sp,sp,0x11
    19ac:	e612                	fsw	ft4,12(sp)
    19ae:	0006                	c.slli	zero,0x1
    19b0:	0600                	addi	s0,sp,768
    19b2:	000a9f17          	auipc	t5,0xa9
    19b6:	0400                	addi	s0,sp,512
    19b8:	56120147          	fmsub.q	ft2,ft4,ft1,fa0,rne
    19bc:	0000                	unimp
    19be:	0c00                	addi	s0,sp,528
    19c0:	0800                	addi	s0,sp,16
    19c2:	0056                	c.slli	zero,0x15
    19c4:	0000                	unimp
    19c6:	06f6                	slli	a3,a3,0x1d
    19c8:	0000                	unimp
    19ca:	2c09                	jal	1bdc <_start-0x7fffe424>
    19cc:	0000                	unimp
    19ce:	0200                	addi	s0,sp,256
    19d0:	1a00                	addi	s0,sp,304
    19d2:	04d0                	addi	a2,sp,580
    19d4:	0285                	addi	t0,t0,1
    19d6:	00080b07          	0x80b07
    19da:	1700                	addi	s0,sp,928
    19dc:	0000088f          	0x88f
    19e0:	8704                	0x8704
    19e2:	1802                	slli	a6,a6,0x20
    19e4:	002c                	addi	a1,sp,8
    19e6:	0000                	unimp
    19e8:	1700                	addi	s0,sp,928
    19ea:	0a82                	c.slli64	s5
    19ec:	0000                	unimp
    19ee:	8804                	0x8804
    19f0:	1202                	slli	tp,tp,0x20
    19f2:	05b6                	slli	a1,a1,0xd
    19f4:	0000                	unimp
    19f6:	1704                	addi	s1,sp,928
    19f8:	0000080f          	0x80f
    19fc:	8904                	0x8904
    19fe:	1002                	c.slli	zero,0x20
    1a00:	0000080b          	0x80b
    1a04:	1708                	addi	a0,sp,928
    1a06:	0b38                	addi	a4,sp,408
    1a08:	0000                	unimp
    1a0a:	8a04                	0x8a04
    1a0c:	1702                	slli	a4,a4,0x20
    1a0e:	0000019b          	0x19b
    1a12:	1724                	addi	s1,sp,936
    1a14:	0796                	slli	a5,a5,0x5
    1a16:	0000                	unimp
    1a18:	8b04                	0x8b04
    1a1a:	0f02                	c.slli64	t5
    1a1c:	0025                	c.nop	9
    1a1e:	0000                	unimp
    1a20:	1748                	addi	a0,sp,932
    1a22:	09e1                	addi	s3,s3,24
    1a24:	0000                	unimp
    1a26:	8c04                	0x8c04
    1a28:	2c02                	fld	fs8,0(sp)
    1a2a:	0000006b          	0x6b
    1a2e:	1750                	addi	a2,sp,932
    1a30:	0b50                	addi	a2,sp,404
    1a32:	0000                	unimp
    1a34:	8d04                	0x8d04
    1a36:	1a02                	slli	s4,s4,0x20
    1a38:	06ad                	addi	a3,a3,11
    1a3a:	0000                	unimp
    1a3c:	1758                	addi	a4,sp,932
    1a3e:	09ec                	addi	a1,sp,220
    1a40:	0000                	unimp
    1a42:	8e04                	0x8e04
    1a44:	1602                	slli	a2,a2,0x20
    1a46:	00f9                	addi	ra,ra,30
    1a48:	0000                	unimp
    1a4a:	1768                	addi	a0,sp,940
    1a4c:	0b70                	addi	a2,sp,412
    1a4e:	0000                	unimp
    1a50:	8f04                	0x8f04
    1a52:	1602                	slli	a2,a2,0x20
    1a54:	00f9                	addi	ra,ra,30
    1a56:	0000                	unimp
    1a58:	1770                	addi	a2,sp,940
    1a5a:	0686                	slli	a3,a3,0x1
    1a5c:	0000                	unimp
    1a5e:	9004                	0x9004
    1a60:	1602                	slli	a2,a2,0x20
    1a62:	00f9                	addi	ra,ra,30
    1a64:	0000                	unimp
    1a66:	1778                	addi	a4,sp,940
    1a68:	0afc                	addi	a5,sp,348
    1a6a:	0000                	unimp
    1a6c:	9104                	0x9104
    1a6e:	1002                	c.slli	zero,0x20
    1a70:	0000081b          	0x81b
    1a74:	1780                	addi	s0,sp,992
    1a76:	00000803          	lb	a6,0(zero) # 0 <_start-0x80000000>
    1a7a:	9204                	0x9204
    1a7c:	1002                	c.slli	zero,0x20
    1a7e:	0000082b          	0x82b
    1a82:	1788                	addi	a0,sp,992
    1a84:	05ed                	addi	a1,a1,27
    1a86:	0000                	unimp
    1a88:	9304                	0x9304
    1a8a:	0f02                	c.slli64	t5
    1a8c:	0025                	c.nop	9
    1a8e:	0000                	unimp
    1a90:	17a0                	addi	s0,sp,1000
    1a92:	0758                	addi	a4,sp,900
    1a94:	0000                	unimp
    1a96:	9404                	0x9404
    1a98:	1602                	slli	a2,a2,0x20
    1a9a:	00f9                	addi	ra,ra,30
    1a9c:	0000                	unimp
    1a9e:	17a4                	addi	s1,sp,1000
    1aa0:	0000066f          	jal	a2,1aa0 <_start-0x7fffe560>
    1aa4:	9504                	0x9504
    1aa6:	1602                	slli	a2,a2,0x20
    1aa8:	00f9                	addi	ra,ra,30
    1aaa:	0000                	unimp
    1aac:	17ac                	addi	a1,sp,1000
    1aae:	00000747          	fmsub.s	fa4,ft0,ft0,ft0,rne
    1ab2:	9604                	0x9604
    1ab4:	1602                	slli	a2,a2,0x20
    1ab6:	00f9                	addi	ra,ra,30
    1ab8:	0000                	unimp
    1aba:	17b4                	addi	a3,sp,1000
    1abc:	0600                	addi	s0,sp,768
    1abe:	0000                	unimp
    1ac0:	9704                	0x9704
    1ac2:	1602                	slli	a2,a2,0x20
    1ac4:	00f9                	addi	ra,ra,30
    1ac6:	0000                	unimp
    1ac8:	17bc                	addi	a5,sp,1000
    1aca:	062c                	addi	a1,sp,776
    1acc:	0000                	unimp
    1ace:	9804                	0x9804
    1ad0:	1602                	slli	a2,a2,0x20
    1ad2:	00f9                	addi	ra,ra,30
    1ad4:	0000                	unimp
    1ad6:	17c4                	addi	s1,sp,996
    1ad8:	098a                	slli	s3,s3,0x2
    1ada:	0000                	unimp
    1adc:	9904                	0x9904
    1ade:	0802                	c.slli64	a6
    1ae0:	0025                	c.nop	9
    1ae2:	0000                	unimp
    1ae4:	00cc                	addi	a1,sp,68
    1ae6:	bc08                	fsd	fa0,56(s0)
    1ae8:	0005                	c.nop	1
    1aea:	1b00                	addi	s0,sp,432
    1aec:	0008                	0x8
    1aee:	0900                	addi	s0,sp,144
    1af0:	002c                	addi	a1,sp,8
    1af2:	0000                	unimp
    1af4:	0019                	c.nop	6
    1af6:	bc08                	fsd	fa0,56(s0)
    1af8:	0005                	c.nop	1
    1afa:	2b00                	fld	fs0,16(a4)
    1afc:	0008                	0x8
    1afe:	0900                	addi	s0,sp,144
    1b00:	002c                	addi	a1,sp,8
    1b02:	0000                	unimp
    1b04:	bc080007          	0xbc080007
    1b08:	0005                	c.nop	1
    1b0a:	3b00                	fld	fs0,48(a4)
    1b0c:	0008                	0x8
    1b0e:	0900                	addi	s0,sp,144
    1b10:	002c                	addi	a1,sp,8
    1b12:	0000                	unimp
    1b14:	f01a0017          	auipc	zero,0xf01a0
    1b18:	9e04                	0x9e04
    1b1a:	0702                	c.slli64	a4
    1b1c:	0862                	slli	a6,a6,0x18
    1b1e:	0000                	unimp
    1b20:	0008bc17          	auipc	s8,0x8b
    1b24:	0400                	addi	s0,sp,512
    1b26:	02a1                	addi	t0,t0,8
    1b28:	0008621b          	0x8621b
    1b2c:	0000                	unimp
    1b2e:	0007a517          	auipc	a0,0x7a
    1b32:	0400                	addi	s0,sp,512
    1b34:	02a2                	slli	t0,t0,0x8
    1b36:	7218                	flw	fa4,32(a2)
    1b38:	0008                	0x8
    1b3a:	7800                	flw	fs0,48(s0)
    1b3c:	0800                	addi	s0,sp,16
    1b3e:	000002fb          	0x2fb
    1b42:	0872                	slli	a6,a6,0x1c
    1b44:	0000                	unimp
    1b46:	2c09                	jal	1d58 <_start-0x7fffe2a8>
    1b48:	0000                	unimp
    1b4a:	1d00                	addi	s0,sp,688
    1b4c:	0800                	addi	s0,sp,16
    1b4e:	002c                	addi	a1,sp,8
    1b50:	0000                	unimp
    1b52:	0882                	c.slli64	a7
    1b54:	0000                	unimp
    1b56:	2c09                	jal	1d68 <_start-0x7fffe298>
    1b58:	0000                	unimp
    1b5a:	1d00                	addi	s0,sp,688
    1b5c:	1b00                	addi	s0,sp,432
    1b5e:	04f0                	addi	a2,sp,588
    1b60:	a7030283          	lb	t0,-1424(t1)
    1b64:	0008                	0x8
    1b66:	1c00                	addi	s0,sp,560
    1b68:	0a36                	slli	s4,s4,0xd
    1b6a:	0000                	unimp
    1b6c:	9a04                	0x9a04
    1b6e:	0b02                	c.slli64	s6
    1b70:	06f6                	slli	a3,a3,0x1d
    1b72:	0000                	unimp
    1b74:	251c                	fld	fa5,8(a0)
    1b76:	0400000b          	0x400000b
    1b7a:	3b0b02a3          	sb	a6,933(s6) # 2513a5 <_start-0x7fdaec5b>
    1b7e:	0008                	0x8
    1b80:	0000                	unimp
    1b82:	bc08                	fsd	fa0,56(s0)
    1b84:	0005                	c.nop	1
    1b86:	b700                	fsd	fs0,40(a4)
    1b88:	0008                	0x8
    1b8a:	0900                	addi	s0,sp,144
    1b8c:	002c                	addi	a1,sp,8
    1b8e:	0000                	unimp
    1b90:	0018                	0x18
    1b92:	641d                	lui	s0,0x7
    1b94:	0006                	c.slli	zero,0x1
    1b96:	0f00                	addi	s0,sp,912
    1b98:	b704                	fsd	fs1,40(a4)
    1b9a:	0008                	0x8
    1b9c:	1e00                	addi	s0,sp,816
    1b9e:	08cd                	addi	a7,a7,19
    1ba0:	0000                	unimp
    1ba2:	6214                	flw	fa3,0(a2)
    1ba4:	0004                	0x4
    1ba6:	0000                	unimp
    1ba8:	08c2040f          	0x8c2040f
    1bac:	0000                	unimp
    1bae:	0185040f          	0x185040f
    1bb2:	0000                	unimp
    1bb4:	e41e                	fsw	ft7,8(sp)
    1bb6:	0008                	0x8
    1bb8:	1400                	addi	s0,sp,544
    1bba:	0025                	c.nop	9
    1bbc:	0000                	unimp
    1bbe:	0f00                	addi	s0,sp,912
    1bc0:	ea04                	fsw	fs1,16(a2)
    1bc2:	0008                	0x8
    1bc4:	0f00                	addi	s0,sp,912
    1bc6:	d904                	sw	s1,48(a0)
    1bc8:	0008                	0x8
    1bca:	0800                	addi	s0,sp,16
    1bcc:	0000065b          	0x65b
    1bd0:	0900                	addi	s0,sp,144
    1bd2:	0000                	unimp
    1bd4:	2c09                	jal	1de6 <_start-0x7fffe21a>
    1bd6:	0000                	unimp
    1bd8:	0200                	addi	s0,sp,256
    1bda:	1f00                	addi	s0,sp,944
    1bdc:	0ac8                	addi	a0,sp,340
    1bde:	0000                	unimp
    1be0:	3304                	fld	fs1,32(a4)
    1be2:	04621703          	lh	a4,70(tp) # ffffd046 <__global_pointer$+0x7fff93de>
    1be6:	0000                	unimp
    1be8:	c11f 000a 0400      	0x400000ac11f
    1bee:	0334                	addi	a3,sp,392
    1bf0:	681d                	lui	a6,0x7
    1bf2:	0004                	0x4
    1bf4:	0800                	addi	s0,sp,16
    1bf6:	05f2                	slli	a1,a1,0x1c
    1bf8:	0000                	unimp
    1bfa:	0925                	addi	s2,s2,9
    1bfc:	0000                	unimp
    1bfe:	0020                	addi	s0,sp,8
    1c00:	1a15                	addi	s4,s4,-27
    1c02:	0009                	c.nop	2
    1c04:	2100                	fld	fs0,0(a0)
    1c06:	0732                	slli	a4,a4,0xc
    1c08:	0000                	unimp
    1c0a:	1406                	slli	s0,s0,0x21
    1c0c:	2524                	fld	fs1,72(a0)
    1c0e:	0009                	c.nop	2
    1c10:	2100                	fld	fs0,0(a0)
    1c12:	000009d7          	0x9d7
    1c16:	1506                	slli	a0,a0,0x21
    1c18:	2515                	jal	223c <_start-0x7fffddc4>
    1c1a:	0000                	unimp
    1c1c:	0f00                	addi	s0,sp,912
    1c1e:	4804                	lw	s1,16(s0)
    1c20:	0009                	c.nop	2
    1c22:	1300                	addi	s0,sp,416
    1c24:	0025                	c.nop	9
    1c26:	0000                	unimp
    1c28:	095c                	addi	a5,sp,148
    1c2a:	0000                	unimp
    1c2c:	5c14                	lw	a3,56(s0)
    1c2e:	0009                	c.nop	2
    1c30:	1400                	addi	s0,sp,544
    1c32:	095c                	addi	a5,sp,148
    1c34:	0000                	unimp
    1c36:	0f00                	addi	s0,sp,912
    1c38:	6204                	flw	fs1,0(a2)
    1c3a:	0009                	c.nop	2
    1c3c:	2200                	fld	fs0,0(a2)
    1c3e:	e221                	bnez	a2,1c7e <_start-0x7fffe382>
    1c40:	0008                	0x8
    1c42:	0700                	addi	s0,sp,896
    1c44:	05b60e67          	jalr	t3,91(a2)
    1c48:	0000                	unimp
    1c4a:	2a21                	jal	1d62 <_start-0x7fffe29e>
    1c4c:	0008                	0x8
    1c4e:	0800                	addi	s0,sp,16
    1c50:	0f10                	addi	a2,sp,912
    1c52:	0000097b          	0x97b
    1c56:	05b6040f          	0x5b6040f
    1c5a:	0000                	unimp
    1c5c:	e521                	bnez	a0,1ca4 <_start-0x7fffe35c>
    1c5e:	0008                	0x8
    1c60:	0800                	addi	s0,sp,16
    1c62:	0efc                	addi	a5,sp,860
    1c64:	05b6                	slli	a1,a1,0xd
    1c66:	0000                	unimp
    1c68:	b521                	j	1a70 <_start-0x7fffe590>
    1c6a:	0008                	0x8
    1c6c:	0800                	addi	s0,sp,16
    1c6e:	0cfd                	addi	s9,s9,31
    1c70:	0025                	c.nop	9
    1c72:	0000                	unimp
    1c74:	7b21                	lui	s6,0xfffe8
    1c76:	000a                	c.slli	zero,0x2
    1c78:	0800                	addi	s0,sp,16
    1c7a:	14fd                	addi	s1,s1,-1
    1c7c:	0025                	c.nop	9
    1c7e:	0000                	unimp
    1c80:	5f21                	li	t5,-24
    1c82:	0800000b          	0x800000b
    1c86:	1cfd                	addi	s9,s9,-1
    1c88:	0025                	c.nop	9
    1c8a:	0000                	unimp
    1c8c:	6a21                	lui	s4,0x8
    1c8e:	0008                	0x8
    1c90:	0800                	addi	s0,sp,16
    1c92:	0cff                	0xcff
    1c94:	0025                	c.nop	9
    1c96:	0000                	unimp
    1c98:	0821                	addi	a6,a6,8
    1c9a:	0009                	c.nop	2
    1c9c:	0900                	addi	s0,sp,144
    1c9e:	169a                	slli	a3,a3,0x26
    1ca0:	005d                	c.nop	23
    1ca2:	0000                	unimp
    1ca4:	d421                	beqz	s0,1bec <_start-0x7fffe414>
    1ca6:	0005                	c.nop	1
    1ca8:	0900                	addi	s0,sp,144
    1caa:	0025159b          	0x25159b
    1cae:	0000                	unimp
    1cb0:	b608                	fsd	fa0,40(a2)
    1cb2:	0005                	c.nop	1
    1cb4:	e500                	fsw	fs0,8(a0)
    1cb6:	0009                	c.nop	2
    1cb8:	0900                	addi	s0,sp,144
    1cba:	002c                	addi	a1,sp,8
    1cbc:	0000                	unimp
    1cbe:	0001                	nop
    1cc0:	7e21                	lui	t3,0xfffe8
    1cc2:	0006                	c.slli	zero,0x1
    1cc4:	0900                	addi	s0,sp,144
    1cc6:	179e                	slli	a5,a5,0x27
    1cc8:	09d5                	addi	s3,s3,21
    1cca:	0000                	unimp
    1ccc:	e005                	bnez	s0,1cec <_start-0x7fffe314>
    1cce:	0a000007          	0xa000007
    1cd2:	162a                	slli	a2,a2,0x2a
    1cd4:	002c                	addi	a1,sp,8
    1cd6:	0000                	unimp
    1cd8:	c505                	beqz	a0,1d00 <_start-0x7fffe300>
    1cda:	0009                	c.nop	2
    1cdc:	0a00                	addi	s0,sp,272
    1cde:	0a09152f          	0xa09152f
    1ce2:	0000                	unimp
    1ce4:	0a0f040f          	0xa0f040f
    1ce8:	0000                	unimp
    1cea:	0009f113          	andi	sp,s3,0
    1cee:	1e00                	addi	s0,sp,816
    1cf0:	000a                	c.slli	zero,0x2
    1cf2:	1400                	addi	s0,sp,544
    1cf4:	095c                	addi	a5,sp,148
    1cf6:	0000                	unimp
    1cf8:	0500                	addi	s0,sp,640
    1cfa:	0b8d                	addi	s7,s7,3
    1cfc:	0000                	unimp
    1cfe:	360a                	fld	fa2,160(sp)
    1d00:	0009420f          	0x9420f
    1d04:	2100                	fld	fs0,0(a0)
    1d06:	05a9                	addi	a1,a1,10
    1d08:	0000                	unimp
    1d0a:	bb0a                	fsd	ft2,432(sp)
    1d0c:	fd12                	fsw	ft4,184(sp)
    1d0e:	0009                	c.nop	2
    1d10:	2100                	fld	fs0,0(a0)
    1d12:	0aac                	addi	a1,sp,344
    1d14:	0000                	unimp
    1d16:	be0a                	fsd	ft2,312(sp)
    1d18:	1e10                	addi	a2,sp,816
    1d1a:	000a                	c.slli	zero,0x2
    1d1c:	2300                	fld	fs0,0(a4)
    1d1e:	000007b3          	add	a5,zero,zero
    1d22:	002c0407          	0x2c0407
    1d26:	0000                	unimp
    1d28:	7f06180b          	0x7f06180b
    1d2c:	000a                	c.slli	zero,0x2
    1d2e:	2400                	fld	fs0,8(s0)
    1d30:	0965                	addi	s2,s2,25
    1d32:	0000                	unimp
    1d34:	2400                	fld	fs0,8(s0)
    1d36:	084a                	slli	a6,a6,0x12
    1d38:	0000                	unimp
    1d3a:	2401                	jal	1f3a <_start-0x7fffe0c6>
    1d3c:	0884                	addi	s1,sp,80
    1d3e:	0000                	unimp
    1d40:	2402                	fld	fs0,0(sp)
    1d42:	0000083f 095c2403 	0x95c24030000083f
    1d4a:	0000                	unimp
    1d4c:	2404                	fld	fs1,8(s0)
    1d4e:	0b66                	slli	s6,s6,0x19
    1d50:	0000                	unimp
    1d52:	2405                	jal	1f72 <_start-0x7fffe08e>
    1d54:	0b55                	addi	s6,s6,21
    1d56:	0000                	unimp
    1d58:	0006                	c.slli	zero,0x1
    1d5a:	5a21                	li	s4,-24
    1d5c:	0006                	c.slli	zero,0x1
    1d5e:	0b00                	addi	s0,sp,400
    1d60:	1c21                	addi	s8,s8,-24
    1d62:	0a42                	slli	s4,s4,0x10
    1d64:	0000                	unimp
    1d66:	00089c23          	sh	zero,24(a7)
    1d6a:	0700                	addi	s0,sp,896
    1d6c:	2c04                	fld	fs1,24(s0)
    1d6e:	0000                	unimp
    1d70:	0b00                	addi	s0,sp,400
    1d72:	0ab00623          	sb	a1,172(zero) # ac <_start-0x7fffff54>
    1d76:	0000                	unimp
    1d78:	bb24                	fsd	fs1,112(a4)
    1d7a:	0009                	c.nop	2
    1d7c:	0000                	unimp
    1d7e:	7b24                	flw	fs1,112(a4)
    1d80:	0009                	c.nop	2
    1d82:	0100                	addi	s0,sp,128
    1d84:	8f24                	0x8f24
    1d86:	000a                	c.slli	zero,0x2
    1d88:	0200                	addi	s0,sp,256
    1d8a:	2100                	fld	fs0,0(a0)
    1d8c:	0766                	slli	a4,a4,0x19
    1d8e:	0000                	unimp
    1d90:	8b1e280b          	0x8b1e280b
    1d94:	000a                	c.slli	zero,0x2
    1d96:	2300                	fld	fs0,0(a4)
    1d98:	0000060f          	0x60f
    1d9c:	002c0407          	0x2c0407
    1da0:	0000                	unimp
    1da2:	db062b0b          	0xdb062b0b
    1da6:	000a                	c.slli	zero,0x2
    1da8:	2400                	fld	fs0,8(s0)
    1daa:	00000a73          	0xa73
    1dae:	2400                	fld	fs0,8(s0)
    1db0:	0a61                	addi	s4,s4,24
    1db2:	0000                	unimp
    1db4:	0001                	nop
    1db6:	1a21                	addi	s4,s4,-24
    1db8:	0b000007          	0xb000007
    1dbc:	0abc2a2f          	amoswap.w.rl	s4,a1,(s8)
    1dc0:	0000                	unimp
    1dc2:	5b21                	li	s6,-24
    1dc4:	0008                	0x8
    1dc6:	0c00                	addi	s0,sp,528
    1dc8:	1a29                	addi	s4,s4,-22
    1dca:	0925                	addi	s2,s2,9
    1dcc:	0000                	unimp
    1dce:	ba21                	j	16e6 <_start-0x7fffe91a>
    1dd0:	0006                	c.slli	zero,0x1
    1dd2:	0c00                	addi	s0,sp,528
    1dd4:	1a38                	addi	a4,sp,312
    1dd6:	0925                	addi	s2,s2,9
    1dd8:	0000                	unimp
    1dda:	c805                	beqz	s0,1e0a <_start-0x7fffe1f6>
    1ddc:	0000                	unimp
    1dde:	0d00                	addi	s0,sp,656
    1de0:	0048167b          	0x48167b
    1de4:	0000                	unimp
    1de6:	ff15                	bnez	a4,1d22 <_start-0x7fffe2de>
    1de8:	000a                	c.slli	zero,0x2
    1dea:	0500                	addi	s0,sp,640
    1dec:	00000713          	li	a4,0
    1df0:	800d                	srli	s0,s0,0x3
    1df2:	0000250f          	0x250f
    1df6:	0500                	addi	s0,sp,640
    1df8:	0712                	slli	a4,a4,0x4
    1dfa:	0000                	unimp
    1dfc:	810d                	srli	a0,a0,0x3
    1dfe:	2c16                	fld	fs8,320(sp)
    1e00:	0000                	unimp
    1e02:	0300                	addi	s0,sp,384
    1e04:	0404                	addi	s1,sp,512
    1e06:	000008cb          	fnmsub.s	fa7,ft0,ft0,ft0,rne
    1e0a:	c3030803          	lb	a6,-976(t1)
    1e0e:	0008                	0x8
    1e10:	0300                	addi	s0,sp,384
    1e12:	0408                	addi	a0,sp,512
    1e14:	00000653          	fadd.s	fa2,ft0,ft0,rne
    1e18:	de031003          	lh	zero,-544(t1)
    1e1c:	0005                	c.nop	1
    1e1e:	0300                	addi	s0,sp,384
    1e20:	0320                	addi	s0,sp,392
    1e22:	0646                	slli	a2,a2,0x11
    1e24:	0000                	unimp
    1e26:	0b08                	addi	a0,sp,400
    1e28:	5b00000b          	0x5b00000b
    1e2c:	0900000b          	0x900000b
    1e30:	002c                	addi	a1,sp,8
    1e32:	0000                	unimp
    1e34:	00ff                	0xff
    1e36:	4b15                	li	s6,5
    1e38:	1f00000b          	0x1f00000b
    1e3c:	0b10                	addi	a2,sp,400
    1e3e:	0000                	unimp
    1e40:	fc0d                	bnez	s0,1d7a <_start-0x7fffe286>
    1e42:	1601                	addi	a2,a2,-32
    1e44:	00000b5b          	0xb5b
    1e48:	d01f 0000 0d00      	0xd000000d01f
    1e4e:	0202                	c.slli64	tp
    1e50:	5b16                	lw	s6,100(sp)
    1e52:	2500000b          	0x2500000b
    1e56:	07f1                	addi	a5,a5,28
    1e58:	0000                	unimp
    1e5a:	c201                	beqz	a2,1e5a <_start-0x7fffe1a6>
    1e5c:	0102                	c.slli64	sp
    1e5e:	0025                	c.nop	9
    1e60:	0000                	unimp
    1e62:	1e7c                	addi	a5,sp,828
    1e64:	8000                	0x8000
    1e66:	004c                	addi	a1,sp,4
    1e68:	0000                	unimp
    1e6a:	9c01                	0x9c01
    1e6c:	7826                	flw	fa6,104(sp)
    1e6e:	0100                	addi	s0,sp,128
    1e70:	02c2                	slli	t0,t0,0x10
    1e72:	1c12                	slli	s8,s8,0x24
    1e74:	5a00000b          	0x5a00000b
    1e78:	0025                	c.nop	9
    1e7a:	2700                	fld	fs0,8(a4)
    1e7c:	6572                	flw	fa0,28(sp)
    1e7e:	0074                	addi	a3,sp,12
    1e80:	c401                	beqz	s0,1e88 <_start-0x7fffe178>
    1e82:	0902                	c.slli64	s2
    1e84:	0b10                	addi	a2,sp,400
    1e86:	0000                	unimp
    1e88:	7028                	flw	fa0,96(s0)
    1e8a:	0004                	0x4
    1e8c:	2900                	fld	fs0,16(a0)
    1e8e:	0abc                	addi	a5,sp,344
    1e90:	0000                	unimp
    1e92:	c601                	beqz	a2,1e9a <_start-0x7fffe166>
    1e94:	0302                	c.slli64	t1
    1e96:	0b1c                	addi	a5,sp,400
    1e98:	0000                	unimp
    1e9a:	2586                	fld	fa1,64(sp)
    1e9c:	0000                	unimp
    1e9e:	5f2a                	lw	t5,168(sp)
    1ea0:	615f 0100 02c6      	0x2c60100615f
    1ea6:	000b1c03          	lh	s8,0(s6) # fffe8000 <__global_pointer$+0x7ffe4398>
    1eaa:	b200                	fsd	fs0,32(a2)
    1eac:	0025                	c.nop	9
    1eae:	0000                	unimp
    1eb0:	0000                	unimp
    1eb2:	0b66                	slli	s6,s6,0x19
    1eb4:	0000                	unimp
    1eb6:	0004                	0x4
    1eb8:	00000b3b          	0xb3b
    1ebc:	0104                	addi	s1,sp,128
    1ebe:	0182                	c.slli64	gp
    1ec0:	0000                	unimp
    1ec2:	350c                	fld	fa1,40(a0)
    1ec4:	0009                	c.nop	2
    1ec6:	f600                	fsw	fs0,40(a2)
    1ec8:	0000                	unimp
    1eca:	9e00                	0x9e00
    1ecc:	002c                	addi	a1,sp,8
    1ece:	0200                	addi	s0,sp,256
    1ed0:	0504                	addi	s1,sp,640
    1ed2:	6e69                	lui	t3,0x1a
    1ed4:	0074                	addi	a3,sp,12
    1ed6:	e9070403          	lb	s0,-368(a4)
    1eda:	0000                	unimp
    1edc:	0300                	addi	s0,sp,384
    1ede:	0508                	addi	a0,sp,640
    1ee0:	0174                	addi	a3,sp,140
    1ee2:	0000                	unimp
    1ee4:	4e041003          	lh	zero,1248(s0) # 74e0 <_start-0x7fff8b20>
    1ee8:	0006                	c.slli	zero,0x1
    1eea:	0300                	addi	s0,sp,384
    1eec:	0601                	addi	a2,a2,0
    1eee:	0062                	c.slli	zero,0x18
    1ef0:	0000                	unimp
    1ef2:	60080103          	lb	sp,1536(a6) # 7600 <_start-0x7fff8a00>
    1ef6:	0000                	unimp
    1ef8:	0300                	addi	s0,sp,384
    1efa:	0502                	c.slli64	a0
    1efc:	059f 0000 0203      	0x2030000059f
    1f02:	00008c07          	0x8c07
    1f06:	0300                	addi	s0,sp,384
    1f08:	0504                	addi	s1,sp,640
    1f0a:	0179                	addi	sp,sp,30
    1f0c:	0000                	unimp
    1f0e:	e4070403          	lb	s0,-448(a4)
    1f12:	0000                	unimp
    1f14:	0300                	addi	s0,sp,384
    1f16:	0708                	addi	a0,sp,896
    1f18:	00df 0000 3204      	0x3204000000df
    1f1e:	0008                	0x8
    1f20:	0100                	addi	s0,sp,128
    1f22:	015e                	slli	sp,sp,0x17
    1f24:	00002417          	auipc	s0,0x2
    1f28:	0500                	addi	s0,sp,640
    1f2a:	000008f7          	0x8f7
    1f2e:	2e02                	fld	ft8,0(sp)
    1f30:	550e                	lw	a0,224(sp)
    1f32:	0000                	unimp
    1f34:	0500                	addi	s0,sp,640
    1f36:	0a59                	addi	s4,s4,22
    1f38:	0000                	unimp
    1f3a:	7402                	flw	fs0,32(sp)
    1f3c:	550e                	lw	a0,224(sp)
    1f3e:	0000                	unimp
    1f40:	0500                	addi	s0,sp,640
    1f42:	00000af3          	0xaf3
    1f46:	9302                	jalr	t1
    1f48:	00001d17          	auipc	s10,0x1
    1f4c:	0600                	addi	s0,sp,768
    1f4e:	0204                	addi	s1,sp,256
    1f50:	03a5                	addi	t2,t2,9
    1f52:	00bd                	addi	ra,ra,15
    1f54:	0000                	unimp
    1f56:	00082407          	flw	fs0,0(a6)
    1f5a:	0200                	addi	s0,sp,256
    1f5c:	006a0ca7          	0x6a0ca7
    1f60:	0000                	unimp
    1f62:	0007cb07          	flq	fs6,0(a5)
    1f66:	0200                	addi	s0,sp,256
    1f68:	13a8                	addi	a0,sp,488
    1f6a:	00bd                	addi	ra,ra,15
    1f6c:	0000                	unimp
    1f6e:	0800                	addi	s0,sp,16
    1f70:	0040                	addi	s0,sp,4
    1f72:	0000                	unimp
    1f74:	00cd                	addi	ra,ra,19
    1f76:	0000                	unimp
    1f78:	2409                	jal	217a <_start-0x7fffde86>
    1f7a:	0000                	unimp
    1f7c:	0300                	addi	s0,sp,384
    1f7e:	0a00                	addi	s0,sp,272
    1f80:	0208                	addi	a0,sp,256
    1f82:	09a2                	slli	s3,s3,0x8
    1f84:	00f1                	addi	ra,ra,28
    1f86:	0000                	unimp
    1f88:	000a430b          	0xa430b
    1f8c:	0200                	addi	s0,sp,256
    1f8e:	07a4                	addi	s1,sp,968
    1f90:	001d                	c.nop	7
    1f92:	0000                	unimp
    1f94:	0b00                	addi	s0,sp,400
    1f96:	00000a4b          	fnmsub.s	fs4,ft0,ft0,ft0,rne
    1f9a:	a902                	fsd	ft0,144(sp)
    1f9c:	9b05                	andi	a4,a4,-31
    1f9e:	0000                	unimp
    1fa0:	0400                	addi	s0,sp,512
    1fa2:	0500                	addi	s0,sp,640
    1fa4:	0912                	slli	s2,s2,0x4
    1fa6:	0000                	unimp
    1fa8:	aa02                	fsd	ft0,272(sp)
    1faa:	0000cd03          	lbu	s10,0(ra) # 18aa <_start-0x7fffe756>
    1fae:	0c00                	addi	s0,sp,528
    1fb0:	0504                	addi	s1,sp,640
    1fb2:	0aa4                	addi	s1,sp,344
    1fb4:	0000                	unimp
    1fb6:	5c191603          	lh	a2,1473(s2) # 15c1 <_start-0x7fffea3f>
    1fba:	0000                	unimp
    1fbc:	0500                	addi	s0,sp,640
    1fbe:	091d                	addi	s2,s2,7
    1fc0:	0000                	unimp
    1fc2:	0c04                	addi	s1,sp,528
    1fc4:	1d0d                	addi	s10,s10,-29
    1fc6:	0000                	unimp
    1fc8:	0500                	addi	s0,sp,640
    1fca:	00000993          	li	s3,0
    1fce:	0b1b2303          	lw	t1,177(s6)
    1fd2:	0001                	nop
    1fd4:	0d00                	addi	s0,sp,656
    1fd6:	078e                	slli	a5,a5,0x3
    1fd8:	0000                	unimp
    1fda:	0318                	addi	a4,sp,384
    1fdc:	0834                	addi	a3,sp,24
    1fde:	017d                	addi	sp,sp,31
    1fe0:	0000                	unimp
    1fe2:	0009e60b          	0x9e60b
    1fe6:	0300                	addi	s0,sp,384
    1fe8:	1336                	slli	t1,t1,0x2d
    1fea:	017d                	addi	sp,sp,31
    1fec:	0000                	unimp
    1fee:	0e00                	addi	s0,sp,784
    1ff0:	6b5f 0300 0737      	0x73703006b5f
    1ff6:	001d                	c.nop	7
    1ff8:	0000                	unimp
    1ffa:	0b04                	addi	s1,sp,400
    1ffc:	0a2e                	slli	s4,s4,0xb
    1ffe:	0000                	unimp
    2000:	1d0b3703          	0x1d0b3703
    2004:	0000                	unimp
    2006:	0800                	addi	s0,sp,16
    2008:	0007800b          	0x7800b
    200c:	0300                	addi	s0,sp,384
    200e:	001d1437          	lui	s0,0x1d1
    2012:	0000                	unimp
    2014:	0b0c                	addi	a1,sp,400
    2016:	06fc                	addi	a5,sp,844
    2018:	0000                	unimp
    201a:	1d1b3703          	0x1d1b3703
    201e:	0000                	unimp
    2020:	1000                	addi	s0,sp,32
    2022:	5f0e                	lw	t5,224(sp)
    2024:	0078                	addi	a4,sp,12
    2026:	830b3803          	0x830b3803
    202a:	0001                	nop
    202c:	1400                	addi	s0,sp,544
    202e:	0f00                	addi	s0,sp,912
    2030:	2304                	fld	fs1,0(a4)
    2032:	0001                	nop
    2034:	0800                	addi	s0,sp,16
    2036:	00ff                	0xff
    2038:	0000                	unimp
    203a:	00000193          	li	gp,0
    203e:	2409                	jal	2240 <_start-0x7fffddc0>
    2040:	0000                	unimp
    2042:	0000                	unimp
    2044:	0d00                	addi	s0,sp,656
    2046:	07ae                	slli	a5,a5,0xb
    2048:	0000                	unimp
    204a:	0324                	addi	s1,sp,392
    204c:	083c                	addi	a5,sp,24
    204e:	0216                	slli	tp,tp,0x5
    2050:	0000                	unimp
    2052:	0006940b          	0x6940b
    2056:	0300                	addi	s0,sp,384
    2058:	093e                	slli	s2,s2,0xf
    205a:	001d                	c.nop	7
    205c:	0000                	unimp
    205e:	0b00                	addi	s0,sp,400
    2060:	00000b47          	fmsub.s	fs6,ft0,ft0,ft0,rne
    2064:	1d093f03          	0x1d093f03
    2068:	0000                	unimp
    206a:	0400                	addi	s0,sp,512
    206c:	0006b00b          	0x6b00b
    2070:	0300                	addi	s0,sp,384
    2072:	0940                	addi	s0,sp,148
    2074:	001d                	c.nop	7
    2076:	0000                	unimp
    2078:	0b08                	addi	a0,sp,400
    207a:	00000b83          	lb	s7,0(zero) # 0 <_start-0x80000000>
    207e:	1d094103          	lbu	sp,464(s2)
    2082:	0000                	unimp
    2084:	0c00                	addi	s0,sp,528
    2086:	0008d10b          	0x8d10b
    208a:	0300                	addi	s0,sp,384
    208c:	0942                	slli	s2,s2,0x10
    208e:	001d                	c.nop	7
    2090:	0000                	unimp
    2092:	0b10                	addi	a2,sp,400
    2094:	087a                	slli	a6,a6,0x1e
    2096:	0000                	unimp
    2098:	1d094303          	lbu	t1,464(s2)
    209c:	0000                	unimp
    209e:	1400                	addi	s0,sp,544
    20a0:	000adc0b          	0xadc0b
    20a4:	0300                	addi	s0,sp,384
    20a6:	0944                	addi	s1,sp,148
    20a8:	001d                	c.nop	7
    20aa:	0000                	unimp
    20ac:	0b18                	addi	a4,sp,400
    20ae:	099c                	addi	a5,sp,208
    20b0:	0000                	unimp
    20b2:	1d094503          	lbu	a0,464(s2)
    20b6:	0000                	unimp
    20b8:	1c00                	addi	s0,sp,560
    20ba:	000b2d0b          	0xb2d0b
    20be:	0300                	addi	s0,sp,384
    20c0:	0946                	slli	s2,s2,0x11
    20c2:	001d                	c.nop	7
    20c4:	0000                	unimp
    20c6:	0020                	addi	s0,sp,8
    20c8:	cf10                	sw	a2,24(a4)
    20ca:	0006                	c.slli	zero,0x1
    20cc:	0800                	addi	s0,sp,16
    20ce:	0301                	addi	t1,t1,0
    20d0:	025b084f          	fnmadd.d	fa6,fs6,ft5,ft0,rne
    20d4:	0000                	unimp
    20d6:	0007730b          	0x7730b
    20da:	0300                	addi	s0,sp,384
    20dc:	0a50                	addi	a2,sp,276
    20de:	0000025b          	0x25b
    20e2:	0b00                	addi	s0,sp,400
    20e4:	0000096f          	jal	s2,20e4 <_start-0x7fffdf1c>
    20e8:	5b095103          	lhu	sp,1456(s2)
    20ec:	0002                	c.slli64	zero
    20ee:	8000                	0x8000
    20f0:	9611                	srai	a2,a2,0x24
    20f2:	000a                	c.slli	zero,0x2
    20f4:	0300                	addi	s0,sp,384
    20f6:	00ff0a53          	fadd.s	fs4,ft10,fa5,rne
    20fa:	0000                	unimp
    20fc:	0100                	addi	s0,sp,128
    20fe:	f411                	bnez	s0,200a <_start-0x7fffdff6>
    2100:	0006                	c.slli	zero,0x1
    2102:	0300                	addi	s0,sp,384
    2104:	0a56                	slli	s4,s4,0x15
    2106:	00ff                	0xff
    2108:	0000                	unimp
    210a:	0104                	addi	s1,sp,128
    210c:	0800                	addi	s0,sp,16
    210e:	00fd                	addi	ra,ra,31
    2110:	0000                	unimp
    2112:	0000026b          	0x26b
    2116:	2409                	jal	2318 <_start-0x7fffdce8>
    2118:	0000                	unimp
    211a:	1f00                	addi	s0,sp,944
    211c:	1000                	addi	s0,sp,32
    211e:	08da                	slli	a7,a7,0x16
    2120:	0000                	unimp
    2122:	0190                	addi	a2,sp,192
    2124:	ae086203          	0xae086203
    2128:	0002                	c.slli64	zero
    212a:	0b00                	addi	s0,sp,400
    212c:	09e6                	slli	s3,s3,0x19
    212e:	0000                	unimp
    2130:	ae126303          	0xae126303
    2134:	0002                	c.slli64	zero
    2136:	0000                	unimp
    2138:	0009fe0b          	0x9fe0b
    213c:	0300                	addi	s0,sp,384
    213e:	0664                	addi	s1,sp,780
    2140:	001d                	c.nop	7
    2142:	0000                	unimp
    2144:	0b04                	addi	s1,sp,400
    2146:	0000077b          	0x77b
    214a:	b4096603          	0xb4096603
    214e:	0002                	c.slli64	zero
    2150:	0800                	addi	s0,sp,16
    2152:	0006cf0b          	0x6cf0b
    2156:	0300                	addi	s0,sp,384
    2158:	02161e67          	0x2161e67
    215c:	0000                	unimp
    215e:	0088                	addi	a0,sp,64
    2160:	026b040f          	0x26b040f
    2164:	0000                	unimp
    2166:	c408                	sw	a0,8(s0)
    2168:	0002                	c.slli64	zero
    216a:	c400                	sw	s0,8(s0)
    216c:	0002                	c.slli64	zero
    216e:	0900                	addi	s0,sp,144
    2170:	0024                	addi	s1,sp,8
    2172:	0000                	unimp
    2174:	001f 040f 02ca      	0x2ca040f001f
    217a:	0000                	unimp
    217c:	0d12                	slli	s10,s10,0x4
    217e:	09a6                	slli	s3,s3,0x9
    2180:	0000                	unimp
    2182:	0308                	addi	a0,sp,384
    2184:	087a                	slli	a6,a6,0x1e
    2186:	000002f3          	0x2f3
    218a:	0006aa0b          	0x6aa0b
    218e:	0300                	addi	s0,sp,384
    2190:	02f3117b          	0x2f3117b
    2194:	0000                	unimp
    2196:	0b00                	addi	s0,sp,400
    2198:	000005bb          	0x5bb
    219c:	1d067c03          	0x1d067c03
    21a0:	0000                	unimp
    21a2:	0400                	addi	s0,sp,512
    21a4:	0f00                	addi	s0,sp,912
    21a6:	4004                	lw	s1,0(s0)
    21a8:	0000                	unimp
    21aa:	0d00                	addi	s0,sp,656
    21ac:	000009cf          	fnmadd.s	fs3,ft0,ft0,ft0,rne
    21b0:	0368                	addi	a0,sp,396
    21b2:	08ba                	slli	a7,a7,0xe
    21b4:	043c                	addi	a5,sp,520
    21b6:	0000                	unimp
    21b8:	5f0e                	lw	t5,224(sp)
    21ba:	0070                	addi	a2,sp,12
    21bc:	f312bb03          	0xf312bb03
    21c0:	0002                	c.slli64	zero
    21c2:	0000                	unimp
    21c4:	5f0e                	lw	t5,224(sp)
    21c6:	0072                	c.slli	zero,0x1c
    21c8:	1d07bc03          	0x1d07bc03
    21cc:	0000                	unimp
    21ce:	0400                	addi	s0,sp,512
    21d0:	5f0e                	lw	t5,224(sp)
    21d2:	bd030077          	0xbd030077
    21d6:	00001d07          	0x1d07
    21da:	0800                	addi	s0,sp,16
    21dc:	0006ed0b          	0x6ed0b
    21e0:	0300                	addi	s0,sp,384
    21e2:	09be                	slli	s3,s3,0xf
    21e4:	00000047          	fmsub.s	ft0,ft0,ft0,ft0,rne
    21e8:	0b0c                	addi	a1,sp,400
    21ea:	07da                	slli	a5,a5,0x16
    21ec:	0000                	unimp
    21ee:	4709bf03          	0x4709bf03
    21f2:	0000                	unimp
    21f4:	0e00                	addi	s0,sp,784
    21f6:	5f0e                	lw	t5,224(sp)
    21f8:	6662                	flw	fa2,24(sp)
    21fa:	0300                	addi	s0,sp,384
    21fc:	11c0                	addi	s0,sp,228
    21fe:	000002cb          	fnmsub.s	ft5,ft0,ft0,ft0,rne
    2202:	0b10                	addi	a2,sp,400
    2204:	063d                	addi	a2,a2,15
    2206:	0000                	unimp
    2208:	1d07c103          	lbu	sp,464(a5)
    220c:	0000                	unimp
    220e:	1800                	addi	s0,sp,48
    2210:	0006dd0b          	0x6dd0b
    2214:	0300                	addi	s0,sp,384
    2216:	0ac8                	addi	a0,sp,340
    2218:	00fd                	addi	ra,ra,31
    221a:	0000                	unimp
    221c:	0b1c                	addi	a5,sp,400
    221e:	0000092f          	0x92f
    2222:	c01dca03          	lbu	s4,-1023(s11)
    2226:	0005                	c.nop	1
    2228:	2000                	fld	fs0,0(s0)
    222a:	0008730b          	0x8730b
    222e:	0300                	addi	s0,sp,384
    2230:	1dcc                	addi	a1,sp,756
    2232:	000005ef          	jal	a1,2232 <_start-0x7fffddce>
    2236:	0b24                	addi	s1,sp,408
    2238:	00000a53          	fadd.s	fs4,ft0,ft0,rne
    223c:	130dcf03          	lbu	t5,304(s11)
    2240:	0006                	c.slli	zero,0x1
    2242:	2800                	fld	fs0,16(s0)
    2244:	00069d0b          	0x69d0b
    2248:	0300                	addi	s0,sp,384
    224a:	09d0                	addi	a2,sp,212
    224c:	062d                	addi	a2,a2,11
    224e:	0000                	unimp
    2250:	0e2c                	addi	a1,sp,792
    2252:	755f 0062 d303      	0xd3030062755f
    2258:	cb11                	beqz	a4,226c <_start-0x7fffdd94>
    225a:	0002                	c.slli64	zero
    225c:	3000                	fld	fs0,32(s0)
    225e:	5f0e                	lw	t5,224(sp)
    2260:	7075                	c.lui	zero,0xffffd
    2262:	0300                	addi	s0,sp,384
    2264:	12d4                	addi	a3,sp,356
    2266:	000002f3          	0x2f3
    226a:	0e38                	addi	a4,sp,792
    226c:	755f 0072 d503      	0xd5030072755f
    2272:	00001d07          	0x1d07
    2276:	3c00                	fld	fs0,56(s0)
    2278:	0006a40b          	0x6a40b
    227c:	0300                	addi	s0,sp,384
    227e:	11d8                	addi	a4,sp,228
    2280:	00000633          	add	a2,zero,zero
    2284:	0b40                	addi	s0,sp,404
    2286:	0b1f 0000 d903      	0xd90300000b1f
    228c:	4311                	li	t1,4
    228e:	0006                	c.slli	zero,0x1
    2290:	4300                	lw	s0,0(a4)
    2292:	5f0e                	lw	t5,224(sp)
    2294:	626c                	flw	fa1,68(a2)
    2296:	0300                	addi	s0,sp,384
    2298:	11dc                	addi	a5,sp,228
    229a:	000002cb          	fnmsub.s	ft5,ft0,ft0,ft0,rne
    229e:	0b44                	addi	s1,sp,404
    22a0:	0a6a                	slli	s4,s4,0x1a
    22a2:	0000                	unimp
    22a4:	1d07df03          	lhu	t5,464(a5)
    22a8:	0000                	unimp
    22aa:	4c00                	lw	s0,24(s0)
    22ac:	0008ad0b          	0x8ad0b
    22b0:	0300                	addi	s0,sp,384
    22b2:	0ae0                	addi	s0,sp,348
    22b4:	00000077          	0x77
    22b8:	0b50                	addi	a2,sp,404
    22ba:	05fa                	slli	a1,a1,0x1e
    22bc:	0000                	unimp
    22be:	5a12e303          	0x5a12e303
    22c2:	0004                	0x4
    22c4:	5400                	lw	s0,40(s0)
    22c6:	0008390b          	0x8390b
    22ca:	0300                	addi	s0,sp,384
    22cc:	01170ce7          	jalr	s9,17(a4)
    22d0:	0000                	unimp
    22d2:	0b58                	addi	a4,sp,404
    22d4:	07c2                	slli	a5,a5,0x10
    22d6:	0000                	unimp
    22d8:	f10ee903          	0xf10ee903
    22dc:	0000                	unimp
    22de:	5c00                	lw	s0,56(s0)
    22e0:	0009ad0b          	0x9ad0b
    22e4:	0300                	addi	s0,sp,384
    22e6:	09ea                	slli	s3,s3,0x1a
    22e8:	001d                	c.nop	7
    22ea:	0000                	unimp
    22ec:	0064                	addi	s1,sp,12
    22ee:	00008f13          	mv	t5,ra
    22f2:	5a00                	lw	s0,48(a2)
    22f4:	0004                	0x4
    22f6:	1400                	addi	s0,sp,544
    22f8:	045a                	slli	s0,s0,0x16
    22fa:	0000                	unimp
    22fc:	fd14                	fsw	fa3,56(a0)
    22fe:	0000                	unimp
    2300:	1400                	addi	s0,sp,544
    2302:	05ae                	slli	a1,a1,0xb
    2304:	0000                	unimp
    2306:	1d14                	addi	a3,sp,688
    2308:	0000                	unimp
    230a:	0000                	unimp
    230c:	0465040f          	0x465040f
    2310:	0000                	unimp
    2312:	5a15                	li	s4,-27
    2314:	0004                	0x4
    2316:	1600                	addi	s0,sp,800
    2318:	0a36                	slli	s4,s4,0xd
    231a:	0000                	unimp
    231c:	0428                	addi	a0,sp,520
    231e:	08026503          	0x8026503
    2322:	05ae                	slli	a1,a1,0xb
    2324:	0000                	unimp
    2326:	00098c17          	auipc	s8,0x98
    232a:	0300                	addi	s0,sp,384
    232c:	1d070267          	jalr	tp,464(a4)
    2330:	0000                	unimp
    2332:	0000                	unimp
    2334:	000aec17          	auipc	s8,0xae
    2338:	0300                	addi	s0,sp,384
    233a:	026c                	addi	a1,sp,268
    233c:	00069f0b          	0x69f0b
    2340:	0400                	addi	s0,sp,512
    2342:	000ad417          	auipc	s0,0xad
    2346:	0300                	addi	s0,sp,384
    2348:	026c                	addi	a1,sp,268
    234a:	9f14                	0x9f14
    234c:	0006                	c.slli	zero,0x1
    234e:	0800                	addi	s0,sp,16
    2350:	00078617          	auipc	a2,0x78
    2354:	0300                	addi	s0,sp,384
    2356:	026c                	addi	a1,sp,268
    2358:	9f1e                	add	t5,t5,t2
    235a:	0006                	c.slli	zero,0x1
    235c:	0c00                	addi	s0,sp,528
    235e:	0009f917          	auipc	s2,0x9f
    2362:	0300                	addi	s0,sp,384
    2364:	026e                	slli	tp,tp,0x1b
    2366:	1d08                	addi	a0,sp,688
    2368:	0000                	unimp
    236a:	1000                	addi	s0,sp,32
    236c:	0005c917          	auipc	s2,0x5c
    2370:	0300                	addi	s0,sp,384
    2372:	9f08026f          	jal	tp,fff82562 <__global_pointer$+0x7ff7e8fa>
    2376:	0008                	0x8
    2378:	1400                	addi	s0,sp,544
    237a:	000a1517          	auipc	a0,0xa1
    237e:	0300                	addi	s0,sp,384
    2380:	0272                	slli	tp,tp,0x1c
    2382:	00001d07          	0x1d07
    2386:	3000                	fld	fs0,32(s0)
    2388:	000a0317          	auipc	t1,0xa0
    238c:	0300                	addi	s0,sp,384
    238e:	b4160273          	0xb4160273
    2392:	0008                	0x8
    2394:	3400                	fld	fs0,40(s0)
    2396:	0008ec17          	auipc	s8,0x8e
    239a:	0300                	addi	s0,sp,384
    239c:	0275                	addi	tp,tp,29
    239e:	00001d07          	0x1d07
    23a2:	3800                	fld	fs0,48(s0)
    23a4:	000a0b17          	auipc	s6,0xa0
    23a8:	0300                	addi	s0,sp,384
    23aa:	c50a0277          	0xc50a0277
    23ae:	0008                	0x8
    23b0:	3c00                	fld	fs0,56(s0)
    23b2:	00081c17          	auipc	s8,0x81
    23b6:	0300                	addi	s0,sp,384
    23b8:	027a                	slli	tp,tp,0x1e
    23ba:	00017d13          	andi	s10,sp,0
    23be:	4000                	lw	s0,0(s0)
    23c0:	00070817          	auipc	a6,0x70
    23c4:	0300                	addi	s0,sp,384
    23c6:	1d07027b          	0x1d07027b
    23ca:	0000                	unimp
    23cc:	4400                	lw	s0,8(s0)
    23ce:	000b7e17          	auipc	t3,0xb7
    23d2:	0300                	addi	s0,sp,384
    23d4:	027c                	addi	a5,sp,268
    23d6:	00017d13          	andi	s10,sp,0
    23da:	4800                	lw	s0,16(s0)
    23dc:	0008fe17          	auipc	t3,0x8f
    23e0:	0300                	addi	s0,sp,384
    23e2:	027d                	addi	tp,tp,31
    23e4:	cb14                	sw	a3,16(a4)
    23e6:	0008                	0x8
    23e8:	4c00                	lw	s0,24(s0)
    23ea:	0007d217          	auipc	tp,0x7d
    23ee:	0300                	addi	s0,sp,384
    23f0:	0280                	addi	s0,sp,320
    23f2:	00001d07          	0x1d07
    23f6:	5000                	lw	s0,32(s0)
    23f8:	00073f17          	auipc	t5,0x73
    23fc:	0300                	addi	s0,sp,384
    23fe:	0281                	addi	t0,t0,0
    2400:	ae09                	j	2712 <_start-0x7fffd8ee>
    2402:	0005                	c.nop	1
    2404:	5400                	lw	s0,40(s0)
    2406:	00098517          	auipc	a0,0x98
    240a:	0300                	addi	s0,sp,384
    240c:	02a4                	addi	s1,sp,328
    240e:	00087a07          	0x87a07
    2412:	5800                	lw	s0,48(s0)
    2414:	da18                	sw	a4,48(a2)
    2416:	0008                	0x8
    2418:	0300                	addi	s0,sp,384
    241a:	02a8                	addi	a0,sp,328
    241c:	0002ae13          	slti	t3,t0,0
    2420:	4800                	lw	s0,16(s0)
    2422:	1801                	addi	a6,a6,-32
    2424:	07fa                	slli	a5,a5,0x1e
    2426:	0000                	unimp
    2428:	1202a903          	lw	s2,288(t0)
    242c:	0000026b          	0x26b
    2430:	014c                	addi	a1,sp,132
    2432:	0618                	addi	a4,sp,768
    2434:	0300000b          	0x300000b
    2438:	02ad                	addi	t0,t0,11
    243a:	dc0c                	sw	a1,56(s0)
    243c:	0008                	0x8
    243e:	dc00                	sw	s0,56(s0)
    2440:	1802                	slli	a6,a6,0x20
    2442:	06e5                	addi	a3,a3,25
    2444:	0000                	unimp
    2446:	1002b203          	0x1002b203
    244a:	0660                	addi	s0,sp,780
    244c:	0000                	unimp
    244e:	02e0                	addi	s0,sp,332
    2450:	ca18                	sw	a4,16(a2)
    2452:	0006                	c.slli	zero,0x1
    2454:	0300                	addi	s0,sp,384
    2456:	02b4                	addi	a3,sp,328
    2458:	e80a                	fsw	ft2,16(sp)
    245a:	0008                	0x8
    245c:	ec00                	fsw	fs0,24(s0)
    245e:	0002                	c.slli64	zero
    2460:	05b4040f          	0x5b4040f
    2464:	0000                	unimp
    2466:	69080103          	lb	sp,1680(a6) # 72a50 <_start-0x7ff8d5b0>
    246a:	0000                	unimp
    246c:	1500                	addi	s0,sp,672
    246e:	05b4                	addi	a3,sp,712
    2470:	0000                	unimp
    2472:	043c040f          	0x43c040f
    2476:	0000                	unimp
    2478:	00008f13          	mv	t5,ra
    247c:	e400                	fsw	fs0,8(s0)
    247e:	0005                	c.nop	1
    2480:	1400                	addi	s0,sp,544
    2482:	045a                	slli	s0,s0,0x16
    2484:	0000                	unimp
    2486:	fd14                	fsw	fa3,56(a0)
    2488:	0000                	unimp
    248a:	1400                	addi	s0,sp,544
    248c:	05e4                	addi	s1,sp,716
    248e:	0000                	unimp
    2490:	1d14                	addi	a3,sp,688
    2492:	0000                	unimp
    2494:	0000                	unimp
    2496:	05bb040f          	0x5bb040f
    249a:	0000                	unimp
    249c:	e415                	bnez	s0,24c8 <_start-0x7fffdb38>
    249e:	0005                	c.nop	1
    24a0:	0f00                	addi	s0,sp,912
    24a2:	c604                	sw	s1,8(a2)
    24a4:	0005                	c.nop	1
    24a6:	1300                	addi	s0,sp,416
    24a8:	00000083          	lb	ra,0(zero) # 0 <_start-0x80000000>
    24ac:	00000613          	li	a2,0
    24b0:	5a14                	lw	a3,48(a2)
    24b2:	0004                	0x4
    24b4:	1400                	addi	s0,sp,544
    24b6:	00fd                	addi	ra,ra,31
    24b8:	0000                	unimp
    24ba:	8314                	0x8314
    24bc:	0000                	unimp
    24be:	1400                	addi	s0,sp,544
    24c0:	001d                	c.nop	7
    24c2:	0000                	unimp
    24c4:	0f00                	addi	s0,sp,912
    24c6:	f504                	fsw	fs1,40(a0)
    24c8:	0005                	c.nop	1
    24ca:	1300                	addi	s0,sp,416
    24cc:	001d                	c.nop	7
    24ce:	0000                	unimp
    24d0:	062d                	addi	a2,a2,11
    24d2:	0000                	unimp
    24d4:	5a14                	lw	a3,48(a2)
    24d6:	0004                	0x4
    24d8:	1400                	addi	s0,sp,544
    24da:	00fd                	addi	ra,ra,31
    24dc:	0000                	unimp
    24de:	0f00                	addi	s0,sp,912
    24e0:	1904                	addi	s1,sp,176
    24e2:	0006                	c.slli	zero,0x1
    24e4:	0800                	addi	s0,sp,16
    24e6:	0040                	addi	s0,sp,4
    24e8:	0000                	unimp
    24ea:	00000643          	fmadd.s	fa2,ft0,ft0,ft0,rne
    24ee:	2409                	jal	26f0 <_start-0x7fffd910>
    24f0:	0000                	unimp
    24f2:	0200                	addi	s0,sp,256
    24f4:	0800                	addi	s0,sp,16
    24f6:	0040                	addi	s0,sp,4
    24f8:	0000                	unimp
    24fa:	00000653          	fadd.s	fa2,ft0,ft0,rne
    24fe:	2409                	jal	2700 <_start-0x7fffd900>
    2500:	0000                	unimp
    2502:	0000                	unimp
    2504:	0400                	addi	s0,sp,512
    2506:	0701                	addi	a4,a4,0
    2508:	0000                	unimp
    250a:	1a012403          	lw	s0,416(sp)
    250e:	02f9                	addi	t0,t0,30
    2510:	0000                	unimp
    2512:	e619                	bnez	a2,2520 <_start-0x7fffdae0>
    2514:	000a                	c.slli	zero,0x2
    2516:	0c00                	addi	s0,sp,528
    2518:	08012803          	lw	a6,128(sp)
    251c:	0699                	addi	a3,a3,6
    251e:	0000                	unimp
    2520:	0009e617          	auipc	a2,0x9e
    2524:	0300                	addi	s0,sp,384
    2526:	012a                	slli	sp,sp,0xa
    2528:	9911                	andi	a0,a0,-28
    252a:	0006                	c.slli	zero,0x1
    252c:	0000                	unimp
    252e:	0007ea17          	auipc	s4,0x7e
    2532:	0300                	addi	s0,sp,384
    2534:	1d07012b          	0x1d07012b
    2538:	0000                	unimp
    253a:	0400                	addi	s0,sp,512
    253c:	0009b517          	auipc	a0,0x9b
    2540:	0300                	addi	s0,sp,384
    2542:	012c                	addi	a1,sp,136
    2544:	00069f0b          	0x69f0b
    2548:	0800                	addi	s0,sp,16
    254a:	0f00                	addi	s0,sp,912
    254c:	6004                	flw	fs1,0(s0)
    254e:	0006                	c.slli	zero,0x1
    2550:	0f00                	addi	s0,sp,912
    2552:	5304                	lw	s1,32(a4)
    2554:	0006                	c.slli	zero,0x1
    2556:	1900                	addi	s0,sp,176
    2558:	05c1                	addi	a1,a1,16
    255a:	0000                	unimp
    255c:	030e                	slli	t1,t1,0x3
    255e:	0144                	addi	s1,sp,132
    2560:	de08                	sw	a0,56(a2)
    2562:	0006                	c.slli	zero,0x1
    2564:	1700                	addi	s0,sp,928
    2566:	0a3d                	addi	s4,s4,15
    2568:	0000                	unimp
    256a:	12014503          	lbu	a0,288(sp)
    256e:	06de                	slli	a3,a3,0x17
    2570:	0000                	unimp
    2572:	1700                	addi	s0,sp,928
    2574:	0855                	addi	a6,a6,21
    2576:	0000                	unimp
    2578:	12014603          	lbu	a2,288(sp)
    257c:	06de                	slli	a3,a3,0x17
    257e:	0000                	unimp
    2580:	1706                	slli	a4,a4,0x21
    2582:	0a9f 0000 4703      	0x470300000a9f
    2588:	1201                	addi	tp,tp,-32
    258a:	004e                	c.slli	zero,0x13
    258c:	0000                	unimp
    258e:	000c                	0xc
    2590:	4e08                	lw	a0,24(a2)
    2592:	0000                	unimp
    2594:	ee00                	fsw	fs0,24(a2)
    2596:	0006                	c.slli	zero,0x1
    2598:	0900                	addi	s0,sp,144
    259a:	0024                	addi	s1,sp,8
    259c:	0000                	unimp
    259e:	0002                	c.slli64	zero
    25a0:	d01a                	sw	t1,32(sp)
    25a2:	07028503          	lb	a0,112(t0)
    25a6:	00000803          	lb	a6,0(zero) # 0 <_start-0x80000000>
    25aa:	00088f17          	auipc	t5,0x88
    25ae:	0300                	addi	s0,sp,384
    25b0:	24180287          	0x24180287
    25b4:	0000                	unimp
    25b6:	0000                	unimp
    25b8:	000a8217          	auipc	tp,0xa8
    25bc:	0300                	addi	s0,sp,384
    25be:	0288                	addi	a0,sp,320
    25c0:	ae12                	fsd	ft4,280(sp)
    25c2:	0005                	c.nop	1
    25c4:	0400                	addi	s0,sp,512
    25c6:	00080f17          	auipc	t5,0x80
    25ca:	0300                	addi	s0,sp,384
    25cc:	0289                	addi	t0,t0,2
    25ce:	0310                	addi	a2,sp,384
    25d0:	0008                	0x8
    25d2:	0800                	addi	s0,sp,16
    25d4:	000b3817          	auipc	a6,0xb3
    25d8:	0300                	addi	s0,sp,384
    25da:	028a                	slli	t0,t0,0x2
    25dc:	00019317          	auipc	t1,0x19
    25e0:	2400                	fld	fs0,8(s0)
    25e2:	00079617          	auipc	a2,0x79
    25e6:	0300                	addi	s0,sp,384
    25e8:	1d0f028b          	0x1d0f028b
    25ec:	0000                	unimp
    25ee:	4800                	lw	s0,16(s0)
    25f0:	0009e117          	auipc	sp,0x9e
    25f4:	0300                	addi	s0,sp,384
    25f6:	028c                	addi	a1,sp,320
    25f8:	632c                	flw	fa1,64(a4)
    25fa:	0000                	unimp
    25fc:	5000                	lw	s0,32(s0)
    25fe:	000b5017          	auipc	zero,0xb5
    2602:	0300                	addi	s0,sp,384
    2604:	028d                	addi	t0,t0,3
    2606:	a51a                	fsd	ft6,136(sp)
    2608:	0006                	c.slli	zero,0x1
    260a:	5800                	lw	s0,48(s0)
    260c:	0009ec17          	auipc	s8,0x9e
    2610:	0300                	addi	s0,sp,384
    2612:	028e                	slli	t0,t0,0x3
    2614:	f116                	fsw	ft5,160(sp)
    2616:	0000                	unimp
    2618:	6800                	flw	fs0,16(s0)
    261a:	000b7017          	auipc	zero,0xb7
    261e:	0300                	addi	s0,sp,384
    2620:	f116028f          	0xf116028f
    2624:	0000                	unimp
    2626:	7000                	flw	fs0,32(s0)
    2628:	00068617          	auipc	a2,0x68
    262c:	0300                	addi	s0,sp,384
    262e:	0290                	addi	a2,sp,320
    2630:	f116                	fsw	ft5,160(sp)
    2632:	0000                	unimp
    2634:	7800                	flw	fs0,48(s0)
    2636:	000afc17          	auipc	s8,0xaf
    263a:	0300                	addi	s0,sp,384
    263c:	0291                	addi	t0,t0,4
    263e:	1310                	addi	a2,sp,416
    2640:	0008                	0x8
    2642:	8000                	0x8000
    2644:	00080317          	auipc	t1,0x80
    2648:	0300                	addi	s0,sp,384
    264a:	0292                	slli	t0,t0,0x4
    264c:	2310                	fld	fa2,0(a4)
    264e:	0008                	0x8
    2650:	8800                	0x8800
    2652:	0005ed17          	auipc	s10,0x5e
    2656:	0300                	addi	s0,sp,384
    2658:	1d0f0293          	addi	t0,t5,464 # 82796 <_start-0x7ff7d86a>
    265c:	0000                	unimp
    265e:	a000                	fsd	fs0,0(s0)
    2660:	00075817          	auipc	a6,0x75
    2664:	0300                	addi	s0,sp,384
    2666:	0294                	addi	a3,sp,320
    2668:	f116                	fsw	ft5,160(sp)
    266a:	0000                	unimp
    266c:	a400                	fsd	fs0,8(s0)
    266e:	00066f17          	auipc	t5,0x66
    2672:	0300                	addi	s0,sp,384
    2674:	0295                	addi	t0,t0,5
    2676:	f116                	fsw	ft5,160(sp)
    2678:	0000                	unimp
    267a:	ac00                	fsd	fs0,24(s0)
    267c:	00074717          	auipc	a4,0x74
    2680:	0300                	addi	s0,sp,384
    2682:	0296                	slli	t0,t0,0x5
    2684:	f116                	fsw	ft5,160(sp)
    2686:	0000                	unimp
    2688:	b400                	fsd	fs0,40(s0)
    268a:	00060017          	auipc	zero,0x60
    268e:	0300                	addi	s0,sp,384
    2690:	f1160297          	auipc	t0,0xf1160
    2694:	0000                	unimp
    2696:	bc00                	fsd	fs0,56(s0)
    2698:	00062c17          	auipc	s8,0x62
    269c:	0300                	addi	s0,sp,384
    269e:	0298                	addi	a4,sp,320
    26a0:	f116                	fsw	ft5,160(sp)
    26a2:	0000                	unimp
    26a4:	c400                	sw	s0,8(s0)
    26a6:	00098a17          	auipc	s4,0x98
    26aa:	0300                	addi	s0,sp,384
    26ac:	0299                	addi	t0,t0,6
    26ae:	1d08                	addi	a0,sp,688
    26b0:	0000                	unimp
    26b2:	cc00                	sw	s0,24(s0)
    26b4:	0800                	addi	s0,sp,16
    26b6:	05b4                	addi	a3,sp,712
    26b8:	0000                	unimp
    26ba:	00000813          	li	a6,0
    26be:	2409                	jal	28c0 <_start-0x7fffd740>
    26c0:	0000                	unimp
    26c2:	1900                	addi	s0,sp,176
    26c4:	0800                	addi	s0,sp,16
    26c6:	05b4                	addi	a3,sp,712
    26c8:	0000                	unimp
    26ca:	00000823          	sb	zero,16(zero) # 10 <_start-0x7ffffff0>
    26ce:	2409                	jal	28d0 <_start-0x7fffd730>
    26d0:	0000                	unimp
    26d2:	0700                	addi	s0,sp,896
    26d4:	0800                	addi	s0,sp,16
    26d6:	05b4                	addi	a3,sp,712
    26d8:	0000                	unimp
    26da:	00000833          	add	a6,zero,zero
    26de:	2409                	jal	28e0 <_start-0x7fffd720>
    26e0:	0000                	unimp
    26e2:	1700                	addi	s0,sp,928
    26e4:	1a00                	addi	s0,sp,304
    26e6:	03f0                	addi	a2,sp,460
    26e8:	029e                	slli	t0,t0,0x7
    26ea:	00085a07          	0x85a07
    26ee:	1700                	addi	s0,sp,928
    26f0:	08bc                	addi	a5,sp,88
    26f2:	0000                	unimp
    26f4:	1b02a103          	lw	sp,432(t0) # f1162840 <__global_pointer$+0x7115ebd8>
    26f8:	085a                	slli	a6,a6,0x16
    26fa:	0000                	unimp
    26fc:	1700                	addi	s0,sp,928
    26fe:	07a5                	addi	a5,a5,9
    2700:	0000                	unimp
    2702:	1802a203          	lw	tp,384(t0)
    2706:	086a                	slli	a6,a6,0x1a
    2708:	0000                	unimp
    270a:	0078                	addi	a4,sp,12
    270c:	f308                	fsw	fa0,32(a4)
    270e:	0002                	c.slli64	zero
    2710:	6a00                	flw	fs0,16(a2)
    2712:	0008                	0x8
    2714:	0900                	addi	s0,sp,144
    2716:	0024                	addi	s1,sp,8
    2718:	0000                	unimp
    271a:	001d                	c.nop	7
    271c:	2408                	fld	fa0,8(s0)
    271e:	0000                	unimp
    2720:	7a00                	flw	fs0,48(a2)
    2722:	0008                	0x8
    2724:	0900                	addi	s0,sp,144
    2726:	0024                	addi	s1,sp,8
    2728:	0000                	unimp
    272a:	001d                	c.nop	7
    272c:	8303f01b          	0x8303f01b
    2730:	0302                	c.slli64	t1
    2732:	089f 0000 361c      	0x361c0000089f
    2738:	000a                	c.slli	zero,0x2
    273a:	0300                	addi	s0,sp,384
    273c:	029a                	slli	t0,t0,0x6
    273e:	0006ee0b          	0x6ee0b
    2742:	1c00                	addi	s0,sp,560
    2744:	0b25                	addi	s6,s6,9
    2746:	0000                	unimp
    2748:	0b02a303          	lw	t1,176(t0)
    274c:	00000833          	add	a6,zero,zero
    2750:	0800                	addi	s0,sp,16
    2752:	05b4                	addi	a3,sp,712
    2754:	0000                	unimp
    2756:	000008af          	0x8af
    275a:	2409                	jal	295c <_start-0x7fffd6a4>
    275c:	0000                	unimp
    275e:	1800                	addi	s0,sp,48
    2760:	1d00                	addi	s0,sp,688
    2762:	0664                	addi	s1,sp,780
    2764:	0000                	unimp
    2766:	08af040f          	0x8af040f
    276a:	0000                	unimp
    276c:	c51e                	sw	t2,136(sp)
    276e:	0008                	0x8
    2770:	1400                	addi	s0,sp,544
    2772:	045a                	slli	s0,s0,0x16
    2774:	0000                	unimp
    2776:	0f00                	addi	s0,sp,912
    2778:	ba04                	fsd	fs1,48(a2)
    277a:	0008                	0x8
    277c:	0f00                	addi	s0,sp,912
    277e:	7d04                	flw	fs1,56(a0)
    2780:	0001                	nop
    2782:	1e00                	addi	s0,sp,816
    2784:	08dc                	addi	a5,sp,84
    2786:	0000                	unimp
    2788:	1d14                	addi	a3,sp,688
    278a:	0000                	unimp
    278c:	0000                	unimp
    278e:	08e2040f          	0x8e2040f
    2792:	0000                	unimp
    2794:	08d1040f          	0x8d1040f
    2798:	0000                	unimp
    279a:	5308                	lw	a0,32(a4)
    279c:	0006                	c.slli	zero,0x1
    279e:	f800                	fsw	fs0,48(s0)
    27a0:	0008                	0x8
    27a2:	0900                	addi	s0,sp,144
    27a4:	0024                	addi	s1,sp,8
    27a6:	0000                	unimp
    27a8:	0002                	c.slli64	zero
    27aa:	c81f 000a 0300      	0x300000ac81f
    27b0:	5a170333          	0x5a170333
    27b4:	0004                	0x4
    27b6:	1f00                	addi	s0,sp,944
    27b8:	0ac1                	addi	s5,s5,16
    27ba:	0000                	unimp
    27bc:	1d033403          	0x1d033403
    27c0:	0460                	addi	s0,sp,524
    27c2:	0000                	unimp
    27c4:	ea08                	fsw	fa0,16(a2)
    27c6:	0005                	c.nop	1
    27c8:	1d00                	addi	s0,sp,688
    27ca:	0009                	c.nop	2
    27cc:	2000                	fld	fs0,0(s0)
    27ce:	1500                	addi	s0,sp,672
    27d0:	0912                	slli	s2,s2,0x4
    27d2:	0000                	unimp
    27d4:	3221                	jal	20dc <_start-0x7fffdf24>
    27d6:	05000007          	0x5000007
    27da:	2414                	fld	fa3,8(s0)
    27dc:	091d                	addi	s2,s2,7
    27de:	0000                	unimp
    27e0:	d721                	beqz	a4,2728 <_start-0x7fffd8d8>
    27e2:	0009                	c.nop	2
    27e4:	0500                	addi	s0,sp,640
    27e6:	1515                	addi	a0,a0,-27
    27e8:	001d                	c.nop	7
    27ea:	0000                	unimp
    27ec:	0940040f          	0x940040f
    27f0:	0000                	unimp
    27f2:	00001d13          	slli	s10,zero,0x0
    27f6:	5400                	lw	s0,40(s0)
    27f8:	0009                	c.nop	2
    27fa:	1400                	addi	s0,sp,544
    27fc:	0954                	addi	a3,sp,148
    27fe:	0000                	unimp
    2800:	5414                	lw	a3,40(s0)
    2802:	0009                	c.nop	2
    2804:	0000                	unimp
    2806:	095a040f          	0x95a040f
    280a:	0000                	unimp
    280c:	2122                	fld	ft2,8(sp)
    280e:	08e2                	slli	a7,a7,0x18
    2810:	0000                	unimp
    2812:	6706                	flw	fa4,64(sp)
    2814:	ae0e                	fsd	ft3,280(sp)
    2816:	0005                	c.nop	1
    2818:	2100                	fld	fs0,0(a0)
    281a:	082a                	slli	a6,a6,0xa
    281c:	0000                	unimp
    281e:	730f1007          	0x730f1007
    2822:	0009                	c.nop	2
    2824:	0f00                	addi	s0,sp,912
    2826:	ae04                	fsd	fs1,24(a2)
    2828:	0005                	c.nop	1
    282a:	2100                	fld	fs0,0(a0)
    282c:	08e5                	addi	a7,a7,25
    282e:	0000                	unimp
    2830:	ae0efc07          	0xae0efc07
    2834:	0005                	c.nop	1
    2836:	2100                	fld	fs0,0(a0)
    2838:	08b5                	addi	a7,a7,13
    283a:	0000                	unimp
    283c:	1d0cfd07          	0x1d0cfd07
    2840:	0000                	unimp
    2842:	2100                	fld	fs0,0(a0)
    2844:	00000a7b          	0xa7b
    2848:	1d14fd07          	0x1d14fd07
    284c:	0000                	unimp
    284e:	2100                	fld	fs0,0(a0)
    2850:	0b5f 0000 fd07      	0xfd0700000b5f
    2856:	1d1c                	addi	a5,sp,688
    2858:	0000                	unimp
    285a:	2100                	fld	fs0,0(a0)
    285c:	086a                	slli	a6,a6,0x1a
    285e:	0000                	unimp
    2860:	1d0cff07          	0x1d0cff07
    2864:	0000                	unimp
    2866:	2100                	fld	fs0,0(a0)
    2868:	0908                	addi	a0,sp,144
    286a:	0000                	unimp
    286c:	9a08                	0x9a08
    286e:	5516                	lw	a0,100(sp)
    2870:	0000                	unimp
    2872:	2100                	fld	fs0,0(a0)
    2874:	05d4                	addi	a3,sp,708
    2876:	0000                	unimp
    2878:	9b08                	0x9b08
    287a:	1d15                	addi	s10,s10,-27
    287c:	0000                	unimp
    287e:	0800                	addi	s0,sp,16
    2880:	05ae                	slli	a1,a1,0xb
    2882:	0000                	unimp
    2884:	09dd                	addi	s3,s3,23
    2886:	0000                	unimp
    2888:	2409                	jal	2a8a <_start-0x7fffd576>
    288a:	0000                	unimp
    288c:	0100                	addi	s0,sp,128
    288e:	2100                	fld	fs0,0(a0)
    2890:	067e                	slli	a2,a2,0x1f
    2892:	0000                	unimp
    2894:	9e08                	0x9e08
    2896:	0009cd17          	auipc	s10,0x9c
    289a:	0500                	addi	s0,sp,640
    289c:	07e0                	addi	s0,sp,972
    289e:	0000                	unimp
    28a0:	2a09                	jal	29b2 <_start-0x7fffd64e>
    28a2:	2416                	fld	fs0,320(sp)
    28a4:	0000                	unimp
    28a6:	0500                	addi	s0,sp,640
    28a8:	09c5                	addi	s3,s3,17
    28aa:	0000                	unimp
    28ac:	2f09                	jal	2fbe <_start-0x7fffd042>
    28ae:	0115                	addi	sp,sp,5
    28b0:	000a                	c.slli	zero,0x2
    28b2:	0f00                	addi	s0,sp,912
    28b4:	0704                	addi	s1,sp,896
    28b6:	000a                	c.slli	zero,0x2
    28b8:	1300                	addi	s0,sp,416
    28ba:	09e9                	addi	s3,s3,26
    28bc:	0000                	unimp
    28be:	0a16                	slli	s4,s4,0x5
    28c0:	0000                	unimp
    28c2:	5414                	lw	a3,40(s0)
    28c4:	0009                	c.nop	2
    28c6:	0000                	unimp
    28c8:	8d05                	sub	a0,a0,s1
    28ca:	0900000b          	0x900000b
    28ce:	0f36                	slli	t5,t5,0xd
    28d0:	093a                	slli	s2,s2,0xe
    28d2:	0000                	unimp
    28d4:	a921                	j	2cec <_start-0x7fffd314>
    28d6:	0005                	c.nop	1
    28d8:	0900                	addi	s0,sp,144
    28da:	09f512bb          	0x9f512bb
    28de:	0000                	unimp
    28e0:	ac21                	j	2af8 <_start-0x7fffd508>
    28e2:	000a                	c.slli	zero,0x2
    28e4:	0900                	addi	s0,sp,144
    28e6:	10be                	slli	ra,ra,0x2f
    28e8:	0a16                	slli	s4,s4,0x5
    28ea:	0000                	unimp
    28ec:	0007b323          	0x7b323
    28f0:	0700                	addi	s0,sp,896
    28f2:	2404                	fld	fs1,8(s0)
    28f4:	0000                	unimp
    28f6:	0a00                	addi	s0,sp,272
    28f8:	0618                	addi	a4,sp,768
    28fa:	00000a77          	0xa77
    28fe:	6524                	flw	fs1,72(a0)
    2900:	0009                	c.nop	2
    2902:	0000                	unimp
    2904:	4a24                	lw	s1,80(a2)
    2906:	0008                	0x8
    2908:	0100                	addi	s0,sp,128
    290a:	8424                	0x8424
    290c:	0008                	0x8
    290e:	0200                	addi	s0,sp,256
    2910:	3f24                	fld	fs1,120(a4)
    2912:	0008                	0x8
    2914:	0300                	addi	s0,sp,384
    2916:	5c24                	lw	s1,120(s0)
    2918:	0009                	c.nop	2
    291a:	0400                	addi	s0,sp,512
    291c:	6624                	flw	fs1,72(a2)
    291e:	0500000b          	0x500000b
    2922:	5524                	lw	s1,104(a0)
    2924:	0600000b          	0x600000b
    2928:	2100                	fld	fs0,0(a0)
    292a:	065a                	slli	a2,a2,0x16
    292c:	0000                	unimp
    292e:	210a                	fld	ft2,128(sp)
    2930:	3a1c                	fld	fa5,48(a2)
    2932:	000a                	c.slli	zero,0x2
    2934:	2300                	fld	fs0,0(a4)
    2936:	089c                	addi	a5,sp,80
    2938:	0000                	unimp
    293a:	00240407          	0x240407
    293e:	0000                	unimp
    2940:	230a                	fld	ft6,128(sp)
    2942:	a806                	fsd	ft1,16(sp)
    2944:	000a                	c.slli	zero,0x2
    2946:	2400                	fld	fs0,8(s0)
    2948:	000009bb          	0x9bb
    294c:	2400                	fld	fs0,8(s0)
    294e:	0000097b          	0x97b
    2952:	2401                	jal	2b52 <_start-0x7fffd4ae>
    2954:	00000a8f          	0xa8f
    2958:	0002                	c.slli64	zero
    295a:	6621                	lui	a2,0x8
    295c:	0a000007          	0xa000007
    2960:	1e28                	addi	a0,sp,824
    2962:	00000a83          	lb	s5,0(zero) # 0 <_start-0x80000000>
    2966:	00060f23          	sb	zero,30(a2) # 801e <_start-0x7fff7fe2>
    296a:	0700                	addi	s0,sp,896
    296c:	2404                	fld	fs1,8(s0)
    296e:	0000                	unimp
    2970:	0a00                	addi	s0,sp,272
    2972:	0ad3062b          	0xad3062b
    2976:	0000                	unimp
    2978:	7324                	flw	fs1,96(a4)
    297a:	000a                	c.slli	zero,0x2
    297c:	0000                	unimp
    297e:	6124                	flw	fs1,64(a0)
    2980:	000a                	c.slli	zero,0x2
    2982:	0100                	addi	s0,sp,128
    2984:	2100                	fld	fs0,0(a0)
    2986:	071a                	slli	a4,a4,0x6
    2988:	0000                	unimp
    298a:	2f0a                	fld	ft10,128(sp)
    298c:	b42a                	fsd	fa0,40(sp)
    298e:	000a                	c.slli	zero,0x2
    2990:	2100                	fld	fs0,0(a0)
    2992:	0000085b          	0x85b
    2996:	1d1a290b          	0x1d1a290b
    299a:	0009                	c.nop	2
    299c:	2100                	fld	fs0,0(a0)
    299e:	06ba                	slli	a3,a3,0xe
    29a0:	0000                	unimp
    29a2:	1d1a380b          	0x1d1a380b
    29a6:	0009                	c.nop	2
    29a8:	0500                	addi	s0,sp,640
    29aa:	00c8                	addi	a0,sp,68
    29ac:	0000                	unimp
    29ae:	7b0c                	flw	fa1,48(a4)
    29b0:	4016                	0x4016
    29b2:	0000                	unimp
    29b4:	1500                	addi	s0,sp,672
    29b6:	00000af7          	0xaf7
    29ba:	cb040403          	lb	s0,-848(s0) # aeff2 <_start-0x7ff5100e>
    29be:	0008                	0x8
    29c0:	0300                	addi	s0,sp,384
    29c2:	0308                	addi	a0,sp,384
    29c4:	000008c3          	fmadd.s	fa7,ft0,ft0,ft0,rne
    29c8:	53040803          	lb	a6,1328(s0)
    29cc:	0006                	c.slli	zero,0x1
    29ce:	0300                	addi	s0,sp,384
    29d0:	0310                	addi	a2,sp,384
    29d2:	05de                	slli	a1,a1,0x17
    29d4:	0000                	unimp
    29d6:	46032003          	lw	zero,1120(t1) # 82aa4 <_start-0x7ff7d55c>
    29da:	0006                	c.slli	zero,0x1
    29dc:	0800                	addi	s0,sp,16
    29de:	00000b03          	lb	s6,0(zero) # 0 <_start-0x80000000>
    29e2:	00000b3b          	0xb3b
    29e6:	2409                	jal	2be8 <_start-0x7fffd418>
    29e8:	0000                	unimp
    29ea:	ff00                	fsw	fs0,56(a4)
    29ec:	1500                	addi	s0,sp,672
    29ee:	00000b2b          	0xb2b
    29f2:	101f 000b 0c00      	0xc00000b101f
    29f8:	01fc                	addi	a5,sp,204
    29fa:	3b16                	fld	fs6,352(sp)
    29fc:	1f00000b          	0x1f00000b
    2a00:	00d0                	addi	a2,sp,68
    2a02:	0000                	unimp
    2a04:	020c                	addi	a1,sp,256
    2a06:	1602                	slli	a2,a2,0x20
    2a08:	00000b3b          	0xb3b
    2a0c:	4d25                	li	s10,9
    2a0e:	0d00000b          	0xd00000b
    2a12:	02b2                	slli	t0,t0,0xc
    2a14:	6403050f          	0x6403050f
    2a18:	00800023          	sb	s0,0(zero) # 0 <_start-0x80000000>

Disassembly of section .debug_abbrev:

00000000 <.debug_abbrev>:
   0:	1101                	addi	sp,sp,-32
   2:	2501                	jal	602 <_start-0x7ffff9fe>
   4:	130e                	slli	t1,t1,0x23
   6:	1b0e030b          	0x1b0e030b
   a:	110e                	slli	sp,sp,0x23
   c:	1201                	addi	tp,tp,-32
   e:	1006                	c.slli	zero,0x21
  10:	02000017          	auipc	zero,0x2000
  14:	0024                	addi	s1,sp,8
  16:	0b3e0b0b          	0xb3e0b0b
  1a:	00000e03          	lb	t3,0(zero) # 0 <_start-0x80000000>
  1e:	0b002403          	lw	s0,176(zero) # b0 <_start-0x7fffff50>
  22:	030b3e0b          	0x30b3e0b
  26:	0008                	0x8
  28:	0400                	addi	s0,sp,512
  2a:	0016                	c.slli	zero,0x5
  2c:	0b3a0e03          	lb	t3,179(s4) # 9a759 <_start-0x7ff658a7>
  30:	0b39053b          	0xb39053b
  34:	1349                	addi	t1,t1,-14
  36:	0000                	unimp
  38:	2605                	jal	358 <_start-0x7ffffca8>
  3a:	4900                	lw	s0,16(a0)
  3c:	06000013          	li	zero,96
  40:	0101                	addi	sp,sp,0
  42:	1349                	addi	t1,t1,-14
  44:	1301                	addi	t1,t1,-32
  46:	0000                	unimp
  48:	49002107          	flw	ft2,1168(zero) # 490 <_start-0x7ffffb70>
  4c:	000b2f13          	slti	t5,s6,0
  50:	0800                	addi	s0,sp,16
  52:	0034                	addi	a3,sp,8
  54:	0b3a0e03          	lb	t3,179(s4)
  58:	0b390b3b          	0xb390b3b
  5c:	1349                	addi	t1,t1,-14
  5e:	193c193f 16090000 	0x16090000193c193f
  66:	0300                	addi	s0,sp,384
  68:	3a0e                	fld	fs4,224(sp)
  6a:	390b3b0b          	0x390b3b0b
  6e:	0013490b          	0x13490b
  72:	0a00                	addi	s0,sp,272
  74:	0b0b0113          	addi	sp,s6,176 # a2454 <_start-0x7ff5dbac>
  78:	0b3a                	slli	s6,s6,0xe
  7a:	0b390b3b          	0xb390b3b
  7e:	1301                	addi	t1,t1,-32
  80:	0000                	unimp
  82:	03000d0b          	0x3000d0b
  86:	3a0e                	fld	fs4,224(sp)
  88:	390b3b0b          	0x390b3b0b
  8c:	0b13490b          	0xb13490b
  90:	0c0b0d0b          	0xc0b0d0b
  94:	000b380b          	0xb380b
  98:	0c00                	addi	s0,sp,528
  9a:	000d                	c.nop	3
  9c:	0b3a0803          	lb	a6,179(s4)
  a0:	0b390b3b          	0xb390b3b
  a4:	1349                	addi	t1,t1,-14
  a6:	0b0d0b0b          	0xb0d0b0b
  aa:	0b0c                	addi	a1,sp,400
  ac:	0b38                	addi	a4,sp,408
  ae:	0000                	unimp
  b0:	170d                	addi	a4,a4,-29
  b2:	0301                	addi	t1,t1,0
  b4:	0b0e                	slli	s6,s6,0x3
  b6:	3b0b3a0b          	0x3b0b3a0b
  ba:	010b390b          	0x10b390b
  be:	0e000013          	li	zero,224
  c2:	000d                	c.nop	3
  c4:	0b3a0803          	lb	a6,179(s4)
  c8:	0b390b3b          	0xb390b3b
  cc:	1349                	addi	t1,t1,-14
  ce:	0000                	unimp
  d0:	03000d0f          	0x3000d0f
  d4:	3a0e                	fld	fs4,224(sp)
  d6:	390b3b0b          	0x390b3b0b
  da:	0013490b          	0x13490b
  de:	1000                	addi	s0,sp,32
  e0:	012e                	slli	sp,sp,0xb
  e2:	0e03193f 0b3b0b3a 	0xb3b0b3a0e03193f
  ea:	0b39                	addi	s6,s6,14
  ec:	13491927          	0x13491927
  f0:	0111                	addi	sp,sp,4
  f2:	0612                	slli	a2,a2,0x4
  f4:	1840                	addi	s0,sp,52
  f6:	4296                	lw	t0,68(sp)
  f8:	0119                	addi	sp,sp,6
  fa:	11000013          	li	zero,272
  fe:	0005                	c.nop	1
 100:	0b3a0803          	lb	a6,179(s4)
 104:	0b390b3b          	0xb390b3b
 108:	1349                	addi	t1,t1,-14
 10a:	1702                	slli	a4,a4,0x20
 10c:	0000                	unimp
 10e:	3412                	fld	fs0,288(sp)
 110:	0300                	addi	s0,sp,384
 112:	3a0e                	fld	fs4,224(sp)
 114:	390b3b0b          	0x390b3b0b
 118:	0213490b          	0x213490b
 11c:	13000017          	auipc	zero,0x13000
 120:	0034                	addi	a3,sp,8
 122:	0b3a0e03          	lb	t3,179(s4)
 126:	0b390b3b          	0xb390b3b
 12a:	1349                	addi	t1,t1,-14
 12c:	0b1c                	addi	a5,sp,400
 12e:	0000                	unimp
 130:	3414                	fld	fa3,40(s0)
 132:	0300                	addi	s0,sp,384
 134:	3a08                	fld	fa0,48(a2)
 136:	390b3b0b          	0x390b3b0b
 13a:	0013490b          	0x13490b
 13e:	1500                	addi	s0,sp,672
 140:	0034                	addi	a3,sp,8
 142:	0b3a0803          	lb	a6,179(s4)
 146:	0b390b3b          	0xb390b3b
 14a:	1349                	addi	t1,t1,-14
 14c:	1702                	slli	a4,a4,0x20
 14e:	0000                	unimp
 150:	0b16                	slli	s6,s6,0x5
 152:	5501                	li	a0,-32
 154:	00130117          	auipc	sp,0x130
 158:	1700                	addi	s0,sp,928
 15a:	0034                	addi	a3,sp,8
 15c:	0b3a0e03          	lb	t3,179(s4)
 160:	0b390b3b          	0xb390b3b
 164:	1349                	addi	t1,t1,-14
 166:	0000                	unimp
 168:	0a18                	addi	a4,sp,272
 16a:	0300                	addi	s0,sp,384
 16c:	3a0e                	fld	fs4,224(sp)
 16e:	390b3b0b          	0x390b3b0b
 172:	0001110b          	0x1110b
 176:	1900                	addi	s0,sp,176
 178:	1755010b          	0x1755010b
 17c:	0000                	unimp
 17e:	0b1a                	slli	s6,s6,0x6
 180:	0001                	nop
 182:	0000                	unimp
 184:	1101                	addi	sp,sp,-32
 186:	2501                	jal	786 <_start-0x7ffff87a>
 188:	130e                	slli	t1,t1,0x23
 18a:	1b0e030b          	0x1b0e030b
 18e:	110e                	slli	sp,sp,0x23
 190:	1201                	addi	tp,tp,-32
 192:	1006                	c.slli	zero,0x21
 194:	02000017          	auipc	zero,0x2000
 198:	0024                	addi	s1,sp,8
 19a:	0b3e0b0b          	0xb3e0b0b
 19e:	00000e03          	lb	t3,0(zero) # 0 <_start-0x80000000>
 1a2:	0b002403          	lw	s0,176(zero) # b0 <_start-0x7fffff50>
 1a6:	030b3e0b          	0x30b3e0b
 1aa:	0008                	0x8
 1ac:	0400                	addi	s0,sp,512
 1ae:	0016                	c.slli	zero,0x5
 1b0:	0b3a0e03          	lb	t3,179(s4)
 1b4:	0b39053b          	0xb39053b
 1b8:	1349                	addi	t1,t1,-14
 1ba:	0000                	unimp
 1bc:	2605                	jal	4dc <_start-0x7ffffb24>
 1be:	4900                	lw	s0,16(a0)
 1c0:	06000013          	li	zero,96
 1c4:	0101                	addi	sp,sp,0
 1c6:	1349                	addi	t1,t1,-14
 1c8:	1301                	addi	t1,t1,-32
 1ca:	0000                	unimp
 1cc:	49002107          	flw	ft2,1168(zero) # 490 <_start-0x7ffffb70>
 1d0:	000b2f13          	slti	t5,s6,0
 1d4:	0800                	addi	s0,sp,16
 1d6:	0034                	addi	a3,sp,8
 1d8:	0b3a0e03          	lb	t3,179(s4)
 1dc:	0b390b3b          	0xb390b3b
 1e0:	1349                	addi	t1,t1,-14
 1e2:	193c193f 16090000 	0x16090000193c193f
 1ea:	0300                	addi	s0,sp,384
 1ec:	3a0e                	fld	fs4,224(sp)
 1ee:	390b3b0b          	0x390b3b0b
 1f2:	0013490b          	0x13490b
 1f6:	0a00                	addi	s0,sp,272
 1f8:	0b0b0113          	addi	sp,s6,176
 1fc:	0b3a                	slli	s6,s6,0xe
 1fe:	0b390b3b          	0xb390b3b
 202:	1301                	addi	t1,t1,-32
 204:	0000                	unimp
 206:	03000d0b          	0x3000d0b
 20a:	3a0e                	fld	fs4,224(sp)
 20c:	390b3b0b          	0x390b3b0b
 210:	0b13490b          	0xb13490b
 214:	0c0b0d0b          	0xc0b0d0b
 218:	000b380b          	0xb380b
 21c:	0c00                	addi	s0,sp,528
 21e:	000d                	c.nop	3
 220:	0b3a0803          	lb	a6,179(s4)
 224:	0b390b3b          	0xb390b3b
 228:	1349                	addi	t1,t1,-14
 22a:	0b0d0b0b          	0xb0d0b0b
 22e:	0b0c                	addi	a1,sp,400
 230:	0b38                	addi	a4,sp,408
 232:	0000                	unimp
 234:	170d                	addi	a4,a4,-29
 236:	0301                	addi	t1,t1,0
 238:	0b0e                	slli	s6,s6,0x3
 23a:	3b0b3a0b          	0x3b0b3a0b
 23e:	010b390b          	0x10b390b
 242:	0e000013          	li	zero,224
 246:	000d                	c.nop	3
 248:	0b3a0803          	lb	a6,179(s4)
 24c:	0b390b3b          	0xb390b3b
 250:	1349                	addi	t1,t1,-14
 252:	0000                	unimp
 254:	03000d0f          	0x3000d0f
 258:	3a0e                	fld	fs4,224(sp)
 25a:	390b3b0b          	0x390b3b0b
 25e:	0013490b          	0x13490b
 262:	1000                	addi	s0,sp,32
 264:	012e                	slli	sp,sp,0xb
 266:	0e03193f 0b3b0b3a 	0xb3b0b3a0e03193f
 26e:	0b39                	addi	s6,s6,14
 270:	13491927          	0x13491927
 274:	0111                	addi	sp,sp,4
 276:	0612                	slli	a2,a2,0x4
 278:	1840                	addi	s0,sp,52
 27a:	4296                	lw	t0,68(sp)
 27c:	0119                	addi	sp,sp,6
 27e:	11000013          	li	zero,272
 282:	0005                	c.nop	1
 284:	0b3a0803          	lb	a6,179(s4)
 288:	0b390b3b          	0xb390b3b
 28c:	1349                	addi	t1,t1,-14
 28e:	1702                	slli	a4,a4,0x20
 290:	0000                	unimp
 292:	3412                	fld	fs0,288(sp)
 294:	0300                	addi	s0,sp,384
 296:	3a0e                	fld	fs4,224(sp)
 298:	390b3b0b          	0x390b3b0b
 29c:	0213490b          	0x213490b
 2a0:	13000017          	auipc	zero,0x13000
 2a4:	0034                	addi	a3,sp,8
 2a6:	0b3a0e03          	lb	t3,179(s4)
 2aa:	0b390b3b          	0xb390b3b
 2ae:	1349                	addi	t1,t1,-14
 2b0:	0b1c                	addi	a5,sp,400
 2b2:	0000                	unimp
 2b4:	3414                	fld	fa3,40(s0)
 2b6:	0300                	addi	s0,sp,384
 2b8:	3a08                	fld	fa0,48(a2)
 2ba:	390b3b0b          	0x390b3b0b
 2be:	0213490b          	0x213490b
 2c2:	15000017          	auipc	zero,0x15000
 2c6:	1755010b          	0x1755010b
 2ca:	1301                	addi	t1,t1,-32
 2cc:	0000                	unimp
 2ce:	3416                	fld	fs0,352(sp)
 2d0:	0300                	addi	s0,sp,384
 2d2:	3a0e                	fld	fs4,224(sp)
 2d4:	390b3b0b          	0x390b3b0b
 2d8:	0013490b          	0x13490b
 2dc:	1700                	addi	s0,sp,928
 2de:	1755010b          	0x1755010b
 2e2:	0000                	unimp
 2e4:	0b18                	addi	a4,sp,400
 2e6:	0001                	nop
 2e8:	1900                	addi	s0,sp,176
 2ea:	0111010b          	0x111010b
 2ee:	0612                	slli	a2,a2,0x4
 2f0:	0000                	unimp
 2f2:	0100                	addi	s0,sp,128
 2f4:	0111                	addi	sp,sp,4
 2f6:	0e25                	addi	t3,t3,9
 2f8:	0e030b13          	addi	s6,t1,224
 2fc:	01110e1b          	0x1110e1b
 300:	0612                	slli	a2,a2,0x4
 302:	1710                	addi	a2,sp,928
 304:	0000                	unimp
 306:	2402                	fld	fs0,0(sp)
 308:	0b00                	addi	s0,sp,400
 30a:	030b3e0b          	0x30b3e0b
 30e:	000e                	c.slli	zero,0x3
 310:	0300                	addi	s0,sp,384
 312:	0016                	c.slli	zero,0x5
 314:	0b3a0e03          	lb	t3,179(s4)
 318:	0b390b3b          	0xb390b3b
 31c:	1349                	addi	t1,t1,-14
 31e:	0000                	unimp
 320:	2404                	fld	fs1,8(s0)
 322:	0b00                	addi	s0,sp,400
 324:	030b3e0b          	0x30b3e0b
 328:	0008                	0x8
 32a:	0500                	addi	s0,sp,640
 32c:	0016                	c.slli	zero,0x5
 32e:	0b3a0e03          	lb	t3,179(s4)
 332:	0b39053b          	0xb39053b
 336:	1349                	addi	t1,t1,-14
 338:	0000                	unimp
 33a:	2606                	fld	fa2,64(sp)
 33c:	4900                	lw	s0,16(a0)
 33e:	07000013          	li	zero,112
 342:	0101                	addi	sp,sp,0
 344:	1349                	addi	t1,t1,-14
 346:	1301                	addi	t1,t1,-32
 348:	0000                	unimp
 34a:	2108                	fld	fa0,0(a0)
 34c:	4900                	lw	s0,16(a0)
 34e:	000b2f13          	slti	t5,s6,0
 352:	0900                	addi	s0,sp,144
 354:	0034                	addi	a3,sp,8
 356:	0b3a0e03          	lb	t3,179(s4)
 35a:	0b390b3b          	0xb390b3b
 35e:	1349                	addi	t1,t1,-14
 360:	193c193f 130a0000 	0x130a0000193c193f
 368:	0b01                	addi	s6,s6,0
 36a:	3b0b3a0b          	0x3b0b3a0b
 36e:	010b390b          	0x10b390b
 372:	0b000013          	li	zero,176
 376:	000d                	c.nop	3
 378:	0b3a0e03          	lb	t3,179(s4)
 37c:	0b390b3b          	0xb390b3b
 380:	1349                	addi	t1,t1,-14
 382:	0b0d0b0b          	0xb0d0b0b
 386:	0b0c                	addi	a1,sp,400
 388:	0b38                	addi	a4,sp,408
 38a:	0000                	unimp
 38c:	0d0c                	addi	a1,sp,656
 38e:	0300                	addi	s0,sp,384
 390:	3a08                	fld	fa0,48(a2)
 392:	390b3b0b          	0x390b3b0b
 396:	0b13490b          	0xb13490b
 39a:	0c0b0d0b          	0xc0b0d0b
 39e:	000b380b          	0xb380b
 3a2:	0d00                	addi	s0,sp,656
 3a4:	0e030117          	auipc	sp,0xe030
 3a8:	0b3a0b0b          	0xb3a0b0b
 3ac:	0b390b3b          	0xb390b3b
 3b0:	1301                	addi	t1,t1,-32
 3b2:	0000                	unimp
 3b4:	0d0e                	slli	s10,s10,0x3
 3b6:	0300                	addi	s0,sp,384
 3b8:	3a08                	fld	fa0,48(a2)
 3ba:	390b3b0b          	0x390b3b0b
 3be:	0013490b          	0x13490b
 3c2:	0f00                	addi	s0,sp,912
 3c4:	000d                	c.nop	3
 3c6:	0b3a0e03          	lb	t3,179(s4)
 3ca:	0b390b3b          	0xb390b3b
 3ce:	1349                	addi	t1,t1,-14
 3d0:	0000                	unimp
 3d2:	2e10                	fld	fa2,24(a2)
 3d4:	3f01                	jal	2e4 <_start-0x7ffffd1c>
 3d6:	0319                	addi	t1,t1,6
 3d8:	3a0e                	fld	fs4,224(sp)
 3da:	390b3b0b          	0x390b3b0b
 3de:	4919270b          	0x4919270b
 3e2:	12011113          	0x12011113
 3e6:	4006                	0x4006
 3e8:	9718                	0x9718
 3ea:	1942                	slli	s2,s2,0x30
 3ec:	1301                	addi	t1,t1,-32
 3ee:	0000                	unimp
 3f0:	0511                	addi	a0,a0,4
 3f2:	0300                	addi	s0,sp,384
 3f4:	3a08                	fld	fa0,48(a2)
 3f6:	390b3b0b          	0x390b3b0b
 3fa:	0213490b          	0x213490b
 3fe:	12000017          	auipc	zero,0x12000
 402:	0034                	addi	a3,sp,8
 404:	0b3a0e03          	lb	t3,179(s4)
 408:	0b390b3b          	0xb390b3b
 40c:	1349                	addi	t1,t1,-14
 40e:	1702                	slli	a4,a4,0x20
 410:	0000                	unimp
 412:	03003413          	sltiu	s0,zero,48
 416:	3a0e                	fld	fs4,224(sp)
 418:	390b3b0b          	0x390b3b0b
 41c:	1c13490b          	0x1c13490b
 420:	1400000b          	0x1400000b
 424:	0034                	addi	a3,sp,8
 426:	0b3a0803          	lb	a6,179(s4)
 42a:	0b390b3b          	0xb390b3b
 42e:	1349                	addi	t1,t1,-14
 430:	0000                	unimp
 432:	3415                	jal	fffffe56 <__global_pointer$+0x7fffc1ee>
 434:	0300                	addi	s0,sp,384
 436:	3a08                	fld	fa0,48(a2)
 438:	390b3b0b          	0x390b3b0b
 43c:	0213490b          	0x213490b
 440:	16000017          	auipc	zero,0x16000
 444:	0034                	addi	a3,sp,8
 446:	0b3a0803          	lb	a6,179(s4)
 44a:	0b390b3b          	0xb390b3b
 44e:	1349                	addi	t1,t1,-14
 450:	1802                	slli	a6,a6,0x20
 452:	0000                	unimp
 454:	55010b17          	auipc	s6,0x55010
 458:	00130117          	auipc	sp,0x130
 45c:	1800                	addi	s0,sp,48
 45e:	0034                	addi	a3,sp,8
 460:	0b3a0e03          	lb	t3,179(s4)
 464:	0b390b3b          	0xb390b3b
 468:	1349                	addi	t1,t1,-14
 46a:	0000                	unimp
 46c:	0b19                	addi	s6,s6,6
 46e:	0101                	addi	sp,sp,0
 470:	1a000013          	li	zero,416
 474:	1755010b          	0x1755010b
 478:	0000                	unimp
 47a:	0100                	addi	s0,sp,128
 47c:	0111                	addi	sp,sp,4
 47e:	0e25                	addi	t3,t3,9
 480:	0e030b13          	addi	s6,t1,224
 484:	01110e1b          	0x1110e1b
 488:	0612                	slli	a2,a2,0x4
 48a:	1710                	addi	a2,sp,928
 48c:	0000                	unimp
 48e:	2402                	fld	fs0,0(sp)
 490:	0b00                	addi	s0,sp,400
 492:	030b3e0b          	0x30b3e0b
 496:	000e                	c.slli	zero,0x3
 498:	0300                	addi	s0,sp,384
 49a:	0024                	addi	s1,sp,8
 49c:	0b3e0b0b          	0xb3e0b0b
 4a0:	00000803          	lb	a6,0(zero) # 0 <_start-0x80000000>
 4a4:	1604                	addi	s1,sp,800
 4a6:	0300                	addi	s0,sp,384
 4a8:	3a0e                	fld	fs4,224(sp)
 4aa:	39053b0b          	0x39053b0b
 4ae:	0013490b          	0x13490b
 4b2:	0500                	addi	s0,sp,640
 4b4:	0026                	c.slli	zero,0x9
 4b6:	1349                	addi	t1,t1,-14
 4b8:	0000                	unimp
 4ba:	0106                	slli	sp,sp,0x1
 4bc:	4901                	li	s2,0
 4be:	00130113          	addi	sp,t1,1
 4c2:	0700                	addi	s0,sp,896
 4c4:	0021                	c.nop	8
 4c6:	1349                	addi	t1,t1,-14
 4c8:	00000b2f          	0xb2f
 4cc:	3408                	fld	fa0,40(s0)
 4ce:	0300                	addi	s0,sp,384
 4d0:	3a0e                	fld	fs4,224(sp)
 4d2:	390b3b0b          	0x390b3b0b
 4d6:	3f13490b          	0x3f13490b
 4da:	3c19                	jal	fffffef0 <__global_pointer$+0x7fffc288>
 4dc:	0019                	c.nop	6
 4de:	0900                	addi	s0,sp,144
 4e0:	0016                	c.slli	zero,0x5
 4e2:	0b3a0e03          	lb	t3,179(s4)
 4e6:	0b390b3b          	0xb390b3b
 4ea:	1349                	addi	t1,t1,-14
 4ec:	0000                	unimp
 4ee:	130a                	slli	t1,t1,0x22
 4f0:	0b01                	addi	s6,s6,0
 4f2:	3b0b3a0b          	0x3b0b3a0b
 4f6:	010b390b          	0x10b390b
 4fa:	0b000013          	li	zero,176
 4fe:	000d                	c.nop	3
 500:	0b3a0e03          	lb	t3,179(s4)
 504:	0b390b3b          	0xb390b3b
 508:	1349                	addi	t1,t1,-14
 50a:	0b0d0b0b          	0xb0d0b0b
 50e:	0b0c                	addi	a1,sp,400
 510:	0b38                	addi	a4,sp,408
 512:	0000                	unimp
 514:	0d0c                	addi	a1,sp,656
 516:	0300                	addi	s0,sp,384
 518:	3a08                	fld	fa0,48(a2)
 51a:	390b3b0b          	0x390b3b0b
 51e:	0b13490b          	0xb13490b
 522:	0c0b0d0b          	0xc0b0d0b
 526:	000b380b          	0xb380b
 52a:	0d00                	addi	s0,sp,656
 52c:	0e030117          	auipc	sp,0xe030
 530:	0b3a0b0b          	0xb3a0b0b
 534:	0b390b3b          	0xb390b3b
 538:	1301                	addi	t1,t1,-32
 53a:	0000                	unimp
 53c:	0d0e                	slli	s10,s10,0x3
 53e:	0300                	addi	s0,sp,384
 540:	3a08                	fld	fa0,48(a2)
 542:	390b3b0b          	0x390b3b0b
 546:	0013490b          	0x13490b
 54a:	0f00                	addi	s0,sp,912
 54c:	000d                	c.nop	3
 54e:	0b3a0e03          	lb	t3,179(s4)
 552:	0b390b3b          	0xb390b3b
 556:	1349                	addi	t1,t1,-14
 558:	0000                	unimp
 55a:	2e10                	fld	fa2,24(a2)
 55c:	3f01                	jal	46c <_start-0x7ffffb94>
 55e:	0319                	addi	t1,t1,6
 560:	3a0e                	fld	fs4,224(sp)
 562:	390b3b0b          	0x390b3b0b
 566:	4919270b          	0x4919270b
 56a:	12011113          	0x12011113
 56e:	4006                	0x4006
 570:	9618                	0x9618
 572:	1942                	slli	s2,s2,0x30
 574:	1301                	addi	t1,t1,-32
 576:	0000                	unimp
 578:	0511                	addi	a0,a0,4
 57a:	0300                	addi	s0,sp,384
 57c:	3a08                	fld	fa0,48(a2)
 57e:	390b3b0b          	0x390b3b0b
 582:	0213490b          	0x213490b
 586:	12000017          	auipc	zero,0x12000
 58a:	0034                	addi	a3,sp,8
 58c:	0b3a0e03          	lb	t3,179(s4)
 590:	0b390b3b          	0xb390b3b
 594:	1349                	addi	t1,t1,-14
 596:	1702                	slli	a4,a4,0x20
 598:	0000                	unimp
 59a:	03003413          	sltiu	s0,zero,48
 59e:	3a0e                	fld	fs4,224(sp)
 5a0:	390b3b0b          	0x390b3b0b
 5a4:	1c13490b          	0x1c13490b
 5a8:	1400000b          	0x1400000b
 5ac:	0034                	addi	a3,sp,8
 5ae:	0b3a0803          	lb	a6,179(s4)
 5b2:	0b390b3b          	0xb390b3b
 5b6:	1349                	addi	t1,t1,-14
 5b8:	1702                	slli	a4,a4,0x20
 5ba:	0000                	unimp
 5bc:	0b15                	addi	s6,s6,5
 5be:	5501                	li	a0,-32
 5c0:	00130117          	auipc	sp,0x130
 5c4:	1600                	addi	s0,sp,800
 5c6:	0034                	addi	a3,sp,8
 5c8:	0b3a0e03          	lb	t3,179(s4)
 5cc:	0b390b3b          	0xb390b3b
 5d0:	1349                	addi	t1,t1,-14
 5d2:	0000                	unimp
 5d4:	11010b17          	auipc	s6,0x11010
 5d8:	1201                	addi	tp,tp,-32
 5da:	0106                	slli	sp,sp,0x1
 5dc:	18000013          	li	zero,384
 5e0:	1755010b          	0x1755010b
 5e4:	0000                	unimp
 5e6:	0b19                	addi	s6,s6,6
 5e8:	0001                	nop
 5ea:	1a00                	addi	s0,sp,304
 5ec:	0111010b          	0x111010b
 5f0:	0612                	slli	a2,a2,0x4
 5f2:	0000                	unimp
 5f4:	0100                	addi	s0,sp,128
 5f6:	0111                	addi	sp,sp,4
 5f8:	0e25                	addi	t3,t3,9
 5fa:	0e030b13          	addi	s6,t1,224
 5fe:	01110e1b          	0x1110e1b
 602:	0612                	slli	a2,a2,0x4
 604:	1710                	addi	a2,sp,928
 606:	0000                	unimp
 608:	2402                	fld	fs0,0(sp)
 60a:	0b00                	addi	s0,sp,400
 60c:	030b3e0b          	0x30b3e0b
 610:	000e                	c.slli	zero,0x3
 612:	0300                	addi	s0,sp,384
 614:	0024                	addi	s1,sp,8
 616:	0b3e0b0b          	0xb3e0b0b
 61a:	00000803          	lb	a6,0(zero) # 0 <_start-0x80000000>
 61e:	1604                	addi	s1,sp,800
 620:	0300                	addi	s0,sp,384
 622:	3a0e                	fld	fs4,224(sp)
 624:	39053b0b          	0x39053b0b
 628:	0013490b          	0x13490b
 62c:	0500                	addi	s0,sp,640
 62e:	0026                	c.slli	zero,0x9
 630:	1349                	addi	t1,t1,-14
 632:	0000                	unimp
 634:	0106                	slli	sp,sp,0x1
 636:	4901                	li	s2,0
 638:	00130113          	addi	sp,t1,1
 63c:	0700                	addi	s0,sp,896
 63e:	0021                	c.nop	8
 640:	1349                	addi	t1,t1,-14
 642:	00000b2f          	0xb2f
 646:	3408                	fld	fa0,40(s0)
 648:	0300                	addi	s0,sp,384
 64a:	3a0e                	fld	fs4,224(sp)
 64c:	390b3b0b          	0x390b3b0b
 650:	3f13490b          	0x3f13490b
 654:	3c19                	jal	6a <_start-0x7fffff96>
 656:	0019                	c.nop	6
 658:	0900                	addi	s0,sp,144
 65a:	0016                	c.slli	zero,0x5
 65c:	0b3a0e03          	lb	t3,179(s4)
 660:	0b390b3b          	0xb390b3b
 664:	1349                	addi	t1,t1,-14
 666:	0000                	unimp
 668:	130a                	slli	t1,t1,0x22
 66a:	0b01                	addi	s6,s6,0
 66c:	3b0b3a0b          	0x3b0b3a0b
 670:	010b390b          	0x10b390b
 674:	0b000013          	li	zero,176
 678:	000d                	c.nop	3
 67a:	0b3a0e03          	lb	t3,179(s4)
 67e:	0b390b3b          	0xb390b3b
 682:	1349                	addi	t1,t1,-14
 684:	0b0d0b0b          	0xb0d0b0b
 688:	0b0c                	addi	a1,sp,400
 68a:	0b38                	addi	a4,sp,408
 68c:	0000                	unimp
 68e:	0d0c                	addi	a1,sp,656
 690:	0300                	addi	s0,sp,384
 692:	3a08                	fld	fa0,48(a2)
 694:	390b3b0b          	0x390b3b0b
 698:	0b13490b          	0xb13490b
 69c:	0c0b0d0b          	0xc0b0d0b
 6a0:	000b380b          	0xb380b
 6a4:	0d00                	addi	s0,sp,656
 6a6:	0e030117          	auipc	sp,0xe030
 6aa:	0b3a0b0b          	0xb3a0b0b
 6ae:	0b390b3b          	0xb390b3b
 6b2:	1301                	addi	t1,t1,-32
 6b4:	0000                	unimp
 6b6:	0d0e                	slli	s10,s10,0x3
 6b8:	0300                	addi	s0,sp,384
 6ba:	3a08                	fld	fa0,48(a2)
 6bc:	390b3b0b          	0x390b3b0b
 6c0:	0013490b          	0x13490b
 6c4:	0f00                	addi	s0,sp,912
 6c6:	000d                	c.nop	3
 6c8:	0b3a0e03          	lb	t3,179(s4)
 6cc:	0b390b3b          	0xb390b3b
 6d0:	1349                	addi	t1,t1,-14
 6d2:	0000                	unimp
 6d4:	2e10                	fld	fa2,24(a2)
 6d6:	3f01                	jal	5e6 <_start-0x7ffffa1a>
 6d8:	0319                	addi	t1,t1,6
 6da:	3a0e                	fld	fs4,224(sp)
 6dc:	390b3b0b          	0x390b3b0b
 6e0:	4919270b          	0x4919270b
 6e4:	12011113          	0x12011113
 6e8:	4006                	0x4006
 6ea:	9618                	0x9618
 6ec:	1942                	slli	s2,s2,0x30
 6ee:	1301                	addi	t1,t1,-32
 6f0:	0000                	unimp
 6f2:	0511                	addi	a0,a0,4
 6f4:	0300                	addi	s0,sp,384
 6f6:	3a08                	fld	fa0,48(a2)
 6f8:	390b3b0b          	0x390b3b0b
 6fc:	0213490b          	0x213490b
 700:	12000017          	auipc	zero,0x12000
 704:	0034                	addi	a3,sp,8
 706:	0b3a0e03          	lb	t3,179(s4)
 70a:	0b390b3b          	0xb390b3b
 70e:	1349                	addi	t1,t1,-14
 710:	1702                	slli	a4,a4,0x20
 712:	0000                	unimp
 714:	03003413          	sltiu	s0,zero,48
 718:	3a0e                	fld	fs4,224(sp)
 71a:	390b3b0b          	0x390b3b0b
 71e:	1c13490b          	0x1c13490b
 722:	1400000b          	0x1400000b
 726:	0034                	addi	a3,sp,8
 728:	0b3a0803          	lb	a6,179(s4)
 72c:	0b390b3b          	0xb390b3b
 730:	1349                	addi	t1,t1,-14
 732:	0000                	unimp
 734:	3415                	jal	158 <_start-0x7ffffea8>
 736:	0300                	addi	s0,sp,384
 738:	3a08                	fld	fa0,48(a2)
 73a:	390b3b0b          	0x390b3b0b
 73e:	0213490b          	0x213490b
 742:	16000017          	auipc	zero,0x16000
 746:	1755010b          	0x1755010b
 74a:	1301                	addi	t1,t1,-32
 74c:	0000                	unimp
 74e:	03003417          	auipc	s0,0x3003
 752:	3a0e                	fld	fs4,224(sp)
 754:	390b3b0b          	0x390b3b0b
 758:	0013490b          	0x13490b
 75c:	1800                	addi	s0,sp,48
 75e:	000a                	c.slli	zero,0x2
 760:	0b3a0e03          	lb	t3,179(s4)
 764:	0b390b3b          	0xb390b3b
 768:	0111                	addi	sp,sp,4
 76a:	0000                	unimp
 76c:	0b19                	addi	s6,s6,6
 76e:	5501                	li	a0,-32
 770:	1a000017          	auipc	zero,0x1a000
 774:	0000010b          	0x10b
 778:	0100                	addi	s0,sp,128
 77a:	0111                	addi	sp,sp,4
 77c:	0e25                	addi	t3,t3,9
 77e:	0e030b13          	addi	s6,t1,224
 782:	01110e1b          	0x1110e1b
 786:	0612                	slli	a2,a2,0x4
 788:	1710                	addi	a2,sp,928
 78a:	0000                	unimp
 78c:	2402                	fld	fs0,0(sp)
 78e:	0b00                	addi	s0,sp,400
 790:	030b3e0b          	0x30b3e0b
 794:	000e                	c.slli	zero,0x3
 796:	0300                	addi	s0,sp,384
 798:	0016                	c.slli	zero,0x5
 79a:	0b3a0e03          	lb	t3,179(s4)
 79e:	0b390b3b          	0xb390b3b
 7a2:	1349                	addi	t1,t1,-14
 7a4:	0000                	unimp
 7a6:	2404                	fld	fs1,8(s0)
 7a8:	0b00                	addi	s0,sp,400
 7aa:	030b3e0b          	0x30b3e0b
 7ae:	0008                	0x8
 7b0:	0500                	addi	s0,sp,640
 7b2:	0016                	c.slli	zero,0x5
 7b4:	0b3a0e03          	lb	t3,179(s4)
 7b8:	0b39053b          	0xb39053b
 7bc:	1349                	addi	t1,t1,-14
 7be:	0000                	unimp
 7c0:	2606                	fld	fa2,64(sp)
 7c2:	4900                	lw	s0,16(a0)
 7c4:	07000013          	li	zero,112
 7c8:	0101                	addi	sp,sp,0
 7ca:	1349                	addi	t1,t1,-14
 7cc:	1301                	addi	t1,t1,-32
 7ce:	0000                	unimp
 7d0:	2108                	fld	fa0,0(a0)
 7d2:	4900                	lw	s0,16(a0)
 7d4:	000b2f13          	slti	t5,s6,0
 7d8:	0900                	addi	s0,sp,144
 7da:	0034                	addi	a3,sp,8
 7dc:	0b3a0e03          	lb	t3,179(s4)
 7e0:	0b390b3b          	0xb390b3b
 7e4:	1349                	addi	t1,t1,-14
 7e6:	193c193f 130a0000 	0x130a0000193c193f
 7ee:	0b01                	addi	s6,s6,0
 7f0:	3b0b3a0b          	0x3b0b3a0b
 7f4:	010b390b          	0x10b390b
 7f8:	0b000013          	li	zero,176
 7fc:	000d                	c.nop	3
 7fe:	0b3a0e03          	lb	t3,179(s4)
 802:	0b390b3b          	0xb390b3b
 806:	1349                	addi	t1,t1,-14
 808:	0b0d0b0b          	0xb0d0b0b
 80c:	0b0c                	addi	a1,sp,400
 80e:	0b38                	addi	a4,sp,408
 810:	0000                	unimp
 812:	0d0c                	addi	a1,sp,656
 814:	0300                	addi	s0,sp,384
 816:	3a08                	fld	fa0,48(a2)
 818:	390b3b0b          	0x390b3b0b
 81c:	0b13490b          	0xb13490b
 820:	0c0b0d0b          	0xc0b0d0b
 824:	000b380b          	0xb380b
 828:	0d00                	addi	s0,sp,656
 82a:	0e030117          	auipc	sp,0xe030
 82e:	0b3a0b0b          	0xb3a0b0b
 832:	0b390b3b          	0xb390b3b
 836:	1301                	addi	t1,t1,-32
 838:	0000                	unimp
 83a:	0d0e                	slli	s10,s10,0x3
 83c:	0300                	addi	s0,sp,384
 83e:	3a08                	fld	fa0,48(a2)
 840:	390b3b0b          	0x390b3b0b
 844:	0013490b          	0x13490b
 848:	0f00                	addi	s0,sp,912
 84a:	000d                	c.nop	3
 84c:	0b3a0e03          	lb	t3,179(s4)
 850:	0b390b3b          	0xb390b3b
 854:	1349                	addi	t1,t1,-14
 856:	0000                	unimp
 858:	2e10                	fld	fa2,24(a2)
 85a:	3f01                	jal	76a <_start-0x7ffff896>
 85c:	0319                	addi	t1,t1,6
 85e:	3a0e                	fld	fs4,224(sp)
 860:	390b3b0b          	0x390b3b0b
 864:	4919270b          	0x4919270b
 868:	12011113          	0x12011113
 86c:	4006                	0x4006
 86e:	9718                	0x9718
 870:	1942                	slli	s2,s2,0x30
 872:	1301                	addi	t1,t1,-32
 874:	0000                	unimp
 876:	0511                	addi	a0,a0,4
 878:	0300                	addi	s0,sp,384
 87a:	3a08                	fld	fa0,48(a2)
 87c:	390b3b0b          	0x390b3b0b
 880:	0213490b          	0x213490b
 884:	12000017          	auipc	zero,0x12000
 888:	0034                	addi	a3,sp,8
 88a:	0b3a0e03          	lb	t3,179(s4)
 88e:	0b390b3b          	0xb390b3b
 892:	1349                	addi	t1,t1,-14
 894:	0b1c                	addi	a5,sp,400
 896:	0000                	unimp
 898:	03003413          	sltiu	s0,zero,48
 89c:	3a08                	fld	fa0,48(a2)
 89e:	390b3b0b          	0x390b3b0b
 8a2:	0013490b          	0x13490b
 8a6:	1400                	addi	s0,sp,544
 8a8:	0034                	addi	a3,sp,8
 8aa:	0b3a0803          	lb	a6,179(s4)
 8ae:	0b390b3b          	0xb390b3b
 8b2:	1349                	addi	t1,t1,-14
 8b4:	1702                	slli	a4,a4,0x20
 8b6:	0000                	unimp
 8b8:	3415                	jal	2dc <_start-0x7ffffd24>
 8ba:	0300                	addi	s0,sp,384
 8bc:	3a08                	fld	fa0,48(a2)
 8be:	390b3b0b          	0x390b3b0b
 8c2:	0213490b          	0x213490b
 8c6:	0018                	0x18
 8c8:	1600                	addi	s0,sp,800
 8ca:	0111010b          	0x111010b
 8ce:	0612                	slli	a2,a2,0x4
 8d0:	1301                	addi	t1,t1,-32
 8d2:	0000                	unimp
 8d4:	03003417          	auipc	s0,0x3003
 8d8:	3a0e                	fld	fs4,224(sp)
 8da:	390b3b0b          	0x390b3b0b
 8de:	0013490b          	0x13490b
 8e2:	1800                	addi	s0,sp,48
 8e4:	1755010b          	0x1755010b
 8e8:	1301                	addi	t1,t1,-32
 8ea:	0000                	unimp
 8ec:	0b19                	addi	s6,s6,6
 8ee:	0101                	addi	sp,sp,0
 8f0:	1a000013          	li	zero,416
 8f4:	0000010b          	0x10b
 8f8:	0100                	addi	s0,sp,128
 8fa:	0111                	addi	sp,sp,4
 8fc:	0e25                	addi	t3,t3,9
 8fe:	0e030b13          	addi	s6,t1,224
 902:	01110e1b          	0x1110e1b
 906:	0612                	slli	a2,a2,0x4
 908:	1710                	addi	a2,sp,928
 90a:	0000                	unimp
 90c:	2402                	fld	fs0,0(sp)
 90e:	0b00                	addi	s0,sp,400
 910:	030b3e0b          	0x30b3e0b
 914:	0008                	0x8
 916:	0300                	addi	s0,sp,384
 918:	0024                	addi	s1,sp,8
 91a:	0b3e0b0b          	0xb3e0b0b
 91e:	00000e03          	lb	t3,0(zero) # 0 <_start-0x80000000>
 922:	1604                	addi	s1,sp,800
 924:	0300                	addi	s0,sp,384
 926:	3a0e                	fld	fs4,224(sp)
 928:	39053b0b          	0x39053b0b
 92c:	0013490b          	0x13490b
 930:	0500                	addi	s0,sp,640
 932:	0016                	c.slli	zero,0x5
 934:	0b3a0e03          	lb	t3,179(s4)
 938:	0b390b3b          	0xb390b3b
 93c:	1349                	addi	t1,t1,-14
 93e:	0000                	unimp
 940:	1706                	slli	a4,a4,0x21
 942:	0b01                	addi	s6,s6,0
 944:	3b0b3a0b          	0x3b0b3a0b
 948:	010b390b          	0x10b390b
 94c:	07000013          	li	zero,112
 950:	000d                	c.nop	3
 952:	0b3a0e03          	lb	t3,179(s4)
 956:	0b390b3b          	0xb390b3b
 95a:	1349                	addi	t1,t1,-14
 95c:	0000                	unimp
 95e:	0108                	addi	a0,sp,128
 960:	4901                	li	s2,0
 962:	00130113          	addi	sp,t1,1
 966:	0900                	addi	s0,sp,144
 968:	0021                	c.nop	8
 96a:	1349                	addi	t1,t1,-14
 96c:	00000b2f          	0xb2f
 970:	130a                	slli	t1,t1,0x22
 972:	0b01                	addi	s6,s6,0
 974:	3b0b3a0b          	0x3b0b3a0b
 978:	010b390b          	0x10b390b
 97c:	0b000013          	li	zero,176
 980:	000d                	c.nop	3
 982:	0b3a0e03          	lb	t3,179(s4)
 986:	0b390b3b          	0xb390b3b
 98a:	1349                	addi	t1,t1,-14
 98c:	0b38                	addi	a4,sp,408
 98e:	0000                	unimp
 990:	0f0c                	addi	a1,sp,912
 992:	0b00                	addi	s0,sp,400
 994:	0d00000b          	0xd00000b
 998:	0e030113          	addi	sp,t1,224
 99c:	0b3a0b0b          	0xb3a0b0b
 9a0:	0b390b3b          	0xb390b3b
 9a4:	1301                	addi	t1,t1,-32
 9a6:	0000                	unimp
 9a8:	0d0e                	slli	s10,s10,0x3
 9aa:	0300                	addi	s0,sp,384
 9ac:	3a08                	fld	fa0,48(a2)
 9ae:	390b3b0b          	0x390b3b0b
 9b2:	3813490b          	0x3813490b
 9b6:	0f00000b          	0xf00000b
 9ba:	0b0b000f          	0xb0b000f
 9be:	1349                	addi	t1,t1,-14
 9c0:	0000                	unimp
 9c2:	1310                	addi	a2,sp,416
 9c4:	0301                	addi	t1,t1,0
 9c6:	0b0e                	slli	s6,s6,0x3
 9c8:	3a05                	jal	2f8 <_start-0x7ffffd08>
 9ca:	390b3b0b          	0x390b3b0b
 9ce:	0013010b          	0x13010b
 9d2:	1100                	addi	s0,sp,160
 9d4:	000d                	c.nop	3
 9d6:	0b3a0e03          	lb	t3,179(s4)
 9da:	0b390b3b          	0xb390b3b
 9de:	1349                	addi	t1,t1,-14
 9e0:	0538                	addi	a4,sp,648
 9e2:	0000                	unimp
 9e4:	1512                	slli	a0,a0,0x24
 9e6:	2700                	fld	fs0,8(a4)
 9e8:	0019                	c.nop	6
 9ea:	1300                	addi	s0,sp,416
 9ec:	0115                	addi	sp,sp,5
 9ee:	13491927          	0x13491927
 9f2:	1301                	addi	t1,t1,-32
 9f4:	0000                	unimp
 9f6:	0514                	addi	a3,sp,640
 9f8:	4900                	lw	s0,16(a0)
 9fa:	15000013          	li	zero,336
 9fe:	0026                	c.slli	zero,0x9
 a00:	1349                	addi	t1,t1,-14
 a02:	0000                	unimp
 a04:	1316                	slli	t1,t1,0x25
 a06:	0301                	addi	t1,t1,0
 a08:	0b0e                	slli	s6,s6,0x3
 a0a:	3a05                	jal	33a <_start-0x7ffffcc6>
 a0c:	39053b0b          	0x39053b0b
 a10:	0013010b          	0x13010b
 a14:	1700                	addi	s0,sp,928
 a16:	000d                	c.nop	3
 a18:	0b3a0e03          	lb	t3,179(s4)
 a1c:	0b39053b          	0xb39053b
 a20:	1349                	addi	t1,t1,-14
 a22:	0b38                	addi	a4,sp,408
 a24:	0000                	unimp
 a26:	0d18                	addi	a4,sp,656
 a28:	0300                	addi	s0,sp,384
 a2a:	3a0e                	fld	fs4,224(sp)
 a2c:	39053b0b          	0x39053b0b
 a30:	3813490b          	0x3813490b
 a34:	0005                	c.nop	1
 a36:	1900                	addi	s0,sp,176
 a38:	0e030113          	addi	sp,t1,224
 a3c:	0b3a0b0b          	0xb3a0b0b
 a40:	0b39053b          	0xb39053b
 a44:	1301                	addi	t1,t1,-32
 a46:	0000                	unimp
 a48:	131a                	slli	t1,t1,0x26
 a4a:	0b01                	addi	s6,s6,0
 a4c:	3b0b3a0b          	0x3b0b3a0b
 a50:	3905                	jal	680 <_start-0x7ffff980>
 a52:	0013010b          	0x13010b
 a56:	1b00                	addi	s0,sp,432
 a58:	0b0b0117          	auipc	sp,0xb0b0
 a5c:	0b3a                	slli	s6,s6,0xe
 a5e:	0b39053b          	0xb39053b
 a62:	1301                	addi	t1,t1,-32
 a64:	0000                	unimp
 a66:	0d1c                	addi	a5,sp,656
 a68:	0300                	addi	s0,sp,384
 a6a:	3a0e                	fld	fs4,224(sp)
 a6c:	39053b0b          	0x39053b0b
 a70:	0013490b          	0x13490b
 a74:	1d00                	addi	s0,sp,688
 a76:	0e030013          	addi	zero,t1,224
 a7a:	193c                	addi	a5,sp,184
 a7c:	0000                	unimp
 a7e:	151e                	slli	a0,a0,0x27
 a80:	2701                	jal	1180 <_start-0x7fffee80>
 a82:	0119                	addi	sp,sp,6
 a84:	1f000013          	li	zero,496
 a88:	0034                	addi	a3,sp,8
 a8a:	0b3a0e03          	lb	t3,179(s4)
 a8e:	0b39053b          	0xb39053b
 a92:	1349                	addi	t1,t1,-14
 a94:	193c193f 21200000 	0x21200000193c193f
 a9c:	0000                	unimp
 a9e:	2100                	fld	fs0,0(a0)
 aa0:	0034                	addi	a3,sp,8
 aa2:	0b3a0e03          	lb	t3,179(s4)
 aa6:	0b390b3b          	0xb390b3b
 aaa:	1349                	addi	t1,t1,-14
 aac:	193c193f 26220000 	0x26220000193c193f
 ab4:	0000                	unimp
 ab6:	2300                	fld	fs0,0(a4)
 ab8:	0104                	addi	s1,sp,128
 aba:	0b3e0e03          	lb	t3,179(t3) # 9148f <_start-0x7ff6eb71>
 abe:	13490b0b          	0x13490b0b
 ac2:	0b3a                	slli	s6,s6,0xe
 ac4:	0b390b3b          	0xb390b3b
 ac8:	1301                	addi	t1,t1,-32
 aca:	0000                	unimp
 acc:	2824                	fld	fs1,80(s0)
 ace:	0300                	addi	s0,sp,384
 ad0:	1c0e                	slli	s8,s8,0x23
 ad2:	2500000b          	0x2500000b
 ad6:	012e                	slli	sp,sp,0xb
 ad8:	0e03193f 053b0b3a 	0x53b0b3a0e03193f
 ae0:	0b39                	addi	s6,s6,14
 ae2:	13491927          	0x13491927
 ae6:	0111                	addi	sp,sp,4
 ae8:	0612                	slli	a2,a2,0x4
 aea:	1840                	addi	s0,sp,52
 aec:	00194297          	auipc	t0,0x194
 af0:	2600                	fld	fs0,8(a2)
 af2:	0005                	c.nop	1
 af4:	0b3a0803          	lb	a6,179(s4)
 af8:	0b39053b          	0xb39053b
 afc:	1349                	addi	t1,t1,-14
 afe:	1702                	slli	a4,a4,0x20
 b00:	0000                	unimp
 b02:	03003427          	fsd	fa6,40(zero) # 28 <_start-0x7fffffd8>
 b06:	3a08                	fld	fa0,48(a2)
 b08:	39053b0b          	0x39053b0b
 b0c:	0013490b          	0x13490b
 b10:	2800                	fld	fs0,16(s0)
 b12:	1755010b          	0x1755010b
 b16:	0000                	unimp
 b18:	3429                	jal	522 <_start-0x7ffffade>
 b1a:	0300                	addi	s0,sp,384
 b1c:	3a0e                	fld	fs4,224(sp)
 b1e:	39053b0b          	0x39053b0b
 b22:	0213490b          	0x213490b
 b26:	2a000017          	auipc	zero,0x2a000
 b2a:	0034                	addi	a3,sp,8
 b2c:	0b3a0803          	lb	a6,179(s4)
 b30:	0b39053b          	0xb39053b
 b34:	1349                	addi	t1,t1,-14
 b36:	1702                	slli	a4,a4,0x20
 b38:	0000                	unimp
 b3a:	0100                	addi	s0,sp,128
 b3c:	0111                	addi	sp,sp,4
 b3e:	0e25                	addi	t3,t3,9
 b40:	0e030b13          	addi	s6,t1,224
 b44:	17100e1b          	0x17100e1b
 b48:	0000                	unimp
 b4a:	2402                	fld	fs0,0(sp)
 b4c:	0b00                	addi	s0,sp,400
 b4e:	030b3e0b          	0x30b3e0b
 b52:	0008                	0x8
 b54:	0300                	addi	s0,sp,384
 b56:	0024                	addi	s1,sp,8
 b58:	0b3e0b0b          	0xb3e0b0b
 b5c:	00000e03          	lb	t3,0(zero) # 0 <_start-0x80000000>
 b60:	1604                	addi	s1,sp,800
 b62:	0300                	addi	s0,sp,384
 b64:	3a0e                	fld	fs4,224(sp)
 b66:	39053b0b          	0x39053b0b
 b6a:	0013490b          	0x13490b
 b6e:	0500                	addi	s0,sp,640
 b70:	0016                	c.slli	zero,0x5
 b72:	0b3a0e03          	lb	t3,179(s4)
 b76:	0b390b3b          	0xb390b3b
 b7a:	1349                	addi	t1,t1,-14
 b7c:	0000                	unimp
 b7e:	1706                	slli	a4,a4,0x21
 b80:	0b01                	addi	s6,s6,0
 b82:	3b0b3a0b          	0x3b0b3a0b
 b86:	010b390b          	0x10b390b
 b8a:	07000013          	li	zero,112
 b8e:	000d                	c.nop	3
 b90:	0b3a0e03          	lb	t3,179(s4)
 b94:	0b390b3b          	0xb390b3b
 b98:	1349                	addi	t1,t1,-14
 b9a:	0000                	unimp
 b9c:	0108                	addi	a0,sp,128
 b9e:	4901                	li	s2,0
 ba0:	00130113          	addi	sp,t1,1
 ba4:	0900                	addi	s0,sp,144
 ba6:	0021                	c.nop	8
 ba8:	1349                	addi	t1,t1,-14
 baa:	00000b2f          	0xb2f
 bae:	130a                	slli	t1,t1,0x22
 bb0:	0b01                	addi	s6,s6,0
 bb2:	3b0b3a0b          	0x3b0b3a0b
 bb6:	010b390b          	0x10b390b
 bba:	0b000013          	li	zero,176
 bbe:	000d                	c.nop	3
 bc0:	0b3a0e03          	lb	t3,179(s4)
 bc4:	0b390b3b          	0xb390b3b
 bc8:	1349                	addi	t1,t1,-14
 bca:	0b38                	addi	a4,sp,408
 bcc:	0000                	unimp
 bce:	0f0c                	addi	a1,sp,912
 bd0:	0b00                	addi	s0,sp,400
 bd2:	0d00000b          	0xd00000b
 bd6:	0e030113          	addi	sp,t1,224
 bda:	0b3a0b0b          	0xb3a0b0b
 bde:	0b390b3b          	0xb390b3b
 be2:	1301                	addi	t1,t1,-32
 be4:	0000                	unimp
 be6:	0d0e                	slli	s10,s10,0x3
 be8:	0300                	addi	s0,sp,384
 bea:	3a08                	fld	fa0,48(a2)
 bec:	390b3b0b          	0x390b3b0b
 bf0:	3813490b          	0x3813490b
 bf4:	0f00000b          	0xf00000b
 bf8:	0b0b000f          	0xb0b000f
 bfc:	1349                	addi	t1,t1,-14
 bfe:	0000                	unimp
 c00:	1310                	addi	a2,sp,416
 c02:	0301                	addi	t1,t1,0
 c04:	0b0e                	slli	s6,s6,0x3
 c06:	3a05                	jal	536 <_start-0x7ffffaca>
 c08:	390b3b0b          	0x390b3b0b
 c0c:	0013010b          	0x13010b
 c10:	1100                	addi	s0,sp,160
 c12:	000d                	c.nop	3
 c14:	0b3a0e03          	lb	t3,179(s4)
 c18:	0b390b3b          	0xb390b3b
 c1c:	1349                	addi	t1,t1,-14
 c1e:	0538                	addi	a4,sp,648
 c20:	0000                	unimp
 c22:	1512                	slli	a0,a0,0x24
 c24:	2700                	fld	fs0,8(a4)
 c26:	0019                	c.nop	6
 c28:	1300                	addi	s0,sp,416
 c2a:	0115                	addi	sp,sp,5
 c2c:	13491927          	0x13491927
 c30:	1301                	addi	t1,t1,-32
 c32:	0000                	unimp
 c34:	0514                	addi	a3,sp,640
 c36:	4900                	lw	s0,16(a0)
 c38:	15000013          	li	zero,336
 c3c:	0026                	c.slli	zero,0x9
 c3e:	1349                	addi	t1,t1,-14
 c40:	0000                	unimp
 c42:	1316                	slli	t1,t1,0x25
 c44:	0301                	addi	t1,t1,0
 c46:	0b0e                	slli	s6,s6,0x3
 c48:	3a05                	jal	578 <_start-0x7ffffa88>
 c4a:	39053b0b          	0x39053b0b
 c4e:	0013010b          	0x13010b
 c52:	1700                	addi	s0,sp,928
 c54:	000d                	c.nop	3
 c56:	0b3a0e03          	lb	t3,179(s4)
 c5a:	0b39053b          	0xb39053b
 c5e:	1349                	addi	t1,t1,-14
 c60:	0b38                	addi	a4,sp,408
 c62:	0000                	unimp
 c64:	0d18                	addi	a4,sp,656
 c66:	0300                	addi	s0,sp,384
 c68:	3a0e                	fld	fs4,224(sp)
 c6a:	39053b0b          	0x39053b0b
 c6e:	3813490b          	0x3813490b
 c72:	0005                	c.nop	1
 c74:	1900                	addi	s0,sp,176
 c76:	0e030113          	addi	sp,t1,224
 c7a:	0b3a0b0b          	0xb3a0b0b
 c7e:	0b39053b          	0xb39053b
 c82:	1301                	addi	t1,t1,-32
 c84:	0000                	unimp
 c86:	131a                	slli	t1,t1,0x26
 c88:	0b01                	addi	s6,s6,0
 c8a:	3b0b3a0b          	0x3b0b3a0b
 c8e:	3905                	jal	8be <_start-0x7ffff742>
 c90:	0013010b          	0x13010b
 c94:	1b00                	addi	s0,sp,432
 c96:	0b0b0117          	auipc	sp,0xb0b0
 c9a:	0b3a                	slli	s6,s6,0xe
 c9c:	0b39053b          	0xb39053b
 ca0:	1301                	addi	t1,t1,-32
 ca2:	0000                	unimp
 ca4:	0d1c                	addi	a5,sp,656
 ca6:	0300                	addi	s0,sp,384
 ca8:	3a0e                	fld	fs4,224(sp)
 caa:	39053b0b          	0x39053b0b
 cae:	0013490b          	0x13490b
 cb2:	1d00                	addi	s0,sp,688
 cb4:	0e030013          	addi	zero,t1,224
 cb8:	193c                	addi	a5,sp,184
 cba:	0000                	unimp
 cbc:	151e                	slli	a0,a0,0x27
 cbe:	2701                	jal	13be <_start-0x7fffec42>
 cc0:	0119                	addi	sp,sp,6
 cc2:	1f000013          	li	zero,496
 cc6:	0034                	addi	a3,sp,8
 cc8:	0b3a0e03          	lb	t3,179(s4)
 ccc:	0b39053b          	0xb39053b
 cd0:	1349                	addi	t1,t1,-14
 cd2:	193c193f 21200000 	0x21200000193c193f
 cda:	0000                	unimp
 cdc:	2100                	fld	fs0,0(a0)
 cde:	0034                	addi	a3,sp,8
 ce0:	0b3a0e03          	lb	t3,179(s4)
 ce4:	0b390b3b          	0xb390b3b
 ce8:	1349                	addi	t1,t1,-14
 cea:	193c193f 26220000 	0x26220000193c193f
 cf2:	0000                	unimp
 cf4:	2300                	fld	fs0,0(a4)
 cf6:	0104                	addi	s1,sp,128
 cf8:	0b3e0e03          	lb	t3,179(t3)
 cfc:	13490b0b          	0x13490b0b
 d00:	0b3a                	slli	s6,s6,0xe
 d02:	0b390b3b          	0xb390b3b
 d06:	1301                	addi	t1,t1,-32
 d08:	0000                	unimp
 d0a:	2824                	fld	fs1,80(s0)
 d0c:	0300                	addi	s0,sp,384
 d0e:	1c0e                	slli	s8,s8,0x23
 d10:	2500000b          	0x2500000b
 d14:	0034                	addi	a3,sp,8
 d16:	0b3a1347          	fmsub.d	ft6,fs4,fs3,ft1,rtz
 d1a:	0b39053b          	0xb39053b
 d1e:	1802                	slli	a6,a6,0x20
 d20:	0000                	unimp
	...

Disassembly of section .debug_line:

00000000 <.debug_line>:
       0:	0a4a                	slli	s4,s4,0x12
       2:	0000                	unimp
       4:	00930003          	lb	zero,9(t1)
       8:	0000                	unimp
       a:	0101                	addi	sp,sp,0
       c:	000d0efb          	0xd0efb
      10:	0101                	addi	sp,sp,0
      12:	0101                	addi	sp,sp,0
      14:	0000                	unimp
      16:	0100                	addi	s0,sp,128
      18:	0000                	unimp
      1a:	2e01                	jal	32a <_start-0x7ffffcd6>
      1c:	2f2e                	fld	ft10,200(sp)
      1e:	2e2e                	fld	ft8,200(sp)
      20:	2f2e2e2f          	0x2f2e2e2f
      24:	2e2e                	fld	ft8,200(sp)
      26:	7369722f          	0x7369722f
      2a:	672d7663          	bgeu	s10,s2,696 <_start-0x7ffff96a>
      2e:	6c2f6363          	bltu	t5,sp,6f4 <_start-0x7ffff90c>
      32:	6269                	lui	tp,0x1a
      34:	2f636367          	0x2f636367
      38:	74666f73          	csrrsi	t5,0x746,12
      3c:	662d                	lui	a2,0xb
      3e:	0070                	addi	a2,sp,12
      40:	2e2e                	fld	ft8,200(sp)
      42:	2f2e2e2f          	0x2f2e2e2f
      46:	2e2e                	fld	ft8,200(sp)
      48:	2f2e2e2f          	0x2f2e2e2f
      4c:	6972                	flw	fs2,28(sp)
      4e:	2d766373          	csrrsi	t1,0x2d7,12
      52:	2f636367          	0x2f636367
      56:	696c                	flw	fa1,84(a0)
      58:	6762                	flw	fa4,24(sp)
      5a:	2e2f6363          	bltu	t5,sp,340 <_start-0x7ffffcc0>
      5e:	2f2e                	fld	ft10,200(sp)
      60:	6e69                	lui	t3,0x1a
      62:	64756c63          	bltu	a0,t2,6ba <_start-0x7ffff946>
      66:	0065                	c.nop	25
      68:	6100                	flw	fs0,0(a0)
      6a:	6464                	flw	fs1,76(s0)
      6c:	2e336673          	csrrsi	a2,0x2e3,6
      70:	00010063          	beqz	sp,70 <_start-0x7fffff90>
      74:	7300                	flw	fs0,32(a4)
      76:	2d74666f          	jal	a2,46b4c <_start-0x7ffb94b4>
      7a:	7066                	flw	ft0,120(sp)
      7c:	682e                	flw	fa6,200(sp)
      7e:	0100                	addi	s0,sp,128
      80:	0000                	unimp
      82:	676e6973          	csrrsi	s2,0x676,28
      86:	656c                	flw	fa1,76(a0)
      88:	682e                	flw	fa6,200(sp)
      8a:	0100                	addi	s0,sp,128
      8c:	0000                	unimp
      8e:	6f6c                	flw	fa1,92(a4)
      90:	676e                	flw	fa4,216(sp)
      92:	6f6c                	flw	fa1,92(a4)
      94:	676e                	flw	fa4,216(sp)
      96:	682e                	flw	fa6,200(sp)
      98:	0200                	addi	s0,sp,256
      9a:	0000                	unimp
      9c:	0500                	addi	s0,sp,640
      9e:	0001                	nop
      a0:	0205                	addi	tp,tp,1
      a2:	0ee8                	addi	a0,sp,860
      a4:	8000                	0x8000
      a6:	05012303          	lw	t1,80(sp) # b0b0ce6 <_start-0x74f4f31a>
      aa:	09010303          	lb	t1,144(sp)
      ae:	0000                	unimp
      b0:	0301                	addi	t1,t1,0
      b2:	0900                	addi	s0,sp,144
      b4:	0000                	unimp
      b6:	0501                	addi	a0,a0,0
      b8:	030d                	addi	t1,t1,3
      ba:	0900                	addi	s0,sp,144
      bc:	0000                	unimp
      be:	0501                	addi	a0,a0,0
      c0:	09010303          	lb	t1,144(sp)
      c4:	0000                	unimp
      c6:	0301                	addi	t1,t1,0
      c8:	0900                	addi	s0,sp,144
      ca:	0000                	unimp
      cc:	0301                	addi	t1,t1,0
      ce:	0900                	addi	s0,sp,144
      d0:	0000                	unimp
      d2:	0301                	addi	t1,t1,0
      d4:	0900                	addi	s0,sp,144
      d6:	0000                	unimp
      d8:	0301                	addi	t1,t1,0
      da:	0901                	addi	s2,s2,0
      dc:	0000                	unimp
      de:	0301                	addi	t1,t1,0
      e0:	0900                	addi	s0,sp,144
      e2:	0000                	unimp
      e4:	0301                	addi	t1,t1,0
      e6:	0900                	addi	s0,sp,144
      e8:	0000                	unimp
      ea:	0301                	addi	t1,t1,0
      ec:	0900                	addi	s0,sp,144
      ee:	0000                	unimp
      f0:	0301                	addi	t1,t1,0
      f2:	0901                	addi	s2,s2,0
      f4:	0000                	unimp
      f6:	0301                	addi	t1,t1,0
      f8:	0900                	addi	s0,sp,144
      fa:	0000                	unimp
      fc:	0301                	addi	t1,t1,0
      fe:	0900                	addi	s0,sp,144
     100:	0000                	unimp
     102:	0301                	addi	t1,t1,0
     104:	0900                	addi	s0,sp,144
     106:	0000                	unimp
     108:	0301                	addi	t1,t1,0
     10a:	0901                	addi	s2,s2,0
     10c:	0000                	unimp
     10e:	0301                	addi	t1,t1,0
     110:	0902                	c.slli64	s2
     112:	0000                	unimp
     114:	0301                	addi	t1,t1,0
     116:	0901                	addi	s2,s2,0
     118:	0000                	unimp
     11a:	0301                	addi	t1,t1,0
     11c:	0900                	addi	s0,sp,144
     11e:	0000                	unimp
     120:	0301                	addi	t1,t1,0
     122:	0900                	addi	s0,sp,144
     124:	0000                	unimp
     126:	0301                	addi	t1,t1,0
     128:	0900                	addi	s0,sp,144
     12a:	0000                	unimp
     12c:	0301                	addi	t1,t1,0
     12e:	0900                	addi	s0,sp,144
     130:	0000                	unimp
     132:	0501                	addi	a0,a0,0
     134:	0601                	addi	a2,a2,0
     136:	00097803          	0x97803
     13a:	0100                	addi	s0,sp,128
     13c:	0305                	addi	t1,t1,1
     13e:	08090803          	lb	a6,128(s2) # 5e3ec <_start-0x7ffa1c14>
     142:	0100                	addi	s0,sp,128
     144:	0105                	addi	sp,sp,1
     146:	08097803          	0x8097803
     14a:	0100                	addi	s0,sp,128
     14c:	0305                	addi	t1,t1,1
     14e:	0c090803          	lb	a6,192(s2)
     152:	0100                	addi	s0,sp,128
     154:	0306                	slli	t1,t1,0x1
     156:	0900                	addi	s0,sp,144
     158:	0004                	0x4
     15a:	0301                	addi	t1,t1,0
     15c:	0900                	addi	s0,sp,144
     15e:	0000                	unimp
     160:	0501                	addi	a0,a0,0
     162:	0601                	addi	a2,a2,0
     164:	00097803          	0x97803
     168:	0100                	addi	s0,sp,128
     16a:	0305                	addi	t1,t1,1
     16c:	04090903          	lb	s2,64(s2)
     170:	0100                	addi	s0,sp,128
     172:	0105                	addi	sp,sp,1
     174:	08097703          	0x8097703
     178:	0100                	addi	s0,sp,128
     17a:	0305                	addi	t1,t1,1
     17c:	08090803          	lb	a6,128(s2)
     180:	0100                	addi	s0,sp,128
     182:	0306                	slli	t1,t1,0x1
     184:	0900                	addi	s0,sp,144
     186:	0004                	0x4
     188:	0301                	addi	t1,t1,0
     18a:	0900                	addi	s0,sp,144
     18c:	0000                	unimp
     18e:	0301                	addi	t1,t1,0
     190:	0900                	addi	s0,sp,144
     192:	0000                	unimp
     194:	0301                	addi	t1,t1,0
     196:	0900                	addi	s0,sp,144
     198:	0000                	unimp
     19a:	0601                	addi	a2,a2,0
     19c:	00090103          	lb	sp,0(s2)
     1a0:	0100                	addi	s0,sp,128
     1a2:	04097f03          	0x4097f03
     1a6:	0100                	addi	s0,sp,128
     1a8:	0306                	slli	t1,t1,0x1
     1aa:	0900                	addi	s0,sp,144
     1ac:	0004                	0x4
     1ae:	0301                	addi	t1,t1,0
     1b0:	0900                	addi	s0,sp,144
     1b2:	0000                	unimp
     1b4:	0301                	addi	t1,t1,0
     1b6:	0901                	addi	s2,s2,0
     1b8:	0000                	unimp
     1ba:	0301                	addi	t1,t1,0
     1bc:	0900                	addi	s0,sp,144
     1be:	0000                	unimp
     1c0:	0301                	addi	t1,t1,0
     1c2:	0900                	addi	s0,sp,144
     1c4:	0000                	unimp
     1c6:	0301                	addi	t1,t1,0
     1c8:	0900                	addi	s0,sp,144
     1ca:	0000                	unimp
     1cc:	0301                	addi	t1,t1,0
     1ce:	0900                	addi	s0,sp,144
     1d0:	0000                	unimp
     1d2:	0301                	addi	t1,t1,0
     1d4:	0900                	addi	s0,sp,144
     1d6:	0000                	unimp
     1d8:	0301                	addi	t1,t1,0
     1da:	0900                	addi	s0,sp,144
     1dc:	0000                	unimp
     1de:	0301                	addi	t1,t1,0
     1e0:	0900                	addi	s0,sp,144
     1e2:	0000                	unimp
     1e4:	0301                	addi	t1,t1,0
     1e6:	0900                	addi	s0,sp,144
     1e8:	0000                	unimp
     1ea:	0301                	addi	t1,t1,0
     1ec:	0900                	addi	s0,sp,144
     1ee:	0000                	unimp
     1f0:	0301                	addi	t1,t1,0
     1f2:	0900                	addi	s0,sp,144
     1f4:	0000                	unimp
     1f6:	0301                	addi	t1,t1,0
     1f8:	0900                	addi	s0,sp,144
     1fa:	0004                	0x4
     1fc:	0301                	addi	t1,t1,0
     1fe:	0900                	addi	s0,sp,144
     200:	0000                	unimp
     202:	0301                	addi	t1,t1,0
     204:	0901                	addi	s2,s2,0
     206:	0000                	unimp
     208:	0301                	addi	t1,t1,0
     20a:	0900                	addi	s0,sp,144
     20c:	0000                	unimp
     20e:	0301                	addi	t1,t1,0
     210:	0900                	addi	s0,sp,144
     212:	0000                	unimp
     214:	0301                	addi	t1,t1,0
     216:	0900                	addi	s0,sp,144
     218:	0000                	unimp
     21a:	0301                	addi	t1,t1,0
     21c:	0900                	addi	s0,sp,144
     21e:	0000                	unimp
     220:	0301                	addi	t1,t1,0
     222:	0900                	addi	s0,sp,144
     224:	0000                	unimp
     226:	0301                	addi	t1,t1,0
     228:	0900                	addi	s0,sp,144
     22a:	0000                	unimp
     22c:	0301                	addi	t1,t1,0
     22e:	0900                	addi	s0,sp,144
     230:	0000                	unimp
     232:	0001                	nop
     234:	0402                	c.slli64	s0
     236:	09000307          	0x9000307
     23a:	0008                	0x8
     23c:	0001                	nop
     23e:	0402                	c.slli64	s0
     240:	09000307          	0x9000307
     244:	0000                	unimp
     246:	0001                	nop
     248:	0402                	c.slli64	s0
     24a:	09000307          	0x9000307
     24e:	0000                	unimp
     250:	0001                	nop
     252:	0402                	c.slli64	s0
     254:	0309                	addi	t1,t1,2
     256:	0900                	addi	s0,sp,144
     258:	0004                	0x4
     25a:	0001                	nop
     25c:	0402                	c.slli64	s0
     25e:	0309                	addi	t1,t1,2
     260:	0900                	addi	s0,sp,144
     262:	0000                	unimp
     264:	0001                	nop
     266:	0402                	c.slli64	s0
     268:	0900030b          	0x900030b
     26c:	0004                	0x4
     26e:	0001                	nop
     270:	0402                	c.slli64	s0
     272:	030e                	slli	t1,t1,0x3
     274:	0900                	addi	s0,sp,144
     276:	0004                	0x4
     278:	0001                	nop
     27a:	0402                	c.slli64	s0
     27c:	030e                	slli	t1,t1,0x3
     27e:	0900                	addi	s0,sp,144
     280:	0000                	unimp
     282:	0001                	nop
     284:	0402                	c.slli64	s0
     286:	030e                	slli	t1,t1,0x3
     288:	0900                	addi	s0,sp,144
     28a:	0004                	0x4
     28c:	0001                	nop
     28e:	0402                	c.slli64	s0
     290:	09000317          	auipc	t1,0x9000
     294:	0004                	0x4
     296:	0001                	nop
     298:	0402                	c.slli64	s0
     29a:	09000317          	auipc	t1,0x9000
     29e:	0004                	0x4
     2a0:	0001                	nop
     2a2:	0402                	c.slli64	s0
     2a4:	7e03063b          	0x7e03063b
     2a8:	0009                	c.nop	2
     2aa:	0100                	addi	s0,sp,128
     2ac:	0200                	addi	s0,sp,256
     2ae:	7004                	flw	fs1,32(s0)
     2b0:	0306                	slli	t1,t1,0x1
     2b2:	0902                	c.slli64	s2
     2b4:	0004                	0x4
     2b6:	0001                	nop
     2b8:	01ab0403          	lb	s0,26(s6) # 110105ee <_start-0x6efefa12>
     2bc:	08090003          	lb	zero,128(s2)
     2c0:	0100                	addi	s0,sp,128
     2c2:	0300                	addi	s0,sp,384
     2c4:	ab04                	fsd	fs1,16(a4)
     2c6:	0301                	addi	t1,t1,0
     2c8:	0900                	addi	s0,sp,144
     2ca:	0000                	unimp
     2cc:	0001                	nop
     2ce:	01ab0403          	lb	s0,26(s6)
     2d2:	04090003          	lb	zero,64(s2)
     2d6:	0100                	addi	s0,sp,128
     2d8:	0300                	addi	s0,sp,384
     2da:	ab04                	fsd	fs1,16(a4)
     2dc:	0301                	addi	t1,t1,0
     2de:	0900                	addi	s0,sp,144
     2e0:	0000                	unimp
     2e2:	0601                	addi	a2,a2,0
     2e4:	08090003          	lb	zero,128(s2)
     2e8:	0100                	addi	s0,sp,128
     2ea:	0200                	addi	s0,sp,256
     2ec:	1804                	addi	s1,sp,48
     2ee:	0306                	slli	t1,t1,0x1
     2f0:	0900                	addi	s0,sp,144
     2f2:	001c                	0x1c
     2f4:	0601                	addi	a2,a2,0
     2f6:	08090003          	lb	zero,128(s2)
     2fa:	0100                	addi	s0,sp,128
     2fc:	0200                	addi	s0,sp,256
     2fe:	0c04                	addi	s1,sp,528
     300:	0306                	slli	t1,t1,0x1
     302:	0900                	addi	s0,sp,144
     304:	0008                	0x8
     306:	0001                	nop
     308:	0402                	c.slli64	s0
     30a:	0326                	slli	t1,t1,0x9
     30c:	0900                	addi	s0,sp,144
     30e:	0008                	0x8
     310:	0001                	nop
     312:	0402                	c.slli64	s0
     314:	0900032f          	0x900032f
     318:	0008                	0x8
     31a:	0001                	nop
     31c:	0402                	c.slli64	s0
     31e:	0330                	addi	a2,sp,392
     320:	0900                	addi	s0,sp,144
     322:	000c                	0xc
     324:	0001                	nop
     326:	0402                	c.slli64	s0
     328:	0900033b          	0x900033b
     32c:	0018                	0x18
     32e:	0001                	nop
     330:	0402                	c.slli64	s0
     332:	030a                	slli	t1,t1,0x2
     334:	0900                	addi	s0,sp,144
     336:	0008                	0x8
     338:	0001                	nop
     33a:	0402                	c.slli64	s0
     33c:	033d                	addi	t1,t1,15
     33e:	0900                	addi	s0,sp,144
     340:	0004                	0x4
     342:	0001                	nop
     344:	0402                	c.slli64	s0
     346:	033d                	addi	t1,t1,15
     348:	0900                	addi	s0,sp,144
     34a:	0004                	0x4
     34c:	0001                	nop
     34e:	0402                	c.slli64	s0
     350:	033d                	addi	t1,t1,15
     352:	0900                	addi	s0,sp,144
     354:	0000                	unimp
     356:	0001                	nop
     358:	0402                	c.slli64	s0
     35a:	0900033f 00010004 	0x100040900033f
     362:	0402                	c.slli64	s0
     364:	0342                	slli	t1,t1,0x10
     366:	0900                	addi	s0,sp,144
     368:	0004                	0x4
     36a:	0001                	nop
     36c:	0402                	c.slli64	s0
     36e:	0342                	slli	t1,t1,0x10
     370:	0900                	addi	s0,sp,144
     372:	0000                	unimp
     374:	0001                	nop
     376:	0402                	c.slli64	s0
     378:	0342                	slli	t1,t1,0x10
     37a:	0900                	addi	s0,sp,144
     37c:	0004                	0x4
     37e:	0001                	nop
     380:	0402                	c.slli64	s0
     382:	0900034b          	fnmsub.s	ft6,ft0,fa6,ft1,rne
     386:	0004                	0x4
     388:	0001                	nop
     38a:	0402                	c.slli64	s0
     38c:	0900034b          	fnmsub.s	ft6,ft0,fa6,ft1,rne
     390:	0004                	0x4
     392:	0001                	nop
     394:	0402                	c.slli64	s0
     396:	034c                	addi	a1,sp,388
     398:	0900                	addi	s0,sp,144
     39a:	0004                	0x4
     39c:	0601                	addi	a2,a2,0
     39e:	08097f03          	0x8097f03
     3a2:	0100                	addi	s0,sp,128
     3a4:	0200                	addi	s0,sp,256
     3a6:	4004                	lw	s1,0(s0)
     3a8:	0306                	slli	t1,t1,0x1
     3aa:	0901                	addi	s2,s2,0
     3ac:	0008                	0x8
     3ae:	0001                	nop
     3b0:	0402                	c.slli64	s0
     3b2:	035a                	slli	t1,t1,0x16
     3b4:	0900                	addi	s0,sp,144
     3b6:	0008                	0x8
     3b8:	0001                	nop
     3ba:	0402                	c.slli64	s0
     3bc:	09000363          	beq	zero,a6,442 <_start-0x7ffffbbe>
     3c0:	0008                	0x8
     3c2:	0001                	nop
     3c4:	0402                	c.slli64	s0
     3c6:	0364                	addi	s1,sp,396
     3c8:	0900                	addi	s0,sp,144
     3ca:	000c                	0xc
     3cc:	0001                	nop
     3ce:	0402                	c.slli64	s0
     3d0:	0900036f          	jal	t1,460 <_start-0x7ffffba0>
     3d4:	0018                	0x18
     3d6:	0001                	nop
     3d8:	0402                	c.slli64	s0
     3da:	033e                	slli	t1,t1,0xf
     3dc:	0900                	addi	s0,sp,144
     3de:	0008                	0x8
     3e0:	0001                	nop
     3e2:	0402                	c.slli64	s0
     3e4:	0371                	addi	t1,t1,28
     3e6:	0900                	addi	s0,sp,144
     3e8:	000c                	0xc
     3ea:	0001                	nop
     3ec:	0402                	c.slli64	s0
     3ee:	09000373          	0x9000373
     3f2:	0004                	0x4
     3f4:	0001                	nop
     3f6:	0402                	c.slli64	s0
     3f8:	09000373          	0x9000373
     3fc:	0000                	unimp
     3fe:	0001                	nop
     400:	0402                	c.slli64	s0
     402:	0376                	slli	t1,t1,0x1d
     404:	0900                	addi	s0,sp,144
     406:	0004                	0x4
     408:	0001                	nop
     40a:	0402                	c.slli64	s0
     40c:	037c                	addi	a5,sp,396
     40e:	0900                	addi	s0,sp,144
     410:	0004                	0x4
     412:	0001                	nop
     414:	0402                	c.slli64	s0
     416:	037c                	addi	a5,sp,396
     418:	0900                	addi	s0,sp,144
     41a:	0000                	unimp
     41c:	0001                	nop
     41e:	0402                	c.slli64	s0
     420:	037c                	addi	a5,sp,396
     422:	0900                	addi	s0,sp,144
     424:	0004                	0x4
     426:	0001                	nop
     428:	0402                	c.slli64	s0
     42a:	037e                	slli	t1,t1,0x1f
     42c:	0900                	addi	s0,sp,144
     42e:	0008                	0x8
     430:	0001                	nop
     432:	0402                	c.slli64	s0
     434:	037e                	slli	t1,t1,0x1f
     436:	0900                	addi	s0,sp,144
     438:	000c                	0xc
     43a:	0001                	nop
     43c:	02f80403          	lb	s0,47(a6) # 7768f <_start-0x7ff88971>
     440:	04090003          	lb	zero,64(s2)
     444:	0100                	addi	s0,sp,128
     446:	0300                	addi	s0,sp,384
     448:	f804                	fsw	fs1,48(s0)
     44a:	0302                	c.slli64	t1
     44c:	0900                	addi	s0,sp,144
     44e:	0000                	unimp
     450:	0001                	nop
     452:	02f80403          	lb	s0,47(a6)
     456:	00090103          	lb	sp,0(s2)
     45a:	0100                	addi	s0,sp,128
     45c:	0300                	addi	s0,sp,384
     45e:	f804                	fsw	fs1,48(s0)
     460:	0302                	c.slli64	t1
     462:	0900                	addi	s0,sp,144
     464:	0000                	unimp
     466:	0001                	nop
     468:	02f80403          	lb	s0,47(a6)
     46c:	00090003          	lb	zero,0(s2)
     470:	0100                	addi	s0,sp,128
     472:	0300                	addi	s0,sp,384
     474:	f804                	fsw	fs1,48(s0)
     476:	0302                	c.slli64	t1
     478:	0900                	addi	s0,sp,144
     47a:	0000                	unimp
     47c:	0001                	nop
     47e:	02f80403          	lb	s0,47(a6)
     482:	00090003          	lb	zero,0(s2)
     486:	0100                	addi	s0,sp,128
     488:	0200                	addi	s0,sp,256
     48a:	2504                	fld	fs1,8(a0)
     48c:	08090003          	lb	zero,128(s2)
     490:	0100                	addi	s0,sp,128
     492:	0200                	addi	s0,sp,256
     494:	2504                	fld	fs1,8(a0)
     496:	00090003          	lb	zero,0(s2)
     49a:	0100                	addi	s0,sp,128
     49c:	0200                	addi	s0,sp,256
     49e:	2504                	fld	fs1,8(a0)
     4a0:	00090003          	lb	zero,0(s2)
     4a4:	0100                	addi	s0,sp,128
     4a6:	0200                	addi	s0,sp,256
     4a8:	2504                	fld	fs1,8(a0)
     4aa:	00090003          	lb	zero,0(s2)
     4ae:	0100                	addi	s0,sp,128
     4b0:	0200                	addi	s0,sp,256
     4b2:	2c04                	fld	fs1,24(s0)
     4b4:	0c090003          	lb	zero,192(s2)
     4b8:	0100                	addi	s0,sp,128
     4ba:	0300                	addi	s0,sp,384
     4bc:	8f04                	0x8f04
     4be:	0301                	addi	t1,t1,0
     4c0:	097f                	0x97f
     4c2:	0008                	0x8
     4c4:	0001                	nop
     4c6:	018f0403          	lb	s0,24(t5) # 68686 <_start-0x7ff9797a>
     4ca:	00090003          	lb	zero,0(s2)
     4ce:	0100                	addi	s0,sp,128
     4d0:	0300                	addi	s0,sp,384
     4d2:	8f04                	0x8f04
     4d4:	0301                	addi	t1,t1,0
     4d6:	0900                	addi	s0,sp,144
     4d8:	0000                	unimp
     4da:	0001                	nop
     4dc:	018f0403          	lb	s0,24(t5)
     4e0:	00090003          	lb	zero,0(s2)
     4e4:	0100                	addi	s0,sp,128
     4e6:	0300                	addi	s0,sp,384
     4e8:	8f04                	0x8f04
     4ea:	0301                	addi	t1,t1,0
     4ec:	0900                	addi	s0,sp,144
     4ee:	0000                	unimp
     4f0:	0001                	nop
     4f2:	018f0403          	lb	s0,24(t5)
     4f6:	00090003          	lb	zero,0(s2)
     4fa:	0100                	addi	s0,sp,128
     4fc:	0300                	addi	s0,sp,384
     4fe:	8f04                	0x8f04
     500:	0301                	addi	t1,t1,0
     502:	0900                	addi	s0,sp,144
     504:	0000                	unimp
     506:	0001                	nop
     508:	018f0403          	lb	s0,24(t5)
     50c:	00090003          	lb	zero,0(s2)
     510:	0100                	addi	s0,sp,128
     512:	0300                	addi	s0,sp,384
     514:	c904                	sw	s1,16(a0)
     516:	0302                	c.slli64	t1
     518:	0900                	addi	s0,sp,144
     51a:	0004                	0x4
     51c:	0601                	addi	a2,a2,0
     51e:	04090003          	lb	zero,64(s2)
     522:	0100                	addi	s0,sp,128
     524:	0200                	addi	s0,sp,256
     526:	7204                	flw	fs1,32(a2)
     528:	0306                	slli	t1,t1,0x1
     52a:	0900                	addi	s0,sp,144
     52c:	0010                	0x10
     52e:	0001                	nop
     530:	0402                	c.slli64	s0
     532:	0372                	slli	t1,t1,0x1c
     534:	0900                	addi	s0,sp,144
     536:	0000                	unimp
     538:	0001                	nop
     53a:	0402                	c.slli64	s0
     53c:	0372                	slli	t1,t1,0x1c
     53e:	0900                	addi	s0,sp,144
     540:	0000                	unimp
     542:	0001                	nop
     544:	0402                	c.slli64	s0
     546:	0372                	slli	t1,t1,0x1c
     548:	0900                	addi	s0,sp,144
     54a:	0000                	unimp
     54c:	0601                	addi	a2,a2,0
     54e:	08090003          	lb	zero,128(s2)
     552:	0100                	addi	s0,sp,128
     554:	0200                	addi	s0,sp,256
     556:	0804                	addi	s1,sp,16
     558:	0306                	slli	t1,t1,0x1
     55a:	0900                	addi	s0,sp,144
     55c:	0010                	0x10
     55e:	0001                	nop
     560:	0402                	c.slli64	s0
     562:	0308                	addi	a0,sp,384
     564:	0900                	addi	s0,sp,144
     566:	0000                	unimp
     568:	0001                	nop
     56a:	01bd0403          	lb	s0,27(s10) # 9e8b1 <_start-0x7ff6174f>
     56e:	04090003          	lb	zero,64(s2)
     572:	0100                	addi	s0,sp,128
     574:	0300                	addi	s0,sp,384
     576:	bd04                	fsd	fs1,56(a0)
     578:	0301                	addi	t1,t1,0
     57a:	0900                	addi	s0,sp,144
     57c:	0000                	unimp
     57e:	0001                	nop
     580:	01bd0403          	lb	s0,27(s10)
     584:	00090003          	lb	zero,0(s2)
     588:	0100                	addi	s0,sp,128
     58a:	0300                	addi	s0,sp,384
     58c:	bf04                	fsd	fs1,56(a4)
     58e:	0301                	addi	t1,t1,0
     590:	0900                	addi	s0,sp,144
     592:	0004                	0x4
     594:	0001                	nop
     596:	01bf0403          	lb	s0,27(t5)
     59a:	0306                	slli	t1,t1,0x1
     59c:	097e                	slli	s2,s2,0x1f
     59e:	0000                	unimp
     5a0:	0001                	nop
     5a2:	01bf0403          	lb	s0,27(t5)
     5a6:	04090203          	lb	tp,64(s2)
     5aa:	0100                	addi	s0,sp,128
     5ac:	0300                	addi	s0,sp,384
     5ae:	c204                	sw	s1,0(a2)
     5b0:	0601                	addi	a2,a2,0
     5b2:	04090003          	lb	zero,64(s2)
     5b6:	0100                	addi	s0,sp,128
     5b8:	0300                	addi	s0,sp,384
     5ba:	c204                	sw	s1,0(a2)
     5bc:	0301                	addi	t1,t1,0
     5be:	0900                	addi	s0,sp,144
     5c0:	0000                	unimp
     5c2:	0001                	nop
     5c4:	01c20403          	lb	s0,28(tp) # 1a01c <_start-0x7ffe5fe4>
     5c8:	04090003          	lb	zero,64(s2)
     5cc:	0100                	addi	s0,sp,128
     5ce:	0300                	addi	s0,sp,384
     5d0:	cb04                	sw	s1,16(a4)
     5d2:	0301                	addi	t1,t1,0
     5d4:	0900                	addi	s0,sp,144
     5d6:	0004                	0x4
     5d8:	0001                	nop
     5da:	01cb0403          	lb	s0,28(s6)
     5de:	04090003          	lb	zero,64(s2)
     5e2:	0100                	addi	s0,sp,128
     5e4:	0300                	addi	s0,sp,384
     5e6:	a404                	fsd	fs1,8(s0)
     5e8:	0302                	c.slli64	t1
     5ea:	0900                	addi	s0,sp,144
     5ec:	0000                	unimp
     5ee:	0001                	nop
     5f0:	02df0403          	lb	s0,45(t5)
     5f4:	08090003          	lb	zero,128(s2)
     5f8:	0100                	addi	s0,sp,128
     5fa:	0300                	addi	s0,sp,384
     5fc:	df04                	sw	s1,56(a4)
     5fe:	0302                	c.slli64	t1
     600:	0900                	addi	s0,sp,144
     602:	0000                	unimp
     604:	0001                	nop
     606:	01cc0403          	lb	s0,28(s8) # 646b4 <_start-0x7ff9b94c>
     60a:	14090003          	lb	zero,320(s2)
     60e:	0100                	addi	s0,sp,128
     610:	0300                	addi	s0,sp,384
     612:	e304                	fsw	fs1,0(a4)
     614:	0301                	addi	t1,t1,0
     616:	0900                	addi	s0,sp,144
     618:	000c                	0xc
     61a:	0001                	nop
     61c:	01e40403          	lb	s0,30(s0) # 30038f2 <_start-0x7cffc70e>
     620:	0c090003          	lb	zero,192(s2)
     624:	0100                	addi	s0,sp,128
     626:	0300                	addi	s0,sp,384
     628:	ef04                	fsw	fs1,24(a4)
     62a:	0301                	addi	t1,t1,0
     62c:	0900                	addi	s0,sp,144
     62e:	0018                	0x18
     630:	0001                	nop
     632:	01ef0403          	lb	s0,30(t5)
     636:	0306                	slli	t1,t1,0x1
     638:	097e                	slli	s2,s2,0x1f
     63a:	0004                	0x4
     63c:	0001                	nop
     63e:	01c00403          	lb	s0,28(zero) # 1c <_start-0x7fffffe4>
     642:	0306                	slli	t1,t1,0x1
     644:	0902                	c.slli64	s2
     646:	0008                	0x8
     648:	0001                	nop
     64a:	01da0403          	lb	s0,29(s4)
     64e:	0c090003          	lb	zero,192(s2)
     652:	0100                	addi	s0,sp,128
     654:	0300                	addi	s0,sp,384
     656:	be04                	fsd	fs1,56(a2)
     658:	0301                	addi	t1,t1,0
     65a:	0900                	addi	s0,sp,144
     65c:	000c                	0xc
     65e:	0001                	nop
     660:	01f10403          	lb	s0,31(sp)
     664:	04090003          	lb	zero,64(s2)
     668:	0100                	addi	s0,sp,128
     66a:	0300                	addi	s0,sp,384
     66c:	f104                	fsw	fs1,32(a0)
     66e:	0301                	addi	t1,t1,0
     670:	0900                	addi	s0,sp,144
     672:	0004                	0x4
     674:	0001                	nop
     676:	01f10403          	lb	s0,31(sp)
     67a:	00090003          	lb	zero,0(s2)
     67e:	0100                	addi	s0,sp,128
     680:	0300                	addi	s0,sp,384
     682:	f104                	fsw	fs1,32(a0)
     684:	0301                	addi	t1,t1,0
     686:	0900                	addi	s0,sp,144
     688:	0000                	unimp
     68a:	0001                	nop
     68c:	01f30403          	lb	s0,31(t1) # 90002b9 <_start-0x76fffd47>
     690:	04090003          	lb	zero,64(s2)
     694:	0100                	addi	s0,sp,128
     696:	0300                	addi	s0,sp,384
     698:	f604                	fsw	fs1,40(a2)
     69a:	0301                	addi	t1,t1,0
     69c:	0900                	addi	s0,sp,144
     69e:	0004                	0x4
     6a0:	0001                	nop
     6a2:	01f60403          	lb	s0,31(a2) # b01f <_start-0x7fff4fe1>
     6a6:	00090003          	lb	zero,0(s2)
     6aa:	0100                	addi	s0,sp,128
     6ac:	0300                	addi	s0,sp,384
     6ae:	f604                	fsw	fs1,40(a2)
     6b0:	0301                	addi	t1,t1,0
     6b2:	0900                	addi	s0,sp,144
     6b4:	0004                	0x4
     6b6:	0001                	nop
     6b8:	01ff0403          	lb	s0,31(t5)
     6bc:	04090003          	lb	zero,64(s2)
     6c0:	0100                	addi	s0,sp,128
     6c2:	0300                	addi	s0,sp,384
     6c4:	ff04                	fsw	fs1,56(a4)
     6c6:	0301                	addi	t1,t1,0
     6c8:	0900                	addi	s0,sp,144
     6ca:	0004                	0x4
     6cc:	0001                	nop
     6ce:	02800403          	lb	s0,40(zero) # 28 <_start-0x7fffffd8>
     6d2:	08090003          	lb	zero,128(s2)
     6d6:	0100                	addi	s0,sp,128
     6d8:	0306                	slli	t1,t1,0x1
     6da:	097f                	0x97f
     6dc:	0008                	0x8
     6de:	0001                	nop
     6e0:	01f40403          	lb	s0,31(s0)
     6e4:	0306                	slli	t1,t1,0x1
     6e6:	0901                	addi	s2,s2,0
     6e8:	000c                	0xc
     6ea:	0001                	nop
     6ec:	028e0403          	lb	s0,40(t3) # 1a028 <_start-0x7ffe5fd8>
     6f0:	08090003          	lb	zero,128(s2)
     6f4:	0100                	addi	s0,sp,128
     6f6:	0300                	addi	s0,sp,384
     6f8:	9704                	0x9704
     6fa:	0302                	c.slli64	t1
     6fc:	0900                	addi	s0,sp,144
     6fe:	0008                	0x8
     700:	0001                	nop
     702:	02980403          	lb	s0,41(a6)
     706:	0c090003          	lb	zero,192(s2)
     70a:	0100                	addi	s0,sp,128
     70c:	0300                	addi	s0,sp,384
     70e:	a304                	fsd	fs1,0(a4)
     710:	0302                	c.slli64	t1
     712:	0900                	addi	s0,sp,144
     714:	0018                	0x18
     716:	0001                	nop
     718:	01f20403          	lb	s0,31(tp) # 1f <_start-0x7fffffe1>
     71c:	08090003          	lb	zero,128(s2)
     720:	0100                	addi	s0,sp,128
     722:	0300                	addi	s0,sp,384
     724:	a504                	fsd	fs1,8(a0)
     726:	0302                	c.slli64	t1
     728:	0900                	addi	s0,sp,144
     72a:	000c                	0xc
     72c:	0001                	nop
     72e:	02a70403          	lb	s0,42(a4) # 766a6 <_start-0x7ff8995a>
     732:	04090003          	lb	zero,64(s2)
     736:	0100                	addi	s0,sp,128
     738:	0300                	addi	s0,sp,384
     73a:	a704                	fsd	fs1,8(a4)
     73c:	0302                	c.slli64	t1
     73e:	0900                	addi	s0,sp,144
     740:	0000                	unimp
     742:	0001                	nop
     744:	02a90403          	lb	s0,42(s2)
     748:	04090003          	lb	zero,64(s2)
     74c:	0100                	addi	s0,sp,128
     74e:	0300                	addi	s0,sp,384
     750:	a904                	fsd	fs1,16(a0)
     752:	0302                	c.slli64	t1
     754:	0900                	addi	s0,sp,144
     756:	0000                	unimp
     758:	0601                	addi	a2,a2,0
     75a:	04090003          	lb	zero,64(s2)
     75e:	0100                	addi	s0,sp,128
     760:	0300                	addi	s0,sp,384
     762:	aa04                	fsd	fs1,16(a2)
     764:	0602                	c.slli64	a2
     766:	0c090003          	lb	zero,192(s2)
     76a:	0100                	addi	s0,sp,128
     76c:	0300                	addi	s0,sp,384
     76e:	b104                	fsd	fs1,32(a0)
     770:	0302                	c.slli64	t1
     772:	0900                	addi	s0,sp,144
     774:	0004                	0x4
     776:	0001                	nop
     778:	02b10403          	lb	s0,43(sp)
     77c:	00090003          	lb	zero,0(s2)
     780:	0100                	addi	s0,sp,128
     782:	0300                	addi	s0,sp,384
     784:	b104                	fsd	fs1,32(a0)
     786:	0302                	c.slli64	t1
     788:	0900                	addi	s0,sp,144
     78a:	0004                	0x4
     78c:	0001                	nop
     78e:	02b10403          	lb	s0,43(sp)
     792:	00090003          	lb	zero,0(s2)
     796:	0100                	addi	s0,sp,128
     798:	0300                	addi	s0,sp,384
     79a:	b404                	fsd	fs1,40(s0)
     79c:	0302                	c.slli64	t1
     79e:	0900                	addi	s0,sp,144
     7a0:	000c                	0xc
     7a2:	0001                	nop
     7a4:	02c70403          	lb	s0,44(a4)
     7a8:	0c090003          	lb	zero,192(s2)
     7ac:	0100                	addi	s0,sp,128
     7ae:	0300                	addi	s0,sp,384
     7b0:	c704                	sw	s1,8(a4)
     7b2:	0302                	c.slli64	t1
     7b4:	0900                	addi	s0,sp,144
     7b6:	0000                	unimp
     7b8:	0001                	nop
     7ba:	02c70403          	lb	s0,44(a4)
     7be:	00090003          	lb	zero,0(s2)
     7c2:	0100                	addi	s0,sp,128
     7c4:	0300                	addi	s0,sp,384
     7c6:	c704                	sw	s1,8(a4)
     7c8:	0302                	c.slli64	t1
     7ca:	0900                	addi	s0,sp,144
     7cc:	0000                	unimp
     7ce:	0001                	nop
     7d0:	02c70403          	lb	s0,44(a4)
     7d4:	00090003          	lb	zero,0(s2)
     7d8:	0100                	addi	s0,sp,128
     7da:	0300                	addi	s0,sp,384
     7dc:	c704                	sw	s1,8(a4)
     7de:	0302                	c.slli64	t1
     7e0:	0900                	addi	s0,sp,144
     7e2:	0000                	unimp
     7e4:	0001                	nop
     7e6:	02c70403          	lb	s0,44(a4)
     7ea:	00090003          	lb	zero,0(s2)
     7ee:	0100                	addi	s0,sp,128
     7f0:	0300                	addi	s0,sp,384
     7f2:	c704                	sw	s1,8(a4)
     7f4:	0302                	c.slli64	t1
     7f6:	0900                	addi	s0,sp,144
     7f8:	0000                	unimp
     7fa:	0001                	nop
     7fc:	02c80403          	lb	s0,44(a6)
     800:	04090003          	lb	zero,64(s2)
     804:	0100                	addi	s0,sp,128
     806:	0306                	slli	t1,t1,0x1
     808:	0900                	addi	s0,sp,144
     80a:	0004                	0x4
     80c:	0001                	nop
     80e:	02a60403          	lb	s0,42(a2)
     812:	0306                	slli	t1,t1,0x1
     814:	0900                	addi	s0,sp,144
     816:	000c                	0xc
     818:	0001                	nop
     81a:	02a60403          	lb	s0,42(a2)
     81e:	00090003          	lb	zero,0(s2)
     822:	0100                	addi	s0,sp,128
     824:	0300                	addi	s0,sp,384
     826:	a604                	fsd	fs1,8(a2)
     828:	0302                	c.slli64	t1
     82a:	0900                	addi	s0,sp,144
     82c:	0004                	0x4
     82e:	0001                	nop
     830:	02a60403          	lb	s0,42(a2)
     834:	00090003          	lb	zero,0(s2)
     838:	0100                	addi	s0,sp,128
     83a:	0300                	addi	s0,sp,384
     83c:	d804                	sw	s1,48(s0)
     83e:	0302                	c.slli64	t1
     840:	0900                	addi	s0,sp,144
     842:	0008                	0x8
     844:	0001                	nop
     846:	02d80403          	lb	s0,45(a6)
     84a:	04090003          	lb	zero,64(s2)
     84e:	0100                	addi	s0,sp,128
     850:	0300                	addi	s0,sp,384
     852:	e204                	fsw	fs1,0(a2)
     854:	0302                	c.slli64	t1
     856:	0900                	addi	s0,sp,144
     858:	0004                	0x4
     85a:	0001                	nop
     85c:	02e20403          	lb	s0,46(tp) # 2e <_start-0x7fffffd2>
     860:	00090003          	lb	zero,0(s2)
     864:	0100                	addi	s0,sp,128
     866:	0300                	addi	s0,sp,384
     868:	e204                	fsw	fs1,0(a2)
     86a:	0302                	c.slli64	t1
     86c:	0900                	addi	s0,sp,144
     86e:	0000                	unimp
     870:	0001                	nop
     872:	02e20403          	lb	s0,46(tp) # 2e <_start-0x7fffffd2>
     876:	00090003          	lb	zero,0(s2)
     87a:	0100                	addi	s0,sp,128
     87c:	0300                	addi	s0,sp,384
     87e:	e204                	fsw	fs1,0(a2)
     880:	0302                	c.slli64	t1
     882:	0900                	addi	s0,sp,144
     884:	0008                	0x8
     886:	0001                	nop
     888:	02e20403          	lb	s0,46(tp) # 2e <_start-0x7fffffd2>
     88c:	00090003          	lb	zero,0(s2)
     890:	0100                	addi	s0,sp,128
     892:	0300                	addi	s0,sp,384
     894:	e204                	fsw	fs1,0(a2)
     896:	0302                	c.slli64	t1
     898:	0900                	addi	s0,sp,144
     89a:	0004                	0x4
     89c:	0001                	nop
     89e:	02e20403          	lb	s0,46(tp) # 2e <_start-0x7fffffd2>
     8a2:	00090003          	lb	zero,0(s2)
     8a6:	0100                	addi	s0,sp,128
     8a8:	0300                	addi	s0,sp,384
     8aa:	e204                	fsw	fs1,0(a2)
     8ac:	0302                	c.slli64	t1
     8ae:	0900                	addi	s0,sp,144
     8b0:	0000                	unimp
     8b2:	0001                	nop
     8b4:	02e20403          	lb	s0,46(tp) # 2e <_start-0x7fffffd2>
     8b8:	04090003          	lb	zero,64(s2)
     8bc:	0100                	addi	s0,sp,128
     8be:	0300                	addi	s0,sp,384
     8c0:	e204                	fsw	fs1,0(a2)
     8c2:	0302                	c.slli64	t1
     8c4:	0900                	addi	s0,sp,144
     8c6:	0000                	unimp
     8c8:	0001                	nop
     8ca:	02ef0403          	lb	s0,46(t5)
     8ce:	04090003          	lb	zero,64(s2)
     8d2:	0100                	addi	s0,sp,128
     8d4:	0300                	addi	s0,sp,384
     8d6:	ef04                	fsw	fs1,24(a4)
     8d8:	0302                	c.slli64	t1
     8da:	0900                	addi	s0,sp,144
     8dc:	0008                	0x8
     8de:	0001                	nop
     8e0:	02ef0403          	lb	s0,46(t5)
     8e4:	18090003          	lb	zero,384(s2)
     8e8:	0100                	addi	s0,sp,128
     8ea:	0300                	addi	s0,sp,384
     8ec:	d904                	sw	s1,48(a0)
     8ee:	0302                	c.slli64	t1
     8f0:	0900                	addi	s0,sp,144
     8f2:	0008                	0x8
     8f4:	0601                	addi	a2,a2,0
     8f6:	04090003          	lb	zero,64(s2)
     8fa:	0100                	addi	s0,sp,128
     8fc:	0300                	addi	s0,sp,384
     8fe:	f004                	fsw	fs1,32(s0)
     900:	0602                	c.slli64	a2
     902:	0c090003          	lb	zero,192(s2)
     906:	0100                	addi	s0,sp,128
     908:	0300                	addi	s0,sp,384
     90a:	f004                	fsw	fs1,32(s0)
     90c:	0302                	c.slli64	t1
     90e:	0900                	addi	s0,sp,144
     910:	000c                	0xc
     912:	0601                	addi	a2,a2,0
     914:	08097e03          	0x8097e03
     918:	0100                	addi	s0,sp,128
     91a:	08090103          	lb	sp,128(s2)
     91e:	0100                	addi	s0,sp,128
     920:	0200                	addi	s0,sp,256
     922:	2f04                	fld	fs1,24(a4)
     924:	0306                	slli	t1,t1,0x1
     926:	0902                	c.slli64	s2
     928:	0010                	0x10
     92a:	0001                	nop
     92c:	0402                	c.slli64	s0
     92e:	0900032f          	0x900032f
     932:	0000                	unimp
     934:	0001                	nop
     936:	0402                	c.slli64	s0
     938:	0900032f          	0x900032f
     93c:	0000                	unimp
     93e:	0001                	nop
     940:	0402                	c.slli64	s0
     942:	0900033f 00010008 	0x100080900033f
     94a:	0402                	c.slli64	s0
     94c:	0900033f 00010000 	0x100000900033f
     954:	0402                	c.slli64	s0
     956:	0900033f 06010004 	0x60100040900033f
     95e:	08090003          	lb	zero,128(s2)
     962:	0100                	addi	s0,sp,128
     964:	0200                	addi	s0,sp,256
     966:	4f04                	lw	s1,24(a4)
     968:	0306                	slli	t1,t1,0x1
     96a:	0900                	addi	s0,sp,144
     96c:	000c                	0xc
     96e:	0001                	nop
     970:	0402                	c.slli64	s0
     972:	0900034f          	fnmadd.s	ft6,ft0,fa6,ft1,rne
     976:	0000                	unimp
     978:	0001                	nop
     97a:	0402                	c.slli64	s0
     97c:	0900034f          	fnmadd.s	ft6,ft0,fa6,ft1,rne
     980:	0008                	0x8
     982:	0001                	nop
     984:	0402                	c.slli64	s0
     986:	0650                	addi	a2,sp,772
     988:	04090003          	lb	zero,64(s2)
     98c:	0100                	addi	s0,sp,128
     98e:	04090003          	lb	zero,64(s2)
     992:	0100                	addi	s0,sp,128
     994:	0200                	addi	s0,sp,256
     996:	5a04                	lw	s1,48(a2)
     998:	0306                	slli	t1,t1,0x1
     99a:	0900                	addi	s0,sp,144
     99c:	0008                	0x8
     99e:	0001                	nop
     9a0:	0402                	c.slli64	s0
     9a2:	035a                	slli	t1,t1,0x16
     9a4:	0900                	addi	s0,sp,144
     9a6:	0000                	unimp
     9a8:	0001                	nop
     9aa:	0402                	c.slli64	s0
     9ac:	035a                	slli	t1,t1,0x16
     9ae:	0900                	addi	s0,sp,144
     9b0:	0000                	unimp
     9b2:	0001                	nop
     9b4:	0402                	c.slli64	s0
     9b6:	035a                	slli	t1,t1,0x16
     9b8:	0900                	addi	s0,sp,144
     9ba:	0000                	unimp
     9bc:	0001                	nop
     9be:	0402                	c.slli64	s0
     9c0:	035a                	slli	t1,t1,0x16
     9c2:	0900                	addi	s0,sp,144
     9c4:	0000                	unimp
     9c6:	0001                	nop
     9c8:	0402                	c.slli64	s0
     9ca:	035a                	slli	t1,t1,0x16
     9cc:	0900                	addi	s0,sp,144
     9ce:	0000                	unimp
     9d0:	0001                	nop
     9d2:	0402                	c.slli64	s0
     9d4:	035a                	slli	t1,t1,0x16
     9d6:	0900                	addi	s0,sp,144
     9d8:	0000                	unimp
     9da:	0501                	addi	a0,a0,0
     9dc:	0001                	nop
     9de:	0402                	c.slli64	s0
     9e0:	065a                	slli	a2,a2,0x16
     9e2:	00090403          	lb	s0,0(s2)
     9e6:	0100                	addi	s0,sp,128
     9e8:	0305                	addi	t1,t1,1
     9ea:	0200                	addi	s0,sp,256
     9ec:	5a04                	lw	s1,48(a2)
     9ee:	08097c03          	0x8097c03
     9f2:	0100                	addi	s0,sp,128
     9f4:	0200                	addi	s0,sp,256
     9f6:	5a04                	lw	s1,48(a2)
     9f8:	0306                	slli	t1,t1,0x1
     9fa:	0900                	addi	s0,sp,144
     9fc:	001c                	0x1c
     9fe:	0001                	nop
     a00:	0402                	c.slli64	s0
     a02:	035a                	slli	t1,t1,0x16
     a04:	0900                	addi	s0,sp,144
     a06:	0000                	unimp
     a08:	0001                	nop
     a0a:	0402                	c.slli64	s0
     a0c:	035a                	slli	t1,t1,0x16
     a0e:	0900                	addi	s0,sp,144
     a10:	0000                	unimp
     a12:	0001                	nop
     a14:	0402                	c.slli64	s0
     a16:	035a                	slli	t1,t1,0x16
     a18:	0901                	addi	s2,s2,0
     a1a:	0000                	unimp
     a1c:	0001                	nop
     a1e:	0402                	c.slli64	s0
     a20:	035a                	slli	t1,t1,0x16
     a22:	0900                	addi	s0,sp,144
     a24:	0000                	unimp
     a26:	0001                	nop
     a28:	0402                	c.slli64	s0
     a2a:	035a                	slli	t1,t1,0x16
     a2c:	0900                	addi	s0,sp,144
     a2e:	0000                	unimp
     a30:	0001                	nop
     a32:	0402                	c.slli64	s0
     a34:	035a                	slli	t1,t1,0x16
     a36:	0902                	c.slli64	s2
     a38:	0000                	unimp
     a3a:	0501                	addi	a0,a0,0
     a3c:	0001                	nop
     a3e:	0402                	c.slli64	s0
     a40:	065a                	slli	a2,a2,0x16
     a42:	00090103          	lb	sp,0(s2)
     a46:	0100                	addi	s0,sp,128
     a48:	1c09                	addi	s8,s8,-30
     a4a:	0000                	unimp
     a4c:	0101                	addi	sp,sp,0
     a4e:	087e                	slli	a6,a6,0x1f
     a50:	0000                	unimp
     a52:	00930003          	lb	zero,9(t1)
     a56:	0000                	unimp
     a58:	0101                	addi	sp,sp,0
     a5a:	000d0efb          	0xd0efb
     a5e:	0101                	addi	sp,sp,0
     a60:	0101                	addi	sp,sp,0
     a62:	0000                	unimp
     a64:	0100                	addi	s0,sp,128
     a66:	0000                	unimp
     a68:	2e01                	jal	d78 <_start-0x7ffff288>
     a6a:	2f2e                	fld	ft10,200(sp)
     a6c:	2e2e                	fld	ft8,200(sp)
     a6e:	2f2e2e2f          	0x2f2e2e2f
     a72:	2e2e                	fld	ft8,200(sp)
     a74:	7369722f          	0x7369722f
     a78:	672d7663          	bgeu	s10,s2,10e4 <_start-0x7fffef1c>
     a7c:	6c2f6363          	bltu	t5,sp,1142 <_start-0x7fffeebe>
     a80:	6269                	lui	tp,0x1a
     a82:	2f636367          	0x2f636367
     a86:	74666f73          	csrrsi	t5,0x746,12
     a8a:	662d                	lui	a2,0xb
     a8c:	0070                	addi	a2,sp,12
     a8e:	2e2e                	fld	ft8,200(sp)
     a90:	2f2e2e2f          	0x2f2e2e2f
     a94:	2e2e                	fld	ft8,200(sp)
     a96:	2f2e2e2f          	0x2f2e2e2f
     a9a:	6972                	flw	fs2,28(sp)
     a9c:	2d766373          	csrrsi	t1,0x2d7,12
     aa0:	2f636367          	0x2f636367
     aa4:	696c                	flw	fa1,84(a0)
     aa6:	6762                	flw	fa4,24(sp)
     aa8:	2e2f6363          	bltu	t5,sp,d8e <_start-0x7ffff272>
     aac:	2f2e                	fld	ft10,200(sp)
     aae:	6e69                	lui	t3,0x1a
     ab0:	64756c63          	bltu	a0,t2,1108 <_start-0x7fffeef8>
     ab4:	0065                	c.nop	25
     ab6:	6400                	flw	fs0,8(s0)
     ab8:	7669                	lui	a2,0xffffa
     aba:	2e336673          	csrrsi	a2,0x2e3,6
     abe:	00010063          	beqz	sp,abe <_start-0x7ffff542>
     ac2:	7300                	flw	fs0,32(a4)
     ac4:	2d74666f          	jal	a2,4759a <_start-0x7ffb8a66>
     ac8:	7066                	flw	ft0,120(sp)
     aca:	682e                	flw	fa6,200(sp)
     acc:	0100                	addi	s0,sp,128
     ace:	0000                	unimp
     ad0:	676e6973          	csrrsi	s2,0x676,28
     ad4:	656c                	flw	fa1,76(a0)
     ad6:	682e                	flw	fa6,200(sp)
     ad8:	0100                	addi	s0,sp,128
     ada:	0000                	unimp
     adc:	6f6c                	flw	fa1,92(a4)
     ade:	676e                	flw	fa4,216(sp)
     ae0:	6f6c                	flw	fa1,92(a4)
     ae2:	676e                	flw	fa4,216(sp)
     ae4:	682e                	flw	fa6,200(sp)
     ae6:	0200                	addi	s0,sp,256
     ae8:	0000                	unimp
     aea:	0500                	addi	s0,sp,640
     aec:	0001                	nop
     aee:	0205                	addi	tp,tp,1
     af0:	1314                	addi	a3,sp,416
     af2:	8000                	0x8000
     af4:	05012303          	lw	t1,80(sp)
     af8:	09010303          	lb	t1,144(sp)
     afc:	0000                	unimp
     afe:	0301                	addi	t1,t1,0
     b00:	0900                	addi	s0,sp,144
     b02:	0000                	unimp
     b04:	0501                	addi	a0,a0,0
     b06:	030d                	addi	t1,t1,3
     b08:	0900                	addi	s0,sp,144
     b0a:	0000                	unimp
     b0c:	0501                	addi	a0,a0,0
     b0e:	09010303          	lb	t1,144(sp)
     b12:	0000                	unimp
     b14:	0301                	addi	t1,t1,0
     b16:	0900                	addi	s0,sp,144
     b18:	0000                	unimp
     b1a:	0301                	addi	t1,t1,0
     b1c:	0900                	addi	s0,sp,144
     b1e:	0000                	unimp
     b20:	0301                	addi	t1,t1,0
     b22:	0900                	addi	s0,sp,144
     b24:	0000                	unimp
     b26:	0301                	addi	t1,t1,0
     b28:	0901                	addi	s2,s2,0
     b2a:	0000                	unimp
     b2c:	0301                	addi	t1,t1,0
     b2e:	0900                	addi	s0,sp,144
     b30:	0000                	unimp
     b32:	0301                	addi	t1,t1,0
     b34:	0900                	addi	s0,sp,144
     b36:	0000                	unimp
     b38:	0301                	addi	t1,t1,0
     b3a:	0900                	addi	s0,sp,144
     b3c:	0000                	unimp
     b3e:	0301                	addi	t1,t1,0
     b40:	0901                	addi	s2,s2,0
     b42:	0000                	unimp
     b44:	0301                	addi	t1,t1,0
     b46:	0900                	addi	s0,sp,144
     b48:	0000                	unimp
     b4a:	0301                	addi	t1,t1,0
     b4c:	0900                	addi	s0,sp,144
     b4e:	0000                	unimp
     b50:	0301                	addi	t1,t1,0
     b52:	0900                	addi	s0,sp,144
     b54:	0000                	unimp
     b56:	0301                	addi	t1,t1,0
     b58:	0901                	addi	s2,s2,0
     b5a:	0000                	unimp
     b5c:	0301                	addi	t1,t1,0
     b5e:	0902                	c.slli64	s2
     b60:	0000                	unimp
     b62:	0301                	addi	t1,t1,0
     b64:	0901                	addi	s2,s2,0
     b66:	0000                	unimp
     b68:	0301                	addi	t1,t1,0
     b6a:	0900                	addi	s0,sp,144
     b6c:	0000                	unimp
     b6e:	0301                	addi	t1,t1,0
     b70:	0900                	addi	s0,sp,144
     b72:	0000                	unimp
     b74:	0301                	addi	t1,t1,0
     b76:	0900                	addi	s0,sp,144
     b78:	0000                	unimp
     b7a:	0301                	addi	t1,t1,0
     b7c:	0900                	addi	s0,sp,144
     b7e:	0000                	unimp
     b80:	0501                	addi	a0,a0,0
     b82:	0601                	addi	a2,a2,0
     b84:	00097803          	0x97803
     b88:	0100                	addi	s0,sp,128
     b8a:	0305                	addi	t1,t1,1
     b8c:	18090803          	lb	a6,384(s2)
     b90:	0100                	addi	s0,sp,128
     b92:	0105                	addi	sp,sp,1
     b94:	04097803          	0x4097803
     b98:	0100                	addi	s0,sp,128
     b9a:	10090003          	lb	zero,256(s2)
     b9e:	0100                	addi	s0,sp,128
     ba0:	0305                	addi	t1,t1,1
     ba2:	04090803          	lb	a6,64(s2)
     ba6:	0100                	addi	s0,sp,128
     ba8:	0306                	slli	t1,t1,0x1
     baa:	0900                	addi	s0,sp,144
     bac:	0004                	0x4
     bae:	0301                	addi	t1,t1,0
     bb0:	0900                	addi	s0,sp,144
     bb2:	0000                	unimp
     bb4:	0301                	addi	t1,t1,0
     bb6:	0900                	addi	s0,sp,144
     bb8:	0004                	0x4
     bba:	0301                	addi	t1,t1,0
     bbc:	0900                	addi	s0,sp,144
     bbe:	0000                	unimp
     bc0:	0301                	addi	t1,t1,0
     bc2:	0900                	addi	s0,sp,144
     bc4:	0000                	unimp
     bc6:	0001                	nop
     bc8:	0402                	c.slli64	s0
     bca:	0301                	addi	t1,t1,0
     bcc:	0900                	addi	s0,sp,144
     bce:	000c                	0xc
     bd0:	0001                	nop
     bd2:	0402                	c.slli64	s0
     bd4:	0301                	addi	t1,t1,0
     bd6:	0900                	addi	s0,sp,144
     bd8:	0000                	unimp
     bda:	0001                	nop
     bdc:	0402                	c.slli64	s0
     bde:	0301                	addi	t1,t1,0
     be0:	0900                	addi	s0,sp,144
     be2:	0000                	unimp
     be4:	0001                	nop
     be6:	0402                	c.slli64	s0
     be8:	0301                	addi	t1,t1,0
     bea:	0900                	addi	s0,sp,144
     bec:	0000                	unimp
     bee:	0001                	nop
     bf0:	0402                	c.slli64	s0
     bf2:	0301                	addi	t1,t1,0
     bf4:	0900                	addi	s0,sp,144
     bf6:	000c                	0xc
     bf8:	0001                	nop
     bfa:	0402                	c.slli64	s0
     bfc:	0301                	addi	t1,t1,0
     bfe:	0900                	addi	s0,sp,144
     c00:	0000                	unimp
     c02:	0001                	nop
     c04:	0402                	c.slli64	s0
     c06:	0301                	addi	t1,t1,0
     c08:	0900                	addi	s0,sp,144
     c0a:	0004                	0x4
     c0c:	0001                	nop
     c0e:	0402                	c.slli64	s0
     c10:	0301                	addi	t1,t1,0
     c12:	0900                	addi	s0,sp,144
     c14:	0000                	unimp
     c16:	0001                	nop
     c18:	0402                	c.slli64	s0
     c1a:	0900030f          	0x900030f
     c1e:	0000                	unimp
     c20:	0001                	nop
     c22:	0402                	c.slli64	s0
     c24:	0900030f          	0x900030f
     c28:	0000                	unimp
     c2a:	0001                	nop
     c2c:	0402                	c.slli64	s0
     c2e:	0308                	addi	a0,sp,384
     c30:	0900                	addi	s0,sp,144
     c32:	0004                	0x4
     c34:	0001                	nop
     c36:	0402                	c.slli64	s0
     c38:	0308                	addi	a0,sp,384
     c3a:	0900                	addi	s0,sp,144
     c3c:	0000                	unimp
     c3e:	0001                	nop
     c40:	0402                	c.slli64	s0
     c42:	0308                	addi	a0,sp,384
     c44:	0901                	addi	s2,s2,0
     c46:	0000                	unimp
     c48:	0001                	nop
     c4a:	0402                	c.slli64	s0
     c4c:	0308                	addi	a0,sp,384
     c4e:	0900                	addi	s0,sp,144
     c50:	0000                	unimp
     c52:	0001                	nop
     c54:	0402                	c.slli64	s0
     c56:	0308                	addi	a0,sp,384
     c58:	0900                	addi	s0,sp,144
     c5a:	0000                	unimp
     c5c:	0001                	nop
     c5e:	0402                	c.slli64	s0
     c60:	0308                	addi	a0,sp,384
     c62:	0900                	addi	s0,sp,144
     c64:	0000                	unimp
     c66:	0001                	nop
     c68:	0402                	c.slli64	s0
     c6a:	0308                	addi	a0,sp,384
     c6c:	0900                	addi	s0,sp,144
     c6e:	0000                	unimp
     c70:	0001                	nop
     c72:	0402                	c.slli64	s0
     c74:	0308                	addi	a0,sp,384
     c76:	0900                	addi	s0,sp,144
     c78:	0010                	0x10
     c7a:	0001                	nop
     c7c:	0402                	c.slli64	s0
     c7e:	0308                	addi	a0,sp,384
     c80:	0900                	addi	s0,sp,144
     c82:	0000                	unimp
     c84:	0001                	nop
     c86:	0402                	c.slli64	s0
     c88:	0308                	addi	a0,sp,384
     c8a:	0900                	addi	s0,sp,144
     c8c:	0004                	0x4
     c8e:	0001                	nop
     c90:	0402                	c.slli64	s0
     c92:	0308                	addi	a0,sp,384
     c94:	0900                	addi	s0,sp,144
     c96:	0000                	unimp
     c98:	0001                	nop
     c9a:	0402                	c.slli64	s0
     c9c:	0308                	addi	a0,sp,384
     c9e:	0900                	addi	s0,sp,144
     ca0:	0000                	unimp
     ca2:	0601                	addi	a2,a2,0
     ca4:	04090003          	lb	zero,64(s2)
     ca8:	0100                	addi	s0,sp,128
     caa:	0200                	addi	s0,sp,256
     cac:	0104                	addi	s1,sp,128
     cae:	0306                	slli	t1,t1,0x1
     cb0:	0900                	addi	s0,sp,144
     cb2:	0008                	0x8
     cb4:	0001                	nop
     cb6:	0402                	c.slli64	s0
     cb8:	0301                	addi	t1,t1,0
     cba:	0900                	addi	s0,sp,144
     cbc:	0000                	unimp
     cbe:	0001                	nop
     cc0:	0402                	c.slli64	s0
     cc2:	0301                	addi	t1,t1,0
     cc4:	0900                	addi	s0,sp,144
     cc6:	0000                	unimp
     cc8:	0001                	nop
     cca:	0402                	c.slli64	s0
     ccc:	0301                	addi	t1,t1,0
     cce:	0900                	addi	s0,sp,144
     cd0:	0000                	unimp
     cd2:	0001                	nop
     cd4:	0402                	c.slli64	s0
     cd6:	0301                	addi	t1,t1,0
     cd8:	0900                	addi	s0,sp,144
     cda:	000c                	0xc
     cdc:	0001                	nop
     cde:	0402                	c.slli64	s0
     ce0:	0301                	addi	t1,t1,0
     ce2:	0900                	addi	s0,sp,144
     ce4:	0000                	unimp
     ce6:	0001                	nop
     ce8:	0402                	c.slli64	s0
     cea:	0301                	addi	t1,t1,0
     cec:	0900                	addi	s0,sp,144
     cee:	0004                	0x4
     cf0:	0001                	nop
     cf2:	0402                	c.slli64	s0
     cf4:	0301                	addi	t1,t1,0
     cf6:	0900                	addi	s0,sp,144
     cf8:	0000                	unimp
     cfa:	0001                	nop
     cfc:	0402                	c.slli64	s0
     cfe:	0900030f          	0x900030f
     d02:	0000                	unimp
     d04:	0001                	nop
     d06:	0402                	c.slli64	s0
     d08:	0900030f          	0x900030f
     d0c:	0000                	unimp
     d0e:	0001                	nop
     d10:	0402                	c.slli64	s0
     d12:	0308                	addi	a0,sp,384
     d14:	0900                	addi	s0,sp,144
     d16:	0004                	0x4
     d18:	0001                	nop
     d1a:	0402                	c.slli64	s0
     d1c:	0308                	addi	a0,sp,384
     d1e:	0900                	addi	s0,sp,144
     d20:	0000                	unimp
     d22:	0001                	nop
     d24:	0402                	c.slli64	s0
     d26:	0308                	addi	a0,sp,384
     d28:	0901                	addi	s2,s2,0
     d2a:	0000                	unimp
     d2c:	0001                	nop
     d2e:	0402                	c.slli64	s0
     d30:	0308                	addi	a0,sp,384
     d32:	0900                	addi	s0,sp,144
     d34:	0000                	unimp
     d36:	0001                	nop
     d38:	0402                	c.slli64	s0
     d3a:	0308                	addi	a0,sp,384
     d3c:	0900                	addi	s0,sp,144
     d3e:	0018                	0x18
     d40:	0001                	nop
     d42:	0402                	c.slli64	s0
     d44:	0308                	addi	a0,sp,384
     d46:	0900                	addi	s0,sp,144
     d48:	0000                	unimp
     d4a:	0001                	nop
     d4c:	0402                	c.slli64	s0
     d4e:	0302                	c.slli64	t1
     d50:	097e                	slli	s2,s2,0x1f
     d52:	001c                	0x1c
     d54:	0001                	nop
     d56:	0402                	c.slli64	s0
     d58:	0900030f          	0x900030f
     d5c:	0004                	0x4
     d5e:	0001                	nop
     d60:	0402                	c.slli64	s0
     d62:	0900030f          	0x900030f
     d66:	0000                	unimp
     d68:	0001                	nop
     d6a:	0402                	c.slli64	s0
     d6c:	0900030f          	0x900030f
     d70:	0000                	unimp
     d72:	0001                	nop
     d74:	0402                	c.slli64	s0
     d76:	0900030f          	0x900030f
     d7a:	0000                	unimp
     d7c:	0001                	nop
     d7e:	0402                	c.slli64	s0
     d80:	0900030f          	0x900030f
     d84:	0000                	unimp
     d86:	0001                	nop
     d88:	0402                	c.slli64	s0
     d8a:	0900030f          	0x900030f
     d8e:	0000                	unimp
     d90:	0001                	nop
     d92:	0402                	c.slli64	s0
     d94:	0900030f          	0x900030f
     d98:	0008                	0x8
     d9a:	0001                	nop
     d9c:	0402                	c.slli64	s0
     d9e:	0900030f          	0x900030f
     da2:	0000                	unimp
     da4:	0001                	nop
     da6:	0402                	c.slli64	s0
     da8:	0900030f          	0x900030f
     dac:	0000                	unimp
     dae:	0001                	nop
     db0:	0402                	c.slli64	s0
     db2:	0900030f          	0x900030f
     db6:	0000                	unimp
     db8:	0001                	nop
     dba:	0402                	c.slli64	s0
     dbc:	0900030f          	0x900030f
     dc0:	0000                	unimp
     dc2:	0001                	nop
     dc4:	0402                	c.slli64	s0
     dc6:	0900030f          	0x900030f
     dca:	000c                	0xc
     dcc:	0001                	nop
     dce:	0402                	c.slli64	s0
     dd0:	0900030f          	0x900030f
     dd4:	0000                	unimp
     dd6:	0001                	nop
     dd8:	0402                	c.slli64	s0
     dda:	09000303          	lb	t1,144(zero) # 90 <_start-0x7fffff70>
     dde:	0008                	0x8
     de0:	0601                	addi	a2,a2,0
     de2:	0c090003          	lb	zero,192(s2)
     de6:	0100                	addi	s0,sp,128
     de8:	0200                	addi	s0,sp,256
     dea:	0204                	addi	s1,sp,256
     dec:	0306                	slli	t1,t1,0x1
     dee:	0901                	addi	s2,s2,0
     df0:	0014                	0x14
     df2:	0001                	nop
     df4:	0402                	c.slli64	s0
     df6:	0900030f          	0x900030f
     dfa:	0004                	0x4
     dfc:	0001                	nop
     dfe:	0402                	c.slli64	s0
     e00:	0900030f          	0x900030f
     e04:	0000                	unimp
     e06:	0001                	nop
     e08:	0402                	c.slli64	s0
     e0a:	0900030f          	0x900030f
     e0e:	0000                	unimp
     e10:	0001                	nop
     e12:	0402                	c.slli64	s0
     e14:	0900030f          	0x900030f
     e18:	0000                	unimp
     e1a:	0001                	nop
     e1c:	0402                	c.slli64	s0
     e1e:	0900030f          	0x900030f
     e22:	0000                	unimp
     e24:	0001                	nop
     e26:	0402                	c.slli64	s0
     e28:	0900030f          	0x900030f
     e2c:	0000                	unimp
     e2e:	0001                	nop
     e30:	0402                	c.slli64	s0
     e32:	0900030f          	0x900030f
     e36:	0008                	0x8
     e38:	0001                	nop
     e3a:	0402                	c.slli64	s0
     e3c:	0900030f          	0x900030f
     e40:	0000                	unimp
     e42:	0001                	nop
     e44:	0402                	c.slli64	s0
     e46:	0900030f          	0x900030f
     e4a:	0000                	unimp
     e4c:	0001                	nop
     e4e:	0402                	c.slli64	s0
     e50:	0900030f          	0x900030f
     e54:	0000                	unimp
     e56:	0001                	nop
     e58:	0402                	c.slli64	s0
     e5a:	0900030f          	0x900030f
     e5e:	0000                	unimp
     e60:	0001                	nop
     e62:	0402                	c.slli64	s0
     e64:	0900030f          	0x900030f
     e68:	0008                	0x8
     e6a:	0001                	nop
     e6c:	0402                	c.slli64	s0
     e6e:	0900030f          	0x900030f
     e72:	0000                	unimp
     e74:	0001                	nop
     e76:	0402                	c.slli64	s0
     e78:	09000303          	lb	t1,144(zero) # 90 <_start-0x7fffff70>
     e7c:	000c                	0xc
     e7e:	0601                	addi	a2,a2,0
     e80:	0c090003          	lb	zero,192(s2)
     e84:	0100                	addi	s0,sp,128
     e86:	0200                	addi	s0,sp,256
     e88:	0204                	addi	s1,sp,256
     e8a:	0306                	slli	t1,t1,0x1
     e8c:	0901                	addi	s2,s2,0
     e8e:	0014                	0x14
     e90:	0001                	nop
     e92:	0402                	c.slli64	s0
     e94:	0302                	c.slli64	t1
     e96:	0900                	addi	s0,sp,144
     e98:	0000                	unimp
     e9a:	0001                	nop
     e9c:	0402                	c.slli64	s0
     e9e:	0302                	c.slli64	t1
     ea0:	0900                	addi	s0,sp,144
     ea2:	0000                	unimp
     ea4:	0001                	nop
     ea6:	0402                	c.slli64	s0
     ea8:	0302                	c.slli64	t1
     eaa:	0900                	addi	s0,sp,144
     eac:	0000                	unimp
     eae:	0001                	nop
     eb0:	0402                	c.slli64	s0
     eb2:	0302                	c.slli64	t1
     eb4:	0900                	addi	s0,sp,144
     eb6:	0000                	unimp
     eb8:	0001                	nop
     eba:	0402                	c.slli64	s0
     ebc:	0302                	c.slli64	t1
     ebe:	0900                	addi	s0,sp,144
     ec0:	0000                	unimp
     ec2:	0001                	nop
     ec4:	0402                	c.slli64	s0
     ec6:	0302                	c.slli64	t1
     ec8:	0900                	addi	s0,sp,144
     eca:	0000                	unimp
     ecc:	0001                	nop
     ece:	0402                	c.slli64	s0
     ed0:	0302                	c.slli64	t1
     ed2:	0900                	addi	s0,sp,144
     ed4:	0000                	unimp
     ed6:	0001                	nop
     ed8:	0402                	c.slli64	s0
     eda:	0302                	c.slli64	t1
     edc:	0900                	addi	s0,sp,144
     ede:	0004                	0x4
     ee0:	0001                	nop
     ee2:	0402                	c.slli64	s0
     ee4:	030a                	slli	t1,t1,0x2
     ee6:	0900                	addi	s0,sp,144
     ee8:	0004                	0x4
     eea:	0001                	nop
     eec:	0402                	c.slli64	s0
     eee:	030a                	slli	t1,t1,0x2
     ef0:	0900                	addi	s0,sp,144
     ef2:	0004                	0x4
     ef4:	0001                	nop
     ef6:	0402                	c.slli64	s0
     ef8:	030a                	slli	t1,t1,0x2
     efa:	0900                	addi	s0,sp,144
     efc:	0000                	unimp
     efe:	0001                	nop
     f00:	0402                	c.slli64	s0
     f02:	030d                	addi	t1,t1,3
     f04:	0900                	addi	s0,sp,144
     f06:	0004                	0x4
     f08:	0001                	nop
     f0a:	0402                	c.slli64	s0
     f0c:	030d                	addi	t1,t1,3
     f0e:	0900                	addi	s0,sp,144
     f10:	0000                	unimp
     f12:	0001                	nop
     f14:	0402                	c.slli64	s0
     f16:	030d                	addi	t1,t1,3
     f18:	0900                	addi	s0,sp,144
     f1a:	0000                	unimp
     f1c:	0001                	nop
     f1e:	0402                	c.slli64	s0
     f20:	030d                	addi	t1,t1,3
     f22:	0900                	addi	s0,sp,144
     f24:	0000                	unimp
     f26:	0001                	nop
     f28:	0402                	c.slli64	s0
     f2a:	030d                	addi	t1,t1,3
     f2c:	0900                	addi	s0,sp,144
     f2e:	0004                	0x4
     f30:	0001                	nop
     f32:	0402                	c.slli64	s0
     f34:	030d                	addi	t1,t1,3
     f36:	0900                	addi	s0,sp,144
     f38:	0010                	0x10
     f3a:	0001                	nop
     f3c:	0402                	c.slli64	s0
     f3e:	030d                	addi	t1,t1,3
     f40:	0900                	addi	s0,sp,144
     f42:	0000                	unimp
     f44:	0001                	nop
     f46:	0402                	c.slli64	s0
     f48:	030d                	addi	t1,t1,3
     f4a:	0900                	addi	s0,sp,144
     f4c:	0000                	unimp
     f4e:	0001                	nop
     f50:	0402                	c.slli64	s0
     f52:	030d                	addi	t1,t1,3
     f54:	0900                	addi	s0,sp,144
     f56:	0010                	0x10
     f58:	0001                	nop
     f5a:	0402                	c.slli64	s0
     f5c:	030d                	addi	t1,t1,3
     f5e:	0900                	addi	s0,sp,144
     f60:	0008                	0x8
     f62:	0001                	nop
     f64:	0402                	c.slli64	s0
     f66:	030e                	slli	t1,t1,0x3
     f68:	0900                	addi	s0,sp,144
     f6a:	0004                	0x4
     f6c:	0001                	nop
     f6e:	0402                	c.slli64	s0
     f70:	030e                	slli	t1,t1,0x3
     f72:	0900                	addi	s0,sp,144
     f74:	0008                	0x8
     f76:	0001                	nop
     f78:	0402                	c.slli64	s0
     f7a:	0310                	addi	a2,sp,384
     f7c:	0900                	addi	s0,sp,144
     f7e:	0004                	0x4
     f80:	0001                	nop
     f82:	0402                	c.slli64	s0
     f84:	0312                	slli	t1,t1,0x4
     f86:	0900                	addi	s0,sp,144
     f88:	0004                	0x4
     f8a:	0001                	nop
     f8c:	0402                	c.slli64	s0
     f8e:	0314                	addi	a3,sp,384
     f90:	0900                	addi	s0,sp,144
     f92:	0008                	0x8
     f94:	0001                	nop
     f96:	0402                	c.slli64	s0
     f98:	0314                	addi	a3,sp,384
     f9a:	0900                	addi	s0,sp,144
     f9c:	0004                	0x4
     f9e:	0001                	nop
     fa0:	0402                	c.slli64	s0
     fa2:	0314                	addi	a3,sp,384
     fa4:	0900                	addi	s0,sp,144
     fa6:	0000                	unimp
     fa8:	0001                	nop
     faa:	0402                	c.slli64	s0
     fac:	0314                	addi	a3,sp,384
     fae:	0900                	addi	s0,sp,144
     fb0:	0004                	0x4
     fb2:	0001                	nop
     fb4:	0402                	c.slli64	s0
     fb6:	0314                	addi	a3,sp,384
     fb8:	0900                	addi	s0,sp,144
     fba:	0008                	0x8
     fbc:	0001                	nop
     fbe:	0402                	c.slli64	s0
     fc0:	0314                	addi	a3,sp,384
     fc2:	0900                	addi	s0,sp,144
     fc4:	0004                	0x4
     fc6:	0001                	nop
     fc8:	0402                	c.slli64	s0
     fca:	0315                	addi	t1,t1,5
     fcc:	0900                	addi	s0,sp,144
     fce:	0008                	0x8
     fd0:	0001                	nop
     fd2:	0402                	c.slli64	s0
     fd4:	0315                	addi	t1,t1,5
     fd6:	0900                	addi	s0,sp,144
     fd8:	0008                	0x8
     fda:	0001                	nop
     fdc:	0402                	c.slli64	s0
     fde:	09000317          	auipc	t1,0x9000
     fe2:	0004                	0x4
     fe4:	0001                	nop
     fe6:	0402                	c.slli64	s0
     fe8:	0319                	addi	t1,t1,6
     fea:	0900                	addi	s0,sp,144
     fec:	0004                	0x4
     fee:	0001                	nop
     ff0:	0402                	c.slli64	s0
     ff2:	0900031b          	0x900031b
     ff6:	0008                	0x8
     ff8:	0001                	nop
     ffa:	0402                	c.slli64	s0
     ffc:	0900031b          	0x900031b
    1000:	0000                	unimp
    1002:	0001                	nop
    1004:	0402                	c.slli64	s0
    1006:	0900031b          	0x900031b
    100a:	0000                	unimp
    100c:	0001                	nop
    100e:	0402                	c.slli64	s0
    1010:	0900031b          	0x900031b
    1014:	0000                	unimp
    1016:	0001                	nop
    1018:	0402                	c.slli64	s0
    101a:	0900031b          	0x900031b
    101e:	0000                	unimp
    1020:	0001                	nop
    1022:	0402                	c.slli64	s0
    1024:	0900031b          	0x900031b
    1028:	0014                	0x14
    102a:	0001                	nop
    102c:	0402                	c.slli64	s0
    102e:	0900031b          	0x900031b
    1032:	0000                	unimp
    1034:	0001                	nop
    1036:	0402                	c.slli64	s0
    1038:	0900031b          	0x900031b
    103c:	0000                	unimp
    103e:	0001                	nop
    1040:	0402                	c.slli64	s0
    1042:	0901031b          	0x901031b
    1046:	0000                	unimp
    1048:	0001                	nop
    104a:	0402                	c.slli64	s0
    104c:	0900031b          	0x900031b
    1050:	0000                	unimp
    1052:	0001                	nop
    1054:	0402                	c.slli64	s0
    1056:	0900031b          	0x900031b
    105a:	0000                	unimp
    105c:	0001                	nop
    105e:	0402                	c.slli64	s0
    1060:	0302                	c.slli64	t1
    1062:	0900                	addi	s0,sp,144
    1064:	0000                	unimp
    1066:	0001                	nop
    1068:	0402                	c.slli64	s0
    106a:	0302                	c.slli64	t1
    106c:	0900                	addi	s0,sp,144
    106e:	0004                	0x4
    1070:	0001                	nop
    1072:	0402                	c.slli64	s0
    1074:	0306                	slli	t1,t1,0x1
    1076:	0900                	addi	s0,sp,144
    1078:	0004                	0x4
    107a:	0001                	nop
    107c:	0402                	c.slli64	s0
    107e:	0306                	slli	t1,t1,0x1
    1080:	0900                	addi	s0,sp,144
    1082:	0000                	unimp
    1084:	0001                	nop
    1086:	0402                	c.slli64	s0
    1088:	0308                	addi	a0,sp,384
    108a:	0900                	addi	s0,sp,144
    108c:	0008                	0x8
    108e:	0001                	nop
    1090:	0402                	c.slli64	s0
    1092:	0308                	addi	a0,sp,384
    1094:	0900                	addi	s0,sp,144
    1096:	0000                	unimp
    1098:	0001                	nop
    109a:	0402                	c.slli64	s0
    109c:	0308                	addi	a0,sp,384
    109e:	0900                	addi	s0,sp,144
    10a0:	0000                	unimp
    10a2:	0001                	nop
    10a4:	0402                	c.slli64	s0
    10a6:	0308                	addi	a0,sp,384
    10a8:	0900                	addi	s0,sp,144
    10aa:	0000                	unimp
    10ac:	0001                	nop
    10ae:	0402                	c.slli64	s0
    10b0:	030a                	slli	t1,t1,0x2
    10b2:	0900                	addi	s0,sp,144
    10b4:	000c                	0xc
    10b6:	0001                	nop
    10b8:	0402                	c.slli64	s0
    10ba:	0309                	addi	t1,t1,2
    10bc:	0900                	addi	s0,sp,144
    10be:	0004                	0x4
    10c0:	0001                	nop
    10c2:	0402                	c.slli64	s0
    10c4:	0309                	addi	t1,t1,2
    10c6:	0900                	addi	s0,sp,144
    10c8:	0000                	unimp
    10ca:	0001                	nop
    10cc:	0402                	c.slli64	s0
    10ce:	0318                	addi	a4,sp,384
    10d0:	0900                	addi	s0,sp,144
    10d2:	0008                	0x8
    10d4:	0001                	nop
    10d6:	0402                	c.slli64	s0
    10d8:	0318                	addi	a4,sp,384
    10da:	0900                	addi	s0,sp,144
    10dc:	000c                	0xc
    10de:	0001                	nop
    10e0:	0402                	c.slli64	s0
    10e2:	031a                	slli	t1,t1,0x6
    10e4:	0900                	addi	s0,sp,144
    10e6:	0004                	0x4
    10e8:	0001                	nop
    10ea:	0402                	c.slli64	s0
    10ec:	031a                	slli	t1,t1,0x6
    10ee:	0900                	addi	s0,sp,144
    10f0:	0000                	unimp
    10f2:	0001                	nop
    10f4:	0402                	c.slli64	s0
    10f6:	0900036f          	jal	t1,1186 <_start-0x7fffee7a>
    10fa:	000c                	0xc
    10fc:	0001                	nop
    10fe:	0402                	c.slli64	s0
    1100:	0900036f          	jal	t1,1190 <_start-0x7fffee70>
    1104:	0000                	unimp
    1106:	0001                	nop
    1108:	0402                	c.slli64	s0
    110a:	0900036f          	jal	t1,119a <_start-0x7fffee66>
    110e:	0000                	unimp
    1110:	0001                	nop
    1112:	0402                	c.slli64	s0
    1114:	0900036f          	jal	t1,11a4 <_start-0x7fffee5c>
    1118:	0000                	unimp
    111a:	0001                	nop
    111c:	0402                	c.slli64	s0
    111e:	0900036f          	jal	t1,11ae <_start-0x7fffee52>
    1122:	0000                	unimp
    1124:	0001                	nop
    1126:	0402                	c.slli64	s0
    1128:	0900036f          	jal	t1,11b8 <_start-0x7fffee48>
    112c:	0000                	unimp
    112e:	0001                	nop
    1130:	0402                	c.slli64	s0
    1132:	0900036f          	jal	t1,11c2 <_start-0x7fffee3e>
    1136:	001c                	0x1c
    1138:	0001                	nop
    113a:	0402                	c.slli64	s0
    113c:	0900036f          	jal	t1,11cc <_start-0x7fffee34>
    1140:	0000                	unimp
    1142:	0001                	nop
    1144:	0402                	c.slli64	s0
    1146:	0900036f          	jal	t1,11d6 <_start-0x7fffee2a>
    114a:	0000                	unimp
    114c:	0001                	nop
    114e:	0402                	c.slli64	s0
    1150:	0901036f          	jal	t1,111e0 <_start-0x7ffeee20>
    1154:	0000                	unimp
    1156:	0001                	nop
    1158:	0402                	c.slli64	s0
    115a:	0900036f          	jal	t1,11ea <_start-0x7fffee16>
    115e:	0000                	unimp
    1160:	0001                	nop
    1162:	0402                	c.slli64	s0
    1164:	0900036f          	jal	t1,11f4 <_start-0x7fffee0c>
    1168:	0000                	unimp
    116a:	0001                	nop
    116c:	0402                	c.slli64	s0
    116e:	0902036f          	jal	t1,211fe <_start-0x7ffdee02>
    1172:	0000                	unimp
    1174:	0501                	addi	a0,a0,0
    1176:	0001                	nop
    1178:	0402                	c.slli64	s0
    117a:	0103066f          	jal	a2,3118a <_start-0x7ffcee76>
    117e:	0009                	c.nop	2
    1180:	0100                	addi	s0,sp,128
    1182:	0305                	addi	t1,t1,1
    1184:	0200                	addi	s0,sp,256
    1186:	0b04                	addi	s1,sp,400
    1188:	0306                	slli	t1,t1,0x1
    118a:	0028097b          	0x28097b
    118e:	0001                	nop
    1190:	0402                	c.slli64	s0
    1192:	0900030b          	0x900030b
    1196:	0004                	0x4
    1198:	0001                	nop
    119a:	0402                	c.slli64	s0
    119c:	0608                	addi	a0,sp,768
    119e:	08097e03          	0x8097e03
    11a2:	0100                	addi	s0,sp,128
    11a4:	0200                	addi	s0,sp,256
    11a6:	0804                	addi	s1,sp,16
    11a8:	0306                	slli	t1,t1,0x1
    11aa:	0902                	c.slli64	s2
    11ac:	0004                	0x4
    11ae:	0001                	nop
    11b0:	0402                	c.slli64	s0
    11b2:	0308                	addi	a0,sp,384
    11b4:	0900                	addi	s0,sp,144
    11b6:	0000                	unimp
    11b8:	0001                	nop
    11ba:	0402                	c.slli64	s0
    11bc:	0308                	addi	a0,sp,384
    11be:	0900                	addi	s0,sp,144
    11c0:	0000                	unimp
    11c2:	0001                	nop
    11c4:	0402                	c.slli64	s0
    11c6:	0308                	addi	a0,sp,384
    11c8:	0900                	addi	s0,sp,144
    11ca:	0000                	unimp
    11cc:	0001                	nop
    11ce:	0402                	c.slli64	s0
    11d0:	09000323          	sb	a6,134(zero) # 86 <_start-0x7fffff7a>
    11d4:	0008                	0x8
    11d6:	0001                	nop
    11d8:	0402                	c.slli64	s0
    11da:	09010323          	sb	a6,134(sp)
    11de:	0000                	unimp
    11e0:	0001                	nop
    11e2:	0402                	c.slli64	s0
    11e4:	09000323          	sb	a6,134(zero) # 86 <_start-0x7fffff7a>
    11e8:	0000                	unimp
    11ea:	0001                	nop
    11ec:	0402                	c.slli64	s0
    11ee:	09000323          	sb	a6,134(zero) # 86 <_start-0x7fffff7a>
    11f2:	0000                	unimp
    11f4:	0601                	addi	a2,a2,0
    11f6:	08090003          	lb	zero,128(s2)
    11fa:	0100                	addi	s0,sp,128
    11fc:	0200                	addi	s0,sp,256
    11fe:	0504                	addi	s1,sp,640
    1200:	1c097e03          	0x1c097e03
    1204:	0100                	addi	s0,sp,128
    1206:	0200                	addi	s0,sp,256
    1208:	0504                	addi	s1,sp,640
    120a:	0306                	slli	t1,t1,0x1
    120c:	0901                	addi	s2,s2,0
    120e:	0004                	0x4
    1210:	0001                	nop
    1212:	0402                	c.slli64	s0
    1214:	0305                	addi	t1,t1,1
    1216:	0900                	addi	s0,sp,144
    1218:	0000                	unimp
    121a:	0001                	nop
    121c:	0402                	c.slli64	s0
    121e:	0305                	addi	t1,t1,1
    1220:	0900                	addi	s0,sp,144
    1222:	0000                	unimp
    1224:	0001                	nop
    1226:	0402                	c.slli64	s0
    1228:	0305                	addi	t1,t1,1
    122a:	0900                	addi	s0,sp,144
    122c:	0000                	unimp
    122e:	0601                	addi	a2,a2,0
    1230:	04090003          	lb	zero,64(s2)
    1234:	0100                	addi	s0,sp,128
    1236:	0200                	addi	s0,sp,256
    1238:	3b04                	fld	fs1,48(a4)
    123a:	0306                	slli	t1,t1,0x1
    123c:	0901                	addi	s2,s2,0
    123e:	0010                	0x10
    1240:	0001                	nop
    1242:	0402                	c.slli64	s0
    1244:	0900033b          	0x900033b
    1248:	0000                	unimp
    124a:	0001                	nop
    124c:	0402                	c.slli64	s0
    124e:	0900033b          	0x900033b
    1252:	0000                	unimp
    1254:	0001                	nop
    1256:	0402                	c.slli64	s0
    1258:	0900033b          	0x900033b
    125c:	0008                	0x8
    125e:	0001                	nop
    1260:	0402                	c.slli64	s0
    1262:	033c                	addi	a5,sp,392
    1264:	0900                	addi	s0,sp,144
    1266:	0008                	0x8
    1268:	0001                	nop
    126a:	0402                	c.slli64	s0
    126c:	033c                	addi	a5,sp,392
    126e:	0900                	addi	s0,sp,144
    1270:	0014                	0x14
    1272:	0001                	nop
    1274:	0402                	c.slli64	s0
    1276:	033c                	addi	a5,sp,392
    1278:	0900                	addi	s0,sp,144
    127a:	0000                	unimp
    127c:	0001                	nop
    127e:	0402                	c.slli64	s0
    1280:	0344                	addi	s1,sp,388
    1282:	0900                	addi	s0,sp,144
    1284:	0008                	0x8
    1286:	0001                	nop
    1288:	0402                	c.slli64	s0
    128a:	0344                	addi	s1,sp,388
    128c:	0900                	addi	s0,sp,144
    128e:	0000                	unimp
    1290:	0001                	nop
    1292:	0402                	c.slli64	s0
    1294:	0344                	addi	s1,sp,388
    1296:	0900                	addi	s0,sp,144
    1298:	0000                	unimp
    129a:	0001                	nop
    129c:	0402                	c.slli64	s0
    129e:	0344                	addi	s1,sp,388
    12a0:	0900                	addi	s0,sp,144
    12a2:	0000                	unimp
    12a4:	0001                	nop
    12a6:	0402                	c.slli64	s0
    12a8:	0346                	slli	t1,t1,0x11
    12aa:	0900                	addi	s0,sp,144
    12ac:	000c                	0xc
    12ae:	0001                	nop
    12b0:	0402                	c.slli64	s0
    12b2:	0345                	addi	t1,t1,17
    12b4:	0900                	addi	s0,sp,144
    12b6:	0004                	0x4
    12b8:	0001                	nop
    12ba:	0402                	c.slli64	s0
    12bc:	0345                	addi	t1,t1,17
    12be:	0900                	addi	s0,sp,144
    12c0:	0000                	unimp
    12c2:	0601                	addi	a2,a2,0
    12c4:	0c090003          	lb	zero,192(s2)
    12c8:	0100                	addi	s0,sp,128
    12ca:	2809                	jal	12dc <_start-0x7fffed24>
    12cc:	0000                	unimp
    12ce:	0101                	addi	sp,sp,0
    12d0:	0000031b          	0x31b
    12d4:	00a50003          	lb	zero,10(a0) # 9d546 <_start-0x7ff62aba>
    12d8:	0000                	unimp
    12da:	0101                	addi	sp,sp,0
    12dc:	000d0efb          	0xd0efb
    12e0:	0101                	addi	sp,sp,0
    12e2:	0101                	addi	sp,sp,0
    12e4:	0000                	unimp
    12e6:	0100                	addi	s0,sp,128
    12e8:	0000                	unimp
    12ea:	2e01                	jal	15fa <_start-0x7fffea06>
    12ec:	2f2e                	fld	ft10,200(sp)
    12ee:	2e2e                	fld	ft8,200(sp)
    12f0:	2f2e2e2f          	0x2f2e2e2f
    12f4:	2e2e                	fld	ft8,200(sp)
    12f6:	7369722f          	0x7369722f
    12fa:	672d7663          	bgeu	s10,s2,1966 <_start-0x7fffe69a>
    12fe:	6c2f6363          	bltu	t5,sp,19c4 <_start-0x7fffe63c>
    1302:	6269                	lui	tp,0x1a
    1304:	2f636367          	0x2f636367
    1308:	74666f73          	csrrsi	t5,0x746,12
    130c:	662d                	lui	a2,0xb
    130e:	0070                	addi	a2,sp,12
    1310:	002e                	c.slli	zero,0xb
    1312:	2e2e                	fld	ft8,200(sp)
    1314:	2f2e2e2f          	0x2f2e2e2f
    1318:	2e2e                	fld	ft8,200(sp)
    131a:	2f2e2e2f          	0x2f2e2e2f
    131e:	6972                	flw	fs2,28(sp)
    1320:	2d766373          	csrrsi	t1,0x2d7,12
    1324:	2f636367          	0x2f636367
    1328:	696c                	flw	fa1,84(a0)
    132a:	6762                	flw	fa4,24(sp)
    132c:	2e2f6363          	bltu	t5,sp,1612 <_start-0x7fffe9ee>
    1330:	2f2e                	fld	ft10,200(sp)
    1332:	6e69                	lui	t3,0x1a
    1334:	64756c63          	bltu	a0,t2,198c <_start-0x7fffe674>
    1338:	0065                	c.nop	25
    133a:	6c00                	flw	fs0,24(s0)
    133c:	7365                	lui	t1,0xffff9
    133e:	3266                	fld	ft4,120(sp)
    1340:	632e                	flw	ft6,200(sp)
    1342:	0100                	addi	s0,sp,128
    1344:	0000                	unimp
    1346:	2d706673          	csrrsi	a2,0x2d7,0
    134a:	616d                	addi	sp,sp,240
    134c:	6e696863          	bltu	s2,t1,1a3c <_start-0x7fffe5c4>
    1350:	2e65                	jal	1708 <_start-0x7fffe8f8>
    1352:	0068                	addi	a0,sp,12
    1354:	0002                	c.slli64	zero
    1356:	7300                	flw	fs0,32(a4)
    1358:	2d74666f          	jal	a2,47e2e <_start-0x7ffb81d2>
    135c:	7066                	flw	ft0,120(sp)
    135e:	682e                	flw	fa6,200(sp)
    1360:	0100                	addi	s0,sp,128
    1362:	0000                	unimp
    1364:	676e6973          	csrrsi	s2,0x676,28
    1368:	656c                	flw	fa1,76(a0)
    136a:	682e                	flw	fa6,200(sp)
    136c:	0100                	addi	s0,sp,128
    136e:	0000                	unimp
    1370:	6f6c                	flw	fa1,92(a4)
    1372:	676e                	flw	fa4,216(sp)
    1374:	6f6c                	flw	fa1,92(a4)
    1376:	676e                	flw	fa4,216(sp)
    1378:	682e                	flw	fa6,200(sp)
    137a:	0300                	addi	s0,sp,384
    137c:	0000                	unimp
    137e:	0500                	addi	s0,sp,640
    1380:	0001                	nop
    1382:	0205                	addi	tp,tp,1
    1384:	1640                	addi	s0,sp,804
    1386:	8000                	0x8000
    1388:	05012303          	lw	t1,80(sp)
    138c:	09010303          	lb	t1,144(sp)
    1390:	0000                	unimp
    1392:	0301                	addi	t1,t1,0
    1394:	0900                	addi	s0,sp,144
    1396:	0000                	unimp
    1398:	0501                	addi	a0,a0,0
    139a:	030d                	addi	t1,t1,3
    139c:	0900                	addi	s0,sp,144
    139e:	0000                	unimp
    13a0:	0501                	addi	a0,a0,0
    13a2:	09010303          	lb	t1,144(sp)
    13a6:	0000                	unimp
    13a8:	0301                	addi	t1,t1,0
    13aa:	0900                	addi	s0,sp,144
    13ac:	0000                	unimp
    13ae:	0301                	addi	t1,t1,0
    13b0:	0900                	addi	s0,sp,144
    13b2:	0000                	unimp
    13b4:	0301                	addi	t1,t1,0
    13b6:	0900                	addi	s0,sp,144
    13b8:	0000                	unimp
    13ba:	0301                	addi	t1,t1,0
    13bc:	0901                	addi	s2,s2,0
    13be:	0000                	unimp
    13c0:	0301                	addi	t1,t1,0
    13c2:	0900                	addi	s0,sp,144
    13c4:	0000                	unimp
    13c6:	0301                	addi	t1,t1,0
    13c8:	0900                	addi	s0,sp,144
    13ca:	0000                	unimp
    13cc:	0301                	addi	t1,t1,0
    13ce:	0900                	addi	s0,sp,144
    13d0:	0000                	unimp
    13d2:	0301                	addi	t1,t1,0
    13d4:	0901                	addi	s2,s2,0
    13d6:	0000                	unimp
    13d8:	0301                	addi	t1,t1,0
    13da:	0902                	c.slli64	s2
    13dc:	0000                	unimp
    13de:	0301                	addi	t1,t1,0
    13e0:	0901                	addi	s2,s2,0
    13e2:	0000                	unimp
    13e4:	0301                	addi	t1,t1,0
    13e6:	0900                	addi	s0,sp,144
    13e8:	0000                	unimp
    13ea:	0301                	addi	t1,t1,0
    13ec:	0900                	addi	s0,sp,144
    13ee:	0000                	unimp
    13f0:	0301                	addi	t1,t1,0
    13f2:	0900                	addi	s0,sp,144
    13f4:	0000                	unimp
    13f6:	0601                	addi	a2,a2,0
    13f8:	14090203          	lb	tp,320(s2)
    13fc:	0100                	addi	s0,sp,128
    13fe:	04097e03          	0x4097e03
    1402:	0100                	addi	s0,sp,128
    1404:	0306                	slli	t1,t1,0x1
    1406:	0900                	addi	s0,sp,144
    1408:	0004                	0x4
    140a:	0301                	addi	t1,t1,0
    140c:	0900                	addi	s0,sp,144
    140e:	0000                	unimp
    1410:	0601                	addi	a2,a2,0
    1412:	04090103          	lb	sp,64(s2)
    1416:	0100                	addi	s0,sp,128
    1418:	04097f03          	0x4097f03
    141c:	0100                	addi	s0,sp,128
    141e:	0306                	slli	t1,t1,0x1
    1420:	0900                	addi	s0,sp,144
    1422:	0004                	0x4
    1424:	0301                	addi	t1,t1,0
    1426:	0901                	addi	s2,s2,0
    1428:	0000                	unimp
    142a:	0301                	addi	t1,t1,0
    142c:	0900                	addi	s0,sp,144
    142e:	0000                	unimp
    1430:	0301                	addi	t1,t1,0
    1432:	0900                	addi	s0,sp,144
    1434:	0000                	unimp
    1436:	0301                	addi	t1,t1,0
    1438:	0900                	addi	s0,sp,144
    143a:	0000                	unimp
    143c:	0301                	addi	t1,t1,0
    143e:	0900                	addi	s0,sp,144
    1440:	0000                	unimp
    1442:	0301                	addi	t1,t1,0
    1444:	0900                	addi	s0,sp,144
    1446:	0000                	unimp
    1448:	0301                	addi	t1,t1,0
    144a:	0900                	addi	s0,sp,144
    144c:	0004                	0x4
    144e:	0301                	addi	t1,t1,0
    1450:	0901                	addi	s2,s2,0
    1452:	0000                	unimp
    1454:	0301                	addi	t1,t1,0
    1456:	0900                	addi	s0,sp,144
    1458:	0000                	unimp
    145a:	0301                	addi	t1,t1,0
    145c:	0900                	addi	s0,sp,144
    145e:	0000                	unimp
    1460:	0301                	addi	t1,t1,0
    1462:	0900                	addi	s0,sp,144
    1464:	0000                	unimp
    1466:	0301                	addi	t1,t1,0
    1468:	0900                	addi	s0,sp,144
    146a:	0000                	unimp
    146c:	0001                	nop
    146e:	0402                	c.slli64	s0
    1470:	0614                	addi	a3,sp,768
    1472:	04090003          	lb	zero,64(s2)
    1476:	0100                	addi	s0,sp,128
    1478:	04090003          	lb	zero,64(s2)
    147c:	0100                	addi	s0,sp,128
    147e:	0200                	addi	s0,sp,256
    1480:	1704                	addi	s1,sp,928
    1482:	08090003          	lb	zero,128(s2)
    1486:	0100                	addi	s0,sp,128
    1488:	0200                	addi	s0,sp,256
    148a:	1804                	addi	s1,sp,48
    148c:	04090003          	lb	zero,64(s2)
    1490:	0100                	addi	s0,sp,128
    1492:	0200                	addi	s0,sp,256
    1494:	3e04                	fld	fs1,56(a2)
    1496:	0306                	slli	t1,t1,0x1
    1498:	0900                	addi	s0,sp,144
    149a:	0004                	0x4
    149c:	0001                	nop
    149e:	0402                	c.slli64	s0
    14a0:	033e                	slli	t1,t1,0xf
    14a2:	0900                	addi	s0,sp,144
    14a4:	0000                	unimp
    14a6:	0001                	nop
    14a8:	0402                	c.slli64	s0
    14aa:	033e                	slli	t1,t1,0xf
    14ac:	0900                	addi	s0,sp,144
    14ae:	0000                	unimp
    14b0:	0001                	nop
    14b2:	0402                	c.slli64	s0
    14b4:	033e                	slli	t1,t1,0xf
    14b6:	0900                	addi	s0,sp,144
    14b8:	0000                	unimp
    14ba:	0001                	nop
    14bc:	0402                	c.slli64	s0
    14be:	033e                	slli	t1,t1,0xf
    14c0:	0900                	addi	s0,sp,144
    14c2:	0000                	unimp
    14c4:	0001                	nop
    14c6:	0402                	c.slli64	s0
    14c8:	033e                	slli	t1,t1,0xf
    14ca:	0900                	addi	s0,sp,144
    14cc:	0000                	unimp
    14ce:	0001                	nop
    14d0:	0402                	c.slli64	s0
    14d2:	033e                	slli	t1,t1,0xf
    14d4:	0900                	addi	s0,sp,144
    14d6:	0000                	unimp
    14d8:	0001                	nop
    14da:	0402                	c.slli64	s0
    14dc:	033e                	slli	t1,t1,0xf
    14de:	0900                	addi	s0,sp,144
    14e0:	0000                	unimp
    14e2:	0001                	nop
    14e4:	0402                	c.slli64	s0
    14e6:	033e                	slli	t1,t1,0xf
    14e8:	0900                	addi	s0,sp,144
    14ea:	0000                	unimp
    14ec:	0001                	nop
    14ee:	0402                	c.slli64	s0
    14f0:	033e                	slli	t1,t1,0xf
    14f2:	0900                	addi	s0,sp,144
    14f4:	0000                	unimp
    14f6:	0001                	nop
    14f8:	0402                	c.slli64	s0
    14fa:	033e                	slli	t1,t1,0xf
    14fc:	0900                	addi	s0,sp,144
    14fe:	0000                	unimp
    1500:	0001                	nop
    1502:	0402                	c.slli64	s0
    1504:	033e                	slli	t1,t1,0xf
    1506:	0900                	addi	s0,sp,144
    1508:	0000                	unimp
    150a:	0001                	nop
    150c:	0402                	c.slli64	s0
    150e:	0900033f 00010004 	0x100040900033f
    1516:	0402                	c.slli64	s0
    1518:	0645                	addi	a2,a2,17
    151a:	04090003          	lb	zero,64(s2)
    151e:	0100                	addi	s0,sp,128
    1520:	0306                	slli	t1,t1,0x1
    1522:	0900                	addi	s0,sp,144
    1524:	0004                	0x4
    1526:	0301                	addi	t1,t1,0
    1528:	0900                	addi	s0,sp,144
    152a:	0004                	0x4
    152c:	0301                	addi	t1,t1,0
    152e:	0900                	addi	s0,sp,144
    1530:	0000                	unimp
    1532:	0301                	addi	t1,t1,0
    1534:	0900                	addi	s0,sp,144
    1536:	0000                	unimp
    1538:	0001                	nop
    153a:	0402                	c.slli64	s0
    153c:	035f 0900 0004      	0x40900035f
    1542:	0001                	nop
    1544:	0402                	c.slli64	s0
    1546:	09000373          	0x9000373
    154a:	0004                	0x4
    154c:	0601                	addi	a2,a2,0
    154e:	04090003          	lb	zero,64(s2)
    1552:	0100                	addi	s0,sp,128
    1554:	0200                	addi	s0,sp,256
    1556:	5004                	lw	s1,32(s0)
    1558:	0306                	slli	t1,t1,0x1
    155a:	0900                	addi	s0,sp,144
    155c:	0008                	0x8
    155e:	0001                	nop
    1560:	0402                	c.slli64	s0
    1562:	0350                	addi	a2,sp,388
    1564:	0900                	addi	s0,sp,144
    1566:	0000                	unimp
    1568:	0601                	addi	a2,a2,0
    156a:	08090003          	lb	zero,128(s2)
    156e:	0100                	addi	s0,sp,128
    1570:	0200                	addi	s0,sp,256
    1572:	6604                	flw	fs1,8(a2)
    1574:	0306                	slli	t1,t1,0x1
    1576:	0900                	addi	s0,sp,144
    1578:	0008                	0x8
    157a:	0001                	nop
    157c:	0402                	c.slli64	s0
    157e:	037a                	slli	t1,t1,0x1e
    1580:	0900                	addi	s0,sp,144
    1582:	0004                	0x4
    1584:	0501                	addi	a0,a0,0
    1586:	0601                	addi	a2,a2,0
    1588:	04090403          	lb	s0,64(s2)
    158c:	0100                	addi	s0,sp,128
    158e:	0305                	addi	t1,t1,1
    1590:	0200                	addi	s0,sp,256
    1592:	6d04                	flw	fs1,24(a0)
    1594:	0306                	slli	t1,t1,0x1
    1596:	097c                	addi	a5,sp,156
    1598:	0004                	0x4
    159a:	0001                	nop
    159c:	0402                	c.slli64	s0
    159e:	0374                	addi	a3,sp,396
    15a0:	0900                	addi	s0,sp,144
    15a2:	0004                	0x4
    15a4:	0601                	addi	a2,a2,0
    15a6:	04090003          	lb	zero,64(s2)
    15aa:	0100                	addi	s0,sp,128
    15ac:	0306                	slli	t1,t1,0x1
    15ae:	0900                	addi	s0,sp,144
    15b0:	0004                	0x4
    15b2:	0301                	addi	t1,t1,0
    15b4:	0901                	addi	s2,s2,0
    15b6:	0000                	unimp
    15b8:	0301                	addi	t1,t1,0
    15ba:	0900                	addi	s0,sp,144
    15bc:	0000                	unimp
    15be:	0301                	addi	t1,t1,0
    15c0:	0900                	addi	s0,sp,144
    15c2:	0000                	unimp
    15c4:	0301                	addi	t1,t1,0
    15c6:	0902                	c.slli64	s2
    15c8:	0000                	unimp
    15ca:	0501                	addi	a0,a0,0
    15cc:	060a                	slli	a2,a2,0x2
    15ce:	00090003          	lb	zero,0(s2)
    15d2:	0100                	addi	s0,sp,128
    15d4:	0305                	addi	t1,t1,1
    15d6:	04097d03          	0x4097d03
    15da:	0100                	addi	s0,sp,128
    15dc:	0306                	slli	t1,t1,0x1
    15de:	0900                	addi	s0,sp,144
    15e0:	0008                	0x8
    15e2:	0301                	addi	t1,t1,0
    15e4:	0900                	addi	s0,sp,144
    15e6:	000c                	0xc
    15e8:	0901                	addi	s2,s2,0
    15ea:	000c                	0xc
    15ec:	0100                	addi	s0,sp,128
    15ee:	8201                	c.srli64	a2
    15f0:	03000007          	0x3000007
    15f4:	9300                	0x9300
    15f6:	0000                	unimp
    15f8:	0100                	addi	s0,sp,128
    15fa:	fb01                	bnez	a4,150a <_start-0x7fffeaf6>
    15fc:	0d0e                	slli	s10,s10,0x3
    15fe:	0100                	addi	s0,sp,128
    1600:	0101                	addi	sp,sp,0
    1602:	0001                	nop
    1604:	0000                	unimp
    1606:	0001                	nop
    1608:	0100                	addi	s0,sp,128
    160a:	2e2e                	fld	ft8,200(sp)
    160c:	2f2e2e2f          	0x2f2e2e2f
    1610:	2e2e                	fld	ft8,200(sp)
    1612:	2f2e2e2f          	0x2f2e2e2f
    1616:	6972                	flw	fs2,28(sp)
    1618:	2d766373          	csrrsi	t1,0x2d7,12
    161c:	2f636367          	0x2f636367
    1620:	696c                	flw	fa1,84(a0)
    1622:	6762                	flw	fa4,24(sp)
    1624:	732f6363          	bltu	t5,s2,1d4a <_start-0x7fffe2b6>
    1628:	2d74666f          	jal	a2,480fe <_start-0x7ffb7f02>
    162c:	7066                	flw	ft0,120(sp)
    162e:	2e00                	fld	fs0,24(a2)
    1630:	2f2e                	fld	ft10,200(sp)
    1632:	2e2e                	fld	ft8,200(sp)
    1634:	2f2e2e2f          	0x2f2e2e2f
    1638:	2e2e                	fld	ft8,200(sp)
    163a:	7369722f          	0x7369722f
    163e:	672d7663          	bgeu	s10,s2,1caa <_start-0x7fffe356>
    1642:	6c2f6363          	bltu	t5,sp,1d08 <_start-0x7fffe2f8>
    1646:	6269                	lui	tp,0x1a
    1648:	2f636367          	0x2f636367
    164c:	2e2e                	fld	ft8,200(sp)
    164e:	636e692f          	0x636e692f
    1652:	756c                	flw	fa1,108(a0)
    1654:	6564                	flw	fs1,76(a0)
    1656:	0000                	unimp
    1658:	756d                	lui	a0,0xffffb
    165a:	736c                	flw	fa1,100(a4)
    165c:	3366                	fld	ft6,120(sp)
    165e:	632e                	flw	ft6,200(sp)
    1660:	0100                	addi	s0,sp,128
    1662:	0000                	unimp
    1664:	74666f73          	csrrsi	t5,0x746,12
    1668:	662d                	lui	a2,0xb
    166a:	2e70                	fld	fa2,216(a2)
    166c:	0068                	addi	a0,sp,12
    166e:	0001                	nop
    1670:	7300                	flw	fs0,32(a4)
    1672:	6e69                	lui	t3,0x1a
    1674:	2e656c67          	0x2e656c67
    1678:	0068                	addi	a0,sp,12
    167a:	0001                	nop
    167c:	6c00                	flw	fs0,24(s0)
    167e:	6c676e6f          	jal	t3,77d44 <_start-0x7ff882bc>
    1682:	2e676e6f          	jal	t3,77968 <_start-0x7ff88698>
    1686:	0068                	addi	a0,sp,12
    1688:	0002                	c.slli64	zero
    168a:	0000                	unimp
    168c:	0105                	addi	sp,sp,1
    168e:	0500                	addi	s0,sp,640
    1690:	f402                	fsw	ft0,40(sp)
    1692:	0016                	c.slli	zero,0x5
    1694:	0380                	addi	s0,sp,448
    1696:	03050123          	sb	a6,34(a0) # ffffb022 <__global_pointer$+0x7fff73ba>
    169a:	00090103          	lb	sp,0(s2)
    169e:	0100                	addi	s0,sp,128
    16a0:	00090003          	lb	zero,0(s2)
    16a4:	0100                	addi	s0,sp,128
    16a6:	0d05                	addi	s10,s10,1
    16a8:	00090003          	lb	zero,0(s2)
    16ac:	0100                	addi	s0,sp,128
    16ae:	0305                	addi	t1,t1,1
    16b0:	00090103          	lb	sp,0(s2)
    16b4:	0100                	addi	s0,sp,128
    16b6:	00090003          	lb	zero,0(s2)
    16ba:	0100                	addi	s0,sp,128
    16bc:	00090003          	lb	zero,0(s2)
    16c0:	0100                	addi	s0,sp,128
    16c2:	00090003          	lb	zero,0(s2)
    16c6:	0100                	addi	s0,sp,128
    16c8:	00090103          	lb	sp,0(s2)
    16cc:	0100                	addi	s0,sp,128
    16ce:	00090003          	lb	zero,0(s2)
    16d2:	0100                	addi	s0,sp,128
    16d4:	00090003          	lb	zero,0(s2)
    16d8:	0100                	addi	s0,sp,128
    16da:	00090003          	lb	zero,0(s2)
    16de:	0100                	addi	s0,sp,128
    16e0:	00090103          	lb	sp,0(s2)
    16e4:	0100                	addi	s0,sp,128
    16e6:	00090003          	lb	zero,0(s2)
    16ea:	0100                	addi	s0,sp,128
    16ec:	00090003          	lb	zero,0(s2)
    16f0:	0100                	addi	s0,sp,128
    16f2:	00090003          	lb	zero,0(s2)
    16f6:	0100                	addi	s0,sp,128
    16f8:	00090103          	lb	sp,0(s2)
    16fc:	0100                	addi	s0,sp,128
    16fe:	00090203          	lb	tp,0(s2)
    1702:	0100                	addi	s0,sp,128
    1704:	00090103          	lb	sp,0(s2)
    1708:	0100                	addi	s0,sp,128
    170a:	00090003          	lb	zero,0(s2)
    170e:	0100                	addi	s0,sp,128
    1710:	00090003          	lb	zero,0(s2)
    1714:	0100                	addi	s0,sp,128
    1716:	00090003          	lb	zero,0(s2)
    171a:	0100                	addi	s0,sp,128
    171c:	00090003          	lb	zero,0(s2)
    1720:	0100                	addi	s0,sp,128
    1722:	0105                	addi	sp,sp,1
    1724:	0306                	slli	t1,t1,0x1
    1726:	0978                	addi	a4,sp,156
    1728:	0000                	unimp
    172a:	0501                	addi	a0,a0,0
    172c:	09080303          	lb	t1,144(a6)
    1730:	0018                	0x18
    1732:	0501                	addi	a0,a0,0
    1734:	0301                	addi	t1,t1,0
    1736:	0978                	addi	a4,sp,156
    1738:	0004                	0x4
    173a:	0301                	addi	t1,t1,0
    173c:	0900                	addi	s0,sp,144
    173e:	0010                	0x10
    1740:	0501                	addi	a0,a0,0
    1742:	09080303          	lb	t1,144(a6)
    1746:	0004                	0x4
    1748:	0601                	addi	a2,a2,0
    174a:	04090003          	lb	zero,64(s2)
    174e:	0100                	addi	s0,sp,128
    1750:	00090003          	lb	zero,0(s2)
    1754:	0100                	addi	s0,sp,128
    1756:	04090003          	lb	zero,64(s2)
    175a:	0100                	addi	s0,sp,128
    175c:	00090003          	lb	zero,0(s2)
    1760:	0100                	addi	s0,sp,128
    1762:	00090003          	lb	zero,0(s2)
    1766:	0100                	addi	s0,sp,128
    1768:	0200                	addi	s0,sp,256
    176a:	0104                	addi	s1,sp,128
    176c:	0c090003          	lb	zero,192(s2)
    1770:	0100                	addi	s0,sp,128
    1772:	0200                	addi	s0,sp,256
    1774:	0104                	addi	s1,sp,128
    1776:	00090003          	lb	zero,0(s2)
    177a:	0100                	addi	s0,sp,128
    177c:	0200                	addi	s0,sp,256
    177e:	0104                	addi	s1,sp,128
    1780:	00090003          	lb	zero,0(s2)
    1784:	0100                	addi	s0,sp,128
    1786:	0200                	addi	s0,sp,256
    1788:	0104                	addi	s1,sp,128
    178a:	00090003          	lb	zero,0(s2)
    178e:	0100                	addi	s0,sp,128
    1790:	0200                	addi	s0,sp,256
    1792:	0104                	addi	s1,sp,128
    1794:	0c090003          	lb	zero,192(s2)
    1798:	0100                	addi	s0,sp,128
    179a:	0200                	addi	s0,sp,256
    179c:	0104                	addi	s1,sp,128
    179e:	00090003          	lb	zero,0(s2)
    17a2:	0100                	addi	s0,sp,128
    17a4:	0200                	addi	s0,sp,256
    17a6:	0104                	addi	s1,sp,128
    17a8:	04090003          	lb	zero,64(s2)
    17ac:	0100                	addi	s0,sp,128
    17ae:	0200                	addi	s0,sp,256
    17b0:	0104                	addi	s1,sp,128
    17b2:	00090003          	lb	zero,0(s2)
    17b6:	0100                	addi	s0,sp,128
    17b8:	0200                	addi	s0,sp,256
    17ba:	0f04                	addi	s1,sp,912
    17bc:	00090003          	lb	zero,0(s2)
    17c0:	0100                	addi	s0,sp,128
    17c2:	0200                	addi	s0,sp,256
    17c4:	0f04                	addi	s1,sp,912
    17c6:	00090003          	lb	zero,0(s2)
    17ca:	0100                	addi	s0,sp,128
    17cc:	0200                	addi	s0,sp,256
    17ce:	0804                	addi	s1,sp,16
    17d0:	04090003          	lb	zero,64(s2)
    17d4:	0100                	addi	s0,sp,128
    17d6:	0200                	addi	s0,sp,256
    17d8:	0804                	addi	s1,sp,16
    17da:	00090003          	lb	zero,0(s2)
    17de:	0100                	addi	s0,sp,128
    17e0:	0200                	addi	s0,sp,256
    17e2:	0804                	addi	s1,sp,16
    17e4:	00090103          	lb	sp,0(s2)
    17e8:	0100                	addi	s0,sp,128
    17ea:	0200                	addi	s0,sp,256
    17ec:	0804                	addi	s1,sp,16
    17ee:	00090003          	lb	zero,0(s2)
    17f2:	0100                	addi	s0,sp,128
    17f4:	0200                	addi	s0,sp,256
    17f6:	0804                	addi	s1,sp,16
    17f8:	00090003          	lb	zero,0(s2)
    17fc:	0100                	addi	s0,sp,128
    17fe:	0200                	addi	s0,sp,256
    1800:	0804                	addi	s1,sp,16
    1802:	00090003          	lb	zero,0(s2)
    1806:	0100                	addi	s0,sp,128
    1808:	0200                	addi	s0,sp,256
    180a:	0804                	addi	s1,sp,16
    180c:	00090003          	lb	zero,0(s2)
    1810:	0100                	addi	s0,sp,128
    1812:	0200                	addi	s0,sp,256
    1814:	0804                	addi	s1,sp,16
    1816:	10090003          	lb	zero,256(s2)
    181a:	0100                	addi	s0,sp,128
    181c:	0200                	addi	s0,sp,256
    181e:	0804                	addi	s1,sp,16
    1820:	00090003          	lb	zero,0(s2)
    1824:	0100                	addi	s0,sp,128
    1826:	0200                	addi	s0,sp,256
    1828:	0804                	addi	s1,sp,16
    182a:	04090003          	lb	zero,64(s2)
    182e:	0100                	addi	s0,sp,128
    1830:	0200                	addi	s0,sp,256
    1832:	0804                	addi	s1,sp,16
    1834:	00090003          	lb	zero,0(s2)
    1838:	0100                	addi	s0,sp,128
    183a:	0200                	addi	s0,sp,256
    183c:	0804                	addi	s1,sp,16
    183e:	00090003          	lb	zero,0(s2)
    1842:	0100                	addi	s0,sp,128
    1844:	0306                	slli	t1,t1,0x1
    1846:	0900                	addi	s0,sp,144
    1848:	0004                	0x4
    184a:	0001                	nop
    184c:	0402                	c.slli64	s0
    184e:	0601                	addi	a2,a2,0
    1850:	08090003          	lb	zero,128(s2)
    1854:	0100                	addi	s0,sp,128
    1856:	0200                	addi	s0,sp,256
    1858:	0104                	addi	s1,sp,128
    185a:	00090003          	lb	zero,0(s2)
    185e:	0100                	addi	s0,sp,128
    1860:	0200                	addi	s0,sp,256
    1862:	0104                	addi	s1,sp,128
    1864:	00090003          	lb	zero,0(s2)
    1868:	0100                	addi	s0,sp,128
    186a:	0200                	addi	s0,sp,256
    186c:	0104                	addi	s1,sp,128
    186e:	00090003          	lb	zero,0(s2)
    1872:	0100                	addi	s0,sp,128
    1874:	0200                	addi	s0,sp,256
    1876:	0104                	addi	s1,sp,128
    1878:	0c090003          	lb	zero,192(s2)
    187c:	0100                	addi	s0,sp,128
    187e:	0200                	addi	s0,sp,256
    1880:	0104                	addi	s1,sp,128
    1882:	00090003          	lb	zero,0(s2)
    1886:	0100                	addi	s0,sp,128
    1888:	0200                	addi	s0,sp,256
    188a:	0104                	addi	s1,sp,128
    188c:	04090003          	lb	zero,64(s2)
    1890:	0100                	addi	s0,sp,128
    1892:	0200                	addi	s0,sp,256
    1894:	0104                	addi	s1,sp,128
    1896:	00090003          	lb	zero,0(s2)
    189a:	0100                	addi	s0,sp,128
    189c:	0200                	addi	s0,sp,256
    189e:	0f04                	addi	s1,sp,912
    18a0:	00090003          	lb	zero,0(s2)
    18a4:	0100                	addi	s0,sp,128
    18a6:	0200                	addi	s0,sp,256
    18a8:	0f04                	addi	s1,sp,912
    18aa:	00090003          	lb	zero,0(s2)
    18ae:	0100                	addi	s0,sp,128
    18b0:	0200                	addi	s0,sp,256
    18b2:	0804                	addi	s1,sp,16
    18b4:	04090003          	lb	zero,64(s2)
    18b8:	0100                	addi	s0,sp,128
    18ba:	0200                	addi	s0,sp,256
    18bc:	0804                	addi	s1,sp,16
    18be:	00090003          	lb	zero,0(s2)
    18c2:	0100                	addi	s0,sp,128
    18c4:	0200                	addi	s0,sp,256
    18c6:	0804                	addi	s1,sp,16
    18c8:	00090103          	lb	sp,0(s2)
    18cc:	0100                	addi	s0,sp,128
    18ce:	0200                	addi	s0,sp,256
    18d0:	0804                	addi	s1,sp,16
    18d2:	00090003          	lb	zero,0(s2)
    18d6:	0100                	addi	s0,sp,128
    18d8:	0200                	addi	s0,sp,256
    18da:	0804                	addi	s1,sp,16
    18dc:	18090003          	lb	zero,384(s2)
    18e0:	0100                	addi	s0,sp,128
    18e2:	0200                	addi	s0,sp,256
    18e4:	0804                	addi	s1,sp,16
    18e6:	04090003          	lb	zero,64(s2)
    18ea:	0100                	addi	s0,sp,128
    18ec:	0200                	addi	s0,sp,256
    18ee:	0204                	addi	s1,sp,256
    18f0:	1c097e03          	0x1c097e03
    18f4:	0100                	addi	s0,sp,128
    18f6:	0200                	addi	s0,sp,256
    18f8:	0f04                	addi	s1,sp,912
    18fa:	04090003          	lb	zero,64(s2)
    18fe:	0100                	addi	s0,sp,128
    1900:	0200                	addi	s0,sp,256
    1902:	0f04                	addi	s1,sp,912
    1904:	00090003          	lb	zero,0(s2)
    1908:	0100                	addi	s0,sp,128
    190a:	0200                	addi	s0,sp,256
    190c:	0f04                	addi	s1,sp,912
    190e:	00090003          	lb	zero,0(s2)
    1912:	0100                	addi	s0,sp,128
    1914:	0200                	addi	s0,sp,256
    1916:	0f04                	addi	s1,sp,912
    1918:	00090003          	lb	zero,0(s2)
    191c:	0100                	addi	s0,sp,128
    191e:	0200                	addi	s0,sp,256
    1920:	0f04                	addi	s1,sp,912
    1922:	00090003          	lb	zero,0(s2)
    1926:	0100                	addi	s0,sp,128
    1928:	0200                	addi	s0,sp,256
    192a:	0f04                	addi	s1,sp,912
    192c:	00090003          	lb	zero,0(s2)
    1930:	0100                	addi	s0,sp,128
    1932:	0200                	addi	s0,sp,256
    1934:	0f04                	addi	s1,sp,912
    1936:	08090003          	lb	zero,128(s2)
    193a:	0100                	addi	s0,sp,128
    193c:	0200                	addi	s0,sp,256
    193e:	0f04                	addi	s1,sp,912
    1940:	00090003          	lb	zero,0(s2)
    1944:	0100                	addi	s0,sp,128
    1946:	0200                	addi	s0,sp,256
    1948:	0f04                	addi	s1,sp,912
    194a:	00090003          	lb	zero,0(s2)
    194e:	0100                	addi	s0,sp,128
    1950:	0200                	addi	s0,sp,256
    1952:	0f04                	addi	s1,sp,912
    1954:	00090003          	lb	zero,0(s2)
    1958:	0100                	addi	s0,sp,128
    195a:	0200                	addi	s0,sp,256
    195c:	0f04                	addi	s1,sp,912
    195e:	00090003          	lb	zero,0(s2)
    1962:	0100                	addi	s0,sp,128
    1964:	0200                	addi	s0,sp,256
    1966:	0f04                	addi	s1,sp,912
    1968:	0c090003          	lb	zero,192(s2)
    196c:	0100                	addi	s0,sp,128
    196e:	0200                	addi	s0,sp,256
    1970:	0f04                	addi	s1,sp,912
    1972:	00090003          	lb	zero,0(s2)
    1976:	0100                	addi	s0,sp,128
    1978:	0200                	addi	s0,sp,256
    197a:	0304                	addi	s1,sp,384
    197c:	08090003          	lb	zero,128(s2)
    1980:	0100                	addi	s0,sp,128
    1982:	0306                	slli	t1,t1,0x1
    1984:	0900                	addi	s0,sp,144
    1986:	000c                	0xc
    1988:	0001                	nop
    198a:	0402                	c.slli64	s0
    198c:	0602                	c.slli64	a2
    198e:	14090103          	lb	sp,320(s2)
    1992:	0100                	addi	s0,sp,128
    1994:	0200                	addi	s0,sp,256
    1996:	0f04                	addi	s1,sp,912
    1998:	04090003          	lb	zero,64(s2)
    199c:	0100                	addi	s0,sp,128
    199e:	0200                	addi	s0,sp,256
    19a0:	0f04                	addi	s1,sp,912
    19a2:	00090003          	lb	zero,0(s2)
    19a6:	0100                	addi	s0,sp,128
    19a8:	0200                	addi	s0,sp,256
    19aa:	0f04                	addi	s1,sp,912
    19ac:	00090003          	lb	zero,0(s2)
    19b0:	0100                	addi	s0,sp,128
    19b2:	0200                	addi	s0,sp,256
    19b4:	0f04                	addi	s1,sp,912
    19b6:	00090003          	lb	zero,0(s2)
    19ba:	0100                	addi	s0,sp,128
    19bc:	0200                	addi	s0,sp,256
    19be:	0f04                	addi	s1,sp,912
    19c0:	00090003          	lb	zero,0(s2)
    19c4:	0100                	addi	s0,sp,128
    19c6:	0200                	addi	s0,sp,256
    19c8:	0f04                	addi	s1,sp,912
    19ca:	00090003          	lb	zero,0(s2)
    19ce:	0100                	addi	s0,sp,128
    19d0:	0200                	addi	s0,sp,256
    19d2:	0f04                	addi	s1,sp,912
    19d4:	08090003          	lb	zero,128(s2)
    19d8:	0100                	addi	s0,sp,128
    19da:	0200                	addi	s0,sp,256
    19dc:	0f04                	addi	s1,sp,912
    19de:	00090003          	lb	zero,0(s2)
    19e2:	0100                	addi	s0,sp,128
    19e4:	0200                	addi	s0,sp,256
    19e6:	0f04                	addi	s1,sp,912
    19e8:	00090003          	lb	zero,0(s2)
    19ec:	0100                	addi	s0,sp,128
    19ee:	0200                	addi	s0,sp,256
    19f0:	0f04                	addi	s1,sp,912
    19f2:	00090003          	lb	zero,0(s2)
    19f6:	0100                	addi	s0,sp,128
    19f8:	0200                	addi	s0,sp,256
    19fa:	0f04                	addi	s1,sp,912
    19fc:	00090003          	lb	zero,0(s2)
    1a00:	0100                	addi	s0,sp,128
    1a02:	0200                	addi	s0,sp,256
    1a04:	0f04                	addi	s1,sp,912
    1a06:	08090003          	lb	zero,128(s2)
    1a0a:	0100                	addi	s0,sp,128
    1a0c:	0200                	addi	s0,sp,256
    1a0e:	0f04                	addi	s1,sp,912
    1a10:	00090003          	lb	zero,0(s2)
    1a14:	0100                	addi	s0,sp,128
    1a16:	0200                	addi	s0,sp,256
    1a18:	0304                	addi	s1,sp,384
    1a1a:	0c090003          	lb	zero,192(s2)
    1a1e:	0100                	addi	s0,sp,128
    1a20:	0306                	slli	t1,t1,0x1
    1a22:	0900                	addi	s0,sp,144
    1a24:	000c                	0xc
    1a26:	0001                	nop
    1a28:	0402                	c.slli64	s0
    1a2a:	0602                	c.slli64	a2
    1a2c:	14090103          	lb	sp,320(s2)
    1a30:	0100                	addi	s0,sp,128
    1a32:	0200                	addi	s0,sp,256
    1a34:	0204                	addi	s1,sp,256
    1a36:	00090003          	lb	zero,0(s2)
    1a3a:	0100                	addi	s0,sp,128
    1a3c:	0200                	addi	s0,sp,256
    1a3e:	0204                	addi	s1,sp,256
    1a40:	00090003          	lb	zero,0(s2)
    1a44:	0100                	addi	s0,sp,128
    1a46:	0200                	addi	s0,sp,256
    1a48:	0204                	addi	s1,sp,256
    1a4a:	00090003          	lb	zero,0(s2)
    1a4e:	0100                	addi	s0,sp,128
    1a50:	0200                	addi	s0,sp,256
    1a52:	0204                	addi	s1,sp,256
    1a54:	00090003          	lb	zero,0(s2)
    1a58:	0100                	addi	s0,sp,128
    1a5a:	0200                	addi	s0,sp,256
    1a5c:	0204                	addi	s1,sp,256
    1a5e:	00090003          	lb	zero,0(s2)
    1a62:	0100                	addi	s0,sp,128
    1a64:	0200                	addi	s0,sp,256
    1a66:	0204                	addi	s1,sp,256
    1a68:	00090003          	lb	zero,0(s2)
    1a6c:	0100                	addi	s0,sp,128
    1a6e:	0200                	addi	s0,sp,256
    1a70:	0204                	addi	s1,sp,256
    1a72:	00090003          	lb	zero,0(s2)
    1a76:	0100                	addi	s0,sp,128
    1a78:	0200                	addi	s0,sp,256
    1a7a:	0204                	addi	s1,sp,256
    1a7c:	00090003          	lb	zero,0(s2)
    1a80:	0100                	addi	s0,sp,128
    1a82:	0200                	addi	s0,sp,256
    1a84:	0204                	addi	s1,sp,256
    1a86:	0c090003          	lb	zero,192(s2)
    1a8a:	0100                	addi	s0,sp,128
    1a8c:	0200                	addi	s0,sp,256
    1a8e:	0204                	addi	s1,sp,256
    1a90:	00090003          	lb	zero,0(s2)
    1a94:	0100                	addi	s0,sp,128
    1a96:	0200                	addi	s0,sp,256
    1a98:	0204                	addi	s1,sp,256
    1a9a:	04090003          	lb	zero,64(s2)
    1a9e:	0100                	addi	s0,sp,128
    1aa0:	0200                	addi	s0,sp,256
    1aa2:	0204                	addi	s1,sp,256
    1aa4:	0c090003          	lb	zero,192(s2)
    1aa8:	0100                	addi	s0,sp,128
    1aaa:	0200                	addi	s0,sp,256
    1aac:	0204                	addi	s1,sp,256
    1aae:	00090003          	lb	zero,0(s2)
    1ab2:	0100                	addi	s0,sp,128
    1ab4:	0200                	addi	s0,sp,256
    1ab6:	0204                	addi	s1,sp,256
    1ab8:	04090003          	lb	zero,64(s2)
    1abc:	0100                	addi	s0,sp,128
    1abe:	0200                	addi	s0,sp,256
    1ac0:	0204                	addi	s1,sp,256
    1ac2:	04090003          	lb	zero,64(s2)
    1ac6:	0100                	addi	s0,sp,128
    1ac8:	0200                	addi	s0,sp,256
    1aca:	0204                	addi	s1,sp,256
    1acc:	0c090003          	lb	zero,192(s2)
    1ad0:	0100                	addi	s0,sp,128
    1ad2:	0200                	addi	s0,sp,256
    1ad4:	0204                	addi	s1,sp,256
    1ad6:	04090003          	lb	zero,64(s2)
    1ada:	0100                	addi	s0,sp,128
    1adc:	0200                	addi	s0,sp,256
    1ade:	0904                	addi	s1,sp,144
    1ae0:	04090003          	lb	zero,64(s2)
    1ae4:	0100                	addi	s0,sp,128
    1ae6:	0200                	addi	s0,sp,256
    1ae8:	0b04                	addi	s1,sp,400
    1aea:	04090003          	lb	zero,64(s2)
    1aee:	0100                	addi	s0,sp,128
    1af0:	0200                	addi	s0,sp,256
    1af2:	0b04                	addi	s1,sp,400
    1af4:	00090003          	lb	zero,0(s2)
    1af8:	0100                	addi	s0,sp,128
    1afa:	0200                	addi	s0,sp,256
    1afc:	0b04                	addi	s1,sp,400
    1afe:	10090003          	lb	zero,256(s2)
    1b02:	0100                	addi	s0,sp,128
    1b04:	0200                	addi	s0,sp,256
    1b06:	0b04                	addi	s1,sp,400
    1b08:	00090003          	lb	zero,0(s2)
    1b0c:	0100                	addi	s0,sp,128
    1b0e:	0200                	addi	s0,sp,256
    1b10:	0b04                	addi	s1,sp,400
    1b12:	00090003          	lb	zero,0(s2)
    1b16:	0100                	addi	s0,sp,128
    1b18:	0200                	addi	s0,sp,256
    1b1a:	0b04                	addi	s1,sp,400
    1b1c:	00090003          	lb	zero,0(s2)
    1b20:	0100                	addi	s0,sp,128
    1b22:	0200                	addi	s0,sp,256
    1b24:	0b04                	addi	s1,sp,400
    1b26:	20090003          	lb	zero,512(s2)
    1b2a:	0100                	addi	s0,sp,128
    1b2c:	0200                	addi	s0,sp,256
    1b2e:	0b04                	addi	s1,sp,400
    1b30:	00090003          	lb	zero,0(s2)
    1b34:	0100                	addi	s0,sp,128
    1b36:	0200                	addi	s0,sp,256
    1b38:	0b04                	addi	s1,sp,400
    1b3a:	00090003          	lb	zero,0(s2)
    1b3e:	0100                	addi	s0,sp,128
    1b40:	0200                	addi	s0,sp,256
    1b42:	0b04                	addi	s1,sp,400
    1b44:	00090003          	lb	zero,0(s2)
    1b48:	0100                	addi	s0,sp,128
    1b4a:	0200                	addi	s0,sp,256
    1b4c:	0c04                	addi	s1,sp,528
    1b4e:	08090003          	lb	zero,128(s2)
    1b52:	0100                	addi	s0,sp,128
    1b54:	0200                	addi	s0,sp,256
    1b56:	0204                	addi	s1,sp,256
    1b58:	0c090103          	lb	sp,192(s2)
    1b5c:	0100                	addi	s0,sp,128
    1b5e:	0200                	addi	s0,sp,256
    1b60:	0204                	addi	s1,sp,256
    1b62:	04090003          	lb	zero,64(s2)
    1b66:	0100                	addi	s0,sp,128
    1b68:	0200                	addi	s0,sp,256
    1b6a:	0604                	addi	s1,sp,768
    1b6c:	04090003          	lb	zero,64(s2)
    1b70:	0100                	addi	s0,sp,128
    1b72:	0200                	addi	s0,sp,256
    1b74:	0604                	addi	s1,sp,768
    1b76:	00090003          	lb	zero,0(s2)
    1b7a:	0100                	addi	s0,sp,128
    1b7c:	0200                	addi	s0,sp,256
    1b7e:	0804                	addi	s1,sp,16
    1b80:	08090003          	lb	zero,128(s2)
    1b84:	0100                	addi	s0,sp,128
    1b86:	0200                	addi	s0,sp,256
    1b88:	0804                	addi	s1,sp,16
    1b8a:	00090003          	lb	zero,0(s2)
    1b8e:	0100                	addi	s0,sp,128
    1b90:	0200                	addi	s0,sp,256
    1b92:	0804                	addi	s1,sp,16
    1b94:	00090003          	lb	zero,0(s2)
    1b98:	0100                	addi	s0,sp,128
    1b9a:	0200                	addi	s0,sp,256
    1b9c:	0804                	addi	s1,sp,16
    1b9e:	00090003          	lb	zero,0(s2)
    1ba2:	0100                	addi	s0,sp,128
    1ba4:	0200                	addi	s0,sp,256
    1ba6:	0a04                	addi	s1,sp,272
    1ba8:	0c090003          	lb	zero,192(s2)
    1bac:	0100                	addi	s0,sp,128
    1bae:	0200                	addi	s0,sp,256
    1bb0:	0904                	addi	s1,sp,144
    1bb2:	04090003          	lb	zero,64(s2)
    1bb6:	0100                	addi	s0,sp,128
    1bb8:	0200                	addi	s0,sp,256
    1bba:	0904                	addi	s1,sp,144
    1bbc:	00090003          	lb	zero,0(s2)
    1bc0:	0100                	addi	s0,sp,128
    1bc2:	0200                	addi	s0,sp,256
    1bc4:	1804                	addi	s1,sp,48
    1bc6:	08090003          	lb	zero,128(s2)
    1bca:	0100                	addi	s0,sp,128
    1bcc:	0200                	addi	s0,sp,256
    1bce:	1804                	addi	s1,sp,48
    1bd0:	0c090003          	lb	zero,192(s2)
    1bd4:	0100                	addi	s0,sp,128
    1bd6:	0200                	addi	s0,sp,256
    1bd8:	1a04                	addi	s1,sp,304
    1bda:	04090003          	lb	zero,64(s2)
    1bde:	0100                	addi	s0,sp,128
    1be0:	0200                	addi	s0,sp,256
    1be2:	1a04                	addi	s1,sp,304
    1be4:	00090003          	lb	zero,0(s2)
    1be8:	0100                	addi	s0,sp,128
    1bea:	0200                	addi	s0,sp,256
    1bec:	0704                	addi	s1,sp,896
    1bee:	0306                	slli	t1,t1,0x1
    1bf0:	097d                	addi	s2,s2,31
    1bf2:	0018                	0x18
    1bf4:	0001                	nop
    1bf6:	0402                	c.slli64	s0
    1bf8:	02030607          	0x2030607
    1bfc:	0409                	addi	s0,s0,2
    1bfe:	0100                	addi	s0,sp,128
    1c00:	0200                	addi	s0,sp,256
    1c02:	1504                	addi	s1,sp,672
    1c04:	08090003          	lb	zero,128(s2)
    1c08:	0100                	addi	s0,sp,128
    1c0a:	0200                	addi	s0,sp,256
    1c0c:	1504                	addi	s1,sp,672
    1c0e:	00090103          	lb	sp,0(s2)
    1c12:	0100                	addi	s0,sp,128
    1c14:	0200                	addi	s0,sp,256
    1c16:	1504                	addi	s1,sp,672
    1c18:	00090003          	lb	zero,0(s2)
    1c1c:	0100                	addi	s0,sp,128
    1c1e:	0200                	addi	s0,sp,256
    1c20:	1504                	addi	s1,sp,672
    1c22:	00090003          	lb	zero,0(s2)
    1c26:	0100                	addi	s0,sp,128
    1c28:	0306                	slli	t1,t1,0x1
    1c2a:	0900                	addi	s0,sp,144
    1c2c:	0008                	0x8
    1c2e:	0001                	nop
    1c30:	0402                	c.slli64	s0
    1c32:	0304                	addi	s1,sp,384
    1c34:	097e                	slli	s2,s2,0x1f
    1c36:	001c                	0x1c
    1c38:	0001                	nop
    1c3a:	0402                	c.slli64	s0
    1c3c:	0604                	addi	s1,sp,768
    1c3e:	04090103          	lb	sp,64(s2)
    1c42:	0100                	addi	s0,sp,128
    1c44:	0306                	slli	t1,t1,0x1
    1c46:	0900                	addi	s0,sp,144
    1c48:	0004                	0x4
    1c4a:	0001                	nop
    1c4c:	0402                	c.slli64	s0
    1c4e:	0103063b          	0x103063b
    1c52:	0809                	addi	a6,a6,2
    1c54:	0100                	addi	s0,sp,128
    1c56:	0200                	addi	s0,sp,256
    1c58:	3b04                	fld	fs1,48(a4)
    1c5a:	00090003          	lb	zero,0(s2)
    1c5e:	0100                	addi	s0,sp,128
    1c60:	0200                	addi	s0,sp,256
    1c62:	3b04                	fld	fs1,48(a4)
    1c64:	00090003          	lb	zero,0(s2)
    1c68:	0100                	addi	s0,sp,128
    1c6a:	0200                	addi	s0,sp,256
    1c6c:	3b04                	fld	fs1,48(a4)
    1c6e:	08090003          	lb	zero,128(s2)
    1c72:	0100                	addi	s0,sp,128
    1c74:	0200                	addi	s0,sp,256
    1c76:	3c04                	fld	fs1,56(s0)
    1c78:	08090003          	lb	zero,128(s2)
    1c7c:	0100                	addi	s0,sp,128
    1c7e:	0200                	addi	s0,sp,256
    1c80:	3c04                	fld	fs1,56(s0)
    1c82:	14090003          	lb	zero,320(s2)
    1c86:	0100                	addi	s0,sp,128
    1c88:	0200                	addi	s0,sp,256
    1c8a:	3c04                	fld	fs1,56(s0)
    1c8c:	00090003          	lb	zero,0(s2)
    1c90:	0100                	addi	s0,sp,128
    1c92:	0200                	addi	s0,sp,256
    1c94:	4404                	lw	s1,8(s0)
    1c96:	08090003          	lb	zero,128(s2)
    1c9a:	0100                	addi	s0,sp,128
    1c9c:	0200                	addi	s0,sp,256
    1c9e:	4404                	lw	s1,8(s0)
    1ca0:	00090003          	lb	zero,0(s2)
    1ca4:	0100                	addi	s0,sp,128
    1ca6:	0200                	addi	s0,sp,256
    1ca8:	4404                	lw	s1,8(s0)
    1caa:	00090003          	lb	zero,0(s2)
    1cae:	0100                	addi	s0,sp,128
    1cb0:	0200                	addi	s0,sp,256
    1cb2:	4404                	lw	s1,8(s0)
    1cb4:	00090003          	lb	zero,0(s2)
    1cb8:	0100                	addi	s0,sp,128
    1cba:	0200                	addi	s0,sp,256
    1cbc:	4604                	lw	s1,8(a2)
    1cbe:	0c090003          	lb	zero,192(s2)
    1cc2:	0100                	addi	s0,sp,128
    1cc4:	0200                	addi	s0,sp,256
    1cc6:	4504                	lw	s1,8(a0)
    1cc8:	04090003          	lb	zero,64(s2)
    1ccc:	0100                	addi	s0,sp,128
    1cce:	0200                	addi	s0,sp,256
    1cd0:	4504                	lw	s1,8(a0)
    1cd2:	00090003          	lb	zero,0(s2)
    1cd6:	0100                	addi	s0,sp,128
    1cd8:	0306                	slli	t1,t1,0x1
    1cda:	0900                	addi	s0,sp,144
    1cdc:	000c                	0xc
    1cde:	0001                	nop
    1ce0:	0402                	c.slli64	s0
    1ce2:	0003066f          	jal	a2,31ce2 <_start-0x7ffce31e>
    1ce6:	1809                	addi	a6,a6,-30
    1ce8:	0100                	addi	s0,sp,128
    1cea:	0200                	addi	s0,sp,256
    1cec:	6f04                	flw	fs1,24(a4)
    1cee:	00090003          	lb	zero,0(s2)
    1cf2:	0100                	addi	s0,sp,128
    1cf4:	0200                	addi	s0,sp,256
    1cf6:	6f04                	flw	fs1,24(a4)
    1cf8:	00090003          	lb	zero,0(s2)
    1cfc:	0100                	addi	s0,sp,128
    1cfe:	0200                	addi	s0,sp,256
    1d00:	6f04                	flw	fs1,24(a4)
    1d02:	00090003          	lb	zero,0(s2)
    1d06:	0100                	addi	s0,sp,128
    1d08:	0200                	addi	s0,sp,256
    1d0a:	6f04                	flw	fs1,24(a4)
    1d0c:	00090003          	lb	zero,0(s2)
    1d10:	0100                	addi	s0,sp,128
    1d12:	0200                	addi	s0,sp,256
    1d14:	6f04                	flw	fs1,24(a4)
    1d16:	00090003          	lb	zero,0(s2)
    1d1a:	0100                	addi	s0,sp,128
    1d1c:	0200                	addi	s0,sp,256
    1d1e:	6f04                	flw	fs1,24(a4)
    1d20:	1c090003          	lb	zero,448(s2)
    1d24:	0100                	addi	s0,sp,128
    1d26:	0200                	addi	s0,sp,256
    1d28:	6f04                	flw	fs1,24(a4)
    1d2a:	00090003          	lb	zero,0(s2)
    1d2e:	0100                	addi	s0,sp,128
    1d30:	0200                	addi	s0,sp,256
    1d32:	6f04                	flw	fs1,24(a4)
    1d34:	00090003          	lb	zero,0(s2)
    1d38:	0100                	addi	s0,sp,128
    1d3a:	0200                	addi	s0,sp,256
    1d3c:	6f04                	flw	fs1,24(a4)
    1d3e:	00090103          	lb	sp,0(s2)
    1d42:	0100                	addi	s0,sp,128
    1d44:	0200                	addi	s0,sp,256
    1d46:	6f04                	flw	fs1,24(a4)
    1d48:	00090003          	lb	zero,0(s2)
    1d4c:	0100                	addi	s0,sp,128
    1d4e:	0200                	addi	s0,sp,256
    1d50:	6f04                	flw	fs1,24(a4)
    1d52:	00090003          	lb	zero,0(s2)
    1d56:	0100                	addi	s0,sp,128
    1d58:	0200                	addi	s0,sp,256
    1d5a:	6f04                	flw	fs1,24(a4)
    1d5c:	00090203          	lb	tp,0(s2)
    1d60:	0100                	addi	s0,sp,128
    1d62:	0105                	addi	sp,sp,1
    1d64:	0200                	addi	s0,sp,256
    1d66:	6f04                	flw	fs1,24(a4)
    1d68:	0306                	slli	t1,t1,0x1
    1d6a:	0901                	addi	s2,s2,0
    1d6c:	0000                	unimp
    1d6e:	0901                	addi	s2,s2,0
    1d70:	0028                	addi	a0,sp,8
    1d72:	0100                	addi	s0,sp,128
    1d74:	aa01                	j	1e84 <_start-0x7fffe17c>
    1d76:	000a                	c.slli	zero,0x2
    1d78:	0300                	addi	s0,sp,384
    1d7a:	9300                	0x9300
    1d7c:	0000                	unimp
    1d7e:	0100                	addi	s0,sp,128
    1d80:	fb01                	bnez	a4,1c90 <_start-0x7fffe370>
    1d82:	0d0e                	slli	s10,s10,0x3
    1d84:	0100                	addi	s0,sp,128
    1d86:	0101                	addi	sp,sp,0
    1d88:	0001                	nop
    1d8a:	0000                	unimp
    1d8c:	0001                	nop
    1d8e:	0100                	addi	s0,sp,128
    1d90:	2e2e                	fld	ft8,200(sp)
    1d92:	2f2e2e2f          	0x2f2e2e2f
    1d96:	2e2e                	fld	ft8,200(sp)
    1d98:	2f2e2e2f          	0x2f2e2e2f
    1d9c:	6972                	flw	fs2,28(sp)
    1d9e:	2d766373          	csrrsi	t1,0x2d7,12
    1da2:	2f636367          	0x2f636367
    1da6:	696c                	flw	fa1,84(a0)
    1da8:	6762                	flw	fa4,24(sp)
    1daa:	732f6363          	bltu	t5,s2,24d0 <_start-0x7fffdb30>
    1dae:	2d74666f          	jal	a2,48884 <_start-0x7ffb777c>
    1db2:	7066                	flw	ft0,120(sp)
    1db4:	2e00                	fld	fs0,24(a2)
    1db6:	2f2e                	fld	ft10,200(sp)
    1db8:	2e2e                	fld	ft8,200(sp)
    1dba:	2f2e2e2f          	0x2f2e2e2f
    1dbe:	2e2e                	fld	ft8,200(sp)
    1dc0:	7369722f          	0x7369722f
    1dc4:	672d7663          	bgeu	s10,s2,2430 <_start-0x7fffdbd0>
    1dc8:	6c2f6363          	bltu	t5,sp,248e <_start-0x7fffdb72>
    1dcc:	6269                	lui	tp,0x1a
    1dce:	2f636367          	0x2f636367
    1dd2:	2e2e                	fld	ft8,200(sp)
    1dd4:	636e692f          	0x636e692f
    1dd8:	756c                	flw	fa1,108(a0)
    1dda:	6564                	flw	fs1,76(a0)
    1ddc:	0000                	unimp
    1dde:	73627573          	csrrci	a0,0x736,4
    1de2:	3366                	fld	ft6,120(sp)
    1de4:	632e                	flw	ft6,200(sp)
    1de6:	0100                	addi	s0,sp,128
    1de8:	0000                	unimp
    1dea:	74666f73          	csrrsi	t5,0x746,12
    1dee:	662d                	lui	a2,0xb
    1df0:	2e70                	fld	fa2,216(a2)
    1df2:	0068                	addi	a0,sp,12
    1df4:	0001                	nop
    1df6:	7300                	flw	fs0,32(a4)
    1df8:	6e69                	lui	t3,0x1a
    1dfa:	2e656c67          	0x2e656c67
    1dfe:	0068                	addi	a0,sp,12
    1e00:	0001                	nop
    1e02:	6c00                	flw	fs0,24(s0)
    1e04:	6c676e6f          	jal	t3,784ca <_start-0x7ff87b36>
    1e08:	2e676e6f          	jal	t3,780ee <_start-0x7ff87f12>
    1e0c:	0068                	addi	a0,sp,12
    1e0e:	0002                	c.slli64	zero
    1e10:	0000                	unimp
    1e12:	0105                	addi	sp,sp,1
    1e14:	0500                	addi	s0,sp,640
    1e16:	ec02                	fsw	ft0,24(sp)
    1e18:	0019                	c.nop	6
    1e1a:	0380                	addi	s0,sp,448
    1e1c:	03050123          	sb	a6,34(a0)
    1e20:	00090103          	lb	sp,0(s2)
    1e24:	0100                	addi	s0,sp,128
    1e26:	00090003          	lb	zero,0(s2)
    1e2a:	0100                	addi	s0,sp,128
    1e2c:	0d05                	addi	s10,s10,1
    1e2e:	00090003          	lb	zero,0(s2)
    1e32:	0100                	addi	s0,sp,128
    1e34:	0305                	addi	t1,t1,1
    1e36:	00090103          	lb	sp,0(s2)
    1e3a:	0100                	addi	s0,sp,128
    1e3c:	00090003          	lb	zero,0(s2)
    1e40:	0100                	addi	s0,sp,128
    1e42:	00090003          	lb	zero,0(s2)
    1e46:	0100                	addi	s0,sp,128
    1e48:	00090003          	lb	zero,0(s2)
    1e4c:	0100                	addi	s0,sp,128
    1e4e:	00090103          	lb	sp,0(s2)
    1e52:	0100                	addi	s0,sp,128
    1e54:	00090003          	lb	zero,0(s2)
    1e58:	0100                	addi	s0,sp,128
    1e5a:	00090003          	lb	zero,0(s2)
    1e5e:	0100                	addi	s0,sp,128
    1e60:	00090003          	lb	zero,0(s2)
    1e64:	0100                	addi	s0,sp,128
    1e66:	00090103          	lb	sp,0(s2)
    1e6a:	0100                	addi	s0,sp,128
    1e6c:	00090003          	lb	zero,0(s2)
    1e70:	0100                	addi	s0,sp,128
    1e72:	00090003          	lb	zero,0(s2)
    1e76:	0100                	addi	s0,sp,128
    1e78:	00090003          	lb	zero,0(s2)
    1e7c:	0100                	addi	s0,sp,128
    1e7e:	00090103          	lb	sp,0(s2)
    1e82:	0100                	addi	s0,sp,128
    1e84:	00090203          	lb	tp,0(s2)
    1e88:	0100                	addi	s0,sp,128
    1e8a:	00090103          	lb	sp,0(s2)
    1e8e:	0100                	addi	s0,sp,128
    1e90:	00090003          	lb	zero,0(s2)
    1e94:	0100                	addi	s0,sp,128
    1e96:	00090003          	lb	zero,0(s2)
    1e9a:	0100                	addi	s0,sp,128
    1e9c:	00090003          	lb	zero,0(s2)
    1ea0:	0100                	addi	s0,sp,128
    1ea2:	00090003          	lb	zero,0(s2)
    1ea6:	0100                	addi	s0,sp,128
    1ea8:	0105                	addi	sp,sp,1
    1eaa:	0306                	slli	t1,t1,0x1
    1eac:	0978                	addi	a4,sp,156
    1eae:	0004                	0x4
    1eb0:	0501                	addi	a0,a0,0
    1eb2:	09080303          	lb	t1,144(a6)
    1eb6:	0004                	0x4
    1eb8:	0601                	addi	a2,a2,0
    1eba:	10090003          	lb	zero,256(s2)
    1ebe:	0100                	addi	s0,sp,128
    1ec0:	0105                	addi	sp,sp,1
    1ec2:	0306                	slli	t1,t1,0x1
    1ec4:	0978                	addi	a4,sp,156
    1ec6:	0000                	unimp
    1ec8:	0501                	addi	a0,a0,0
    1eca:	09090303          	lb	t1,144(s2)
    1ece:	0004                	0x4
    1ed0:	0501                	addi	a0,a0,0
    1ed2:	0301                	addi	t1,t1,0
    1ed4:	00040977          	0x40977
    1ed8:	0501                	addi	a0,a0,0
    1eda:	09080303          	lb	t1,144(a6)
    1ede:	0008                	0x8
    1ee0:	0501                	addi	a0,a0,0
    1ee2:	0301                	addi	t1,t1,0
    1ee4:	0978                	addi	a4,sp,156
    1ee6:	0008                	0x8
    1ee8:	0501                	addi	a0,a0,0
    1eea:	090a0303          	lb	t1,144(s4)
    1eee:	0008                	0x8
    1ef0:	0301                	addi	t1,t1,0
    1ef2:	097e                	slli	s2,s2,0x1f
    1ef4:	0004                	0x4
    1ef6:	0601                	addi	a2,a2,0
    1ef8:	04090003          	lb	zero,64(s2)
    1efc:	0100                	addi	s0,sp,128
    1efe:	00090003          	lb	zero,0(s2)
    1f02:	0100                	addi	s0,sp,128
    1f04:	00090003          	lb	zero,0(s2)
    1f08:	0100                	addi	s0,sp,128
    1f0a:	00090003          	lb	zero,0(s2)
    1f0e:	0100                	addi	s0,sp,128
    1f10:	00090003          	lb	zero,0(s2)
    1f14:	0100                	addi	s0,sp,128
    1f16:	04090003          	lb	zero,64(s2)
    1f1a:	0100                	addi	s0,sp,128
    1f1c:	00090003          	lb	zero,0(s2)
    1f20:	0100                	addi	s0,sp,128
    1f22:	00090103          	lb	sp,0(s2)
    1f26:	0100                	addi	s0,sp,128
    1f28:	00090003          	lb	zero,0(s2)
    1f2c:	0100                	addi	s0,sp,128
    1f2e:	00090003          	lb	zero,0(s2)
    1f32:	0100                	addi	s0,sp,128
    1f34:	00090003          	lb	zero,0(s2)
    1f38:	0100                	addi	s0,sp,128
    1f3a:	00090003          	lb	zero,0(s2)
    1f3e:	0100                	addi	s0,sp,128
    1f40:	00090003          	lb	zero,0(s2)
    1f44:	0100                	addi	s0,sp,128
    1f46:	04090003          	lb	zero,64(s2)
    1f4a:	0100                	addi	s0,sp,128
    1f4c:	04090003          	lb	zero,64(s2)
    1f50:	0100                	addi	s0,sp,128
    1f52:	00090003          	lb	zero,0(s2)
    1f56:	0100                	addi	s0,sp,128
    1f58:	00090003          	lb	zero,0(s2)
    1f5c:	0100                	addi	s0,sp,128
    1f5e:	00090003          	lb	zero,0(s2)
    1f62:	0100                	addi	s0,sp,128
    1f64:	04090003          	lb	zero,64(s2)
    1f68:	0100                	addi	s0,sp,128
    1f6a:	00090003          	lb	zero,0(s2)
    1f6e:	0100                	addi	s0,sp,128
    1f70:	00090103          	lb	sp,0(s2)
    1f74:	0100                	addi	s0,sp,128
    1f76:	00090003          	lb	zero,0(s2)
    1f7a:	0100                	addi	s0,sp,128
    1f7c:	0200                	addi	s0,sp,256
    1f7e:	0204                	addi	s1,sp,256
    1f80:	0306                	slli	t1,t1,0x1
    1f82:	0900                	addi	s0,sp,144
    1f84:	0004                	0x4
    1f86:	0001                	nop
    1f88:	0402                	c.slli64	s0
    1f8a:	00030603          	lb	a2,0(t1) # ffff9000 <__global_pointer$+0x7fff5398>
    1f8e:	0409                	addi	s0,s0,2
    1f90:	0100                	addi	s0,sp,128
    1f92:	0200                	addi	s0,sp,256
    1f94:	0b04                	addi	s1,sp,400
    1f96:	04090003          	lb	zero,64(s2)
    1f9a:	0100                	addi	s0,sp,128
    1f9c:	0200                	addi	s0,sp,256
    1f9e:	0b04                	addi	s1,sp,400
    1fa0:	00090003          	lb	zero,0(s2)
    1fa4:	0100                	addi	s0,sp,128
    1fa6:	0200                	addi	s0,sp,256
    1fa8:	0b04                	addi	s1,sp,400
    1faa:	00090003          	lb	zero,0(s2)
    1fae:	0100                	addi	s0,sp,128
    1fb0:	0200                	addi	s0,sp,256
    1fb2:	0b04                	addi	s1,sp,400
    1fb4:	00090003          	lb	zero,0(s2)
    1fb8:	0100                	addi	s0,sp,128
    1fba:	0200                	addi	s0,sp,256
    1fbc:	0b04                	addi	s1,sp,400
    1fbe:	00090003          	lb	zero,0(s2)
    1fc2:	0100                	addi	s0,sp,128
    1fc4:	0200                	addi	s0,sp,256
    1fc6:	0b04                	addi	s1,sp,400
    1fc8:	00090003          	lb	zero,0(s2)
    1fcc:	0100                	addi	s0,sp,128
    1fce:	0200                	addi	s0,sp,256
    1fd0:	0b04                	addi	s1,sp,400
    1fd2:	00090003          	lb	zero,0(s2)
    1fd6:	0100                	addi	s0,sp,128
    1fd8:	0200                	addi	s0,sp,256
    1fda:	0b04                	addi	s1,sp,400
    1fdc:	00090003          	lb	zero,0(s2)
    1fe0:	0100                	addi	s0,sp,128
    1fe2:	0200                	addi	s0,sp,256
    1fe4:	0c04                	addi	s1,sp,528
    1fe6:	08090003          	lb	zero,128(s2)
    1fea:	0100                	addi	s0,sp,128
    1fec:	0200                	addi	s0,sp,256
    1fee:	0c04                	addi	s1,sp,528
    1ff0:	00090003          	lb	zero,0(s2)
    1ff4:	0100                	addi	s0,sp,128
    1ff6:	0200                	addi	s0,sp,256
    1ff8:	0c04                	addi	s1,sp,528
    1ffa:	00090003          	lb	zero,0(s2)
    1ffe:	0100                	addi	s0,sp,128
    2000:	0200                	addi	s0,sp,256
    2002:	0e04                	addi	s1,sp,784
    2004:	04090003          	lb	zero,64(s2)
    2008:	0100                	addi	s0,sp,128
    200a:	0200                	addi	s0,sp,256
    200c:	0e04                	addi	s1,sp,784
    200e:	00090003          	lb	zero,0(s2)
    2012:	0100                	addi	s0,sp,128
    2014:	0200                	addi	s0,sp,256
    2016:	1004                	addi	s1,sp,32
    2018:	04090003          	lb	zero,64(s2)
    201c:	0100                	addi	s0,sp,128
    201e:	0200                	addi	s0,sp,256
    2020:	1304                	addi	s1,sp,416
    2022:	04090003          	lb	zero,64(s2)
    2026:	0100                	addi	s0,sp,128
    2028:	0200                	addi	s0,sp,256
    202a:	1304                	addi	s1,sp,416
    202c:	00090003          	lb	zero,0(s2)
    2030:	0100                	addi	s0,sp,128
    2032:	0200                	addi	s0,sp,256
    2034:	1304                	addi	s1,sp,416
    2036:	04090003          	lb	zero,64(s2)
    203a:	0100                	addi	s0,sp,128
    203c:	0200                	addi	s0,sp,256
    203e:	1c04                	addi	s1,sp,560
    2040:	04090003          	lb	zero,64(s2)
    2044:	0100                	addi	s0,sp,128
    2046:	0200                	addi	s0,sp,256
    2048:	1c04                	addi	s1,sp,560
    204a:	04090003          	lb	zero,64(s2)
    204e:	0100                	addi	s0,sp,128
    2050:	0200                	addi	s0,sp,256
    2052:	4004                	lw	s1,0(s0)
    2054:	0306                	slli	t1,t1,0x1
    2056:	097e                	slli	s2,s2,0x1f
    2058:	0000                	unimp
    205a:	0001                	nop
    205c:	0402                	c.slli64	s0
    205e:	0675                	addi	a2,a2,29
    2060:	04090203          	lb	tp,64(s2)
    2064:	0100                	addi	s0,sp,128
    2066:	0300                	addi	s0,sp,384
    2068:	b004                	fsd	fs1,32(s0)
    206a:	0301                	addi	t1,t1,0
    206c:	0900                	addi	s0,sp,144
    206e:	0008                	0x8
    2070:	0001                	nop
    2072:	01b00403          	lb	s0,27(zero) # 1b <_start-0x7fffffe5>
    2076:	00090003          	lb	zero,0(s2)
    207a:	0100                	addi	s0,sp,128
    207c:	0300                	addi	s0,sp,384
    207e:	b004                	fsd	fs1,32(s0)
    2080:	0301                	addi	t1,t1,0
    2082:	0900                	addi	s0,sp,144
    2084:	0004                	0x4
    2086:	0001                	nop
    2088:	01b00403          	lb	s0,27(zero) # 1b <_start-0x7fffffe5>
    208c:	00090003          	lb	zero,0(s2)
    2090:	0100                	addi	s0,sp,128
    2092:	0306                	slli	t1,t1,0x1
    2094:	0900                	addi	s0,sp,144
    2096:	0008                	0x8
    2098:	0001                	nop
    209a:	0402                	c.slli64	s0
    209c:	061d                	addi	a2,a2,7
    209e:	1c090003          	lb	zero,448(s2)
    20a2:	0100                	addi	s0,sp,128
    20a4:	0306                	slli	t1,t1,0x1
    20a6:	0900                	addi	s0,sp,144
    20a8:	0008                	0x8
    20aa:	0001                	nop
    20ac:	0402                	c.slli64	s0
    20ae:	0611                	addi	a2,a2,4
    20b0:	08090003          	lb	zero,128(s2)
    20b4:	0100                	addi	s0,sp,128
    20b6:	0200                	addi	s0,sp,256
    20b8:	2b04                	fld	fs1,16(a4)
    20ba:	08090003          	lb	zero,128(s2)
    20be:	0100                	addi	s0,sp,128
    20c0:	0200                	addi	s0,sp,256
    20c2:	3404                	fld	fs1,40(s0)
    20c4:	08090003          	lb	zero,128(s2)
    20c8:	0100                	addi	s0,sp,128
    20ca:	0200                	addi	s0,sp,256
    20cc:	3504                	fld	fs1,40(a0)
    20ce:	0c090003          	lb	zero,192(s2)
    20d2:	0100                	addi	s0,sp,128
    20d4:	0200                	addi	s0,sp,256
    20d6:	4004                	lw	s1,0(s0)
    20d8:	18090003          	lb	zero,384(s2)
    20dc:	0100                	addi	s0,sp,128
    20de:	0200                	addi	s0,sp,256
    20e0:	0f04                	addi	s1,sp,912
    20e2:	08090003          	lb	zero,128(s2)
    20e6:	0100                	addi	s0,sp,128
    20e8:	0200                	addi	s0,sp,256
    20ea:	4204                	lw	s1,0(a2)
    20ec:	04090003          	lb	zero,64(s2)
    20f0:	0100                	addi	s0,sp,128
    20f2:	0200                	addi	s0,sp,256
    20f4:	4204                	lw	s1,0(a2)
    20f6:	04090003          	lb	zero,64(s2)
    20fa:	0100                	addi	s0,sp,128
    20fc:	0200                	addi	s0,sp,256
    20fe:	4204                	lw	s1,0(a2)
    2100:	00090003          	lb	zero,0(s2)
    2104:	0100                	addi	s0,sp,128
    2106:	0200                	addi	s0,sp,256
    2108:	4404                	lw	s1,8(s0)
    210a:	04090003          	lb	zero,64(s2)
    210e:	0100                	addi	s0,sp,128
    2110:	0200                	addi	s0,sp,256
    2112:	4704                	lw	s1,8(a4)
    2114:	04090003          	lb	zero,64(s2)
    2118:	0100                	addi	s0,sp,128
    211a:	0200                	addi	s0,sp,256
    211c:	4704                	lw	s1,8(a4)
    211e:	00090003          	lb	zero,0(s2)
    2122:	0100                	addi	s0,sp,128
    2124:	0200                	addi	s0,sp,256
    2126:	4704                	lw	s1,8(a4)
    2128:	04090003          	lb	zero,64(s2)
    212c:	0100                	addi	s0,sp,128
    212e:	0200                	addi	s0,sp,256
    2130:	5004                	lw	s1,32(s0)
    2132:	04090003          	lb	zero,64(s2)
    2136:	0100                	addi	s0,sp,128
    2138:	0200                	addi	s0,sp,256
    213a:	5004                	lw	s1,32(s0)
    213c:	04090003          	lb	zero,64(s2)
    2140:	0100                	addi	s0,sp,128
    2142:	0200                	addi	s0,sp,256
    2144:	5104                	lw	s1,32(a0)
    2146:	04090003          	lb	zero,64(s2)
    214a:	0100                	addi	s0,sp,128
    214c:	0306                	slli	t1,t1,0x1
    214e:	097f                	0x97f
    2150:	0008                	0x8
    2152:	0001                	nop
    2154:	0402                	c.slli64	s0
    2156:	0645                	addi	a2,a2,17
    2158:	08090103          	lb	sp,128(s2)
    215c:	0100                	addi	s0,sp,128
    215e:	0200                	addi	s0,sp,256
    2160:	5f04                	lw	s1,56(a4)
    2162:	08090003          	lb	zero,128(s2)
    2166:	0100                	addi	s0,sp,128
    2168:	0200                	addi	s0,sp,256
    216a:	6804                	flw	fs1,16(s0)
    216c:	08090003          	lb	zero,128(s2)
    2170:	0100                	addi	s0,sp,128
    2172:	0200                	addi	s0,sp,256
    2174:	6904                	flw	fs1,16(a0)
    2176:	0c090003          	lb	zero,192(s2)
    217a:	0100                	addi	s0,sp,128
    217c:	0200                	addi	s0,sp,256
    217e:	7404                	flw	fs1,40(s0)
    2180:	18090003          	lb	zero,384(s2)
    2184:	0100                	addi	s0,sp,128
    2186:	0200                	addi	s0,sp,256
    2188:	4304                	lw	s1,0(a4)
    218a:	08090003          	lb	zero,128(s2)
    218e:	0100                	addi	s0,sp,128
    2190:	0200                	addi	s0,sp,256
    2192:	7604                	flw	fs1,40(a2)
    2194:	0c090003          	lb	zero,192(s2)
    2198:	0100                	addi	s0,sp,128
    219a:	0200                	addi	s0,sp,256
    219c:	7804                	flw	fs1,48(s0)
    219e:	04090003          	lb	zero,64(s2)
    21a2:	0100                	addi	s0,sp,128
    21a4:	0200                	addi	s0,sp,256
    21a6:	7804                	flw	fs1,48(s0)
    21a8:	00090003          	lb	zero,0(s2)
    21ac:	0100                	addi	s0,sp,128
    21ae:	0200                	addi	s0,sp,256
    21b0:	7b04                	flw	fs1,48(a4)
    21b2:	04090003          	lb	zero,64(s2)
    21b6:	0100                	addi	s0,sp,128
    21b8:	0300                	addi	s0,sp,384
    21ba:	8104                	0x8104
    21bc:	0301                	addi	t1,t1,0
    21be:	0900                	addi	s0,sp,144
    21c0:	0004                	0x4
    21c2:	0001                	nop
    21c4:	01810403          	lb	s0,24(sp)
    21c8:	00090003          	lb	zero,0(s2)
    21cc:	0100                	addi	s0,sp,128
    21ce:	0300                	addi	s0,sp,384
    21d0:	8104                	0x8104
    21d2:	0301                	addi	t1,t1,0
    21d4:	0900                	addi	s0,sp,144
    21d6:	0004                	0x4
    21d8:	0001                	nop
    21da:	01830403          	lb	s0,24(t1)
    21de:	08090003          	lb	zero,128(s2)
    21e2:	0100                	addi	s0,sp,128
    21e4:	0300                	addi	s0,sp,384
    21e6:	8304                	0x8304
    21e8:	0301                	addi	t1,t1,0
    21ea:	0900                	addi	s0,sp,144
    21ec:	000c                	0xc
    21ee:	0001                	nop
    21f0:	02fd0403          	lb	s0,47(s10)
    21f4:	04090003          	lb	zero,64(s2)
    21f8:	0100                	addi	s0,sp,128
    21fa:	0300                	addi	s0,sp,384
    21fc:	fd04                	fsw	fs1,56(a0)
    21fe:	0302                	c.slli64	t1
    2200:	0900                	addi	s0,sp,144
    2202:	0000                	unimp
    2204:	0001                	nop
    2206:	02fd0403          	lb	s0,47(s10)
    220a:	00090003          	lb	zero,0(s2)
    220e:	0100                	addi	s0,sp,128
    2210:	0300                	addi	s0,sp,384
    2212:	fd04                	fsw	fs1,56(a0)
    2214:	0302                	c.slli64	t1
    2216:	0901                	addi	s2,s2,0
    2218:	0000                	unimp
    221a:	0001                	nop
    221c:	02fd0403          	lb	s0,47(s10)
    2220:	00090003          	lb	zero,0(s2)
    2224:	0100                	addi	s0,sp,128
    2226:	0300                	addi	s0,sp,384
    2228:	fd04                	fsw	fs1,56(a0)
    222a:	0302                	c.slli64	t1
    222c:	0900                	addi	s0,sp,144
    222e:	0000                	unimp
    2230:	0001                	nop
    2232:	02fd0403          	lb	s0,47(s10)
    2236:	00090003          	lb	zero,0(s2)
    223a:	0100                	addi	s0,sp,128
    223c:	0300                	addi	s0,sp,384
    223e:	fd04                	fsw	fs1,56(a0)
    2240:	0302                	c.slli64	t1
    2242:	0900                	addi	s0,sp,144
    2244:	0000                	unimp
    2246:	0001                	nop
    2248:	0402                	c.slli64	s0
    224a:	0325                	addi	t1,t1,9
    224c:	0900                	addi	s0,sp,144
    224e:	0008                	0x8
    2250:	0001                	nop
    2252:	0402                	c.slli64	s0
    2254:	0325                	addi	t1,t1,9
    2256:	0900                	addi	s0,sp,144
    2258:	0000                	unimp
    225a:	0001                	nop
    225c:	0402                	c.slli64	s0
    225e:	0325                	addi	t1,t1,9
    2260:	0900                	addi	s0,sp,144
    2262:	0000                	unimp
    2264:	0001                	nop
    2266:	0402                	c.slli64	s0
    2268:	0325                	addi	t1,t1,9
    226a:	0900                	addi	s0,sp,144
    226c:	0000                	unimp
    226e:	0001                	nop
    2270:	0402                	c.slli64	s0
    2272:	032c                	addi	a1,sp,392
    2274:	0900                	addi	s0,sp,144
    2276:	000c                	0xc
    2278:	0001                	nop
    227a:	01940403          	lb	s0,25(s0)
    227e:	08097f03          	0x8097f03
    2282:	0100                	addi	s0,sp,128
    2284:	0300                	addi	s0,sp,384
    2286:	9404                	0x9404
    2288:	0301                	addi	t1,t1,0
    228a:	0900                	addi	s0,sp,144
    228c:	0000                	unimp
    228e:	0001                	nop
    2290:	01940403          	lb	s0,25(s0)
    2294:	00090003          	lb	zero,0(s2)
    2298:	0100                	addi	s0,sp,128
    229a:	0300                	addi	s0,sp,384
    229c:	9404                	0x9404
    229e:	0301                	addi	t1,t1,0
    22a0:	0900                	addi	s0,sp,144
    22a2:	0000                	unimp
    22a4:	0001                	nop
    22a6:	01940403          	lb	s0,25(s0)
    22aa:	00090003          	lb	zero,0(s2)
    22ae:	0100                	addi	s0,sp,128
    22b0:	0300                	addi	s0,sp,384
    22b2:	9404                	0x9404
    22b4:	0301                	addi	t1,t1,0
    22b6:	0900                	addi	s0,sp,144
    22b8:	0000                	unimp
    22ba:	0001                	nop
    22bc:	01940403          	lb	s0,25(s0)
    22c0:	00090003          	lb	zero,0(s2)
    22c4:	0100                	addi	s0,sp,128
    22c6:	0300                	addi	s0,sp,384
    22c8:	9404                	0x9404
    22ca:	0301                	addi	t1,t1,0
    22cc:	0900                	addi	s0,sp,144
    22ce:	0000                	unimp
    22d0:	0001                	nop
    22d2:	02ce0403          	lb	s0,44(t3) # 1a02c <_start-0x7ffe5fd4>
    22d6:	04090003          	lb	zero,64(s2)
    22da:	0100                	addi	s0,sp,128
    22dc:	0200                	addi	s0,sp,256
    22de:	7704                	flw	fs1,40(a4)
    22e0:	08090003          	lb	zero,128(s2)
    22e4:	0100                	addi	s0,sp,128
    22e6:	0200                	addi	s0,sp,256
    22e8:	7704                	flw	fs1,40(a4)
    22ea:	00090003          	lb	zero,0(s2)
    22ee:	0100                	addi	s0,sp,128
    22f0:	0200                	addi	s0,sp,256
    22f2:	7704                	flw	fs1,40(a4)
    22f4:	00090003          	lb	zero,0(s2)
    22f8:	0100                	addi	s0,sp,128
    22fa:	0200                	addi	s0,sp,256
    22fc:	7704                	flw	fs1,40(a4)
    22fe:	00090003          	lb	zero,0(s2)
    2302:	0100                	addi	s0,sp,128
    2304:	0306                	slli	t1,t1,0x1
    2306:	0900                	addi	s0,sp,144
    2308:	0008                	0x8
    230a:	0001                	nop
    230c:	0402                	c.slli64	s0
    230e:	060d                	addi	a2,a2,3
    2310:	10090003          	lb	zero,256(s2)
    2314:	0100                	addi	s0,sp,128
    2316:	0200                	addi	s0,sp,256
    2318:	0d04                	addi	s1,sp,656
    231a:	00090003          	lb	zero,0(s2)
    231e:	0100                	addi	s0,sp,128
    2320:	0300                	addi	s0,sp,384
    2322:	c204                	sw	s1,0(a2)
    2324:	0301                	addi	t1,t1,0
    2326:	0900                	addi	s0,sp,144
    2328:	0004                	0x4
    232a:	0001                	nop
    232c:	01c20403          	lb	s0,28(tp) # 1a01c <_start-0x7ffe5fe4>
    2330:	00090003          	lb	zero,0(s2)
    2334:	0100                	addi	s0,sp,128
    2336:	0300                	addi	s0,sp,384
    2338:	c204                	sw	s1,0(a2)
    233a:	0301                	addi	t1,t1,0
    233c:	0900                	addi	s0,sp,144
    233e:	0000                	unimp
    2340:	0001                	nop
    2342:	01c40403          	lb	s0,28(s0)
    2346:	04090003          	lb	zero,64(s2)
    234a:	0100                	addi	s0,sp,128
    234c:	0300                	addi	s0,sp,384
    234e:	c404                	sw	s1,8(s0)
    2350:	0601                	addi	a2,a2,0
    2352:	00097e03          	0x97e03
    2356:	0100                	addi	s0,sp,128
    2358:	0300                	addi	s0,sp,384
    235a:	c404                	sw	s1,8(s0)
    235c:	0301                	addi	t1,t1,0
    235e:	0902                	c.slli64	s2
    2360:	0004                	0x4
    2362:	0001                	nop
    2364:	01c70403          	lb	s0,28(a4)
    2368:	0306                	slli	t1,t1,0x1
    236a:	0900                	addi	s0,sp,144
    236c:	0004                	0x4
    236e:	0001                	nop
    2370:	01c70403          	lb	s0,28(a4)
    2374:	00090003          	lb	zero,0(s2)
    2378:	0100                	addi	s0,sp,128
    237a:	0300                	addi	s0,sp,384
    237c:	c704                	sw	s1,8(a4)
    237e:	0301                	addi	t1,t1,0
    2380:	0900                	addi	s0,sp,144
    2382:	0004                	0x4
    2384:	0001                	nop
    2386:	01d00403          	lb	s0,29(zero) # 1d <_start-0x7fffffe3>
    238a:	04090003          	lb	zero,64(s2)
    238e:	0100                	addi	s0,sp,128
    2390:	0300                	addi	s0,sp,384
    2392:	d004                	sw	s1,32(s0)
    2394:	0301                	addi	t1,t1,0
    2396:	0900                	addi	s0,sp,144
    2398:	0004                	0x4
    239a:	0001                	nop
    239c:	02a90403          	lb	s0,42(s2)
    23a0:	00090003          	lb	zero,0(s2)
    23a4:	0100                	addi	s0,sp,128
    23a6:	0300                	addi	s0,sp,384
    23a8:	e404                	fsw	fs1,8(s0)
    23aa:	0302                	c.slli64	t1
    23ac:	0900                	addi	s0,sp,144
    23ae:	0008                	0x8
    23b0:	0001                	nop
    23b2:	02e40403          	lb	s0,46(s0)
    23b6:	00090003          	lb	zero,0(s2)
    23ba:	0100                	addi	s0,sp,128
    23bc:	0300                	addi	s0,sp,384
    23be:	d104                	sw	s1,32(a0)
    23c0:	0301                	addi	t1,t1,0
    23c2:	0900                	addi	s0,sp,144
    23c4:	0014                	0x14
    23c6:	0001                	nop
    23c8:	01e80403          	lb	s0,30(a6)
    23cc:	0c090003          	lb	zero,192(s2)
    23d0:	0100                	addi	s0,sp,128
    23d2:	0300                	addi	s0,sp,384
    23d4:	e904                	fsw	fs1,16(a0)
    23d6:	0301                	addi	t1,t1,0
    23d8:	0900                	addi	s0,sp,144
    23da:	000c                	0xc
    23dc:	0001                	nop
    23de:	01f40403          	lb	s0,31(s0)
    23e2:	18090003          	lb	zero,384(s2)
    23e6:	0100                	addi	s0,sp,128
    23e8:	0300                	addi	s0,sp,384
    23ea:	f404                	fsw	fs1,40(s0)
    23ec:	0601                	addi	a2,a2,0
    23ee:	04097e03          	0x4097e03
    23f2:	0100                	addi	s0,sp,128
    23f4:	0300                	addi	s0,sp,384
    23f6:	c504                	sw	s1,8(a0)
    23f8:	0601                	addi	a2,a2,0
    23fa:	08090203          	lb	tp,128(s2)
    23fe:	0100                	addi	s0,sp,128
    2400:	0300                	addi	s0,sp,384
    2402:	df04                	sw	s1,56(a4)
    2404:	0301                	addi	t1,t1,0
    2406:	0900                	addi	s0,sp,144
    2408:	000c                	0xc
    240a:	0001                	nop
    240c:	01c30403          	lb	s0,28(t1)
    2410:	0c090003          	lb	zero,192(s2)
    2414:	0100                	addi	s0,sp,128
    2416:	0300                	addi	s0,sp,384
    2418:	f604                	fsw	fs1,40(a2)
    241a:	0301                	addi	t1,t1,0
    241c:	0900                	addi	s0,sp,144
    241e:	0004                	0x4
    2420:	0001                	nop
    2422:	01f60403          	lb	s0,31(a2) # b01f <_start-0x7fff4fe1>
    2426:	04090003          	lb	zero,64(s2)
    242a:	0100                	addi	s0,sp,128
    242c:	0300                	addi	s0,sp,384
    242e:	f604                	fsw	fs1,40(a2)
    2430:	0301                	addi	t1,t1,0
    2432:	0900                	addi	s0,sp,144
    2434:	0000                	unimp
    2436:	0001                	nop
    2438:	01f60403          	lb	s0,31(a2)
    243c:	00090003          	lb	zero,0(s2)
    2440:	0100                	addi	s0,sp,128
    2442:	0300                	addi	s0,sp,384
    2444:	f804                	fsw	fs1,48(s0)
    2446:	0301                	addi	t1,t1,0
    2448:	0900                	addi	s0,sp,144
    244a:	0004                	0x4
    244c:	0001                	nop
    244e:	01fb0403          	lb	s0,31(s6)
    2452:	04090003          	lb	zero,64(s2)
    2456:	0100                	addi	s0,sp,128
    2458:	0300                	addi	s0,sp,384
    245a:	fb04                	fsw	fs1,48(a4)
    245c:	0301                	addi	t1,t1,0
    245e:	0900                	addi	s0,sp,144
    2460:	0000                	unimp
    2462:	0001                	nop
    2464:	01fb0403          	lb	s0,31(s6)
    2468:	04090003          	lb	zero,64(s2)
    246c:	0100                	addi	s0,sp,128
    246e:	0300                	addi	s0,sp,384
    2470:	8404                	0x8404
    2472:	0302                	c.slli64	t1
    2474:	0900                	addi	s0,sp,144
    2476:	0004                	0x4
    2478:	0001                	nop
    247a:	02840403          	lb	s0,40(s0)
    247e:	04090003          	lb	zero,64(s2)
    2482:	0100                	addi	s0,sp,128
    2484:	0300                	addi	s0,sp,384
    2486:	8504                	0x8504
    2488:	0302                	c.slli64	t1
    248a:	0900                	addi	s0,sp,144
    248c:	0008                	0x8
    248e:	0601                	addi	a2,a2,0
    2490:	08097f03          	0x8097f03
    2494:	0100                	addi	s0,sp,128
    2496:	0300                	addi	s0,sp,384
    2498:	f904                	fsw	fs1,48(a0)
    249a:	0601                	addi	a2,a2,0
    249c:	0c090103          	lb	sp,192(s2)
    24a0:	0100                	addi	s0,sp,128
    24a2:	0300                	addi	s0,sp,384
    24a4:	9304                	0x9304
    24a6:	0302                	c.slli64	t1
    24a8:	0900                	addi	s0,sp,144
    24aa:	0008                	0x8
    24ac:	0001                	nop
    24ae:	029c0403          	lb	s0,41(s8)
    24b2:	08090003          	lb	zero,128(s2)
    24b6:	0100                	addi	s0,sp,128
    24b8:	0300                	addi	s0,sp,384
    24ba:	9d04                	0x9d04
    24bc:	0302                	c.slli64	t1
    24be:	0900                	addi	s0,sp,144
    24c0:	000c                	0xc
    24c2:	0001                	nop
    24c4:	02a80403          	lb	s0,42(a6)
    24c8:	18090003          	lb	zero,384(s2)
    24cc:	0100                	addi	s0,sp,128
    24ce:	0300                	addi	s0,sp,384
    24d0:	f704                	fsw	fs1,40(a4)
    24d2:	0301                	addi	t1,t1,0
    24d4:	0900                	addi	s0,sp,144
    24d6:	0008                	0x8
    24d8:	0001                	nop
    24da:	02aa0403          	lb	s0,42(s4)
    24de:	0c090003          	lb	zero,192(s2)
    24e2:	0100                	addi	s0,sp,128
    24e4:	0300                	addi	s0,sp,384
    24e6:	ac04                	fsd	fs1,24(s0)
    24e8:	0302                	c.slli64	t1
    24ea:	0900                	addi	s0,sp,144
    24ec:	0004                	0x4
    24ee:	0001                	nop
    24f0:	02ac0403          	lb	s0,42(s8)
    24f4:	00090003          	lb	zero,0(s2)
    24f8:	0100                	addi	s0,sp,128
    24fa:	0300                	addi	s0,sp,384
    24fc:	ae04                	fsd	fs1,24(a2)
    24fe:	0302                	c.slli64	t1
    2500:	0900                	addi	s0,sp,144
    2502:	0004                	0x4
    2504:	0001                	nop
    2506:	02ae0403          	lb	s0,42(t3)
    250a:	00090003          	lb	zero,0(s2)
    250e:	0100                	addi	s0,sp,128
    2510:	0306                	slli	t1,t1,0x1
    2512:	097f                	0x97f
    2514:	0004                	0x4
    2516:	0001                	nop
    2518:	02af0403          	lb	s0,42(t5)
    251c:	0306                	slli	t1,t1,0x1
    251e:	0901                	addi	s2,s2,0
    2520:	0008                	0x8
    2522:	0001                	nop
    2524:	02b60403          	lb	s0,43(a2)
    2528:	04090003          	lb	zero,64(s2)
    252c:	0100                	addi	s0,sp,128
    252e:	0300                	addi	s0,sp,384
    2530:	b604                	fsd	fs1,40(a2)
    2532:	0302                	c.slli64	t1
    2534:	0900                	addi	s0,sp,144
    2536:	0000                	unimp
    2538:	0001                	nop
    253a:	02b60403          	lb	s0,43(a2)
    253e:	04090003          	lb	zero,64(s2)
    2542:	0100                	addi	s0,sp,128
    2544:	0300                	addi	s0,sp,384
    2546:	b604                	fsd	fs1,40(a2)
    2548:	0302                	c.slli64	t1
    254a:	0900                	addi	s0,sp,144
    254c:	0000                	unimp
    254e:	0001                	nop
    2550:	02b80403          	lb	s0,43(a6)
    2554:	08090003          	lb	zero,128(s2)
    2558:	0100                	addi	s0,sp,128
    255a:	0300                	addi	s0,sp,384
    255c:	b804                	fsd	fs1,48(s0)
    255e:	0302                	c.slli64	t1
    2560:	0900                	addi	s0,sp,144
    2562:	0004                	0x4
    2564:	0001                	nop
    2566:	02b90403          	lb	s0,43(s2)
    256a:	08090003          	lb	zero,128(s2)
    256e:	0100                	addi	s0,sp,128
    2570:	0306                	slli	t1,t1,0x1
    2572:	0900                	addi	s0,sp,144
    2574:	0004                	0x4
    2576:	0001                	nop
    2578:	02cc0403          	lb	s0,44(s8)
    257c:	0306                	slli	t1,t1,0x1
    257e:	0900                	addi	s0,sp,144
    2580:	000c                	0xc
    2582:	0001                	nop
    2584:	02cc0403          	lb	s0,44(s8)
    2588:	00090003          	lb	zero,0(s2)
    258c:	0100                	addi	s0,sp,128
    258e:	0300                	addi	s0,sp,384
    2590:	cc04                	sw	s1,24(s0)
    2592:	0302                	c.slli64	t1
    2594:	0900                	addi	s0,sp,144
    2596:	0000                	unimp
    2598:	0001                	nop
    259a:	02cc0403          	lb	s0,44(s8)
    259e:	00090003          	lb	zero,0(s2)
    25a2:	0100                	addi	s0,sp,128
    25a4:	0300                	addi	s0,sp,384
    25a6:	cc04                	sw	s1,24(s0)
    25a8:	0302                	c.slli64	t1
    25aa:	0900                	addi	s0,sp,144
    25ac:	0000                	unimp
    25ae:	0001                	nop
    25b0:	02cc0403          	lb	s0,44(s8)
    25b4:	00090003          	lb	zero,0(s2)
    25b8:	0100                	addi	s0,sp,128
    25ba:	0300                	addi	s0,sp,384
    25bc:	cc04                	sw	s1,24(s0)
    25be:	0302                	c.slli64	t1
    25c0:	0900                	addi	s0,sp,144
    25c2:	0000                	unimp
    25c4:	0001                	nop
    25c6:	02cc0403          	lb	s0,44(s8)
    25ca:	00090003          	lb	zero,0(s2)
    25ce:	0100                	addi	s0,sp,128
    25d0:	0300                	addi	s0,sp,384
    25d2:	cd04                	sw	s1,24(a0)
    25d4:	0302                	c.slli64	t1
    25d6:	0900                	addi	s0,sp,144
    25d8:	0004                	0x4
    25da:	0601                	addi	a2,a2,0
    25dc:	04090003          	lb	zero,64(s2)
    25e0:	0100                	addi	s0,sp,128
    25e2:	0300                	addi	s0,sp,384
    25e4:	ab04                	fsd	fs1,16(a4)
    25e6:	0602                	c.slli64	a2
    25e8:	10090003          	lb	zero,256(s2)
    25ec:	0100                	addi	s0,sp,128
    25ee:	0300                	addi	s0,sp,384
    25f0:	ab04                	fsd	fs1,16(a4)
    25f2:	0302                	c.slli64	t1
    25f4:	0900                	addi	s0,sp,144
    25f6:	0000                	unimp
    25f8:	0001                	nop
    25fa:	02ab0403          	lb	s0,42(s6)
    25fe:	04090003          	lb	zero,64(s2)
    2602:	0100                	addi	s0,sp,128
    2604:	0300                	addi	s0,sp,384
    2606:	ab04                	fsd	fs1,16(a4)
    2608:	0302                	c.slli64	t1
    260a:	0900                	addi	s0,sp,144
    260c:	0000                	unimp
    260e:	0001                	nop
    2610:	02dd0403          	lb	s0,45(s10)
    2614:	08090003          	lb	zero,128(s2)
    2618:	0100                	addi	s0,sp,128
    261a:	0300                	addi	s0,sp,384
    261c:	dd04                	sw	s1,56(a0)
    261e:	0302                	c.slli64	t1
    2620:	0900                	addi	s0,sp,144
    2622:	0004                	0x4
    2624:	0001                	nop
    2626:	02e70403          	lb	s0,46(a4)
    262a:	04090003          	lb	zero,64(s2)
    262e:	0100                	addi	s0,sp,128
    2630:	0300                	addi	s0,sp,384
    2632:	e704                	fsw	fs1,8(a4)
    2634:	0302                	c.slli64	t1
    2636:	0900                	addi	s0,sp,144
    2638:	0000                	unimp
    263a:	0001                	nop
    263c:	02e70403          	lb	s0,46(a4)
    2640:	00090003          	lb	zero,0(s2)
    2644:	0100                	addi	s0,sp,128
    2646:	0300                	addi	s0,sp,384
    2648:	e704                	fsw	fs1,8(a4)
    264a:	0302                	c.slli64	t1
    264c:	0900                	addi	s0,sp,144
    264e:	0000                	unimp
    2650:	0001                	nop
    2652:	02e70403          	lb	s0,46(a4)
    2656:	08090003          	lb	zero,128(s2)
    265a:	0100                	addi	s0,sp,128
    265c:	0300                	addi	s0,sp,384
    265e:	e704                	fsw	fs1,8(a4)
    2660:	0302                	c.slli64	t1
    2662:	0900                	addi	s0,sp,144
    2664:	0000                	unimp
    2666:	0001                	nop
    2668:	02e70403          	lb	s0,46(a4)
    266c:	04090003          	lb	zero,64(s2)
    2670:	0100                	addi	s0,sp,128
    2672:	0300                	addi	s0,sp,384
    2674:	e704                	fsw	fs1,8(a4)
    2676:	0302                	c.slli64	t1
    2678:	0900                	addi	s0,sp,144
    267a:	0000                	unimp
    267c:	0001                	nop
    267e:	02e70403          	lb	s0,46(a4)
    2682:	00090003          	lb	zero,0(s2)
    2686:	0100                	addi	s0,sp,128
    2688:	0300                	addi	s0,sp,384
    268a:	e704                	fsw	fs1,8(a4)
    268c:	0302                	c.slli64	t1
    268e:	0900                	addi	s0,sp,144
    2690:	0004                	0x4
    2692:	0001                	nop
    2694:	02e70403          	lb	s0,46(a4)
    2698:	00090003          	lb	zero,0(s2)
    269c:	0100                	addi	s0,sp,128
    269e:	0300                	addi	s0,sp,384
    26a0:	f404                	fsw	fs1,40(s0)
    26a2:	0302                	c.slli64	t1
    26a4:	0900                	addi	s0,sp,144
    26a6:	0004                	0x4
    26a8:	0001                	nop
    26aa:	02f40403          	lb	s0,47(s0)
    26ae:	08090003          	lb	zero,128(s2)
    26b2:	0100                	addi	s0,sp,128
    26b4:	0300                	addi	s0,sp,384
    26b6:	f404                	fsw	fs1,40(s0)
    26b8:	0302                	c.slli64	t1
    26ba:	0900                	addi	s0,sp,144
    26bc:	0018                	0x18
    26be:	0001                	nop
    26c0:	02de0403          	lb	s0,45(t3)
    26c4:	08090003          	lb	zero,128(s2)
    26c8:	0100                	addi	s0,sp,128
    26ca:	0306                	slli	t1,t1,0x1
    26cc:	0900                	addi	s0,sp,144
    26ce:	0004                	0x4
    26d0:	0001                	nop
    26d2:	02f50403          	lb	s0,47(a0)
    26d6:	0306                	slli	t1,t1,0x1
    26d8:	0900                	addi	s0,sp,144
    26da:	000c                	0xc
    26dc:	0001                	nop
    26de:	02f50403          	lb	s0,47(a0)
    26e2:	0c090003          	lb	zero,192(s2)
    26e6:	0100                	addi	s0,sp,128
    26e8:	0306                	slli	t1,t1,0x1
    26ea:	097e                	slli	s2,s2,0x1f
    26ec:	0008                	0x8
    26ee:	0301                	addi	t1,t1,0
    26f0:	0901                	addi	s2,s2,0
    26f2:	0008                	0x8
    26f4:	0001                	nop
    26f6:	0402                	c.slli64	s0
    26f8:	0203062f          	0x203062f
    26fc:	1009                	c.nop	-30
    26fe:	0100                	addi	s0,sp,128
    2700:	0200                	addi	s0,sp,256
    2702:	2f04                	fld	fs1,24(a4)
    2704:	00090003          	lb	zero,0(s2)
    2708:	0100                	addi	s0,sp,128
    270a:	0200                	addi	s0,sp,256
    270c:	2f04                	fld	fs1,24(a4)
    270e:	00090003          	lb	zero,0(s2)
    2712:	0100                	addi	s0,sp,128
    2714:	0200                	addi	s0,sp,256
    2716:	3f04                	fld	fs1,56(a4)
    2718:	08090003          	lb	zero,128(s2)
    271c:	0100                	addi	s0,sp,128
    271e:	0200                	addi	s0,sp,256
    2720:	3f04                	fld	fs1,56(a4)
    2722:	00090003          	lb	zero,0(s2)
    2726:	0100                	addi	s0,sp,128
    2728:	0200                	addi	s0,sp,256
    272a:	3f04                	fld	fs1,56(a4)
    272c:	04090003          	lb	zero,64(s2)
    2730:	0100                	addi	s0,sp,128
    2732:	0306                	slli	t1,t1,0x1
    2734:	0900                	addi	s0,sp,144
    2736:	0008                	0x8
    2738:	0001                	nop
    273a:	0402                	c.slli64	s0
    273c:	0003064f          	fnmadd.s	fa2,ft6,ft0,ft0,rne
    2740:	0c09                	addi	s8,s8,2
    2742:	0100                	addi	s0,sp,128
    2744:	0200                	addi	s0,sp,256
    2746:	4f04                	lw	s1,24(a4)
    2748:	00090003          	lb	zero,0(s2)
    274c:	0100                	addi	s0,sp,128
    274e:	0200                	addi	s0,sp,256
    2750:	4f04                	lw	s1,24(a4)
    2752:	08090003          	lb	zero,128(s2)
    2756:	0100                	addi	s0,sp,128
    2758:	0200                	addi	s0,sp,256
    275a:	5004                	lw	s1,32(s0)
    275c:	0306                	slli	t1,t1,0x1
    275e:	0900                	addi	s0,sp,144
    2760:	0004                	0x4
    2762:	0301                	addi	t1,t1,0
    2764:	0900                	addi	s0,sp,144
    2766:	0004                	0x4
    2768:	0001                	nop
    276a:	0402                	c.slli64	s0
    276c:	065a                	slli	a2,a2,0x16
    276e:	08090003          	lb	zero,128(s2)
    2772:	0100                	addi	s0,sp,128
    2774:	0200                	addi	s0,sp,256
    2776:	5a04                	lw	s1,48(a2)
    2778:	00090003          	lb	zero,0(s2)
    277c:	0100                	addi	s0,sp,128
    277e:	0200                	addi	s0,sp,256
    2780:	5a04                	lw	s1,48(a2)
    2782:	00090003          	lb	zero,0(s2)
    2786:	0100                	addi	s0,sp,128
    2788:	0200                	addi	s0,sp,256
    278a:	5a04                	lw	s1,48(a2)
    278c:	00090003          	lb	zero,0(s2)
    2790:	0100                	addi	s0,sp,128
    2792:	0200                	addi	s0,sp,256
    2794:	5a04                	lw	s1,48(a2)
    2796:	00090003          	lb	zero,0(s2)
    279a:	0100                	addi	s0,sp,128
    279c:	0200                	addi	s0,sp,256
    279e:	5a04                	lw	s1,48(a2)
    27a0:	00090003          	lb	zero,0(s2)
    27a4:	0100                	addi	s0,sp,128
    27a6:	0200                	addi	s0,sp,256
    27a8:	5a04                	lw	s1,48(a2)
    27aa:	00090003          	lb	zero,0(s2)
    27ae:	0100                	addi	s0,sp,128
    27b0:	0105                	addi	sp,sp,1
    27b2:	0200                	addi	s0,sp,256
    27b4:	5a04                	lw	s1,48(a2)
    27b6:	0306                	slli	t1,t1,0x1
    27b8:	0904                	addi	s1,sp,144
    27ba:	0000                	unimp
    27bc:	0501                	addi	a0,a0,0
    27be:	04020003          	lb	zero,64(tp) # 40 <_start-0x7fffffc0>
    27c2:	035a                	slli	t1,t1,0x16
    27c4:	097c                	addi	a5,sp,156
    27c6:	0008                	0x8
    27c8:	0001                	nop
    27ca:	0402                	c.slli64	s0
    27cc:	065a                	slli	a2,a2,0x16
    27ce:	1c090003          	lb	zero,448(s2)
    27d2:	0100                	addi	s0,sp,128
    27d4:	0200                	addi	s0,sp,256
    27d6:	5a04                	lw	s1,48(a2)
    27d8:	00090003          	lb	zero,0(s2)
    27dc:	0100                	addi	s0,sp,128
    27de:	0200                	addi	s0,sp,256
    27e0:	5a04                	lw	s1,48(a2)
    27e2:	00090003          	lb	zero,0(s2)
    27e6:	0100                	addi	s0,sp,128
    27e8:	0200                	addi	s0,sp,256
    27ea:	5a04                	lw	s1,48(a2)
    27ec:	00090103          	lb	sp,0(s2)
    27f0:	0100                	addi	s0,sp,128
    27f2:	0200                	addi	s0,sp,256
    27f4:	5a04                	lw	s1,48(a2)
    27f6:	00090003          	lb	zero,0(s2)
    27fa:	0100                	addi	s0,sp,128
    27fc:	0200                	addi	s0,sp,256
    27fe:	5a04                	lw	s1,48(a2)
    2800:	00090003          	lb	zero,0(s2)
    2804:	0100                	addi	s0,sp,128
    2806:	0200                	addi	s0,sp,256
    2808:	5a04                	lw	s1,48(a2)
    280a:	00090203          	lb	tp,0(s2)
    280e:	0100                	addi	s0,sp,128
    2810:	0105                	addi	sp,sp,1
    2812:	0200                	addi	s0,sp,256
    2814:	5a04                	lw	s1,48(a2)
    2816:	0306                	slli	t1,t1,0x1
    2818:	0901                	addi	s2,s2,0
    281a:	0000                	unimp
    281c:	0901                	addi	s2,s2,0
    281e:	0024                	addi	s1,sp,8
    2820:	0100                	addi	s0,sp,128
    2822:	c301                	beqz	a4,2822 <_start-0x7fffd7de>
    2824:	0001                	nop
    2826:	0300                	addi	s0,sp,384
    2828:	a800                	fsd	fs0,16(s0)
    282a:	0000                	unimp
    282c:	0100                	addi	s0,sp,128
    282e:	fb01                	bnez	a4,273e <_start-0x7fffd8c2>
    2830:	0d0e                	slli	s10,s10,0x3
    2832:	0100                	addi	s0,sp,128
    2834:	0101                	addi	sp,sp,0
    2836:	0001                	nop
    2838:	0000                	unimp
    283a:	0001                	nop
    283c:	0100                	addi	s0,sp,128
    283e:	2e2e                	fld	ft8,200(sp)
    2840:	2f2e2e2f          	0x2f2e2e2f
    2844:	2e2e                	fld	ft8,200(sp)
    2846:	2f2e2e2f          	0x2f2e2e2f
    284a:	6972                	flw	fs2,28(sp)
    284c:	2d766373          	csrrsi	t1,0x2d7,12
    2850:	2f636367          	0x2f636367
    2854:	696c                	flw	fa1,84(a0)
    2856:	6762                	flw	fa4,24(sp)
    2858:	732f6363          	bltu	t5,s2,2f7e <_start-0x7fffd082>
    285c:	2d74666f          	jal	a2,49332 <_start-0x7ffb6cce>
    2860:	7066                	flw	ft0,120(sp)
    2862:	2e00                	fld	fs0,24(a2)
    2864:	2e00                	fld	fs0,24(a2)
    2866:	2f2e                	fld	ft10,200(sp)
    2868:	2e2e                	fld	ft8,200(sp)
    286a:	2f2e2e2f          	0x2f2e2e2f
    286e:	2e2e                	fld	ft8,200(sp)
    2870:	7369722f          	0x7369722f
    2874:	672d7663          	bgeu	s10,s2,2ee0 <_start-0x7fffd120>
    2878:	6c2f6363          	bltu	t5,sp,2f3e <_start-0x7fffd0c2>
    287c:	6269                	lui	tp,0x1a
    287e:	2f636367          	0x2f636367
    2882:	2e2e                	fld	ft8,200(sp)
    2884:	636e692f          	0x636e692f
    2888:	756c                	flw	fa1,108(a0)
    288a:	6564                	flw	fs1,76(a0)
    288c:	0000                	unimp
    288e:	6e75                	lui	t3,0x1d
    2890:	7364726f          	jal	tp,49fc6 <_start-0x7ffb603a>
    2894:	3266                	fld	ft4,120(sp)
    2896:	632e                	flw	ft6,200(sp)
    2898:	0100                	addi	s0,sp,128
    289a:	0000                	unimp
    289c:	2d706673          	csrrsi	a2,0x2d7,0
    28a0:	616d                	addi	sp,sp,240
    28a2:	6e696863          	bltu	s2,t1,2f92 <_start-0x7fffd06e>
    28a6:	2e65                	jal	2c5e <_start-0x7fffd3a2>
    28a8:	0068                	addi	a0,sp,12
    28aa:	0002                	c.slli64	zero
    28ac:	7300                	flw	fs0,32(a4)
    28ae:	2d74666f          	jal	a2,49384 <_start-0x7ffb6c7c>
    28b2:	7066                	flw	ft0,120(sp)
    28b4:	682e                	flw	fa6,200(sp)
    28b6:	0100                	addi	s0,sp,128
    28b8:	0000                	unimp
    28ba:	676e6973          	csrrsi	s2,0x676,28
    28be:	656c                	flw	fa1,76(a0)
    28c0:	682e                	flw	fa6,200(sp)
    28c2:	0100                	addi	s0,sp,128
    28c4:	0000                	unimp
    28c6:	6f6c                	flw	fa1,92(a4)
    28c8:	676e                	flw	fa4,216(sp)
    28ca:	6f6c                	flw	fa1,92(a4)
    28cc:	676e                	flw	fa4,216(sp)
    28ce:	682e                	flw	fa6,200(sp)
    28d0:	0300                	addi	s0,sp,384
    28d2:	0000                	unimp
    28d4:	0500                	addi	s0,sp,640
    28d6:	0001                	nop
    28d8:	0205                	addi	tp,tp,1
    28da:	1e38                	addi	a4,sp,824
    28dc:	8000                	0x8000
    28de:	05012203          	lw	tp,80(sp)
    28e2:	09010303          	lb	t1,144(sp)
    28e6:	0000                	unimp
    28e8:	0301                	addi	t1,t1,0
    28ea:	0900                	addi	s0,sp,144
    28ec:	0000                	unimp
    28ee:	0501                	addi	a0,a0,0
    28f0:	030d                	addi	t1,t1,3
    28f2:	0900                	addi	s0,sp,144
    28f4:	0000                	unimp
    28f6:	0501                	addi	a0,a0,0
    28f8:	09010303          	lb	t1,144(sp)
    28fc:	0000                	unimp
    28fe:	0301                	addi	t1,t1,0
    2900:	0900                	addi	s0,sp,144
    2902:	0000                	unimp
    2904:	0301                	addi	t1,t1,0
    2906:	0900                	addi	s0,sp,144
    2908:	0000                	unimp
    290a:	0301                	addi	t1,t1,0
    290c:	0900                	addi	s0,sp,144
    290e:	0000                	unimp
    2910:	0301                	addi	t1,t1,0
    2912:	0901                	addi	s2,s2,0
    2914:	0000                	unimp
    2916:	0301                	addi	t1,t1,0
    2918:	0900                	addi	s0,sp,144
    291a:	0000                	unimp
    291c:	0301                	addi	t1,t1,0
    291e:	0900                	addi	s0,sp,144
    2920:	0000                	unimp
    2922:	0301                	addi	t1,t1,0
    2924:	0900                	addi	s0,sp,144
    2926:	0000                	unimp
    2928:	0301                	addi	t1,t1,0
    292a:	0901                	addi	s2,s2,0
    292c:	0000                	unimp
    292e:	0301                	addi	t1,t1,0
    2930:	0902                	c.slli64	s2
    2932:	0000                	unimp
    2934:	0301                	addi	t1,t1,0
    2936:	0901                	addi	s2,s2,0
    2938:	0000                	unimp
    293a:	0301                	addi	t1,t1,0
    293c:	0900                	addi	s0,sp,144
    293e:	0000                	unimp
    2940:	0301                	addi	t1,t1,0
    2942:	0900                	addi	s0,sp,144
    2944:	0000                	unimp
    2946:	0301                	addi	t1,t1,0
    2948:	0900                	addi	s0,sp,144
    294a:	0000                	unimp
    294c:	0301                	addi	t1,t1,0
    294e:	0900                	addi	s0,sp,144
    2950:	000c                	0xc
    2952:	0301                	addi	t1,t1,0
    2954:	0900                	addi	s0,sp,144
    2956:	0000                	unimp
    2958:	0301                	addi	t1,t1,0
    295a:	0900                	addi	s0,sp,144
    295c:	0000                	unimp
    295e:	0301                	addi	t1,t1,0
    2960:	0901                	addi	s2,s2,0
    2962:	0000                	unimp
    2964:	0301                	addi	t1,t1,0
    2966:	0900                	addi	s0,sp,144
    2968:	0000                	unimp
    296a:	0301                	addi	t1,t1,0
    296c:	0900                	addi	s0,sp,144
    296e:	0000                	unimp
    2970:	0301                	addi	t1,t1,0
    2972:	0900                	addi	s0,sp,144
    2974:	0000                	unimp
    2976:	0601                	addi	a2,a2,0
    2978:	00090103          	lb	sp,0(s2)
    297c:	0100                	addi	s0,sp,128
    297e:	04097f03          	0x4097f03
    2982:	0100                	addi	s0,sp,128
    2984:	0306                	slli	t1,t1,0x1
    2986:	0900                	addi	s0,sp,144
    2988:	0004                	0x4
    298a:	0601                	addi	a2,a2,0
    298c:	00090103          	lb	sp,0(s2)
    2990:	0100                	addi	s0,sp,128
    2992:	0306                	slli	t1,t1,0x1
    2994:	097f                	0x97f
    2996:	0010                	0x10
    2998:	0301                	addi	t1,t1,0
    299a:	0900                	addi	s0,sp,144
    299c:	0000                	unimp
    299e:	0301                	addi	t1,t1,0
    29a0:	0901                	addi	s2,s2,0
    29a2:	0000                	unimp
    29a4:	0301                	addi	t1,t1,0
    29a6:	0900                	addi	s0,sp,144
    29a8:	0000                	unimp
    29aa:	0301                	addi	t1,t1,0
    29ac:	0900                	addi	s0,sp,144
    29ae:	0000                	unimp
    29b0:	0301                	addi	t1,t1,0
    29b2:	0900                	addi	s0,sp,144
    29b4:	0000                	unimp
    29b6:	0301                	addi	t1,t1,0
    29b8:	0900                	addi	s0,sp,144
    29ba:	0000                	unimp
    29bc:	0001                	nop
    29be:	0402                	c.slli64	s0
    29c0:	0614                	addi	a3,sp,768
    29c2:	08090003          	lb	zero,128(s2)
    29c6:	0100                	addi	s0,sp,128
    29c8:	0200                	addi	s0,sp,256
    29ca:	1704                	addi	s1,sp,928
    29cc:	04090003          	lb	zero,64(s2)
    29d0:	0100                	addi	s0,sp,128
    29d2:	0200                	addi	s0,sp,256
    29d4:	1804                	addi	s1,sp,48
    29d6:	0c090003          	lb	zero,192(s2)
    29da:	0100                	addi	s0,sp,128
    29dc:	0105                	addi	sp,sp,1
    29de:	04090403          	lb	s0,64(s2)
    29e2:	0100                	addi	s0,sp,128
    29e4:	0409                	addi	s0,s0,2
    29e6:	0000                	unimp
    29e8:	0101                	addi	sp,sp,0
    29ea:	02b0                	addi	a2,sp,328
    29ec:	0000                	unimp
    29ee:	021e0003          	lb	zero,33(t3) # 1d021 <_start-0x7ffe2fdf>
    29f2:	0000                	unimp
    29f4:	0101                	addi	sp,sp,0
    29f6:	000d0efb          	0xd0efb
    29fa:	0101                	addi	sp,sp,0
    29fc:	0101                	addi	sp,sp,0
    29fe:	0000                	unimp
    2a00:	0100                	addi	s0,sp,128
    2a02:	0000                	unimp
    2a04:	2e01                	jal	2d14 <_start-0x7fffd2ec>
    2a06:	2f2e                	fld	ft10,200(sp)
    2a08:	2e2e                	fld	ft8,200(sp)
    2a0a:	2f2e2e2f          	0x2f2e2e2f
    2a0e:	2e2e                	fld	ft8,200(sp)
    2a10:	7369722f          	0x7369722f
    2a14:	672d7663          	bgeu	s10,s2,3080 <_start-0x7fffcf80>
    2a18:	6c2f6363          	bltu	t5,sp,30de <_start-0x7fffcf22>
    2a1c:	6269                	lui	tp,0x1a
    2a1e:	00636367          	0x636367
    2a22:	6d6f682f          	0x6d6f682f
    2a26:	2f65                	jal	31de <_start-0x7fffce22>
    2a28:	6c62                	flw	fs8,24(sp)
    2a2a:	6961                	lui	s2,0x18
    2a2c:	642f6573          	csrrsi	a0,0x642,30
    2a30:	7665                	lui	a2,0xffff9
    2a32:	7369722f          	0x7369722f
    2a36:	672d7663          	bgeu	s10,s2,30a2 <_start-0x7fffcf5e>
    2a3a:	756e                	flw	fa0,248(sp)
    2a3c:	742d                	lui	s0,0xfffeb
    2a3e:	636c6f6f          	jal	t5,c9074 <_start-0x7ff36f8c>
    2a42:	6168                	flw	fa0,68(a0)
    2a44:	6e69                	lui	t3,0x1a
    2a46:	2f32                	fld	ft10,264(sp)
    2a48:	7562                	flw	fa0,56(sp)
    2a4a:	6c69                	lui	s8,0x1a
    2a4c:	2f64                	fld	fs1,216(a4)
    2a4e:	7562                	flw	fa0,56(sp)
    2a50:	6c69                	lui	s8,0x1a
    2a52:	2d64                	fld	fs1,216(a0)
    2a54:	2d636367          	0x2d636367
    2a58:	656e                	flw	fa0,216(sp)
    2a5a:	62696c77          	0x62696c77
    2a5e:	732d                	lui	t1,0xfffeb
    2a60:	6174                	flw	fa3,68(a0)
    2a62:	2f326567          	0x2f326567
    2a66:	2f636367          	0x2f636367
    2a6a:	6e69                	lui	t3,0x1a
    2a6c:	64756c63          	bltu	a0,t2,30c4 <_start-0x7fffcf3c>
    2a70:	0065                	c.nop	25
    2a72:	6d6f682f          	0x6d6f682f
    2a76:	2f65                	jal	322e <_start-0x7fffcdd2>
    2a78:	6c62                	flw	fs8,24(sp)
    2a7a:	6961                	lui	s2,0x18
    2a7c:	642f6573          	csrrsi	a0,0x642,30
    2a80:	7665                	lui	a2,0xffff9
    2a82:	7369722f          	0x7369722f
    2a86:	672d7663          	bgeu	s10,s2,30f2 <_start-0x7fffcf0e>
    2a8a:	756e                	flw	fa0,248(sp)
    2a8c:	742d                	lui	s0,0xfffeb
    2a8e:	636c6f6f          	jal	t5,c90c4 <_start-0x7ff36f3c>
    2a92:	6168                	flw	fa0,68(a0)
    2a94:	6e69                	lui	t3,0x1a
    2a96:	2f32                	fld	ft10,264(sp)
    2a98:	7264                	flw	fs1,100(a2)
    2a9a:	2f73706f          	j	3a590 <_start-0x7ffc5a70>
    2a9e:	6972                	flw	fs2,28(sp)
    2aa0:	33766373          	csrrsi	t1,mhpmevent23,12
    2aa4:	2d32                	fld	fs10,264(sp)
    2aa6:	6e75                	lui	t3,0x1d
    2aa8:	776f6e6b          	0x776f6e6b
    2aac:	2d6e                	fld	fs10,216(sp)
    2aae:	6c65                	lui	s8,0x19
    2ab0:	2f66                	fld	ft10,88(sp)
    2ab2:	6e69                	lui	t3,0x1a
    2ab4:	64756c63          	bltu	a0,t2,310c <_start-0x7fffcef4>
    2ab8:	2f65                	jal	3270 <_start-0x7fffcd90>
    2aba:	00737973          	csrrci	s2,0x7,6
    2abe:	6d6f682f          	0x6d6f682f
    2ac2:	2f65                	jal	327a <_start-0x7fffcd86>
    2ac4:	6c62                	flw	fs8,24(sp)
    2ac6:	6961                	lui	s2,0x18
    2ac8:	642f6573          	csrrsi	a0,0x642,30
    2acc:	7665                	lui	a2,0xffff9
    2ace:	7369722f          	0x7369722f
    2ad2:	672d7663          	bgeu	s10,s2,313e <_start-0x7fffcec2>
    2ad6:	756e                	flw	fa0,248(sp)
    2ad8:	742d                	lui	s0,0xfffeb
    2ada:	636c6f6f          	jal	t5,c9110 <_start-0x7ff36ef0>
    2ade:	6168                	flw	fa0,68(a0)
    2ae0:	6e69                	lui	t3,0x1a
    2ae2:	2f32                	fld	ft10,264(sp)
    2ae4:	7264                	flw	fs1,100(a2)
    2ae6:	2f73706f          	j	3a5dc <_start-0x7ffc5a24>
    2aea:	6972                	flw	fs2,28(sp)
    2aec:	33766373          	csrrsi	t1,mhpmevent23,12
    2af0:	2d32                	fld	fs10,264(sp)
    2af2:	6e75                	lui	t3,0x1d
    2af4:	776f6e6b          	0x776f6e6b
    2af8:	2d6e                	fld	fs10,216(sp)
    2afa:	6c65                	lui	s8,0x19
    2afc:	2f66                	fld	ft10,88(sp)
    2afe:	6e69                	lui	t3,0x1a
    2b00:	64756c63          	bltu	a0,t2,3158 <_start-0x7fffcea8>
    2b04:	0065                	c.nop	25
    2b06:	2e2e                	fld	ft8,200(sp)
    2b08:	2f2e2e2f          	0x2f2e2e2f
    2b0c:	2e2e                	fld	ft8,200(sp)
    2b0e:	2f2e2e2f          	0x2f2e2e2f
    2b12:	6972                	flw	fs2,28(sp)
    2b14:	2d766373          	csrrsi	t1,0x2d7,12
    2b18:	2f636367          	0x2f636367
    2b1c:	696c                	flw	fa1,84(a0)
    2b1e:	6762                	flw	fa4,24(sp)
    2b20:	2e2f6363          	bltu	t5,sp,2e06 <_start-0x7fffd1fa>
    2b24:	2f2e                	fld	ft10,200(sp)
    2b26:	6e69                	lui	t3,0x1a
    2b28:	64756c63          	bltu	a0,t2,3180 <_start-0x7fffce80>
    2b2c:	0065                	c.nop	25
    2b2e:	2e2e                	fld	ft8,200(sp)
    2b30:	2f2e2e2f          	0x2f2e2e2f
    2b34:	2e2e                	fld	ft8,200(sp)
    2b36:	2f2e2e2f          	0x2f2e2e2f
    2b3a:	6972                	flw	fs2,28(sp)
    2b3c:	2d766373          	csrrsi	t1,0x2d7,12
    2b40:	2f636367          	0x2f636367
    2b44:	696c                	flw	fa1,84(a0)
    2b46:	6762                	flw	fa4,24(sp)
    2b48:	2e2f6363          	bltu	t5,sp,2e2e <_start-0x7fffd1d2>
    2b4c:	2f2e                	fld	ft10,200(sp)
    2b4e:	2f636367          	0x2f636367
    2b52:	666e6f63          	bltu	t3,t1,31d0 <_start-0x7fffce30>
    2b56:	6769                	lui	a4,0x1a
    2b58:	7369722f          	0x7369722f
    2b5c:	2e007663          	bgeu	zero,zero,2e48 <_start-0x7fffd1b8>
    2b60:	2f2e                	fld	ft10,200(sp)
    2b62:	2e2e                	fld	ft8,200(sp)
    2b64:	672f2e2f          	amoand.w.aqrl	t3,s2,(t5)
    2b68:	00006363          	bltu	zero,zero,2b6e <_start-0x7fffd492>
    2b6c:	696c                	flw	fa1,84(a0)
    2b6e:	6762                	flw	fa4,24(sp)
    2b70:	2e326363          	bltu	tp,gp,2e56 <_start-0x7fffd1aa>
    2b74:	00010063          	beqz	sp,2b74 <_start-0x7fffd48c>
    2b78:	7300                	flw	fs0,32(a4)
    2b7a:	6474                	flw	fa3,76(s0)
    2b7c:	6564                	flw	fs1,76(a0)
    2b7e:	2e66                	fld	ft8,88(sp)
    2b80:	0068                	addi	a0,sp,12
    2b82:	0002                	c.slli64	zero
    2b84:	5f00                	lw	s0,56(a4)
    2b86:	7974                	flw	fa3,116(a0)
    2b88:	6570                	flw	fa2,76(a0)
    2b8a:	00682e73          	csrrs	t3,0x6,a6
    2b8e:	72000003          	lb	zero,1824(zero) # 720 <_start-0x7ffff8e0>
    2b92:	6565                	lui	a0,0x19
    2b94:	746e                	flw	fs0,248(sp)
    2b96:	682e                	flw	fa6,200(sp)
    2b98:	0300                	addi	s0,sp,384
    2b9a:	0000                	unimp
    2b9c:	6f6c                	flw	fa1,92(a4)
    2b9e:	682e6b63          	bltu	t3,sp,3234 <_start-0x7fffcdcc>
    2ba2:	0300                	addi	s0,sp,384
    2ba4:	0000                	unimp
    2ba6:	7265                	lui	tp,0xffff9
    2ba8:	6e72                	flw	ft8,28(sp)
    2baa:	00682e6f          	jal	t3,84bb0 <_start-0x7ff7b450>
    2bae:	73000003          	lb	zero,1840(zero) # 730 <_start-0x7ffff8d0>
    2bb2:	6474                	flw	fa3,76(s0)
    2bb4:	696c                	flw	fa1,84(a0)
    2bb6:	2e62                	fld	ft8,24(sp)
    2bb8:	0068                	addi	a0,sp,12
    2bba:	0004                	0x4
    2bbc:	7500                	flw	fs0,40(a0)
    2bbe:	696e                	flw	fs2,216(sp)
    2bc0:	2e647473          	csrrci	s0,0x2e6,8
    2bc4:	0068                	addi	a0,sp,12
    2bc6:	74000003          	lb	zero,1856(zero) # 740 <_start-0x7ffff8c0>
    2bca:	6d69                	lui	s10,0x1a
    2bcc:	2e65                	jal	2f84 <_start-0x7fffd07c>
    2bce:	0068                	addi	a0,sp,12
    2bd0:	0004                	0x4
    2bd2:	6800                	flw	fs0,16(s0)
    2bd4:	7361                	lui	t1,0xffff8
    2bd6:	7468                	flw	fa0,108(s0)
    2bd8:	6261                	lui	tp,0x18
    2bda:	682e                	flw	fa6,200(sp)
    2bdc:	0500                	addi	s0,sp,640
    2bde:	0000                	unimp
    2be0:	6972                	flw	fs2,28(sp)
    2be2:	2d766373          	csrrsi	t1,0x2d7,12
    2be6:	7374706f          	j	4ab1c <_start-0x7ffb54e4>
    2bea:	682e                	flw	fa6,200(sp)
    2bec:	0600                	addi	s0,sp,768
    2bee:	0000                	unimp
    2bf0:	6e69                	lui	t3,0x1a
    2bf2:	632d6e73          	csrrsi	t3,0x632,26
    2bf6:	74736e6f          	jal	t3,39b3c <_start-0x7ffc64c4>
    2bfa:	6e61                	lui	t3,0x18
    2bfc:	7374                	flw	fa3,100(a4)
    2bfe:	682e                	flw	fa6,200(sp)
    2c00:	0700                	addi	s0,sp,896
    2c02:	0000                	unimp
    2c04:	696c                	flw	fa1,84(a0)
    2c06:	6762                	flw	fa4,24(sp)
    2c08:	2e326363          	bltu	tp,gp,2eee <_start-0x7fffd112>
    2c0c:	0068                	addi	a0,sp,12
    2c0e:	0001                	nop
    2c10:	0000                	unimp
    2c12:	0105                	addi	sp,sp,1
    2c14:	0500                	addi	s0,sp,640
    2c16:	7c02                	flw	fs8,32(sp)
    2c18:	001e                	c.slli	zero,0x7
    2c1a:	0380                	addi	s0,sp,448
    2c1c:	05c2                	slli	a1,a1,0x10
    2c1e:	0501                	addi	a0,a0,0
    2c20:	09010303          	lb	t1,144(sp)
    2c24:	0000                	unimp
    2c26:	0301                	addi	t1,t1,0
    2c28:	0902                	c.slli64	s2
    2c2a:	0000                	unimp
    2c2c:	0301                	addi	t1,t1,0
    2c2e:	0900                	addi	s0,sp,144
    2c30:	0000                	unimp
    2c32:	0301                	addi	t1,t1,0
    2c34:	0900                	addi	s0,sp,144
    2c36:	0000                	unimp
    2c38:	0301                	addi	t1,t1,0
    2c3a:	0900                	addi	s0,sp,144
    2c3c:	0000                	unimp
    2c3e:	0301                	addi	t1,t1,0
    2c40:	0900                	addi	s0,sp,144
    2c42:	0000                	unimp
    2c44:	0001                	nop
    2c46:	0402                	c.slli64	s0
    2c48:	00030603          	lb	a2,0(t1) # ffff8000 <__global_pointer$+0x7fff4398>
    2c4c:	0809                	addi	a6,a6,2
    2c4e:	0100                	addi	s0,sp,128
    2c50:	0200                	addi	s0,sp,256
    2c52:	0e04                	addi	s1,sp,784
    2c54:	0306                	slli	t1,t1,0x1
    2c56:	0900                	addi	s0,sp,144
    2c58:	000c                	0xc
    2c5a:	0001                	nop
    2c5c:	0402                	c.slli64	s0
    2c5e:	030e                	slli	t1,t1,0x3
    2c60:	0900                	addi	s0,sp,144
    2c62:	0000                	unimp
    2c64:	0001                	nop
    2c66:	0402                	c.slli64	s0
    2c68:	030e                	slli	t1,t1,0x3
    2c6a:	0902                	c.slli64	s2
    2c6c:	0000                	unimp
    2c6e:	0001                	nop
    2c70:	0402                	c.slli64	s0
    2c72:	060e                	slli	a2,a2,0x3
    2c74:	00097e03          	0x97e03
    2c78:	0100                	addi	s0,sp,128
    2c7a:	0105                	addi	sp,sp,1
    2c7c:	0200                	addi	s0,sp,256
    2c7e:	0e04                	addi	s1,sp,784
    2c80:	1c090303          	lb	t1,448(s2) # 181c0 <_start-0x7ffe7e40>
    2c84:	0100                	addi	s0,sp,128
    2c86:	0305                	addi	t1,t1,1
    2c88:	0200                	addi	s0,sp,256
    2c8a:	0404                	addi	s1,sp,512
    2c8c:	08097d03          	0x8097d03
    2c90:	0100                	addi	s0,sp,128
    2c92:	0c090003          	lb	zero,192(s2)
    2c96:	0100                	addi	s0,sp,128
    2c98:	0809                	addi	a6,a6,2
    2c9a:	0000                	unimp
    2c9c:	0101                	addi	sp,sp,0
    2c9e:	0224                	addi	s1,sp,264
    2ca0:	0000                	unimp
    2ca2:	021e0003          	lb	zero,33(t3) # 18021 <_start-0x7ffe7fdf>
    2ca6:	0000                	unimp
    2ca8:	0101                	addi	sp,sp,0
    2caa:	000d0efb          	0xd0efb
    2cae:	0101                	addi	sp,sp,0
    2cb0:	0101                	addi	sp,sp,0
    2cb2:	0000                	unimp
    2cb4:	0100                	addi	s0,sp,128
    2cb6:	0000                	unimp
    2cb8:	2f01                	jal	33c8 <_start-0x7fffcc38>
    2cba:	6f68                	flw	fa0,92(a4)
    2cbc:	656d                	lui	a0,0x1b
    2cbe:	616c622f          	0x616c622f
    2cc2:	7369                	lui	t1,0xffffa
    2cc4:	2f65                	jal	347c <_start-0x7fffcb84>
    2cc6:	6564                	flw	fs1,76(a0)
    2cc8:	2f76                	fld	ft10,344(sp)
    2cca:	6972                	flw	fs2,28(sp)
    2ccc:	2d766373          	csrrsi	t1,0x2d7,12
    2cd0:	2d756e67          	0x2d756e67
    2cd4:	6f74                	flw	fa3,92(a4)
    2cd6:	68636c6f          	jal	s8,3935c <_start-0x7ffc6ca4>
    2cda:	6961                	lui	s2,0x18
    2cdc:	326e                	fld	ft4,248(sp)
    2cde:	6975622f          	0x6975622f
    2ce2:	646c                	flw	fa1,76(s0)
    2ce4:	6975622f          	0x6975622f
    2ce8:	646c                	flw	fa1,76(s0)
    2cea:	672d                	lui	a4,0xb
    2cec:	6e2d6363          	bltu	s10,sp,33d2 <_start-0x7fffcc2e>
    2cf0:	7765                	lui	a4,0xffff9
    2cf2:	696c                	flw	fa1,84(a0)
    2cf4:	2d62                	fld	fs10,24(sp)
    2cf6:	67617473          	csrrci	s0,0x676,2
    2cfa:	3265                	jal	26a2 <_start-0x7fffd95e>
    2cfc:	6363672f          	0x6363672f
    2d00:	636e692f          	0x636e692f
    2d04:	756c                	flw	fa1,108(a0)
    2d06:	6564                	flw	fs1,76(a0)
    2d08:	2f00                	fld	fs0,24(a4)
    2d0a:	6f68                	flw	fa0,92(a4)
    2d0c:	656d                	lui	a0,0x1b
    2d0e:	616c622f          	0x616c622f
    2d12:	7369                	lui	t1,0xffffa
    2d14:	2f65                	jal	34cc <_start-0x7fffcb34>
    2d16:	6564                	flw	fs1,76(a0)
    2d18:	2f76                	fld	ft10,344(sp)
    2d1a:	6972                	flw	fs2,28(sp)
    2d1c:	2d766373          	csrrsi	t1,0x2d7,12
    2d20:	2d756e67          	0x2d756e67
    2d24:	6f74                	flw	fa3,92(a4)
    2d26:	68636c6f          	jal	s8,393ac <_start-0x7ffc6c54>
    2d2a:	6961                	lui	s2,0x18
    2d2c:	326e                	fld	ft4,248(sp)
    2d2e:	6f72642f          	0x6f72642f
    2d32:	7370                	flw	fa2,100(a4)
    2d34:	7369722f          	0x7369722f
    2d38:	32337663          	bgeu	t1,gp,3064 <_start-0x7fffcf9c>
    2d3c:	752d                	lui	a0,0xfffeb
    2d3e:	6b6e                	flw	fs6,216(sp)
    2d40:	6f6e                	flw	ft10,216(sp)
    2d42:	652d6e77          	0x652d6e77
    2d46:	666c                	flw	fa1,76(a2)
    2d48:	636e692f          	0x636e692f
    2d4c:	756c                	flw	fa1,108(a0)
    2d4e:	6564                	flw	fs1,76(a0)
    2d50:	7379732f          	0x7379732f
    2d54:	2f00                	fld	fs0,24(a4)
    2d56:	6f68                	flw	fa0,92(a4)
    2d58:	656d                	lui	a0,0x1b
    2d5a:	616c622f          	0x616c622f
    2d5e:	7369                	lui	t1,0xffffa
    2d60:	2f65                	jal	3518 <_start-0x7fffcae8>
    2d62:	6564                	flw	fs1,76(a0)
    2d64:	2f76                	fld	ft10,344(sp)
    2d66:	6972                	flw	fs2,28(sp)
    2d68:	2d766373          	csrrsi	t1,0x2d7,12
    2d6c:	2d756e67          	0x2d756e67
    2d70:	6f74                	flw	fa3,92(a4)
    2d72:	68636c6f          	jal	s8,393f8 <_start-0x7ffc6c08>
    2d76:	6961                	lui	s2,0x18
    2d78:	326e                	fld	ft4,248(sp)
    2d7a:	6f72642f          	0x6f72642f
    2d7e:	7370                	flw	fa2,100(a4)
    2d80:	7369722f          	0x7369722f
    2d84:	32337663          	bgeu	t1,gp,30b0 <_start-0x7fffcf50>
    2d88:	752d                	lui	a0,0xfffeb
    2d8a:	6b6e                	flw	fs6,216(sp)
    2d8c:	6f6e                	flw	ft10,216(sp)
    2d8e:	652d6e77          	0x652d6e77
    2d92:	666c                	flw	fa1,76(a2)
    2d94:	636e692f          	0x636e692f
    2d98:	756c                	flw	fa1,108(a0)
    2d9a:	6564                	flw	fs1,76(a0)
    2d9c:	2e00                	fld	fs0,24(a2)
    2d9e:	2f2e                	fld	ft10,200(sp)
    2da0:	2e2e                	fld	ft8,200(sp)
    2da2:	2f2e2e2f          	0x2f2e2e2f
    2da6:	2e2e                	fld	ft8,200(sp)
    2da8:	7369722f          	0x7369722f
    2dac:	672d7663          	bgeu	s10,s2,3418 <_start-0x7fffcbe8>
    2db0:	6c2f6363          	bltu	t5,sp,3476 <_start-0x7fffcb8a>
    2db4:	6269                	lui	tp,0x1a
    2db6:	2f636367          	0x2f636367
    2dba:	2e2e                	fld	ft8,200(sp)
    2dbc:	636e692f          	0x636e692f
    2dc0:	756c                	flw	fa1,108(a0)
    2dc2:	6564                	flw	fs1,76(a0)
    2dc4:	2e00                	fld	fs0,24(a2)
    2dc6:	2f2e                	fld	ft10,200(sp)
    2dc8:	2e2e                	fld	ft8,200(sp)
    2dca:	2f2e2e2f          	0x2f2e2e2f
    2dce:	2e2e                	fld	ft8,200(sp)
    2dd0:	7369722f          	0x7369722f
    2dd4:	672d7663          	bgeu	s10,s2,3440 <_start-0x7fffcbc0>
    2dd8:	6c2f6363          	bltu	t5,sp,349e <_start-0x7fffcb62>
    2ddc:	6269                	lui	tp,0x1a
    2dde:	2f636367          	0x2f636367
    2de2:	2e2e                	fld	ft8,200(sp)
    2de4:	6363672f          	0x6363672f
    2de8:	6e6f632f          	0x6e6f632f
    2dec:	6966                	flw	fs2,88(sp)
    2dee:	69722f67          	0x69722f67
    2df2:	00766373          	csrrsi	t1,0x7,12
    2df6:	2e2e                	fld	ft8,200(sp)
    2df8:	2f2e2e2f          	0x2f2e2e2f
    2dfc:	2f2e                	fld	ft10,200(sp)
    2dfe:	00636367          	0x636367
    2e02:	2e2e                	fld	ft8,200(sp)
    2e04:	2f2e2e2f          	0x2f2e2e2f
    2e08:	2e2e                	fld	ft8,200(sp)
    2e0a:	2f2e2e2f          	0x2f2e2e2f
    2e0e:	6972                	flw	fs2,28(sp)
    2e10:	2d766373          	csrrsi	t1,0x2d7,12
    2e14:	2f636367          	0x2f636367
    2e18:	696c                	flw	fa1,84(a0)
    2e1a:	6762                	flw	fa4,24(sp)
    2e1c:	00006363          	bltu	zero,zero,2e22 <_start-0x7fffd1de>
    2e20:	64647473          	csrrci	s0,0x646,8
    2e24:	6665                	lui	a2,0x19
    2e26:	682e                	flw	fa6,200(sp)
    2e28:	0100                	addi	s0,sp,128
    2e2a:	0000                	unimp
    2e2c:	745f 7079 7365      	0x73657079745f
    2e32:	682e                	flw	fa6,200(sp)
    2e34:	0200                	addi	s0,sp,256
    2e36:	0000                	unimp
    2e38:	6572                	flw	fa0,28(sp)
    2e3a:	6e65                	lui	t3,0x19
    2e3c:	2e74                	fld	fa3,216(a2)
    2e3e:	0068                	addi	a0,sp,12
    2e40:	0002                	c.slli64	zero
    2e42:	6c00                	flw	fs0,24(s0)
    2e44:	2e6b636f          	jal	t1,b912a <_start-0x7ff46ed6>
    2e48:	0068                	addi	a0,sp,12
    2e4a:	0002                	c.slli64	zero
    2e4c:	6500                	flw	fs0,8(a0)
    2e4e:	7272                	flw	ft4,60(sp)
    2e50:	6f6e                	flw	ft10,216(sp)
    2e52:	682e                	flw	fa6,200(sp)
    2e54:	0200                	addi	s0,sp,256
    2e56:	0000                	unimp
    2e58:	6c647473          	csrrci	s0,0x6c6,8
    2e5c:	6269                	lui	tp,0x1a
    2e5e:	682e                	flw	fa6,200(sp)
    2e60:	0300                	addi	s0,sp,384
    2e62:	0000                	unimp
    2e64:	6e75                	lui	t3,0x1d
    2e66:	7369                	lui	t1,0xffffa
    2e68:	6474                	flw	fa3,76(s0)
    2e6a:	682e                	flw	fa6,200(sp)
    2e6c:	0200                	addi	s0,sp,256
    2e6e:	0000                	unimp
    2e70:	6974                	flw	fa3,84(a0)
    2e72:	656d                	lui	a0,0x1b
    2e74:	682e                	flw	fa6,200(sp)
    2e76:	0300                	addi	s0,sp,384
    2e78:	0000                	unimp
    2e7a:	6168                	flw	fa0,68(a0)
    2e7c:	61746873          	csrrsi	a6,0x617,8
    2e80:	2e62                	fld	ft8,24(sp)
    2e82:	0068                	addi	a0,sp,12
    2e84:	0004                	0x4
    2e86:	7200                	flw	fs0,32(a2)
    2e88:	7369                	lui	t1,0xffffa
    2e8a:	6f2d7663          	bgeu	s10,s2,3576 <_start-0x7fffca8a>
    2e8e:	7470                	flw	fa2,108(s0)
    2e90:	00682e73          	csrrs	t3,0x6,a6
    2e94:	0005                	c.nop	1
    2e96:	6900                	flw	fs0,16(a0)
    2e98:	736e                	flw	ft6,248(sp)
    2e9a:	2d6e                	fld	fs10,216(sp)
    2e9c:	736e6f63          	bltu	t3,s6,35da <_start-0x7fffca26>
    2ea0:	6174                	flw	fa3,68(a0)
    2ea2:	746e                	flw	fs0,248(sp)
    2ea4:	00682e73          	csrrs	t3,0x6,a6
    2ea8:	0006                	c.slli	zero,0x1
    2eaa:	6c00                	flw	fs0,24(s0)
    2eac:	6269                	lui	tp,0x1a
    2eae:	32636367          	0x32636367
    2eb2:	682e                	flw	fa6,200(sp)
    2eb4:	0700                	addi	s0,sp,896
    2eb6:	0000                	unimp
    2eb8:	696c                	flw	fa1,84(a0)
    2eba:	6762                	flw	fa4,24(sp)
    2ebc:	2e326363          	bltu	tp,gp,31a2 <_start-0x7fffce5e>
    2ec0:	00070063          	beqz	a4,2ec0 <_start-0x7fffd140>
	...

Disassembly of section .debug_frame:

00000000 <.debug_frame>:
   0:	000c                	0xc
   2:	0000                	unimp
   4:	ffff                	0xffff
   6:	ffff                	0xffff
   8:	7c010003          	lb	zero,1984(sp)
   c:	0d01                	addi	s10,s10,0
   e:	0002                	c.slli64	zero
  10:	002c                	addi	a1,sp,8
  12:	0000                	unimp
  14:	0000                	unimp
  16:	0000                	unimp
  18:	0ee8                	addi	a0,sp,860
  1a:	8000                	0x8000
  1c:	042c                	addi	a1,sp,520
  1e:	0000                	unimp
  20:	0e44                	addi	s1,sp,788
  22:	5010                	lw	a2,32(s0)
  24:	0492                	slli	s1,s1,0x4
  26:	8960                	0x8960
  28:	88018103          	lb	sp,-1920(gp) # 800034e8 <impure_data+0x80>
  2c:	0302                	c.slli64	t1
  2e:	03bc                	addi	a5,sp,456
  30:	c10a                	sw	sp,128(sp)
  32:	c844                	sw	s1,20(s0)
  34:	c960                	sw	s0,84(a0)
  36:	d244                	sw	s1,36(a2)
  38:	0e48                	addi	a0,sp,788
  3a:	4400                	lw	s0,8(s0)
  3c:	0000000b          	0xb
  40:	000c                	0xc
  42:	0000                	unimp
  44:	ffff                	0xffff
  46:	ffff                	0xffff
  48:	7c010003          	lb	zero,1984(sp)
  4c:	0d01                	addi	s10,s10,0
  4e:	0002                	c.slli64	zero
  50:	0038                	addi	a4,sp,8
  52:	0000                	unimp
  54:	0040                	addi	s0,sp,4
  56:	0000                	unimp
  58:	1314                	addi	a3,sp,416
  5a:	8000                	0x8000
  5c:	032c                	addi	a1,sp,392
  5e:	0000                	unimp
  60:	0e44                	addi	s1,sp,788
  62:	4420                	lw	s0,72(s0)
  64:	0389                	addi	t2,t2,2
  66:	9250                	0x9250
  68:	9304                	0x9304
  6a:	9405                	srai	s0,s0,0x21
  6c:	5006                	0x5006
  6e:	0181                	addi	gp,gp,0
  70:	0288                	addi	a0,sp,320
  72:	0795                	addi	a5,a5,5
  74:	0a021c03          	lh	s8,160(tp) # 1a0a0 <_start-0x7ffe5f60>
  78:	48c1                	li	a7,16
  7a:	44c8                	lw	a0,12(s1)
  7c:	44c9                	li	s1,18
  7e:	44d2                	lw	s1,20(sp)
  80:	44d444d3          	0x44d444d3
  84:	44d5                	li	s1,21
  86:	000e                	c.slli	zero,0x3
  88:	0b44                	addi	s1,sp,404
  8a:	0000                	unimp
  8c:	000c                	0xc
  8e:	0000                	unimp
  90:	ffff                	0xffff
  92:	ffff                	0xffff
  94:	7c010003          	lb	zero,1984(sp)
  98:	0d01                	addi	s10,s10,0
  9a:	0002                	c.slli64	zero
  9c:	000c                	0xc
  9e:	0000                	unimp
  a0:	008c                	addi	a1,sp,64
  a2:	0000                	unimp
  a4:	1640                	addi	s0,sp,804
  a6:	8000                	0x8000
  a8:	00b4                	addi	a3,sp,72
  aa:	0000                	unimp
  ac:	000c                	0xc
  ae:	0000                	unimp
  b0:	ffff                	0xffff
  b2:	ffff                	0xffff
  b4:	7c010003          	lb	zero,1984(sp)
  b8:	0d01                	addi	s10,s10,0
  ba:	0002                	c.slli64	zero
  bc:	0034                	addi	a3,sp,8
  be:	0000                	unimp
  c0:	00ac                	addi	a1,sp,72
  c2:	0000                	unimp
  c4:	16f4                	addi	a3,sp,876
  c6:	8000                	0x8000
  c8:	02f8                	addi	a4,sp,332
  ca:	0000                	unimp
  cc:	0e44                	addi	s1,sp,788
  ce:	4420                	lw	s0,72(s0)
  d0:	0492                	slli	s1,s1,0x4
  d2:	8950                	0x8950
  d4:	94059303          	lh	t1,-1728(a1)
  d8:	5006                	0x5006
  da:	0181                	addi	gp,gp,0
  dc:	0288                	addi	a0,sp,320
  de:	0795                	addi	a5,a5,5
  e0:	c102ac03          	lw	s8,-1008(t0) # 1946fc <_start-0x7fe6b904>
  e4:	c848                	sw	a0,20(s0)
  e6:	c944                	sw	s1,20(a0)
  e8:	d244                	sw	s1,36(a2)
  ea:	d344                	sw	s1,36(a4)
  ec:	d444                	sw	s1,44(s0)
  ee:	d544                	sw	s1,44(a0)
  f0:	0e44                	addi	s1,sp,788
  f2:	0000                	unimp
  f4:	000c                	0xc
  f6:	0000                	unimp
  f8:	ffff                	0xffff
  fa:	ffff                	0xffff
  fc:	7c010003          	lb	zero,1984(sp)
 100:	0d01                	addi	s10,s10,0
 102:	0002                	c.slli64	zero
 104:	002c                	addi	a1,sp,8
 106:	0000                	unimp
 108:	00f4                	addi	a3,sp,76
 10a:	0000                	unimp
 10c:	19ec                	addi	a1,sp,252
 10e:	8000                	0x8000
 110:	044c                	addi	a1,sp,516
 112:	0000                	unimp
 114:	0e48                	addi	a0,sp,788
 116:	6010                	flw	fa2,0(s0)
 118:	0389                	addi	t2,t2,2
 11a:	0492                	slli	s1,s1,0x4
 11c:	8150                	0x8150
 11e:	8801                	andi	s0,s0,0
 120:	0302                	c.slli64	t1
 122:	03d0                	addi	a2,sp,452
 124:	c10a                	sw	sp,128(sp)
 126:	c844                	sw	s1,20(s0)
 128:	c960                	sw	s0,84(a0)
 12a:	d244                	sw	s1,36(a2)
 12c:	0e48                	addi	a0,sp,788
 12e:	4400                	lw	s0,8(s0)
 130:	0000000b          	0xb
 134:	000c                	0xc
 136:	0000                	unimp
 138:	ffff                	0xffff
 13a:	ffff                	0xffff
 13c:	7c010003          	lb	zero,1984(sp)
 140:	0d01                	addi	s10,s10,0
 142:	0002                	c.slli64	zero
 144:	000c                	0xc
 146:	0000                	unimp
 148:	0134                	addi	a3,sp,136
 14a:	0000                	unimp
 14c:	1e38                	addi	a4,sp,824
 14e:	8000                	0x8000
 150:	0044                	addi	s1,sp,4
 152:	0000                	unimp
 154:	000c                	0xc
 156:	0000                	unimp
 158:	ffff                	0xffff
 15a:	ffff                	0xffff
 15c:	7c010003          	lb	zero,1984(sp)
 160:	0d01                	addi	s10,s10,0
 162:	0002                	c.slli64	zero
 164:	000c                	0xc
 166:	0000                	unimp
 168:	0154                	addi	a3,sp,132
 16a:	0000                	unimp
 16c:	1e7c                	addi	a5,sp,828
 16e:	8000                	0x8000
 170:	004c                	addi	a1,sp,4
	...

Disassembly of section .debug_str:

00000000 <.debug_str>:
   0:	465f 5f50 4150      	0x41505f50465f
   6:	525f4b43          	fmadd.d	fs6,ft10,ft5,fa0,rmm
   a:	5741                	li	a4,-16
   c:	315f 665f 6f6c      	0x6f6c665f315f
  12:	5f00                	lw	s0,56(a4)
  14:	5046                	0x5046
  16:	505f 4341 5f4b      	0x5f4b4341505f
  1c:	494d4553          	0x494d4553
  20:	4152                	lw	sp,20(sp)
  22:	5f545f57          	0x5f545f57
  26:	665f0073          	0x665f0073
  2a:	7865                	lui	a6,0xffff9
  2c:	5f00                	lw	s0,56(a4)
  2e:	5046                	0x5046
  30:	505f 4341 5f4b      	0x5f4b4341505f
  36:	494d4553          	0x494d4553
  3a:	4152                	lw	sp,20(sp)
  3c:	5f545f57          	0x5f545f57
  40:	465f0063          	beq	t5,t0,4a0 <_start-0x7ffffb60>
  44:	5f50                	lw	a2,60(a4)
  46:	4150                	lw	a2,4(a0)
  48:	535f4b43          	fmadd.d	fs6,ft10,fs5,fa0,rmm
  4c:	4d45                	li	s10,17
  4e:	5249                	li	tp,-14
  50:	5741                	li	a4,-16
  52:	545f 665f 6100      	0x6100665f545f
  58:	6464                	flw	fs1,76(s0)
  5a:	645f 6e6f 0065      	0x656e6f645f
  60:	6e75                	lui	t3,0x1d
  62:	6e676973          	csrrsi	s2,0x6e6,14
  66:	6465                	lui	s0,0x19
  68:	6320                	flw	fs0,64(a4)
  6a:	6168                	flw	fa0,68(a0)
  6c:	0072                	c.slli	zero,0x1c
  6e:	465f 5f50 4e55      	0x4e555f50465f
  74:	4150                	lw	a2,4(a0)
  76:	525f4b43          	fmadd.d	fs6,ft10,ft5,fa0,rmm
  7a:	5741                	li	a4,-16
  7c:	315f 665f 6f6c      	0x6f6c665f315f
  82:	5f00                	lw	s0,56(a4)
  84:	615f 6464 6673      	0x66736464615f
  8a:	68730033          	0x68730033
  8e:	2074726f          	jal	tp,47a94 <_start-0x7ffb856c>
  92:	6e75                	lui	t3,0x1d
  94:	6e676973          	csrrsi	s2,0x6e6,14
  98:	6465                	lui	s0,0x19
  9a:	6920                	flw	fs0,80(a0)
  9c:	746e                	flw	fs0,248(sp)
  9e:	7300                	flw	fs0,32(a4)
  a0:	6275                	lui	tp,0x1d
  a2:	0031                	c.nop	12
  a4:	32627573          	csrrci	a0,mhpmevent6,4
  a8:	7300                	flw	fs0,32(a4)
  aa:	6275                	lui	tp,0x1d
  ac:	465f0033          	0x465f0033
  b0:	5f50                	lw	a2,60(a4)
  b2:	4150                	lw	a2,4(a0)
  b4:	535f4b43          	fmadd.d	fs6,ft10,fs5,fa0,rmm
  b8:	4d45                	li	s10,17
  ba:	5249                	li	tp,-14
  bc:	5741                	li	a4,-16
  be:	545f 655f 6e00      	0x6e00655f545f
  c4:	006d726f          	jal	tp,d70ca <_start-0x7ff28f36>
  c8:	5155                	li	sp,-11
  ca:	7449                	lui	s0,0xffff2
  cc:	7079                	c.lui	zero,0xffffe
  ce:	0065                	c.nop	25
  d0:	5f5f 6c63 5f7a      	0x5f7a6c635f5f
  d6:	6174                	flw	fa3,68(a0)
  d8:	0062                	c.slli	zero,0x18
  da:	7266                	flw	ft4,120(sp)
  dc:	6361                	lui	t1,0x18
  de:	6c00                	flw	fs0,24(s0)
  e0:	20676e6f          	jal	t3,762e6 <_start-0x7ff89d1a>
  e4:	6f6c                	flw	fa1,92(a4)
  e6:	676e                	flw	fa4,216(sp)
  e8:	7520                	flw	fs0,104(a0)
  ea:	736e                	flw	ft6,248(sp)
  ec:	6769                	lui	a4,0x1a
  ee:	656e                	flw	fa0,216(sp)
  f0:	2064                	fld	fs1,192(s0)
  f2:	6e69                	lui	t3,0x1a
  f4:	0074                	addi	a3,sp,12
  f6:	6d6f682f          	0x6d6f682f
  fa:	2f65                	jal	8b2 <_start-0x7ffff74e>
  fc:	6c62                	flw	fs8,24(sp)
  fe:	6961                	lui	s2,0x18
 100:	642f6573          	csrrsi	a0,0x642,30
 104:	7665                	lui	a2,0xffff9
 106:	7369722f          	0x7369722f
 10a:	672d7663          	bgeu	s10,s2,776 <_start-0x7ffff88a>
 10e:	756e                	flw	fa0,248(sp)
 110:	742d                	lui	s0,0xfffeb
 112:	636c6f6f          	jal	t5,c6748 <_start-0x7ff398b8>
 116:	6168                	flw	fa0,68(a0)
 118:	6e69                	lui	t3,0x1a
 11a:	2f32                	fld	ft10,264(sp)
 11c:	7562                	flw	fa0,56(sp)
 11e:	6c69                	lui	s8,0x1a
 120:	2f64                	fld	fs1,216(a4)
 122:	7562                	flw	fa0,56(sp)
 124:	6c69                	lui	s8,0x1a
 126:	2d64                	fld	fs1,216(a0)
 128:	2d636367          	0x2d636367
 12c:	656e                	flw	fa0,216(sp)
 12e:	62696c77          	0x62696c77
 132:	732d                	lui	t1,0xfffeb
 134:	6174                	flw	fa3,68(a0)
 136:	2f326567          	0x2f326567
 13a:	6972                	flw	fs2,28(sp)
 13c:	33766373          	csrrsi	t1,mhpmevent23,12
 140:	2d32                	fld	fs10,264(sp)
 142:	6e75                	lui	t3,0x1d
 144:	776f6e6b          	0x776f6e6b
 148:	2d6e                	fld	fs10,216(sp)
 14a:	6c65                	lui	s8,0x19
 14c:	2f66                	fld	ft10,88(sp)
 14e:	696c                	flw	fa1,84(a0)
 150:	6762                	flw	fa4,24(sp)
 152:	73006363          	bltu	zero,a6,878 <_start-0x7ffff788>
 156:	6275                	lui	tp,0x1d
 158:	645f 6e6f 0065      	0x656e6f645f
 15e:	465f 5f50 4441      	0x44415f50465f
 164:	5f44                	lw	s1,60(a4)
 166:	4e49                	li	t3,18
 168:	4554                	lw	a3,12(a0)
 16a:	4e52                	lw	t3,20(sp)
 16c:	4c41                	li	s8,16
 16e:	645f 6669 0066      	0x666669645f
 174:	6f6c                	flw	fa1,92(a4)
 176:	676e                	flw	fa4,216(sp)
 178:	6c20                	flw	fs0,88(s0)
 17a:	20676e6f          	jal	t3,76380 <_start-0x7ff89c80>
 17e:	6e69                	lui	t3,0x1a
 180:	0074                	addi	a3,sp,12
 182:	20554e47          	fmsub.s	ft8,fa0,ft5,ft4,rmm
 186:	20373143          	fmadd.s	ft2,fa4,ft3,ft4,rup
 18a:	2e39                	jal	4a8 <_start-0x7ffffb58>
 18c:	2e32                	fld	ft8,264(sp)
 18e:	2030                	fld	fa2,64(s0)
 190:	6d2d                	lui	s10,0xb
 192:	646f6d63          	bltu	t5,t1,7ec <_start-0x7ffff814>
 196:	6c65                	lui	s8,0x19
 198:	6d3d                	lui	s10,0xf
 19a:	6465                	lui	s0,0x19
 19c:	6f6c                	flw	fa1,92(a4)
 19e:	6d2d2077          	0x6d2d2077
 1a2:	646f6d63          	bltu	t5,t1,7fc <_start-0x7ffff804>
 1a6:	6c65                	lui	s8,0x19
 1a8:	6d3d                	lui	s10,0xf
 1aa:	6465                	lui	s0,0x19
 1ac:	6f6c                	flw	fa1,92(a4)
 1ae:	6d2d2077          	0x6d2d2077
 1b2:	7574                	flw	fa3,108(a0)
 1b4:	656e                	flw	fa0,216(sp)
 1b6:	723d                	lui	tp,0xfffef
 1b8:	656b636f          	jal	t1,b680e <_start-0x7ff497f2>
 1bc:	2074                	fld	fa3,192(s0)
 1be:	6d2d                	lui	s10,0xb
 1c0:	7261                	lui	tp,0xffff8
 1c2:	723d6863          	bltu	s10,gp,8f2 <_start-0x7ffff70e>
 1c6:	3376                	fld	ft6,376(sp)
 1c8:	6932                	flw	fs2,12(sp)
 1ca:	206d                	jal	274 <_start-0x7ffffd8c>
 1cc:	6d2d                	lui	s10,0xb
 1ce:	6261                	lui	tp,0x18
 1d0:	3d69                	jal	6a <_start-0x7fffff96>
 1d2:	6c69                	lui	s8,0x1a
 1d4:	3370                	fld	fa2,224(a4)
 1d6:	2032                	fld	ft0,264(sp)
 1d8:	672d                	lui	a4,0xb
 1da:	2d20                	fld	fs0,88(a0)
 1dc:	2d20734f          	0x2d20734f
 1e0:	2d20324f          	0x2d20324f
 1e4:	2d20734f          	0x2d20734f
 1e8:	6266                	flw	ft4,88(sp)
 1ea:	6975                	lui	s2,0x1d
 1ec:	646c                	flw	fa1,76(s0)
 1ee:	6e69                	lui	t3,0x1a
 1f0:	696c2d67          	0x696c2d67
 1f4:	6762                	flw	fa4,24(sp)
 1f6:	2d206363          	bltu	zero,s2,4bc <_start-0x7ffffb44>
 1fa:	6e66                	flw	ft8,88(sp)
 1fc:	74732d6f          	jal	s10,33142 <_start-0x7ffccebe>
 200:	6361                	lui	t1,0x18
 202:	72702d6b          	0x72702d6b
 206:	6365746f          	jal	s0,5783c <_start-0x7ffa87c4>
 20a:	6f74                	flw	fa3,92(a4)
 20c:	2072                	fld	ft0,280(sp)
 20e:	662d                	lui	a2,0xb
 210:	6976                	flw	fs2,92(sp)
 212:	69626973          	csrrsi	s2,0x696,4
 216:	696c                	flw	fa1,84(a0)
 218:	7974                	flw	fa3,116(a0)
 21a:	683d                	lui	a6,0xf
 21c:	6469                	lui	s0,0x1a
 21e:	6564                	flw	fs1,76(a0)
 220:	006e                	c.slli	zero,0x1b
 222:	465f 5f50 4441      	0x44415f50465f
 228:	5f44                	lw	s1,60(a4)
 22a:	4e49                	li	t3,18
 22c:	4554                	lw	a3,12(a0)
 22e:	4e52                	lw	t3,20(sp)
 230:	4c41                	li	s8,16
 232:	655f 6964 6666      	0x66666964655f
 238:	6200                	flw	fs0,0(a2)
 23a:	7469                	lui	s0,0xffffa
 23c:	2e2e0073          	0x2e2e0073
 240:	2f2e2e2f          	0x2f2e2e2f
 244:	2e2e                	fld	ft8,200(sp)
 246:	2f2e2e2f          	0x2f2e2e2f
 24a:	6972                	flw	fs2,28(sp)
 24c:	2d766373          	csrrsi	t1,0x2d7,12
 250:	2f636367          	0x2f636367
 254:	696c                	flw	fa1,84(a0)
 256:	6762                	flw	fa4,24(sp)
 258:	732f6363          	bltu	t5,s2,97e <_start-0x7ffff682>
 25c:	2d74666f          	jal	a2,46d32 <_start-0x7ffb92ce>
 260:	7066                	flw	ft0,120(sp)
 262:	6464612f          	0x6464612f
 266:	2e336673          	csrrsi	a2,0x2e3,6
 26a:	64610063          	beq	sp,t1,8aa <_start-0x7ffff756>
 26e:	3164                	fld	fs1,224(a0)
 270:	6100                	flw	fs0,0(a0)
 272:	6464                	flw	fs1,76(s0)
 274:	0032                	c.slli	zero,0xc
 276:	6461                	lui	s0,0x18
 278:	3364                	fld	fs1,224(a4)
 27a:	5f00                	lw	s0,56(a4)
 27c:	5046                	0x5046
 27e:	555f 494e 4e4f      	0x4e4f494e555f
 284:	535f 5300 7446      	0x74465300535f
 28a:	7079                	c.lui	zero,0xffffe
 28c:	0065                	c.nop	25
 28e:	465f 5f50 4150      	0x41505f50465f
 294:	535f4b43          	fmadd.d	fs6,ft10,fs5,fa0,rmm
 298:	4d45                	li	s10,17
 29a:	5249                	li	tp,-14
 29c:	5741                	li	a4,-16
 29e:	695f 5f73 6974      	0x69745f73695f
 2a4:	796e                	flw	fs2,248(sp)
 2a6:	5f00                	lw	s0,56(a4)
 2a8:	7266                	flw	ft4,120(sp)
 2aa:	006d                	c.nop	27
 2ac:	5f5f 3072 5f00      	0x5f0030725f5f
 2b2:	715f 0030 5f5f      	0x5f5f0030715f
 2b8:	3171                	jal	ffffff44 <__global_pointer$+0x7fffc2dc>
 2ba:	5f00                	lw	s0,56(a4)
 2bc:	725f 0031 465f      	0x465f0031725f
 2c2:	5f50                	lw	a2,60(a4)
 2c4:	4150                	lw	a2,4(a0)
 2c6:	435f4b43          	fmadd.d	fs6,ft10,fs5,fs0,rmm
 2ca:	4e41                	li	t3,16
 2cc:	43494e4f          	fnmadd.d	ft8,fs2,fs4,fs0,rmm
 2d0:	4c41                	li	s8,16
 2d2:	695f 5f73 6974      	0x69745f73695f
 2d8:	796e                	flw	fs2,248(sp)
 2da:	2e00                	fld	fs0,24(a2)
 2dc:	2f2e                	fld	ft10,200(sp)
 2de:	2e2e                	fld	ft8,200(sp)
 2e0:	2f2e2e2f          	0x2f2e2e2f
 2e4:	2e2e                	fld	ft8,200(sp)
 2e6:	7369722f          	0x7369722f
 2ea:	672d7663          	bgeu	s10,s2,956 <_start-0x7ffff6aa>
 2ee:	6c2f6363          	bltu	t5,sp,9b4 <_start-0x7ffff64c>
 2f2:	6269                	lui	tp,0x1a
 2f4:	2f636367          	0x2f636367
 2f8:	74666f73          	csrrsi	t5,0x746,12
 2fc:	662d                	lui	a2,0xb
 2fe:	2f70                	fld	fa2,216(a4)
 300:	6964                	flw	fs1,84(a0)
 302:	7376                	flw	ft6,124(sp)
 304:	3366                	fld	ft6,120(sp)
 306:	632e                	flw	ft6,200(sp)
 308:	5f00                	lw	s0,56(a4)
 30a:	5046                	0x5046
 30c:	505f 4341 5f4b      	0x5f4b4341505f
 312:	4f4e4143          	fmadd.q	ft2,ft8,fs4,fs1,rmm
 316:	494e                	lw	s2,208(sp)
 318:	5f4c4143          	fmadd.q	ft2,fs8,fs4,fa1,rmm
 31c:	5f54                	lw	a3,60(a4)
 31e:	0066                	c.slli	zero,0x19
 320:	5f5f 3164 5f00      	0x5f0031645f5f
 326:	645f 7669 6673      	0x66737669645f
 32c:	465f0033          	0x465f0033
 330:	5f50                	lw	a2,60(a4)
 332:	4150                	lw	a2,4(a0)
 334:	435f4b43          	fmadd.d	fs6,ft10,fs5,fs0,rmm
 338:	4e41                	li	t3,16
 33a:	43494e4f          	fnmadd.d	ft8,fs2,fs4,fs0,rmm
 33e:	4c41                	li	s8,16
 340:	545f 655f 5f00      	0x5f00655f545f
 346:	5046                	0x5046
 348:	445f 5649 4d5f      	0x4d5f5649445f
 34e:	4145                	li	sp,17
 350:	5f54                	lw	a3,60(a4)
 352:	5f31                	li	t5,-20
 354:	6475                	lui	s0,0x1d
 356:	7669                	lui	a2,0xffffa
 358:	6e5f 726f 5f6d      	0x5f6d726f6e5f
 35e:	686e                	flw	fa6,216(sp)
 360:	5f00                	lw	s0,56(a4)
 362:	5046                	0x5046
 364:	445f 5649 4d5f      	0x4d5f5649445f
 36a:	4145                	li	sp,17
 36c:	5f54                	lw	a3,60(a4)
 36e:	5f31                	li	t5,-20
 370:	6475                	lui	s0,0x1d
 372:	7669                	lui	a2,0xffffa
 374:	6e5f 726f 5f6d      	0x5f6d726f6e5f
 37a:	0072                	c.slli	zero,0x1c
 37c:	465f 5f50 4150      	0x41505f50465f
 382:	435f4b43          	fmadd.d	fs6,ft10,fs5,fs0,rmm
 386:	4e41                	li	t3,16
 388:	43494e4f          	fnmadd.d	ft8,fs2,fs4,fs0,rmm
 38c:	4c41                	li	s8,16
 38e:	545f 635f 5f00      	0x5f00635f545f
 394:	5046                	0x5046
 396:	505f 4341 5f4b      	0x5f4b4341505f
 39c:	4f4e4143          	fmadd.q	ft2,ft8,fs4,fs1,rmm
 3a0:	494e                	lw	s2,208(sp)
 3a2:	5f4c4143          	fmadd.q	ft2,fs8,fs4,fa1,rmm
 3a6:	5f54                	lw	a3,60(a4)
 3a8:	5f5f0073          	0x5f5f0073
 3ac:	3064                	fld	fs1,224(s0)
 3ae:	5f00                	lw	s0,56(a4)
 3b0:	5046                	0x5046
 3b2:	445f 5649 4d5f      	0x4d5f5649445f
 3b8:	4145                	li	sp,17
 3ba:	5f54                	lw	a3,60(a4)
 3bc:	5f31                	li	t5,-20
 3be:	6475                	lui	s0,0x1d
 3c0:	7669                	lui	a2,0xffffa
 3c2:	6e5f 726f 5f6d      	0x5f6d726f6e5f
 3c8:	0071                	c.nop	28
 3ca:	465f 5f50 4944      	0x49445f50465f
 3d0:	5f56                	lw	t5,116(sp)
 3d2:	454d                	li	a0,19
 3d4:	5441                	li	s0,-16
 3d6:	315f 755f 6964      	0x6964755f315f
 3dc:	5f76                	lw	t5,124(sp)
 3de:	6f6e                	flw	ft10,216(sp)
 3e0:	6d72                	flw	fs10,28(sp)
 3e2:	795f 5f00 5046      	0x50465f00795f
 3e8:	445f 5649 4d5f      	0x4d5f5649445f
 3ee:	4145                	li	sp,17
 3f0:	5f54                	lw	a3,60(a4)
 3f2:	5f31                	li	t5,-20
 3f4:	6475                	lui	s0,0x1d
 3f6:	7669                	lui	a2,0xffffa
 3f8:	6e5f 726f 5f6d      	0x5f6d726f6e5f
 3fe:	6c6e                	flw	fs8,216(sp)
 400:	5f00                	lw	s0,56(a4)
 402:	5046                	0x5046
 404:	555f 504e 4341      	0x4341504e555f
 40a:	41435f4b          	fnmsub.s	ft10,ft6,fs4,fs0,unknown
 40e:	4f4e                	lw	t5,208(sp)
 410:	494e                	lw	s2,208(sp)
 412:	5f4c4143          	fmadd.q	ft2,fs8,fs4,fa1,rmm
 416:	66696873          	csrrsi	a6,0x666,18
 41a:	0074                	addi	a3,sp,12
 41c:	5f5f 6367 5f63      	0x5f6363675f5f
 422:	74504d43          	0x74504d43
 426:	7079                	c.lui	zero,0xffffe
 428:	0065                	c.nop	25
 42a:	465f 5f50 5349      	0x53495f50465f
 430:	4e474953          	0x4e474953
 434:	4e41                	li	t3,16
 436:	725f 7465 5f00      	0x5f007465725f
 43c:	6c5f 7365 3266      	0x326673656c5f
 442:	2e00                	fld	fs0,24(a2)
 444:	2f2e                	fld	ft10,200(sp)
 446:	2e2e                	fld	ft8,200(sp)
 448:	2f2e2e2f          	0x2f2e2e2f
 44c:	2e2e                	fld	ft8,200(sp)
 44e:	7369722f          	0x7369722f
 452:	672d7663          	bgeu	s10,s2,abe <_start-0x7ffff542>
 456:	6c2f6363          	bltu	t5,sp,b1c <_start-0x7ffff4e4>
 45a:	6269                	lui	tp,0x1a
 45c:	2f636367          	0x2f636367
 460:	74666f73          	csrrsi	t5,0x746,12
 464:	662d                	lui	a2,0xb
 466:	2f70                	fld	fa2,216(a4)
 468:	656c                	flw	fa1,76(a0)
 46a:	2e326673          	csrrsi	a2,0x2e3,4
 46e:	465f0063          	beq	t5,t0,8ce <_start-0x7ffff732>
 472:	5f50                	lw	a2,60(a4)
 474:	5f504d43          	fmadd.q	fs10,ft0,fs5,fa1,rmm
 478:	7369                	lui	t1,0xffffa
 47a:	7a5f 7265 5f6f      	0x5f6f72657a5f
 480:	0078                	addi	a4,sp,12
 482:	465f 5f50 4d43      	0x4d435f50465f
 488:	5f50                	lw	a2,60(a4)
 48a:	7369                	lui	t1,0xffffa
 48c:	7a5f 7265 5f6f      	0x5f6f72657a5f
 492:	0079                	c.nop	30
 494:	465f 5f50 554d      	0x554d5f50465f
 49a:	5f4c                	lw	a1,60(a4)
 49c:	454d                	li	a0,19
 49e:	5441                	li	s0,-16
 4a0:	315f 775f 6469      	0x6469775f315f
 4a6:	5f65                	li	t5,-7
 4a8:	5f5a                	lw	t5,180(sp)
 4aa:	3066                	fld	ft0,120(sp)
 4ac:	5f00                	lw	s0,56(a4)
 4ae:	5046                	0x5046
 4b0:	4d5f 4c55 4d5f      	0x4d5f4c554d5f
 4b6:	4145                	li	sp,17
 4b8:	5f54                	lw	a3,60(a4)
 4ba:	5f31                	li	t5,-20
 4bc:	65646977          	0x65646977
 4c0:	5a5f 665f 0031      	0x31665f5a5f
 4c6:	5f5f 6875 5f00      	0x5f0068755f5f
 4cc:	755f 006c 4855      	0x4855006c755f
 4d2:	70797457          	0x70797457
 4d6:	0065                	c.nop	25
 4d8:	5f5f 3078 2e00      	0x2e0030785f5f
 4de:	2f2e                	fld	ft10,200(sp)
 4e0:	2e2e                	fld	ft8,200(sp)
 4e2:	2f2e2e2f          	0x2f2e2e2f
 4e6:	2e2e                	fld	ft8,200(sp)
 4e8:	7369722f          	0x7369722f
 4ec:	672d7663          	bgeu	s10,s2,b58 <_start-0x7ffff4a8>
 4f0:	6c2f6363          	bltu	t5,sp,bb6 <_start-0x7ffff44a>
 4f4:	6269                	lui	tp,0x1a
 4f6:	2f636367          	0x2f636367
 4fa:	74666f73          	csrrsi	t5,0x746,12
 4fe:	662d                	lui	a2,0xb
 500:	2f70                	fld	fa2,216(a4)
 502:	756d                	lui	a0,0xffffb
 504:	736c                	flw	fa1,100(a4)
 506:	3366                	fld	ft6,120(sp)
 508:	632e                	flw	ft6,200(sp)
 50a:	5f00                	lw	s0,56(a4)
 50c:	785f 0031 5f5f      	0x5f5f0031785f
 512:	3278                	fld	fa4,224(a2)
 514:	5f00                	lw	s0,56(a4)
 516:	785f 0033 5f5f      	0x5f5f0033785f
 51c:	6876                	flw	fa6,92(sp)
 51e:	5f00                	lw	s0,56(a4)
 520:	765f 006c 5f5f      	0x5f5f006c765f
 526:	756d                	lui	a0,0xffffb
 528:	736c                	flw	fa1,100(a4)
 52a:	3366                	fld	ft6,120(sp)
 52c:	2e00                	fld	fs0,24(a2)
 52e:	2f2e                	fld	ft10,200(sp)
 530:	2e2e                	fld	ft8,200(sp)
 532:	2f2e2e2f          	0x2f2e2e2f
 536:	2e2e                	fld	ft8,200(sp)
 538:	7369722f          	0x7369722f
 53c:	672d7663          	bgeu	s10,s2,ba8 <_start-0x7ffff458>
 540:	6c2f6363          	bltu	t5,sp,c06 <_start-0x7ffff3fa>
 544:	6269                	lui	tp,0x1a
 546:	2f636367          	0x2f636367
 54a:	74666f73          	csrrsi	t5,0x746,12
 54e:	662d                	lui	a2,0xb
 550:	2f70                	fld	fa2,216(a4)
 552:	73627573          	csrrci	a0,0x736,4
 556:	3366                	fld	ft6,120(sp)
 558:	632e                	flw	ft6,200(sp)
 55a:	5f00                	lw	s0,56(a4)
 55c:	735f 6275 6673      	0x66736275735f
 562:	2e2e0033          	0x2e2e0033
 566:	2f2e2e2f          	0x2f2e2e2f
 56a:	2e2e                	fld	ft8,200(sp)
 56c:	2f2e2e2f          	0x2f2e2e2f
 570:	6972                	flw	fs2,28(sp)
 572:	2d766373          	csrrsi	t1,0x2d7,12
 576:	2f636367          	0x2f636367
 57a:	696c                	flw	fa1,84(a0)
 57c:	6762                	flw	fa4,24(sp)
 57e:	732f6363          	bltu	t5,s2,ca4 <_start-0x7ffff35c>
 582:	2d74666f          	jal	a2,47058 <_start-0x7ffb8fa8>
 586:	7066                	flw	ft0,120(sp)
 588:	6f6e752f          	0x6f6e752f
 58c:	6472                	flw	fs0,28(sp)
 58e:	2e326673          	csrrsi	a2,0x2e3,4
 592:	5f5f0063          	beq	t5,s5,b72 <_start-0x7ffff48e>
 596:	6e75                	lui	t3,0x1d
 598:	7364726f          	jal	tp,47cce <_start-0x7ffb8332>
 59c:	3266                	fld	ft4,120(sp)
 59e:	7300                	flw	fs0,32(a4)
 5a0:	6f68                	flw	fa0,92(a4)
 5a2:	7472                	flw	fs0,60(sp)
 5a4:	6920                	flw	fs0,80(a0)
 5a6:	746e                	flw	fs0,248(sp)
 5a8:	6800                	flw	fs0,16(s0)
 5aa:	6174                	flw	fa3,68(a0)
 5ac:	5f62                	lw	t5,56(sp)
 5ae:	6168                	flw	fa0,68(a0)
 5b0:	705f6873          	csrrsi	a6,0x705,30
 5b4:	746e696f          	jal	s2,e6cfa <_start-0x7ff19306>
 5b8:	7265                	lui	tp,0xffff9
 5ba:	5f00                	lw	s0,56(a4)
 5bc:	657a6973          	csrrsi	s2,0x657,20
 5c0:	5f00                	lw	s0,56(a4)
 5c2:	6172                	flw	ft2,28(sp)
 5c4:	646e                	flw	fs0,216(sp)
 5c6:	3834                	fld	fa3,112(s0)
 5c8:	5f00                	lw	s0,56(a4)
 5ca:	6d65                	lui	s10,0x19
 5cc:	7265                	lui	tp,0xffff9
 5ce:	636e6567          	0x636e6567
 5d2:	0079                	c.nop	30
 5d4:	645f 7961 696c      	0x696c7961645f
 5da:	00746867          	0x746867
 5de:	706d6f63          	bltu	s10,t1,cfc <_start-0x7ffff304>
 5e2:	656c                	flw	fa1,76(a0)
 5e4:	2078                	fld	fa4,192(s0)
 5e6:	6f64                	flw	fs1,92(a4)
 5e8:	6275                	lui	tp,0x1d
 5ea:	656c                	flw	fa1,76(a0)
 5ec:	5f00                	lw	s0,56(a4)
 5ee:	64746567          	0x64746567
 5f2:	7461                	lui	s0,0xffff8
 5f4:	5f65                	li	t5,-7
 5f6:	7265                	lui	tp,0xffff9
 5f8:	0072                	c.slli	zero,0x1c
 5fa:	645f 7461 0061      	0x617461645f
 600:	775f 7263 6f74      	0x6f747263775f
 606:	626d                	lui	tp,0x1b
 608:	735f 6174 6574      	0x65746174735f
 60e:	7200                	flw	fs0,32(a2)
 610:	7369                	lui	t1,0xffffa
 612:	6d5f7663          	bgeu	t5,s5,cde <_start-0x7ffff322>
 616:	6369                	lui	t1,0x1a
 618:	6f72                	flw	ft10,28(sp)
 61a:	7261                	lui	tp,0xffff8
 61c:	74696863          	bltu	s2,t1,d6c <_start-0x7ffff294>
 620:	6365                	lui	t1,0x19
 622:	7574                	flw	fa3,108(a0)
 624:	6572                	flw	fa0,28(sp)
 626:	745f 7079 0065      	0x657079745f
 62c:	775f 7363 7472      	0x74727363775f
 632:	73626d6f          	jal	s10,26d68 <_start-0x7ffd9298>
 636:	735f 6174 6574      	0x65746174735f
 63c:	5f00                	lw	s0,56(a4)
 63e:	626c                	flw	fa1,68(a2)
 640:	7366                	flw	ft6,120(sp)
 642:	7a69                	lui	s4,0xffffa
 644:	0065                	c.nop	25
 646:	706d6f63          	bltu	s10,t1,d64 <_start-0x7ffff29c>
 64a:	656c                	flw	fa1,76(a0)
 64c:	2078                	fld	fa4,192(s0)
 64e:	6f6c                	flw	fa1,92(a4)
 650:	676e                	flw	fa4,216(sp)
 652:	6420                	flw	fs0,72(s0)
 654:	6c62756f          	jal	a0,27d1a <_start-0x7ffd82e6>
 658:	0065                	c.nop	25
 65a:	6972                	flw	fs2,28(sp)
 65c:	5f766373          	csrrsi	t1,0x5f7,12
 660:	6261                	lui	tp,0x18
 662:	0069                	c.nop	26
 664:	5f5f 6f6c 6163      	0x61636f6c5f5f
 66a:	656c                	flw	fa1,76(a0)
 66c:	745f 5f00 626d      	0x626d5f00745f
 672:	7472                	flw	fs0,60(sp)
 674:	5f63776f          	jal	a4,37c6a <_start-0x7ffc8396>
 678:	74617473          	csrrci	s0,0x746,2
 67c:	0065                	c.nop	25
 67e:	745f 6e7a 6d61      	0x6d616e7a745f
 684:	0065                	c.nop	25
 686:	775f 7463 6d6f      	0x6d6f7463775f
 68c:	5f62                	lw	t5,56(sp)
 68e:	74617473          	csrrci	s0,0x746,2
 692:	0065                	c.nop	25
 694:	5f5f 6d74 735f      	0x735f6d745f5f
 69a:	6365                	lui	t1,0x19
 69c:	5f00                	lw	s0,56(a4)
 69e:	736f6c63          	bltu	t5,s6,dd6 <_start-0x7ffff22a>
 6a2:	0065                	c.nop	25
 6a4:	755f 7562 0066      	0x667562755f
 6aa:	625f 7361 0065      	0x657361625f
 6b0:	5f5f 6d74 685f      	0x685f6d745f5f
 6b6:	0072756f          	jal	a0,27ebc <_start-0x7ffd8144>
 6ba:	6e75                	lui	t3,0x1d
 6bc:	63657073          	csrci	0x636,10
 6c0:	5f76                	lw	t5,124(sp)
 6c2:	69727473          	csrrci	s0,0x697,4
 6c6:	676e                	flw	fa4,216(sp)
 6c8:	5f5f0073          	0x5f5f0073
 6cc:	5f006673          	csrrsi	a2,0x5f0,0
 6d0:	655f6e6f          	jal	t3,f7524 <_start-0x7ff08adc>
 6d4:	6978                	flw	fa4,84(a0)
 6d6:	5f74                	lw	a3,124(a4)
 6d8:	7261                	lui	tp,0xffff8
 6da:	5f007367          	0x5f007367
 6de:	6b6f6f63          	bltu	t5,s6,d9c <_start-0x7ffff264>
 6e2:	6569                	lui	a0,0x1a
 6e4:	5f00                	lw	s0,56(a4)
 6e6:	735f 6c67 6575      	0x65756c67735f
 6ec:	5f00                	lw	s0,56(a4)
 6ee:	6c66                	flw	fs8,88(sp)
 6f0:	6761                	lui	a4,0x18
 6f2:	695f0073          	0x695f0073
 6f6:	78635f73          	csrrwi	t5,0x786,6
 6fa:	0061                	c.nop	24
 6fc:	775f 7364 5f00      	0x5f007364775f
 702:	465f 4c49 0045      	0x454c49465f
 708:	725f 7365 6c75      	0x6c757365725f
 70e:	5f74                	lw	a3,124(a4)
 710:	5355006b          	0x5355006b
 714:	7449                	lui	s0,0xffff2
 716:	7079                	c.lui	zero,0xffffe
 718:	0065                	c.nop	25
 71a:	6972                	flw	fs2,28(sp)
 71c:	5f766373          	csrrsi	t1,0x5f7,12
 720:	696d                	lui	s2,0x1b
 722:	616f7263          	bgeu	t5,s6,d26 <_start-0x7ffff2da>
 726:	6372                	flw	ft6,28(sp)
 728:	6968                	flw	fa0,84(a0)
 72a:	6574                	flw	fa3,76(a0)
 72c:	72757463          	bgeu	a0,t2,e54 <_start-0x7ffff1ac>
 730:	0065                	c.nop	25
 732:	735f 7379 655f      	0x655f7379735f
 738:	7272                	flw	ft4,60(sp)
 73a:	696c                	flw	fa1,84(a0)
 73c:	5f007473          	csrrci	s0,0x5f0,0
 740:	62747663          	bgeu	s0,t2,d6c <_start-0x7ffff294>
 744:	6675                	lui	a2,0x1d
 746:	5f00                	lw	s0,56(a4)
 748:	626d                	lui	tp,0x1b
 74a:	6f747273          	csrrci	tp,0x6f7,8
 74e:	5f736377          	0x5f736377
 752:	74617473          	csrrci	s0,0x746,2
 756:	0065                	c.nop	25
 758:	6d5f 7262 656c      	0x656c72626d5f
 75e:	5f6e                	lw	t5,248(sp)
 760:	74617473          	csrrci	s0,0x746,2
 764:	0065                	c.nop	25
 766:	6972                	flw	fs2,28(sp)
 768:	5f766373          	csrrsi	t1,0x5f7,12
 76c:	646f6d63          	bltu	t5,t1,dc6 <_start-0x7ffff23a>
 770:	6c65                	lui	s8,0x19
 772:	5f00                	lw	s0,56(a4)
 774:	6e66                	flw	ft8,88(sp)
 776:	7261                	lui	tp,0xffff8
 778:	5f007367          	0x5f007367
 77c:	6e66                	flw	ft8,88(sp)
 77e:	735f0073          	0x735f0073
 782:	6769                	lui	a4,0x1a
 784:	006e                	c.slli	zero,0x1b
 786:	735f 6474 7265      	0x72656474735f
 78c:	0072                	c.slli	zero,0x1c
 78e:	425f 6769 6e69      	0x6e696769425f
 794:	0074                	addi	a3,sp,12
 796:	675f 6d61 616d      	0x616d6d61675f
 79c:	735f 6769 676e      	0x676e6769735f
 7a2:	6d61                	lui	s10,0x18
 7a4:	5f00                	lw	s0,56(a4)
 7a6:	6d6e                	flw	fs10,216(sp)
 7a8:	6c61                	lui	s8,0x18
 7aa:	6f6c                	flw	fa1,92(a4)
 7ac:	5f5f0063          	beq	t5,s5,d8c <_start-0x7ffff274>
 7b0:	6d74                	flw	fa3,92(a0)
 7b2:	7200                	flw	fs0,32(a2)
 7b4:	7369                	lui	t1,0xffffa
 7b6:	615f7663          	bgeu	t5,s5,dc2 <_start-0x7ffff23e>
 7ba:	6962                	flw	fs2,24(sp)
 7bc:	745f 7079 0065      	0x657079745f
 7c2:	6d5f 7362 6174      	0x617473626d5f
 7c8:	6574                	flw	fa3,76(a0)
 7ca:	5f00                	lw	s0,56(a4)
 7cc:	775f 6863 0062      	0x626863775f
 7d2:	635f 7476 656c      	0x656c7476635f
 7d8:	006e                	c.slli	zero,0x1b
 7da:	665f 6c69 0065      	0x656c69665f
 7e0:	6168                	flw	fa0,68(a0)
 7e2:	61766873          	csrrsi	a6,0x617,12
 7e6:	5f6c                	lw	a1,124(a4)
 7e8:	0074                	addi	a3,sp,12
 7ea:	6e5f 6f69 7362      	0x73626f696e5f
 7f0:	5f00                	lw	s0,56(a4)
 7f2:	635f 7a6c 6973      	0x69737a6c635f
 7f8:	0032                	c.slli	zero,0xc
 7fa:	615f 6574 6978      	0x69786574615f
 800:	3074                	fld	fa3,224(s0)
 802:	5f00                	lw	s0,56(a4)
 804:	6e676973          	csrrsi	s2,0x6e6,14
 808:	6c61                	lui	s8,0x18
 80a:	625f 6675 5f00      	0x5f006675625f
 810:	7361                	lui	t1,0xffff8
 812:	6d697463          	bgeu	s2,s6,eda <_start-0x7ffff126>
 816:	5f65                	li	t5,-7
 818:	7562                	flw	fa0,56(sp)
 81a:	0066                	c.slli	zero,0x19
 81c:	725f 7365 6c75      	0x6c757365725f
 822:	0074                	addi	a3,sp,12
 824:	5f5f 6377 0068      	0x6863775f5f
 82a:	6e65                	lui	t3,0x19
 82c:	6976                	flw	fs2,92(sp)
 82e:	6f72                	flw	ft10,28(sp)
 830:	006e                	c.slli	zero,0x1b
 832:	746e6977          	0x746e6977
 836:	745f 5f00 6f6c      	0x6f6c5f00745f
 83c:	41006b63          	bltu	zero,a6,c52 <_start-0x7ffff3ae>
 840:	4942                	lw	s2,16(sp)
 842:	495f 504c 3233      	0x3233504c495f
 848:	0044                	addi	s1,sp,4
 84a:	4241                	li	tp,16
 84c:	5f49                	li	t5,-14
 84e:	4c49                	li	s8,18
 850:	3350                	fld	fa2,160(a4)
 852:	4532                	lw	a0,12(sp)
 854:	5f00                	lw	s0,56(a4)
 856:	756d                	lui	a0,0xffffb
 858:	746c                	flw	fa1,108(s0)
 85a:	7500                	flw	fs0,40(a0)
 85c:	736e                	flw	ft6,248(sp)
 85e:	6570                	flw	fa2,76(a0)
 860:	74735f63          	bge	t1,t2,fbe <_start-0x7ffff042>
 864:	6972                	flw	fs2,28(sp)
 866:	676e                	flw	fa4,216(sp)
 868:	706f0073          	0x706f0073
 86c:	7274                	flw	fa3,100(a2)
 86e:	7365                	lui	t1,0xffff9
 870:	7465                	lui	s0,0xffff9
 872:	5f00                	lw	s0,56(a4)
 874:	74697277          	0x74697277
 878:	0065                	c.nop	25
 87a:	5f5f 6d74 795f      	0x795f6d745f5f
 880:	6165                	addi	sp,sp,112
 882:	0072                	c.slli	zero,0x1c
 884:	4241                	li	tp,16
 886:	5f49                	li	t5,-14
 888:	4c49                	li	s8,18
 88a:	3350                	fld	fa2,160(a4)
 88c:	4632                	lw	a2,12(sp)
 88e:	5f00                	lw	s0,56(a4)
 890:	6e75                	lui	t3,0x1d
 892:	7375                	lui	t1,0xffffd
 894:	6465                	lui	s0,0x19
 896:	725f 6e61 0064      	0x646e61725f
 89c:	6972                	flw	fs2,28(sp)
 89e:	5f766373          	csrrsi	t1,0x5f7,12
 8a2:	65646f63          	bltu	s0,s6,f00 <_start-0x7ffff100>
 8a6:	6d5f 646f 6c65      	0x6c65646f6d5f
 8ac:	5f00                	lw	s0,56(a4)
 8ae:	7366666f          	jal	a2,66fe4 <_start-0x7ff9901c>
 8b2:	7465                	lui	s0,0xffff9
 8b4:	6f00                	flw	fs0,24(a4)
 8b6:	7470                	flw	fa2,108(s0)
 8b8:	6e69                	lui	t3,0x1a
 8ba:	0064                	addi	s1,sp,12
 8bc:	6e5f 7865 6674      	0x667478656e5f
 8c2:	6300                	flw	fs0,0(a4)
 8c4:	6c706d6f          	jal	s10,778a <_start-0x7fff8876>
 8c8:	7865                	lui	a6,0xffff9
 8ca:	6620                	flw	fs0,72(a2)
 8cc:	6f6c                	flw	fa1,92(a4)
 8ce:	7461                	lui	s0,0xffff8
 8d0:	5f00                	lw	s0,56(a4)
 8d2:	745f 5f6d 6f6d      	0x6f6d5f6d745f
 8d8:	006e                	c.slli	zero,0x1b
 8da:	615f 6574 6978      	0x69786574615f
 8e0:	0074                	addi	a3,sp,12
 8e2:	6f627573          	csrrci	a0,0x6f6,4
 8e6:	7470                	flw	fa2,108(s0)
 8e8:	7261                	lui	tp,0xffff8
 8ea:	5f5f0067          	jr	1525(t5)
 8ee:	64696473          	csrrsi	s0,0x646,18
 8f2:	6e69                	lui	t3,0x1a
 8f4:	7469                	lui	s0,0xffffa
 8f6:	5f00                	lw	s0,56(a4)
 8f8:	5f66666f          	jal	a2,66eee <_start-0x7ff99112>
 8fc:	0074                	addi	a3,sp,12
 8fe:	665f 6572 6c65      	0x6c656572665f
 904:	7369                	lui	t1,0xffffa
 906:	0074                	addi	a3,sp,12
 908:	745f 6d69 7a65      	0x7a656d69745f
 90e:	00656e6f          	jal	t3,56914 <_start-0x7ffa96ec>
 912:	6d5f 7362 6174      	0x617473626d5f
 918:	6574                	flw	fa3,76(a0)
 91a:	745f 5f00 4f4c      	0x4f4c5f00745f
 920:	525f4b43          	fmadd.d	fs6,ft10,ft5,fa0,rmm
 924:	4345                	li	t1,17
 926:	5255                	li	tp,-11
 928:	45564953          	0x45564953
 92c:	545f 5f00 6572      	0x65725f00545f
 932:	6461                	lui	s0,0x18
 934:	2e00                	fld	fs0,24(a2)
 936:	2f2e                	fld	ft10,200(sp)
 938:	2e2e                	fld	ft8,200(sp)
 93a:	2f2e2e2f          	0x2f2e2e2f
 93e:	2e2e                	fld	ft8,200(sp)
 940:	7369722f          	0x7369722f
 944:	672d7663          	bgeu	s10,s2,fb0 <_start-0x7ffff050>
 948:	6c2f6363          	bltu	t5,sp,100e <_start-0x7fffeff2>
 94c:	6269                	lui	tp,0x1a
 94e:	2f636367          	0x2f636367
 952:	696c                	flw	fa1,84(a0)
 954:	6762                	flw	fa4,24(sp)
 956:	2e326363          	bltu	tp,gp,c3c <_start-0x7ffff3c4>
 95a:	42410063          	beq	sp,tp,d7a <_start-0x7ffff286>
 95e:	5f49                	li	t5,-14
 960:	504c                	lw	a1,36(s0)
 962:	3436                	fld	fs0,360(sp)
 964:	4100                	lw	s0,0(a0)
 966:	4942                	lw	s2,16(sp)
 968:	495f 504c 3233      	0x3233504c495f
 96e:	5f00                	lw	s0,56(a4)
 970:	7364                	flw	fs1,100(a4)
 972:	61685f6f          	jal	t5,85f88 <_start-0x7ff7a078>
 976:	646e                	flw	fs0,216(sp)
 978:	656c                	flw	fa1,76(a0)
 97a:	4300                	lw	s0,0(a4)
 97c:	5f4d                	li	t5,-13
 97e:	454d                	li	a0,19
 980:	4144                	lw	s1,4(a0)
 982:	594e                	lw	s2,240(sp)
 984:	5f00                	lw	s0,56(a4)
 986:	656e                	flw	fa0,216(sp)
 988:	685f0077          	0x685f0077
 98c:	655f 7272 6f6e      	0x6f6e7272655f
 992:	5f00                	lw	s0,56(a4)
 994:	6c66                	flw	fs8,88(sp)
 996:	5f6b636f          	jal	t1,b6f8c <_start-0x7ff49074>
 99a:	0074                	addi	a3,sp,12
 99c:	5f5f 6d74 795f      	0x795f6d745f5f
 9a2:	6164                	flw	fs1,68(a0)
 9a4:	0079                	c.nop	30
 9a6:	5f5f 6273 6675      	0x667562735f5f
 9ac:	5f00                	lw	s0,56(a4)
 9ae:	6c66                	flw	fs8,88(sp)
 9b0:	6761                	lui	a4,0x18
 9b2:	5f003273          	csrrc	tp,0x5f0,zero
 9b6:	6f69                	lui	t5,0x1a
 9b8:	7362                	flw	ft6,56(sp)
 9ba:	4300                	lw	s0,0(a4)
 9bc:	5f4d                	li	t5,-13
 9be:	454d                	li	a0,19
 9c0:	4c44                	lw	s1,28(s0)
 9c2:	6800574f          	fnmadd.s	fa4,ft0,ft0,fa3,unknown
 9c6:	6174                	flw	fa3,68(a0)
 9c8:	5f62                	lw	t5,56(sp)
 9ca:	6168                	flw	fa0,68(a0)
 9cc:	5f006873          	csrrsi	a6,0x5f0,0
 9d0:	735f 4946 454c      	0x454c4946735f
 9d6:	5f00                	lw	s0,56(a4)
 9d8:	5f737973          	csrrci	s2,0x5f7,6
 9dc:	656e                	flw	fa0,216(sp)
 9de:	7272                	flw	ft4,60(sp)
 9e0:	5f00                	lw	s0,56(a4)
 9e2:	6172                	flw	ft2,28(sp)
 9e4:	646e                	flw	fs0,216(sp)
 9e6:	6e5f 7865 0074      	0x7478656e5f
 9ec:	6d5f 6c62 6e65      	0x6e656c626d5f
 9f2:	735f 6174 6574      	0x65746174735f
 9f8:	5f00                	lw	s0,56(a4)
 9fa:	6e69                	lui	t3,0x1a
 9fc:	695f0063          	beq	t5,s5,107c <_start-0x7fffef84>
 a00:	646e                	flw	fs0,216(sp)
 a02:	5f00                	lw	s0,56(a4)
 a04:	6f6c                	flw	fa1,92(a4)
 a06:	656c6163          	bltu	s8,s6,1048 <_start-0x7fffefb8>
 a0a:	5f00                	lw	s0,56(a4)
 a0c:	635f 656c 6e61      	0x6e61656c635f
 a12:	7075                	c.lui	zero,0xffffd
 a14:	5f00                	lw	s0,56(a4)
 a16:	6e75                	lui	t3,0x1d
 a18:	63657073          	csrci	0x636,10
 a1c:	6669                	lui	a2,0x1a
 a1e:	6569                	lui	a0,0x1a
 a20:	5f64                	lw	s1,124(a4)
 a22:	6f6c                	flw	fa1,92(a4)
 a24:	656c6163          	bltu	s8,s6,1066 <_start-0x7fffef9a>
 a28:	695f 666e 006f      	0x6f666e695f
 a2e:	6d5f 7861 6477      	0x647778616d5f
 a34:	725f0073          	0x725f0073
 a38:	6565                	lui	a0,0x19
 a3a:	746e                	flw	fs0,248(sp)
 a3c:	5f00                	lw	s0,56(a4)
 a3e:	64656573          	csrrsi	a0,0x646,10
 a42:	5f00                	lw	s0,56(a4)
 a44:	635f 756f 746e      	0x746e756f635f
 a4a:	5f00                	lw	s0,56(a4)
 a4c:	765f 6c61 6575      	0x65756c61765f
 a52:	5f00                	lw	s0,56(a4)
 a54:	6b656573          	csrrsi	a0,0x6b6,10
 a58:	5f00                	lw	s0,56(a4)
 a5a:	7066                	flw	ft0,120(sp)
 a5c:	745f736f          	jal	t1,f89a0 <_start-0x7ff07660>
 a60:	7300                	flw	fs0,32(a4)
 a62:	6669                	lui	a2,0x1a
 a64:	7669                	lui	a2,0xffffa
 a66:	5f65                	li	t5,-7
 a68:	625f0037          	lui	zero,0x625f0
 a6c:	6b6c                	flw	fa1,84(a4)
 a6e:	657a6973          	csrrsi	s2,0x657,20
 a72:	6700                	flw	fs0,8(a4)
 a74:	6e65                	lui	t3,0x19
 a76:	7265                	lui	tp,0xffff9
 a78:	6369                	lui	t1,0x1a
 a7a:	6f00                	flw	fs0,24(a4)
 a7c:	7470                	flw	fa2,108(s0)
 a7e:	7265                	lui	tp,0xffff9
 a80:	0072                	c.slli	zero,0x1c
 a82:	735f 7274 6f74      	0x6f747274735f
 a88:	616c5f6b          	0x616c5f6b
 a8c:	43007473          	csrrci	s0,0x430,0
 a90:	5f4d                	li	t5,-13
 a92:	4950                	lw	a2,20(a0)
 a94:	665f0043          	fmadd.q	ft0,ft10,ft5,fa2,rne
 a98:	746e                	flw	fs0,248(sp)
 a9a:	7079                	c.lui	zero,0xffffe
 a9c:	7365                	lui	t1,0xffff9
 a9e:	5f00                	lw	s0,56(a4)
 aa0:	6461                	lui	s0,0x18
 aa2:	0064                	addi	s1,sp,12
 aa4:	5f5f 4c55 6e6f      	0x6e6f4c555f5f
 aaa:	74680067          	jr	1862(a6) # ffff9746 <__global_pointer$+0x7fff5ade>
 aae:	6261                	lui	tp,0x18
 ab0:	655f 5f71 6f70      	0x6f705f71655f
 ab6:	6e69                	lui	t3,0x1a
 ab8:	6574                	flw	fa3,76(a0)
 aba:	0072                	c.slli	zero,0x1c
 abc:	5f5f 7278 5f00      	0x5f0072785f5f
 ac2:	626f6c67          	0x626f6c67
 ac6:	6c61                	lui	s8,0x18
 ac8:	695f 706d 7275      	0x7275706d695f
 ace:	5f65                	li	t5,-7
 ad0:	7470                	flw	fa2,108(s0)
 ad2:	0072                	c.slli	zero,0x1c
 ad4:	735f 6474 756f      	0x756f6474735f
 ada:	0074                	addi	a3,sp,12
 adc:	5f5f 6d74 775f      	0x775f6d745f5f
 ae2:	6164                	flw	fs1,68(a0)
 ae4:	0079                	c.nop	30
 ae6:	675f 756c 0065      	0x65756c675f
 aec:	735f 6474 6e69      	0x6e696474735f
 af2:	5f00                	lw	s0,56(a4)
 af4:	7a697373          	csrrci	t1,0x7a6,18
 af8:	5f65                	li	t5,-7
 afa:	0074                	addi	a3,sp,12
 afc:	6c5f 3436 5f61      	0x5f6134366c5f
 b02:	7562                	flw	fa0,56(sp)
 b04:	0066                	c.slli	zero,0x19
 b06:	735f 6769 665f      	0x665f6769735f
 b0c:	6e75                	lui	t3,0x1d
 b0e:	5f5f0063          	beq	t5,s5,10ee <_start-0x7fffef12>
 b12:	6f70                	flw	fa2,92(a4)
 b14:	6370                	flw	fa2,68(a4)
 b16:	746e756f          	jal	a0,e825c <_start-0x7ff17da4>
 b1a:	745f 6261 5f00      	0x5f006261745f
 b20:	626e                	flw	ft4,216(sp)
 b22:	6675                	lui	a2,0x1d
 b24:	5f00                	lw	s0,56(a4)
 b26:	6e75                	lui	t3,0x1d
 b28:	7375                	lui	t1,0xffffd
 b2a:	6465                	lui	s0,0x19
 b2c:	5f00                	lw	s0,56(a4)
 b2e:	745f 5f6d 7369      	0x73695f6d745f
 b34:	7364                	flw	fs1,100(a4)
 b36:	0074                	addi	a3,sp,12
 b38:	6c5f 636f 6c61      	0x6c61636f6c5f
 b3e:	6974                	flw	fa3,84(a0)
 b40:	656d                	lui	a0,0x1b
 b42:	625f 6675 5f00      	0x5f006675625f
 b48:	745f 5f6d 696d      	0x696d5f6d745f
 b4e:	006e                	c.slli	zero,0x1b
 b50:	725f 3834 4100      	0x41003834725f
 b56:	4942                	lw	s2,16(sp)
 b58:	4c5f 3650 4434      	0x443436504c5f
 b5e:	6f00                	flw	fs0,24(a4)
 b60:	7470                	flw	fa2,108(s0)
 b62:	0074706f          	j	48368 <_start-0x7ffb7c98>
 b66:	4241                	li	tp,16
 b68:	5f49                	li	t5,-14
 b6a:	504c                	lw	a1,36(s0)
 b6c:	3436                	fld	fs0,360(sp)
 b6e:	0046                	c.slli	zero,0x11
 b70:	6d5f 7462 776f      	0x776f74626d5f
 b76:	74735f63          	bge	t1,t2,12d4 <_start-0x7fffed2c>
 b7a:	7461                	lui	s0,0xffff8
 b7c:	0065                	c.nop	25
 b7e:	705f 7335 5f00      	0x5f007335705f
 b84:	745f 5f6d 646d      	0x646d5f6d745f
 b8a:	7961                	lui	s2,0xffff8
 b8c:	6800                	flw	fs0,16(s0)
 b8e:	6174                	flw	fa3,68(a0)
 b90:	5f62                	lw	t5,56(sp)
 b92:	7165                	addi	sp,sp,-400
	...

Disassembly of section .debug_loc:

00000000 <.debug_loc>:
       0:	0000                	unimp
       2:	0000                	unimp
       4:	0068                	addi	a0,sp,12
       6:	0000                	unimp
       8:	0001                	nop
       a:	685a                	flw	fa6,148(sp)
       c:	0000                	unimp
       e:	9800                	0x9800
      10:	0000                	unimp
      12:	0600                	addi	s0,sp,768
      14:	f300                	fsw	fs0,32(a4)
      16:	250af503          	0x250af503
      1a:	989f 0000 2800      	0x28000000989f
      20:	0001                	nop
      22:	0100                	addi	s0,sp,128
      24:	5a00                	lw	s0,48(a2)
      26:	0128                	addi	a0,sp,136
      28:	0000                	unimp
      2a:	0150                	addi	a2,sp,132
      2c:	0000                	unimp
      2e:	0006                	c.slli	zero,0x1
      30:	0af503f3          	0xaf503f3
      34:	9f25                	0x9f25
      36:	0150                	addi	a2,sp,132
      38:	0000                	unimp
      3a:	0184                	addi	s1,sp,192
      3c:	0000                	unimp
      3e:	0001                	nop
      40:	845a                	mv	s0,s6
      42:	0001                	nop
      44:	a000                	fsd	fs0,0(s0)
      46:	0001                	nop
      48:	0600                	addi	s0,sp,768
      4a:	f300                	fsw	fs0,32(a4)
      4c:	250af503          	0x250af503
      50:	a09f 0001 ec00      	0xec000001a09f
      56:	0001                	nop
      58:	0100                	addi	s0,sp,128
      5a:	5a00                	lw	s0,48(a2)
      5c:	01ec                	addi	a1,sp,204
      5e:	0000                	unimp
      60:	0208                	addi	a0,sp,256
      62:	0000                	unimp
      64:	0006                	c.slli	zero,0x1
      66:	0af503f3          	0xaf503f3
      6a:	9f25                	0x9f25
      6c:	0208                	addi	a0,sp,256
      6e:	0000                	unimp
      70:	0264                	addi	s1,sp,268
      72:	0000                	unimp
      74:	0001                	nop
      76:	645a                	flw	fs0,148(sp)
      78:	0002                	c.slli64	zero
      7a:	d000                	sw	s0,32(s0)
      7c:	0002                	c.slli64	zero
      7e:	0600                	addi	s0,sp,768
      80:	f300                	fsw	fs0,32(a4)
      82:	250af503          	0x250af503
      86:	d09f 0002 e800      	0xe8000002d09f
      8c:	0002                	c.slli64	zero
      8e:	0100                	addi	s0,sp,128
      90:	5a00                	lw	s0,48(a2)
      92:	02e8                	addi	a0,sp,332
      94:	0000                	unimp
      96:	02f4                	addi	a3,sp,332
      98:	0000                	unimp
      9a:	0006                	c.slli	zero,0x1
      9c:	0af503f3          	0xaf503f3
      a0:	9f25                	0x9f25
      a2:	02f4                	addi	a3,sp,332
      a4:	0000                	unimp
      a6:	0300                	addi	s0,sp,384
      a8:	0000                	unimp
      aa:	0001                	nop
      ac:	005a                	c.slli	zero,0x16
      ae:	14000003          	lb	zero,320(zero) # 140 <_start-0x7ffffec0>
      b2:	06000003          	lb	zero,96(zero) # 60 <_start-0x7fffffa0>
      b6:	f300                	fsw	fs0,32(a4)
      b8:	250af503          	0x250af503
      bc:	149f 0003 3c00      	0x3c000003149f
      c2:	01000003          	lb	zero,16(zero) # 10 <_start-0x7ffffff0>
      c6:	5a00                	lw	s0,48(a2)
      c8:	033c                	addi	a5,sp,392
      ca:	0000                	unimp
      cc:	0378                	addi	a4,sp,396
      ce:	0000                	unimp
      d0:	0006                	c.slli	zero,0x1
      d2:	0af503f3          	0xaf503f3
      d6:	9f25                	0x9f25
      d8:	0378                	addi	a4,sp,396
      da:	0000                	unimp
      dc:	0388                	addi	a0,sp,448
      de:	0000                	unimp
      e0:	0001                	nop
      e2:	885a                	mv	a6,s6
      e4:	9c000003          	lb	zero,-1600(zero) # fffff9c0 <__global_pointer$+0x7fffbd58>
      e8:	06000003          	lb	zero,96(zero) # 60 <_start-0x7fffffa0>
      ec:	f300                	fsw	fs0,32(a4)
      ee:	250af503          	0x250af503
      f2:	9c9f 0003 b000      	0xb00000039c9f
      f8:	01000003          	lb	zero,16(zero) # 10 <_start-0x7ffffff0>
      fc:	5a00                	lw	s0,48(a2)
      fe:	03b0                	addi	a2,sp,456
     100:	0000                	unimp
     102:	042c                	addi	a1,sp,520
     104:	0000                	unimp
     106:	0006                	c.slli	zero,0x1
     108:	0af503f3          	0xaf503f3
     10c:	9f25                	0x9f25
	...
     11a:	003c                	addi	a5,sp,8
     11c:	0000                	unimp
     11e:	0001                	nop
     120:	00003c5b          	0x3c5b
     124:	2c00                	fld	fs0,24(s0)
     126:	0004                	0x4
     128:	0600                	addi	s0,sp,768
     12a:	f300                	fsw	fs0,32(a4)
     12c:	250bf503          	0x250bf503
     130:	009f 0000 0000      	0x9f
     136:	0000                	unimp
     138:	0000                	unimp
     13a:	0000                	unimp
     13c:	a000                	fsd	fs0,0(s0)
     13e:	0000                	unimp
     140:	0200                	addi	s0,sp,256
     142:	3000                	fld	fs0,32(s0)
     144:	a89f 0000 8400      	0x84000000a89f
     14a:	0001                	nop
     14c:	0200                	addi	s0,sp,256
     14e:	3000                	fld	fs0,32(s0)
     150:	b89f 0001 1400      	0x14000001b89f
     156:	02000003          	lb	zero,32(zero) # 20 <_start-0x7fffffe0>
     15a:	3000                	fld	fs0,32(s0)
     15c:	289f 0003 a400      	0xa4000003289f
     162:	02000003          	lb	zero,32(zero) # 20 <_start-0x7fffffe0>
     166:	3000                	fld	fs0,32(s0)
     168:	ac9f 0003 b400      	0xb4000003ac9f
     16e:	02000003          	lb	zero,32(zero) # 20 <_start-0x7fffffe0>
     172:	3000                	fld	fs0,32(s0)
     174:	009f 0000 0000      	0x9f
     17a:	0000                	unimp
     17c:	3800                	fld	fs0,48(s0)
     17e:	0000                	unimp
     180:	a000                	fsd	fs0,0(s0)
     182:	0000                	unimp
     184:	0100                	addi	s0,sp,128
     186:	5900                	lw	s0,48(a0)
     188:	00a0                	addi	s0,sp,72
     18a:	0000                	unimp
     18c:	00a8                	addi	a0,sp,72
     18e:	0000                	unimp
     190:	0005                	c.nop	1
     192:	007a                	c.slli	zero,0x1e
     194:	a89f254f          	fnmadd.s	fa0,ft10,fs1,fs5,rdn
     198:	0000                	unimp
     19a:	8400                	0x8400
     19c:	0001                	nop
     19e:	0100                	addi	s0,sp,128
     1a0:	5900                	lw	s0,48(a0)
     1a2:	01a0                	addi	s0,sp,200
     1a4:	0000                	unimp
     1a6:	01ac                	addi	a1,sp,200
     1a8:	0000                	unimp
     1aa:	0001                	nop
     1ac:	ac59                	j	442 <_start-0x7ffffbbe>
     1ae:	0001                	nop
     1b0:	b800                	fsd	fs0,48(s0)
     1b2:	0001                	nop
     1b4:	0500                	addi	s0,sp,640
     1b6:	7a00                	flw	fs0,48(a2)
     1b8:	4f00                	lw	s0,24(a4)
     1ba:	9f25                	0x9f25
     1bc:	01b8                	addi	a4,sp,200
     1be:	0000                	unimp
     1c0:	01ec                	addi	a1,sp,204
     1c2:	0000                	unimp
     1c4:	0001                	nop
     1c6:	0859                	addi	a6,a6,22
     1c8:	0002                	c.slli64	zero
     1ca:	7c00                	flw	fs0,56(s0)
     1cc:	0002                	c.slli64	zero
     1ce:	0100                	addi	s0,sp,128
     1d0:	5900                	lw	s0,48(a0)
     1d2:	0280                	addi	s0,sp,320
     1d4:	0000                	unimp
     1d6:	0290                	addi	a2,sp,320
     1d8:	0000                	unimp
     1da:	0001                	nop
     1dc:	9459                	srai	s0,s0,0x36
     1de:	0002                	c.slli64	zero
     1e0:	f000                	fsw	fs0,32(s0)
     1e2:	0002                	c.slli64	zero
     1e4:	0100                	addi	s0,sp,128
     1e6:	5900                	lw	s0,48(a0)
     1e8:	02f4                	addi	a3,sp,332
     1ea:	0000                	unimp
     1ec:	0324                	addi	s1,sp,392
     1ee:	0000                	unimp
     1f0:	0001                	nop
     1f2:	2459                	jal	478 <_start-0x7ffffb88>
     1f4:	28000003          	lb	zero,640(zero) # 280 <_start-0x7ffffd80>
     1f8:	05000003          	lb	zero,80(zero) # 50 <_start-0x7fffffb0>
     1fc:	7a00                	flw	fs0,48(a2)
     1fe:	4f00                	lw	s0,24(a4)
     200:	9f25                	0x9f25
     202:	0328                	addi	a0,sp,392
     204:	0000                	unimp
     206:	033c                	addi	a5,sp,392
     208:	0000                	unimp
     20a:	0001                	nop
     20c:	7859                	lui	a6,0xffff6
     20e:	88000003          	lb	zero,-1920(zero) # fffff880 <__global_pointer$+0x7fffbc18>
     212:	01000003          	lb	zero,16(zero) # 10 <_start-0x7ffffff0>
     216:	5900                	lw	s0,48(a0)
     218:	039c                	addi	a5,sp,448
     21a:	0000                	unimp
     21c:	03b4                	addi	a3,sp,456
     21e:	0000                	unimp
     220:	0001                	nop
     222:	0059                	c.nop	22
     224:	0000                	unimp
     226:	0000                	unimp
     228:	0000                	unimp
     22a:	2000                	fld	fs0,0(s0)
     22c:	0000                	unimp
     22e:	8400                	0x8400
     230:	0001                	nop
     232:	0100                	addi	s0,sp,128
     234:	6200                	flw	fs0,0(a2)
     236:	01a0                	addi	s0,sp,200
     238:	0000                	unimp
     23a:	01e0                	addi	s0,sp,204
     23c:	0000                	unimp
     23e:	0001                	nop
     240:	e062                	fsw	fs8,0(sp)
     242:	0001                	nop
     244:	ec00                	fsw	fs0,24(s0)
     246:	0001                	nop
     248:	0100                	addi	s0,sp,128
     24a:	5e00                	lw	s0,56(a2)
     24c:	01ec                	addi	a1,sp,204
     24e:	0000                	unimp
     250:	0204                	addi	s1,sp,256
     252:	0000                	unimp
     254:	0001                	nop
     256:	0862                	slli	a6,a6,0x18
     258:	0002                	c.slli64	zero
     25a:	1000                	addi	s0,sp,32
     25c:	0002                	c.slli64	zero
     25e:	0100                	addi	s0,sp,128
     260:	5e00                	lw	s0,56(a2)
     262:	0210                	addi	a2,sp,256
     264:	0000                	unimp
     266:	033c                	addi	a5,sp,392
     268:	0000                	unimp
     26a:	0001                	nop
     26c:	7862                	flw	fa6,56(sp)
     26e:	88000003          	lb	zero,-1920(zero) # fffff880 <__global_pointer$+0x7fffbc18>
     272:	01000003          	lb	zero,16(zero) # 10 <_start-0x7ffffff0>
     276:	6200                	flw	fs0,0(a2)
     278:	039c                	addi	a5,sp,448
     27a:	0000                	unimp
     27c:	03b4                	addi	a3,sp,456
     27e:	0000                	unimp
     280:	0001                	nop
     282:	0062                	c.slli	zero,0x18
     284:	0000                	unimp
     286:	0000                	unimp
     288:	0000                	unimp
     28a:	2000                	fld	fs0,0(s0)
     28c:	0000                	unimp
     28e:	6400                	flw	fs0,8(s0)
     290:	0000                	unimp
     292:	0100                	addi	s0,sp,128
     294:	5f00                	lw	s0,56(a4)
     296:	0064                	addi	s1,sp,12
     298:	0000                	unimp
     29a:	0068                	addi	a0,sp,12
     29c:	0000                	unimp
     29e:	007a000b          	0x7a000b
     2a2:	ff0c                	fsw	fa1,56(a4)
     2a4:	7fff                	0x7fff
     2a6:	1a00                	addi	s0,sp,304
     2a8:	989f2433          	0x989f2433
     2ac:	0000                	unimp
     2ae:	a000                	fsd	fs0,0(s0)
     2b0:	0000                	unimp
     2b2:	0100                	addi	s0,sp,128
     2b4:	5f00                	lw	s0,56(a4)
     2b6:	00a0                	addi	s0,sp,72
     2b8:	0000                	unimp
     2ba:	00a8                	addi	a0,sp,72
     2bc:	0000                	unimp
     2be:	007a000b          	0x7a000b
     2c2:	ff0c                	fsw	fa1,56(a4)
     2c4:	7fff                	0x7fff
     2c6:	1a00                	addi	s0,sp,304
     2c8:	a89f2433          	0xa89f2433
     2cc:	0000                	unimp
     2ce:	e000                	fsw	fs0,0(s0)
     2d0:	0000                	unimp
     2d2:	0100                	addi	s0,sp,128
     2d4:	5f00                	lw	s0,56(a4)
     2d6:	00e0                	addi	s0,sp,76
     2d8:	0000                	unimp
     2da:	00e4                	addi	s1,sp,76
     2dc:	0000                	unimp
     2de:	007a000b          	0x7a000b
     2e2:	ff0c                	fsw	fa1,56(a4)
     2e4:	7fff                	0x7fff
     2e6:	1a00                	addi	s0,sp,304
     2e8:	e49f2433          	0xe49f2433
     2ec:	0000                	unimp
     2ee:	0000                	unimp
     2f0:	0001                	nop
     2f2:	0100                	addi	s0,sp,128
     2f4:	5f00                	lw	s0,56(a4)
     2f6:	0100                	addi	s0,sp,128
     2f8:	0000                	unimp
     2fa:	0104                	addi	s1,sp,128
     2fc:	0000                	unimp
     2fe:	007a000b          	0x7a000b
     302:	ff0c                	fsw	fa1,56(a4)
     304:	7fff                	0x7fff
     306:	1a00                	addi	s0,sp,304
     308:	049f2433          	0x49f2433
     30c:	0001                	nop
     30e:	1000                	addi	s0,sp,32
     310:	0001                	nop
     312:	0100                	addi	s0,sp,128
     314:	5f00                	lw	s0,56(a4)
     316:	0110                	addi	a2,sp,128
     318:	0000                	unimp
     31a:	0114                	addi	a3,sp,128
     31c:	0000                	unimp
     31e:	007a000b          	0x7a000b
     322:	ff0c                	fsw	fa1,56(a4)
     324:	7fff                	0x7fff
     326:	1a00                	addi	s0,sp,304
     328:	149f2433          	0x149f2433
     32c:	0001                	nop
     32e:	4000                	lw	s0,0(s0)
     330:	0001                	nop
     332:	0100                	addi	s0,sp,128
     334:	5f00                	lw	s0,56(a4)
     336:	0148                	addi	a0,sp,132
     338:	0000                	unimp
     33a:	0150                	addi	a2,sp,132
     33c:	0000                	unimp
     33e:	0001                	nop
     340:	505d                	c.li	zero,-9
     342:	0001                	nop
     344:	6c00                	flw	fs0,24(s0)
     346:	0001                	nop
     348:	0100                	addi	s0,sp,128
     34a:	5f00                	lw	s0,56(a4)
     34c:	016c                	addi	a1,sp,140
     34e:	0000                	unimp
     350:	0184                	addi	s1,sp,192
     352:	0000                	unimp
     354:	007a000b          	0x7a000b
     358:	ff0c                	fsw	fa1,56(a4)
     35a:	7fff                	0x7fff
     35c:	1a00                	addi	s0,sp,304
     35e:	a09f2433          	0xa09f2433
     362:	0001                	nop
     364:	b000                	fsd	fs0,32(s0)
     366:	0001                	nop
     368:	0100                	addi	s0,sp,128
     36a:	5f00                	lw	s0,56(a4)
     36c:	01b0                	addi	a2,sp,200
     36e:	0000                	unimp
     370:	01b8                	addi	a4,sp,200
     372:	0000                	unimp
     374:	007a000b          	0x7a000b
     378:	ff0c                	fsw	fa1,56(a4)
     37a:	7fff                	0x7fff
     37c:	1a00                	addi	s0,sp,304
     37e:	b89f2433          	0xb89f2433
     382:	0001                	nop
     384:	c400                	sw	s0,8(s0)
     386:	0001                	nop
     388:	0100                	addi	s0,sp,128
     38a:	5f00                	lw	s0,56(a4)
     38c:	01c4                	addi	s1,sp,196
     38e:	0000                	unimp
     390:	01d0                	addi	a2,sp,196
     392:	0000                	unimp
     394:	007a000b          	0x7a000b
     398:	ff0c                	fsw	fa1,56(a4)
     39a:	7fff                	0x7fff
     39c:	1a00                	addi	s0,sp,304
     39e:	d09f2433          	0xd09f2433
     3a2:	0001                	nop
     3a4:	ec00                	fsw	fs0,24(s0)
     3a6:	0001                	nop
     3a8:	0100                	addi	s0,sp,128
     3aa:	5f00                	lw	s0,56(a4)
     3ac:	0208                	addi	a0,sp,256
     3ae:	0000                	unimp
     3b0:	023c                	addi	a5,sp,264
     3b2:	0000                	unimp
     3b4:	0001                	nop
     3b6:	3c5f 0002 4400      	0x440000023c5f
     3bc:	0002                	c.slli64	zero
     3be:	0b00                	addi	s0,sp,400
     3c0:	7a00                	flw	fs0,48(a2)
     3c2:	0c00                	addi	s0,sp,528
     3c4:	ffff                	0xffff
     3c6:	007f                	0x7f
     3c8:	331a                	fld	ft6,416(sp)
     3ca:	9f24                	0x9f24
     3cc:	0244                	addi	s1,sp,260
     3ce:	0000                	unimp
     3d0:	0278                	addi	a4,sp,268
     3d2:	0000                	unimp
     3d4:	0001                	nop
     3d6:	805f 0002 8c00      	0x8c000002805f
     3dc:	0002                	c.slli64	zero
     3de:	0100                	addi	s0,sp,128
     3e0:	5f00                	lw	s0,56(a4)
     3e2:	0294                	addi	a3,sp,320
     3e4:	0000                	unimp
     3e6:	02c0                	addi	s0,sp,324
     3e8:	0000                	unimp
     3ea:	0001                	nop
     3ec:	c85f 0002 d000      	0xd0000002c85f
     3f2:	0002                	c.slli64	zero
     3f4:	0100                	addi	s0,sp,128
     3f6:	5d00                	lw	s0,56(a0)
     3f8:	02d0                	addi	a2,sp,324
     3fa:	0000                	unimp
     3fc:	02e8                	addi	a0,sp,332
     3fe:	0000                	unimp
     400:	0001                	nop
     402:	f45f 0002 0400      	0x4000002f45f
     408:	01000003          	lb	zero,16(zero) # 10 <_start-0x7ffffff0>
     40c:	5f00                	lw	s0,56(a4)
     40e:	0314                	addi	a3,sp,384
     410:	0000                	unimp
     412:	0320                	addi	s0,sp,392
     414:	0000                	unimp
     416:	0001                	nop
     418:	205f 0003 2800      	0x28000003205f
     41e:	0b000003          	lb	zero,176(zero) # b0 <_start-0x7fffff50>
     422:	7a00                	flw	fs0,48(a2)
     424:	0c00                	addi	s0,sp,528
     426:	ffff                	0xffff
     428:	007f                	0x7f
     42a:	331a                	fld	ft6,416(sp)
     42c:	9f24                	0x9f24
     42e:	0328                	addi	a0,sp,392
     430:	0000                	unimp
     432:	033c                	addi	a5,sp,392
     434:	0000                	unimp
     436:	0001                	nop
     438:	785f 0003 8000      	0x80000003785f
     43e:	01000003          	lb	zero,16(zero) # 10 <_start-0x7ffffff0>
     442:	5f00                	lw	s0,56(a4)
     444:	0380                	addi	s0,sp,448
     446:	0000                	unimp
     448:	0388                	addi	a0,sp,448
     44a:	0000                	unimp
     44c:	007a000b          	0x7a000b
     450:	ff0c                	fsw	fa1,56(a4)
     452:	7fff                	0x7fff
     454:	1a00                	addi	s0,sp,304
     456:	9c9f2433          	0x9c9f2433
     45a:	a8000003          	lb	zero,-1408(zero) # fffffa80 <__global_pointer$+0x7fffbe18>
     45e:	01000003          	lb	zero,16(zero) # 10 <_start-0x7ffffff0>
     462:	5f00                	lw	s0,56(a4)
     464:	03a8                	addi	a0,sp,456
     466:	0000                	unimp
     468:	03ac                	addi	a1,sp,456
     46a:	0000                	unimp
     46c:	007a000b          	0x7a000b
     470:	ff0c                	fsw	fa1,56(a4)
     472:	7fff                	0x7fff
     474:	1a00                	addi	s0,sp,304
     476:	ac9f2433          	0xac9f2433
     47a:	b0000003          	lb	zero,-1280(zero) # fffffb00 <__global_pointer$+0x7fffbe98>
     47e:	01000003          	lb	zero,16(zero) # 10 <_start-0x7ffffff0>
     482:	5f00                	lw	s0,56(a4)
	...
     48c:	0040                	addi	s0,sp,4
     48e:	0000                	unimp
     490:	0064                	addi	s1,sp,12
     492:	0000                	unimp
     494:	0001                	nop
     496:	0000985b          	0x985b
     49a:	a000                	fsd	fs0,0(s0)
     49c:	0000                	unimp
     49e:	0100                	addi	s0,sp,128
     4a0:	5b00                	lw	s0,48(a4)
     4a2:	00a8                	addi	a0,sp,72
     4a4:	0000                	unimp
     4a6:	00bc                	addi	a5,sp,72
     4a8:	0000                	unimp
     4aa:	0001                	nop
     4ac:	0000e45b          	0xe45b
     4b0:	ec00                	fsw	fs0,24(s0)
     4b2:	0000                	unimp
     4b4:	0100                	addi	s0,sp,128
     4b6:	5b00                	lw	s0,48(a4)
     4b8:	0150                	addi	a2,sp,132
     4ba:	0000                	unimp
     4bc:	0154                	addi	a3,sp,132
     4be:	0000                	unimp
     4c0:	0001                	nop
     4c2:	0001d05b          	0x1d05b
     4c6:	ec00                	fsw	fs0,24(s0)
     4c8:	0001                	nop
     4ca:	0100                	addi	s0,sp,128
     4cc:	5b00                	lw	s0,48(a4)
     4ce:	0208                	addi	a0,sp,256
     4d0:	0000                	unimp
     4d2:	020c                	addi	a1,sp,256
     4d4:	0000                	unimp
     4d6:	0001                	nop
     4d8:	0002445b          	0x2445b
     4dc:	4800                	lw	s0,16(s0)
     4de:	0002                	c.slli64	zero
     4e0:	0100                	addi	s0,sp,128
     4e2:	5b00                	lw	s0,48(a4)
     4e4:	025c                	addi	a5,sp,260
     4e6:	0000                	unimp
     4e8:	033c                	addi	a5,sp,392
     4ea:	0000                	unimp
     4ec:	0001                	nop
     4ee:	0003785b          	0x3785b
     4f2:	8800                	0x8800
     4f4:	01000003          	lb	zero,16(zero) # 10 <_start-0x7ffffff0>
     4f8:	5b00                	lw	s0,48(a4)
     4fa:	039c                	addi	a5,sp,448
     4fc:	0000                	unimp
     4fe:	03a4                	addi	s1,sp,456
     500:	0000                	unimp
     502:	0001                	nop
     504:	0000005b          	0x5b
     508:	0000                	unimp
     50a:	0000                	unimp
     50c:	4000                	lw	s0,0(s0)
     50e:	0000                	unimp
     510:	6400                	flw	fs0,8(s0)
     512:	0000                	unimp
     514:	0100                	addi	s0,sp,128
     516:	5e00                	lw	s0,56(a2)
     518:	0098                	addi	a4,sp,64
     51a:	0000                	unimp
     51c:	009c                	addi	a5,sp,64
     51e:	0000                	unimp
     520:	0001                	nop
     522:	a85e                	fsd	fs7,16(sp)
     524:	0000                	unimp
     526:	ac00                	fsd	fs0,24(s0)
     528:	0000                	unimp
     52a:	0100                	addi	s0,sp,128
     52c:	5e00                	lw	s0,56(a2)
     52e:	00e4                	addi	s1,sp,76
     530:	0000                	unimp
     532:	010c                	addi	a1,sp,128
     534:	0000                	unimp
     536:	0001                	nop
     538:	145e                	slli	s0,s0,0x37
     53a:	0001                	nop
     53c:	5800                	lw	s0,48(s0)
     53e:	0001                	nop
     540:	0100                	addi	s0,sp,128
     542:	5e00                	lw	s0,56(a2)
     544:	01d0                	addi	a2,sp,196
     546:	0000                	unimp
     548:	01dc                	addi	a5,sp,196
     54a:	0000                	unimp
     54c:	0001                	nop
     54e:	445e                	lw	s0,212(sp)
     550:	0002                	c.slli64	zero
     552:	4c00                	lw	s0,24(s0)
     554:	0002                	c.slli64	zero
     556:	0100                	addi	s0,sp,128
     558:	5e00                	lw	s0,56(a2)
     55a:	025c                	addi	a5,sp,260
     55c:	0000                	unimp
     55e:	0288                	addi	a0,sp,320
     560:	0000                	unimp
     562:	0001                	nop
     564:	945e                	add	s0,s0,s7
     566:	0002                	c.slli64	zero
     568:	d400                	sw	s0,40(s0)
     56a:	0002                	c.slli64	zero
     56c:	0100                	addi	s0,sp,128
     56e:	5e00                	lw	s0,56(a2)
     570:	039c                	addi	a5,sp,448
     572:	0000                	unimp
     574:	03a0                	addi	s0,sp,456
     576:	0000                	unimp
     578:	0001                	nop
     57a:	005e                	c.slli	zero,0x17
     57c:	0000                	unimp
     57e:	0000                	unimp
     580:	0000                	unimp
     582:	4000                	lw	s0,0(s0)
     584:	0000                	unimp
     586:	6400                	flw	fs0,8(s0)
     588:	0000                	unimp
     58a:	0100                	addi	s0,sp,128
     58c:	5c00                	lw	s0,56(s0)
     58e:	0098                	addi	a4,sp,64
     590:	0000                	unimp
     592:	00d4                	addi	a3,sp,68
     594:	0000                	unimp
     596:	0001                	nop
     598:	dc5c                	sw	a5,60(s0)
     59a:	0000                	unimp
     59c:	e400                	fsw	fs0,8(s0)
     59e:	0000                	unimp
     5a0:	0100                	addi	s0,sp,128
     5a2:	5e00                	lw	s0,56(a2)
     5a4:	00e4                	addi	s1,sp,76
     5a6:	0000                	unimp
     5a8:	0184                	addi	s1,sp,192
     5aa:	0000                	unimp
     5ac:	0001                	nop
     5ae:	a05c                	fsd	fa5,128(s0)
     5b0:	0001                	nop
     5b2:	ec00                	fsw	fs0,24(s0)
     5b4:	0001                	nop
     5b6:	0100                	addi	s0,sp,128
     5b8:	5c00                	lw	s0,56(s0)
     5ba:	0208                	addi	a0,sp,256
     5bc:	0000                	unimp
     5be:	0230                	addi	a2,sp,264
     5c0:	0000                	unimp
     5c2:	0001                	nop
     5c4:	385c                	fld	fa5,176(s0)
     5c6:	0002                	c.slli64	zero
     5c8:	4000                	lw	s0,0(s0)
     5ca:	0002                	c.slli64	zero
     5cc:	0100                	addi	s0,sp,128
     5ce:	5e00                	lw	s0,56(a2)
     5d0:	0244                	addi	s1,sp,260
     5d2:	0000                	unimp
     5d4:	033c                	addi	a5,sp,392
     5d6:	0000                	unimp
     5d8:	0001                	nop
     5da:	785c                	flw	fa5,52(s0)
     5dc:	88000003          	lb	zero,-1920(zero) # fffff880 <__global_pointer$+0x7fffbc18>
     5e0:	01000003          	lb	zero,16(zero) # 10 <_start-0x7ffffff0>
     5e4:	5c00                	lw	s0,56(s0)
     5e6:	039c                	addi	a5,sp,448
     5e8:	0000                	unimp
     5ea:	03b0                	addi	a2,sp,456
     5ec:	0000                	unimp
     5ee:	0001                	nop
     5f0:	005c                	addi	a5,sp,4
     5f2:	0000                	unimp
     5f4:	0000                	unimp
     5f6:	0000                	unimp
     5f8:	4c00                	lw	s0,24(s0)
     5fa:	0000                	unimp
     5fc:	a000                	fsd	fs0,0(s0)
     5fe:	0000                	unimp
     600:	0100                	addi	s0,sp,128
     602:	5900                	lw	s0,48(a0)
     604:	00a8                	addi	a0,sp,72
     606:	0000                	unimp
     608:	01a4                	addi	s1,sp,200
     60a:	0000                	unimp
     60c:	0001                	nop
     60e:	b859                	j	fffffea4 <__global_pointer$+0x7fffc23c>
     610:	0001                	nop
     612:	d000                	sw	s0,32(s0)
     614:	0001                	nop
     616:	0100                	addi	s0,sp,128
     618:	5900                	lw	s0,48(a0)
     61a:	01d4                	addi	a3,sp,196
     61c:	0000                	unimp
     61e:	025c                	addi	a5,sp,260
     620:	0000                	unimp
     622:	0001                	nop
     624:	6459                	lui	s0,0x16
     626:	0002                	c.slli64	zero
     628:	8800                	0x8800
     62a:	0002                	c.slli64	zero
     62c:	0100                	addi	s0,sp,128
     62e:	5b00                	lw	s0,48(a4)
     630:	0294                	addi	a3,sp,320
     632:	0000                	unimp
     634:	02d0                	addi	a2,sp,324
     636:	0000                	unimp
     638:	0001                	nop
     63a:	0002fc5b          	0x2fc5b
     63e:	1400                	addi	s0,sp,544
     640:	01000003          	lb	zero,16(zero) # 10 <_start-0x7ffffff0>
     644:	5900                	lw	s0,48(a0)
     646:	032c                	addi	a1,sp,392
     648:	0000                	unimp
     64a:	0338                	addi	a4,sp,392
     64c:	0000                	unimp
     64e:	0001                	nop
     650:	3859                	jal	fffffee6 <__global_pointer$+0x7fffc27e>
     652:	3c000003          	lb	zero,960(zero) # 3c0 <_start-0x7ffffc40>
     656:	01000003          	lb	zero,16(zero) # 10 <_start-0x7ffffff0>
     65a:	5b00                	lw	s0,48(a4)
     65c:	033c                	addi	a5,sp,392
     65e:	0000                	unimp
     660:	03b4                	addi	a3,sp,456
     662:	0000                	unimp
     664:	0001                	nop
     666:	ec59                	bnez	s0,704 <_start-0x7ffff8fc>
     668:	14000003          	lb	zero,320(zero) # 140 <_start-0x7ffffec0>
     66c:	0004                	0x4
     66e:	0100                	addi	s0,sp,128
     670:	5900                	lw	s0,48(a0)
	...
     67a:	0050                	addi	a2,sp,4
     67c:	0000                	unimp
     67e:	0068                	addi	a0,sp,12
     680:	0000                	unimp
     682:	0001                	nop
     684:	6862                	flw	fa6,24(sp)
     686:	0000                	unimp
     688:	9800                	0x9800
     68a:	0000                	unimp
     68c:	0100                	addi	s0,sp,128
     68e:	5e00                	lw	s0,56(a2)
     690:	0098                	addi	a4,sp,64
     692:	0000                	unimp
     694:	00a0                	addi	s0,sp,72
     696:	0000                	unimp
     698:	0001                	nop
     69a:	a862                	fsd	fs8,16(sp)
     69c:	0000                	unimp
     69e:	e400                	fsw	fs0,8(s0)
     6a0:	0000                	unimp
     6a2:	0100                	addi	s0,sp,128
     6a4:	6200                	flw	fs0,0(a2)
     6a6:	00ec                	addi	a1,sp,76
     6a8:	0000                	unimp
     6aa:	010c                	addi	a1,sp,128
     6ac:	0000                	unimp
     6ae:	0001                	nop
     6b0:	145e                	slli	s0,s0,0x37
     6b2:	0001                	nop
     6b4:	5000                	lw	s0,32(s0)
     6b6:	0001                	nop
     6b8:	0100                	addi	s0,sp,128
     6ba:	5e00                	lw	s0,56(a2)
     6bc:	0160                	addi	s0,sp,140
     6be:	0000                	unimp
     6c0:	0180                	addi	s0,sp,192
     6c2:	0000                	unimp
     6c4:	0002                	c.slli64	zero
     6c6:	9f30                	0x9f30
     6c8:	0180                	addi	s0,sp,192
     6ca:	0000                	unimp
     6cc:	0184                	addi	s1,sp,192
     6ce:	0000                	unimp
     6d0:	0002                	c.slli64	zero
     6d2:	9f31                	0x9f31
     6d4:	0184                	addi	s1,sp,192
     6d6:	0000                	unimp
     6d8:	01a0                	addi	s0,sp,200
     6da:	0000                	unimp
     6dc:	0001                	nop
     6de:	a05e                	fsd	fs7,0(sp)
     6e0:	0001                	nop
     6e2:	b800                	fsd	fs0,48(s0)
     6e4:	0001                	nop
     6e6:	0300                	addi	s0,sp,384
     6e8:	0800                	addi	s0,sp,16
     6ea:	9fff                	0x9fff
     6ec:	01b8                	addi	a4,sp,200
     6ee:	0000                	unimp
     6f0:	01d0                	addi	a2,sp,196
     6f2:	0000                	unimp
     6f4:	0001                	nop
     6f6:	0001d45b          	0x1d45b
     6fa:	e000                	fsw	fs0,0(s0)
     6fc:	0001                	nop
     6fe:	0100                	addi	s0,sp,128
     700:	6200                	flw	fs0,0(a2)
     702:	01e0                	addi	s0,sp,204
     704:	0000                	unimp
     706:	0210                	addi	a2,sp,256
     708:	0000                	unimp
     70a:	0001                	nop
     70c:	105e                	c.slli	zero,0x37
     70e:	0002                	c.slli64	zero
     710:	5c00                	lw	s0,56(s0)
     712:	0002                	c.slli64	zero
     714:	0100                	addi	s0,sp,128
     716:	6200                	flw	fs0,0(a2)
     718:	0264                	addi	s1,sp,268
     71a:	0000                	unimp
     71c:	0288                	addi	a0,sp,320
     71e:	0000                	unimp
     720:	0001                	nop
     722:	945e                	add	s0,s0,s7
     724:	0002                	c.slli64	zero
     726:	d000                	sw	s0,32(s0)
     728:	0002                	c.slli64	zero
     72a:	0100                	addi	s0,sp,128
     72c:	5e00                	lw	s0,56(a2)
     72e:	02e0                	addi	s0,sp,332
     730:	0000                	unimp
     732:	02ec                	addi	a1,sp,332
     734:	0000                	unimp
     736:	0002                	c.slli64	zero
     738:	9f30                	0x9f30
     73a:	02f4                	addi	a3,sp,332
     73c:	0000                	unimp
     73e:	0314                	addi	a3,sp,384
     740:	0000                	unimp
     742:	0002                	c.slli64	zero
     744:	9f30                	0x9f30
     746:	0314                	addi	a3,sp,384
     748:	0000                	unimp
     74a:	0328                	addi	a0,sp,392
     74c:	0000                	unimp
     74e:	ff080003          	lb	zero,-16(a6) # ffff5ff0 <__global_pointer$+0x7fff2388>
     752:	289f 0003 7000      	0x70000003289f
     758:	01000003          	lb	zero,16(zero) # 10 <_start-0x7ffffff0>
     75c:	6200                	flw	fs0,0(a2)
     75e:	0370                	addi	a2,sp,396
     760:	0000                	unimp
     762:	0378                	addi	a4,sp,396
     764:	0000                	unimp
     766:	0002                	c.slli64	zero
     768:	9f30                	0x9f30
     76a:	0378                	addi	a4,sp,396
     76c:	0000                	unimp
     76e:	0394                	addi	a3,sp,448
     770:	0000                	unimp
     772:	0001                	nop
     774:	9462                	add	s0,s0,s8
     776:	9c000003          	lb	zero,-1600(zero) # fffff9c0 <__global_pointer$+0x7fffbd58>
     77a:	01000003          	lb	zero,16(zero) # 10 <_start-0x7ffffff0>
     77e:	5e00                	lw	s0,56(a2)
     780:	039c                	addi	a5,sp,448
     782:	0000                	unimp
     784:	03a4                	addi	s1,sp,456
     786:	0000                	unimp
     788:	0001                	nop
     78a:	a462                	fsd	fs8,8(sp)
     78c:	ac000003          	lb	zero,-1344(zero) # fffffac0 <__global_pointer$+0x7fffbe58>
     790:	03000003          	lb	zero,48(zero) # 30 <_start-0x7fffffd0>
     794:	0800                	addi	s0,sp,16
     796:	9fff                	0x9fff
     798:	03ac                	addi	a1,sp,456
     79a:	0000                	unimp
     79c:	03b0                	addi	a2,sp,456
     79e:	0000                	unimp
     7a0:	0001                	nop
     7a2:	0003c05b          	0x3c05b
     7a6:	e000                	fsw	fs0,0(s0)
     7a8:	01000003          	lb	zero,16(zero) # 10 <_start-0x7ffffff0>
     7ac:	5e00                	lw	s0,56(a2)
     7ae:	03e0                	addi	s0,sp,460
     7b0:	0000                	unimp
     7b2:	03ec                	addi	a1,sp,460
     7b4:	0000                	unimp
     7b6:	ff080003          	lb	zero,-16(a6)
     7ba:	249f 0004 2c00      	0x2c000004249f
     7c0:	0004                	0x4
     7c2:	0100                	addi	s0,sp,128
     7c4:	5e00                	lw	s0,56(a2)
	...
     7ce:	0064                	addi	s1,sp,12
     7d0:	0000                	unimp
     7d2:	0070                	addi	a2,sp,12
     7d4:	0000                	unimp
     7d6:	0001                	nop
     7d8:	705f 0000 7400      	0x74000000705f
     7de:	0000                	unimp
     7e0:	0900                	addi	s0,sp,144
     7e2:	7f00                	flw	fs0,56(a4)
     7e4:	1100                	addi	s0,sp,160
     7e6:	ffff                	0xffff
     7e8:	5fff                	0x5fff
     7ea:	9f1a                	add	t5,t5,t1
     7ec:	0074                	addi	a3,sp,12
     7ee:	0000                	unimp
     7f0:	0084                	addi	s1,sp,64
     7f2:	0000                	unimp
     7f4:	0010                	0x10
     7f6:	007f                	0x7f
     7f8:	2531                	jal	e04 <_start-0x7ffff1fc>
     7fa:	ff0c                	fsw	fa1,56(a4)
     7fc:	ffff                	0xffff
     7fe:	1a7d                	addi	s4,s4,-1
     800:	007f                	0x7f
     802:	1a31                	addi	s4,s4,-20
     804:	9f21                	0x9f21
     806:	0084                	addi	s1,sp,64
     808:	0000                	unimp
     80a:	008c                	addi	a1,sp,64
     80c:	0000                	unimp
     80e:	000e                	c.slli	zero,0x3
     810:	007f                	0x7f
     812:	2531                	jal	e1e <_start-0x7ffff1e2>
     814:	ff0c                	fsw	fa1,56(a4)
     816:	ffff                	0xffff
     818:	1a7d                	addi	s4,s4,-1
     81a:	007c                	addi	a5,sp,12
     81c:	9f21                	0x9f21
     81e:	008c                	addi	a1,sp,64
     820:	0000                	unimp
     822:	0090                	addi	a2,sp,64
     824:	0000                	unimp
     826:	000c                	0xc
     828:	007f                	0x7f
     82a:	ff0c                	fsw	fa1,56(a4)
     82c:	ffff                	0xffff
     82e:	1a7d                	addi	s4,s4,-1
     830:	007c                	addi	a5,sp,12
     832:	9f21                	0x9f21
     834:	0100                	addi	s0,sp,128
     836:	0000                	unimp
     838:	0104                	addi	s1,sp,128
     83a:	0000                	unimp
     83c:	0001                	nop
     83e:	4c5f 0001 5000      	0x500000014c5f
     844:	0001                	nop
     846:	0100                	addi	s0,sp,128
     848:	5f00                	lw	s0,56(a4)
     84a:	016c                	addi	a1,sp,140
     84c:	0000                	unimp
     84e:	01a0                	addi	s0,sp,200
     850:	0000                	unimp
     852:	0001                	nop
     854:	b85f 0001 c400      	0xc4000001b85f
     85a:	0001                	nop
     85c:	0800                	addi	s0,sp,16
     85e:	7f00                	flw	fs0,56(a4)
     860:	7c00                	flw	fs0,56(s0)
     862:	2200                	fld	fs0,0(a2)
     864:	2531                	jal	e70 <_start-0x7ffff190>
     866:	c49f 0001 c800      	0xc8000001c49f
     86c:	0001                	nop
     86e:	0500                	addi	s0,sp,640
     870:	7f00                	flw	fs0,56(a4)
     872:	3100                	fld	fs0,32(a0)
     874:	9f25                	0x9f25
     876:	01c8                	addi	a0,sp,196
     878:	0000                	unimp
     87a:	01d0                	addi	a2,sp,196
     87c:	0000                	unimp
     87e:	0010                	0x10
     880:	007a                	c.slli	zero,0x1e
     882:	ff0c                	fsw	fa1,56(a4)
     884:	7fff                	0x7fff
     886:	1a00                	addi	s0,sp,304
     888:	007c2433          	slt	s0,s8,t2
     88c:	3122                	fld	ft2,40(sp)
     88e:	9f25                	0x9f25
     890:	01ec                	addi	a1,sp,204
     892:	0000                	unimp
     894:	0200                	addi	s0,sp,256
     896:	0000                	unimp
     898:	0001                	nop
     89a:	005f 0002 0800      	0x8000002005f
     8a0:	0002                	c.slli64	zero
     8a2:	0100                	addi	s0,sp,128
     8a4:	5800                	lw	s0,48(s0)
     8a6:	023c                	addi	a5,sp,264
     8a8:	0000                	unimp
     8aa:	0244                	addi	s1,sp,260
     8ac:	0000                	unimp
     8ae:	0001                	nop
     8b0:	785f 0002 8000      	0x80000002785f
     8b6:	0002                	c.slli64	zero
     8b8:	0100                	addi	s0,sp,128
     8ba:	5f00                	lw	s0,56(a4)
     8bc:	02e4                	addi	s1,sp,332
     8be:	0000                	unimp
     8c0:	02e8                	addi	a0,sp,332
     8c2:	0000                	unimp
     8c4:	0001                	nop
     8c6:	fc5c                	fsw	fa5,60(s0)
     8c8:	0002                	c.slli64	zero
     8ca:	1400                	addi	s0,sp,544
     8cc:	01000003          	lb	zero,16(zero) # 10 <_start-0x7ffffff0>
     8d0:	5d00                	lw	s0,56(a0)
     8d2:	032c                	addi	a1,sp,392
     8d4:	0000                	unimp
     8d6:	0368                	addi	a0,sp,396
     8d8:	0000                	unimp
     8da:	0001                	nop
     8dc:	7058                	flw	fa4,36(s0)
     8de:	78000003          	lb	zero,1920(zero) # 780 <_start-0x7ffff880>
     8e2:	01000003          	lb	zero,16(zero) # 10 <_start-0x7ffffff0>
     8e6:	5f00                	lw	s0,56(a4)
     8e8:	0378                	addi	a4,sp,396
     8ea:	0000                	unimp
     8ec:	0398                	addi	a4,sp,448
     8ee:	0000                	unimp
     8f0:	0001                	nop
     8f2:	9858                	0x9858
     8f4:	9c000003          	lb	zero,-1600(zero) # fffff9c0 <__global_pointer$+0x7fffbd58>
     8f8:	01000003          	lb	zero,16(zero) # 10 <_start-0x7ffffff0>
     8fc:	5f00                	lw	s0,56(a4)
     8fe:	03ac                	addi	a1,sp,456
     900:	0000                	unimp
     902:	03b0                	addi	a2,sp,456
     904:	0000                	unimp
     906:	0008                	0x8
     908:	007f                	0x7f
     90a:	007c                	addi	a5,sp,12
     90c:	3122                	fld	ft2,40(sp)
     90e:	9f25                	0x9f25
     910:	03b4                	addi	a3,sp,456
     912:	0000                	unimp
     914:	03bc                	addi	a5,sp,456
     916:	0000                	unimp
     918:	0001                	nop
     91a:	bc5f 0003 d400      	0xd4000003bc5f
     920:	09000003          	lb	zero,144(zero) # 90 <_start-0x7fffff70>
     924:	7f00                	flw	fs0,56(a4)
     926:	1100                	addi	s0,sp,160
     928:	ffff                	0xffff
     92a:	5fff                	0x5fff
     92c:	9f1a                	add	t5,t5,t1
     92e:	03d4                	addi	a3,sp,452
     930:	0000                	unimp
     932:	03e8                	addi	a0,sp,460
     934:	0000                	unimp
     936:	0001                	nop
     938:	ec5f 0003 0000      	0x3ec5f
     93e:	0004                	0x4
     940:	0100                	addi	s0,sp,128
     942:	5f00                	lw	s0,56(a4)
     944:	0424                	addi	s1,sp,520
     946:	0000                	unimp
     948:	0428                	addi	a0,sp,520
     94a:	0000                	unimp
     94c:	0009                	c.nop	2
     94e:	007f                	0x7f
     950:	ff11                	bnez	a4,86c <_start-0x7ffff794>
     952:	ffff                	0xffff
     954:	1a5f 009f 0000      	0x9f1a5f
     95a:	0000                	unimp
     95c:	0000                	unimp
     95e:	1000                	addi	s0,sp,32
     960:	0004                	0x4
     962:	1c00                	addi	s0,sp,560
     964:	0004                	0x4
     966:	0800                	addi	s0,sp,16
     968:	7f00                	flw	fs0,56(a4)
     96a:	7a00                	flw	fs0,48(a2)
     96c:	2100                	fld	fs0,0(a0)
     96e:	25f9                	jal	103c <_start-0x7fffefc4>
     970:	1c9f 0004 2400      	0x240000041c9f
     976:	0004                	0x4
     978:	0100                	addi	s0,sp,128
     97a:	5a00                	lw	s0,48(a2)
	...
     984:	004c                	addi	a1,sp,4
     986:	0000                	unimp
     988:	0064                	addi	s1,sp,12
     98a:	0000                	unimp
     98c:	0001                	nop
     98e:	985d                	andi	s0,s0,-9
     990:	0000                	unimp
     992:	a000                	fsd	fs0,0(s0)
     994:	0000                	unimp
     996:	0100                	addi	s0,sp,128
     998:	5d00                	lw	s0,56(a0)
     99a:	00a8                	addi	a0,sp,72
     99c:	0000                	unimp
     99e:	00d0                	addi	a2,sp,68
     9a0:	0000                	unimp
     9a2:	0001                	nop
     9a4:	e45d                	bnez	s0,a52 <_start-0x7ffff5ae>
     9a6:	0000                	unimp
     9a8:	ec00                	fsw	fs0,24(s0)
     9aa:	0000                	unimp
     9ac:	0100                	addi	s0,sp,128
     9ae:	5d00                	lw	s0,56(a0)
     9b0:	00ec                	addi	a1,sp,76
     9b2:	0000                	unimp
     9b4:	010c                	addi	a1,sp,128
     9b6:	0000                	unimp
     9b8:	0001                	nop
     9ba:	0001145b          	0x1145b
     9be:	5000                	lw	s0,32(s0)
     9c0:	0001                	nop
     9c2:	0100                	addi	s0,sp,128
     9c4:	5b00                	lw	s0,48(a4)
     9c6:	0150                	addi	a2,sp,132
     9c8:	0000                	unimp
     9ca:	0170                	addi	a2,sp,140
     9cc:	0000                	unimp
     9ce:	0001                	nop
     9d0:	a05d                	j	a76 <_start-0x7ffff58a>
     9d2:	0001                	nop
     9d4:	a400                	fsd	fs0,8(s0)
     9d6:	0001                	nop
     9d8:	0100                	addi	s0,sp,128
     9da:	5d00                	lw	s0,56(a0)
     9dc:	01b8                	addi	a4,sp,200
     9de:	0000                	unimp
     9e0:	01d0                	addi	a2,sp,196
     9e2:	0000                	unimp
     9e4:	0001                	nop
     9e6:	9c5d                	0x9c5d
     9e8:	b0000003          	lb	zero,-1280(zero) # fffffb00 <__global_pointer$+0x7fffbe98>
     9ec:	01000003          	lb	zero,16(zero) # 10 <_start-0x7ffffff0>
     9f0:	5d00                	lw	s0,56(a0)
	...
     9fa:	01d0                	addi	a2,sp,196
     9fc:	0000                	unimp
     9fe:	01dc                	addi	a5,sp,196
     a00:	0000                	unimp
     a02:	0006                	c.slli	zero,0x1
     a04:	0082                	c.slli64	ra
     a06:	007e                	c.slli	zero,0x1f
     a08:	9f1c                	0x9f1c
     a0a:	01e4                	addi	s1,sp,204
     a0c:	0000                	unimp
     a0e:	01ec                	addi	a1,sp,204
     a10:	0000                	unimp
     a12:	0001                	nop
     a14:	085d                	addi	a6,a6,23
     a16:	0002                	c.slli64	zero
     a18:	2c00                	fld	fs0,24(s0)
     a1a:	0002                	c.slli64	zero
     a1c:	0100                	addi	s0,sp,128
     a1e:	5d00                	lw	s0,56(a0)
     a20:	0244                	addi	s1,sp,260
     a22:	0000                	unimp
     a24:	024c                	addi	a1,sp,260
     a26:	0000                	unimp
     a28:	0006                	c.slli	zero,0x1
     a2a:	0082                	c.slli64	ra
     a2c:	007e                	c.slli	zero,0x1f
     a2e:	9f1c                	0x9f1c
     a30:	025c                	addi	a5,sp,260
     a32:	0000                	unimp
     a34:	0264                	addi	s1,sp,268
     a36:	0000                	unimp
     a38:	0006                	c.slli	zero,0x1
     a3a:	0082                	c.slli64	ra
     a3c:	007e                	c.slli	zero,0x1f
     a3e:	9f1c                	0x9f1c
     a40:	0264                	addi	s1,sp,268
     a42:	0000                	unimp
     a44:	0288                	addi	a0,sp,320
     a46:	0000                	unimp
     a48:	0001                	nop
     a4a:	945a                	add	s0,s0,s6
     a4c:	0002                	c.slli64	zero
     a4e:	d000                	sw	s0,32(s0)
     a50:	0002                	c.slli64	zero
     a52:	0100                	addi	s0,sp,128
     a54:	5a00                	lw	s0,48(a2)
     a56:	02d0                	addi	a2,sp,324
     a58:	0000                	unimp
     a5a:	02d4                	addi	a3,sp,324
     a5c:	0000                	unimp
     a5e:	0006                	c.slli	zero,0x1
     a60:	0082                	c.slli64	ra
     a62:	007e                	c.slli	zero,0x1f
     a64:	9f1c                	0x9f1c
	...
     a6e:	0344                	addi	s1,sp,388
     a70:	0000                	unimp
     a72:	0348                	addi	a0,sp,388
     a74:	0000                	unimp
     a76:	0001                	nop
     a78:	485a                	lw	a6,148(sp)
     a7a:	54000003          	lb	zero,1344(zero) # 540 <_start-0x7ffffac0>
     a7e:	01000003          	lb	zero,16(zero) # 10 <_start-0x7ffffff0>
     a82:	5e00                	lw	s0,56(a2)
     a84:	0354                	addi	a3,sp,388
     a86:	0000                	unimp
     a88:	0358                	addi	a4,sp,388
     a8a:	0000                	unimp
     a8c:	7b7a0003          	lb	zero,1975(s4) # ffffa7b7 <__global_pointer$+0x7fff6b4f>
     a90:	589f 0003 6400      	0x64000003589f
     a96:	01000003          	lb	zero,16(zero) # 10 <_start-0x7ffffff0>
     a9a:	5e00                	lw	s0,56(a2)
     a9c:	0364                	addi	s1,sp,396
     a9e:	0000                	unimp
     aa0:	0378                	addi	a4,sp,396
     aa2:	0000                	unimp
     aa4:	0008                	0x8
     aa6:	007a                	c.slli	zero,0x1e
     aa8:	0082                	c.slli64	ra
     aaa:	341c                	fld	fa5,40(s0)
     aac:	9f1c                	0x9f1c
     aae:	0388                	addi	a0,sp,448
     ab0:	0000                	unimp
     ab2:	0394                	addi	a3,sp,448
     ab4:	0000                	unimp
     ab6:	0001                	nop
     ab8:	945e                	add	s0,s0,s7
     aba:	9c000003          	lb	zero,-1600(zero) # fffff9c0 <__global_pointer$+0x7fffbd58>
     abe:	03000003          	lb	zero,48(zero) # 30 <_start-0x7fffffd0>
     ac2:	7a00                	flw	fs0,48(a2)
     ac4:	00009f7b          	0x9f7b
	...
     ad0:	0000                	unimp
     ad2:	0054                	addi	a3,sp,4
     ad4:	0000                	unimp
     ad6:	0001                	nop
     ad8:	545a                	lw	s0,180(sp)
     ada:	0000                	unimp
     adc:	c000                	sw	s0,0(s0)
     ade:	0000                	unimp
     ae0:	0600                	addi	s0,sp,768
     ae2:	f300                	fsw	fs0,32(a4)
     ae4:	250af503          	0x250af503
     ae8:	c09f 0000 c800      	0xc8000000c09f
     aee:	0000                	unimp
     af0:	0100                	addi	s0,sp,128
     af2:	5a00                	lw	s0,48(a2)
     af4:	00c8                	addi	a0,sp,68
     af6:	0000                	unimp
     af8:	00e0                	addi	s0,sp,76
     afa:	0000                	unimp
     afc:	0006                	c.slli	zero,0x1
     afe:	0af503f3          	0xaf503f3
     b02:	9f25                	0x9f25
     b04:	00e0                	addi	s0,sp,76
     b06:	0000                	unimp
     b08:	0100                	addi	s0,sp,128
     b0a:	0000                	unimp
     b0c:	0001                	nop
     b0e:	005a                	c.slli	zero,0x16
     b10:	0001                	nop
     b12:	2c00                	fld	fs0,24(s0)
     b14:	06000003          	lb	zero,96(zero) # 60 <_start-0x7fffffa0>
     b18:	f300                	fsw	fs0,32(a4)
     b1a:	250af503          	0x250af503
     b1e:	009f 0000 0000      	0x9f
     b24:	0000                	unimp
     b26:	0000                	unimp
     b28:	0000                	unimp
     b2a:	5400                	lw	s0,40(s0)
     b2c:	0000                	unimp
     b2e:	0100                	addi	s0,sp,128
     b30:	5b00                	lw	s0,48(a4)
     b32:	0054                	addi	a3,sp,4
     b34:	0000                	unimp
     b36:	006c                	addi	a1,sp,12
     b38:	0000                	unimp
     b3a:	0001                	nop
     b3c:	6c64                	flw	fs1,92(s0)
     b3e:	0000                	unimp
     b40:	c000                	sw	s0,0(s0)
     b42:	0000                	unimp
     b44:	0600                	addi	s0,sp,768
     b46:	f300                	fsw	fs0,32(a4)
     b48:	250bf503          	0x250bf503
     b4c:	c09f 0000 cb00      	0xcb000000c09f
     b52:	0000                	unimp
     b54:	0100                	addi	s0,sp,128
     b56:	5b00                	lw	s0,48(a4)
     b58:	000000cb          	fnmsub.s	ft1,ft0,ft0,ft0,rne
     b5c:	00e0                	addi	s0,sp,76
     b5e:	0000                	unimp
     b60:	0001                	nop
     b62:	e064                	fsw	fs1,68(s0)
     b64:	0000                	unimp
     b66:	0000                	unimp
     b68:	0001                	nop
     b6a:	0100                	addi	s0,sp,128
     b6c:	5b00                	lw	s0,48(a4)
     b6e:	0100                	addi	s0,sp,128
     b70:	0000                	unimp
     b72:	032c                	addi	a1,sp,392
     b74:	0000                	unimp
     b76:	0006                	c.slli	zero,0x1
     b78:	0bf503f3          	0xbf503f3
     b7c:	9f25                	0x9f25
	...
     b8a:	0058                	addi	a4,sp,4
     b8c:	0000                	unimp
     b8e:	0002                	c.slli64	zero
     b90:	9f30                	0x9f30
     b92:	00c0                	addi	s0,sp,68
     b94:	0000                	unimp
     b96:	0100                	addi	s0,sp,128
     b98:	0000                	unimp
     b9a:	0002                	c.slli64	zero
     b9c:	9f30                	0x9f30
	...
     ba6:	0054                	addi	a3,sp,4
     ba8:	0000                	unimp
     baa:	0058                	addi	a4,sp,4
     bac:	0000                	unimp
     bae:	0002                	c.slli64	zero
     bb0:	9f30                	0x9f30
     bb2:	0058                	addi	a4,sp,4
     bb4:	0000                	unimp
     bb6:	00c0                	addi	s0,sp,68
     bb8:	0000                	unimp
     bba:	0001                	nop
     bbc:	0065                	c.nop	25
     bbe:	0001                	nop
     bc0:	6000                	flw	fs0,0(s0)
     bc2:	0002                	c.slli64	zero
     bc4:	0100                	addi	s0,sp,128
     bc6:	6500                	flw	fs0,8(a0)
     bc8:	0268                	addi	a0,sp,268
     bca:	0000                	unimp
     bcc:	032c                	addi	a1,sp,392
     bce:	0000                	unimp
     bd0:	0001                	nop
     bd2:	0065                	c.nop	25
     bd4:	0000                	unimp
     bd6:	0000                	unimp
     bd8:	0000                	unimp
     bda:	3800                	fld	fs0,48(s0)
     bdc:	0000                	unimp
     bde:	5400                	lw	s0,40(s0)
     be0:	0002                	c.slli64	zero
     be2:	0600                	addi	s0,sp,768
     be4:	8200                	0x8200
     be6:	0800                	addi	s0,sp,16
     be8:	1aff                	0x1aff
     bea:	689f 0002 2c00      	0x2c000002689f
     bf0:	06000003          	lb	zero,96(zero) # 60 <_start-0x7fffffa0>
     bf4:	8200                	0x8200
     bf6:	0800                	addi	s0,sp,16
     bf8:	1aff                	0x1aff
     bfa:	009f 0000 0000      	0x9f
     c00:	0000                	unimp
     c02:	3400                	fld	fs0,40(s0)
     c04:	0000                	unimp
     c06:	5400                	lw	s0,40(s0)
     c08:	0000                	unimp
     c0a:	0600                	addi	s0,sp,768
     c0c:	7900                	flw	fs0,48(a0)
     c0e:	0800                	addi	s0,sp,16
     c10:	1aff                	0x1aff
     c12:	549f 0000 9800      	0x98000000549f
     c18:	0000                	unimp
     c1a:	0100                	addi	s0,sp,128
     c1c:	5900                	lw	s0,48(a0)
     c1e:	00c0                	addi	s0,sp,68
     c20:	0000                	unimp
     c22:	00d4                	addi	a3,sp,68
     c24:	0000                	unimp
     c26:	0006                	c.slli	zero,0x1
     c28:	0079                	c.nop	30
     c2a:	ff08                	fsw	fa0,56(a4)
     c2c:	9f1a                	add	t5,t5,t1
     c2e:	00e0                	addi	s0,sp,76
     c30:	0000                	unimp
     c32:	00e4                	addi	s1,sp,76
     c34:	0000                	unimp
     c36:	0006                	c.slli	zero,0x1
     c38:	0079                	c.nop	30
     c3a:	ff08                	fsw	fa0,56(a4)
     c3c:	9f1a                	add	t5,t5,t1
     c3e:	00e4                	addi	s1,sp,76
     c40:	0000                	unimp
     c42:	00f4                	addi	a3,sp,76
     c44:	0000                	unimp
     c46:	0008                	0x8
     c48:	007a                	c.slli	zero,0x1e
     c4a:	ff082547          	fmsub.q	fa0,fa6,fa6,ft11,rdn
     c4e:	9f1a                	add	t5,t5,t1
     c50:	00f4                	addi	a3,sp,76
     c52:	0000                	unimp
     c54:	00f8                	addi	a4,sp,76
     c56:	0000                	unimp
     c58:	0006                	c.slli	zero,0x1
     c5a:	0079                	c.nop	30
     c5c:	ff08                	fsw	fa0,56(a4)
     c5e:	9f1a                	add	t5,t5,t1
     c60:	00f8                	addi	a4,sp,76
     c62:	0000                	unimp
     c64:	0100                	addi	s0,sp,128
     c66:	0000                	unimp
     c68:	0008                	0x8
     c6a:	007a                	c.slli	zero,0x1e
     c6c:	ff082547          	fmsub.q	fa0,fa6,fa6,ft11,rdn
     c70:	9f1a                	add	t5,t5,t1
     c72:	0100                	addi	s0,sp,128
     c74:	0000                	unimp
     c76:	0140                	addi	s0,sp,132
     c78:	0000                	unimp
     c7a:	0001                	nop
     c7c:	0059                	c.nop	22
     c7e:	0000                	unimp
     c80:	0000                	unimp
     c82:	0000                	unimp
     c84:	3400                	fld	fs0,40(s0)
     c86:	0000                	unimp
     c88:	4400                	lw	s0,8(s0)
     c8a:	0000                	unimp
     c8c:	0100                	addi	s0,sp,128
     c8e:	6300                	flw	fs0,0(a4)
     c90:	0044                	addi	s1,sp,4
     c92:	0000                	unimp
     c94:	0048                	addi	a0,sp,4
     c96:	0000                	unimp
     c98:	00830007          	0x830007
     c9c:	4340                	lw	s0,4(a4)
     c9e:	2124                	fld	fs1,64(a0)
     ca0:	489f 0000 5000      	0x50000000489f
     ca6:	0000                	unimp
     ca8:	0b00                	addi	s0,sp,400
     caa:	7a00                	flw	fs0,48(a2)
     cac:	3900                	fld	fs0,48(a0)
     cae:	3924                	fld	fs1,112(a0)
     cb0:	4025                	c.li	zero,9
     cb2:	9f212443          	fmadd.q	fs0,ft2,fs2,fs3,rdn
     cb6:	0050                	addi	a2,sp,4
     cb8:	0000                	unimp
     cba:	0150                	addi	a2,sp,132
     cbc:	0000                	unimp
     cbe:	0001                	nop
     cc0:	00026863          	bltu	tp,zero,cd0 <_start-0x7ffff330>
     cc4:	7000                	flw	fs0,32(s0)
     cc6:	0002                	c.slli64	zero
     cc8:	0100                	addi	s0,sp,128
     cca:	6300                	flw	fs0,0(a4)
     ccc:	0274                	addi	a3,sp,268
     cce:	0000                	unimp
     cd0:	0298                	addi	a4,sp,320
     cd2:	0000                	unimp
     cd4:	0001                	nop
     cd6:	0002a463          	0x2a463
     cda:	bc00                	fsd	fs0,56(s0)
     cdc:	0002                	c.slli64	zero
     cde:	0100                	addi	s0,sp,128
     ce0:	6300                	flw	fs0,0(a4)
     ce2:	0310                	addi	a2,sp,384
     ce4:	0000                	unimp
     ce6:	0320                	addi	s0,sp,392
     ce8:	0000                	unimp
     cea:	0001                	nop
     cec:	00000063          	beqz	zero,cec <_start-0x7ffff314>
     cf0:	0000                	unimp
     cf2:	0000                	unimp
     cf4:	8800                	0x8800
     cf6:	0000                	unimp
     cf8:	8c00                	0x8c00
     cfa:	0000                	unimp
     cfc:	0200                	addi	s0,sp,256
     cfe:	3000                	fld	fs0,32(s0)
     d00:	8c9f 0000 c000      	0xc00000008c9f
     d06:	0000                	unimp
     d08:	0100                	addi	s0,sp,128
     d0a:	5d00                	lw	s0,56(a0)
     d0c:	0140                	addi	s0,sp,132
     d0e:	0000                	unimp
     d10:	0150                	addi	a2,sp,132
     d12:	0000                	unimp
     d14:	0001                	nop
     d16:	685d                	lui	a6,0x17
     d18:	0002                	c.slli64	zero
     d1a:	6c00                	flw	fs0,24(s0)
     d1c:	0002                	c.slli64	zero
     d1e:	0100                	addi	s0,sp,128
     d20:	5d00                	lw	s0,56(a0)
     d22:	0274                	addi	a3,sp,268
     d24:	0000                	unimp
     d26:	0280                	addi	s0,sp,320
     d28:	0000                	unimp
     d2a:	0001                	nop
     d2c:	a45d                	j	fd2 <_start-0x7ffff02e>
     d2e:	0002                	c.slli64	zero
     d30:	b800                	fsd	fs0,48(s0)
     d32:	0002                	c.slli64	zero
     d34:	0100                	addi	s0,sp,128
     d36:	5d00                	lw	s0,56(a0)
	...
     d40:	006c                	addi	a1,sp,12
     d42:	0000                	unimp
     d44:	00c0                	addi	s0,sp,68
     d46:	0000                	unimp
     d48:	0006                	c.slli	zero,0x1
     d4a:	0084                	addi	s1,sp,64
     d4c:	ff08                	fsw	fa0,56(a4)
     d4e:	9f1a                	add	t5,t5,t1
     d50:	0100                	addi	s0,sp,128
     d52:	0000                	unimp
     d54:	025c                	addi	a5,sp,260
     d56:	0000                	unimp
     d58:	0006                	c.slli	zero,0x1
     d5a:	0084                	addi	s1,sp,64
     d5c:	ff08                	fsw	fa0,56(a4)
     d5e:	9f1a                	add	t5,t5,t1
     d60:	0268                	addi	a0,sp,268
     d62:	0000                	unimp
     d64:	032c                	addi	a1,sp,392
     d66:	0000                	unimp
     d68:	0006                	c.slli	zero,0x1
     d6a:	0084                	addi	s1,sp,64
     d6c:	ff08                	fsw	fa0,56(a4)
     d6e:	9f1a                	add	t5,t5,t1
	...
     d78:	0068                	addi	a0,sp,12
     d7a:	0000                	unimp
     d7c:	0088                	addi	a0,sp,64
     d7e:	0000                	unimp
     d80:	0006                	c.slli	zero,0x1
     d82:	007f                	0x7f
     d84:	ff08                	fsw	fa0,56(a4)
     d86:	9f1a                	add	t5,t5,t1
     d88:	0088                	addi	a0,sp,64
     d8a:	0000                	unimp
     d8c:	00a0                	addi	s0,sp,72
     d8e:	0000                	unimp
     d90:	0001                	nop
     d92:	005f 0001 0b00      	0xb000001005f
     d98:	0001                	nop
     d9a:	0600                	addi	s0,sp,768
     d9c:	7f00                	flw	fs0,56(a4)
     d9e:	0800                	addi	s0,sp,16
     da0:	1aff                	0x1aff
     da2:	209f 0001 2400      	0x24000001209f
     da8:	0001                	nop
     daa:	0600                	addi	s0,sp,768
     dac:	7f00                	flw	fs0,56(a4)
     dae:	0800                	addi	s0,sp,16
     db0:	1aff                	0x1aff
     db2:	349f 0001 3800      	0x38000001349f
     db8:	0001                	nop
     dba:	0600                	addi	s0,sp,768
     dbc:	7f00                	flw	fs0,56(a4)
     dbe:	0800                	addi	s0,sp,16
     dc0:	1aff                	0x1aff
     dc2:	009f 0000 0000      	0x9f
     dc8:	0000                	unimp
     dca:	6800                	flw	fs0,16(s0)
     dcc:	0000                	unimp
     dce:	7800                	flw	fs0,48(s0)
     dd0:	0000                	unimp
     dd2:	0100                	addi	s0,sp,128
     dd4:	5800                	lw	s0,48(s0)
     dd6:	0078                	addi	a4,sp,12
     dd8:	0000                	unimp
     dda:	007c                	addi	a5,sp,12
     ddc:	0000                	unimp
     dde:	00780007          	0x780007
     de2:	4340                	lw	s0,4(a4)
     de4:	2124                	fld	fs1,64(a0)
     de6:	849f 0000 c000      	0xc0000000849f
     dec:	0000                	unimp
     dee:	0100                	addi	s0,sp,128
     df0:	5800                	lw	s0,48(s0)
     df2:	0100                	addi	s0,sp,128
     df4:	0000                	unimp
     df6:	0154                	addi	a3,sp,132
     df8:	0000                	unimp
     dfa:	0001                	nop
     dfc:	6858                	flw	fa4,20(s0)
     dfe:	0002                	c.slli64	zero
     e00:	7c00                	flw	fs0,56(s0)
     e02:	0002                	c.slli64	zero
     e04:	0100                	addi	s0,sp,128
     e06:	5800                	lw	s0,48(s0)
     e08:	02a4                	addi	s1,sp,328
     e0a:	0000                	unimp
     e0c:	02b0                	addi	a2,sp,328
     e0e:	0000                	unimp
     e10:	0001                	nop
     e12:	0058                	addi	a4,sp,4
     e14:	0000                	unimp
     e16:	0000                	unimp
     e18:	0000                	unimp
     e1a:	4000                	lw	s0,0(s0)
     e1c:	0001                	nop
     e1e:	e000                	fsw	fs0,0(s0)
     e20:	0001                	nop
     e22:	0200                	addi	s0,sp,256
     e24:	3000                	fld	fs0,32(s0)
     e26:	689f 0002 7400      	0x74000002689f
     e2c:	0002                	c.slli64	zero
     e2e:	0200                	addi	s0,sp,256
     e30:	3000                	fld	fs0,32(s0)
     e32:	789f 0002 8000      	0x80000002789f
     e38:	0002                	c.slli64	zero
     e3a:	0100                	addi	s0,sp,128
     e3c:	6500                	flw	fs0,8(a0)
     e3e:	0280                	addi	s0,sp,320
     e40:	0000                	unimp
     e42:	0298                	addi	a4,sp,320
     e44:	0000                	unimp
     e46:	0001                	nop
     e48:	a85d                	j	efe <_start-0x7ffff102>
     e4a:	0002                	c.slli64	zero
     e4c:	ac00                	fsd	fs0,24(s0)
     e4e:	0002                	c.slli64	zero
     e50:	0100                	addi	s0,sp,128
     e52:	5d00                	lw	s0,56(a0)
	...
     e5c:	00a4                	addi	s1,sp,72
     e5e:	0000                	unimp
     e60:	00c0                	addi	s0,sp,68
     e62:	0000                	unimp
     e64:	0001                	nop
     e66:	405a                	0x405a
     e68:	0001                	nop
     e6a:	4000                	lw	s0,0(s0)
     e6c:	0002                	c.slli64	zero
     e6e:	0100                	addi	s0,sp,128
     e70:	5a00                	lw	s0,48(a2)
     e72:	0268                	addi	a0,sp,268
     e74:	0000                	unimp
     e76:	0278                	addi	a4,sp,268
     e78:	0000                	unimp
     e7a:	0001                	nop
     e7c:	785a                	flw	fa6,180(sp)
     e7e:	0002                	c.slli64	zero
     e80:	8000                	0x8000
     e82:	0002                	c.slli64	zero
     e84:	0600                	addi	s0,sp,768
     e86:	8200                	0x8200
     e88:	0800                	addi	s0,sp,16
     e8a:	1aff                	0x1aff
     e8c:	809f 0002 a800      	0xa8000002809f
     e92:	0002                	c.slli64	zero
     e94:	0100                	addi	s0,sp,128
     e96:	5a00                	lw	s0,48(a2)
     e98:	02a8                	addi	a0,sp,328
     e9a:	0000                	unimp
     e9c:	02ac                	addi	a1,sp,328
     e9e:	0000                	unimp
     ea0:	0006                	c.slli	zero,0x1
     ea2:	0084                	addi	s1,sp,64
     ea4:	ff08                	fsw	fa0,56(a4)
     ea6:	9f1a                	add	t5,t5,t1
     ea8:	02ac                	addi	a1,sp,328
     eaa:	0000                	unimp
     eac:	02b4                	addi	a3,sp,328
     eae:	0000                	unimp
     eb0:	0001                	nop
     eb2:	b45a                	fsd	fs6,40(sp)
     eb4:	0002                	c.slli64	zero
     eb6:	bc00                	fsd	fs0,56(s0)
     eb8:	0002                	c.slli64	zero
     eba:	0600                	addi	s0,sp,768
     ebc:	8200                	0x8200
     ebe:	8400                	0x8400
     ec0:	2700                	fld	fs0,8(a4)
     ec2:	bc9f 0002 1c00      	0x1c000002bc9f
     ec8:	01000003          	lb	zero,16(zero) # 10 <_start-0x7ffffff0>
     ecc:	5a00                	lw	s0,48(a2)
     ece:	0320                	addi	s0,sp,392
     ed0:	0000                	unimp
     ed2:	032c                	addi	a1,sp,392
     ed4:	0000                	unimp
     ed6:	0001                	nop
     ed8:	005a                	c.slli	zero,0x16
     eda:	0000                	unimp
     edc:	0000                	unimp
     ede:	0000                	unimp
     ee0:	a400                	fsd	fs0,8(s0)
     ee2:	0000                	unimp
     ee4:	c000                	sw	s0,0(s0)
     ee6:	0000                	unimp
     ee8:	0100                	addi	s0,sp,128
     eea:	5900                	lw	s0,48(a0)
     eec:	0140                	addi	s0,sp,132
     eee:	0000                	unimp
     ef0:	01e4                	addi	s1,sp,204
     ef2:	0000                	unimp
     ef4:	0001                	nop
     ef6:	e459                	bnez	s0,f84 <_start-0x7ffff07c>
     ef8:	0001                	nop
     efa:	2800                	fld	fs0,16(s0)
     efc:	0002                	c.slli64	zero
     efe:	0100                	addi	s0,sp,128
     f00:	5e00                	lw	s0,56(a2)
     f02:	0268                	addi	a0,sp,268
     f04:	0000                	unimp
     f06:	0298                	addi	a4,sp,320
     f08:	0000                	unimp
     f0a:	0001                	nop
     f0c:	a459                	j	1192 <_start-0x7fffee6e>
     f0e:	0002                	c.slli64	zero
     f10:	bc00                	fsd	fs0,56(s0)
     f12:	0002                	c.slli64	zero
     f14:	0100                	addi	s0,sp,128
     f16:	5900                	lw	s0,48(a0)
     f18:	02bc                	addi	a5,sp,328
     f1a:	0000                	unimp
     f1c:	02c4                	addi	s1,sp,324
     f1e:	0000                	unimp
     f20:	0001                	nop
     f22:	c45e                	sw	s7,8(sp)
     f24:	0002                	c.slli64	zero
     f26:	d400                	sw	s0,40(s0)
     f28:	0002                	c.slli64	zero
     f2a:	0100                	addi	s0,sp,128
     f2c:	5f00                	lw	s0,56(a4)
     f2e:	02d4                	addi	a3,sp,324
     f30:	0000                	unimp
     f32:	030c                	addi	a1,sp,384
     f34:	0000                	unimp
     f36:	0006                	c.slli	zero,0x1
     f38:	2008                	fld	fa0,0(s0)
     f3a:	0079                	c.nop	30
     f3c:	9f1c                	0x9f1c
     f3e:	030c                	addi	a1,sp,384
     f40:	0000                	unimp
     f42:	0310                	addi	a2,sp,384
     f44:	0000                	unimp
     f46:	0008                	0x8
     f48:	007e                	c.slli	zero,0x1f
     f4a:	0079                	c.nop	30
     f4c:	231c                	fld	fa5,0(a4)
     f4e:	9f1f 0310 0000      	0x3109f1f
     f54:	0320                	addi	s0,sp,392
     f56:	0000                	unimp
     f58:	0001                	nop
     f5a:	0059                	c.nop	22
     f5c:	0000                	unimp
     f5e:	0000                	unimp
     f60:	0000                	unimp
     f62:	e000                	fsw	fs0,0(s0)
     f64:	0001                	nop
     f66:	1800                	addi	s0,sp,48
     f68:	0002                	c.slli64	zero
     f6a:	0100                	addi	s0,sp,128
     f6c:	5800                	lw	s0,48(s0)
     f6e:	0218                	addi	a4,sp,256
     f70:	0000                	unimp
     f72:	0220                	addi	s0,sp,264
     f74:	0000                	unimp
     f76:	0005                	c.nop	1
     f78:	0078                	addi	a4,sp,12
     f7a:	209f2533          	0x209f2533
     f7e:	0002                	c.slli64	zero
     f80:	3000                	fld	fs0,32(s0)
     f82:	0002                	c.slli64	zero
     f84:	0100                	addi	s0,sp,128
     f86:	5800                	lw	s0,48(s0)
     f88:	0278                	addi	a4,sp,268
     f8a:	0000                	unimp
     f8c:	0280                	addi	s0,sp,320
     f8e:	0000                	unimp
     f90:	0001                	nop
     f92:	00028063          	beqz	t0,f92 <_start-0x7ffff06e>
     f96:	9800                	0x9800
     f98:	0002                	c.slli64	zero
     f9a:	0100                	addi	s0,sp,128
     f9c:	5800                	lw	s0,48(s0)
     f9e:	02a8                	addi	a0,sp,328
     fa0:	0000                	unimp
     fa2:	02ac                	addi	a1,sp,328
     fa4:	0000                	unimp
     fa6:	0001                	nop
     fa8:	bc58                	fsd	fa4,184(s0)
     faa:	0002                	c.slli64	zero
     fac:	d800                	sw	s0,48(s0)
     fae:	0002                	c.slli64	zero
     fb0:	0100                	addi	s0,sp,128
     fb2:	5800                	lw	s0,48(s0)
     fb4:	02e0                	addi	s0,sp,332
     fb6:	0000                	unimp
     fb8:	0300                	addi	s0,sp,384
     fba:	0000                	unimp
     fbc:	0001                	nop
     fbe:	0058                	addi	a4,sp,4
     fc0:	0000                	unimp
     fc2:	0000                	unimp
     fc4:	0000                	unimp
     fc6:	4000                	lw	s0,0(s0)
     fc8:	0002                	c.slli64	zero
     fca:	4800                	lw	s0,16(s0)
     fcc:	0002                	c.slli64	zero
     fce:	0800                	addi	s0,sp,16
     fd0:	7800                	flw	fs0,48(s0)
     fd2:	7a00                	flw	fs0,48(a2)
     fd4:	2100                	fld	fs0,0(a0)
     fd6:	25f9                	jal	16a4 <_start-0x7fffe95c>
     fd8:	489f 0002 6800      	0x68000002489f
     fde:	0002                	c.slli64	zero
     fe0:	0100                	addi	s0,sp,128
     fe2:	5a00                	lw	s0,48(a2)
	...
     fec:	00cc                	addi	a1,sp,68
     fee:	0000                	unimp
     ff0:	00e0                	addi	s0,sp,76
     ff2:	0000                	unimp
     ff4:	787a0003          	lb	zero,1927(s4)
     ff8:	009f 0000 0000      	0x9f
     ffe:	0000                	unimp
    1000:	0c00                	addi	s0,sp,528
    1002:	0001                	nop
    1004:	2000                	fld	fs0,0(s0)
    1006:	0001                	nop
    1008:	0300                	addi	s0,sp,384
    100a:	7a00                	flw	fs0,48(a2)
    100c:	9f78                	0x9f78
	...
    1016:	014c                	addi	a1,sp,132
    1018:	0000                	unimp
    101a:	01e0                	addi	s0,sp,204
    101c:	0000                	unimp
    101e:	0001                	nop
    1020:	00027063          	bgeu	tp,zero,1020 <_start-0x7fffefe0>
    1024:	7400                	flw	fs0,40(s0)
    1026:	0002                	c.slli64	zero
    1028:	0100                	addi	s0,sp,128
    102a:	6300                	flw	fs0,0(a4)
	...
    1034:	014c                	addi	a1,sp,132
    1036:	0000                	unimp
    1038:	0150                	addi	a2,sp,132
    103a:	0000                	unimp
    103c:	0002                	c.slli64	zero
    103e:	9f30                	0x9f30
    1040:	0150                	addi	a2,sp,132
    1042:	0000                	unimp
    1044:	0168                	addi	a0,sp,140
    1046:	0000                	unimp
    1048:	0001                	nop
    104a:	6c5d                	lui	s8,0x17
    104c:	0002                	c.slli64	zero
    104e:	7400                	flw	fs0,40(s0)
    1050:	0002                	c.slli64	zero
    1052:	0100                	addi	s0,sp,128
    1054:	5d00                	lw	s0,56(a0)
	...
    105e:	01cc                	addi	a1,sp,196
    1060:	0000                	unimp
    1062:	01d8                	addi	a4,sp,196
    1064:	0000                	unimp
    1066:	0008                	0x8
    1068:	007c                	addi	a5,sp,12
    106a:	2440                	fld	fs0,136(s0)
    106c:	007e                	c.slli	zero,0x1f
    106e:	9f21                	0x9f21
    1070:	01d8                	addi	a4,sp,196
    1072:	0000                	unimp
    1074:	01e0                	addi	s0,sp,204
    1076:	0000                	unimp
    1078:	0001                	nop
    107a:	0058                	addi	a4,sp,4
    107c:	0000                	unimp
    107e:	0000                	unimp
    1080:	0000                	unimp
    1082:	cc00                	sw	s0,24(s0)
    1084:	0001                	nop
    1086:	d400                	sw	s0,40(s0)
    1088:	0001                	nop
    108a:	0600                	addi	s0,sp,768
    108c:	7f00                	flw	fs0,56(a4)
    108e:	7d00                	flw	fs0,56(a0)
    1090:	1c00                	addi	s0,sp,560
    1092:	d49f 0001 dc00      	0xdc000001d49f
    1098:	0001                	nop
    109a:	0100                	addi	s0,sp,128
    109c:	5f00                	lw	s0,56(a4)
	...
    10a6:	0144                	addi	s1,sp,132
    10a8:	0000                	unimp
    10aa:	01e0                	addi	s0,sp,204
    10ac:	0000                	unimp
    10ae:	0001                	nop
    10b0:	0002685b          	0x2685b
    10b4:	7400                	flw	fs0,40(s0)
    10b6:	0002                	c.slli64	zero
    10b8:	0100                	addi	s0,sp,128
    10ba:	5b00                	lw	s0,48(a4)
	...
    10c4:	0154                	addi	a3,sp,132
    10c6:	0000                	unimp
    10c8:	01d0                	addi	a2,sp,196
    10ca:	0000                	unimp
    10cc:	0001                	nop
    10ce:	d058                	sw	a4,36(s0)
    10d0:	0001                	nop
    10d2:	e000                	fsw	fs0,0(s0)
    10d4:	0001                	nop
    10d6:	0500                	addi	s0,sp,640
    10d8:	7b00                	flw	fs0,48(a4)
    10da:	4000                	lw	s0,0(s0)
    10dc:	9f25                	0x9f25
	...
    10e6:	0164                	addi	s1,sp,140
    10e8:	0000                	unimp
    10ea:	01ac                	addi	a1,sp,200
    10ec:	0000                	unimp
    10ee:	0001                	nop
    10f0:	ac5f 0001 e000      	0xe0000001ac5f
    10f6:	0001                	nop
    10f8:	0700                	addi	s0,sp,896
    10fa:	7b00                	flw	fs0,48(a4)
    10fc:	0a00                	addi	s0,sp,272
    10fe:	ffff                	0xffff
    1100:	9f1a                	add	t5,t5,t1
	...
    110a:	0164                	addi	s1,sp,140
    110c:	0000                	unimp
    110e:	0188                	addi	a0,sp,192
    1110:	0000                	unimp
    1112:	0001                	nop
    1114:	8861                	andi	s0,s0,24
    1116:	0001                	nop
    1118:	e000                	fsw	fs0,0(s0)
    111a:	0001                	nop
    111c:	0100                	addi	s0,sp,128
    111e:	5c00                	lw	s0,56(s0)
	...
    1128:	01a0                	addi	s0,sp,200
    112a:	0000                	unimp
    112c:	01bc                	addi	a5,sp,200
    112e:	0000                	unimp
    1130:	0001                	nop
    1132:	bc60                	fsd	fs0,248(s0)
    1134:	0001                	nop
    1136:	e000                	fsw	fs0,0(s0)
    1138:	0001                	nop
    113a:	0100                	addi	s0,sp,128
    113c:	5e00                	lw	s0,56(a2)
	...
    1146:	0164                	addi	s1,sp,140
    1148:	0000                	unimp
    114a:	016c                	addi	a1,sp,140
    114c:	0000                	unimp
    114e:	0006                	c.slli	zero,0x1
    1150:	00780083          	lb	ra,7(a6) # 17007 <_start-0x7ffe8ff9>
    1154:	9f1d                	0x9f1d
    1156:	016c                	addi	a1,sp,140
    1158:	0000                	unimp
    115a:	0178                	addi	a4,sp,140
    115c:	0000                	unimp
    115e:	0001                	nop
    1160:	785e                	flw	fa6,244(sp)
    1162:	0001                	nop
    1164:	7c00                	flw	fs0,56(s0)
    1166:	0001                	nop
    1168:	0600                	addi	s0,sp,768
    116a:	8300                	0x8300
    116c:	7800                	flw	fs0,48(s0)
    116e:	1d00                	addi	s0,sp,688
    1170:	7c9f 0001 8400      	0x840000017c9f
    1176:	0001                	nop
    1178:	0100                	addi	s0,sp,128
    117a:	5e00                	lw	s0,56(a2)
    117c:	0184                	addi	s1,sp,192
    117e:	0000                	unimp
    1180:	0188                	addi	a0,sp,192
    1182:	0000                	unimp
    1184:	0083000b          	0x83000b
    1188:	0078                	addi	a4,sp,12
    118a:	401d                	c.li	zero,7
    118c:	7d24                	flw	fs1,120(a0)
    118e:	2100                	fld	fs0,0(a0)
    1190:	889f 0001 a400      	0xa4000001889f
    1196:	0001                	nop
    1198:	0100                	addi	s0,sp,128
    119a:	5e00                	lw	s0,56(a2)
	...
    11a4:	019c                	addi	a5,sp,192
    11a6:	0000                	unimp
    11a8:	01a4                	addi	s1,sp,200
    11aa:	0000                	unimp
    11ac:	0006                	c.slli	zero,0x1
    11ae:	007e                	c.slli	zero,0x1f
    11b0:	0078                	addi	a4,sp,12
    11b2:	9f1d                	0x9f1d
    11b4:	01a4                	addi	s1,sp,200
    11b6:	0000                	unimp
    11b8:	01ac                	addi	a1,sp,200
    11ba:	0000                	unimp
    11bc:	0001                	nop
    11be:	ac5e                	fsd	fs7,24(sp)
    11c0:	0001                	nop
    11c2:	b800                	fsd	fs0,48(s0)
    11c4:	0001                	nop
    11c6:	0100                	addi	s0,sp,128
    11c8:	5f00                	lw	s0,56(a4)
    11ca:	01bc                	addi	a5,sp,200
    11cc:	0000                	unimp
    11ce:	01cc                	addi	a1,sp,196
    11d0:	0000                	unimp
    11d2:	0001                	nop
    11d4:	cc5f 0001 d400      	0xd4000001cc5f
    11da:	0001                	nop
    11dc:	0600                	addi	s0,sp,768
    11de:	7f00                	flw	fs0,56(a4)
    11e0:	7d00                	flw	fs0,56(a0)
    11e2:	1c00                	addi	s0,sp,560
    11e4:	d49f 0001 dc00      	0xdc000001d49f
    11ea:	0001                	nop
    11ec:	0100                	addi	s0,sp,128
    11ee:	5f00                	lw	s0,56(a4)
	...
    11f8:	0174                	addi	a3,sp,140
    11fa:	0000                	unimp
    11fc:	01a0                	addi	s0,sp,200
    11fe:	0000                	unimp
    1200:	0001                	nop
    1202:	a060                	fsd	fs0,192(s0)
    1204:	0001                	nop
    1206:	a800                	fsd	fs0,16(s0)
    1208:	0001                	nop
    120a:	0600                	addi	s0,sp,768
    120c:	7f00                	flw	fs0,56(a4)
    120e:	8100                	0x8100
    1210:	1e00                	addi	s0,sp,816
    1212:	a89f 0001 e000      	0xe0000001a89f
    1218:	0001                	nop
    121a:	0100                	addi	s0,sp,128
    121c:	5d00                	lw	s0,56(a0)
	...
    122a:	0028                	addi	a0,sp,8
    122c:	0000                	unimp
    122e:	0001                	nop
    1230:	285a                	fld	fa6,400(sp)
    1232:	0000                	unimp
    1234:	b400                	fsd	fs0,40(s0)
    1236:	0000                	unimp
    1238:	0600                	addi	s0,sp,768
    123a:	f300                	fsw	fs0,32(a4)
    123c:	250af503          	0x250af503
    1240:	009f 0000 0000      	0x9f
    1246:	0000                	unimp
    1248:	0000                	unimp
    124a:	0000                	unimp
    124c:	2c00                	fld	fs0,24(s0)
    124e:	0000                	unimp
    1250:	0100                	addi	s0,sp,128
    1252:	5b00                	lw	s0,48(a4)
    1254:	002c                	addi	a1,sp,8
    1256:	0000                	unimp
    1258:	00b4                	addi	a3,sp,72
    125a:	0000                	unimp
    125c:	0006                	c.slli	zero,0x1
    125e:	0bf503f3          	0xbf503f3
    1262:	9f25                	0x9f25
	...
    1270:	0090                	addi	a2,sp,64
    1272:	0000                	unimp
    1274:	0002                	c.slli64	zero
    1276:	9f30                	0x9f30
    1278:	0094                	addi	a3,sp,64
    127a:	0000                	unimp
    127c:	00b4                	addi	a3,sp,72
    127e:	0000                	unimp
    1280:	0002                	c.slli64	zero
    1282:	9f30                	0x9f30
	...
    128c:	0028                	addi	a0,sp,8
    128e:	0000                	unimp
    1290:	0038                	addi	a4,sp,8
    1292:	0000                	unimp
    1294:	0001                	nop
    1296:	3c5a                	fld	fs8,432(sp)
    1298:	0000                	unimp
    129a:	6400                	flw	fs0,8(s0)
    129c:	0000                	unimp
    129e:	0100                	addi	s0,sp,128
    12a0:	5a00                	lw	s0,48(a2)
    12a2:	0068                	addi	a0,sp,12
    12a4:	0000                	unimp
    12a6:	006c                	addi	a1,sp,12
    12a8:	0000                	unimp
    12aa:	0001                	nop
    12ac:	785a                	flw	fa6,180(sp)
    12ae:	0000                	unimp
    12b0:	8000                	0x8000
    12b2:	0000                	unimp
    12b4:	0100                	addi	s0,sp,128
    12b6:	5a00                	lw	s0,48(a2)
    12b8:	0084                	addi	s1,sp,64
    12ba:	0000                	unimp
    12bc:	0090                	addi	a2,sp,64
    12be:	0000                	unimp
    12c0:	0001                	nop
    12c2:	945a                	add	s0,s0,s6
    12c4:	0000                	unimp
    12c6:	9800                	0x9800
    12c8:	0000                	unimp
    12ca:	0100                	addi	s0,sp,128
    12cc:	5a00                	lw	s0,48(a2)
    12ce:	009c                	addi	a5,sp,64
    12d0:	0000                	unimp
    12d2:	00b4                	addi	a3,sp,72
    12d4:	0000                	unimp
    12d6:	0001                	nop
    12d8:	005a                	c.slli	zero,0x16
    12da:	0000                	unimp
    12dc:	0000                	unimp
    12de:	0000                	unimp
    12e0:	9000                	0x9000
    12e2:	0000                	unimp
    12e4:	9400                	0x9400
    12e6:	0000                	unimp
    12e8:	0200                	addi	s0,sp,256
    12ea:	3000                	fld	fs0,32(s0)
    12ec:	009f 0000 0000      	0x9f
    12f2:	0000                	unimp
    12f4:	4800                	lw	s0,16(s0)
    12f6:	0000                	unimp
    12f8:	5400                	lw	s0,40(s0)
    12fa:	0000                	unimp
    12fc:	0800                	addi	s0,sp,16
    12fe:	7c00                	flw	fs0,56(s0)
    1300:	3000                	fld	fs0,32(s0)
    1302:	0829                	addi	a6,a6,10
    1304:	1aff                	0x1aff
    1306:	689f 0000 7800      	0x78000000689f
    130c:	0000                	unimp
    130e:	0800                	addi	s0,sp,16
    1310:	7c00                	flw	fs0,56(s0)
    1312:	3000                	fld	fs0,32(s0)
    1314:	0829                	addi	a6,a6,10
    1316:	1aff                	0x1aff
    1318:	9c9f 0000 a400      	0xa40000009c9f
    131e:	0000                	unimp
    1320:	0800                	addi	s0,sp,16
    1322:	7c00                	flw	fs0,56(s0)
    1324:	3000                	fld	fs0,32(s0)
    1326:	0829                	addi	a6,a6,10
    1328:	1aff                	0x1aff
    132a:	a89f 0000 b400      	0xb4000000a89f
    1330:	0000                	unimp
    1332:	0200                	addi	s0,sp,256
    1334:	3000                	fld	fs0,32(s0)
    1336:	009f 0000 0000      	0x9f
    133c:	0000                	unimp
    133e:	5000                	lw	s0,32(s0)
    1340:	0000                	unimp
    1342:	5c00                	lw	s0,56(s0)
    1344:	0000                	unimp
    1346:	0200                	addi	s0,sp,256
    1348:	3000                	fld	fs0,32(s0)
    134a:	689f 0000 8c00      	0x8c000000689f
    1350:	0000                	unimp
    1352:	0200                	addi	s0,sp,256
    1354:	3000                	fld	fs0,32(s0)
    1356:	9c9f 0000 a400      	0xa40000009c9f
    135c:	0000                	unimp
    135e:	0200                	addi	s0,sp,256
    1360:	3100                	fld	fs0,32(a0)
    1362:	009f 0000 0000      	0x9f
    1368:	0000                	unimp
    136a:	0000                	unimp
    136c:	0000                	unimp
    136e:	5400                	lw	s0,40(s0)
    1370:	0000                	unimp
    1372:	0100                	addi	s0,sp,128
    1374:	5a00                	lw	s0,48(a2)
    1376:	0054                	addi	a3,sp,4
    1378:	0000                	unimp
    137a:	00c4                	addi	s1,sp,68
    137c:	0000                	unimp
    137e:	0006                	c.slli	zero,0x1
    1380:	0af503f3          	0xaf503f3
    1384:	9f25                	0x9f25
    1386:	00c4                	addi	s1,sp,68
    1388:	0000                	unimp
    138a:	00cc                	addi	a1,sp,68
    138c:	0000                	unimp
    138e:	0001                	nop
    1390:	cc5a                	sw	s6,24(sp)
    1392:	0000                	unimp
    1394:	e400                	fsw	fs0,8(s0)
    1396:	0000                	unimp
    1398:	0600                	addi	s0,sp,768
    139a:	f300                	fsw	fs0,32(a4)
    139c:	250af503          	0x250af503
    13a0:	e49f 0000 0400      	0x4000000e49f
    13a6:	0001                	nop
    13a8:	0100                	addi	s0,sp,128
    13aa:	5a00                	lw	s0,48(a2)
    13ac:	0104                	addi	s1,sp,128
    13ae:	0000                	unimp
    13b0:	02f8                	addi	a4,sp,332
    13b2:	0000                	unimp
    13b4:	0006                	c.slli	zero,0x1
    13b6:	0af503f3          	0xaf503f3
    13ba:	9f25                	0x9f25
	...
    13c8:	0054                	addi	a3,sp,4
    13ca:	0000                	unimp
    13cc:	0001                	nop
    13ce:	0000545b          	0x545b
    13d2:	6c00                	flw	fs0,24(s0)
    13d4:	0000                	unimp
    13d6:	0100                	addi	s0,sp,128
    13d8:	6400                	flw	fs0,8(s0)
    13da:	006c                	addi	a1,sp,12
    13dc:	0000                	unimp
    13de:	00c4                	addi	s1,sp,68
    13e0:	0000                	unimp
    13e2:	0006                	c.slli	zero,0x1
    13e4:	0bf503f3          	0xbf503f3
    13e8:	9f25                	0x9f25
    13ea:	00c4                	addi	s1,sp,68
    13ec:	0000                	unimp
    13ee:	000000cf          	fnmadd.s	ft1,ft0,ft0,ft0,rne
    13f2:	0001                	nop
    13f4:	0000cf5b          	0xcf5b
    13f8:	e400                	fsw	fs0,8(s0)
    13fa:	0000                	unimp
    13fc:	0100                	addi	s0,sp,128
    13fe:	6400                	flw	fs0,8(s0)
    1400:	00e4                	addi	s1,sp,76
    1402:	0000                	unimp
    1404:	0104                	addi	s1,sp,128
    1406:	0000                	unimp
    1408:	0001                	nop
    140a:	0001045b          	0x1045b
    140e:	f800                	fsw	fs0,48(s0)
    1410:	0002                	c.slli64	zero
    1412:	0600                	addi	s0,sp,768
    1414:	f300                	fsw	fs0,32(a4)
    1416:	250bf503          	0x250bf503
    141a:	009f 0000 0000      	0x9f
    1420:	0000                	unimp
    1422:	0000                	unimp
    1424:	0000                	unimp
    1426:	5800                	lw	s0,48(s0)
    1428:	0000                	unimp
    142a:	0200                	addi	s0,sp,256
    142c:	3000                	fld	fs0,32(s0)
    142e:	c49f 0000 0400      	0x4000000c49f
    1434:	0001                	nop
    1436:	0200                	addi	s0,sp,256
    1438:	3000                	fld	fs0,32(s0)
    143a:	009f 0000 0000      	0x9f
    1440:	0000                	unimp
    1442:	5400                	lw	s0,40(s0)
    1444:	0000                	unimp
    1446:	5800                	lw	s0,48(s0)
    1448:	0000                	unimp
    144a:	0200                	addi	s0,sp,256
    144c:	3000                	fld	fs0,32(s0)
    144e:	589f 0000 c400      	0xc4000000589f
    1454:	0000                	unimp
    1456:	0100                	addi	s0,sp,128
    1458:	6500                	flw	fs0,8(a0)
    145a:	0104                	addi	s1,sp,128
    145c:	0000                	unimp
    145e:	02f0                	addi	a2,sp,332
    1460:	0000                	unimp
    1462:	0001                	nop
    1464:	0065                	c.nop	25
    1466:	0000                	unimp
    1468:	0000                	unimp
    146a:	0000                	unimp
    146c:	3800                	fld	fs0,48(s0)
    146e:	0000                	unimp
    1470:	e800                	fsw	fs0,16(s0)
    1472:	0002                	c.slli64	zero
    1474:	0600                	addi	s0,sp,768
    1476:	8300                	0x8300
    1478:	0800                	addi	s0,sp,16
    147a:	1aff                	0x1aff
    147c:	009f 0000 0000      	0x9f
    1482:	0000                	unimp
    1484:	3400                	fld	fs0,40(s0)
    1486:	0000                	unimp
    1488:	5400                	lw	s0,40(s0)
    148a:	0000                	unimp
    148c:	0600                	addi	s0,sp,768
    148e:	8200                	0x8200
    1490:	0800                	addi	s0,sp,16
    1492:	1aff                	0x1aff
    1494:	549f 0000 c400      	0xc4000000549f
    149a:	0000                	unimp
    149c:	0100                	addi	s0,sp,128
    149e:	6200                	flw	fs0,0(a2)
    14a0:	00c4                	addi	s1,sp,68
    14a2:	0000                	unimp
    14a4:	00d8                	addi	a4,sp,68
    14a6:	0000                	unimp
    14a8:	0006                	c.slli	zero,0x1
    14aa:	0082                	c.slli64	ra
    14ac:	ff08                	fsw	fa0,56(a4)
    14ae:	9f1a                	add	t5,t5,t1
    14b0:	00e4                	addi	s1,sp,76
    14b2:	0000                	unimp
    14b4:	00e8                	addi	a0,sp,76
    14b6:	0000                	unimp
    14b8:	0006                	c.slli	zero,0x1
    14ba:	0082                	c.slli64	ra
    14bc:	ff08                	fsw	fa0,56(a4)
    14be:	9f1a                	add	t5,t5,t1
    14c0:	00e8                	addi	a0,sp,76
    14c2:	0000                	unimp
    14c4:	00f8                	addi	a4,sp,76
    14c6:	0000                	unimp
    14c8:	0008                	0x8
    14ca:	007a                	c.slli	zero,0x1e
    14cc:	ff082547          	fmsub.q	fa0,fa6,fa6,ft11,rdn
    14d0:	9f1a                	add	t5,t5,t1
    14d2:	00f8                	addi	a4,sp,76
    14d4:	0000                	unimp
    14d6:	00fc                	addi	a5,sp,76
    14d8:	0000                	unimp
    14da:	0006                	c.slli	zero,0x1
    14dc:	0082                	c.slli64	ra
    14de:	ff08                	fsw	fa0,56(a4)
    14e0:	9f1a                	add	t5,t5,t1
    14e2:	00fc                	addi	a5,sp,76
    14e4:	0000                	unimp
    14e6:	0104                	addi	s1,sp,128
    14e8:	0000                	unimp
    14ea:	0008                	0x8
    14ec:	007a                	c.slli	zero,0x1e
    14ee:	ff082547          	fmsub.q	fa0,fa6,fa6,ft11,rdn
    14f2:	9f1a                	add	t5,t5,t1
    14f4:	0104                	addi	s1,sp,128
    14f6:	0000                	unimp
    14f8:	02e4                	addi	s1,sp,332
    14fa:	0000                	unimp
    14fc:	0001                	nop
    14fe:	0062                	c.slli	zero,0x18
    1500:	0000                	unimp
    1502:	0000                	unimp
    1504:	0000                	unimp
    1506:	3400                	fld	fs0,40(s0)
    1508:	0000                	unimp
    150a:	4400                	lw	s0,8(s0)
    150c:	0000                	unimp
    150e:	0100                	addi	s0,sp,128
    1510:	5900                	lw	s0,48(a0)
    1512:	0044                	addi	s1,sp,4
    1514:	0000                	unimp
    1516:	0048                	addi	a0,sp,4
    1518:	0000                	unimp
    151a:	00790007          	0x790007
    151e:	4340                	lw	s0,4(a4)
    1520:	2124                	fld	fs1,64(a0)
    1522:	489f 0000 5000      	0x50000000489f
    1528:	0000                	unimp
    152a:	0b00                	addi	s0,sp,400
    152c:	7a00                	flw	fs0,48(a2)
    152e:	3900                	fld	fs0,48(a0)
    1530:	3924                	fld	fs1,112(a0)
    1532:	4025                	c.li	zero,9
    1534:	9f212443          	fmadd.q	fs0,ft2,fs2,fs3,rdn
    1538:	0050                	addi	a2,sp,4
    153a:	0000                	unimp
    153c:	0158                	addi	a4,sp,132
    153e:	0000                	unimp
    1540:	0001                	nop
    1542:	1459                	addi	s0,s0,-10
    1544:	0002                	c.slli64	zero
    1546:	3800                	fld	fs0,48(s0)
    1548:	0002                	c.slli64	zero
    154a:	0100                	addi	s0,sp,128
    154c:	5900                	lw	s0,48(a0)
    154e:	0244                	addi	s1,sp,260
    1550:	0000                	unimp
    1552:	024c                	addi	a1,sp,260
    1554:	0000                	unimp
    1556:	0001                	nop
    1558:	a859                	j	15ee <_start-0x7fffea12>
    155a:	0002                	c.slli64	zero
    155c:	b400                	fsd	fs0,40(s0)
    155e:	0002                	c.slli64	zero
    1560:	0100                	addi	s0,sp,128
    1562:	5900                	lw	s0,48(a0)
	...
    156c:	0088                	addi	a0,sp,64
    156e:	0000                	unimp
    1570:	008c                	addi	a1,sp,64
    1572:	0000                	unimp
    1574:	0002                	c.slli64	zero
    1576:	9f30                	0x9f30
    1578:	008c                	addi	a1,sp,64
    157a:	0000                	unimp
    157c:	00c4                	addi	s1,sp,68
    157e:	0000                	unimp
    1580:	0001                	nop
    1582:	445e                	lw	s0,212(sp)
    1584:	0001                	nop
    1586:	4800                	lw	s0,16(s0)
    1588:	0001                	nop
    158a:	0100                	addi	s0,sp,128
    158c:	5e00                	lw	s0,56(a2)
    158e:	0214                	addi	a3,sp,256
    1590:	0000                	unimp
    1592:	0220                	addi	s0,sp,264
    1594:	0000                	unimp
    1596:	0001                	nop
    1598:	445e                	lw	s0,212(sp)
    159a:	0002                	c.slli64	zero
    159c:	4c00                	lw	s0,24(s0)
    159e:	0002                	c.slli64	zero
    15a0:	0100                	addi	s0,sp,128
    15a2:	5e00                	lw	s0,56(a2)
	...
    15ac:	006c                	addi	a1,sp,12
    15ae:	0000                	unimp
    15b0:	00c4                	addi	s1,sp,68
    15b2:	0000                	unimp
    15b4:	0006                	c.slli	zero,0x1
    15b6:	0084                	addi	s1,sp,64
    15b8:	ff08                	fsw	fa0,56(a4)
    15ba:	9f1a                	add	t5,t5,t1
    15bc:	0104                	addi	s1,sp,128
    15be:	0000                	unimp
    15c0:	02ec                	addi	a1,sp,332
    15c2:	0000                	unimp
    15c4:	0006                	c.slli	zero,0x1
    15c6:	0084                	addi	s1,sp,64
    15c8:	ff08                	fsw	fa0,56(a4)
    15ca:	9f1a                	add	t5,t5,t1
	...
    15d4:	0068                	addi	a0,sp,12
    15d6:	0000                	unimp
    15d8:	0088                	addi	a0,sp,64
    15da:	0000                	unimp
    15dc:	0006                	c.slli	zero,0x1
    15de:	007f                	0x7f
    15e0:	ff08                	fsw	fa0,56(a4)
    15e2:	9f1a                	add	t5,t5,t1
    15e4:	0088                	addi	a0,sp,64
    15e6:	0000                	unimp
    15e8:	0098                	addi	a4,sp,64
    15ea:	0000                	unimp
    15ec:	0001                	nop
    15ee:	045f 0001 0f00      	0xf000001045f
    15f4:	0001                	nop
    15f6:	0600                	addi	s0,sp,768
    15f8:	7f00                	flw	fs0,56(a4)
    15fa:	0800                	addi	s0,sp,16
    15fc:	1aff                	0x1aff
    15fe:	249f 0001 2800      	0x28000001249f
    1604:	0001                	nop
    1606:	0600                	addi	s0,sp,768
    1608:	7f00                	flw	fs0,56(a4)
    160a:	0800                	addi	s0,sp,16
    160c:	1aff                	0x1aff
    160e:	389f 0001 3c00      	0x3c000001389f
    1614:	0001                	nop
    1616:	0600                	addi	s0,sp,768
    1618:	7f00                	flw	fs0,56(a4)
    161a:	0800                	addi	s0,sp,16
    161c:	1aff                	0x1aff
    161e:	009f 0000 0000      	0x9f
    1624:	0000                	unimp
    1626:	6800                	flw	fs0,16(s0)
    1628:	0000                	unimp
    162a:	7800                	flw	fs0,48(s0)
    162c:	0000                	unimp
    162e:	0100                	addi	s0,sp,128
    1630:	5800                	lw	s0,48(s0)
    1632:	0078                	addi	a4,sp,12
    1634:	0000                	unimp
    1636:	007c                	addi	a5,sp,12
    1638:	0000                	unimp
    163a:	00780007          	0x780007
    163e:	4340                	lw	s0,4(a4)
    1640:	2124                	fld	fs1,64(a0)
    1642:	849f 0000 c400      	0xc4000000849f
    1648:	0000                	unimp
    164a:	0100                	addi	s0,sp,128
    164c:	5800                	lw	s0,48(s0)
    164e:	0104                	addi	s1,sp,128
    1650:	0000                	unimp
    1652:	015c                	addi	a5,sp,132
    1654:	0000                	unimp
    1656:	0001                	nop
    1658:	1458                	addi	a4,sp,548
    165a:	0002                	c.slli64	zero
    165c:	1c00                	addi	s0,sp,560
    165e:	0002                	c.slli64	zero
    1660:	0100                	addi	s0,sp,128
    1662:	5800                	lw	s0,48(s0)
    1664:	0244                	addi	s1,sp,260
    1666:	0000                	unimp
    1668:	024c                	addi	a1,sp,260
    166a:	0000                	unimp
    166c:	0001                	nop
    166e:	0058                	addi	a4,sp,4
    1670:	0000                	unimp
    1672:	0000                	unimp
    1674:	0000                	unimp
    1676:	4400                	lw	s0,8(s0)
    1678:	0001                	nop
    167a:	c400                	sw	s0,8(s0)
    167c:	0001                	nop
    167e:	0200                	addi	s0,sp,256
    1680:	3000                	fld	fs0,32(s0)
    1682:	209f 0002 3800      	0x38000002209f
    1688:	0002                	c.slli64	zero
    168a:	0100                	addi	s0,sp,128
    168c:	5e00                	lw	s0,56(a2)
    168e:	024c                	addi	a1,sp,260
    1690:	0000                	unimp
    1692:	0254                	addi	a3,sp,260
    1694:	0000                	unimp
    1696:	0002                	c.slli64	zero
    1698:	9f30                	0x9f30
	...
    16a2:	00a4                	addi	s1,sp,72
    16a4:	0000                	unimp
    16a6:	00c4                	addi	s1,sp,68
    16a8:	0000                	unimp
    16aa:	0001                	nop
    16ac:	445a                	lw	s0,148(sp)
    16ae:	0001                	nop
    16b0:	1800                	addi	s0,sp,48
    16b2:	0002                	c.slli64	zero
    16b4:	0100                	addi	s0,sp,128
    16b6:	5a00                	lw	s0,48(a2)
    16b8:	0218                	addi	a4,sp,256
    16ba:	0000                	unimp
    16bc:	0220                	addi	s0,sp,264
    16be:	0000                	unimp
    16c0:	0006                	c.slli	zero,0x1
    16c2:	ff080083          	lb	ra,-16(a6)
    16c6:	9f1a                	add	t5,t5,t1
    16c8:	0220                	addi	s0,sp,264
    16ca:	0000                	unimp
    16cc:	0248                	addi	a0,sp,260
    16ce:	0000                	unimp
    16d0:	0001                	nop
    16d2:	485a                	lw	a6,148(sp)
    16d4:	0002                	c.slli64	zero
    16d6:	4c00                	lw	s0,24(s0)
    16d8:	0002                	c.slli64	zero
    16da:	0600                	addi	s0,sp,768
    16dc:	8400                	0x8400
    16de:	0800                	addi	s0,sp,16
    16e0:	1aff                	0x1aff
    16e2:	4c9f 0002 d000      	0xd00000024c9f
    16e8:	0002                	c.slli64	zero
    16ea:	0100                	addi	s0,sp,128
    16ec:	5a00                	lw	s0,48(a2)
	...
    16f6:	00a8                	addi	a0,sp,72
    16f8:	0000                	unimp
    16fa:	00c4                	addi	s1,sp,68
    16fc:	0000                	unimp
    16fe:	0001                	nop
    1700:	445c                	lw	a5,12(s0)
    1702:	0001                	nop
    1704:	c800                	sw	s0,16(s0)
    1706:	0001                	nop
    1708:	0100                	addi	s0,sp,128
    170a:	5c00                	lw	s0,56(s0)
    170c:	01c8                	addi	a0,sp,196
    170e:	0000                	unimp
    1710:	0208                	addi	a0,sp,256
    1712:	0000                	unimp
    1714:	0001                	nop
    1716:	145e                	slli	s0,s0,0x37
    1718:	0002                	c.slli64	zero
    171a:	3800                	fld	fs0,48(s0)
    171c:	0002                	c.slli64	zero
    171e:	0100                	addi	s0,sp,128
    1720:	5c00                	lw	s0,56(s0)
    1722:	0244                	addi	s1,sp,260
    1724:	0000                	unimp
    1726:	0250                	addi	a2,sp,260
    1728:	0000                	unimp
    172a:	0001                	nop
    172c:	505c                	lw	a5,36(s0)
    172e:	0002                	c.slli64	zero
    1730:	5400                	lw	s0,40(s0)
    1732:	0002                	c.slli64	zero
    1734:	0300                	addi	s0,sp,384
    1736:	7f00                	flw	fs0,56(a4)
    1738:	9f01                	0x9f01
    173a:	0254                	addi	a3,sp,260
    173c:	0000                	unimp
    173e:	025c                	addi	a5,sp,260
    1740:	0000                	unimp
    1742:	0001                	nop
    1744:	5c5e                	lw	s8,244(sp)
    1746:	0002                	c.slli64	zero
    1748:	6c00                	flw	fs0,24(s0)
    174a:	0002                	c.slli64	zero
    174c:	0100                	addi	s0,sp,128
    174e:	5f00                	lw	s0,56(a4)
    1750:	026c                	addi	a1,sp,268
    1752:	0000                	unimp
    1754:	02a4                	addi	s1,sp,328
    1756:	0000                	unimp
    1758:	0006                	c.slli	zero,0x1
    175a:	2008                	fld	fa0,0(s0)
    175c:	007c                	addi	a5,sp,12
    175e:	9f1c                	0x9f1c
    1760:	02a4                	addi	s1,sp,328
    1762:	0000                	unimp
    1764:	02a8                	addi	a0,sp,328
    1766:	0000                	unimp
    1768:	0008                	0x8
    176a:	007e                	c.slli	zero,0x1f
    176c:	007c                	addi	a5,sp,12
    176e:	231c                	fld	fa5,0(a4)
    1770:	9f1f 02a8 0000      	0x2a89f1f
    1776:	02b4                	addi	a3,sp,328
    1778:	0000                	unimp
    177a:	0001                	nop
    177c:	b45c                	fsd	fa5,168(s0)
    177e:	0002                	c.slli64	zero
    1780:	b800                	fsd	fs0,48(s0)
    1782:	0002                	c.slli64	zero
    1784:	0100                	addi	s0,sp,128
    1786:	5e00                	lw	s0,56(a2)
	...
    1790:	01b0                	addi	a2,sp,200
    1792:	0000                	unimp
    1794:	01c0                	addi	s0,sp,196
    1796:	0000                	unimp
    1798:	0001                	nop
    179a:	c458                	sw	a4,12(s0)
    179c:	0001                	nop
    179e:	fc00                	fsw	fs0,56(s0)
    17a0:	0001                	nop
    17a2:	0100                	addi	s0,sp,128
    17a4:	5800                	lw	s0,48(s0)
    17a6:	01fc                	addi	a5,sp,204
    17a8:	0000                	unimp
    17aa:	0204                	addi	s1,sp,256
    17ac:	0000                	unimp
    17ae:	0005                	c.nop	1
    17b0:	0078                	addi	a4,sp,12
    17b2:	049f2533          	0x49f2533
    17b6:	0002                	c.slli64	zero
    17b8:	0c00                	addi	s0,sp,528
    17ba:	0002                	c.slli64	zero
    17bc:	0100                	addi	s0,sp,128
    17be:	5800                	lw	s0,48(s0)
    17c0:	0220                	addi	s0,sp,264
    17c2:	0000                	unimp
    17c4:	023c                	addi	a5,sp,264
    17c6:	0000                	unimp
    17c8:	0001                	nop
    17ca:	4c58                	lw	a4,28(s0)
    17cc:	0002                	c.slli64	zero
    17ce:	7000                	flw	fs0,32(s0)
    17d0:	0002                	c.slli64	zero
    17d2:	0100                	addi	s0,sp,128
    17d4:	5800                	lw	s0,48(s0)
    17d6:	0278                	addi	a4,sp,268
    17d8:	0000                	unimp
    17da:	0298                	addi	a4,sp,320
    17dc:	0000                	unimp
    17de:	0001                	nop
    17e0:	b458                	fsd	fa4,168(s0)
    17e2:	0002                	c.slli64	zero
    17e4:	c000                	sw	s0,0(s0)
    17e6:	0002                	c.slli64	zero
    17e8:	0100                	addi	s0,sp,128
    17ea:	5800                	lw	s0,48(s0)
	...
    17f4:	02d0                	addi	a2,sp,324
    17f6:	0000                	unimp
    17f8:	02d8                	addi	a4,sp,324
    17fa:	0000                	unimp
    17fc:	0008                	0x8
    17fe:	0078                	addi	a4,sp,12
    1800:	007a                	c.slli	zero,0x1e
    1802:	f921                	bnez	a0,1752 <_start-0x7fffe8ae>
    1804:	9f25                	0x9f25
    1806:	02d8                	addi	a4,sp,324
    1808:	0000                	unimp
    180a:	02f8                	addi	a4,sp,332
    180c:	0000                	unimp
    180e:	0001                	nop
    1810:	005a                	c.slli	zero,0x16
    1812:	0000                	unimp
    1814:	0000                	unimp
    1816:	0000                	unimp
    1818:	d000                	sw	s0,32(s0)
    181a:	0000                	unimp
    181c:	e400                	fsw	fs0,8(s0)
    181e:	0000                	unimp
    1820:	0300                	addi	s0,sp,384
    1822:	7a00                	flw	fs0,48(a2)
    1824:	9f78                	0x9f78
	...
    182e:	0110                	addi	a2,sp,128
    1830:	0000                	unimp
    1832:	0124                	addi	s1,sp,136
    1834:	0000                	unimp
    1836:	787a0003          	lb	zero,1927(s4)
    183a:	009f 0000 0000      	0x9f
    1840:	0000                	unimp
    1842:	9000                	0x9000
    1844:	0001                	nop
    1846:	a000                	fsd	fs0,0(s0)
    1848:	0001                	nop
    184a:	0100                	addi	s0,sp,128
    184c:	5e00                	lw	s0,56(a2)
    184e:	01b0                	addi	a2,sp,200
    1850:	0000                	unimp
    1852:	01c0                	addi	s0,sp,196
    1854:	0000                	unimp
    1856:	0001                	nop
    1858:	4c58                	lw	a4,28(s0)
    185a:	0002                	c.slli64	zero
    185c:	5400                	lw	s0,40(s0)
    185e:	0002                	c.slli64	zero
    1860:	0100                	addi	s0,sp,128
    1862:	5800                	lw	s0,48(s0)
	...
    186c:	0180                	addi	s0,sp,192
    186e:	0000                	unimp
    1870:	0198                	addi	a4,sp,192
    1872:	0000                	unimp
    1874:	0008                	0x8
    1876:	0079                	c.nop	30
    1878:	2540                	fld	fs0,136(a0)
    187a:	007d                	c.nop	31
    187c:	9f22                	add	t5,t5,s0
    187e:	01a4                	addi	s1,sp,200
    1880:	0000                	unimp
    1882:	01ac                	addi	a1,sp,200
    1884:	0000                	unimp
    1886:	0001                	nop
    1888:	0059                	c.nop	22
    188a:	0000                	unimp
    188c:	0000                	unimp
    188e:	0000                	unimp
    1890:	6000                	flw	fs0,0(s0)
    1892:	0001                	nop
    1894:	8c00                	0x8c00
    1896:	0001                	nop
    1898:	0100                	addi	s0,sp,128
    189a:	6000                	flw	fs0,0(s0)
	...
    18a4:	0160                	addi	s0,sp,140
    18a6:	0000                	unimp
    18a8:	016c                	addi	a1,sp,140
    18aa:	0000                	unimp
    18ac:	0006                	c.slli	zero,0x1
    18ae:	0079007b          	0x79007b
    18b2:	9f1e                	add	t5,t5,t2
    18b4:	016c                	addi	a1,sp,140
    18b6:	0000                	unimp
    18b8:	0174                	addi	a3,sp,140
    18ba:	0000                	unimp
    18bc:	0001                	nop
    18be:	0001785b          	0x1785b
    18c2:	9800                	0x9800
    18c4:	0001                	nop
    18c6:	0100                	addi	s0,sp,128
    18c8:	5900                	lw	s0,48(a0)
	...
    18d2:	0164                	addi	s1,sp,140
    18d4:	0000                	unimp
    18d6:	0194                	addi	a3,sp,192
    18d8:	0000                	unimp
    18da:	0001                	nop
    18dc:	0058                	addi	a4,sp,4
    18de:	0000                	unimp
    18e0:	0000                	unimp
    18e2:	0000                	unimp
    18e4:	6800                	flw	fs0,16(s0)
    18e6:	0001                	nop
    18e8:	c400                	sw	s0,8(s0)
    18ea:	0001                	nop
    18ec:	0100                	addi	s0,sp,128
    18ee:	5d00                	lw	s0,56(a0)
    18f0:	024c                	addi	a1,sp,260
    18f2:	0000                	unimp
    18f4:	0254                	addi	a3,sp,260
    18f6:	0000                	unimp
    18f8:	0001                	nop
    18fa:	005d                	c.nop	23
    18fc:	0000                	unimp
    18fe:	0000                	unimp
    1900:	0000                	unimp
    1902:	4400                	lw	s0,8(s0)
    1904:	0001                	nop
    1906:	5800                	lw	s0,48(s0)
    1908:	0001                	nop
    190a:	0100                	addi	s0,sp,128
    190c:	5900                	lw	s0,48(a0)
	...
    1916:	0150                	addi	a2,sp,132
    1918:	0000                	unimp
    191a:	015c                	addi	a5,sp,132
    191c:	0000                	unimp
    191e:	0001                	nop
    1920:	0058                	addi	a4,sp,4
    1922:	0000                	unimp
    1924:	0000                	unimp
    1926:	0000                	unimp
    1928:	5000                	lw	s0,32(s0)
    192a:	0001                	nop
    192c:	6800                	flw	fs0,16(s0)
    192e:	0001                	nop
    1930:	0100                	addi	s0,sp,128
    1932:	5d00                	lw	s0,56(a0)
	...
    193c:	0154                	addi	a3,sp,132
    193e:	0000                	unimp
    1940:	016c                	addi	a1,sp,140
    1942:	0000                	unimp
    1944:	0001                	nop
    1946:	0000005b          	0x5b
	...
    1952:	3c00                	fld	fs0,56(s0)
    1954:	0000                	unimp
    1956:	0100                	addi	s0,sp,128
    1958:	5a00                	lw	s0,48(a2)
    195a:	003c                	addi	a5,sp,8
    195c:	0000                	unimp
    195e:	044c                	addi	a1,sp,516
    1960:	0000                	unimp
    1962:	0006                	c.slli	zero,0x1
    1964:	0af503f3          	0xaf503f3
    1968:	9f25                	0x9f25
	...
    1976:	004c                	addi	a1,sp,4
    1978:	0000                	unimp
    197a:	0001                	nop
    197c:	00004c5b          	0x4c5b
    1980:	4c00                	lw	s0,24(s0)
    1982:	0004                	0x4
    1984:	0600                	addi	s0,sp,768
    1986:	f300                	fsw	fs0,32(a4)
    1988:	250bf503          	0x250bf503
    198c:	009f 0000 0000      	0x9f
    1992:	0000                	unimp
    1994:	0000                	unimp
    1996:	0000                	unimp
    1998:	b800                	fsd	fs0,48(s0)
    199a:	0000                	unimp
    199c:	0200                	addi	s0,sp,256
    199e:	3000                	fld	fs0,32(s0)
    19a0:	c09f 0000 2400      	0x24000000c09f
    19a6:	0001                	nop
    19a8:	0200                	addi	s0,sp,256
    19aa:	3000                	fld	fs0,32(s0)
    19ac:	2c9f 0001 9c00      	0x9c0000012c9f
    19b2:	0001                	nop
    19b4:	0200                	addi	s0,sp,256
    19b6:	3000                	fld	fs0,32(s0)
    19b8:	c49f 0001 9400      	0x94000001c49f
    19be:	0002                	c.slli64	zero
    19c0:	0200                	addi	s0,sp,256
    19c2:	3000                	fld	fs0,32(s0)
    19c4:	a09f 0002 2800      	0x28000002a09f
    19ca:	02000003          	lb	zero,32(zero) # 20 <_start-0x7fffffe0>
    19ce:	3000                	fld	fs0,32(s0)
    19d0:	409f 0003 cc00      	0xcc000003409f
    19d6:	02000003          	lb	zero,32(zero) # 20 <_start-0x7fffffe0>
    19da:	3000                	fld	fs0,32(s0)
    19dc:	3c9f 0004 4400      	0x440000043c9f
    19e2:	0004                	0x4
    19e4:	0200                	addi	s0,sp,256
    19e6:	3000                	fld	fs0,32(s0)
    19e8:	009f 0000 0000      	0x9f
    19ee:	0000                	unimp
    19f0:	4000                	lw	s0,0(s0)
    19f2:	0000                	unimp
    19f4:	b800                	fsd	fs0,48(s0)
    19f6:	0000                	unimp
    19f8:	0100                	addi	s0,sp,128
    19fa:	5900                	lw	s0,48(a0)
    19fc:	00c0                	addi	s0,sp,68
    19fe:	0000                	unimp
    1a00:	019c                	addi	a5,sp,192
    1a02:	0000                	unimp
    1a04:	0001                	nop
    1a06:	b859                	j	129c <_start-0x7fffed64>
    1a08:	0001                	nop
    1a0a:	f800                	fsw	fs0,48(s0)
    1a0c:	0001                	nop
    1a0e:	0100                	addi	s0,sp,128
    1a10:	5900                	lw	s0,48(a0)
    1a12:	0214                	addi	a3,sp,256
    1a14:	0000                	unimp
    1a16:	0288                	addi	a0,sp,320
    1a18:	0000                	unimp
    1a1a:	0001                	nop
    1a1c:	8c59                	or	s0,s0,a4
    1a1e:	0002                	c.slli64	zero
    1a20:	9c00                	0x9c00
    1a22:	0002                	c.slli64	zero
    1a24:	0100                	addi	s0,sp,128
    1a26:	5900                	lw	s0,48(a0)
    1a28:	02a0                	addi	s0,sp,328
    1a2a:	0000                	unimp
    1a2c:	0314                	addi	a3,sp,384
    1a2e:	0000                	unimp
    1a30:	0001                	nop
    1a32:	1859                	addi	a6,a6,-10
    1a34:	24000003          	lb	zero,576(zero) # 240 <_start-0x7ffffdc0>
    1a38:	01000003          	lb	zero,16(zero) # 10 <_start-0x7ffffff0>
    1a3c:	5900                	lw	s0,48(a0)
    1a3e:	0328                	addi	a0,sp,392
    1a40:	0000                	unimp
    1a42:	0334                	addi	a3,sp,392
    1a44:	0000                	unimp
    1a46:	0001                	nop
    1a48:	4059                	c.li	zero,22
    1a4a:	54000003          	lb	zero,1344(zero) # 540 <_start-0x7ffffac0>
    1a4e:	01000003          	lb	zero,16(zero) # 10 <_start-0x7ffffff0>
    1a52:	5900                	lw	s0,48(a0)
    1a54:	0390                	addi	a2,sp,448
    1a56:	0000                	unimp
    1a58:	03a0                	addi	s0,sp,456
    1a5a:	0000                	unimp
    1a5c:	0001                	nop
    1a5e:	b459                	j	14e4 <_start-0x7fffeb1c>
    1a60:	cc000003          	lb	zero,-832(zero) # fffffcc0 <__global_pointer$+0x7fffc058>
    1a64:	01000003          	lb	zero,16(zero) # 10 <_start-0x7ffffff0>
    1a68:	5900                	lw	s0,48(a0)
    1a6a:	043c                	addi	a5,sp,520
    1a6c:	0000                	unimp
    1a6e:	0444                	addi	s1,sp,516
    1a70:	0000                	unimp
    1a72:	0001                	nop
    1a74:	0059                	c.nop	22
    1a76:	0000                	unimp
    1a78:	0000                	unimp
    1a7a:	0000                	unimp
    1a7c:	4000                	lw	s0,0(s0)
    1a7e:	0000                	unimp
    1a80:	8000                	0x8000
    1a82:	0000                	unimp
    1a84:	0100                	addi	s0,sp,128
    1a86:	5c00                	lw	s0,56(s0)
    1a88:	0080                	addi	s0,sp,64
    1a8a:	0000                	unimp
    1a8c:	00b0                	addi	a2,sp,72
    1a8e:	0000                	unimp
    1a90:	0001                	nop
    1a92:	b062                	fsd	fs8,32(sp)
    1a94:	0000                	unimp
    1a96:	b800                	fsd	fs0,48(s0)
    1a98:	0000                	unimp
    1a9a:	0100                	addi	s0,sp,128
    1a9c:	5c00                	lw	s0,56(s0)
    1a9e:	00b8                	addi	a4,sp,72
    1aa0:	0000                	unimp
    1aa2:	00c0                	addi	s0,sp,68
    1aa4:	0000                	unimp
    1aa6:	0001                	nop
    1aa8:	c062                	sw	s8,0(sp)
    1aaa:	0000                	unimp
    1aac:	2000                	fld	fs0,0(s0)
    1aae:	0001                	nop
    1ab0:	0100                	addi	s0,sp,128
    1ab2:	5c00                	lw	s0,56(s0)
    1ab4:	0120                	addi	s0,sp,136
    1ab6:	0000                	unimp
    1ab8:	012c                	addi	a1,sp,136
    1aba:	0000                	unimp
    1abc:	0001                	nop
    1abe:	2c62                	fld	fs8,24(sp)
    1ac0:	0001                	nop
    1ac2:	3000                	fld	fs0,32(s0)
    1ac4:	0001                	nop
    1ac6:	0100                	addi	s0,sp,128
    1ac8:	5c00                	lw	s0,56(s0)
    1aca:	0130                	addi	a2,sp,136
    1acc:	0000                	unimp
    1ace:	0168                	addi	a0,sp,140
    1ad0:	0000                	unimp
    1ad2:	0001                	nop
    1ad4:	6862                	flw	fa6,24(sp)
    1ad6:	0001                	nop
    1ad8:	9c00                	0x9c00
    1ada:	0001                	nop
    1adc:	0100                	addi	s0,sp,128
    1ade:	5c00                	lw	s0,56(s0)
    1ae0:	01b8                	addi	a4,sp,200
    1ae2:	0000                	unimp
    1ae4:	01f8                	addi	a4,sp,204
    1ae6:	0000                	unimp
    1ae8:	0001                	nop
    1aea:	f85c                	fsw	fa5,52(s0)
    1aec:	0001                	nop
    1aee:	1000                	addi	s0,sp,32
    1af0:	0002                	c.slli64	zero
    1af2:	0100                	addi	s0,sp,128
    1af4:	6200                	flw	fs0,0(a2)
    1af6:	0214                	addi	a3,sp,256
    1af8:	0000                	unimp
    1afa:	0284                	addi	s1,sp,320
    1afc:	0000                	unimp
    1afe:	0001                	nop
    1b00:	845c                	0x845c
    1b02:	0002                	c.slli64	zero
    1b04:	8c00                	0x8c00
    1b06:	0002                	c.slli64	zero
    1b08:	0100                	addi	s0,sp,128
    1b0a:	6200                	flw	fs0,0(a2)
    1b0c:	028c                	addi	a1,sp,320
    1b0e:	0000                	unimp
    1b10:	0290                	addi	a2,sp,320
    1b12:	0000                	unimp
    1b14:	0001                	nop
    1b16:	905c                	0x905c
    1b18:	0002                	c.slli64	zero
    1b1a:	a000                	fsd	fs0,0(s0)
    1b1c:	0002                	c.slli64	zero
    1b1e:	0100                	addi	s0,sp,128
    1b20:	6200                	flw	fs0,0(a2)
    1b22:	02a0                	addi	s0,sp,328
    1b24:	0000                	unimp
    1b26:	02a4                	addi	s1,sp,328
    1b28:	0000                	unimp
    1b2a:	0001                	nop
    1b2c:	a45c                	fsd	fa5,136(s0)
    1b2e:	0002                	c.slli64	zero
    1b30:	dc00                	sw	s0,56(s0)
    1b32:	0002                	c.slli64	zero
    1b34:	0100                	addi	s0,sp,128
    1b36:	6200                	flw	fs0,0(a2)
    1b38:	02dc                	addi	a5,sp,324
    1b3a:	0000                	unimp
    1b3c:	0304                	addi	s1,sp,384
    1b3e:	0000                	unimp
    1b40:	0001                	nop
    1b42:	045c                	addi	a5,sp,516
    1b44:	28000003          	lb	zero,640(zero) # 280 <_start-0x7ffffd80>
    1b48:	01000003          	lb	zero,16(zero) # 10 <_start-0x7ffffff0>
    1b4c:	6200                	flw	fs0,0(a2)
    1b4e:	0328                	addi	a0,sp,392
    1b50:	0000                	unimp
    1b52:	0354                	addi	a3,sp,388
    1b54:	0000                	unimp
    1b56:	0001                	nop
    1b58:	905c                	0x905c
    1b5a:	a0000003          	lb	zero,-1536(zero) # fffffa00 <__global_pointer$+0x7fffbd98>
    1b5e:	01000003          	lb	zero,16(zero) # 10 <_start-0x7ffffff0>
    1b62:	5c00                	lw	s0,56(s0)
    1b64:	03b4                	addi	a3,sp,456
    1b66:	0000                	unimp
    1b68:	03c8                	addi	a0,sp,452
    1b6a:	0000                	unimp
    1b6c:	0001                	nop
    1b6e:	c85c                	sw	a5,20(s0)
    1b70:	cc000003          	lb	zero,-832(zero) # fffffcc0 <__global_pointer$+0x7fffc058>
    1b74:	01000003          	lb	zero,16(zero) # 10 <_start-0x7ffffff0>
    1b78:	6200                	flw	fs0,0(a2)
    1b7a:	043c                	addi	a5,sp,520
    1b7c:	0000                	unimp
    1b7e:	0444                	addi	s1,sp,516
    1b80:	0000                	unimp
    1b82:	0001                	nop
    1b84:	0062                	c.slli	zero,0x18
    1b86:	0000                	unimp
    1b88:	0000                	unimp
    1b8a:	0000                	unimp
    1b8c:	1800                	addi	s0,sp,48
    1b8e:	0000                	unimp
    1b90:	7c00                	flw	fs0,56(s0)
    1b92:	0000                	unimp
    1b94:	0100                	addi	s0,sp,128
    1b96:	5f00                	lw	s0,56(a4)
    1b98:	00b0                	addi	a2,sp,72
    1b9a:	0000                	unimp
    1b9c:	00b8                	addi	a4,sp,72
    1b9e:	0000                	unimp
    1ba0:	0001                	nop
    1ba2:	c05f 0000 f800      	0xf8000000c05f
    1ba8:	0000                	unimp
    1baa:	0100                	addi	s0,sp,128
    1bac:	5f00                	lw	s0,56(a4)
    1bae:	00fc                	addi	a5,sp,76
    1bb0:	0000                	unimp
    1bb2:	0118                	addi	a4,sp,128
    1bb4:	0000                	unimp
    1bb6:	0001                	nop
    1bb8:	1c5f 0001 2800      	0x280000011c5f
    1bbe:	0001                	nop
    1bc0:	0100                	addi	s0,sp,128
    1bc2:	5f00                	lw	s0,56(a4)
    1bc4:	012c                	addi	a1,sp,136
    1bc6:	0000                	unimp
    1bc8:	0158                	addi	a4,sp,132
    1bca:	0000                	unimp
    1bcc:	0001                	nop
    1bce:	605f 0001 6800      	0x68000001605f
    1bd4:	0001                	nop
    1bd6:	0100                	addi	s0,sp,128
    1bd8:	5c00                	lw	s0,56(s0)
    1bda:	0168                	addi	a0,sp,140
    1bdc:	0000                	unimp
    1bde:	0184                	addi	s1,sp,192
    1be0:	0000                	unimp
    1be2:	0001                	nop
    1be4:	b85f 0001 d000      	0xd0000001b85f
    1bea:	0001                	nop
    1bec:	0100                	addi	s0,sp,128
    1bee:	5f00                	lw	s0,56(a4)
    1bf0:	01dc                	addi	a5,sp,196
    1bf2:	0000                	unimp
    1bf4:	01f8                	addi	a4,sp,204
    1bf6:	0000                	unimp
    1bf8:	0001                	nop
    1bfa:	145f 0002 4800      	0x48000002145f
    1c00:	0002                	c.slli64	zero
    1c02:	0100                	addi	s0,sp,128
    1c04:	5f00                	lw	s0,56(a4)
    1c06:	0250                	addi	a2,sp,260
    1c08:	0000                	unimp
    1c0a:	0284                	addi	s1,sp,320
    1c0c:	0000                	unimp
    1c0e:	0001                	nop
    1c10:	8c5f 0002 9800      	0x980000028c5f
    1c16:	0002                	c.slli64	zero
    1c18:	0100                	addi	s0,sp,128
    1c1a:	5f00                	lw	s0,56(a4)
    1c1c:	02a0                	addi	s0,sp,328
    1c1e:	0000                	unimp
    1c20:	02cc                	addi	a1,sp,324
    1c22:	0000                	unimp
    1c24:	0001                	nop
    1c26:	d45f 0002 dc00      	0xdc000002d45f
    1c2c:	0002                	c.slli64	zero
    1c2e:	0100                	addi	s0,sp,128
    1c30:	5c00                	lw	s0,56(s0)
    1c32:	02dc                	addi	a5,sp,324
    1c34:	0000                	unimp
    1c36:	02f8                	addi	a4,sp,332
    1c38:	0000                	unimp
    1c3a:	0001                	nop
    1c3c:	fc5f 0002 1000      	0x10000002fc5f
    1c42:	01000003          	lb	zero,16(zero) # 10 <_start-0x7ffffff0>
    1c46:	5f00                	lw	s0,56(a4)
    1c48:	0318                	addi	a4,sp,384
    1c4a:	0000                	unimp
    1c4c:	0320                	addi	s0,sp,392
    1c4e:	0000                	unimp
    1c50:	0001                	nop
    1c52:	285f 0003 3800      	0x38000003285f
    1c58:	01000003          	lb	zero,16(zero) # 10 <_start-0x7ffffff0>
    1c5c:	5f00                	lw	s0,56(a4)
    1c5e:	0340                	addi	s0,sp,388
    1c60:	0000                	unimp
    1c62:	0354                	addi	a3,sp,388
    1c64:	0000                	unimp
    1c66:	0001                	nop
    1c68:	905f 0003 9800      	0x98000003905f
    1c6e:	01000003          	lb	zero,16(zero) # 10 <_start-0x7ffffff0>
    1c72:	5f00                	lw	s0,56(a4)
    1c74:	03b4                	addi	a3,sp,456
    1c76:	0000                	unimp
    1c78:	03c0                	addi	s0,sp,452
    1c7a:	0000                	unimp
    1c7c:	0001                	nop
    1c7e:	c45f 0003 c800      	0xc8000003c45f
    1c84:	01000003          	lb	zero,16(zero) # 10 <_start-0x7ffffff0>
    1c88:	5f00                	lw	s0,56(a4)
    1c8a:	043c                	addi	a5,sp,520
    1c8c:	0000                	unimp
    1c8e:	0440                	addi	s0,sp,516
    1c90:	0000                	unimp
    1c92:	0001                	nop
    1c94:	005f 0000 0000      	0x5f
    1c9a:	0000                	unimp
    1c9c:	4c00                	lw	s0,24(s0)
    1c9e:	0000                	unimp
    1ca0:	5c00                	lw	s0,56(s0)
    1ca2:	0000                	unimp
    1ca4:	0600                	addi	s0,sp,768
    1ca6:	7b00                	flw	fs0,48(a4)
    1ca8:	0800                	addi	s0,sp,16
    1caa:	1aff                	0x1aff
    1cac:	5c9f 0000 7c00      	0x7c0000005c9f
    1cb2:	0000                	unimp
    1cb4:	0100                	addi	s0,sp,128
    1cb6:	5b00                	lw	s0,48(a4)
    1cb8:	00b0                	addi	a2,sp,72
    1cba:	0000                	unimp
    1cbc:	00b8                	addi	a4,sp,72
    1cbe:	0000                	unimp
    1cc0:	0001                	nop
    1cc2:	0000c05b          	0xc05b
    1cc6:	d400                	sw	s0,40(s0)
    1cc8:	0000                	unimp
    1cca:	0100                	addi	s0,sp,128
    1ccc:	5b00                	lw	s0,48(a4)
    1cce:	00fc                	addi	a5,sp,76
    1cd0:	0000                	unimp
    1cd2:	0104                	addi	s1,sp,128
    1cd4:	0000                	unimp
    1cd6:	0001                	nop
    1cd8:	0001685b          	0x1685b
    1cdc:	6c00                	flw	fs0,24(s0)
    1cde:	0001                	nop
    1ce0:	0100                	addi	s0,sp,128
    1ce2:	5b00                	lw	s0,48(a4)
    1ce4:	01dc                	addi	a5,sp,196
    1ce6:	0000                	unimp
    1ce8:	01f8                	addi	a4,sp,204
    1cea:	0000                	unimp
    1cec:	0001                	nop
    1cee:	0002145b          	0x2145b
    1cf2:	1800                	addi	s0,sp,48
    1cf4:	0002                	c.slli64	zero
    1cf6:	0100                	addi	s0,sp,128
    1cf8:	5b00                	lw	s0,48(a4)
    1cfa:	0250                	addi	a2,sp,260
    1cfc:	0000                	unimp
    1cfe:	0254                	addi	a3,sp,260
    1d00:	0000                	unimp
    1d02:	0001                	nop
    1d04:	0002685b          	0x2685b
    1d08:	3000                	fld	fs0,32(s0)
    1d0a:	01000003          	lb	zero,16(zero) # 10 <_start-0x7ffffff0>
    1d0e:	5b00                	lw	s0,48(a4)
    1d10:	0340                	addi	s0,sp,388
    1d12:	0000                	unimp
    1d14:	0354                	addi	a3,sp,388
    1d16:	0000                	unimp
    1d18:	0001                	nop
    1d1a:	0003905b          	0x3905b
    1d1e:	a000                	fsd	fs0,0(s0)
    1d20:	01000003          	lb	zero,16(zero) # 10 <_start-0x7ffffff0>
    1d24:	5b00                	lw	s0,48(a4)
    1d26:	03b4                	addi	a3,sp,456
    1d28:	0000                	unimp
    1d2a:	03bc                	addi	a5,sp,456
    1d2c:	0000                	unimp
    1d2e:	0001                	nop
    1d30:	00043c5b          	0x43c5b
    1d34:	4400                	lw	s0,8(s0)
    1d36:	0004                	0x4
    1d38:	0100                	addi	s0,sp,128
    1d3a:	5b00                	lw	s0,48(a4)
	...
    1d44:	0048                	addi	a0,sp,4
    1d46:	0000                	unimp
    1d48:	007c                	addi	a5,sp,12
    1d4a:	0000                	unimp
    1d4c:	0001                	nop
    1d4e:	7c5e                	flw	fs8,244(sp)
    1d50:	0000                	unimp
    1d52:	b000                	fsd	fs0,32(s0)
    1d54:	0000                	unimp
    1d56:	0100                	addi	s0,sp,128
    1d58:	6100                	flw	fs0,0(a0)
    1d5a:	00b0                	addi	a2,sp,72
    1d5c:	0000                	unimp
    1d5e:	00b4                	addi	a3,sp,72
    1d60:	0000                	unimp
    1d62:	0001                	nop
    1d64:	b45e                	fsd	fs7,40(sp)
    1d66:	0000                	unimp
    1d68:	c000                	sw	s0,0(s0)
    1d6a:	0000                	unimp
    1d6c:	0100                	addi	s0,sp,128
    1d6e:	6100                	flw	fs0,0(a0)
    1d70:	00c0                	addi	s0,sp,68
    1d72:	0000                	unimp
    1d74:	00c4                	addi	s1,sp,68
    1d76:	0000                	unimp
    1d78:	0001                	nop
    1d7a:	c45e                	sw	s7,8(sp)
    1d7c:	0000                	unimp
    1d7e:	fc00                	fsw	fs0,56(s0)
    1d80:	0000                	unimp
    1d82:	0100                	addi	s0,sp,128
    1d84:	6100                	flw	fs0,0(a0)
    1d86:	00fc                	addi	a5,sp,76
    1d88:	0000                	unimp
    1d8a:	0124                	addi	s1,sp,136
    1d8c:	0000                	unimp
    1d8e:	0001                	nop
    1d90:	245e                	fld	fs0,464(sp)
    1d92:	0001                	nop
    1d94:	2c00                	fld	fs0,24(s0)
    1d96:	0001                	nop
    1d98:	0100                	addi	s0,sp,128
    1d9a:	6100                	flw	fs0,0(a0)
    1d9c:	012c                	addi	a1,sp,136
    1d9e:	0000                	unimp
    1da0:	0170                	addi	a2,sp,140
    1da2:	0000                	unimp
    1da4:	0001                	nop
    1da6:	705e                	flw	ft0,244(sp)
    1da8:	0001                	nop
    1daa:	9c00                	0x9c00
    1dac:	0001                	nop
    1dae:	0100                	addi	s0,sp,128
    1db0:	6100                	flw	fs0,0(a0)
    1db2:	01b8                	addi	a4,sp,200
    1db4:	0000                	unimp
    1db6:	01dc                	addi	a5,sp,196
    1db8:	0000                	unimp
    1dba:	0001                	nop
    1dbc:	dc61                	beqz	s0,1d94 <_start-0x7fffe26c>
    1dbe:	0001                	nop
    1dc0:	e800                	fsw	fs0,16(s0)
    1dc2:	0001                	nop
    1dc4:	0100                	addi	s0,sp,128
    1dc6:	5e00                	lw	s0,56(a2)
    1dc8:	01e8                	addi	a0,sp,204
    1dca:	0000                	unimp
    1dcc:	0250                	addi	a2,sp,260
    1dce:	0000                	unimp
    1dd0:	0001                	nop
    1dd2:	5061                	c.li	zero,-8
    1dd4:	0002                	c.slli64	zero
    1dd6:	5800                	lw	s0,48(s0)
    1dd8:	0002                	c.slli64	zero
    1dda:	0100                	addi	s0,sp,128
    1ddc:	5e00                	lw	s0,56(a2)
    1dde:	0258                	addi	a4,sp,260
    1de0:	0000                	unimp
    1de2:	0268                	addi	a0,sp,268
    1de4:	0000                	unimp
    1de6:	0001                	nop
    1de8:	6861                	lui	a6,0x18
    1dea:	0002                	c.slli64	zero
    1dec:	9400                	0x9400
    1dee:	0002                	c.slli64	zero
    1df0:	0100                	addi	s0,sp,128
    1df2:	5e00                	lw	s0,56(a2)
    1df4:	0294                	addi	a3,sp,320
    1df6:	0000                	unimp
    1df8:	02a0                	addi	s0,sp,328
    1dfa:	0000                	unimp
    1dfc:	0001                	nop
    1dfe:	a061                	j	1e86 <_start-0x7fffe17a>
    1e00:	0002                	c.slli64	zero
    1e02:	e000                	fsw	fs0,0(s0)
    1e04:	0002                	c.slli64	zero
    1e06:	0100                	addi	s0,sp,128
    1e08:	5e00                	lw	s0,56(a2)
    1e0a:	02e0                	addi	s0,sp,332
    1e0c:	0000                	unimp
    1e0e:	0000035b          	0x35b
    1e12:	0001                	nop
    1e14:	9061                	srli	s0,s0,0x38
    1e16:	a0000003          	lb	zero,-1536(zero) # fffffa00 <__global_pointer$+0x7fffbd98>
    1e1a:	01000003          	lb	zero,16(zero) # 10 <_start-0x7ffffff0>
    1e1e:	6100                	flw	fs0,0(a0)
    1e20:	03b4                	addi	a3,sp,456
    1e22:	0000                	unimp
    1e24:	03b8                	addi	a4,sp,456
    1e26:	0000                	unimp
    1e28:	0001                	nop
    1e2a:	b85e                	fsd	fs7,48(sp)
    1e2c:	cc000003          	lb	zero,-832(zero) # fffffcc0 <__global_pointer$+0x7fffc058>
    1e30:	01000003          	lb	zero,16(zero) # 10 <_start-0x7ffffff0>
    1e34:	6100                	flw	fs0,0(a0)
    1e36:	043c                	addi	a5,sp,520
    1e38:	0000                	unimp
    1e3a:	0444                	addi	s1,sp,516
    1e3c:	0000                	unimp
    1e3e:	0001                	nop
    1e40:	0061                	c.nop	24
    1e42:	0000                	unimp
    1e44:	0000                	unimp
    1e46:	0000                	unimp
    1e48:	4400                	lw	s0,8(s0)
    1e4a:	0000                	unimp
    1e4c:	7c00                	flw	fs0,56(s0)
    1e4e:	0000                	unimp
    1e50:	0100                	addi	s0,sp,128
    1e52:	5d00                	lw	s0,56(a0)
    1e54:	00b0                	addi	a2,sp,72
    1e56:	0000                	unimp
    1e58:	00ec                	addi	a1,sp,76
    1e5a:	0000                	unimp
    1e5c:	0001                	nop
    1e5e:	f45d                	bnez	s0,1e0c <_start-0x7fffe1f4>
    1e60:	0000                	unimp
    1e62:	fc00                	fsw	fs0,56(s0)
    1e64:	0000                	unimp
    1e66:	0100                	addi	s0,sp,128
    1e68:	5e00                	lw	s0,56(a2)
    1e6a:	00fc                	addi	a5,sp,76
    1e6c:	0000                	unimp
    1e6e:	0188                	addi	a0,sp,192
    1e70:	0000                	unimp
    1e72:	0001                	nop
    1e74:	b85d                	j	172a <_start-0x7fffe8d6>
    1e76:	0001                	nop
    1e78:	f800                	fsw	fs0,48(s0)
    1e7a:	0001                	nop
    1e7c:	0100                	addi	s0,sp,128
    1e7e:	5d00                	lw	s0,56(a0)
    1e80:	0214                	addi	a3,sp,256
    1e82:	0000                	unimp
    1e84:	023c                	addi	a5,sp,264
    1e86:	0000                	unimp
    1e88:	0001                	nop
    1e8a:	445d                	li	s0,23
    1e8c:	0002                	c.slli64	zero
    1e8e:	4c00                	lw	s0,24(s0)
    1e90:	0002                	c.slli64	zero
    1e92:	0100                	addi	s0,sp,128
    1e94:	5e00                	lw	s0,56(a2)
    1e96:	0250                	addi	a2,sp,260
    1e98:	0000                	unimp
    1e9a:	0354                	addi	a3,sp,388
    1e9c:	0000                	unimp
    1e9e:	0001                	nop
    1ea0:	905d                	srli	s0,s0,0x37
    1ea2:	a0000003          	lb	zero,-1536(zero) # fffffa00 <__global_pointer$+0x7fffbd98>
    1ea6:	01000003          	lb	zero,16(zero) # 10 <_start-0x7ffffff0>
    1eaa:	5d00                	lw	s0,56(a0)
    1eac:	03b4                	addi	a3,sp,456
    1eae:	0000                	unimp
    1eb0:	03c8                	addi	a0,sp,452
    1eb2:	0000                	unimp
    1eb4:	0001                	nop
    1eb6:	3c5d                	jal	196c <_start-0x7fffe694>
    1eb8:	0004                	0x4
    1eba:	4400                	lw	s0,8(s0)
    1ebc:	0004                	0x4
    1ebe:	0100                	addi	s0,sp,128
    1ec0:	5d00                	lw	s0,56(a0)
	...
    1eca:	0064                	addi	s1,sp,12
    1ecc:	0000                	unimp
    1ece:	00b8                	addi	a4,sp,72
    1ed0:	0000                	unimp
    1ed2:	0001                	nop
    1ed4:	c059                	beqz	s0,1f5a <_start-0x7fffe0a6>
    1ed6:	0000                	unimp
    1ed8:	bc00                	fsd	fs0,56(s0)
    1eda:	0001                	nop
    1edc:	0100                	addi	s0,sp,128
    1ede:	5900                	lw	s0,48(a0)
    1ee0:	01c4                	addi	s1,sp,196
    1ee2:	0000                	unimp
    1ee4:	01dc                	addi	a5,sp,196
    1ee6:	0000                	unimp
    1ee8:	0001                	nop
    1eea:	e059                	bnez	s0,1f70 <_start-0x7fffe090>
    1eec:	0001                	nop
    1eee:	6800                	flw	fs0,16(s0)
    1ef0:	0002                	c.slli64	zero
    1ef2:	0100                	addi	s0,sp,128
    1ef4:	5900                	lw	s0,48(a0)
    1ef6:	0270                	addi	a2,sp,268
    1ef8:	0000                	unimp
    1efa:	0294                	addi	a3,sp,320
    1efc:	0000                	unimp
    1efe:	0001                	nop
    1f00:	0002a05b          	0x2a05b
    1f04:	dc00                	sw	s0,56(s0)
    1f06:	0002                	c.slli64	zero
    1f08:	0100                	addi	s0,sp,128
    1f0a:	5b00                	lw	s0,48(a4)
    1f0c:	0304                	addi	s1,sp,384
    1f0e:	0000                	unimp
    1f10:	0310                	addi	a2,sp,384
    1f12:	0000                	unimp
    1f14:	0001                	nop
    1f16:	1059                	c.nop	-10
    1f18:	18000003          	lb	zero,384(zero) # 180 <_start-0x7ffffe80>
    1f1c:	01000003          	lb	zero,16(zero) # 10 <_start-0x7ffffff0>
    1f20:	5b00                	lw	s0,48(a4)
    1f22:	0318                	addi	a4,sp,384
    1f24:	0000                	unimp
    1f26:	031c                	addi	a5,sp,384
    1f28:	0000                	unimp
    1f2a:	0001                	nop
    1f2c:	4459                	li	s0,22
    1f2e:	50000003          	lb	zero,1280(zero) # 500 <_start-0x7ffffb00>
    1f32:	01000003          	lb	zero,16(zero) # 10 <_start-0x7ffffff0>
    1f36:	5900                	lw	s0,48(a0)
    1f38:	0350                	addi	a2,sp,388
    1f3a:	0000                	unimp
    1f3c:	0354                	addi	a3,sp,388
    1f3e:	0000                	unimp
    1f40:	0001                	nop
    1f42:	0003545b          	0x3545b
    1f46:	cc00                	sw	s0,24(s0)
    1f48:	01000003          	lb	zero,16(zero) # 10 <_start-0x7ffffff0>
    1f4c:	5900                	lw	s0,48(a0)
    1f4e:	0404                	addi	s1,sp,512
    1f50:	0000                	unimp
    1f52:	042c                	addi	a1,sp,520
    1f54:	0000                	unimp
    1f56:	0001                	nop
    1f58:	3c59                	jal	19ee <_start-0x7fffe612>
    1f5a:	0004                	0x4
    1f5c:	4400                	lw	s0,8(s0)
    1f5e:	0004                	0x4
    1f60:	0100                	addi	s0,sp,128
    1f62:	5900                	lw	s0,48(a0)
	...
    1f6c:	0068                	addi	a0,sp,12
    1f6e:	0000                	unimp
    1f70:	0080                	addi	s0,sp,64
    1f72:	0000                	unimp
    1f74:	0001                	nop
    1f76:	805c                	0x805c
    1f78:	0000                	unimp
    1f7a:	b000                	fsd	fs0,32(s0)
    1f7c:	0000                	unimp
    1f7e:	0100                	addi	s0,sp,128
    1f80:	5e00                	lw	s0,56(a2)
    1f82:	00b0                	addi	a2,sp,72
    1f84:	0000                	unimp
    1f86:	00b8                	addi	a4,sp,72
    1f88:	0000                	unimp
    1f8a:	0001                	nop
    1f8c:	c05c                	sw	a5,4(s0)
    1f8e:	0000                	unimp
    1f90:	fc00                	fsw	fs0,56(s0)
    1f92:	0000                	unimp
    1f94:	0100                	addi	s0,sp,128
    1f96:	5c00                	lw	s0,56(s0)
    1f98:	0104                	addi	s1,sp,128
    1f9a:	0000                	unimp
    1f9c:	0124                	addi	s1,sp,136
    1f9e:	0000                	unimp
    1fa0:	0001                	nop
    1fa2:	2c5e                	fld	fs8,464(sp)
    1fa4:	0001                	nop
    1fa6:	6800                	flw	fs0,16(s0)
    1fa8:	0001                	nop
    1faa:	0100                	addi	s0,sp,128
    1fac:	5e00                	lw	s0,56(a2)
    1fae:	0178                	addi	a4,sp,140
    1fb0:	0000                	unimp
    1fb2:	0198                	addi	a4,sp,192
    1fb4:	0000                	unimp
    1fb6:	0002                	c.slli64	zero
    1fb8:	9f30                	0x9f30
    1fba:	0198                	addi	a4,sp,192
    1fbc:	0000                	unimp
    1fbe:	019c                	addi	a5,sp,192
    1fc0:	0000                	unimp
    1fc2:	0002                	c.slli64	zero
    1fc4:	9f31                	0x9f31
    1fc6:	019c                	addi	a5,sp,192
    1fc8:	0000                	unimp
    1fca:	01b8                	addi	a4,sp,200
    1fcc:	0000                	unimp
    1fce:	0001                	nop
    1fd0:	b85e                	fsd	fs7,48(sp)
    1fd2:	0001                	nop
    1fd4:	c400                	sw	s0,8(s0)
    1fd6:	0001                	nop
    1fd8:	0300                	addi	s0,sp,384
    1fda:	0800                	addi	s0,sp,16
    1fdc:	9fff                	0x9fff
    1fde:	01c4                	addi	s1,sp,196
    1fe0:	0000                	unimp
    1fe2:	01dc                	addi	a5,sp,196
    1fe4:	0000                	unimp
    1fe6:	0001                	nop
    1fe8:	0001e05b          	0x1e05b
    1fec:	f800                	fsw	fs0,48(s0)
    1fee:	0001                	nop
    1ff0:	0100                	addi	s0,sp,128
    1ff2:	5c00                	lw	s0,56(s0)
    1ff4:	01f8                	addi	a4,sp,204
    1ff6:	0000                	unimp
    1ff8:	0214                	addi	a3,sp,256
    1ffa:	0000                	unimp
    1ffc:	0001                	nop
    1ffe:	145e                	slli	s0,s0,0x37
    2000:	0002                	c.slli64	zero
    2002:	6800                	flw	fs0,16(s0)
    2004:	0002                	c.slli64	zero
    2006:	0100                	addi	s0,sp,128
    2008:	5c00                	lw	s0,56(s0)
    200a:	0270                	addi	a2,sp,268
    200c:	0000                	unimp
    200e:	0294                	addi	a3,sp,320
    2010:	0000                	unimp
    2012:	0001                	nop
    2014:	a05e                	fsd	fs7,0(sp)
    2016:	0002                	c.slli64	zero
    2018:	dc00                	sw	s0,56(s0)
    201a:	0002                	c.slli64	zero
    201c:	0100                	addi	s0,sp,128
    201e:	5e00                	lw	s0,56(a2)
    2020:	02ec                	addi	a1,sp,332
    2022:	0000                	unimp
    2024:	02f4                	addi	a3,sp,332
    2026:	0000                	unimp
    2028:	0002                	c.slli64	zero
    202a:	9f30                	0x9f30
    202c:	02fc                	addi	a5,sp,332
    202e:	0000                	unimp
    2030:	0310                	addi	a2,sp,384
    2032:	0000                	unimp
    2034:	0002                	c.slli64	zero
    2036:	9f30                	0x9f30
    2038:	0318                	addi	a4,sp,384
    203a:	0000                	unimp
    203c:	0320                	addi	s0,sp,392
    203e:	0000                	unimp
    2040:	0002                	c.slli64	zero
    2042:	9f30                	0x9f30
    2044:	0328                	addi	a0,sp,392
    2046:	0000                	unimp
    2048:	0340                	addi	s0,sp,388
    204a:	0000                	unimp
    204c:	ff080003          	lb	zero,-16(a6) # 17ff0 <_start-0x7ffe8010>
    2050:	409f 0003 5400      	0x54000003409f
    2056:	01000003          	lb	zero,16(zero) # 10 <_start-0x7ffffff0>
    205a:	5c00                	lw	s0,56(s0)
    205c:	0354                	addi	a3,sp,388
    205e:	0000                	unimp
    2060:	0388                	addi	a0,sp,448
    2062:	0000                	unimp
    2064:	0001                	nop
    2066:	8862                	mv	a6,s8
    2068:	90000003          	lb	zero,-1792(zero) # fffff900 <__global_pointer$+0x7fffbc98>
    206c:	02000003          	lb	zero,32(zero) # 20 <_start-0x7fffffe0>
    2070:	3000                	fld	fs0,32(s0)
    2072:	909f 0003 a000      	0xa0000003909f
    2078:	01000003          	lb	zero,16(zero) # 10 <_start-0x7ffffff0>
    207c:	5c00                	lw	s0,56(s0)
    207e:	03a0                	addi	s0,sp,456
    2080:	0000                	unimp
    2082:	03ac                	addi	a1,sp,456
    2084:	0000                	unimp
    2086:	0001                	nop
    2088:	ac62                	fsd	fs8,24(sp)
    208a:	b4000003          	lb	zero,-1216(zero) # fffffb40 <__global_pointer$+0x7fffbed8>
    208e:	01000003          	lb	zero,16(zero) # 10 <_start-0x7ffffff0>
    2092:	5e00                	lw	s0,56(a2)
    2094:	03b4                	addi	a3,sp,456
    2096:	0000                	unimp
    2098:	03bc                	addi	a5,sp,456
    209a:	0000                	unimp
    209c:	0001                	nop
    209e:	c45c                	sw	a5,12(s0)
    20a0:	c8000003          	lb	zero,-896(zero) # fffffc80 <__global_pointer$+0x7fffc018>
    20a4:	01000003          	lb	zero,16(zero) # 10 <_start-0x7ffffff0>
    20a8:	5b00                	lw	s0,48(a4)
    20aa:	03d8                	addi	a4,sp,452
    20ac:	0000                	unimp
    20ae:	03f8                	addi	a4,sp,460
    20b0:	0000                	unimp
    20b2:	0001                	nop
    20b4:	f85e                	fsw	fs7,48(sp)
    20b6:	04000003          	lb	zero,64(zero) # 40 <_start-0x7fffffc0>
    20ba:	0004                	0x4
    20bc:	0300                	addi	s0,sp,384
    20be:	0800                	addi	s0,sp,16
    20c0:	9fff                	0x9fff
    20c2:	043c                	addi	a5,sp,520
    20c4:	0000                	unimp
    20c6:	0444                	addi	s1,sp,516
    20c8:	0000                	unimp
    20ca:	0002                	c.slli64	zero
    20cc:	9f30                	0x9f30
    20ce:	0444                	addi	s1,sp,516
    20d0:	0000                	unimp
    20d2:	044c                	addi	a1,sp,516
    20d4:	0000                	unimp
    20d6:	0001                	nop
    20d8:	005e                	c.slli	zero,0x17
    20da:	0000                	unimp
    20dc:	0000                	unimp
    20de:	0000                	unimp
    20e0:	7c00                	flw	fs0,56(s0)
    20e2:	0000                	unimp
    20e4:	8800                	0x8800
    20e6:	0000                	unimp
    20e8:	0100                	addi	s0,sp,128
    20ea:	5f00                	lw	s0,56(a4)
    20ec:	0088                	addi	a0,sp,64
    20ee:	0000                	unimp
    20f0:	008c                	addi	a1,sp,64
    20f2:	0000                	unimp
    20f4:	0009                	c.nop	2
    20f6:	007f                	0x7f
    20f8:	ff11                	bnez	a4,2014 <_start-0x7fffdfec>
    20fa:	ffff                	0xffff
    20fc:	1a5f 8c9f 0000      	0x8c9f1a5f
    2102:	9c00                	0x9c00
    2104:	0000                	unimp
    2106:	1000                	addi	s0,sp,32
    2108:	7f00                	flw	fs0,56(a4)
    210a:	3100                	fld	fs0,32(a0)
    210c:	0c25                	addi	s8,s8,9
    210e:	ffff                	0xffff
    2110:	7dff                	0x7dff
    2112:	7f1a                	flw	ft10,164(sp)
    2114:	3100                	fld	fs0,32(a0)
    2116:	211a                	fld	ft2,384(sp)
    2118:	9c9f 0000 a400      	0xa40000009c9f
    211e:	0000                	unimp
    2120:	0e00                	addi	s0,sp,784
    2122:	7f00                	flw	fs0,56(a4)
    2124:	3100                	fld	fs0,32(a0)
    2126:	0c25                	addi	s8,s8,9
    2128:	ffff                	0xffff
    212a:	7dff                	0x7dff
    212c:	7c1a                	flw	fs8,164(sp)
    212e:	2100                	fld	fs0,0(a0)
    2130:	a49f 0000 a800      	0xa8000000a49f
    2136:	0000                	unimp
    2138:	0c00                	addi	s0,sp,528
    213a:	7f00                	flw	fs0,56(a4)
    213c:	0c00                	addi	s0,sp,528
    213e:	ffff                	0xffff
    2140:	7dff                	0x7dff
    2142:	7c1a                	flw	fs8,164(sp)
    2144:	2100                	fld	fs0,0(a0)
    2146:	189f 0001 1c00      	0x1c000001189f
    214c:	0001                	nop
    214e:	0100                	addi	s0,sp,128
    2150:	5f00                	lw	s0,56(a4)
    2152:	0164                	addi	s1,sp,140
    2154:	0000                	unimp
    2156:	0168                	addi	a0,sp,140
    2158:	0000                	unimp
    215a:	0001                	nop
    215c:	845f 0001 b800      	0xb8000001845f
    2162:	0001                	nop
    2164:	0100                	addi	s0,sp,128
    2166:	5f00                	lw	s0,56(a4)
    2168:	01c4                	addi	s1,sp,196
    216a:	0000                	unimp
    216c:	01d0                	addi	a2,sp,196
    216e:	0000                	unimp
    2170:	0008                	0x8
    2172:	007f                	0x7f
    2174:	007d                	c.nop	31
    2176:	3122                	fld	ft2,40(sp)
    2178:	9f25                	0x9f25
    217a:	01d0                	addi	a2,sp,196
    217c:	0000                	unimp
    217e:	01d4                	addi	a3,sp,196
    2180:	0000                	unimp
    2182:	0005                	c.nop	1
    2184:	007f                	0x7f
    2186:	2531                	jal	2792 <_start-0x7fffd86e>
    2188:	f89f 0001 0c00      	0xc000001f89f
    218e:	0002                	c.slli64	zero
    2190:	0100                	addi	s0,sp,128
    2192:	5f00                	lw	s0,56(a4)
    2194:	020c                	addi	a1,sp,256
    2196:	0000                	unimp
    2198:	0214                	addi	a3,sp,256
    219a:	0000                	unimp
    219c:	0001                	nop
    219e:	4858                	lw	a4,20(s0)
    21a0:	0002                	c.slli64	zero
    21a2:	5000                	lw	s0,32(s0)
    21a4:	0002                	c.slli64	zero
    21a6:	0100                	addi	s0,sp,128
    21a8:	5f00                	lw	s0,56(a4)
    21aa:	0284                	addi	s1,sp,320
    21ac:	0000                	unimp
    21ae:	028c                	addi	a1,sp,320
    21b0:	0000                	unimp
    21b2:	0001                	nop
    21b4:	f05f 0002 f400      	0xf4000002f05f
    21ba:	0002                	c.slli64	zero
    21bc:	0100                	addi	s0,sp,128
    21be:	5d00                	lw	s0,56(a0)
    21c0:	0304                	addi	s1,sp,384
    21c2:	0000                	unimp
    21c4:	0310                	addi	a2,sp,384
    21c6:	0000                	unimp
    21c8:	0001                	nop
    21ca:	105c                	addi	a5,sp,36
    21cc:	18000003          	lb	zero,384(zero) # 180 <_start-0x7ffffe80>
    21d0:	01000003          	lb	zero,16(zero) # 10 <_start-0x7ffffff0>
    21d4:	5f00                	lw	s0,56(a4)
    21d6:	0318                	addi	a4,sp,384
    21d8:	0000                	unimp
    21da:	031c                	addi	a5,sp,384
    21dc:	0000                	unimp
    21de:	0001                	nop
    21e0:	445c                	lw	a5,12(s0)
    21e2:	80000003          	lb	zero,-2048(zero) # fffff800 <__global_pointer$+0x7fffbb98>
    21e6:	01000003          	lb	zero,16(zero) # 10 <_start-0x7ffffff0>
    21ea:	5800                	lw	s0,48(s0)
    21ec:	0388                	addi	a0,sp,448
    21ee:	0000                	unimp
    21f0:	0390                	addi	a2,sp,448
    21f2:	0000                	unimp
    21f4:	0001                	nop
    21f6:	905f 0003 b000      	0xb0000003905f
    21fc:	01000003          	lb	zero,16(zero) # 10 <_start-0x7ffffff0>
    2200:	5800                	lw	s0,48(s0)
    2202:	03b0                	addi	a2,sp,456
    2204:	0000                	unimp
    2206:	03b4                	addi	a3,sp,456
    2208:	0000                	unimp
    220a:	0001                	nop
    220c:	c45f 0003 c800      	0xc8000003c45f
    2212:	08000003          	lb	zero,128(zero) # 80 <_start-0x7fffff80>
    2216:	7f00                	flw	fs0,56(a4)
    2218:	7d00                	flw	fs0,56(a0)
    221a:	2200                	fld	fs0,0(a2)
    221c:	2531                	jal	2828 <_start-0x7fffd7d8>
    221e:	cc9f 0003 d400      	0xd4000003cc9f
    2224:	01000003          	lb	zero,16(zero) # 10 <_start-0x7ffffff0>
    2228:	5f00                	lw	s0,56(a4)
    222a:	03d4                	addi	a3,sp,452
    222c:	0000                	unimp
    222e:	03ec                	addi	a1,sp,460
    2230:	0000                	unimp
    2232:	0009                	c.nop	2
    2234:	007f                	0x7f
    2236:	ff11                	bnez	a4,2152 <_start-0x7fffdeae>
    2238:	ffff                	0xffff
    223a:	1a5f ec9f 0003      	0x3ec9f1a5f
    2240:	0000                	unimp
    2242:	0004                	0x4
    2244:	0100                	addi	s0,sp,128
    2246:	5f00                	lw	s0,56(a4)
    2248:	0404                	addi	s1,sp,512
    224a:	0000                	unimp
    224c:	0418                	addi	a4,sp,512
    224e:	0000                	unimp
    2250:	0001                	nop
    2252:	3c5f 0004 4400      	0x440000043c5f
    2258:	0004                	0x4
    225a:	0100                	addi	s0,sp,128
    225c:	5c00                	lw	s0,56(s0)
    225e:	0444                	addi	s1,sp,516
    2260:	0000                	unimp
    2262:	0448                	addi	a0,sp,516
    2264:	0000                	unimp
    2266:	0009                	c.nop	2
    2268:	007f                	0x7f
    226a:	ff11                	bnez	a4,2186 <_start-0x7fffde7a>
    226c:	ffff                	0xffff
    226e:	1a5f 009f 0000      	0x9f1a5f
    2274:	0000                	unimp
    2276:	0000                	unimp
    2278:	2800                	fld	fs0,16(s0)
    227a:	0004                	0x4
    227c:	3400                	fld	fs0,40(s0)
    227e:	0004                	0x4
    2280:	0800                	addi	s0,sp,16
    2282:	7f00                	flw	fs0,56(a4)
    2284:	7a00                	flw	fs0,48(a2)
    2286:	2100                	fld	fs0,0(a0)
    2288:	25f9                	jal	2956 <_start-0x7fffd6aa>
    228a:	349f 0004 3c00      	0x3c000004349f
    2290:	0004                	0x4
    2292:	0100                	addi	s0,sp,128
    2294:	5a00                	lw	s0,48(a2)
	...
    229e:	0064                	addi	s1,sp,12
    22a0:	0000                	unimp
    22a2:	0074                	addi	a3,sp,12
    22a4:	0000                	unimp
    22a6:	0006                	c.slli	zero,0x1
    22a8:	007c                	addi	a5,sp,12
    22aa:	007e                	c.slli	zero,0x1f
    22ac:	9f1c                	0x9f1c
    22ae:	0074                	addi	a3,sp,12
    22b0:	0000                	unimp
    22b2:	007c                	addi	a5,sp,12
    22b4:	0000                	unimp
    22b6:	0001                	nop
    22b8:	b060                	fsd	fs0,224(s0)
    22ba:	0000                	unimp
    22bc:	b800                	fsd	fs0,48(s0)
    22be:	0000                	unimp
    22c0:	0100                	addi	s0,sp,128
    22c2:	6000                	flw	fs0,0(s0)
    22c4:	00c0                	addi	s0,sp,68
    22c6:	0000                	unimp
    22c8:	00c4                	addi	s1,sp,68
    22ca:	0000                	unimp
    22cc:	0006                	c.slli	zero,0x1
    22ce:	007c                	addi	a5,sp,12
    22d0:	007e                	c.slli	zero,0x1f
    22d2:	9f1c                	0x9f1c
    22d4:	00c4                	addi	s1,sp,68
    22d6:	0000                	unimp
    22d8:	00d0                	addi	a2,sp,68
    22da:	0000                	unimp
    22dc:	0006                	c.slli	zero,0x1
    22de:	007c                	addi	a5,sp,12
    22e0:	0081                	addi	ra,ra,0
    22e2:	9f1c                	0x9f1c
    22e4:	00d0                	addi	a2,sp,68
    22e6:	0000                	unimp
    22e8:	00e8                	addi	a0,sp,76
    22ea:	0000                	unimp
    22ec:	0001                	nop
    22ee:	fc60                	fsw	fs0,124(s0)
    22f0:	0000                	unimp
    22f2:	0400                	addi	s0,sp,512
    22f4:	0001                	nop
    22f6:	0600                	addi	s0,sp,768
    22f8:	7c00                	flw	fs0,56(s0)
    22fa:	7e00                	flw	fs0,56(a2)
    22fc:	1c00                	addi	s0,sp,560
    22fe:	049f 0001 2400      	0x24000001049f
    2304:	0001                	nop
    2306:	0100                	addi	s0,sp,128
    2308:	5b00                	lw	s0,48(a4)
    230a:	012c                	addi	a1,sp,136
    230c:	0000                	unimp
    230e:	0168                	addi	a0,sp,140
    2310:	0000                	unimp
    2312:	0001                	nop
    2314:	0001685b          	0x1685b
    2318:	7000                	flw	fs0,32(s0)
    231a:	0001                	nop
    231c:	0600                	addi	s0,sp,768
    231e:	7c00                	flw	fs0,56(s0)
    2320:	7e00                	flw	fs0,56(a2)
    2322:	1c00                	addi	s0,sp,560
    2324:	709f 0001 9c00      	0x9c000001709f
    232a:	0001                	nop
    232c:	0600                	addi	s0,sp,768
    232e:	7c00                	flw	fs0,56(s0)
    2330:	8100                	0x8100
    2332:	1c00                	addi	s0,sp,560
    2334:	b89f 0001 bc00      	0xbc000001b89f
    233a:	0001                	nop
    233c:	0600                	addi	s0,sp,768
    233e:	7c00                	flw	fs0,56(s0)
    2340:	8100                	0x8100
    2342:	1c00                	addi	s0,sp,560
    2344:	c49f 0001 dc00      	0xdc000001c49f
    234a:	0001                	nop
    234c:	0600                	addi	s0,sp,768
    234e:	7c00                	flw	fs0,56(s0)
    2350:	8100                	0x8100
    2352:	1c00                	addi	s0,sp,560
    2354:	b49f 0003 b800      	0xb8000003b49f
    235a:	06000003          	lb	zero,96(zero) # 60 <_start-0x7fffffa0>
    235e:	7c00                	flw	fs0,56(s0)
    2360:	7e00                	flw	fs0,56(a2)
    2362:	1c00                	addi	s0,sp,560
    2364:	b89f 0003 bc00      	0xbc000003b89f
    236a:	06000003          	lb	zero,96(zero) # 60 <_start-0x7fffffa0>
    236e:	7c00                	flw	fs0,56(s0)
    2370:	8100                	0x8100
    2372:	1c00                	addi	s0,sp,560
    2374:	c49f 0003 c800      	0xc8000003c49f
    237a:	06000003          	lb	zero,96(zero) # 60 <_start-0x7fffffa0>
    237e:	7c00                	flw	fs0,56(s0)
    2380:	8100                	0x8100
    2382:	1c00                	addi	s0,sp,560
    2384:	009f 0000 0000      	0x9f
    238a:	0000                	unimp
    238c:	dc00                	sw	s0,56(s0)
    238e:	0001                	nop
    2390:	e800                	fsw	fs0,16(s0)
    2392:	0001                	nop
    2394:	0600                	addi	s0,sp,768
    2396:	7c00                	flw	fs0,56(s0)
    2398:	7e00                	flw	fs0,56(a2)
    239a:	1c00                	addi	s0,sp,560
    239c:	e89f 0001 f000      	0xf0000001e89f
    23a2:	0001                	nop
    23a4:	0600                	addi	s0,sp,768
    23a6:	7c00                	flw	fs0,56(s0)
    23a8:	8100                	0x8100
    23aa:	1c00                	addi	s0,sp,560
    23ac:	f09f 0001 f800      	0xf8000001f09f
    23b2:	0001                	nop
    23b4:	0100                	addi	s0,sp,128
    23b6:	6000                	flw	fs0,0(s0)
    23b8:	0214                	addi	a3,sp,256
    23ba:	0000                	unimp
    23bc:	0238                	addi	a4,sp,264
    23be:	0000                	unimp
    23c0:	0001                	nop
    23c2:	5060                	lw	s0,100(s0)
    23c4:	0002                	c.slli64	zero
    23c6:	5800                	lw	s0,48(s0)
    23c8:	0002                	c.slli64	zero
    23ca:	0600                	addi	s0,sp,768
    23cc:	7c00                	flw	fs0,56(s0)
    23ce:	7e00                	flw	fs0,56(a2)
    23d0:	1c00                	addi	s0,sp,560
    23d2:	589f 0002 6800      	0x68000002589f
    23d8:	0002                	c.slli64	zero
    23da:	0600                	addi	s0,sp,768
    23dc:	7c00                	flw	fs0,56(s0)
    23de:	8100                	0x8100
    23e0:	1c00                	addi	s0,sp,560
    23e2:	689f 0002 7000      	0x70000002689f
    23e8:	0002                	c.slli64	zero
    23ea:	0600                	addi	s0,sp,768
    23ec:	7c00                	flw	fs0,56(s0)
    23ee:	7e00                	flw	fs0,56(a2)
    23f0:	1c00                	addi	s0,sp,560
    23f2:	709f 0002 9400      	0x94000002709f
    23f8:	0002                	c.slli64	zero
    23fa:	0100                	addi	s0,sp,128
    23fc:	5a00                	lw	s0,48(a2)
    23fe:	02a0                	addi	s0,sp,328
    2400:	0000                	unimp
    2402:	02dc                	addi	a5,sp,324
    2404:	0000                	unimp
    2406:	0001                	nop
    2408:	dc5a                	sw	s6,56(sp)
    240a:	0002                	c.slli64	zero
    240c:	e000                	fsw	fs0,0(s0)
    240e:	0002                	c.slli64	zero
    2410:	0600                	addi	s0,sp,768
    2412:	7c00                	flw	fs0,56(s0)
    2414:	7e00                	flw	fs0,56(a2)
    2416:	1c00                	addi	s0,sp,560
    2418:	e09f 0002 f400      	0xf4000002e09f
    241e:	0002                	c.slli64	zero
    2420:	0600                	addi	s0,sp,768
    2422:	7c00                	flw	fs0,56(s0)
    2424:	8100                	0x8100
    2426:	1c00                	addi	s0,sp,560
    2428:	fc9f 0002 0400      	0x4000002fc9f
    242e:	06000003          	lb	zero,96(zero) # 60 <_start-0x7fffffa0>
    2432:	7c00                	flw	fs0,56(s0)
    2434:	8100                	0x8100
    2436:	1c00                	addi	s0,sp,560
    2438:	049f 0003 1000      	0x10000003049f
    243e:	06000003          	lb	zero,96(zero) # 60 <_start-0x7fffffa0>
    2442:	8200                	0x8200
    2444:	8100                	0x8100
    2446:	1c00                	addi	s0,sp,560
    2448:	189f 0003 2800      	0x28000003189f
    244e:	06000003          	lb	zero,96(zero) # 60 <_start-0x7fffffa0>
    2452:	8200                	0x8200
    2454:	8100                	0x8100
    2456:	1c00                	addi	s0,sp,560
    2458:	289f 0003 3000      	0x30000003289f
    245e:	06000003          	lb	zero,96(zero) # 60 <_start-0x7fffffa0>
    2462:	7c00                	flw	fs0,56(s0)
    2464:	8100                	0x8100
    2466:	1c00                	addi	s0,sp,560
    2468:	409f 0003 5400      	0x54000003409f
    246e:	06000003          	lb	zero,96(zero) # 60 <_start-0x7fffffa0>
    2472:	7c00                	flw	fs0,56(s0)
    2474:	8100                	0x8100
    2476:	1c00                	addi	s0,sp,560
    2478:	909f 0003 a000      	0xa0000003909f
    247e:	06000003          	lb	zero,96(zero) # 60 <_start-0x7fffffa0>
    2482:	7c00                	flw	fs0,56(s0)
    2484:	8100                	0x8100
    2486:	1c00                	addi	s0,sp,560
    2488:	3c9f 0004 4400      	0x440000043c9f
    248e:	0004                	0x4
    2490:	0600                	addi	s0,sp,768
    2492:	8200                	0x8200
    2494:	8100                	0x8100
    2496:	1c00                	addi	s0,sp,560
    2498:	009f 0000 0000      	0x9f
    249e:	0000                	unimp
    24a0:	5c00                	lw	s0,56(s0)
    24a2:	60000003          	lb	zero,1536(zero) # 600 <_start-0x7ffffa00>
    24a6:	01000003          	lb	zero,16(zero) # 10 <_start-0x7ffffff0>
    24aa:	5a00                	lw	s0,48(a2)
    24ac:	0360                	addi	s0,sp,396
    24ae:	0000                	unimp
    24b0:	036c                	addi	a1,sp,396
    24b2:	0000                	unimp
    24b4:	0001                	nop
    24b6:	6c5e                	flw	fs8,212(sp)
    24b8:	70000003          	lb	zero,1792(zero) # 700 <_start-0x7ffff900>
    24bc:	03000003          	lb	zero,48(zero) # 30 <_start-0x7fffffd0>
    24c0:	7a00                	flw	fs0,48(a2)
    24c2:	03709f7b          	0x3709f7b
    24c6:	0000                	unimp
    24c8:	037c                	addi	a5,sp,396
    24ca:	0000                	unimp
    24cc:	0001                	nop
    24ce:	7c5e                	flw	fs8,244(sp)
    24d0:	90000003          	lb	zero,-1792(zero) # fffff900 <__global_pointer$+0x7fffbc98>
    24d4:	08000003          	lb	zero,128(zero) # 80 <_start-0x7fffff80>
    24d8:	7a00                	flw	fs0,48(a2)
    24da:	8200                	0x8200
    24dc:	1c00                	addi	s0,sp,560
    24de:	1c34                	addi	a3,sp,568
    24e0:	a09f 0003 ac00      	0xac000003a09f
    24e6:	01000003          	lb	zero,16(zero) # 10 <_start-0x7ffffff0>
    24ea:	5e00                	lw	s0,56(a2)
    24ec:	03ac                	addi	a1,sp,456
    24ee:	0000                	unimp
    24f0:	03b4                	addi	a3,sp,456
    24f2:	0000                	unimp
    24f4:	7b7a0003          	lb	zero,1975(s4)
    24f8:	009f 0000 0000      	0x9f
    24fe:	0000                	unimp
    2500:	0000                	unimp
    2502:	0000                	unimp
    2504:	1000                	addi	s0,sp,32
    2506:	0000                	unimp
    2508:	0100                	addi	s0,sp,128
    250a:	5a00                	lw	s0,48(a2)
    250c:	0010                	0x10
    250e:	0000                	unimp
    2510:	0044                	addi	s1,sp,4
    2512:	0000                	unimp
    2514:	0006                	c.slli	zero,0x1
    2516:	0af503f3          	0xaf503f3
    251a:	9f25                	0x9f25
	...
    2528:	001c                	0x1c
    252a:	0000                	unimp
    252c:	0001                	nop
    252e:	00001c5b          	0x1c5b
    2532:	4400                	lw	s0,8(s0)
    2534:	0000                	unimp
    2536:	0600                	addi	s0,sp,768
    2538:	f300                	fsw	fs0,32(a4)
    253a:	250bf503          	0x250bf503
    253e:	009f 0000 0000      	0x9f
    2544:	0000                	unimp
    2546:	0c00                	addi	s0,sp,528
    2548:	0000                	unimp
    254a:	3400                	fld	fs0,40(s0)
    254c:	0000                	unimp
    254e:	0100                	addi	s0,sp,128
    2550:	5e00                	lw	s0,56(a2)
	...
    255e:	0024                	addi	s1,sp,8
    2560:	0000                	unimp
    2562:	0001                	nop
    2564:	245a                	fld	fs0,400(sp)
    2566:	0000                	unimp
    2568:	3800                	fld	fs0,48(s0)
    256a:	0000                	unimp
    256c:	0400                	addi	s0,sp,512
    256e:	f300                	fsw	fs0,32(a4)
    2570:	5a01                	li	s4,-32
    2572:	389f 0000 4c00      	0x4c000000389f
    2578:	0000                	unimp
    257a:	0100                	addi	s0,sp,128
    257c:	5a00                	lw	s0,48(a2)
	...
    258a:	0024                	addi	s1,sp,8
    258c:	0000                	unimp
    258e:	0001                	nop
    2590:	245a                	fld	fs0,400(sp)
    2592:	0000                	unimp
    2594:	3800                	fld	fs0,48(s0)
    2596:	0000                	unimp
    2598:	0400                	addi	s0,sp,512
    259a:	f300                	fsw	fs0,32(a4)
    259c:	5a01                	li	s4,-32
    259e:	389f 0000 4c00      	0x4c000000389f
    25a4:	0000                	unimp
    25a6:	0100                	addi	s0,sp,128
    25a8:	5a00                	lw	s0,48(a2)
	...
    25b2:	0014                	0x14
    25b4:	0000                	unimp
    25b6:	0028                	addi	a0,sp,8
    25b8:	0000                	unimp
    25ba:	0001                	nop
    25bc:	005f 0000 0000      	0x5f
    25c2:	0000                	unimp
	...

Disassembly of section .debug_ranges:

00000000 <.debug_ranges>:
	...
   8:	0008                	0x8
   a:	0000                	unimp
   c:	0010                	0x10
   e:	0000                	unimp
  10:	001c                	0x1c
  12:	0000                	unimp
  14:	0020                	addi	s0,sp,8
  16:	0000                	unimp
  18:	0034                	addi	a3,sp,8
  1a:	0000                	unimp
  1c:	0038                	addi	a4,sp,8
  1e:	0000                	unimp
  20:	0064                	addi	s1,sp,12
  22:	0000                	unimp
  24:	0068                	addi	a0,sp,12
  26:	0000                	unimp
  28:	01d8                	addi	a4,sp,196
  2a:	0000                	unimp
  2c:	01dc                	addi	a5,sp,196
  2e:	0000                	unimp
  30:	023c                	addi	a5,sp,264
  32:	0000                	unimp
  34:	0240                	addi	s0,sp,260
  36:	0000                	unimp
  38:	039c                	addi	a5,sp,448
  3a:	0000                	unimp
  3c:	03a4                	addi	s1,sp,456
	...
  46:	0000                	unimp
  48:	0024                	addi	s1,sp,8
  4a:	0000                	unimp
  4c:	002c                	addi	a1,sp,8
  4e:	0000                	unimp
  50:	0038                	addi	a4,sp,8
  52:	0000                	unimp
  54:	003c                	addi	a5,sp,8
  56:	0000                	unimp
  58:	0040                	addi	s0,sp,4
  5a:	0000                	unimp
  5c:	0040                	addi	s0,sp,4
	...
  66:	0000                	unimp
  68:	004c                	addi	a1,sp,4
  6a:	0000                	unimp
  6c:	0064                	addi	s1,sp,12
  6e:	0000                	unimp
  70:	0068                	addi	a0,sp,12
  72:	0000                	unimp
  74:	00a0                	addi	s0,sp,72
  76:	0000                	unimp
  78:	00a8                	addi	a0,sp,72
  7a:	0000                	unimp
  7c:	010c                	addi	a1,sp,128
  7e:	0000                	unimp
  80:	0114                	addi	a3,sp,128
  82:	0000                	unimp
  84:	0184                	addi	s1,sp,192
  86:	0000                	unimp
  88:	01a0                	addi	s0,sp,200
  8a:	0000                	unimp
  8c:	01a4                	addi	s1,sp,200
  8e:	0000                	unimp
  90:	01b8                	addi	a4,sp,200
  92:	0000                	unimp
  94:	01d0                	addi	a2,sp,196
  96:	0000                	unimp
  98:	03ac                	addi	a1,sp,456
  9a:	0000                	unimp
  9c:	03b4                	addi	a3,sp,456
	...
  a6:	0000                	unimp
  a8:	00a0                	addi	s0,sp,72
  aa:	0000                	unimp
  ac:	00a8                	addi	a0,sp,72
  ae:	0000                	unimp
  b0:	0184                	addi	s1,sp,192
  b2:	0000                	unimp
  b4:	0184                	addi	s1,sp,192
  b6:	0000                	unimp
  b8:	01a4                	addi	s1,sp,200
  ba:	0000                	unimp
  bc:	01b8                	addi	a4,sp,200
  be:	0000                	unimp
  c0:	01d0                	addi	a2,sp,196
  c2:	0000                	unimp
  c4:	01d8                	addi	a4,sp,196
  c6:	0000                	unimp
  c8:	01dc                	addi	a5,sp,196
  ca:	0000                	unimp
  cc:	023c                	addi	a5,sp,264
  ce:	0000                	unimp
  d0:	0240                	addi	s0,sp,260
  d2:	0000                	unimp
  d4:	0288                	addi	a0,sp,320
  d6:	0000                	unimp
  d8:	028c                	addi	a1,sp,320
  da:	0000                	unimp
  dc:	039c                	addi	a5,sp,448
	...
  e6:	0000                	unimp
  e8:	01f4                	addi	a3,sp,204
  ea:	0000                	unimp
  ec:	0208                	addi	a0,sp,256
  ee:	0000                	unimp
  f0:	033c                	addi	a5,sp,392
  f2:	0000                	unimp
  f4:	0378                	addi	a4,sp,396
  f6:	0000                	unimp
  f8:	0388                	addi	a0,sp,448
  fa:	0000                	unimp
  fc:	039c                	addi	a5,sp,448
	...
 106:	0000                	unimp
 108:	0184                	addi	s1,sp,192
 10a:	0000                	unimp
 10c:	01a0                	addi	s0,sp,200
 10e:	0000                	unimp
 110:	03b4                	addi	a3,sp,456
 112:	0000                	unimp
 114:	03ec                	addi	a1,sp,460
 116:	0000                	unimp
 118:	0424                	addi	s1,sp,520
 11a:	0000                	unimp
 11c:	042c                	addi	a1,sp,520
	...
 126:	0000                	unimp
 128:	03ec                	addi	a1,sp,460
 12a:	0000                	unimp
 12c:	03ec                	addi	a1,sp,460
 12e:	0000                	unimp
 130:	03f4                	addi	a3,sp,460
 132:	0000                	unimp
 134:	0410                	addi	a2,sp,512
	...
 146:	0000                	unimp
 148:	0018                	0x18
 14a:	0000                	unimp
 14c:	001c                	0x1c
 14e:	0000                	unimp
 150:	0030                	addi	a2,sp,8
 152:	0000                	unimp
 154:	0038                	addi	a4,sp,8
 156:	0000                	unimp
 158:	0274                	addi	a3,sp,268
 15a:	0000                	unimp
 15c:	0278                	addi	a4,sp,268
	...
 166:	0000                	unimp
 168:	0054                	addi	a3,sp,4
 16a:	0000                	unimp
 16c:	0058                	addi	a4,sp,4
 16e:	0000                	unimp
 170:	00c4                	addi	s1,sp,68
 172:	0000                	unimp
 174:	00e0                	addi	s0,sp,76
	...
 17e:	0000                	unimp
 180:	0058                	addi	a4,sp,4
 182:	0000                	unimp
 184:	006c                	addi	a1,sp,12
 186:	0000                	unimp
 188:	02a4                	addi	s1,sp,328
 18a:	0000                	unimp
 18c:	02a8                	addi	a0,sp,328
	...
 196:	0000                	unimp
 198:	0088                	addi	a0,sp,64
 19a:	0000                	unimp
 19c:	008c                	addi	a1,sp,64
 19e:	0000                	unimp
 1a0:	0104                	addi	s1,sp,128
 1a2:	0000                	unimp
 1a4:	0120                	addi	s0,sp,136
	...
 1ae:	0000                	unimp
 1b0:	0140                	addi	s0,sp,132
 1b2:	0000                	unimp
 1b4:	01e0                	addi	s0,sp,204
 1b6:	0000                	unimp
 1b8:	0268                	addi	a0,sp,268
 1ba:	0000                	unimp
 1bc:	0274                	addi	a3,sp,268
	...
 1c6:	0000                	unimp
 1c8:	0150                	addi	a2,sp,132
 1ca:	0000                	unimp
 1cc:	01cc                	addi	a1,sp,196
 1ce:	0000                	unimp
 1d0:	01cc                	addi	a1,sp,196
 1d2:	0000                	unimp
 1d4:	01d0                	addi	a2,sp,196
 1d6:	0000                	unimp
 1d8:	01d4                	addi	a3,sp,196
 1da:	0000                	unimp
 1dc:	01d8                	addi	a4,sp,196
	...
 1e6:	0000                	unimp
 1e8:	02bc                	addi	a5,sp,328
 1ea:	0000                	unimp
 1ec:	0310                	addi	a2,sp,384
 1ee:	0000                	unimp
 1f0:	0320                	addi	s0,sp,392
 1f2:	0000                	unimp
 1f4:	032c                	addi	a1,sp,392
	...
 202:	0000                	unimp
 204:	0014                	0x14
 206:	0000                	unimp
 208:	0018                	0x18
 20a:	0000                	unimp
 20c:	0020                	addi	s0,sp,8
 20e:	0000                	unimp
 210:	0024                	addi	s1,sp,8
 212:	0000                	unimp
 214:	0028                	addi	a0,sp,8
	...
 21e:	0000                	unimp
 220:	0020                	addi	s0,sp,8
 222:	0000                	unimp
 224:	0024                	addi	s1,sp,8
 226:	0000                	unimp
 228:	0028                	addi	a0,sp,8
 22a:	0000                	unimp
 22c:	002c                	addi	a1,sp,8
	...
 236:	0000                	unimp
 238:	0044                	addi	s1,sp,4
 23a:	0000                	unimp
 23c:	0080                	addi	s0,sp,64
 23e:	0000                	unimp
 240:	0084                	addi	s1,sp,64
 242:	0000                	unimp
 244:	0090                	addi	a2,sp,64
 246:	0000                	unimp
 248:	0094                	addi	a3,sp,64
 24a:	0000                	unimp
 24c:	00a4                	addi	s1,sp,72
 24e:	0000                	unimp
 250:	00a8                	addi	a0,sp,72
 252:	0000                	unimp
 254:	00b4                	addi	a3,sp,72
	...
 266:	0000                	unimp
 268:	0018                	0x18
 26a:	0000                	unimp
 26c:	001c                	0x1c
 26e:	0000                	unimp
 270:	0030                	addi	a2,sp,8
 272:	0000                	unimp
 274:	0038                	addi	a4,sp,8
 276:	0000                	unimp
 278:	0214                	addi	a3,sp,256
 27a:	0000                	unimp
 27c:	0218                	addi	a4,sp,256
	...
 286:	0000                	unimp
 288:	0054                	addi	a3,sp,4
 28a:	0000                	unimp
 28c:	0058                	addi	a4,sp,4
 28e:	0000                	unimp
 290:	00c8                	addi	a0,sp,68
 292:	0000                	unimp
 294:	00e4                	addi	s1,sp,76
	...
 29e:	0000                	unimp
 2a0:	0058                	addi	a4,sp,4
 2a2:	0000                	unimp
 2a4:	006c                	addi	a1,sp,12
 2a6:	0000                	unimp
 2a8:	0244                	addi	s1,sp,260
 2aa:	0000                	unimp
 2ac:	0248                	addi	a0,sp,260
	...
 2b6:	0000                	unimp
 2b8:	0088                	addi	a0,sp,64
 2ba:	0000                	unimp
 2bc:	008c                	addi	a1,sp,64
 2be:	0000                	unimp
 2c0:	0108                	addi	a0,sp,128
 2c2:	0000                	unimp
 2c4:	0124                	addi	s1,sp,136
	...
 2ce:	0000                	unimp
 2d0:	0144                	addi	s1,sp,132
 2d2:	0000                	unimp
 2d4:	0190                	addi	a2,sp,192
 2d6:	0000                	unimp
 2d8:	0194                	addi	a3,sp,192
 2da:	0000                	unimp
 2dc:	0198                	addi	a4,sp,192
 2de:	0000                	unimp
 2e0:	01a0                	addi	s0,sp,200
 2e2:	0000                	unimp
 2e4:	01a8                	addi	a0,sp,200
	...
 2ee:	0000                	unimp
 2f0:	0238                	addi	a4,sp,264
 2f2:	0000                	unimp
 2f4:	0244                	addi	s1,sp,260
 2f6:	0000                	unimp
 2f8:	0254                	addi	a3,sp,260
 2fa:	0000                	unimp
 2fc:	02a8                	addi	a0,sp,328
	...
 30a:	0000                	unimp
 30c:	0004                	0x4
 30e:	0000                	unimp
 310:	0008                	0x8
 312:	0000                	unimp
 314:	0018                	0x18
 316:	0000                	unimp
 318:	0028                	addi	a0,sp,8
 31a:	0000                	unimp
 31c:	0030                	addi	a2,sp,8
 31e:	0000                	unimp
 320:	003c                	addi	a5,sp,8
 322:	0000                	unimp
 324:	0040                	addi	s0,sp,4
 326:	0000                	unimp
 328:	007c                	addi	a5,sp,12
 32a:	0000                	unimp
 32c:	0080                	addi	s0,sp,64
 32e:	0000                	unimp
 330:	01e4                	addi	s1,sp,204
 332:	0000                	unimp
 334:	01e8                	addi	a0,sp,204
 336:	0000                	unimp
 338:	0248                	addi	a0,sp,260
 33a:	0000                	unimp
 33c:	024c                	addi	a1,sp,260
 33e:	0000                	unimp
 340:	03b4                	addi	a3,sp,456
 342:	0000                	unimp
 344:	03bc                	addi	a5,sp,456
	...
 34e:	0000                	unimp
 350:	001c                	0x1c
 352:	0000                	unimp
 354:	0020                	addi	s0,sp,8
 356:	0000                	unimp
 358:	0044                	addi	s1,sp,4
 35a:	0000                	unimp
 35c:	004c                	addi	a1,sp,4
	...
 366:	0000                	unimp
 368:	0064                	addi	s1,sp,12
 36a:	0000                	unimp
 36c:	007c                	addi	a5,sp,12
 36e:	0000                	unimp
 370:	0080                	addi	s0,sp,64
 372:	0000                	unimp
 374:	00b8                	addi	a4,sp,72
 376:	0000                	unimp
 378:	00c0                	addi	s0,sp,68
 37a:	0000                	unimp
 37c:	0124                	addi	s1,sp,136
 37e:	0000                	unimp
 380:	012c                	addi	a1,sp,136
 382:	0000                	unimp
 384:	019c                	addi	a5,sp,192
 386:	0000                	unimp
 388:	01b8                	addi	a4,sp,200
 38a:	0000                	unimp
 38c:	01bc                	addi	a5,sp,200
 38e:	0000                	unimp
 390:	01c4                	addi	s1,sp,196
 392:	0000                	unimp
 394:	01dc                	addi	a5,sp,196
 396:	0000                	unimp
 398:	03c4                	addi	s1,sp,452
 39a:	0000                	unimp
 39c:	03cc                	addi	a1,sp,452
	...
 3a6:	0000                	unimp
 3a8:	00b8                	addi	a4,sp,72
 3aa:	0000                	unimp
 3ac:	00c0                	addi	s0,sp,68
 3ae:	0000                	unimp
 3b0:	019c                	addi	a5,sp,192
 3b2:	0000                	unimp
 3b4:	019c                	addi	a5,sp,192
 3b6:	0000                	unimp
 3b8:	01bc                	addi	a5,sp,200
 3ba:	0000                	unimp
 3bc:	01c4                	addi	s1,sp,196
 3be:	0000                	unimp
 3c0:	01dc                	addi	a5,sp,196
 3c2:	0000                	unimp
 3c4:	01e4                	addi	s1,sp,204
 3c6:	0000                	unimp
 3c8:	01e8                	addi	a0,sp,204
 3ca:	0000                	unimp
 3cc:	0248                	addi	a0,sp,260
 3ce:	0000                	unimp
 3d0:	024c                	addi	a1,sp,260
 3d2:	0000                	unimp
 3d4:	0294                	addi	a3,sp,320
 3d6:	0000                	unimp
 3d8:	0298                	addi	a4,sp,320
 3da:	0000                	unimp
 3dc:	02f4                	addi	a3,sp,332
 3de:	0000                	unimp
 3e0:	02fc                	addi	a5,sp,332
 3e2:	0000                	unimp
 3e4:	03b4                	addi	a3,sp,456
 3e6:	0000                	unimp
 3e8:	043c                	addi	a5,sp,520
 3ea:	0000                	unimp
 3ec:	0444                	addi	s1,sp,516
	...
 3f6:	0000                	unimp
 3f8:	0200                	addi	s0,sp,256
 3fa:	0000                	unimp
 3fc:	0214                	addi	a3,sp,256
 3fe:	0000                	unimp
 400:	0354                	addi	a3,sp,388
 402:	0000                	unimp
 404:	0390                	addi	a2,sp,448
 406:	0000                	unimp
 408:	03a0                	addi	s0,sp,456
 40a:	0000                	unimp
 40c:	03b4                	addi	a3,sp,456
	...
 416:	0000                	unimp
 418:	019c                	addi	a5,sp,192
 41a:	0000                	unimp
 41c:	01b8                	addi	a4,sp,200
 41e:	0000                	unimp
 420:	03cc                	addi	a1,sp,452
 422:	0000                	unimp
 424:	0404                	addi	s1,sp,512
 426:	0000                	unimp
 428:	0444                	addi	s1,sp,516
 42a:	0000                	unimp
 42c:	044c                	addi	a1,sp,516
	...
 436:	0000                	unimp
 438:	0404                	addi	s1,sp,512
 43a:	0000                	unimp
 43c:	0404                	addi	s1,sp,512
 43e:	0000                	unimp
 440:	040c                	addi	a1,sp,512
 442:	0000                	unimp
 444:	0428                	addi	a0,sp,520
	...
 44e:	0000                	unimp
 450:	000c                	0xc
 452:	0000                	unimp
 454:	000c                	0xc
 456:	0000                	unimp
 458:	0010                	0x10
 45a:	0000                	unimp
 45c:	0014                	0x14
 45e:	0000                	unimp
 460:	0024                	addi	s1,sp,8
 462:	0000                	unimp
 464:	0024                	addi	s1,sp,8
	...
 472:	0000                	unimp
 474:	0014                	0x14
 476:	0000                	unimp
 478:	0014                	0x14
 47a:	0000                	unimp
 47c:	0030                	addi	a2,sp,8
 47e:	0000                	unimp
 480:	0038                	addi	a4,sp,8
 482:	0000                	unimp
 484:	004c                	addi	a1,sp,4
	...
