
/tmp/pocl_vortex_kernel_ZOVlwB.elf:	file format elf32-littleriscv

Disassembly of section .init:

80000000 <_start>:
80000000: f3 22 10 fc  	csrr	t0, nw
80000004: 17 13 00 00  	auipc	t1, 1
80000008: 13 03 43 8d  	addi	t1, t1, -1836
8000000c: 0b 90 62 00  	vx_wspawn	t0, t1
80000010: 93 02 f0 ff  	li	t0, -1
80000014: 0b 80 02 00  	vx_tmc	t0
80000018: ef 00 d0 08  	jal	0x800008a4 <init_regs>
8000001c: 93 02 10 00  	li	t0, 1
80000020: 0b 80 02 00  	vx_tmc	t0
80000024: ef 00 d0 0d  	jal	0x80000900 <vx_wspawn_wait>
80000028: f3 22 10 fc  	csrr	t0, nw
8000002c: 17 13 00 00  	auipc	t1, 1
80000030: 13 03 03 8c  	addi	t1, t1, -1856
80000034: 0b 90 62 00  	vx_wspawn	t0, t1
80000038: 93 02 f0 ff  	li	t0, -1
8000003c: 0b 80 02 00  	vx_tmc	t0
80000040: ef 00 10 0d  	jal	0x80000910 <__init_tls>
80000044: 93 02 10 00  	li	t0, 1
80000048: 0b 80 02 00  	vx_tmc	t0
8000004c: ef 00 50 0b  	jal	0x80000900 <vx_wspawn_wait>
80000050: 17 45 00 00  	auipc	a0, 4
80000054: 13 05 c5 f7  	addi	a0, a0, -132
80000058: 17 56 00 00  	auipc	a2, 5
8000005c: 13 06 46 f7  	addi	a2, a2, -140
80000060: 33 06 a6 40  	sub	a2, a2, a0
80000064: 93 05 00 00  	li	a1, 0
80000068: ef 20 c0 2e  	jal	0x80002354 <memset>
8000006c: 17 15 00 00  	auipc	a0, 1
80000070: 13 05 c5 97  	addi	a0, a0, -1668
80000074: ef 20 80 12  	jal	0x8000219c <atexit>
80000078: ef 00 d0 0d  	jal	0x80000954 <__libc_init_array>
8000007c: ef 00 40 05  	jal	0x800000d0 <main>
80000080: 6f 00 40 00  	j	0x80000084 <exit>

Disassembly of section .text:

80000084 <exit>:
80000084: 13 01 01 ff  	addi	sp, sp, -16
80000088: 93 05 00 00  	li	a1, 0
8000008c: 23 24 81 00  	sw	s0, 8(sp)
80000090: 23 26 11 00  	sw	ra, 12(sp)
80000094: 13 04 05 00  	mv	s0, a0
80000098: ef 20 40 43  	jal	0x800024cc <__call_exitprocs>
8000009c: 17 45 00 00  	auipc	a0, 4
800000a0: 03 25 c5 f2  	lw	a0, -212(a0)
800000a4: 83 27 c5 03  	lw	a5, 60(a0)
800000a8: 63 84 07 00  	beqz	a5, 0x800000b0 <exit+0x2c>
800000ac: e7 80 07 00  	jalr	a5
800000b0: 13 05 04 00  	mv	a0, s0
800000b4: ef 00 00 7e  	jal	0x80000894 <_exit>

800000b8 <register_fini>:
800000b8: 93 07 00 00  	li	a5, 0
800000bc: 63 88 07 00  	beqz	a5, 0x800000cc <register_fini+0x14>
800000c0: 17 15 00 00  	auipc	a0, 1
800000c4: 13 05 85 92  	addi	a0, a0, -1752
800000c8: 6f 20 40 0d  	j	0x8000219c <atexit>
800000cc: 67 80 00 00  	ret

800000d0 <main>:
800000d0: 13 01 01 ff  	addi	sp, sp, -16
800000d4: 23 26 11 00  	sw	ra, 12(sp)
800000d8: 37 05 00 80  	lui	a0, 524288
800000dc: 93 05 45 14  	addi	a1, a0, 324
800000e0: 37 05 ff 7f  	lui	a0, 524272
800000e4: 13 06 45 03  	addi	a2, a0, 52
800000e8: ef 00 10 36  	jal	0x80000c48 <vx_spawn_kernel>
800000ec: 13 05 00 00  	li	a0, 0
800000f0: 83 20 c1 00  	lw	ra, 12(sp)
800000f4: 13 01 01 01  	addi	sp, sp, 16
800000f8: 67 80 00 00  	ret

800000fc <_Z7_cl_cosf>:
800000fc: 13 01 01 ff  	addi	sp, sp, -16
80000100: 23 26 11 00  	sw	ra, 12(sp)
80000104: 23 24 81 00  	sw	s0, 8(sp)
80000108: 13 04 01 01  	addi	s0, sp, 16
8000010c: 83 20 c1 00  	lw	ra, 12(sp)
80000110: 03 24 81 00  	lw	s0, 8(sp)
80000114: 13 01 01 01  	addi	sp, sp, 16
80000118: 17 13 00 00  	auipc	t1, 1
8000011c: 67 00 03 f4  	jr	-192(t1)

80000120 <_Z7_cl_sinf>:
80000120: 13 01 01 ff  	addi	sp, sp, -16
80000124: 23 26 11 00  	sw	ra, 12(sp)
80000128: 23 24 81 00  	sw	s0, 8(sp)
8000012c: 13 04 01 01  	addi	s0, sp, 16
80000130: 83 20 c1 00  	lw	ra, 12(sp)
80000134: 03 24 81 00  	lw	s0, 8(sp)
80000138: 13 01 01 01  	addi	sp, sp, 16
8000013c: 17 13 00 00  	auipc	t1, 1
80000140: 67 00 c3 fb  	jr	-68(t1)

80000144 <_pocl_kernel_fft_radix4_workgroup>:
80000144: 13 01 01 f0  	addi	sp, sp, -256
80000148: 23 2e 11 0e  	sw	ra, 252(sp)
8000014c: 23 2c 81 0e  	sw	s0, 248(sp)
80000150: 23 2a 91 0e  	sw	s1, 244(sp)
80000154: 23 28 21 0f  	sw	s2, 240(sp)
80000158: 23 26 31 0f  	sw	s3, 236(sp)
8000015c: 23 24 41 0f  	sw	s4, 232(sp)
80000160: 23 22 51 0f  	sw	s5, 228(sp)
80000164: 23 20 61 0f  	sw	s6, 224(sp)
80000168: 23 2e 71 0d  	sw	s7, 220(sp)
8000016c: 23 2c 81 0d  	sw	s8, 216(sp)
80000170: 23 2a 91 0d  	sw	s9, 212(sp)
80000174: 23 28 a1 0d  	sw	s10, 208(sp)
80000178: 23 26 b1 0d  	sw	s11, 204(sp)
8000017c: 27 24 81 0c  	fsw	fs0, 200(sp)
80000180: 27 22 91 0c  	fsw	fs1, 196(sp)
80000184: 27 20 21 0d  	fsw	fs2, 192(sp)
80000188: 27 2e 31 0b  	fsw	fs3, 188(sp)
8000018c: 13 04 01 10  	addi	s0, sp, 256
80000190: 13 71 01 f8  	andi	sp, sp, -128
80000194: 93 04 01 00  	mv	s1, sp
80000198: 83 26 05 00  	lw	a3, 0(a0)
8000019c: 03 27 45 00  	lw	a4, 4(a0)
800001a0: 83 27 85 00  	lw	a5, 8(a0)
800001a4: 83 a8 85 01  	lw	a7, 24(a1)
800001a8: 83 a2 c5 01  	lw	t0, 28(a1)
800001ac: 03 ab 05 02  	lw	s6, 32(a1)
800001b0: 83 25 c5 00  	lw	a1, 12(a0)
800001b4: 03 25 05 01  	lw	a0, 16(a0)
800001b8: 33 88 12 03  	mul	a6, t0, a7
800001bc: 23 a2 04 07  	sw	a6, 100(s1)
800001c0: 33 08 68 03  	mul	a6, a6, s6
800001c4: 23 ae 04 03  	sw	a6, 60(s1)
800001c8: 13 18 28 00  	slli	a6, a6, 2
800001cc: 13 08 f8 00  	addi	a6, a6, 15
800001d0: 13 78 08 ff  	andi	a6, a6, -16
800001d4: 23 a2 04 05  	sw	a6, 68(s1)
800001d8: 33 08 01 41  	sub	a6, sp, a6
800001dc: 13 7d 08 f8  	andi	s10, a6, -128
800001e0: 13 01 0d 00  	mv	sp, s10
800001e4: 13 b8 18 00  	seqz	a6, a7
800001e8: 0b 28 08 00  	vx_split	a6, a6
800001ec: 93 8b 08 00  	mv	s7, a7
800001f0: 63 94 08 00  	bnez	a7, 0x800001f8 <_pocl_kernel_fft_radix4_workgroup+0xb4>
800001f4: 93 0b 10 00  	li	s7, 1
800001f8: 83 a3 06 00  	lw	t2, 0(a3)
800001fc: 83 26 07 00  	lw	a3, 0(a4)
80000200: 23 a8 d4 04  	sw	a3, 80(s1)
80000204: 83 ac 07 00  	lw	s9, 0(a5)
80000208: 83 a0 05 00  	lw	ra, 0(a1)
8000020c: 83 25 05 00  	lw	a1, 0(a0)
80000210: b3 8a c8 02  	mul	s5, a7, a2
80000214: 0b 30 08 00  	vx_join	a6
80000218: 13 b5 12 00  	seqz	a0, t0
8000021c: 0b 25 05 00  	vx_split	a0, a0
80000220: 63 94 02 00  	bnez	t0, 0x80000228 <_pocl_kernel_fft_radix4_workgroup+0xe4>
80000224: 93 02 10 00  	li	t0, 1
80000228: 0b 30 05 00  	vx_join	a0
8000022c: 13 35 1b 00  	seqz	a0, s6
80000230: 0b 25 05 00  	vx_split	a0, a0
80000234: 63 14 0b 00  	bnez	s6, 0x8000023c <_pocl_kernel_fft_radix4_workgroup+0xf8>
80000238: 13 0b 10 00  	li	s6, 1
8000023c: 23 a0 74 04  	sw	t2, 64(s1)
80000240: 23 ac b4 06  	sw	a1, 120(s1)
80000244: 23 a6 54 06  	sw	t0, 108(s1)
80000248: 0b 30 05 00  	vx_join	a0
8000024c: 93 05 00 00  	li	a1, 0
80000250: 03 a5 44 06  	lw	a0, 100(s1)
80000254: 13 15 25 00  	slli	a0, a0, 2
80000258: 23 a4 a4 06  	sw	a0, 104(s1)
8000025c: 37 25 00 80  	lui	a0, 524290
80000260: 07 29 c5 63  	flw	fs2, 1596(a0)
80000264: 37 25 00 80  	lui	a0, 524290
80000268: 87 29 05 64  	flw	fs3, 1600(a0)
8000026c: 23 a4 14 05  	sw	a7, 72(s1)
80000270: 93 98 28 00  	slli	a7, a7, 2
80000274: 23 ae 14 07  	sw	a7, 124(s1)
80000278: 73 25 40 cc  	csrr	a0, tmask
8000027c: 23 a6 a4 04  	sw	a0, 76(s1)
80000280: 13 09 30 00  	li	s2, 3
80000284: 23 aa a4 05  	sw	s10, 84(s1)
80000288: 23 a0 64 07  	sw	s6, 96(s1)
8000028c: 6f 00 00 03  	j	0x800002bc <_pocl_kernel_fft_radix4_workgroup+0x178>
80000290: 83 a5 c4 05  	lw	a1, 92(s1)
80000294: 93 85 15 00  	addi	a1, a1, 1
80000298: 03 a5 84 06  	lw	a0, 104(s1)
8000029c: 03 ad 84 05  	lw	s10, 88(s1)
800002a0: 33 0d ad 00  	add	s10, s10, a0
800002a4: 03 ab 04 06  	lw	s6, 96(s1)
800002a8: 33 c5 65 01  	xor	a0, a1, s6
800002ac: 33 35 a0 00  	snez	a0, a0
800002b0: 03 a6 c4 04  	lw	a2, 76(s1)
800002b4: 0b 50 c5 00  	vx_pred	a0, a2
800002b8: 63 8a 65 0b  	beq	a1, s6, 0x8000036c <_pocl_kernel_fft_radix4_workgroup+0x228>
800002bc: 23 ae b4 04  	sw	a1, 92(s1)
800002c0: 13 0c 00 00  	li	s8, 0
800002c4: 73 25 40 cc  	csrr	a0, tmask
800002c8: 23 a8 a4 06  	sw	a0, 112(s1)
800002cc: 23 ac a4 05  	sw	s10, 88(s1)
800002d0: 6f 00 c0 02  	j	0x800002fc <_pocl_kernel_fft_radix4_workgroup+0x1b8>
800002d4: 13 0c 1c 00  	addi	s8, s8, 1
800002d8: 03 a5 c4 07  	lw	a0, 124(s1)
800002dc: 03 ad 44 07  	lw	s10, 116(s1)
800002e0: 33 0d ad 00  	add	s10, s10, a0
800002e4: 83 a5 c4 06  	lw	a1, 108(s1)
800002e8: 33 45 bc 00  	xor	a0, s8, a1
800002ec: 33 35 a0 00  	snez	a0, a0
800002f0: 03 a6 04 07  	lw	a2, 112(s1)
800002f4: 0b 50 c5 00  	vx_pred	a0, a2
800002f8: e3 0c bc f8  	beq	s8, a1, 0x80000290 <_pocl_kernel_fft_radix4_workgroup+0x14c>
800002fc: 13 0a 00 00  	li	s4, 0
80000300: f3 29 40 cc  	csrr	s3, tmask
80000304: 23 aa a4 07  	sw	s10, 116(s1)
80000308: 03 ab 84 07  	lw	s6, 120(s1)
8000030c: 6f 00 00 02  	j	0x8000032c <_pocl_kernel_fft_radix4_workgroup+0x1e8>
80000310: 13 0a 1a 00  	addi	s4, s4, 1
80000314: 13 0b 8b 00  	addi	s6, s6, 8
80000318: 13 0d 4d 00  	addi	s10, s10, 4
8000031c: 33 c5 4b 01  	xor	a0, s7, s4
80000320: 33 35 a0 00  	snez	a0, a0
80000324: 0b 50 35 01  	vx_pred	a0, s3
80000328: e3 86 4b fb  	beq	s7, s4, 0x800002d4 <_pocl_kernel_fft_radix4_workgroup+0x190>
8000032c: 33 85 4a 01  	add	a0, s5, s4
80000330: 23 20 ad 00  	sw	a0, 0(s10)
80000334: e3 4e 49 fd  	blt	s2, s4, 0x80000310 <_pocl_kernel_fft_radix4_workgroup+0x1cc>
80000338: 53 70 0a d0  	fcvt.s.w	ft0, s4
8000033c: 53 70 20 11  	fmul.s	ft0, ft0, fs2
80000340: 53 74 30 11  	fmul.s	fs0, ft0, fs3
80000344: 53 05 84 20  	fmv.s	fa0, fs0
80000348: 93 8d 00 00  	mv	s11, ra
8000034c: ef f0 1f db  	jal	0x800000fc <_Z7_cl_cosf>
80000350: d3 04 a5 20  	fmv.s	fs1, fa0
80000354: 53 05 84 20  	fmv.s	fa0, fs0
80000358: ef f0 9f dc  	jal	0x80000120 <_Z7_cl_sinf>
8000035c: 93 80 0d 00  	mv	ra, s11
80000360: 27 22 ab 00  	fsw	fa0, 4(s6)
80000364: 27 20 9b 00  	fsw	fs1, 0(s6)
80000368: 6f f0 9f fa  	j	0x80000310 <_pocl_kernel_fft_radix4_workgroup+0x1cc>
8000036c: 03 a5 c4 03  	lw	a0, 60(s1)
80000370: 13 05 f5 00  	addi	a0, a0, 15
80000374: 13 75 05 ff  	andi	a0, a0, -16
80000378: 33 05 a1 40  	sub	a0, sp, a0
8000037c: 13 75 05 f8  	andi	a0, a0, -128
80000380: 13 01 05 00  	mv	sp, a0
80000384: 93 05 00 00  	li	a1, 0
80000388: 73 26 40 cc  	csrr	a2, tmask
8000038c: 83 a6 44 05  	lw	a3, 84(s1)
80000390: 13 07 05 00  	mv	a4, a0
80000394: 03 ad 84 04  	lw	s10, 72(s1)
80000398: 83 ad c4 06  	lw	s11, 108(s1)
8000039c: 83 a9 04 04  	lw	s3, 64(s1)
800003a0: 6f 00 80 02  	j	0x800003c8 <_pocl_kernel_fft_radix4_workgroup+0x284>
800003a4: 93 85 15 00  	addi	a1, a1, 1
800003a8: 83 a7 44 06  	lw	a5, 100(s1)
800003ac: 33 07 f7 00  	add	a4, a4, a5
800003b0: 83 a7 84 06  	lw	a5, 104(s1)
800003b4: b3 86 f6 00  	add	a3, a3, a5
800003b8: b3 c7 65 01  	xor	a5, a1, s6
800003bc: b3 37 f0 00  	snez	a5, a5
800003c0: 0b d0 c7 00  	vx_pred	a5, a2
800003c4: 63 80 65 0b  	beq	a1, s6, 0x80000464 <_pocl_kernel_fft_radix4_workgroup+0x320>
800003c8: 93 07 00 00  	li	a5, 0
800003cc: 73 28 40 cc  	csrr	a6, tmask
800003d0: 93 88 06 00  	mv	a7, a3
800003d4: 93 02 07 00  	mv	t0, a4
800003d8: 6f 00 40 02  	j	0x800003fc <_pocl_kernel_fft_radix4_workgroup+0x2b8>
800003dc: 93 87 17 00  	addi	a5, a5, 1
800003e0: b3 82 a2 01  	add	t0, t0, s10
800003e4: 03 a3 c4 07  	lw	t1, 124(s1)
800003e8: b3 88 68 00  	add	a7, a7, t1
800003ec: 33 c3 b7 01  	xor	t1, a5, s11
800003f0: 33 33 60 00  	snez	t1, t1
800003f4: 0b 50 03 01  	vx_pred	t1, a6
800003f8: e3 86 b7 fb  	beq	a5, s11, 0x800003a4 <_pocl_kernel_fft_radix4_workgroup+0x260>
800003fc: 73 23 40 cc  	csrr	t1, tmask
80000400: 93 83 08 00  	mv	t2, a7
80000404: 13 8e 02 00  	mv	t3, t0
80000408: 93 8e 00 00  	mv	t4, ra
8000040c: 13 8f 0b 00  	mv	t5, s7
80000410: 6f 00 40 02  	j	0x80000434 <_pocl_kernel_fft_radix4_workgroup+0x2f0>
80000414: 0b b0 0f 00  	vx_join	t6
80000418: 13 0f ff ff  	addi	t5, t5, -1
8000041c: 93 8e 8e 00  	addi	t4, t4, 8
80000420: 13 0e 1e 00  	addi	t3, t3, 1
80000424: 93 83 43 00  	addi	t2, t2, 4
80000428: b3 3f e0 01  	snez	t6, t5
8000042c: 0b d0 6f 00  	vx_pred	t6, t1
80000430: e3 06 0f fa  	beqz	t5, 0x800003dc <_pocl_kernel_fft_radix4_workgroup+0x298>
80000434: 03 a9 03 00  	lw	s2, 0(t2)
80000438: b3 3f 99 01  	sltu	t6, s2, s9
8000043c: 23 00 fe 01  	sb	t6, 0(t3)
80000440: 8b af 0f 00  	vx_split	t6, t6
80000444: e3 78 99 fd  	bgeu	s2, s9, 0x80000414 <_pocl_kernel_fft_radix4_workgroup+0x2d0>
80000448: 13 19 39 00  	slli	s2, s2, 3
8000044c: 33 89 29 01  	add	s2, s3, s2
80000450: 07 20 49 00  	flw	ft0, 4(s2)
80000454: 87 20 09 00  	flw	ft1, 0(s2)
80000458: 27 a2 0e 00  	fsw	ft0, 4(t4)
8000045c: 27 a0 1e 00  	fsw	ft1, 0(t4)
80000460: 6f f0 5f fb  	j	0x80000414 <_pocl_kernel_fft_radix4_workgroup+0x2d0>
80000464: 83 a6 44 04  	lw	a3, 68(s1)
80000468: b3 05 d1 40  	sub	a1, sp, a3
8000046c: 13 f6 05 f8  	andi	a2, a1, -128
80000470: 13 01 06 00  	mv	sp, a2
80000474: b3 05 d1 40  	sub	a1, sp, a3
80000478: 93 f5 05 f8  	andi	a1, a1, -128
8000047c: 13 81 05 00  	mv	sp, a1
80000480: 93 06 00 00  	li	a3, 0
80000484: 73 27 40 cc  	csrr	a4, tmask
80000488: 93 07 10 00  	li	a5, 1
8000048c: 13 88 05 00  	mv	a6, a1
80000490: 93 08 06 00  	mv	a7, a2
80000494: 83 ac 84 06  	lw	s9, 104(s1)
80000498: 93 02 00 00  	li	t0, 0
8000049c: 73 23 40 cc  	csrr	t1, tmask
800004a0: 93 03 08 00  	mv	t2, a6
800004a4: 13 8e 08 00  	mv	t3, a7
800004a8: f3 2e 40 cc  	csrr	t4, tmask
800004ac: 13 8f 00 00  	mv	t5, ra
800004b0: 93 8f 03 00  	mv	t6, t2
800004b4: 13 09 0e 00  	mv	s2, t3
800004b8: 93 89 0b 00  	mv	s3, s7
800004bc: 23 a0 ef 01  	sw	t5, 0(t6)
800004c0: 23 20 f9 00  	sw	a5, 0(s2)
800004c4: 93 89 f9 ff  	addi	s3, s3, -1
800004c8: 13 09 49 00  	addi	s2, s2, 4
800004cc: 93 8f 4f 00  	addi	t6, t6, 4
800004d0: 13 0f 8f 00  	addi	t5, t5, 8
800004d4: 33 3a 30 01  	snez	s4, s3
800004d8: 0b 50 da 01  	vx_pred	s4, t4
800004dc: e3 90 09 fe  	bnez	s3, 0x800004bc <_pocl_kernel_fft_radix4_workgroup+0x378>
800004e0: 93 82 12 00  	addi	t0, t0, 1
800004e4: 83 ae c4 07  	lw	t4, 124(s1)
800004e8: 33 0e de 01  	add	t3, t3, t4
800004ec: b3 83 d3 01  	add	t2, t2, t4
800004f0: b3 ce b2 01  	xor	t4, t0, s11
800004f4: b3 3e d0 01  	snez	t4, t4
800004f8: 0b d0 6e 00  	vx_pred	t4, t1
800004fc: e3 96 b2 fb  	bne	t0, s11, 0x800004a8 <_pocl_kernel_fft_radix4_workgroup+0x364>
80000500: 93 86 16 00  	addi	a3, a3, 1
80000504: b3 88 98 01  	add	a7, a7, s9
80000508: 33 08 98 01  	add	a6, a6, s9
8000050c: b3 c2 66 01  	xor	t0, a3, s6
80000510: b3 32 50 00  	snez	t0, t0
80000514: 0b d0 e2 00  	vx_pred	t0, a4
80000518: e3 90 66 f9  	bne	a3, s6, 0x80000498 <_pocl_kernel_fft_radix4_workgroup+0x354>
8000051c: 93 08 00 00  	li	a7, 0
80000520: f3 26 40 cc  	csrr	a3, tmask
80000524: 23 aa d4 06  	sw	a3, 116(s1)
80000528: 13 07 00 01  	li	a4, 16
8000052c: 93 07 80 01  	li	a5, 24
80000530: 53 00 00 f0  	fmv.w.x	ft0, zero
80000534: 6f 00 c0 01  	j	0x80000550 <_pocl_kernel_fft_radix4_workgroup+0x40c>
80000538: 0b b0 02 00  	vx_join	t0
8000053c: 83 ac 84 06  	lw	s9, 104(s1)
80000540: 93 42 18 00  	xori	t0, a6, 1
80000544: 83 a6 44 07  	lw	a3, 116(s1)
80000548: 0b d0 d2 00  	vx_pred	t0, a3
8000054c: 63 10 08 22  	bnez	a6, 0x8000076c <_pocl_kernel_fft_radix4_workgroup+0x628>
80000550: 13 03 00 00  	li	t1, 0
80000554: 33 8e 1c 03  	mul	t3, s9, a7
80000558: b3 83 c5 01  	add	t2, a1, t3
8000055c: 33 0e c6 01  	add	t3, a2, t3
80000560: f3 2e 40 cc  	csrr	t4, tmask
80000564: 13 0f 00 00  	li	t5, 0
80000568: f3 2f 40 cc  	csrr	t6, tmask
8000056c: 93 0a 0e 00  	mv	s5, t3
80000570: 13 8b 03 00  	mv	s6, t2
80000574: 93 8c 00 00  	mv	s9, ra
80000578: 83 a6 84 07  	lw	a3, 120(s1)
8000057c: 03 a8 0a 00  	lw	a6, 0(s5)
80000580: b3 52 0f 03  	divu	t0, t5, a6
80000584: 13 f9 32 00  	andi	s2, t0, 3
80000588: 93 12 28 00  	slli	t0, a6, 2
8000058c: 93 f9 c2 0f  	andi	s3, t0, 252
80000590: b3 59 37 03  	divu	s3, a4, s3
80000594: 33 09 39 03  	mul	s2, s2, s3
80000598: 13 19 39 00  	slli	s2, s2, 3
8000059c: 83 29 0b 00  	lw	s3, 0(s6)
800005a0: 33 89 26 01  	add	s2, a3, s2
800005a4: 87 20 49 00  	flw	ft1, 4(s2)
800005a8: 07 21 09 00  	flw	ft2, 0(s2)
800005ac: 87 a1 49 00  	flw	ft3, 4(s3)
800005b0: 07 a2 09 00  	flw	ft4, 0(s3)
800005b4: 33 09 0f 01  	add	s2, t5, a6
800005b8: 13 19 39 00  	slli	s2, s2, 3
800005bc: 33 89 20 01  	add	s2, ra, s2
800005c0: 87 22 49 00  	flw	ft5, 4(s2)
800005c4: 07 23 09 00  	flw	ft6, 0(s2)
800005c8: 13 1a 48 00  	slli	s4, a6, 4
800005cc: 33 8a 4c 01  	add	s4, s9, s4
800005d0: 87 23 4a 00  	flw	ft7, 4(s4)
800005d4: 07 25 0a 00  	flw	fa0, 0(s4)
800005d8: 33 0c f8 02  	mul	s8, a6, a5
800005dc: 33 8c 8c 01  	add	s8, s9, s8
800005e0: 87 25 4c 00  	flw	fa1, 4(s8)
800005e4: 07 26 0c 00  	flw	fa2, 0(s8)
800005e8: 53 73 61 10  	fmul.s	ft6, ft2, ft6
800005ec: d3 f2 50 10  	fmul.s	ft5, ft1, ft5
800005f0: d3 76 21 10  	fmul.s	fa3, ft2, ft2
800005f4: 53 f7 10 10  	fmul.s	fa4, ft1, ft1
800005f8: 53 f5 a6 10  	fmul.s	fa0, fa3, fa0
800005fc: d3 73 77 10  	fmul.s	ft7, fa4, ft7
80000600: 53 71 d1 10  	fmul.s	ft2, ft2, fa3
80000604: d3 f0 e0 10  	fmul.s	ft1, ft1, fa4
80000608: 53 71 c1 10  	fmul.s	ft2, ft2, fa2
8000060c: d3 f0 b0 10  	fmul.s	ft1, ft1, fa1
80000610: d3 75 a2 00  	fadd.s	fa1, ft4, fa0
80000614: 53 f6 71 00  	fadd.s	fa2, ft3, ft7
80000618: 53 72 a2 08  	fsub.s	ft4, ft4, fa0
8000061c: d3 f1 71 08  	fsub.s	ft3, ft3, ft7
80000620: d3 73 23 00  	fadd.s	ft7, ft6, ft2
80000624: 53 f5 12 00  	fadd.s	fa0, ft5, ft1
80000628: 53 71 23 08  	fsub.s	ft2, ft6, ft2
8000062c: d3 f0 12 08  	fsub.s	ft1, ft5, ft1
80000630: 53 71 01 10  	fmul.s	ft2, ft2, ft0
80000634: d3 f2 75 00  	fadd.s	ft5, fa1, ft7
80000638: 53 73 a6 00  	fadd.s	ft6, fa2, fa0
8000063c: 27 a0 59 00  	fsw	ft5, 0(s3)
80000640: 27 a2 69 00  	fsw	ft6, 4(s3)
80000644: d3 72 22 00  	fadd.s	ft5, ft4, ft2
80000648: 53 f3 11 08  	fsub.s	ft6, ft3, ft1
8000064c: 27 20 59 00  	fsw	ft5, 0(s2)
80000650: 27 22 69 00  	fsw	ft6, 4(s2)
80000654: d3 f2 75 08  	fsub.s	ft5, fa1, ft7
80000658: 53 73 a6 08  	fsub.s	ft6, fa2, fa0
8000065c: 27 20 5a 00  	fsw	ft5, 0(s4)
80000660: 27 22 6a 00  	fsw	ft6, 4(s4)
80000664: 53 71 22 08  	fsub.s	ft2, ft4, ft2
80000668: d3 f0 11 00  	fadd.s	ft1, ft3, ft1
8000066c: 27 20 2c 00  	fsw	ft2, 0(s8)
80000670: 27 22 1c 00  	fsw	ft1, 4(s8)
80000674: 13 0f 1f 00  	addi	t5, t5, 1
80000678: 93 8c 8c 00  	addi	s9, s9, 8
8000067c: 13 0b 4b 00  	addi	s6, s6, 4
80000680: 93 8a 4a 00  	addi	s5, s5, 4
80000684: 33 c9 eb 01  	xor	s2, s7, t5
80000688: 33 39 20 01  	snez	s2, s2
8000068c: 0b 50 f9 01  	vx_pred	s2, t6
80000690: e3 96 eb ef  	bne	s7, t5, 0x8000057c <_pocl_kernel_fft_radix4_workgroup+0x438>
80000694: 13 03 13 00  	addi	t1, t1, 1
80000698: 03 af c4 07  	lw	t5, 124(s1)
8000069c: b3 83 e3 01  	add	t2, t2, t5
800006a0: 33 0e ee 01  	add	t3, t3, t5
800006a4: 33 4f b3 01  	xor	t5, t1, s11
800006a8: 33 3f e0 01  	snez	t5, t5
800006ac: 0b 50 df 01  	vx_pred	t5, t4
800006b0: e3 1a b3 eb  	bne	t1, s11, 0x80000564 <_pocl_kernel_fft_radix4_workgroup+0x420>
800006b4: 93 88 18 00  	addi	a7, a7, 1
800006b8: 03 ab 04 06  	lw	s6, 96(s1)
800006bc: 33 c3 68 01  	xor	t1, a7, s6
800006c0: 13 33 13 00  	seqz	t1, t1
800006c4: 0b 23 03 00  	vx_split	t1, t1
800006c8: 93 03 10 00  	li	t2, 1
800006cc: 03 ac 44 05  	lw	s8, 84(s1)
800006d0: 63 90 68 09  	bne	a7, s6, 0x80000750 <_pocl_kernel_fft_radix4_workgroup+0x60c>
800006d4: 93 08 00 00  	li	a7, 0
800006d8: f3 23 40 cc  	csrr	t2, tmask
800006dc: 13 0e 06 00  	mv	t3, a2
800006e0: 83 ac 84 06  	lw	s9, 104(s1)
800006e4: 93 0e 00 00  	li	t4, 0
800006e8: 73 2f 40 cc  	csrr	t5, tmask
800006ec: 93 0f 0e 00  	mv	t6, t3
800006f0: 73 29 40 cc  	csrr	s2, tmask
800006f4: 93 89 0f 00  	mv	s3, t6
800006f8: 13 8a 0b 00  	mv	s4, s7
800006fc: 23 a0 59 00  	sw	t0, 0(s3)
80000700: 13 0a fa ff  	addi	s4, s4, -1
80000704: 93 89 49 00  	addi	s3, s3, 4
80000708: b3 3a 40 01  	snez	s5, s4
8000070c: 0b d0 2a 01  	vx_pred	s5, s2
80000710: e3 16 0a fe  	bnez	s4, 0x800006fc <_pocl_kernel_fft_radix4_workgroup+0x5b8>
80000714: 93 8e 1e 00  	addi	t4, t4, 1
80000718: 03 a9 c4 07  	lw	s2, 124(s1)
8000071c: b3 8f 2f 01  	add	t6, t6, s2
80000720: 33 c9 be 01  	xor	s2, t4, s11
80000724: 33 39 20 01  	snez	s2, s2
80000728: 0b 50 e9 01  	vx_pred	s2, t5
8000072c: e3 92 be fd  	bne	t4, s11, 0x800006f0 <_pocl_kernel_fft_radix4_workgroup+0x5ac>
80000730: 93 88 18 00  	addi	a7, a7, 1
80000734: 33 0e 9e 01  	add	t3, t3, s9
80000738: b3 ce 68 01  	xor	t4, a7, s6
8000073c: b3 3e d0 01  	snez	t4, t4
80000740: 0b d0 7e 00  	vx_pred	t4, t2
80000744: e3 90 68 fb  	bne	a7, s6, 0x800006e4 <_pocl_kernel_fft_radix4_workgroup+0x5a0>
80000748: 93 08 00 00  	li	a7, 0
8000074c: 93 33 48 00  	sltiu	t2, a6, 4
80000750: 0b 30 03 00  	vx_join	t1
80000754: 8b a2 03 00  	vx_split	t0, t2
80000758: 13 08 10 00  	li	a6, 1
8000075c: 83 aa 04 05  	lw	s5, 80(s1)
80000760: e3 8c 03 dc  	beqz	t2, 0x80000538 <_pocl_kernel_fft_radix4_workgroup+0x3f4>
80000764: 13 08 00 00  	li	a6, 0
80000768: 6f f0 1f dd  	j	0x80000538 <_pocl_kernel_fft_radix4_workgroup+0x3f4>
8000076c: 13 06 00 00  	li	a2, 0
80000770: f3 26 40 cc  	csrr	a3, tmask
80000774: 03 aa 04 06  	lw	s4, 96(s1)
80000778: 6f 00 80 02  	j	0x800007a0 <_pocl_kernel_fft_radix4_workgroup+0x65c>
8000077c: 13 06 16 00  	addi	a2, a2, 1
80000780: b3 85 95 01  	add	a1, a1, s9
80000784: 33 0c 9c 01  	add	s8, s8, s9
80000788: 03 a7 44 06  	lw	a4, 100(s1)
8000078c: 33 05 e5 00  	add	a0, a0, a4
80000790: 33 47 46 01  	xor	a4, a2, s4
80000794: 33 37 e0 00  	snez	a4, a4
80000798: 0b 50 d7 00  	vx_pred	a4, a3
8000079c: 63 04 46 0b  	beq	a2, s4, 0x80000844 <_pocl_kernel_fft_radix4_workgroup+0x700>
800007a0: 13 07 00 00  	li	a4, 0
800007a4: f3 27 40 cc  	csrr	a5, tmask
800007a8: 13 08 05 00  	mv	a6, a0
800007ac: 93 08 0c 00  	mv	a7, s8
800007b0: 93 82 05 00  	mv	t0, a1
800007b4: 6f 00 80 02  	j	0x800007dc <_pocl_kernel_fft_radix4_workgroup+0x698>
800007b8: 13 07 17 00  	addi	a4, a4, 1
800007bc: 03 a3 c4 07  	lw	t1, 124(s1)
800007c0: b3 82 62 00  	add	t0, t0, t1
800007c4: b3 88 68 00  	add	a7, a7, t1
800007c8: 33 08 a8 01  	add	a6, a6, s10
800007cc: 33 43 b7 01  	xor	t1, a4, s11
800007d0: 33 33 60 00  	snez	t1, t1
800007d4: 0b 50 f3 00  	vx_pred	t1, a5
800007d8: e3 02 b7 fb  	beq	a4, s11, 0x8000077c <_pocl_kernel_fft_radix4_workgroup+0x638>
800007dc: 73 23 40 cc  	csrr	t1, tmask
800007e0: 93 03 08 00  	mv	t2, a6
800007e4: 13 8e 08 00  	mv	t3, a7
800007e8: 93 8e 02 00  	mv	t4, t0
800007ec: 13 8f 0b 00  	mv	t5, s7
800007f0: 6f 00 40 02  	j	0x80000814 <_pocl_kernel_fft_radix4_workgroup+0x6d0>
800007f4: 0b b0 0f 00  	vx_join	t6
800007f8: 13 0f ff ff  	addi	t5, t5, -1
800007fc: 93 8e 4e 00  	addi	t4, t4, 4
80000800: 13 0e 4e 00  	addi	t3, t3, 4
80000804: 93 83 13 00  	addi	t2, t2, 1
80000808: b3 3f e0 01  	snez	t6, t5
8000080c: 0b d0 6f 00  	vx_pred	t6, t1
80000810: e3 04 0f fa  	beqz	t5, 0x800007b8 <_pocl_kernel_fft_radix4_workgroup+0x674>
80000814: 03 c9 03 00  	lbu	s2, 0(t2)
80000818: 8b 2f 09 00  	vx_split	t6, s2
8000081c: e3 0c 09 fc  	beqz	s2, 0x800007f4 <_pocl_kernel_fft_radix4_workgroup+0x6b0>
80000820: 03 a9 0e 00  	lw	s2, 0(t4)
80000824: 83 29 0e 00  	lw	s3, 0(t3)
80000828: 07 20 49 00  	flw	ft0, 4(s2)
8000082c: 87 20 09 00  	flw	ft1, 0(s2)
80000830: 93 99 39 00  	slli	s3, s3, 3
80000834: b3 89 3a 01  	add	s3, s5, s3
80000838: 27 a2 09 00  	fsw	ft0, 4(s3)
8000083c: 27 a0 19 00  	fsw	ft1, 0(s3)
80000840: 6f f0 5f fb  	j	0x800007f4 <_pocl_kernel_fft_radix4_workgroup+0x6b0>
80000844: 13 01 04 f0  	addi	sp, s0, -256
80000848: 83 20 c1 0f  	lw	ra, 252(sp)
8000084c: 03 24 81 0f  	lw	s0, 248(sp)
80000850: 83 24 41 0f  	lw	s1, 244(sp)
80000854: 03 29 01 0f  	lw	s2, 240(sp)
80000858: 83 29 c1 0e  	lw	s3, 236(sp)
8000085c: 03 2a 81 0e  	lw	s4, 232(sp)
80000860: 83 2a 41 0e  	lw	s5, 228(sp)
80000864: 03 2b 01 0e  	lw	s6, 224(sp)
80000868: 83 2b c1 0d  	lw	s7, 220(sp)
8000086c: 03 2c 81 0d  	lw	s8, 216(sp)
80000870: 83 2c 41 0d  	lw	s9, 212(sp)
80000874: 03 2d 01 0d  	lw	s10, 208(sp)
80000878: 83 2d c1 0c  	lw	s11, 204(sp)
8000087c: 07 24 81 0c  	flw	fs0, 200(sp)
80000880: 87 24 41 0c  	flw	fs1, 196(sp)
80000884: 07 29 01 0c  	flw	fs2, 192(sp)
80000888: 87 29 c1 0b  	flw	fs3, 188(sp)
8000088c: 13 01 01 10  	addi	sp, sp, 256
80000890: 67 80 00 00  	ret

80000894 <_exit>:
80000894: 13 04 05 00  	mv	s0, a0
80000898: ef 00 80 5a  	jal	0x80000e40 <vx_perf_dump>
8000089c: 93 01 04 00  	mv	gp, s0
800008a0: 0b 00 00 00  	vx_tmc	zero

800008a4 <init_regs>:
800008a4: 97 41 00 00  	auipc	gp, 4
800008a8: 93 81 c1 e9  	addi	gp, gp, -356
800008ac: 37 01 00 ff  	lui	sp, 1044480
800008b0: f3 22 40 f1  	csrr	t0, mhartid
800008b4: 13 93 d2 00  	slli	t1, t0, 13
800008b8: 33 01 61 40  	sub	sp, sp, t1
800008bc: 13 03 00 00  	li	t1, 0
800008c0: b3 82 62 02  	mul	t0, t0, t1
800008c4: 17 42 00 00  	auipc	tp, 4
800008c8: 13 02 72 74  	addi	tp, tp, 1863
800008cc: 33 02 52 00  	add	tp, tp, t0
800008d0: 13 72 02 fc  	andi	tp, tp, -64
800008d4: 67 80 00 00  	ret

800008d8 <init_regs_all>:
800008d8: 93 02 f0 ff  	li	t0, -1
800008dc: 0b 80 02 00  	vx_tmc	t0
800008e0: ef f0 5f fc  	jal	0x800008a4 <init_regs>
800008e4: 0b 00 00 00  	vx_tmc	zero
800008e8: 67 80 00 00  	ret

800008ec <init_tls_all>:
800008ec: 93 02 f0 ff  	li	t0, -1
800008f0: 0b 80 02 00  	vx_tmc	t0
800008f4: ef 00 c0 01  	jal	0x80000910 <__init_tls>
800008f8: 0b 00 00 00  	vx_tmc	zero
800008fc: 67 80 00 00  	ret

80000900 <vx_wspawn_wait>:
80000900: f3 22 30 cc  	csrr	t0, gid
80000904: 13 03 10 00  	li	t1, 1
80000908: e3 9c 62 fe  	bne	t0, t1, 0x80000900 <vx_wspawn_wait>
8000090c: 67 80 00 00  	ret

80000910 <__init_tls>:
80000910: 13 01 01 ff  	addi	sp, sp, -16
80000914: 13 06 00 00  	li	a2, 0
80000918: 97 35 00 00  	auipc	a1, 3
8000091c: 93 85 c5 1f  	addi	a1, a1, 508
80000920: 13 05 02 00  	mv	a0, tp
80000924: 23 24 81 00  	sw	s0, 8(sp)
80000928: 23 26 11 00  	sw	ra, 12(sp)
8000092c: 13 04 02 00  	mv	s0, tp
80000930: ef 10 10 08  	jal	0x800021b0 <memcpy>
80000934: 13 05 00 00  	li	a0, 0
80000938: 33 05 a4 00  	add	a0, s0, a0
8000093c: 03 24 81 00  	lw	s0, 8(sp)
80000940: 83 20 c1 00  	lw	ra, 12(sp)
80000944: 13 06 00 00  	li	a2, 0
80000948: 93 05 00 00  	li	a1, 0
8000094c: 13 01 01 01  	addi	sp, sp, 16
80000950: 6f 10 50 20  	j	0x80002354 <memset>

80000954 <__libc_init_array>:
80000954: 13 01 01 ff  	addi	sp, sp, -16
80000958: 23 24 81 00  	sw	s0, 8(sp)
8000095c: 23 20 21 01  	sw	s2, 0(sp)
80000960: 97 37 00 00  	auipc	a5, 3
80000964: 93 87 47 1b  	addi	a5, a5, 436
80000968: 17 34 00 00  	auipc	s0, 3
8000096c: 13 04 c4 1a  	addi	s0, s0, 428
80000970: 23 26 11 00  	sw	ra, 12(sp)
80000974: 23 22 91 00  	sw	s1, 4(sp)
80000978: 33 89 87 40  	sub	s2, a5, s0
8000097c: 63 80 87 02  	beq	a5, s0, 0x8000099c <__libc_init_array+0x48>
80000980: 13 59 29 40  	srai	s2, s2, 2
80000984: 93 04 00 00  	li	s1, 0
80000988: 83 27 04 00  	lw	a5, 0(s0)
8000098c: 93 84 14 00  	addi	s1, s1, 1
80000990: 13 04 44 00  	addi	s0, s0, 4
80000994: e7 80 07 00  	jalr	a5
80000998: e3 e8 24 ff  	bltu	s1, s2, 0x80000988 <__libc_init_array+0x34>
8000099c: 97 37 00 00  	auipc	a5, 3
800009a0: 93 87 c7 17  	addi	a5, a5, 380
800009a4: 17 34 00 00  	auipc	s0, 3
800009a8: 13 04 04 17  	addi	s0, s0, 368
800009ac: 33 89 87 40  	sub	s2, a5, s0
800009b0: 13 59 29 40  	srai	s2, s2, 2
800009b4: 63 8e 87 00  	beq	a5, s0, 0x800009d0 <__libc_init_array+0x7c>
800009b8: 93 04 00 00  	li	s1, 0
800009bc: 83 27 04 00  	lw	a5, 0(s0)
800009c0: 93 84 14 00  	addi	s1, s1, 1
800009c4: 13 04 44 00  	addi	s0, s0, 4
800009c8: e7 80 07 00  	jalr	a5
800009cc: e3 e8 24 ff  	bltu	s1, s2, 0x800009bc <__libc_init_array+0x68>
800009d0: 83 20 c1 00  	lw	ra, 12(sp)
800009d4: 03 24 81 00  	lw	s0, 8(sp)
800009d8: 83 24 41 00  	lw	s1, 4(sp)
800009dc: 03 29 01 00  	lw	s2, 0(sp)
800009e0: 13 01 01 01  	addi	sp, sp, 16
800009e4: 67 80 00 00  	ret

800009e8 <__libc_fini_array>:
800009e8: 13 01 01 ff  	addi	sp, sp, -16
800009ec: 23 24 81 00  	sw	s0, 8(sp)
800009f0: 97 37 00 00  	auipc	a5, 3
800009f4: 93 87 87 12  	addi	a5, a5, 296
800009f8: 17 34 00 00  	auipc	s0, 3
800009fc: 13 04 04 12  	addi	s0, s0, 288
80000a00: 33 04 f4 40  	sub	s0, s0, a5
80000a04: 23 22 91 00  	sw	s1, 4(sp)
80000a08: 23 26 11 00  	sw	ra, 12(sp)
80000a0c: 93 54 24 40  	srai	s1, s0, 2
80000a10: 63 80 04 02  	beqz	s1, 0x80000a30 <__libc_fini_array+0x48>
80000a14: 13 04 c4 ff  	addi	s0, s0, -4
80000a18: 33 04 f4 00  	add	s0, s0, a5
80000a1c: 83 27 04 00  	lw	a5, 0(s0)
80000a20: 93 84 f4 ff  	addi	s1, s1, -1
80000a24: 13 04 c4 ff  	addi	s0, s0, -4
80000a28: e7 80 07 00  	jalr	a5
80000a2c: e3 98 04 fe  	bnez	s1, 0x80000a1c <__libc_fini_array+0x34>
80000a30: 83 20 c1 00  	lw	ra, 12(sp)
80000a34: 03 24 81 00  	lw	s0, 8(sp)
80000a38: 83 24 41 00  	lw	s1, 4(sp)
80000a3c: 13 01 01 01  	addi	sp, sp, 16
80000a40: 67 80 00 00  	ret

80000a44 <spawn_kernel_all_stub>:
80000a44: 13 01 01 fe  	addi	sp, sp, -32
80000a48: 23 2e 11 00  	sw	ra, 28(sp)
80000a4c: 23 2c 81 00  	sw	s0, 24(sp)
80000a50: 23 2a 91 00  	sw	s1, 20(sp)
80000a54: 23 28 21 01  	sw	s2, 16(sp)
80000a58: 23 26 31 01  	sw	s3, 12(sp)
80000a5c: 23 24 41 01  	sw	s4, 8(sp)
80000a60: 73 25 00 fc  	csrr	a0, nt
80000a64: 73 26 20 cc  	csrr	a2, cid
80000a68: 73 27 10 cc  	csrr	a4, wid
80000a6c: f3 26 00 cc  	csrr	a3, tid
80000a70: 97 37 00 00  	auipc	a5, 3
80000a74: 93 87 c7 55  	addi	a5, a5, 1372
80000a78: 13 16 26 00  	slli	a2, a2, 2
80000a7c: b3 87 c7 00  	add	a5, a5, a2
80000a80: 83 a4 07 00  	lw	s1, 0(a5)
80000a84: 83 a7 44 01  	lw	a5, 20(s1)
80000a88: 03 a6 04 01  	lw	a2, 16(s1)
80000a8c: 33 2a f7 00  	slt	s4, a4, a5
80000a90: 33 04 e6 02  	mul	s0, a2, a4
80000a94: 33 0a ca 00  	add	s4, s4, a2
80000a98: 63 54 f7 00  	bge	a4, a5, 0x80000aa0 <spawn_kernel_all_stub+0x5c>
80000a9c: 93 07 07 00  	mv	a5, a4
80000aa0: 33 04 f4 00  	add	s0, s0, a5
80000aa4: 83 a5 04 00  	lw	a1, 0(s1)
80000aa8: 03 a6 c4 00  	lw	a2, 12(s1)
80000aac: 03 c7 84 01  	lbu	a4, 24(s1)
80000ab0: 03 a9 05 00  	lw	s2, 0(a1)
80000ab4: 83 a9 45 00  	lw	s3, 4(a1)
80000ab8: 33 04 a4 02  	mul	s0, s0, a0
80000abc: b3 07 da 02  	mul	a5, s4, a3
80000ac0: 33 04 c4 00  	add	s0, s0, a2
80000ac4: 33 04 f4 00  	add	s0, s0, a5
80000ac8: b3 09 39 03  	mul	s3, s2, s3
80000acc: 33 0a 8a 00  	add	s4, s4, s0
80000ad0: 63 00 07 08  	beqz	a4, 0x80000b50 <spawn_kernel_all_stub+0x10c>
80000ad4: 63 44 44 03  	blt	s0, s4, 0x80000afc <spawn_kernel_all_stub+0xb8>
80000ad8: 83 20 c1 01  	lw	ra, 28(sp)
80000adc: 03 24 81 01  	lw	s0, 24(sp)
80000ae0: 83 24 41 01  	lw	s1, 20(sp)
80000ae4: 03 29 01 01  	lw	s2, 16(sp)
80000ae8: 83 29 c1 00  	lw	s3, 12(sp)
80000aec: 03 2a 81 00  	lw	s4, 8(sp)
80000af0: 13 01 01 02  	addi	sp, sp, 32
80000af4: 67 80 00 00  	ret
80000af8: 83 a5 04 00  	lw	a1, 0(s1)
80000afc: 03 c7 94 01  	lbu	a4, 25(s1)
80000b00: 83 c6 a4 01  	lbu	a3, 26(s1)
80000b04: 03 a8 44 00  	lw	a6, 4(s1)
80000b08: 33 57 e4 40  	sra	a4, s0, a4
80000b0c: b3 87 e9 02  	mul	a5, s3, a4
80000b10: 03 a5 84 00  	lw	a0, 8(s1)
80000b14: b3 07 f4 40  	sub	a5, s0, a5
80000b18: b3 d6 d7 40  	sra	a3, a5, a3
80000b1c: 33 06 d9 02  	mul	a2, s2, a3
80000b20: 13 04 14 00  	addi	s0, s0, 1
80000b24: 33 86 c7 40  	sub	a2, a5, a2
80000b28: e7 00 08 00  	jalr	a6
80000b2c: e3 16 8a fc  	bne	s4, s0, 0x80000af8 <spawn_kernel_all_stub+0xb4>
80000b30: 83 20 c1 01  	lw	ra, 28(sp)
80000b34: 03 24 81 01  	lw	s0, 24(sp)
80000b38: 83 24 41 01  	lw	s1, 20(sp)
80000b3c: 03 29 01 01  	lw	s2, 16(sp)
80000b40: 83 29 c1 00  	lw	s3, 12(sp)
80000b44: 03 2a 81 00  	lw	s4, 8(sp)
80000b48: 13 01 01 02  	addi	sp, sp, 32
80000b4c: 67 80 00 00  	ret
80000b50: 63 46 44 01  	blt	s0, s4, 0x80000b5c <spawn_kernel_all_stub+0x118>
80000b54: 6f f0 5f f8  	j	0x80000ad8 <spawn_kernel_all_stub+0x94>
80000b58: 83 a5 04 00  	lw	a1, 0(s1)
80000b5c: 33 66 34 03  	rem	a2, s0, s3
80000b60: 83 a7 44 00  	lw	a5, 4(s1)
80000b64: 03 a5 84 00  	lw	a0, 8(s1)
80000b68: 33 47 34 03  	div	a4, s0, s3
80000b6c: 13 04 14 00  	addi	s0, s0, 1
80000b70: b3 46 26 03  	div	a3, a2, s2
80000b74: 33 66 26 03  	rem	a2, a2, s2
80000b78: e7 80 07 00  	jalr	a5
80000b7c: e3 1e 8a fc  	bne	s4, s0, 0x80000b58 <spawn_kernel_all_stub+0x114>
80000b80: 83 20 c1 01  	lw	ra, 28(sp)
80000b84: 03 24 81 01  	lw	s0, 24(sp)
80000b88: 83 24 41 01  	lw	s1, 20(sp)
80000b8c: 03 29 01 01  	lw	s2, 16(sp)
80000b90: 83 29 c1 00  	lw	s3, 12(sp)
80000b94: 03 2a 81 00  	lw	s4, 8(sp)
80000b98: 13 01 01 02  	addi	sp, sp, 32
80000b9c: 67 80 00 00  	ret

80000ba0 <spawn_kernel_rem_stub>:
80000ba0: 73 27 20 cc  	csrr	a4, cid
80000ba4: 73 28 00 cc  	csrr	a6, tid
80000ba8: 97 37 00 00  	auipc	a5, 3
80000bac: 93 87 47 42  	addi	a5, a5, 1060
80000bb0: 13 17 27 00  	slli	a4, a4, 2
80000bb4: b3 87 e7 00  	add	a5, a5, a4
80000bb8: 83 a7 07 00  	lw	a5, 0(a5)
80000bbc: 83 a5 07 00  	lw	a1, 0(a5)
80000bc0: 83 a6 c7 00  	lw	a3, 12(a5)
80000bc4: 03 c7 87 01  	lbu	a4, 24(a5)
80000bc8: 03 a6 05 00  	lw	a2, 0(a1)
80000bcc: 83 a8 45 00  	lw	a7, 4(a1)
80000bd0: 33 08 d8 00  	add	a6, a6, a3
80000bd4: b3 08 16 03  	mul	a7, a2, a7
80000bd8: 63 08 07 02  	beqz	a4, 0x80000c08 <spawn_kernel_rem_stub+0x68>
80000bdc: 03 c7 97 01  	lbu	a4, 25(a5)
80000be0: 83 c6 a7 01  	lbu	a3, 26(a5)
80000be4: 03 a3 47 00  	lw	t1, 4(a5)
80000be8: 33 57 e8 40  	sra	a4, a6, a4
80000bec: 03 a5 87 00  	lw	a0, 8(a5)
80000bf0: b3 88 e8 02  	mul	a7, a7, a4
80000bf4: 33 08 18 41  	sub	a6, a6, a7
80000bf8: b3 56 d8 40  	sra	a3, a6, a3
80000bfc: 33 06 d6 02  	mul	a2, a2, a3
80000c00: 33 06 c8 40  	sub	a2, a6, a2
80000c04: 67 00 03 00  	jr	t1
80000c08: 33 63 18 03  	rem	t1, a6, a7
80000c0c: 03 ae 47 00  	lw	t3, 4(a5)
80000c10: 03 a5 87 00  	lw	a0, 8(a5)
80000c14: b3 46 c3 02  	div	a3, t1, a2
80000c18: 33 47 18 03  	div	a4, a6, a7
80000c1c: 33 66 c3 02  	rem	a2, t1, a2
80000c20: 67 00 0e 00  	jr	t3

80000c24 <spawn_kernel_all_cb>:
80000c24: 13 01 01 ff  	addi	sp, sp, -16
80000c28: 23 26 11 00  	sw	ra, 12(sp)
80000c2c: 93 07 f0 ff  	li	a5, -1
80000c30: 0b 80 07 00  	vx_tmc	a5
80000c34: ef f0 1f e1  	jal	0x80000a44 <spawn_kernel_all_stub>
80000c38: 0b 00 00 00  	vx_tmc	zero
80000c3c: 83 20 c1 00  	lw	ra, 12(sp)
80000c40: 13 01 01 01  	addi	sp, sp, 16
80000c44: 67 80 00 00  	ret

80000c48 <vx_spawn_kernel>:
80000c48: 13 01 01 f9  	addi	sp, sp, -112
80000c4c: 23 2e 31 05  	sw	s3, 92(sp)
80000c50: 23 2a 51 05  	sw	s5, 84(sp)
80000c54: 83 29 45 00  	lw	s3, 4(a0)
80000c58: 83 2a 05 00  	lw	s5, 0(a0)
80000c5c: 03 27 85 00  	lw	a4, 8(a0)
80000c60: 23 26 11 06  	sw	ra, 108(sp)
80000c64: 23 24 81 06  	sw	s0, 104(sp)
80000c68: 23 22 91 06  	sw	s1, 100(sp)
80000c6c: 23 20 21 07  	sw	s2, 96(sp)
80000c70: 23 2c 41 05  	sw	s4, 88(sp)
80000c74: 23 28 61 05  	sw	s6, 80(sp)
80000c78: 23 26 71 05  	sw	s7, 76(sp)
80000c7c: 23 24 81 05  	sw	s8, 72(sp)
80000c80: 23 22 91 05  	sw	s9, 68(sp)
80000c84: 23 20 a1 05  	sw	s10, 64(sp)
80000c88: 23 2e b1 03  	sw	s11, 60(sp)
80000c8c: f3 26 20 fc  	csrr	a3, nw
80000c90: f3 2c 10 fc  	csrr	s9, nw
80000c94: 73 2d 00 fc  	csrr	s10, nt
80000c98: f3 24 20 cc  	csrr	s1, cid
80000c9c: 93 07 f0 3f  	li	a5, 1023
80000ca0: 63 c4 97 0e  	blt	a5, s1, 0x80000d88 <vx_spawn_kernel+0x140>
80000ca4: b3 89 3a 03  	mul	s3, s5, s3
80000ca8: 93 0b 06 00  	mv	s7, a2
80000cac: 13 04 05 00  	mv	s0, a0
80000cb0: 13 8c 05 00  	mv	s8, a1
80000cb4: 93 07 10 00  	li	a5, 1
80000cb8: 33 07 37 03  	mul	a4, a4, s3
80000cbc: 33 86 ac 03  	mul	a2, s9, s10
80000cc0: 63 54 e6 00  	bge	a2, a4, 0x80000cc8 <vx_spawn_kernel+0x80>
80000cc4: b3 47 c7 02  	div	a5, a4, a2
80000cc8: 63 ce f6 0e  	blt	a3, a5, 0x80000dc4 <vx_spawn_kernel+0x17c>
80000ccc: 63 de f4 0a  	bge	s1, a5, 0x80000d88 <vx_spawn_kernel+0x140>
80000cd0: 13 86 f7 ff  	addi	a2, a5, -1
80000cd4: b3 46 f7 02  	div	a3, a4, a5
80000cd8: 13 8a 06 00  	mv	s4, a3
80000cdc: 63 16 96 00  	bne	a2, s1, 0x80000ce8 <vx_spawn_kernel+0xa0>
80000ce0: 33 67 f7 02  	rem	a4, a4, a5
80000ce4: 33 0a d7 00  	add	s4, a4, a3
80000ce8: b3 4d aa 03  	div	s11, s4, s10
80000cec: 33 6a aa 03  	rem	s4, s4, s10
80000cf0: 63 c0 9d 0f  	blt	s11, s9, 0x80000dd0 <vx_spawn_kernel+0x188>
80000cf4: b3 e7 9d 03  	rem	a5, s11, s9
80000cf8: 33 cb 9d 03  	div	s6, s11, s9
80000cfc: 23 26 f1 00  	sw	a5, 12(sp)
80000d00: 13 85 09 00  	mv	a0, s3
80000d04: 23 24 d1 00  	sw	a3, 8(sp)
80000d08: ef 10 90 0e  	jal	0x800025f0 <__clzsi2>
80000d0c: 13 09 05 00  	mv	s2, a0
80000d10: 13 85 0a 00  	mv	a0, s5
80000d14: ef 10 d0 0d  	jal	0x800025f0 <__clzsi2>
80000d18: 83 26 81 00  	lw	a3, 8(sp)
80000d1c: 13 07 f0 01  	li	a4, 31
80000d20: 33 09 27 41  	sub	s2, a4, s2
80000d24: 93 87 f9 ff  	addi	a5, s3, -1
80000d28: b3 f7 37 01  	and	a5, a5, s3
80000d2c: 13 79 f9 0f  	andi	s2, s2, 255
80000d30: 13 19 89 00  	slli	s2, s2, 8
80000d34: 93 b7 17 00  	seqz	a5, a5
80000d38: b3 e7 27 01  	or	a5, a5, s2
80000d3c: 17 36 00 00  	auipc	a2, 3
80000d40: 13 06 06 29  	addi	a2, a2, 656
80000d44: 33 07 a7 40  	sub	a4, a4, a0
80000d48: 23 16 f1 02  	sh	a5, 44(sp)
80000d4c: 93 07 41 01  	addi	a5, sp, 20
80000d50: 23 2a 81 00  	sw	s0, 20(sp)
80000d54: 23 2c 81 01  	sw	s8, 24(sp)
80000d58: 23 2e 71 01  	sw	s7, 28(sp)
80000d5c: 23 22 61 03  	sw	s6, 36(sp)
80000d60: 23 07 e1 02  	sb	a4, 46(sp)
80000d64: b3 86 96 02  	mul	a3, a3, s1
80000d68: 93 94 24 00  	slli	s1, s1, 2
80000d6c: 33 06 96 00  	add	a2, a2, s1
80000d70: 23 20 f6 00  	sw	a5, 0(a2)
80000d74: 23 20 d1 02  	sw	a3, 32(sp)
80000d78: 83 26 c1 00  	lw	a3, 12(sp)
80000d7c: 23 24 d1 02  	sw	a3, 40(sp)
80000d80: 63 4e b0 05  	bgtz	s11, 0x80000ddc <vx_spawn_kernel+0x194>
80000d84: 63 16 0a 08  	bnez	s4, 0x80000e10 <vx_spawn_kernel+0x1c8>
80000d88: 83 20 c1 06  	lw	ra, 108(sp)
80000d8c: 03 24 81 06  	lw	s0, 104(sp)
80000d90: 83 24 41 06  	lw	s1, 100(sp)
80000d94: 03 29 01 06  	lw	s2, 96(sp)
80000d98: 83 29 c1 05  	lw	s3, 92(sp)
80000d9c: 03 2a 81 05  	lw	s4, 88(sp)
80000da0: 83 2a 41 05  	lw	s5, 84(sp)
80000da4: 03 2b 01 05  	lw	s6, 80(sp)
80000da8: 83 2b c1 04  	lw	s7, 76(sp)
80000dac: 03 2c 81 04  	lw	s8, 72(sp)
80000db0: 83 2c 41 04  	lw	s9, 68(sp)
80000db4: 03 2d 01 04  	lw	s10, 64(sp)
80000db8: 83 2d c1 03  	lw	s11, 60(sp)
80000dbc: 13 01 01 07  	addi	sp, sp, 112
80000dc0: 67 80 00 00  	ret
80000dc4: 93 87 06 00  	mv	a5, a3
80000dc8: e3 c4 f4 f0  	blt	s1, a5, 0x80000cd0 <vx_spawn_kernel+0x88>
80000dcc: 6f f0 df fb  	j	0x80000d88 <vx_spawn_kernel+0x140>
80000dd0: 23 26 01 00  	sw	zero, 12(sp)
80000dd4: 13 0b 10 00  	li	s6, 1
80000dd8: 6f f0 9f f2  	j	0x80000d00 <vx_spawn_kernel+0xb8>
80000ddc: 93 87 0d 00  	mv	a5, s11
80000de0: 63 d4 bc 01  	bge	s9, s11, 0x80000de8 <vx_spawn_kernel+0x1a0>
80000de4: 93 87 0c 00  	mv	a5, s9
80000de8: 17 07 00 00  	auipc	a4, 0
80000dec: 13 07 c7 e3  	addi	a4, a4, -452
80000df0: 0b 90 e7 00  	vx_wspawn	a5, a4
80000df4: 93 07 f0 ff  	li	a5, -1
80000df8: 0b 80 07 00  	vx_tmc	a5
80000dfc: ef f0 9f c4  	jal	0x80000a44 <spawn_kernel_all_stub>
80000e00: 13 05 10 00  	li	a0, 1
80000e04: 0b 00 05 00  	vx_tmc	a0
80000e08: ef f0 9f af  	jal	0x80000900 <vx_wspawn_wait>
80000e0c: e3 0e 0a f6  	beqz	s4, 0x80000d88 <vx_spawn_kernel+0x140>
80000e10: b3 8d ad 03  	mul	s11, s11, s10
80000e14: 03 27 01 02  	lw	a4, 32(sp)
80000e18: 93 07 10 00  	li	a5, 1
80000e1c: b3 97 47 01  	sll	a5, a5, s4
80000e20: 93 87 f7 ff  	addi	a5, a5, -1
80000e24: 33 07 b7 01  	add	a4, a4, s11
80000e28: 23 20 e1 02  	sw	a4, 32(sp)
80000e2c: 0b 80 07 00  	vx_tmc	a5
80000e30: ef f0 1f d7  	jal	0x80000ba0 <spawn_kernel_rem_stub>
80000e34: 13 05 10 00  	li	a0, 1
80000e38: 0b 00 05 00  	vx_tmc	a0
80000e3c: 6f f0 df f4  	j	0x80000d88 <vx_spawn_kernel+0x140>

80000e40 <vx_perf_dump>:
80000e40: f3 27 20 cc  	csrr	a5, cid
80000e44: 37 47 00 ff  	lui	a4, 1044484
80000e48: 13 07 07 04  	addi	a4, a4, 64
80000e4c: 93 97 87 00  	slli	a5, a5, 8
80000e50: b3 87 e7 00  	add	a5, a5, a4
80000e54: 73 27 00 b0  	csrr	a4, mcycle
80000e58: 23 a0 e7 00  	sw	a4, 0(a5)
80000e5c: 73 27 10 b0  	csrr	a4, 2817
80000e60: 23 a2 e7 00  	sw	a4, 4(a5)
80000e64: 73 27 20 b0  	csrr	a4, minstret
80000e68: 23 a4 e7 00  	sw	a4, 8(a5)
80000e6c: 73 27 30 b0  	csrr	a4, mhpmcounter3
80000e70: 23 a6 e7 00  	sw	a4, 12(a5)
80000e74: 73 27 40 b0  	csrr	a4, mhpmcounter4
80000e78: 23 a8 e7 00  	sw	a4, 16(a5)
80000e7c: 73 27 50 b0  	csrr	a4, mhpmcounter5
80000e80: 23 aa e7 00  	sw	a4, 20(a5)
80000e84: 73 27 60 b0  	csrr	a4, mhpmcounter6
80000e88: 23 ac e7 00  	sw	a4, 24(a5)
80000e8c: 73 27 70 b0  	csrr	a4, mhpmcounter7
80000e90: 23 ae e7 00  	sw	a4, 28(a5)
80000e94: 73 27 80 b0  	csrr	a4, mhpmcounter8
80000e98: 23 a0 e7 02  	sw	a4, 32(a5)
80000e9c: 73 27 90 b0  	csrr	a4, mhpmcounter9
80000ea0: 23 a2 e7 02  	sw	a4, 36(a5)
80000ea4: 73 27 a0 b0  	csrr	a4, mhpmcounter10
80000ea8: 23 a4 e7 02  	sw	a4, 40(a5)
80000eac: 73 27 b0 b0  	csrr	a4, mhpmcounter11
80000eb0: 23 a6 e7 02  	sw	a4, 44(a5)
80000eb4: 73 27 c0 b0  	csrr	a4, mhpmcounter12
80000eb8: 23 a8 e7 02  	sw	a4, 48(a5)
80000ebc: 73 27 d0 b0  	csrr	a4, mhpmcounter13
80000ec0: 23 aa e7 02  	sw	a4, 52(a5)
80000ec4: 73 27 e0 b0  	csrr	a4, mhpmcounter14
80000ec8: 23 ac e7 02  	sw	a4, 56(a5)
80000ecc: 73 27 f0 b0  	csrr	a4, mhpmcounter15
80000ed0: 23 ae e7 02  	sw	a4, 60(a5)
80000ed4: 73 27 00 b1  	csrr	a4, mhpmcounter16
80000ed8: 23 a0 e7 04  	sw	a4, 64(a5)
80000edc: 73 27 10 b1  	csrr	a4, mhpmcounter17
80000ee0: 23 a2 e7 04  	sw	a4, 68(a5)
80000ee4: 73 27 20 b1  	csrr	a4, mhpmcounter18
80000ee8: 23 a4 e7 04  	sw	a4, 72(a5)
80000eec: 73 27 30 b1  	csrr	a4, mhpmcounter19
80000ef0: 23 a6 e7 04  	sw	a4, 76(a5)
80000ef4: 73 27 40 b1  	csrr	a4, mhpmcounter20
80000ef8: 23 a8 e7 04  	sw	a4, 80(a5)
80000efc: 73 27 50 b1  	csrr	a4, mhpmcounter21
80000f00: 23 aa e7 04  	sw	a4, 84(a5)
80000f04: 73 27 60 b1  	csrr	a4, mhpmcounter22
80000f08: 23 ac e7 04  	sw	a4, 88(a5)
80000f0c: 73 27 70 b1  	csrr	a4, mhpmcounter23
80000f10: 23 ae e7 04  	sw	a4, 92(a5)
80000f14: 73 27 80 b1  	csrr	a4, mhpmcounter24
80000f18: 23 a0 e7 06  	sw	a4, 96(a5)
80000f1c: 73 27 90 b1  	csrr	a4, mhpmcounter25
80000f20: 23 a2 e7 06  	sw	a4, 100(a5)
80000f24: 73 27 a0 b1  	csrr	a4, mhpmcounter26
80000f28: 23 a4 e7 06  	sw	a4, 104(a5)
80000f2c: 73 27 b0 b1  	csrr	a4, mhpmcounter27
80000f30: 23 a6 e7 06  	sw	a4, 108(a5)
80000f34: 73 27 c0 b1  	csrr	a4, mhpmcounter28
80000f38: 23 a8 e7 06  	sw	a4, 112(a5)
80000f3c: 73 27 d0 b1  	csrr	a4, mhpmcounter29
80000f40: 23 aa e7 06  	sw	a4, 116(a5)
80000f44: 73 27 e0 b1  	csrr	a4, mhpmcounter30
80000f48: 23 ac e7 06  	sw	a4, 120(a5)
80000f4c: 73 27 f0 b1  	csrr	a4, mhpmcounter31
80000f50: 23 ae e7 06  	sw	a4, 124(a5)
80000f54: 73 27 00 b8  	csrr	a4, mcycleh
80000f58: 23 a0 e7 08  	sw	a4, 128(a5)
80000f5c: 73 27 10 b8  	csrr	a4, 2945
80000f60: 23 a2 e7 08  	sw	a4, 132(a5)
80000f64: 73 27 20 b8  	csrr	a4, minstreth
80000f68: 23 a4 e7 08  	sw	a4, 136(a5)
80000f6c: 73 27 30 b8  	csrr	a4, mhpmcounter3h
80000f70: 23 a6 e7 08  	sw	a4, 140(a5)
80000f74: 73 27 40 b8  	csrr	a4, mhpmcounter4h
80000f78: 23 a8 e7 08  	sw	a4, 144(a5)
80000f7c: 73 27 50 b8  	csrr	a4, mhpmcounter5h
80000f80: 23 aa e7 08  	sw	a4, 148(a5)
80000f84: 73 27 60 b8  	csrr	a4, mhpmcounter6h
80000f88: 23 ac e7 08  	sw	a4, 152(a5)
80000f8c: 73 27 70 b8  	csrr	a4, mhpmcounter7h
80000f90: 23 ae e7 08  	sw	a4, 156(a5)
80000f94: 73 27 80 b8  	csrr	a4, mhpmcounter8h
80000f98: 23 a0 e7 0a  	sw	a4, 160(a5)
80000f9c: 73 27 90 b8  	csrr	a4, mhpmcounter9h
80000fa0: 23 a2 e7 0a  	sw	a4, 164(a5)
80000fa4: 73 27 a0 b8  	csrr	a4, mhpmcounter10h
80000fa8: 23 a4 e7 0a  	sw	a4, 168(a5)
80000fac: 73 27 b0 b8  	csrr	a4, mhpmcounter11h
80000fb0: 23 a6 e7 0a  	sw	a4, 172(a5)
80000fb4: 73 27 c0 b8  	csrr	a4, mhpmcounter12h
80000fb8: 23 a8 e7 0a  	sw	a4, 176(a5)
80000fbc: 73 27 d0 b8  	csrr	a4, mhpmcounter13h
80000fc0: 23 aa e7 0a  	sw	a4, 180(a5)
80000fc4: 73 27 e0 b8  	csrr	a4, mhpmcounter14h
80000fc8: 23 ac e7 0a  	sw	a4, 184(a5)
80000fcc: 73 27 f0 b8  	csrr	a4, mhpmcounter15h
80000fd0: 23 ae e7 0a  	sw	a4, 188(a5)
80000fd4: 73 27 00 b9  	csrr	a4, mhpmcounter16h
80000fd8: 23 a0 e7 0c  	sw	a4, 192(a5)
80000fdc: 73 27 10 b9  	csrr	a4, mhpmcounter17h
80000fe0: 23 a2 e7 0c  	sw	a4, 196(a5)
80000fe4: 73 27 20 b9  	csrr	a4, mhpmcounter18h
80000fe8: 23 a4 e7 0c  	sw	a4, 200(a5)
80000fec: 73 27 30 b9  	csrr	a4, mhpmcounter19h
80000ff0: 23 a6 e7 0c  	sw	a4, 204(a5)
80000ff4: 73 27 40 b9  	csrr	a4, mhpmcounter20h
80000ff8: 23 a8 e7 0c  	sw	a4, 208(a5)
80000ffc: 73 27 50 b9  	csrr	a4, mhpmcounter21h
80001000: 23 aa e7 0c  	sw	a4, 212(a5)
80001004: 73 27 60 b9  	csrr	a4, mhpmcounter22h
80001008: 23 ac e7 0c  	sw	a4, 216(a5)
8000100c: 73 27 70 b9  	csrr	a4, mhpmcounter23h
80001010: 23 ae e7 0c  	sw	a4, 220(a5)
80001014: 73 27 80 b9  	csrr	a4, mhpmcounter24h
80001018: 23 a0 e7 0e  	sw	a4, 224(a5)
8000101c: 73 27 90 b9  	csrr	a4, mhpmcounter25h
80001020: 23 a2 e7 0e  	sw	a4, 228(a5)
80001024: 73 27 a0 b9  	csrr	a4, mhpmcounter26h
80001028: 23 a4 e7 0e  	sw	a4, 232(a5)
8000102c: 73 27 b0 b9  	csrr	a4, mhpmcounter27h
80001030: 23 a6 e7 0e  	sw	a4, 236(a5)
80001034: 73 27 c0 b9  	csrr	a4, mhpmcounter28h
80001038: 23 a8 e7 0e  	sw	a4, 240(a5)
8000103c: 73 27 d0 b9  	csrr	a4, mhpmcounter29h
80001040: 23 aa e7 0e  	sw	a4, 244(a5)
80001044: 73 27 e0 b9  	csrr	a4, mhpmcounter30h
80001048: 23 ac e7 0e  	sw	a4, 248(a5)
8000104c: 73 27 f0 b9  	csrr	a4, mhpmcounter31h
80001050: 23 ae e7 0e  	sw	a4, 252(a5)
80001054: 67 80 00 00  	ret

80001058 <cosf>:
80001058: d3 07 05 e0  	fmv.x.w	a5, fa0
8000105c: b7 16 49 3f  	lui	a3, 259217
80001060: 93 86 86 fd  	addi	a3, a3, -40
80001064: 13 97 17 00  	slli	a4, a5, 1
80001068: 13 57 17 00  	srli	a4, a4, 1
8000106c: 63 fc e6 04  	bgeu	a3, a4, 0x800010c4 <cosf+0x6c>
80001070: b7 06 80 7f  	lui	a3, 522240
80001074: 63 66 d7 00  	bltu	a4, a3, 0x80001080 <cosf+0x28>
80001078: 53 75 a5 08  	fsub.s	fa0, fa0, fa0
8000107c: 67 80 00 00  	ret
80001080: 13 01 01 fe  	addi	sp, sp, -32
80001084: 13 05 81 00  	addi	a0, sp, 8
80001088: 23 2e 11 00  	sw	ra, 28(sp)
8000108c: ef 00 00 11  	jal	0x8000119c <__ieee754_rem_pio2f>
80001090: 13 75 35 00  	andi	a0, a0, 3
80001094: 93 07 10 00  	li	a5, 1
80001098: 63 0a f5 02  	beq	a0, a5, 0x800010cc <cosf+0x74>
8000109c: 93 07 20 00  	li	a5, 2
800010a0: 87 25 c1 00  	flw	fa1, 12(sp)
800010a4: 07 25 81 00  	flw	fa0, 8(sp)
800010a8: 63 02 f5 04  	beq	a0, a5, 0x800010ec <cosf+0x94>
800010ac: 63 0c 05 02  	beqz	a0, 0x800010e4 <cosf+0x8c>
800010b0: 13 05 10 00  	li	a0, 1
800010b4: ef 00 10 64  	jal	0x80001ef4 <__kernel_sinf>
800010b8: 83 20 c1 01  	lw	ra, 28(sp)
800010bc: 13 01 01 02  	addi	sp, sp, 32
800010c0: 67 80 00 00  	ret
800010c4: d3 05 00 f0  	fmv.w.x	fa1, zero
800010c8: 6f 00 00 3f  	j	0x800014b8 <__kernel_cosf>
800010cc: 87 25 c1 00  	flw	fa1, 12(sp)
800010d0: 07 25 81 00  	flw	fa0, 8(sp)
800010d4: 13 05 10 00  	li	a0, 1
800010d8: ef 00 d0 61  	jal	0x80001ef4 <__kernel_sinf>
800010dc: 53 15 a5 20  	fneg.s	fa0, fa0
800010e0: 6f f0 9f fd  	j	0x800010b8 <cosf+0x60>
800010e4: ef 00 40 3d  	jal	0x800014b8 <__kernel_cosf>
800010e8: 6f f0 1f fd  	j	0x800010b8 <cosf+0x60>
800010ec: ef 00 c0 3c  	jal	0x800014b8 <__kernel_cosf>
800010f0: 53 15 a5 20  	fneg.s	fa0, fa0
800010f4: 6f f0 5f fc  	j	0x800010b8 <cosf+0x60>

800010f8 <sinf>:
800010f8: d3 07 05 e0  	fmv.x.w	a5, fa0
800010fc: b7 16 49 3f  	lui	a3, 259217
80001100: 93 86 86 fd  	addi	a3, a3, -40
80001104: 13 97 17 00  	slli	a4, a5, 1
80001108: 13 57 17 00  	srli	a4, a4, 1
8000110c: 63 fc e6 04  	bgeu	a3, a4, 0x80001164 <sinf+0x6c>
80001110: b7 06 80 7f  	lui	a3, 522240
80001114: 63 66 d7 00  	bltu	a4, a3, 0x80001120 <sinf+0x28>
80001118: 53 75 a5 08  	fsub.s	fa0, fa0, fa0
8000111c: 67 80 00 00  	ret
80001120: 13 01 01 fe  	addi	sp, sp, -32
80001124: 13 05 81 00  	addi	a0, sp, 8
80001128: 23 2e 11 00  	sw	ra, 28(sp)
8000112c: ef 00 00 07  	jal	0x8000119c <__ieee754_rem_pio2f>
80001130: 13 75 35 00  	andi	a0, a0, 3
80001134: 93 07 10 00  	li	a5, 1
80001138: 63 0c f5 02  	beq	a0, a5, 0x80001170 <sinf+0x78>
8000113c: 93 07 20 00  	li	a5, 2
80001140: 87 25 c1 00  	flw	fa1, 12(sp)
80001144: 07 25 81 00  	flw	fa0, 8(sp)
80001148: 63 02 f5 04  	beq	a0, a5, 0x8000118c <sinf+0x94>
8000114c: 63 0a 05 02  	beqz	a0, 0x80001180 <sinf+0x88>
80001150: ef 00 80 36  	jal	0x800014b8 <__kernel_cosf>
80001154: 53 15 a5 20  	fneg.s	fa0, fa0
80001158: 83 20 c1 01  	lw	ra, 28(sp)
8000115c: 13 01 01 02  	addi	sp, sp, 32
80001160: 67 80 00 00  	ret
80001164: d3 05 00 f0  	fmv.w.x	fa1, zero
80001168: 13 05 00 00  	li	a0, 0
8000116c: 6f 00 90 58  	j	0x80001ef4 <__kernel_sinf>
80001170: 87 25 c1 00  	flw	fa1, 12(sp)
80001174: 07 25 81 00  	flw	fa0, 8(sp)
80001178: ef 00 00 34  	jal	0x800014b8 <__kernel_cosf>
8000117c: 6f f0 df fd  	j	0x80001158 <sinf+0x60>
80001180: 13 05 10 00  	li	a0, 1
80001184: ef 00 10 57  	jal	0x80001ef4 <__kernel_sinf>
80001188: 6f f0 1f fd  	j	0x80001158 <sinf+0x60>
8000118c: 13 05 10 00  	li	a0, 1
80001190: ef 00 50 56  	jal	0x80001ef4 <__kernel_sinf>
80001194: 53 15 a5 20  	fneg.s	fa0, fa0
80001198: 6f f0 1f fc  	j	0x80001158 <sinf+0x60>

8000119c <__ieee754_rem_pio2f>:
8000119c: 13 01 01 fd  	addi	sp, sp, -48
800011a0: 23 22 91 02  	sw	s1, 36(sp)
800011a4: d3 04 05 e0  	fmv.x.w	s1, fa0
800011a8: 23 20 21 03  	sw	s2, 32(sp)
800011ac: 37 09 00 80  	lui	s2, 524288
800011b0: 23 24 81 02  	sw	s0, 40(sp)
800011b4: b7 17 49 3f  	lui	a5, 259217
800011b8: 13 44 f9 ff  	not	s0, s2
800011bc: 23 2e 31 01  	sw	s3, 28(sp)
800011c0: 23 26 11 02  	sw	ra, 44(sp)
800011c4: 23 2c 41 01  	sw	s4, 24(sp)
800011c8: 33 74 94 00  	and	s0, s0, s1
800011cc: 93 87 87 fd  	addi	a5, a5, -40
800011d0: 93 09 05 00  	mv	s3, a0
800011d4: 63 f6 87 12  	bgeu	a5, s0, 0x80001300 <__ieee754_rem_pio2f+0x164>
800011d8: b7 d7 16 40  	lui	a5, 262509
800011dc: 93 87 37 be  	addi	a5, a5, -1053
800011e0: 13 8a 04 00  	mv	s4, s1
800011e4: 63 e4 87 06  	bltu	a5, s0, 0x8000124c <__ieee754_rem_pio2f+0xb0>
800011e8: 97 37 00 00  	auipc	a5, 3
800011ec: 87 a7 87 d5  	flw	fa5, -680(a5)
800011f0: 13 49 09 ff  	xori	s2, s2, -16
800011f4: b7 17 c9 3f  	lui	a5, 261265
800011f8: 33 79 99 00  	and	s2, s2, s1
800011fc: 93 87 07 fd  	addi	a5, a5, -48
80001200: 63 54 90 26  	blez	s1, 0x80001468 <__ieee754_rem_pio2f+0x2cc>
80001204: d3 77 f5 08  	fsub.s	fa5, fa0, fa5
80001208: 63 0e f9 10  	beq	s2, a5, 0x80001324 <__ieee754_rem_pio2f+0x188>
8000120c: 97 37 00 00  	auipc	a5, 3
80001210: 87 a6 87 d3  	flw	fa3, -712(a5)
80001214: 53 f7 d7 08  	fsub.s	fa4, fa5, fa3
80001218: d3 f7 e7 08  	fsub.s	fa5, fa5, fa4
8000121c: d3 f7 d7 08  	fsub.s	fa5, fa5, fa3
80001220: 27 a0 e9 00  	fsw	fa4, 0(s3)
80001224: 27 a2 f9 00  	fsw	fa5, 4(s3)
80001228: 13 05 10 00  	li	a0, 1
8000122c: 83 20 c1 02  	lw	ra, 44(sp)
80001230: 03 24 81 02  	lw	s0, 40(sp)
80001234: 83 24 41 02  	lw	s1, 36(sp)
80001238: 03 29 01 02  	lw	s2, 32(sp)
8000123c: 83 29 c1 01  	lw	s3, 28(sp)
80001240: 03 2a 81 01  	lw	s4, 24(sp)
80001244: 13 01 01 03  	addi	sp, sp, 48
80001248: 67 80 00 00  	ret
8000124c: b7 17 49 43  	lui	a5, 275601
80001250: 93 87 07 f8  	addi	a5, a5, -128
80001254: 63 fa 87 0e  	bgeu	a5, s0, 0x80001348 <__ieee754_rem_pio2f+0x1ac>
80001258: b7 07 80 7f  	lui	a5, 522240
8000125c: 63 7a f4 0a  	bgeu	s0, a5, 0x80001310 <__ieee754_rem_pio2f+0x174>
80001260: 13 56 74 41  	srai	a2, s0, 23
80001264: 13 06 a6 f7  	addi	a2, a2, -134
80001268: 93 17 76 01  	slli	a5, a2, 23
8000126c: 33 04 f4 40  	sub	s0, s0, a5
80001270: d3 07 04 f0  	fmv.w.x	fa5, s0
80001274: 17 37 00 00  	auipc	a4, 3
80001278: 87 26 c7 ce  	flw	fa3, -788(a4)
8000127c: 53 06 00 f0  	fmv.w.x	fa2, zero
80001280: d3 97 07 c0  	fcvt.w.s	a5, fa5, rtz
80001284: 93 06 30 00  	li	a3, 3
80001288: 53 f7 07 d0  	fcvt.s.w	fa4, a5
8000128c: d3 f7 e7 08  	fsub.s	fa5, fa5, fa4
80001290: 27 22 e1 00  	fsw	fa4, 4(sp)
80001294: d3 f7 d7 10  	fmul.s	fa5, fa5, fa3
80001298: d3 97 07 c0  	fcvt.w.s	a5, fa5, rtz
8000129c: 53 f7 07 d0  	fcvt.s.w	fa4, a5
800012a0: d3 f7 e7 08  	fsub.s	fa5, fa5, fa4
800012a4: 27 24 e1 00  	fsw	fa4, 8(sp)
800012a8: d3 f7 d7 10  	fmul.s	fa5, fa5, fa3
800012ac: d3 a7 c7 a0  	feq.s	a5, fa5, fa2
800012b0: 27 26 f1 00  	fsw	fa5, 12(sp)
800012b4: 63 88 07 00  	beqz	a5, 0x800012c4 <__ieee754_rem_pio2f+0x128>
800012b8: d3 26 c7 a0  	feq.s	a3, fa4, fa2
800012bc: 93 b6 16 00  	seqz	a3, a3
800012c0: 93 86 16 00  	addi	a3, a3, 1
800012c4: 97 17 00 00  	auipc	a5, 1
800012c8: 93 87 07 40  	addi	a5, a5, 1024
800012cc: 13 07 20 00  	li	a4, 2
800012d0: 93 85 09 00  	mv	a1, s3
800012d4: 13 05 41 00  	addi	a0, sp, 4
800012d8: ef 00 c0 32  	jal	0x80001604 <__kernel_rem_pio2f>
800012dc: e3 58 0a f4  	bgez	s4, 0x8000122c <__ieee754_rem_pio2f+0x90>
800012e0: 07 a7 09 00  	flw	fa4, 0(s3)
800012e4: 87 a7 49 00  	flw	fa5, 4(s3)
800012e8: 33 05 a0 40  	neg	a0, a0
800012ec: 53 17 e7 20  	fneg.s	fa4, fa4
800012f0: d3 97 f7 20  	fneg.s	fa5, fa5
800012f4: 27 a0 e9 00  	fsw	fa4, 0(s3)
800012f8: 27 a2 f9 00  	fsw	fa5, 4(s3)
800012fc: 6f f0 1f f3  	j	0x8000122c <__ieee754_rem_pio2f+0x90>
80001300: 27 a0 a9 00  	fsw	fa0, 0(s3)
80001304: 23 22 05 00  	sw	zero, 4(a0)
80001308: 13 05 00 00  	li	a0, 0
8000130c: 6f f0 1f f2  	j	0x8000122c <__ieee754_rem_pio2f+0x90>
80001310: d3 77 a5 08  	fsub.s	fa5, fa0, fa0
80001314: 27 22 f5 00  	fsw	fa5, 4(a0)
80001318: 27 20 f5 00  	fsw	fa5, 0(a0)
8000131c: 13 05 00 00  	li	a0, 0
80001320: 6f f0 df f0  	j	0x8000122c <__ieee754_rem_pio2f+0x90>
80001324: 97 37 00 00  	auipc	a5, 3
80001328: 07 a7 47 c2  	flw	fa4, -988(a5)
8000132c: d3 f7 e7 08  	fsub.s	fa5, fa5, fa4
80001330: 97 37 00 00  	auipc	a5, 3
80001334: 87 a6 c7 c1  	flw	fa3, -996(a5)
80001338: 53 f7 d7 08  	fsub.s	fa4, fa5, fa3
8000133c: d3 f7 e7 08  	fsub.s	fa5, fa5, fa4
80001340: d3 f7 d7 08  	fsub.s	fa5, fa5, fa3
80001344: 6f f0 df ed  	j	0x80001220 <__ieee754_rem_pio2f+0x84>
80001348: ef 00 90 45  	jal	0x80001fa0 <fabsf>
8000134c: 97 37 00 00  	auipc	a5, 3
80001350: 87 a6 47 c0  	flw	fa3, -1020(a5)
80001354: 97 37 00 00  	auipc	a5, 3
80001358: 07 a6 07 c0  	flw	fa2, -1024(a5)
8000135c: c3 76 d5 60  	fmadd.s	fa3, fa0, fa3, fa2
80001360: 97 37 00 00  	auipc	a5, 3
80001364: 87 a7 07 be  	flw	fa5, -1056(a5)
80001368: 97 37 00 00  	auipc	a5, 3
8000136c: 07 a7 c7 bd  	flw	fa4, -1060(a5)
80001370: 93 07 f0 01  	li	a5, 31
80001374: 53 95 06 c0  	fcvt.w.s	a0, fa3, rtz
80001378: d3 76 05 d0  	fcvt.s.w	fa3, a0
8000137c: cb f7 f6 50  	fnmsub.s	fa5, fa3, fa5, fa0
80001380: 53 f7 e6 10  	fmul.s	fa4, fa3, fa4
80001384: 63 c0 a7 06  	blt	a5, a0, 0x800013e4 <__ieee754_rem_pio2f+0x248>
80001388: 13 07 f5 ff  	addi	a4, a0, -1
8000138c: 13 17 27 00  	slli	a4, a4, 2
80001390: 97 17 00 00  	auipc	a5, 1
80001394: 93 87 47 2b  	addi	a5, a5, 692
80001398: b3 87 e7 00  	add	a5, a5, a4
8000139c: 83 a7 07 00  	lw	a5, 0(a5)
800013a0: 13 49 09 f0  	xori	s2, s2, -256
800013a4: 33 79 99 00  	and	s2, s2, s1
800013a8: 63 0e f9 02  	beq	s2, a5, 0x800013e4 <__ieee754_rem_pio2f+0x248>
800013ac: d3 f6 e7 08  	fsub.s	fa3, fa5, fa4
800013b0: d3 87 06 e0  	fmv.x.w	a5, fa3
800013b4: d3 86 07 f0  	fmv.w.x	fa3, a5
800013b8: 23 a0 f9 00  	sw	a5, 0(s3)
800013bc: d3 f7 d7 08  	fsub.s	fa5, fa5, fa3
800013c0: d3 f7 e7 08  	fsub.s	fa5, fa5, fa4
800013c4: 27 a2 f9 00  	fsw	fa5, 4(s3)
800013c8: e3 52 0a e6  	bgez	s4, 0x8000122c <__ieee754_rem_pio2f+0x90>
800013cc: 53 97 d6 20  	fneg.s	fa4, fa3
800013d0: d3 97 f7 20  	fneg.s	fa5, fa5
800013d4: 33 05 a0 40  	neg	a0, a0
800013d8: 27 a0 e9 00  	fsw	fa4, 0(s3)
800013dc: 27 a2 f9 00  	fsw	fa5, 4(s3)
800013e0: 6f f0 df e4  	j	0x8000122c <__ieee754_rem_pio2f+0x90>
800013e4: 53 f6 e7 08  	fsub.s	fa2, fa5, fa4
800013e8: 13 54 74 41  	srai	s0, s0, 23
800013ec: 93 06 80 00  	li	a3, 8
800013f0: d3 07 06 e0  	fmv.x.w	a5, fa2
800013f4: 13 d7 77 01  	srli	a4, a5, 23
800013f8: 13 77 f7 0f  	andi	a4, a4, 255
800013fc: 33 07 e4 40  	sub	a4, s0, a4
80001400: e3 da e6 fa  	bge	a3, a4, 0x800013b4 <__ieee754_rem_pio2f+0x218>
80001404: 97 37 00 00  	auipc	a5, 3
80001408: 87 a5 47 b4  	flw	fa1, -1212(a5)
8000140c: 4b f6 b6 78  	fnmsub.s	fa2, fa3, fa1, fa5
80001410: 97 37 00 00  	auipc	a5, 3
80001414: 07 a7 c7 b3  	flw	fa4, -1220(a5)
80001418: 93 06 90 01  	li	a3, 25
8000141c: 53 f5 c7 08  	fsub.s	fa0, fa5, fa2
80001420: d3 07 c6 20  	fmv.s	fa5, fa2
80001424: cb f5 b6 50  	fnmsub.s	fa1, fa3, fa1, fa0
80001428: 47 f7 e6 58  	fmsub.s	fa4, fa3, fa4, fa1
8000142c: d3 75 e6 08  	fsub.s	fa1, fa2, fa4
80001430: d3 87 05 e0  	fmv.x.w	a5, fa1
80001434: 13 d7 77 01  	srli	a4, a5, 23
80001438: 13 77 f7 0f  	andi	a4, a4, 255
8000143c: 33 04 e4 40  	sub	s0, s0, a4
80001440: e3 da 86 f6  	bge	a3, s0, 0x800013b4 <__ieee754_rem_pio2f+0x218>
80001444: 97 37 00 00  	auipc	a5, 3
80001448: 87 a5 47 b1  	flw	fa1, -1260(a5)
8000144c: cb f7 b6 60  	fnmsub.s	fa5, fa3, fa1, fa2
80001450: 97 37 00 00  	auipc	a5, 3
80001454: 07 a7 c7 b0  	flw	fa4, -1268(a5)
80001458: 53 76 f6 08  	fsub.s	fa2, fa2, fa5
8000145c: cb f5 b6 60  	fnmsub.s	fa1, fa3, fa1, fa2
80001460: 47 f7 e6 58  	fmsub.s	fa4, fa3, fa4, fa1
80001464: 6f f0 9f f4  	j	0x800013ac <__ieee754_rem_pio2f+0x210>
80001468: d3 77 f5 00  	fadd.s	fa5, fa0, fa5
8000146c: 63 04 f9 02  	beq	s2, a5, 0x80001494 <__ieee754_rem_pio2f+0x2f8>
80001470: 97 37 00 00  	auipc	a5, 3
80001474: 87 a6 47 ad  	flw	fa3, -1324(a5)
80001478: 53 f7 d7 00  	fadd.s	fa4, fa5, fa3
8000147c: d3 f7 e7 08  	fsub.s	fa5, fa5, fa4
80001480: d3 f7 d7 00  	fadd.s	fa5, fa5, fa3
80001484: 27 a0 e9 00  	fsw	fa4, 0(s3)
80001488: 27 a2 f9 00  	fsw	fa5, 4(s3)
8000148c: 13 05 f0 ff  	li	a0, -1
80001490: 6f f0 df d9  	j	0x8000122c <__ieee754_rem_pio2f+0x90>
80001494: 97 37 00 00  	auipc	a5, 3
80001498: 07 a7 47 ab  	flw	fa4, -1356(a5)
8000149c: d3 f7 e7 00  	fadd.s	fa5, fa5, fa4
800014a0: 97 37 00 00  	auipc	a5, 3
800014a4: 87 a6 c7 aa  	flw	fa3, -1364(a5)
800014a8: 53 f7 d7 00  	fadd.s	fa4, fa5, fa3
800014ac: d3 f7 e7 08  	fsub.s	fa5, fa5, fa4
800014b0: d3 f7 d7 00  	fadd.s	fa5, fa5, fa3
800014b4: 6f f0 1f fd  	j	0x80001484 <__ieee754_rem_pio2f+0x2e8>

800014b8 <__kernel_cosf>:
800014b8: d3 07 05 e0  	fmv.x.w	a5, fa0
800014bc: b7 06 00 32  	lui	a3, 204800
800014c0: 13 97 17 00  	slli	a4, a5, 1
800014c4: 13 57 17 00  	srli	a4, a4, 1
800014c8: 63 70 d7 08  	bgeu	a4, a3, 0x80001548 <__kernel_cosf+0x90>
800014cc: 53 17 05 c0  	fcvt.w.s	a4, fa0, rtz
800014d0: 63 04 07 12  	beqz	a4, 0x800015f8 <__kernel_cosf+0x140>
800014d4: 53 77 a5 10  	fmul.s	fa4, fa0, fa0
800014d8: 17 37 00 00  	auipc	a4, 3
800014dc: 87 26 c7 a9  	flw	fa3, -1380(a4)
800014e0: 17 37 00 00  	auipc	a4, 3
800014e4: 87 27 07 a9  	flw	fa5, -1392(a4)
800014e8: 17 37 00 00  	auipc	a4, 3
800014ec: 07 20 07 a9  	flw	ft0, -1392(a4)
800014f0: 17 37 00 00  	auipc	a4, 3
800014f4: 07 25 c7 a8  	flw	fa0, -1396(a4)
800014f8: c3 77 f7 68  	fmadd.s	fa5, fa4, fa5, fa3
800014fc: 17 37 00 00  	auipc	a4, 3
80001500: 07 26 47 a8  	flw	fa2, -1404(a4)
80001504: 17 37 00 00  	auipc	a4, 3
80001508: 87 26 07 a8  	flw	fa3, -1408(a4)
8000150c: c3 f7 e7 00  	fmadd.s	fa5, fa5, fa4, ft0
80001510: c3 77 f7 50  	fmadd.s	fa5, fa4, fa5, fa0
80001514: c3 77 f7 60  	fmadd.s	fa5, fa4, fa5, fa2
80001518: c3 77 f7 68  	fmadd.s	fa5, fa4, fa5, fa3
8000151c: d3 77 f7 10  	fmul.s	fa5, fa4, fa5
80001520: d3 86 07 f0  	fmv.w.x	fa3, a5
80001524: 97 37 00 00  	auipc	a5, 3
80001528: 07 a5 87 a4  	flw	fa0, -1464(a5)
8000152c: d3 f5 b6 10  	fmul.s	fa1, fa3, fa1
80001530: 97 37 00 00  	auipc	a5, 3
80001534: 87 a6 47 a2  	flw	fa3, -1500(a5)
80001538: c7 77 f7 58  	fmsub.s	fa5, fa4, fa5, fa1
8000153c: c7 77 d7 78  	fmsub.s	fa5, fa4, fa3, fa5
80001540: 53 75 f5 08  	fsub.s	fa0, fa0, fa5
80001544: 67 80 00 00  	ret
80001548: 53 77 a5 10  	fmul.s	fa4, fa0, fa0
8000154c: 97 36 00 00  	auipc	a3, 3
80001550: 87 a6 86 a2  	flw	fa3, -1496(a3)
80001554: 97 36 00 00  	auipc	a3, 3
80001558: 87 a7 c6 a1  	flw	fa5, -1508(a3)
8000155c: 97 36 00 00  	auipc	a3, 3
80001560: 07 a0 c6 a1  	flw	ft0, -1508(a3)
80001564: 97 36 00 00  	auipc	a3, 3
80001568: 07 a5 86 a1  	flw	fa0, -1512(a3)
8000156c: c3 77 f7 68  	fmadd.s	fa5, fa4, fa5, fa3
80001570: 97 36 00 00  	auipc	a3, 3
80001574: 07 a6 06 a1  	flw	fa2, -1520(a3)
80001578: 97 36 00 00  	auipc	a3, 3
8000157c: 87 a6 c6 a0  	flw	fa3, -1524(a3)
80001580: b7 a6 99 3e  	lui	a3, 256410
80001584: 93 86 96 99  	addi	a3, a3, -1639
80001588: c3 f7 e7 00  	fmadd.s	fa5, fa5, fa4, ft0
8000158c: c3 f7 e7 50  	fmadd.s	fa5, fa5, fa4, fa0
80001590: c3 f7 e7 60  	fmadd.s	fa5, fa5, fa4, fa2
80001594: c3 f7 e7 68  	fmadd.s	fa5, fa5, fa4, fa3
80001598: d3 f7 e7 10  	fmul.s	fa5, fa5, fa4
8000159c: e3 f2 e6 f8  	bgeu	a3, a4, 0x80001520 <__kernel_cosf+0x68>
800015a0: b7 06 48 3f  	lui	a3, 259200
800015a4: 63 e0 e6 04  	bltu	a3, a4, 0x800015e4 <__kernel_cosf+0x12c>
800015a8: b7 06 00 ff  	lui	a3, 1044480
800015ac: 33 07 d7 00  	add	a4, a4, a3
800015b0: d3 06 07 f0  	fmv.w.x	fa3, a4
800015b4: 97 36 00 00  	auipc	a3, 3
800015b8: 07 a5 86 9b  	flw	fa0, -1608(a3)
800015bc: 53 75 d5 08  	fsub.s	fa0, fa0, fa3
800015c0: 53 86 07 f0  	fmv.w.x	fa2, a5
800015c4: d3 75 b6 10  	fmul.s	fa1, fa2, fa1
800015c8: 97 37 00 00  	auipc	a5, 3
800015cc: 07 a6 c7 98  	flw	fa2, -1652(a5)
800015d0: c7 76 c7 68  	fmsub.s	fa3, fa4, fa2, fa3
800015d4: c7 77 f7 58  	fmsub.s	fa5, fa4, fa5, fa1
800015d8: d3 f7 f6 08  	fsub.s	fa5, fa3, fa5
800015dc: 53 75 f5 08  	fsub.s	fa0, fa0, fa5
800015e0: 67 80 00 00  	ret
800015e4: 17 37 00 00  	auipc	a4, 3
800015e8: 07 25 07 98  	flw	fa0, -1664(a4)
800015ec: 17 37 00 00  	auipc	a4, 3
800015f0: 87 26 c7 97  	flw	fa3, -1668(a4)
800015f4: 6f f0 df fc  	j	0x800015c0 <__kernel_cosf+0x108>
800015f8: 97 37 00 00  	auipc	a5, 3
800015fc: 07 a5 47 97  	flw	fa0, -1676(a5)
80001600: 67 80 00 00  	ret

80001604 <__kernel_rem_pio2f>:
80001604: 13 01 01 e3  	addi	sp, sp, -464
80001608: 13 18 27 00  	slli	a6, a4, 2
8000160c: 23 22 e1 02  	sw	a4, 36(sp)
80001610: 17 17 00 00  	auipc	a4, 1
80001614: 13 07 87 3f  	addi	a4, a4, 1016
80001618: 23 24 81 1c  	sw	s0, 456(sp)
8000161c: 23 2e 31 1b  	sw	s3, 444(sp)
80001620: 23 26 71 1b  	sw	s7, 428(sp)
80001624: 33 07 07 01  	add	a4, a4, a6
80001628: 23 26 11 1c  	sw	ra, 460(sp)
8000162c: 23 22 91 1c  	sw	s1, 452(sp)
80001630: 23 20 21 1d  	sw	s2, 448(sp)
80001634: 23 2c 41 1b  	sw	s4, 440(sp)
80001638: 23 2a 51 1b  	sw	s5, 436(sp)
8000163c: 23 28 61 1b  	sw	s6, 432(sp)
80001640: 23 24 81 1b  	sw	s8, 424(sp)
80001644: 23 22 91 1b  	sw	s9, 420(sp)
80001648: 23 20 a1 1b  	sw	s10, 416(sp)
8000164c: 23 2e b1 19  	sw	s11, 412(sp)
80001650: 27 26 81 18  	fsw	fs0, 396(sp)
80001654: 27 24 91 18  	fsw	fs1, 392(sp)
80001658: 27 22 21 19  	fsw	fs2, 388(sp)
8000165c: 27 20 31 19  	fsw	fs3, 384(sp)
80001660: 27 2e 41 17  	fsw	fs4, 380(sp)
80001664: 27 2c 51 17  	fsw	fs5, 376(sp)
80001668: 27 2a 61 17  	fsw	fs6, 372(sp)
8000166c: 23 2a d1 00  	sw	a3, 20(sp)
80001670: 23 26 c1 02  	sw	a2, 44(sp)
80001674: 93 08 c0 ff  	li	a7, -4
80001678: 23 20 b1 02  	sw	a1, 32(sp)
8000167c: 23 2c f1 00  	sw	a5, 24(sp)
80001680: 83 2b 07 00  	lw	s7, 0(a4)
80001684: 93 09 05 00  	mv	s3, a0
80001688: 13 84 f6 ff  	addi	s0, a3, -1
8000168c: 63 44 16 7b  	blt	a2, a7, 0x80001e34 <__kernel_rem_pio2f+0x830>
80001690: 93 07 d6 ff  	addi	a5, a2, -3
80001694: 93 d4 f7 41  	srai	s1, a5, 31
80001698: 93 f4 74 00  	andi	s1, s1, 7
8000169c: b3 84 f4 00  	add	s1, s1, a5
800016a0: 93 d7 34 40  	srai	a5, s1, 3
800016a4: 93 8c 17 00  	addi	s9, a5, 1
800016a8: 23 28 f1 00  	sw	a5, 16(sp)
800016ac: 93 97 3c 00  	slli	a5, s9, 3
800016b0: 23 24 f1 02  	sw	a5, 40(sp)
800016b4: 83 27 c1 02  	lw	a5, 44(sp)
800016b8: 83 26 81 02  	lw	a3, 40(sp)
800016bc: 33 87 8b 00  	add	a4, s7, s0
800016c0: 33 8a d7 40  	sub	s4, a5, a3
800016c4: 83 27 01 01  	lw	a5, 16(sp)
800016c8: b3 87 87 40  	sub	a5, a5, s0
800016cc: 63 40 07 04  	bltz	a4, 0x8000170c <__kernel_rem_pio2f+0x108>
800016d0: 83 26 81 01  	lw	a3, 24(sp)
800016d4: 13 05 17 00  	addi	a0, a4, 1
800016d8: 93 95 27 00  	slli	a1, a5, 2
800016dc: 13 07 01 08  	addi	a4, sp, 128
800016e0: b3 85 b6 00  	add	a1, a3, a1
800016e4: 33 05 f5 00  	add	a0, a0, a5
800016e8: d3 07 00 f0  	fmv.w.x	fa5, zero
800016ec: 63 c6 07 00  	bltz	a5, 0x800016f8 <__kernel_rem_pio2f+0xf4>
800016f0: 03 a3 05 00  	lw	t1, 0(a1)
800016f4: d3 77 03 d0  	fcvt.s.w	fa5, t1
800016f8: 93 87 17 00  	addi	a5, a5, 1
800016fc: 27 20 f7 00  	fsw	fa5, 0(a4)
80001700: 13 07 47 00  	addi	a4, a4, 4
80001704: 93 85 45 00  	addi	a1, a1, 4
80001708: e3 90 a7 fe  	bne	a5, a0, 0x800016e8 <__kernel_rem_pio2f+0xe4>
8000170c: 63 c2 0b 06  	bltz	s7, 0x80001770 <__kernel_rem_pio2f+0x16c>
80001710: 93 17 24 00  	slli	a5, s0, 2
80001714: 13 07 01 08  	addi	a4, sp, 128
80001718: 93 85 47 00  	addi	a1, a5, 4
8000171c: 33 05 f7 00  	add	a0, a4, a5
80001720: 83 27 41 01  	lw	a5, 20(sp)
80001724: 13 0e 01 12  	addi	t3, sp, 288
80001728: 13 03 04 00  	mv	t1, s0
8000172c: b3 8e fb 00  	add	t4, s7, a5
80001730: b3 85 35 01  	add	a1, a1, s3
80001734: d3 07 00 f0  	fmv.w.x	fa5, zero
80001738: 13 07 05 00  	mv	a4, a0
8000173c: 93 87 09 00  	mv	a5, s3
80001740: 63 4e 04 00  	bltz	s0, 0x8000175c <__kernel_rem_pio2f+0x158>
80001744: 87 a6 07 00  	flw	fa3, 0(a5)
80001748: 07 27 07 00  	flw	fa4, 0(a4)
8000174c: 93 87 47 00  	addi	a5, a5, 4
80001750: 13 07 c7 ff  	addi	a4, a4, -4
80001754: c3 f7 e6 78  	fmadd.s	fa5, fa3, fa4, fa5
80001758: e3 96 b7 fe  	bne	a5, a1, 0x80001744 <__kernel_rem_pio2f+0x140>
8000175c: 27 20 fe 00  	fsw	fa5, 0(t3)
80001760: 13 03 13 00  	addi	t1, t1, 1
80001764: 13 0e 4e 00  	addi	t3, t3, 4
80001768: 13 05 45 00  	addi	a0, a0, 4
8000176c: e3 14 d3 fd  	bne	t1, t4, 0x80001734 <__kernel_rem_pio2f+0x130>
80001770: 03 27 41 01  	lw	a4, 20(sp)
80001774: 93 97 2b 00  	slli	a5, s7, 2
80001778: 93 0a 01 03  	addi	s5, sp, 48
8000177c: 13 8b 87 ff  	addi	s6, a5, -8
80001780: 13 1d 27 00  	slli	s10, a4, 2
80001784: 13 07 c1 02  	addi	a4, sp, 44
80001788: b3 04 f7 00  	add	s1, a4, a5
8000178c: b3 87 6a 01  	add	a5, s5, s6
80001790: 23 2e f1 00  	sw	a5, 28(sp)
80001794: 97 27 00 00  	auipc	a5, 2
80001798: 87 a4 87 7f  	flw	fs1, 2040(a5)
8000179c: 97 27 00 00  	auipc	a5, 2
800017a0: 07 a4 47 7f  	flw	fs0, 2036(a5)
800017a4: 97 27 00 00  	auipc	a5, 2
800017a8: 07 a9 87 7c  	flw	fs2, 1992(a5)
800017ac: b7 07 00 40  	lui	a5, 262144
800017b0: 93 87 f7 ff  	addi	a5, a5, -1
800017b4: 13 89 fb ff  	addi	s2, s7, -1
800017b8: 23 26 f1 00  	sw	a5, 12(sp)
800017bc: 13 19 29 00  	slli	s2, s2, 2
800017c0: 97 27 00 00  	auipc	a5, 2
800017c4: 87 aa 87 7c  	flw	fs5, 1992(a5)
800017c8: 97 27 00 00  	auipc	a5, 2
800017cc: 07 aa 87 79  	flw	fs4, 1944(a5)
800017d0: 97 27 00 00  	auipc	a5, 2
800017d4: 87 a9 47 78  	flw	fs3, 1924(a5)
800017d8: 93 07 09 14  	addi	a5, s2, 320
800017dc: 33 8d a9 01  	add	s10, s3, s10
800017e0: 13 8b 0b 00  	mv	s6, s7
800017e4: 33 89 57 01  	add	s2, a5, s5
800017e8: 93 1d 2b 00  	slli	s11, s6, 2
800017ec: 93 87 0d 14  	addi	a5, s11, 320
800017f0: 13 07 01 03  	addi	a4, sp, 48
800017f4: b3 87 e7 00  	add	a5, a5, a4
800017f8: 07 a5 07 fb  	flw	fa0, -80(a5)
800017fc: 63 56 60 05  	blez	s6, 0x80001848 <__kernel_rem_pio2f+0x244>
80001800: 83 27 c1 00  	lw	a5, 12(sp)
80001804: 13 0f 01 12  	addi	t5, sp, 288
80001808: 13 85 0a 00  	mv	a0, s5
8000180c: b3 07 fb 00  	add	a5, s6, a5
80001810: 93 97 27 00  	slli	a5, a5, 2
80001814: b3 07 ff 00  	add	a5, t5, a5
80001818: d3 77 55 11  	fmul.s	fa5, fa0, fs5
8000181c: 87 a6 07 00  	flw	fa3, 0(a5)
80001820: 13 05 45 00  	addi	a0, a0, 4
80001824: 13 8e 07 00  	mv	t3, a5
80001828: 93 87 c7 ff  	addi	a5, a5, -4
8000182c: d3 9e 07 c0  	fcvt.w.s	t4, fa5, rtz
80001830: d3 f7 0e d0  	fcvt.s.w	fa5, t4
80001834: 4b f7 47 51  	fnmsub.s	fa4, fa5, fs4, fa0
80001838: 53 f5 d7 00  	fadd.s	fa0, fa5, fa3
8000183c: d3 1e 07 c0  	fcvt.w.s	t4, fa4, rtz
80001840: 23 2e d5 ff  	sw	t4, -4(a0)
80001844: e3 1a cf fd  	bne	t5, t3, 0x80001818 <__kernel_rem_pio2f+0x214>
80001848: 13 05 0a 00  	mv	a0, s4
8000184c: ef 00 90 02  	jal	0x80002074 <scalbnf>
80001850: 53 0b a5 20  	fmv.s	fs6, fa0
80001854: 53 75 95 10  	fmul.s	fa0, fa0, fs1
80001858: ef 00 00 75  	jal	0x80001fa8 <floorf>
8000185c: cb 77 85 b0  	fnmsub.s	fa5, fa0, fs0, fs6
80001860: d3 9c 07 c0  	fcvt.w.s	s9, fa5, rtz
80001864: 53 f7 0c d0  	fcvt.s.w	fa4, s9
80001868: 53 fb e7 08  	fsub.s	fs6, fa5, fa4
8000186c: 63 5a 40 13  	blez	s4, 0x800019a0 <__kernel_rem_pio2f+0x39c>
80001870: 93 07 fb ff  	addi	a5, s6, -1
80001874: 93 97 27 00  	slli	a5, a5, 2
80001878: 93 87 07 14  	addi	a5, a5, 320
8000187c: 13 07 01 03  	addi	a4, sp, 48
80001880: b3 87 e7 00  	add	a5, a5, a4
80001884: 03 ae 07 ec  	lw	t3, -320(a5)
80001888: 13 05 80 00  	li	a0, 8
8000188c: 33 05 45 41  	sub	a0, a0, s4
80001890: 33 5f ae 40  	sra	t5, t3, a0
80001894: 33 15 af 00  	sll	a0, t5, a0
80001898: 33 0e ae 40  	sub	t3, t3, a0
8000189c: 13 05 70 00  	li	a0, 7
800018a0: 33 05 45 41  	sub	a0, a0, s4
800018a4: 23 a0 c7 ed  	sw	t3, -320(a5)
800018a8: 33 5c ae 40  	sra	s8, t3, a0
800018ac: b3 8c ec 01  	add	s9, s9, t5
800018b0: 63 48 80 31  	bgtz	s8, 0x80001bc0 <__kernel_rem_pio2f+0x5bc>
800018b4: 53 07 00 f0  	fmv.w.x	fa4, zero
800018b8: d3 27 eb a0  	feq.s	a5, fs6, fa4
800018bc: 63 80 07 1c  	beqz	a5, 0x80001a7c <__kernel_rem_pio2f+0x478>
800018c0: 63 d6 6b 03  	bge	s7, s6, 0x800018ec <__kernel_rem_pio2f+0x2e8>
800018c4: 83 27 c1 00  	lw	a5, 12(sp)
800018c8: 13 05 00 00  	li	a0, 0
800018cc: b3 07 fb 00  	add	a5, s6, a5
800018d0: 93 97 27 00  	slli	a5, a5, 2
800018d4: b3 87 fa 00  	add	a5, s5, a5
800018d8: 03 af 07 00  	lw	t5, 0(a5)
800018dc: 93 87 c7 ff  	addi	a5, a5, -4
800018e0: 33 65 e5 01  	or	a0, a0, t5
800018e4: e3 9a 97 fe  	bne	a5, s1, 0x800018d8 <__kernel_rem_pio2f+0x2d4>
800018e8: 63 10 05 32  	bnez	a0, 0x80001c08 <__kernel_rem_pio2f+0x604>
800018ec: 83 27 09 ec  	lw	a5, -320(s2)
800018f0: 63 94 07 30  	bnez	a5, 0x80001bf8 <__kernel_rem_pio2f+0x5f4>
800018f4: 83 27 c1 01  	lw	a5, 28(sp)
800018f8: 13 05 10 00  	li	a0, 1
800018fc: 03 ae 07 00  	lw	t3, 0(a5)
80001900: 13 05 15 00  	addi	a0, a0, 1
80001904: 93 87 c7 ff  	addi	a5, a5, -4
80001908: e3 0a 0e fe  	beqz	t3, 0x800018fc <__kernel_rem_pio2f+0x2f8>
8000190c: 93 07 1b 00  	addi	a5, s6, 1
80001910: 93 8f 07 00  	mv	t6, a5
80001914: 33 0f ab 00  	add	t5, s6, a0
80001918: 03 27 01 01  	lw	a4, 16(sp)
8000191c: 83 26 81 01  	lw	a3, 24(sp)
80001920: 33 0e f7 00  	add	t3, a4, a5
80001924: 03 27 41 01  	lw	a4, 20(sp)
80001928: 13 1e 2e 00  	slli	t3, t3, 2
8000192c: 33 8e c6 01  	add	t3, a3, t3
80001930: 33 07 67 01  	add	a4, a4, s6
80001934: 13 17 27 00  	slli	a4, a4, 2
80001938: 93 06 01 08  	addi	a3, sp, 128
8000193c: 93 97 27 00  	slli	a5, a5, 2
80001940: 33 85 e6 00  	add	a0, a3, a4
80001944: 13 07 01 12  	addi	a4, sp, 288
80001948: b3 0e f7 00  	add	t4, a4, a5
8000194c: 83 27 0e 00  	lw	a5, 0(t3)
80001950: d3 f7 07 d0  	fcvt.s.w	fa5, a5
80001954: 27 20 f5 00  	fsw	fa5, 0(a0)
80001958: d3 07 00 f0  	fmv.w.x	fa5, zero
8000195c: 63 42 04 02  	bltz	s0, 0x80001980 <__kernel_rem_pio2f+0x37c>
80001960: 13 07 05 00  	mv	a4, a0
80001964: 93 87 09 00  	mv	a5, s3
80001968: 87 a6 07 00  	flw	fa3, 0(a5)
8000196c: 07 27 07 00  	flw	fa4, 0(a4)
80001970: 93 87 47 00  	addi	a5, a5, 4
80001974: 13 07 c7 ff  	addi	a4, a4, -4
80001978: c3 f7 e6 78  	fmadd.s	fa5, fa3, fa4, fa5
8000197c: e3 96 a7 ff  	bne	a5, s10, 0x80001968 <__kernel_rem_pio2f+0x364>
80001980: 27 a0 fe 00  	fsw	fa5, 0(t4)
80001984: 93 8f 1f 00  	addi	t6, t6, 1
80001988: 13 0e 4e 00  	addi	t3, t3, 4
8000198c: 13 05 45 00  	addi	a0, a0, 4
80001990: 93 8e 4e 00  	addi	t4, t4, 4
80001994: e3 5c ff fb  	bge	t5, t6, 0x8000194c <__kernel_rem_pio2f+0x348>
80001998: 13 0b 0f 00  	mv	s6, t5
8000199c: 6f f0 df e4  	j	0x800017e8 <__kernel_rem_pio2f+0x1e4>
800019a0: 63 10 0a 20  	bnez	s4, 0x80001ba0 <__kernel_rem_pio2f+0x59c>
800019a4: 93 07 fb ff  	addi	a5, s6, -1
800019a8: 93 97 27 00  	slli	a5, a5, 2
800019ac: 93 87 07 14  	addi	a5, a5, 320
800019b0: 13 07 01 03  	addi	a4, sp, 48
800019b4: b3 87 e7 00  	add	a5, a5, a4
800019b8: 03 ae 07 ec  	lw	t3, -320(a5)
800019bc: 13 5c 7e 40  	srai	s8, t3, 7
800019c0: e3 5a 80 ef  	blez	s8, 0x800018b4 <__kernel_rem_pio2f+0x2b0>
800019c4: 93 8c 1c 00  	addi	s9, s9, 1
800019c8: 63 5c 60 4d  	blez	s6, 0x80001ea0 <__kernel_rem_pio2f+0x89c>
800019cc: 93 87 0a 00  	mv	a5, s5
800019d0: 13 0f 00 00  	li	t5, 0
800019d4: 93 0f 00 00  	li	t6, 0
800019d8: 93 03 f0 0f  	li	t2, 255
800019dc: 93 02 00 10  	li	t0, 256
800019e0: 03 a5 07 00  	lw	a0, 0(a5)
800019e4: 63 90 0f 02  	bnez	t6, 0x80001a04 <__kernel_rem_pio2f+0x400>
800019e8: b3 80 a2 40  	sub	ra, t0, a0
800019ec: 63 02 05 02  	beqz	a0, 0x80001a10 <__kernel_rem_pio2f+0x40c>
800019f0: 23 a0 17 00  	sw	ra, 0(a5)
800019f4: 13 0f 1f 00  	addi	t5, t5, 1
800019f8: 93 87 47 00  	addi	a5, a5, 4
800019fc: 63 58 6f 43  	bge	t5, s6, 0x80001e2c <__kernel_rem_pio2f+0x828>
80001a00: 03 a5 07 00  	lw	a0, 0(a5)
80001a04: 33 85 a3 40  	sub	a0, t2, a0
80001a08: 93 0f 10 00  	li	t6, 1
80001a0c: 23 a0 a7 00  	sw	a0, 0(a5)
80001a10: 13 0f 1f 00  	addi	t5, t5, 1
80001a14: 93 87 47 00  	addi	a5, a5, 4
80001a18: e3 44 6f fd  	blt	t5, s6, 0x800019e0 <__kernel_rem_pio2f+0x3dc>
80001a1c: 63 5a 40 03  	blez	s4, 0x80001a50 <__kernel_rem_pio2f+0x44c>
80001a20: 93 07 10 00  	li	a5, 1
80001a24: 63 08 fa 1a  	beq	s4, a5, 0x80001bd4 <__kernel_rem_pio2f+0x5d0>
80001a28: 93 07 20 00  	li	a5, 2
80001a2c: 63 12 fa 02  	bne	s4, a5, 0x80001a50 <__kernel_rem_pio2f+0x44c>
80001a30: 93 07 fb ff  	addi	a5, s6, -1
80001a34: 93 97 27 00  	slli	a5, a5, 2
80001a38: 93 87 07 14  	addi	a5, a5, 320
80001a3c: 13 07 01 03  	addi	a4, sp, 48
80001a40: b3 87 e7 00  	add	a5, a5, a4
80001a44: 03 a5 07 ec  	lw	a0, -320(a5)
80001a48: 13 75 f5 03  	andi	a0, a0, 63
80001a4c: 23 a0 a7 ec  	sw	a0, -320(a5)
80001a50: 93 07 20 00  	li	a5, 2
80001a54: e3 10 fc e6  	bne	s8, a5, 0x800018b4 <__kernel_rem_pio2f+0x2b0>
80001a58: 53 7b 69 09  	fsub.s	fs6, fs2, fs6
80001a5c: e3 8c 0f e4  	beqz	t6, 0x800018b4 <__kernel_rem_pio2f+0x2b0>
80001a60: 53 05 29 21  	fmv.s	fa0, fs2
80001a64: 13 05 0a 00  	mv	a0, s4
80001a68: ef 00 c0 60  	jal	0x80002074 <scalbnf>
80001a6c: 53 7b ab 08  	fsub.s	fs6, fs6, fa0
80001a70: 53 07 00 f0  	fmv.w.x	fa4, zero
80001a74: d3 27 eb a0  	feq.s	a5, fs6, fa4
80001a78: e3 94 07 e4  	bnez	a5, 0x800018c0 <__kernel_rem_pio2f+0x2bc>
80001a7c: 83 27 81 02  	lw	a5, 40(sp)
80001a80: 03 27 c1 02  	lw	a4, 44(sp)
80001a84: 53 05 6b 21  	fmv.s	fa0, fs6
80001a88: 33 85 e7 40  	sub	a0, a5, a4
80001a8c: ef 00 80 5e  	jal	0x80002074 <scalbnf>
80001a90: 97 27 00 00  	auipc	a5, 2
80001a94: 07 a7 07 4d  	flw	fa4, 1232(a5)
80001a98: d3 07 a7 a0  	fle.s	a5, fa4, fa0
80001a9c: 63 84 07 3a  	beqz	a5, 0x80001e44 <__kernel_rem_pio2f+0x840>
80001aa0: 97 27 00 00  	auipc	a5, 2
80001aa4: 87 a6 87 4e  	flw	fa3, 1256(a5)
80001aa8: d3 76 d5 10  	fmul.s	fa3, fa0, fa3
80001aac: 13 07 01 03  	addi	a4, sp, 48
80001ab0: 93 87 0d 14  	addi	a5, s11, 320
80001ab4: 13 04 1b 00  	addi	s0, s6, 1
80001ab8: b3 8d e7 00  	add	s11, a5, a4
80001abc: 93 17 24 00  	slli	a5, s0, 2
80001ac0: 93 87 07 14  	addi	a5, a5, 320
80001ac4: b3 87 e7 00  	add	a5, a5, a4
80001ac8: 53 97 06 c0  	fcvt.w.s	a4, fa3, rtz
80001acc: 13 0a 8a 00  	addi	s4, s4, 8
80001ad0: d3 76 07 d0  	fcvt.s.w	fa3, a4
80001ad4: 4b f7 e6 50  	fnmsub.s	fa4, fa3, fa4, fa0
80001ad8: 53 97 06 c0  	fcvt.w.s	a4, fa3, rtz
80001adc: 53 16 07 c0  	fcvt.w.s	a2, fa4, rtz
80001ae0: 23 a0 cd ec  	sw	a2, -320(s11)
80001ae4: 23 a0 e7 ec  	sw	a4, -320(a5)
80001ae8: 53 05 29 21  	fmv.s	fa0, fs2
80001aec: 13 05 0a 00  	mv	a0, s4
80001af0: ef 00 40 58  	jal	0x80002074 <scalbnf>
80001af4: 53 07 a5 20  	fmv.s	fa4, fa0
80001af8: 63 42 04 16  	bltz	s0, 0x80001c5c <__kernel_rem_pio2f+0x658>
80001afc: 13 15 24 00  	slli	a0, s0, 2
80001b00: 93 07 01 12  	addi	a5, sp, 288
80001b04: 33 88 a7 00  	add	a6, a5, a0
80001b08: 13 07 08 00  	mv	a4, a6
80001b0c: b3 87 aa 00  	add	a5, s5, a0
80001b10: 97 26 00 00  	auipc	a3, 2
80001b14: 87 a6 86 47  	flw	fa3, 1144(a3)
80001b18: 83 a5 07 00  	lw	a1, 0(a5)
80001b1c: 13 07 c7 ff  	addi	a4, a4, -4
80001b20: 13 86 07 00  	mv	a2, a5
80001b24: d3 f7 05 d0  	fcvt.s.w	fa5, a1
80001b28: 93 87 c7 ff  	addi	a5, a5, -4
80001b2c: d3 f7 e7 10  	fmul.s	fa5, fa5, fa4
80001b30: 53 77 d7 10  	fmul.s	fa4, fa4, fa3
80001b34: 27 22 f7 00  	fsw	fa5, 4(a4)
80001b38: e3 90 ca fe  	bne	s5, a2, 0x80001b18 <__kernel_rem_pio2f+0x514>
80001b3c: 13 03 01 0d  	addi	t1, sp, 208
80001b40: 93 08 03 00  	mv	a7, t1
80001b44: 93 05 00 00  	li	a1, 0
80001b48: d3 07 00 f0  	fmv.w.x	fa5, zero
80001b4c: 63 cc 0b 02  	bltz	s7, 0x80001b84 <__kernel_rem_pio2f+0x580>
80001b50: 17 17 00 00  	auipc	a4, 1
80001b54: 13 07 c7 e8  	addi	a4, a4, -372
80001b58: 13 06 08 00  	mv	a2, a6
80001b5c: 93 07 00 00  	li	a5, 0
80001b60: 6f 00 c0 00  	j	0x80001b6c <__kernel_rem_pio2f+0x568>
80001b64: 13 06 46 00  	addi	a2, a2, 4
80001b68: 63 ce f5 00  	blt	a1, a5, 0x80001b84 <__kernel_rem_pio2f+0x580>
80001b6c: 87 26 07 00  	flw	fa3, 0(a4)
80001b70: 07 27 06 00  	flw	fa4, 0(a2)
80001b74: 93 87 17 00  	addi	a5, a5, 1
80001b78: 13 07 47 00  	addi	a4, a4, 4
80001b7c: c3 f7 e6 78  	fmadd.s	fa5, fa3, fa4, fa5
80001b80: e3 d2 fb fe  	bge	s7, a5, 0x80001b64 <__kernel_rem_pio2f+0x560>
80001b84: 27 a0 f8 00  	fsw	fa5, 0(a7)
80001b88: 93 87 15 00  	addi	a5, a1, 1
80001b8c: 93 88 48 00  	addi	a7, a7, 4
80001b90: 13 08 c8 ff  	addi	a6, a6, -4
80001b94: 63 86 85 14  	beq	a1, s0, 0x80001ce0 <__kernel_rem_pio2f+0x6dc>
80001b98: 93 85 07 00  	mv	a1, a5
80001b9c: 6f f0 df fa  	j	0x80001b48 <__kernel_rem_pio2f+0x544>
80001ba0: d3 87 69 a1  	fle.s	a5, fs3, fs6
80001ba4: 13 0c 00 00  	li	s8, 0
80001ba8: e3 86 07 d0  	beqz	a5, 0x800018b4 <__kernel_rem_pio2f+0x2b0>
80001bac: 93 8c 1c 00  	addi	s9, s9, 1
80001bb0: 13 0c 20 00  	li	s8, 2
80001bb4: e3 4c 60 e1  	bgtz	s6, 0x800019cc <__kernel_rem_pio2f+0x3c8>
80001bb8: 53 7b 69 09  	fsub.s	fs6, fs2, fs6
80001bbc: 6f f0 9f cf  	j	0x800018b4 <__kernel_rem_pio2f+0x2b0>
80001bc0: 93 8c 1c 00  	addi	s9, s9, 1
80001bc4: 93 0f 00 00  	li	t6, 0
80001bc8: e3 42 60 e1  	bgtz	s6, 0x800019cc <__kernel_rem_pio2f+0x3c8>
80001bcc: 93 07 10 00  	li	a5, 1
80001bd0: e3 1c fa e4  	bne	s4, a5, 0x80001a28 <__kernel_rem_pio2f+0x424>
80001bd4: 93 07 fb ff  	addi	a5, s6, -1
80001bd8: 93 97 27 00  	slli	a5, a5, 2
80001bdc: 93 87 07 14  	addi	a5, a5, 320
80001be0: 13 07 01 03  	addi	a4, sp, 48
80001be4: b3 87 e7 00  	add	a5, a5, a4
80001be8: 03 a5 07 ec  	lw	a0, -320(a5)
80001bec: 13 75 f5 07  	andi	a0, a0, 127
80001bf0: 23 a0 a7 ec  	sw	a0, -320(a5)
80001bf4: 6f f0 df e5  	j	0x80001a50 <__kernel_rem_pio2f+0x44c>
80001bf8: 93 07 1b 00  	addi	a5, s6, 1
80001bfc: 93 8f 07 00  	mv	t6, a5
80001c00: 13 8f 07 00  	mv	t5, a5
80001c04: 6f f0 5f d1  	j	0x80001918 <__kernel_rem_pio2f+0x314>
80001c08: 13 04 fb ff  	addi	s0, s6, -1
80001c0c: 93 17 24 00  	slli	a5, s0, 2
80001c10: 93 87 07 14  	addi	a5, a5, 320
80001c14: 13 07 01 03  	addi	a4, sp, 48
80001c18: b3 87 e7 00  	add	a5, a5, a4
80001c1c: 83 a7 07 ec  	lw	a5, -320(a5)
80001c20: 13 0a 8a ff  	addi	s4, s4, -8
80001c24: e3 92 07 ec  	bnez	a5, 0x80001ae8 <__kernel_rem_pio2f+0x4e4>
80001c28: 93 17 2b 00  	slli	a5, s6, 2
80001c2c: 93 87 87 ff  	addi	a5, a5, -8
80001c30: b3 87 fa 00  	add	a5, s5, a5
80001c34: 03 a7 07 00  	lw	a4, 0(a5)
80001c38: 13 04 f4 ff  	addi	s0, s0, -1
80001c3c: 93 87 c7 ff  	addi	a5, a5, -4
80001c40: 13 0a 8a ff  	addi	s4, s4, -8
80001c44: e3 08 07 fe  	beqz	a4, 0x80001c34 <__kernel_rem_pio2f+0x630>
80001c48: 53 05 29 21  	fmv.s	fa0, fs2
80001c4c: 13 05 0a 00  	mv	a0, s4
80001c50: ef 00 40 42  	jal	0x80002074 <scalbnf>
80001c54: 53 07 a5 20  	fmv.s	fa4, fa0
80001c58: e3 52 04 ea  	bgez	s0, 0x80001afc <__kernel_rem_pio2f+0x4f8>
80001c5c: 03 27 41 02  	lw	a4, 36(sp)
80001c60: 93 07 20 00  	li	a5, 2
80001c64: 63 c6 e7 24  	blt	a5, a4, 0x80001eb0 <__kernel_rem_pio2f+0x8ac>
80001c68: 63 4e e0 24  	bgtz	a4, 0x80001ec4 <__kernel_rem_pio2f+0x8c0>
80001c6c: d3 07 00 f0  	fmv.w.x	fa5, zero
80001c70: 63 1a 07 00  	bnez	a4, 0x80001c84 <__kernel_rem_pio2f+0x680>
80001c74: 63 04 0c 00  	beqz	s8, 0x80001c7c <__kernel_rem_pio2f+0x678>
80001c78: d3 97 f7 20  	fneg.s	fa5, fa5
80001c7c: 83 27 01 02  	lw	a5, 32(sp)
80001c80: 27 a0 f7 00  	fsw	fa5, 0(a5)
80001c84: 83 20 c1 1c  	lw	ra, 460(sp)
80001c88: 03 24 81 1c  	lw	s0, 456(sp)
80001c8c: 83 24 41 1c  	lw	s1, 452(sp)
80001c90: 03 29 01 1c  	lw	s2, 448(sp)
80001c94: 83 29 c1 1b  	lw	s3, 444(sp)
80001c98: 03 2a 81 1b  	lw	s4, 440(sp)
80001c9c: 83 2a 41 1b  	lw	s5, 436(sp)
80001ca0: 03 2b 01 1b  	lw	s6, 432(sp)
80001ca4: 83 2b c1 1a  	lw	s7, 428(sp)
80001ca8: 03 2c 81 1a  	lw	s8, 424(sp)
80001cac: 03 2d 01 1a  	lw	s10, 416(sp)
80001cb0: 83 2d c1 19  	lw	s11, 412(sp)
80001cb4: 07 24 c1 18  	flw	fs0, 396(sp)
80001cb8: 87 24 81 18  	flw	fs1, 392(sp)
80001cbc: 07 29 41 18  	flw	fs2, 388(sp)
80001cc0: 87 29 01 18  	flw	fs3, 384(sp)
80001cc4: 07 2a c1 17  	flw	fs4, 380(sp)
80001cc8: 87 2a 81 17  	flw	fs5, 376(sp)
80001ccc: 07 2b 41 17  	flw	fs6, 372(sp)
80001cd0: 13 f5 7c 00  	andi	a0, s9, 7
80001cd4: 83 2c 41 1a  	lw	s9, 420(sp)
80001cd8: 13 01 01 1d  	addi	sp, sp, 464
80001cdc: 67 80 00 00  	ret
80001ce0: 03 27 41 02  	lw	a4, 36(sp)
80001ce4: 93 07 20 00  	li	a5, 2
80001ce8: 63 c6 e7 08  	blt	a5, a4, 0x80001d74 <__kernel_rem_pio2f+0x770>
80001cec: d3 07 00 f0  	fmv.w.x	fa5, zero
80001cf0: b3 07 a3 00  	add	a5, t1, a0
80001cf4: 63 42 e0 02  	bgtz	a4, 0x80001d18 <__kernel_rem_pio2f+0x714>
80001cf8: e3 16 07 f8  	bnez	a4, 0x80001c84 <__kernel_rem_pio2f+0x680>
80001cfc: 07 a7 07 00  	flw	fa4, 0(a5)
80001d00: 13 87 07 00  	mv	a4, a5
80001d04: 93 87 c7 ff  	addi	a5, a5, -4
80001d08: d3 f7 e7 00  	fadd.s	fa5, fa5, fa4
80001d0c: e3 18 e3 fe  	bne	t1, a4, 0x80001cfc <__kernel_rem_pio2f+0x6f8>
80001d10: e3 06 0c f6  	beqz	s8, 0x80001c7c <__kernel_rem_pio2f+0x678>
80001d14: 6f f0 5f f6  	j	0x80001c78 <__kernel_rem_pio2f+0x674>
80001d18: 07 a7 07 00  	flw	fa4, 0(a5)
80001d1c: 13 87 07 00  	mv	a4, a5
80001d20: 93 87 c7 ff  	addi	a5, a5, -4
80001d24: d3 f7 e7 00  	fadd.s	fa5, fa5, fa4
80001d28: e3 18 e3 fe  	bne	t1, a4, 0x80001d18 <__kernel_rem_pio2f+0x714>
80001d2c: 63 1a 0c 12  	bnez	s8, 0x80001e60 <__kernel_rem_pio2f+0x85c>
80001d30: 83 27 01 02  	lw	a5, 32(sp)
80001d34: 07 27 01 0d  	flw	fa4, 208(sp)
80001d38: 27 a0 f7 00  	fsw	fa5, 0(a5)
80001d3c: d3 77 f7 08  	fsub.s	fa5, fa4, fa5
80001d40: 63 04 04 02  	beqz	s0, 0x80001d68 <__kernel_rem_pio2f+0x764>
80001d44: 13 07 41 0d  	addi	a4, sp, 212
80001d48: 93 07 10 00  	li	a5, 1
80001d4c: 07 27 07 00  	flw	fa4, 0(a4)
80001d50: 93 87 17 00  	addi	a5, a5, 1
80001d54: 13 07 47 00  	addi	a4, a4, 4
80001d58: d3 f7 e7 00  	fadd.s	fa5, fa5, fa4
80001d5c: e3 58 f4 fe  	bge	s0, a5, 0x80001d4c <__kernel_rem_pio2f+0x748>
80001d60: 63 04 0c 00  	beqz	s8, 0x80001d68 <__kernel_rem_pio2f+0x764>
80001d64: d3 97 f7 20  	fneg.s	fa5, fa5
80001d68: 83 27 01 02  	lw	a5, 32(sp)
80001d6c: 27 a2 f7 00  	fsw	fa5, 4(a5)
80001d70: 6f f0 5f f1  	j	0x80001c84 <__kernel_rem_pio2f+0x680>
80001d74: 03 27 41 02  	lw	a4, 36(sp)
80001d78: 93 07 30 00  	li	a5, 3
80001d7c: e3 14 f7 f0  	bne	a4, a5, 0x80001c84 <__kernel_rem_pio2f+0x680>
80001d80: 63 0e 04 12  	beqz	s0, 0x80001ebc <__kernel_rem_pio2f+0x8b8>
80001d84: b3 06 a3 00  	add	a3, t1, a0
80001d88: 93 07 c5 ff  	addi	a5, a0, -4
80001d8c: 07 a7 06 00  	flw	fa4, 0(a3)
80001d90: b3 07 f3 00  	add	a5, t1, a5
80001d94: 13 87 07 00  	mv	a4, a5
80001d98: 87 27 07 00  	flw	fa5, 0(a4)
80001d9c: d3 06 e7 20  	fmv.s	fa3, fa4
80001da0: 13 06 07 00  	mv	a2, a4
80001da4: 53 77 f7 00  	fadd.s	fa4, fa4, fa5
80001da8: 13 07 c7 ff  	addi	a4, a4, -4
80001dac: d3 f7 e7 08  	fsub.s	fa5, fa5, fa4
80001db0: 27 22 e7 00  	fsw	fa4, 4(a4)
80001db4: d3 f7 d7 00  	fadd.s	fa5, fa5, fa3
80001db8: 27 24 f7 00  	fsw	fa5, 8(a4)
80001dbc: e3 1e 66 fc  	bne	a2, t1, 0x80001d98 <__kernel_rem_pio2f+0x794>
80001dc0: 13 07 10 00  	li	a4, 1
80001dc4: 63 0c e4 0e  	beq	s0, a4, 0x80001ebc <__kernel_rem_pio2f+0x8b8>
80001dc8: 07 a7 06 00  	flw	fa4, 0(a3)
80001dcc: 87 a7 07 00  	flw	fa5, 0(a5)
80001dd0: d3 06 e7 20  	fmv.s	fa3, fa4
80001dd4: 13 87 07 00  	mv	a4, a5
80001dd8: 53 77 f7 00  	fadd.s	fa4, fa4, fa5
80001ddc: 93 87 c7 ff  	addi	a5, a5, -4
80001de0: d3 f7 e7 08  	fsub.s	fa5, fa5, fa4
80001de4: 27 a2 e7 00  	fsw	fa4, 4(a5)
80001de8: d3 f7 d7 00  	fadd.s	fa5, fa5, fa3
80001dec: 27 a4 f7 00  	fsw	fa5, 8(a5)
80001df0: e3 1e f3 fc  	bne	t1, a5, 0x80001dcc <__kernel_rem_pio2f+0x7c8>
80001df4: d3 07 00 f0  	fmv.w.x	fa5, zero
80001df8: 93 87 06 00  	mv	a5, a3
80001dfc: 07 a7 07 00  	flw	fa4, 0(a5)
80001e00: 93 87 c7 ff  	addi	a5, a5, -4
80001e04: d3 f7 e7 00  	fadd.s	fa5, fa5, fa4
80001e08: e3 1a f7 fe  	bne	a4, a5, 0x80001dfc <__kernel_rem_pio2f+0x7f8>
80001e0c: 87 26 01 0d  	flw	fa3, 208(sp)
80001e10: 07 27 41 0d  	flw	fa4, 212(sp)
80001e14: 63 16 0c 06  	bnez	s8, 0x80001e80 <__kernel_rem_pio2f+0x87c>
80001e18: 83 27 01 02  	lw	a5, 32(sp)
80001e1c: 27 a0 d7 00  	fsw	fa3, 0(a5)
80001e20: 27 a2 e7 00  	fsw	fa4, 4(a5)
80001e24: 27 a4 f7 00  	fsw	fa5, 8(a5)
80001e28: 6f f0 df e5  	j	0x80001c84 <__kernel_rem_pio2f+0x680>
80001e2c: 93 0f 10 00  	li	t6, 1
80001e30: 6f f0 df be  	j	0x80001a1c <__kernel_rem_pio2f+0x418>
80001e34: 93 07 80 00  	li	a5, 8
80001e38: 23 24 f1 02  	sw	a5, 40(sp)
80001e3c: 23 28 01 00  	sw	zero, 16(sp)
80001e40: 6f f0 5f 87  	j	0x800016b4 <__kernel_rem_pio2f+0xb0>
80001e44: d3 17 05 c0  	fcvt.w.s	a5, fa0, rtz
80001e48: 13 87 0d 14  	addi	a4, s11, 320
80001e4c: 93 06 01 03  	addi	a3, sp, 48
80001e50: b3 0d d7 00  	add	s11, a4, a3
80001e54: 13 04 0b 00  	mv	s0, s6
80001e58: 23 a0 fd ec  	sw	a5, -320(s11)
80001e5c: 6f f0 df c8  	j	0x80001ae8 <__kernel_rem_pio2f+0x4e4>
80001e60: 53 97 f7 20  	fneg.s	fa4, fa5
80001e64: 83 27 01 02  	lw	a5, 32(sp)
80001e68: 27 a0 e7 00  	fsw	fa4, 0(a5)
80001e6c: 07 27 01 0d  	flw	fa4, 208(sp)
80001e70: d3 77 f7 08  	fsub.s	fa5, fa4, fa5
80001e74: e3 18 04 ec  	bnez	s0, 0x80001d44 <__kernel_rem_pio2f+0x740>
80001e78: d3 97 f7 20  	fneg.s	fa5, fa5
80001e7c: 6f f0 df ee  	j	0x80001d68 <__kernel_rem_pio2f+0x764>
80001e80: 83 27 01 02  	lw	a5, 32(sp)
80001e84: d3 96 d6 20  	fneg.s	fa3, fa3
80001e88: 53 17 e7 20  	fneg.s	fa4, fa4
80001e8c: d3 97 f7 20  	fneg.s	fa5, fa5
80001e90: 27 a0 d7 00  	fsw	fa3, 0(a5)
80001e94: 27 a2 e7 00  	fsw	fa4, 4(a5)
80001e98: 27 a4 f7 00  	fsw	fa5, 8(a5)
80001e9c: 6f f0 9f de  	j	0x80001c84 <__kernel_rem_pio2f+0x680>
80001ea0: 93 07 20 00  	li	a5, 2
80001ea4: e3 18 fc a0  	bne	s8, a5, 0x800018b4 <__kernel_rem_pio2f+0x2b0>
80001ea8: 53 7b 69 09  	fsub.s	fs6, fs2, fs6
80001eac: 6f f0 9f a0  	j	0x800018b4 <__kernel_rem_pio2f+0x2b0>
80001eb0: 03 27 41 02  	lw	a4, 36(sp)
80001eb4: 93 07 30 00  	li	a5, 3
80001eb8: e3 16 f7 dc  	bne	a4, a5, 0x80001c84 <__kernel_rem_pio2f+0x680>
80001ebc: d3 07 00 f0  	fmv.w.x	fa5, zero
80001ec0: 6f f0 df f4  	j	0x80001e0c <__kernel_rem_pio2f+0x808>
80001ec4: 63 1a 0c 00  	bnez	s8, 0x80001ed8 <__kernel_rem_pio2f+0x8d4>
80001ec8: 83 27 01 02  	lw	a5, 32(sp)
80001ecc: 87 27 01 0d  	flw	fa5, 208(sp)
80001ed0: 23 a0 07 00  	sw	zero, 0(a5)
80001ed4: 6f f0 5f e9  	j	0x80001d68 <__kernel_rem_pio2f+0x764>
80001ed8: 97 27 00 00  	auipc	a5, 2
80001edc: 07 a7 c7 0b  	flw	fa4, 188(a5)
80001ee0: 87 27 01 0d  	flw	fa5, 208(sp)
80001ee4: 83 27 01 02  	lw	a5, 32(sp)
80001ee8: d3 97 f7 20  	fneg.s	fa5, fa5
80001eec: 27 a0 e7 00  	fsw	fa4, 0(a5)
80001ef0: 6f f0 9f e7  	j	0x80001d68 <__kernel_rem_pio2f+0x764>

80001ef4 <__kernel_sinf>:
80001ef4: d3 07 05 e0  	fmv.x.w	a5, fa0
80001ef8: b7 06 00 32  	lui	a3, 204800
80001efc: 13 97 17 00  	slli	a4, a5, 1
80001f00: 13 57 17 00  	srli	a4, a4, 1
80001f04: 63 76 d7 00  	bgeu	a4, a3, 0x80001f10 <__kernel_sinf+0x1c>
80001f08: 53 17 05 c0  	fcvt.w.s	a4, fa0, rtz
80001f0c: 63 08 07 08  	beqz	a4, 0x80001f9c <__kernel_sinf+0xa8>
80001f10: d3 87 07 f0  	fmv.w.x	fa5, a5
80001f14: 17 27 00 00  	auipc	a4, 2
80001f18: 87 26 87 08  	flw	fa3, 136(a4)
80001f1c: 17 27 00 00  	auipc	a4, 2
80001f20: 07 20 47 08  	flw	ft0, 132(a4)
80001f24: 53 f7 f7 10  	fmul.s	fa4, fa5, fa5
80001f28: 17 27 00 00  	auipc	a4, 2
80001f2c: 87 27 07 07  	flw	fa5, 112(a4)
80001f30: 17 27 00 00  	auipc	a4, 2
80001f34: 07 26 47 07  	flw	fa2, 116(a4)
80001f38: 53 85 07 f0  	fmv.w.x	fa0, a5
80001f3c: c3 77 f7 68  	fmadd.s	fa5, fa4, fa5, fa3
80001f40: 17 27 00 00  	auipc	a4, 2
80001f44: 87 26 87 06  	flw	fa3, 104(a4)
80001f48: 53 75 e5 10  	fmul.s	fa0, fa0, fa4
80001f4c: c3 f7 e7 00  	fmadd.s	fa5, fa5, fa4, ft0
80001f50: c3 f7 e7 60  	fmadd.s	fa5, fa5, fa4, fa2
80001f54: c3 f7 e7 68  	fmadd.s	fa5, fa5, fa4, fa3
80001f58: 63 1e 05 00  	bnez	a0, 0x80001f74 <__kernel_sinf+0x80>
80001f5c: 17 27 00 00  	auipc	a4, 2
80001f60: 87 26 07 05  	flw	fa3, 80(a4)
80001f64: 43 77 f7 68  	fmadd.s	fa4, fa4, fa5, fa3
80001f68: d3 87 07 f0  	fmv.w.x	fa5, a5
80001f6c: 43 75 a7 78  	fmadd.s	fa0, fa4, fa0, fa5
80001f70: 67 80 00 00  	ret
80001f74: d3 77 f5 10  	fmul.s	fa5, fa0, fa5
80001f78: 17 27 00 00  	auipc	a4, 2
80001f7c: 87 26 c7 fd  	flw	fa3, -36(a4)
80001f80: 17 27 00 00  	auipc	a4, 2
80001f84: 07 26 07 03  	flw	fa2, 48(a4)
80001f88: c7 f7 d5 78  	fmsub.s	fa5, fa1, fa3, fa5
80001f8c: c7 f7 e7 58  	fmsub.s	fa5, fa5, fa4, fa1
80001f90: 43 75 c5 78  	fmadd.s	fa0, fa0, fa2, fa5
80001f94: d3 87 07 f0  	fmv.w.x	fa5, a5
80001f98: 53 f5 a7 08  	fsub.s	fa0, fa5, fa0
80001f9c: 67 80 00 00  	ret

80001fa0 <fabsf>:
80001fa0: 53 25 a5 20  	fabs.s	fa0, fa0
80001fa4: 67 80 00 00  	ret

80001fa8 <floorf>:
80001fa8: d3 07 05 e0  	fmv.x.w	a5, fa0
80001fac: 13 06 60 01  	li	a2, 22
80001fb0: 93 96 17 00  	slli	a3, a5, 1
80001fb4: 13 d7 86 01  	srli	a4, a3, 24
80001fb8: 13 07 17 f8  	addi	a4, a4, -127
80001fbc: 93 d6 16 00  	srli	a3, a3, 1
80001fc0: 63 46 e6 08  	blt	a2, a4, 0x8000204c <floorf+0xa4>
80001fc4: 13 85 07 00  	mv	a0, a5
80001fc8: 63 48 07 04  	bltz	a4, 0x80002018 <floorf+0x70>
80001fcc: b7 05 80 00  	lui	a1, 2048
80001fd0: 93 86 f5 ff  	addi	a3, a1, -1
80001fd4: b3 d6 e6 40  	sra	a3, a3, a4
80001fd8: 33 f8 f6 00  	and	a6, a3, a5
80001fdc: 53 06 05 e0  	fmv.x.w	a2, fa0
80001fe0: 63 08 08 02  	beqz	a6, 0x80002010 <floorf+0x68>
80001fe4: 17 28 00 00  	auipc	a6, 2
80001fe8: 87 27 48 fd  	flw	fa5, -44(a6)
80001fec: d3 77 f5 00  	fadd.s	fa5, fa0, fa5
80001ff0: 53 07 00 f0  	fmv.w.x	fa4, zero
80001ff4: 53 18 f7 a0  	flt.s	a6, fa4, fa5
80001ff8: 63 0c 08 00  	beqz	a6, 0x80002010 <floorf+0x68>
80001ffc: 63 d6 07 00  	bgez	a5, 0x80002008 <floorf+0x60>
80002000: b3 d5 e5 40  	sra	a1, a1, a4
80002004: 33 85 f5 00  	add	a0, a1, a5
80002008: 93 c6 f6 ff  	not	a3, a3
8000200c: 33 f6 a6 00  	and	a2, a3, a0
80002010: 53 05 06 f0  	fmv.w.x	fa0, a2
80002014: 67 80 00 00  	ret
80002018: 17 27 00 00  	auipc	a4, 2
8000201c: 87 27 07 fa  	flw	fa5, -96(a4)
80002020: d3 77 f5 00  	fadd.s	fa5, fa0, fa5
80002024: 53 07 00 f0  	fmv.w.x	fa4, zero
80002028: 53 06 05 e0  	fmv.x.w	a2, fa0
8000202c: 53 17 f7 a0  	flt.s	a4, fa4, fa5
80002030: e3 00 07 fe  	beqz	a4, 0x80002010 <floorf+0x68>
80002034: 53 06 07 e0  	fmv.x.w	a2, fa4
80002038: e3 dc 07 fc  	bgez	a5, 0x80002010 <floorf+0x68>
8000203c: 63 96 06 02  	bnez	a3, 0x80002068 <floorf+0xc0>
80002040: 17 26 00 00  	auipc	a2, 2
80002044: 03 26 46 f5  	lw	a2, -172(a2)
80002048: 6f f0 9f fc  	j	0x80002010 <floorf+0x68>
8000204c: 37 07 80 7f  	lui	a4, 522240
80002050: 53 06 05 e0  	fmv.x.w	a2, fa0
80002054: e3 ee e6 fa  	bltu	a3, a4, 0x80002010 <floorf+0x68>
80002058: d3 77 a5 00  	fadd.s	fa5, fa0, fa0
8000205c: 53 86 07 e0  	fmv.x.w	a2, fa5
80002060: 53 05 06 f0  	fmv.w.x	fa0, a2
80002064: 67 80 00 00  	ret
80002068: 17 26 00 00  	auipc	a2, 2
8000206c: 03 26 c6 f4  	lw	a2, -180(a2)
80002070: 6f f0 1f fa  	j	0x80002010 <floorf+0x68>

80002074 <scalbnf>:
80002074: d3 07 05 e0  	fmv.x.w	a5, fa0
80002078: 93 96 17 00  	slli	a3, a5, 1
8000207c: 13 d7 16 00  	srli	a4, a3, 1
80002080: 63 82 06 06  	beqz	a3, 0x800020e4 <scalbnf+0x70>
80002084: b7 06 80 7f  	lui	a3, 522240
80002088: 63 72 d7 06  	bgeu	a4, a3, 0x800020ec <scalbnf+0x78>
8000208c: 33 f6 d7 00  	and	a2, a5, a3
80002090: 63 16 06 06  	bnez	a2, 0x800020fc <scalbnf+0x88>
80002094: 17 27 00 00  	auipc	a4, 2
80002098: 87 27 87 f2  	flw	fa5, -216(a4)
8000209c: d3 77 f5 10  	fmul.s	fa5, fa0, fa5
800020a0: 37 47 ff ff  	lui	a4, 1048564
800020a4: 13 07 07 cb  	addi	a4, a4, -848
800020a8: d3 87 07 e0  	fmv.x.w	a5, fa5
800020ac: 63 4e e5 0a  	blt	a0, a4, 0x80002168 <scalbnf+0xf4>
800020b0: 13 d7 77 41  	srai	a4, a5, 23
800020b4: 13 77 f7 0f  	andi	a4, a4, 255
800020b8: 13 07 77 fe  	addi	a4, a4, -25
800020bc: 33 05 a7 00  	add	a0, a4, a0
800020c0: 13 07 e0 0f  	li	a4, 254
800020c4: 93 86 07 00  	mv	a3, a5
800020c8: 63 54 a7 04  	bge	a4, a0, 0x80002110 <scalbnf+0x9c>
800020cc: d3 87 07 f0  	fmv.w.x	fa5, a5
800020d0: 17 27 00 00  	auipc	a4, 2
800020d4: 07 27 87 ee  	flw	fa4, -280(a4)
800020d8: d3 07 f7 20  	fsgnj.s	fa5, fa4, fa5
800020dc: d3 f7 e7 10  	fmul.s	fa5, fa5, fa4
800020e0: d3 87 07 e0  	fmv.x.w	a5, fa5
800020e4: 53 85 07 f0  	fmv.w.x	fa0, a5
800020e8: 67 80 00 00  	ret
800020ec: d3 77 a5 00  	fadd.s	fa5, fa0, fa0
800020f0: d3 87 07 e0  	fmv.x.w	a5, fa5
800020f4: 53 85 07 f0  	fmv.w.x	fa0, a5
800020f8: 67 80 00 00  	ret
800020fc: 13 57 77 01  	srli	a4, a4, 23
80002100: 33 05 a7 00  	add	a0, a4, a0
80002104: 13 07 e0 0f  	li	a4, 254
80002108: 93 86 07 00  	mv	a3, a5
8000210c: e3 40 a7 fc  	blt	a4, a0, 0x800020cc <scalbnf+0x58>
80002110: 63 4e a0 02  	bgtz	a0, 0x8000214c <scalbnf+0xd8>
80002114: 13 07 a0 fe  	li	a4, -22
80002118: 63 44 e5 06  	blt	a0, a4, 0x80002180 <scalbnf+0x10c>
8000211c: b7 07 80 80  	lui	a5, 526336
80002120: 93 87 f7 ff  	addi	a5, a5, -1
80002124: 13 05 95 01  	addi	a0, a0, 25
80002128: b3 f6 f6 00  	and	a3, a3, a5
8000212c: 13 15 75 01  	slli	a0, a0, 23
80002130: 33 65 d5 00  	or	a0, a0, a3
80002134: 53 07 05 f0  	fmv.w.x	fa4, a0
80002138: 97 27 00 00  	auipc	a5, 2
8000213c: 87 a7 c7 e8  	flw	fa5, -372(a5)
80002140: d3 77 f7 10  	fmul.s	fa5, fa4, fa5
80002144: d3 87 07 e0  	fmv.x.w	a5, fa5
80002148: 6f f0 df f9  	j	0x800020e4 <scalbnf+0x70>
8000214c: b7 07 80 80  	lui	a5, 526336
80002150: 93 87 f7 ff  	addi	a5, a5, -1
80002154: 13 15 75 01  	slli	a0, a0, 23
80002158: b3 f6 f6 00  	and	a3, a3, a5
8000215c: b3 67 d5 00  	or	a5, a0, a3
80002160: 53 85 07 f0  	fmv.w.x	fa0, a5
80002164: 67 80 00 00  	ret
80002168: 53 87 07 f0  	fmv.w.x	fa4, a5
8000216c: 17 27 00 00  	auipc	a4, 2
80002170: 87 27 47 e5  	flw	fa5, -428(a4)
80002174: d3 77 f7 10  	fmul.s	fa5, fa4, fa5
80002178: d3 87 07 e0  	fmv.x.w	a5, fa5
8000217c: 6f f0 9f f6  	j	0x800020e4 <scalbnf+0x70>
80002180: d3 87 07 f0  	fmv.w.x	fa5, a5
80002184: 17 27 00 00  	auipc	a4, 2
80002188: 07 27 c7 e3  	flw	fa4, -452(a4)
8000218c: d3 07 f7 20  	fsgnj.s	fa5, fa4, fa5
80002190: d3 f7 e7 10  	fmul.s	fa5, fa5, fa4
80002194: d3 87 07 e0  	fmv.x.w	a5, fa5
80002198: 6f f0 df f4  	j	0x800020e4 <scalbnf+0x70>

8000219c <atexit>:
8000219c: 93 05 05 00  	mv	a1, a0
800021a0: 93 06 00 00  	li	a3, 0
800021a4: 13 06 00 00  	li	a2, 0
800021a8: 13 05 00 00  	li	a0, 0
800021ac: 6f 00 40 28  	j	0x80002430 <__register_exitproc>

800021b0 <memcpy>:
800021b0: b3 47 b5 00  	xor	a5, a0, a1
800021b4: 93 f7 37 00  	andi	a5, a5, 3
800021b8: b3 08 c5 00  	add	a7, a0, a2
800021bc: 63 94 07 06  	bnez	a5, 0x80002224 <memcpy+0x74>
800021c0: 93 07 30 00  	li	a5, 3
800021c4: 63 f0 c7 06  	bgeu	a5, a2, 0x80002224 <memcpy+0x74>
800021c8: 93 77 35 00  	andi	a5, a0, 3
800021cc: 13 07 05 00  	mv	a4, a0
800021d0: 63 9a 07 06  	bnez	a5, 0x80002244 <memcpy+0x94>
800021d4: 13 f6 c8 ff  	andi	a2, a7, -4
800021d8: b3 06 e6 40  	sub	a3, a2, a4
800021dc: 93 07 00 02  	li	a5, 32
800021e0: 63 ce d7 08  	blt	a5, a3, 0x8000227c <memcpy+0xcc>
800021e4: 93 86 05 00  	mv	a3, a1
800021e8: 93 07 07 00  	mv	a5, a4
800021ec: 63 78 c7 02  	bgeu	a4, a2, 0x8000221c <memcpy+0x6c>
800021f0: 03 a8 06 00  	lw	a6, 0(a3)
800021f4: 93 87 47 00  	addi	a5, a5, 4
800021f8: 93 86 46 00  	addi	a3, a3, 4
800021fc: 23 ae 07 ff  	sw	a6, -4(a5)
80002200: e3 e8 c7 fe  	bltu	a5, a2, 0x800021f0 <memcpy+0x40>
80002204: 93 07 f6 ff  	addi	a5, a2, -1
80002208: b3 87 e7 40  	sub	a5, a5, a4
8000220c: 93 f7 c7 ff  	andi	a5, a5, -4
80002210: 93 87 47 00  	addi	a5, a5, 4
80002214: 33 07 f7 00  	add	a4, a4, a5
80002218: b3 85 f5 00  	add	a1, a1, a5
8000221c: 63 68 17 01  	bltu	a4, a7, 0x8000222c <memcpy+0x7c>
80002220: 67 80 00 00  	ret
80002224: 13 07 05 00  	mv	a4, a0
80002228: 63 78 15 05  	bgeu	a0, a7, 0x80002278 <memcpy+0xc8>
8000222c: 83 c7 05 00  	lbu	a5, 0(a1)
80002230: 13 07 17 00  	addi	a4, a4, 1
80002234: 93 85 15 00  	addi	a1, a1, 1
80002238: a3 0f f7 fe  	sb	a5, -1(a4)
8000223c: e3 98 e8 fe  	bne	a7, a4, 0x8000222c <memcpy+0x7c>
80002240: 67 80 00 00  	ret
80002244: 83 c6 05 00  	lbu	a3, 0(a1)
80002248: 13 07 17 00  	addi	a4, a4, 1
8000224c: 93 77 37 00  	andi	a5, a4, 3
80002250: a3 0f d7 fe  	sb	a3, -1(a4)
80002254: 93 85 15 00  	addi	a1, a1, 1
80002258: e3 8e 07 f6  	beqz	a5, 0x800021d4 <memcpy+0x24>
8000225c: 83 c6 05 00  	lbu	a3, 0(a1)
80002260: 13 07 17 00  	addi	a4, a4, 1
80002264: 93 77 37 00  	andi	a5, a4, 3
80002268: a3 0f d7 fe  	sb	a3, -1(a4)
8000226c: 93 85 15 00  	addi	a1, a1, 1
80002270: e3 9a 07 fc  	bnez	a5, 0x80002244 <memcpy+0x94>
80002274: 6f f0 1f f6  	j	0x800021d4 <memcpy+0x24>
80002278: 67 80 00 00  	ret
8000227c: 13 01 01 ff  	addi	sp, sp, -16
80002280: 23 26 81 00  	sw	s0, 12(sp)
80002284: 13 04 00 02  	li	s0, 32
80002288: 83 a3 05 00  	lw	t2, 0(a1)
8000228c: 83 a2 45 00  	lw	t0, 4(a1)
80002290: 83 af 85 00  	lw	t6, 8(a1)
80002294: 03 af c5 00  	lw	t5, 12(a1)
80002298: 83 ae 05 01  	lw	t4, 16(a1)
8000229c: 03 ae 45 01  	lw	t3, 20(a1)
800022a0: 03 a3 85 01  	lw	t1, 24(a1)
800022a4: 03 a8 c5 01  	lw	a6, 28(a1)
800022a8: 83 a6 05 02  	lw	a3, 32(a1)
800022ac: 13 07 47 02  	addi	a4, a4, 36
800022b0: b3 07 e6 40  	sub	a5, a2, a4
800022b4: 23 2e 77 fc  	sw	t2, -36(a4)
800022b8: 23 20 57 fe  	sw	t0, -32(a4)
800022bc: 23 22 f7 ff  	sw	t6, -28(a4)
800022c0: 23 24 e7 ff  	sw	t5, -24(a4)
800022c4: 23 26 d7 ff  	sw	t4, -20(a4)
800022c8: 23 28 c7 ff  	sw	t3, -16(a4)
800022cc: 23 2a 67 fe  	sw	t1, -12(a4)
800022d0: 23 2c 07 ff  	sw	a6, -8(a4)
800022d4: 23 2e d7 fe  	sw	a3, -4(a4)
800022d8: 93 85 45 02  	addi	a1, a1, 36
800022dc: e3 46 f4 fa  	blt	s0, a5, 0x80002288 <memcpy+0xd8>
800022e0: 93 86 05 00  	mv	a3, a1
800022e4: 93 07 07 00  	mv	a5, a4
800022e8: 63 78 c7 02  	bgeu	a4, a2, 0x80002318 <memcpy+0x168>
800022ec: 03 a8 06 00  	lw	a6, 0(a3)
800022f0: 93 87 47 00  	addi	a5, a5, 4
800022f4: 93 86 46 00  	addi	a3, a3, 4
800022f8: 23 ae 07 ff  	sw	a6, -4(a5)
800022fc: e3 e8 c7 fe  	bltu	a5, a2, 0x800022ec <memcpy+0x13c>
80002300: 93 07 f6 ff  	addi	a5, a2, -1
80002304: b3 87 e7 40  	sub	a5, a5, a4
80002308: 93 f7 c7 ff  	andi	a5, a5, -4
8000230c: 93 87 47 00  	addi	a5, a5, 4
80002310: 33 07 f7 00  	add	a4, a4, a5
80002314: b3 85 f5 00  	add	a1, a1, a5
80002318: 63 68 17 01  	bltu	a4, a7, 0x80002328 <memcpy+0x178>
8000231c: 03 24 c1 00  	lw	s0, 12(sp)
80002320: 13 01 01 01  	addi	sp, sp, 16
80002324: 67 80 00 00  	ret
80002328: 83 c7 05 00  	lbu	a5, 0(a1)
8000232c: 13 07 17 00  	addi	a4, a4, 1
80002330: 93 85 15 00  	addi	a1, a1, 1
80002334: a3 0f f7 fe  	sb	a5, -1(a4)
80002338: e3 82 e8 fe  	beq	a7, a4, 0x8000231c <memcpy+0x16c>
8000233c: 83 c7 05 00  	lbu	a5, 0(a1)
80002340: 13 07 17 00  	addi	a4, a4, 1
80002344: 93 85 15 00  	addi	a1, a1, 1
80002348: a3 0f f7 fe  	sb	a5, -1(a4)
8000234c: e3 9e e8 fc  	bne	a7, a4, 0x80002328 <memcpy+0x178>
80002350: 6f f0 df fc  	j	0x8000231c <memcpy+0x16c>

80002354 <memset>:
80002354: 13 03 f0 00  	li	t1, 15
80002358: 13 07 05 00  	mv	a4, a0
8000235c: 63 7e c3 02  	bgeu	t1, a2, 0x80002398 <memset+0x44>
80002360: 93 77 f7 00  	andi	a5, a4, 15
80002364: 63 90 07 0a  	bnez	a5, 0x80002404 <memset+0xb0>
80002368: 63 92 05 08  	bnez	a1, 0x800023ec <memset+0x98>
8000236c: 93 76 06 ff  	andi	a3, a2, -16
80002370: 13 76 f6 00  	andi	a2, a2, 15
80002374: b3 86 e6 00  	add	a3, a3, a4
80002378: 23 20 b7 00  	sw	a1, 0(a4)
8000237c: 23 22 b7 00  	sw	a1, 4(a4)
80002380: 23 24 b7 00  	sw	a1, 8(a4)
80002384: 23 26 b7 00  	sw	a1, 12(a4)
80002388: 13 07 07 01  	addi	a4, a4, 16
8000238c: e3 66 d7 fe  	bltu	a4, a3, 0x80002378 <memset+0x24>
80002390: 63 14 06 00  	bnez	a2, 0x80002398 <memset+0x44>
80002394: 67 80 00 00  	ret
80002398: b3 06 c3 40  	sub	a3, t1, a2
8000239c: 93 96 26 00  	slli	a3, a3, 2
800023a0: 97 02 00 00  	auipc	t0, 0
800023a4: b3 86 56 00  	add	a3, a3, t0
800023a8: 67 80 c6 00  	jr	12(a3)
800023ac: 23 07 b7 00  	sb	a1, 14(a4)
800023b0: a3 06 b7 00  	sb	a1, 13(a4)
800023b4: 23 06 b7 00  	sb	a1, 12(a4)
800023b8: a3 05 b7 00  	sb	a1, 11(a4)
800023bc: 23 05 b7 00  	sb	a1, 10(a4)
800023c0: a3 04 b7 00  	sb	a1, 9(a4)
800023c4: 23 04 b7 00  	sb	a1, 8(a4)
800023c8: a3 03 b7 00  	sb	a1, 7(a4)
800023cc: 23 03 b7 00  	sb	a1, 6(a4)
800023d0: a3 02 b7 00  	sb	a1, 5(a4)
800023d4: 23 02 b7 00  	sb	a1, 4(a4)
800023d8: a3 01 b7 00  	sb	a1, 3(a4)
800023dc: 23 01 b7 00  	sb	a1, 2(a4)
800023e0: a3 00 b7 00  	sb	a1, 1(a4)
800023e4: 23 00 b7 00  	sb	a1, 0(a4)
800023e8: 67 80 00 00  	ret
800023ec: 93 f5 f5 0f  	andi	a1, a1, 255
800023f0: 93 96 85 00  	slli	a3, a1, 8
800023f4: b3 e5 d5 00  	or	a1, a1, a3
800023f8: 93 96 05 01  	slli	a3, a1, 16
800023fc: b3 e5 d5 00  	or	a1, a1, a3
80002400: 6f f0 df f6  	j	0x8000236c <memset+0x18>
80002404: 93 96 27 00  	slli	a3, a5, 2
80002408: 97 02 00 00  	auipc	t0, 0
8000240c: b3 86 56 00  	add	a3, a3, t0
80002410: 93 82 00 00  	mv	t0, ra
80002414: e7 80 06 fa  	jalr	-96(a3)
80002418: 93 80 02 00  	mv	ra, t0
8000241c: 93 87 07 ff  	addi	a5, a5, -16
80002420: 33 07 f7 40  	sub	a4, a4, a5
80002424: 33 06 f6 00  	add	a2, a2, a5
80002428: e3 78 c3 f6  	bgeu	t1, a2, 0x80002398 <memset+0x44>
8000242c: 6f f0 df f3  	j	0x80002368 <memset+0x14>

80002430 <__register_exitproc>:
80002430: 17 27 00 00  	auipc	a4, 2
80002434: 03 27 87 b9  	lw	a4, -1128(a4)
80002438: 83 27 87 14  	lw	a5, 328(a4)
8000243c: 63 8c 07 04  	beqz	a5, 0x80002494 <__register_exitproc+0x64>
80002440: 03 a7 47 00  	lw	a4, 4(a5)
80002444: 13 08 f0 01  	li	a6, 31
80002448: 63 4e e8 06  	blt	a6, a4, 0x800024c4 <__register_exitproc+0x94>
8000244c: 13 18 27 00  	slli	a6, a4, 2
80002450: 63 06 05 02  	beqz	a0, 0x8000247c <__register_exitproc+0x4c>
80002454: 33 83 07 01  	add	t1, a5, a6
80002458: 23 24 c3 08  	sw	a2, 136(t1)
8000245c: 83 a8 87 18  	lw	a7, 392(a5)
80002460: 13 06 10 00  	li	a2, 1
80002464: 33 16 e6 00  	sll	a2, a2, a4
80002468: b3 e8 c8 00  	or	a7, a7, a2
8000246c: 23 a4 17 19  	sw	a7, 392(a5)
80002470: 23 24 d3 10  	sw	a3, 264(t1)
80002474: 93 06 20 00  	li	a3, 2
80002478: 63 04 d5 02  	beq	a0, a3, 0x800024a0 <__register_exitproc+0x70>
8000247c: 13 07 17 00  	addi	a4, a4, 1
80002480: 23 a2 e7 00  	sw	a4, 4(a5)
80002484: b3 87 07 01  	add	a5, a5, a6
80002488: 23 a4 b7 00  	sw	a1, 8(a5)
8000248c: 13 05 00 00  	li	a0, 0
80002490: 67 80 00 00  	ret
80002494: 93 07 c7 14  	addi	a5, a4, 332
80002498: 23 24 f7 14  	sw	a5, 328(a4)
8000249c: 6f f0 5f fa  	j	0x80002440 <__register_exitproc+0x10>
800024a0: 83 a6 c7 18  	lw	a3, 396(a5)
800024a4: 13 07 17 00  	addi	a4, a4, 1
800024a8: 23 a2 e7 00  	sw	a4, 4(a5)
800024ac: b3 e6 c6 00  	or	a3, a3, a2
800024b0: 23 a6 d7 18  	sw	a3, 396(a5)
800024b4: b3 87 07 01  	add	a5, a5, a6
800024b8: 23 a4 b7 00  	sw	a1, 8(a5)
800024bc: 13 05 00 00  	li	a0, 0
800024c0: 67 80 00 00  	ret
800024c4: 13 05 f0 ff  	li	a0, -1
800024c8: 67 80 00 00  	ret

800024cc <__call_exitprocs>:
800024cc: 13 01 01 fd  	addi	sp, sp, -48
800024d0: 23 2c 41 01  	sw	s4, 24(sp)
800024d4: 17 2a 00 00  	auipc	s4, 2
800024d8: 03 2a 4a af  	lw	s4, -1292(s4)
800024dc: 23 20 21 03  	sw	s2, 32(sp)
800024e0: 03 29 8a 14  	lw	s2, 328(s4)
800024e4: 23 26 11 02  	sw	ra, 44(sp)
800024e8: 23 24 81 02  	sw	s0, 40(sp)
800024ec: 23 22 91 02  	sw	s1, 36(sp)
800024f0: 23 2e 31 01  	sw	s3, 28(sp)
800024f4: 23 2a 51 01  	sw	s5, 20(sp)
800024f8: 23 28 61 01  	sw	s6, 16(sp)
800024fc: 23 26 71 01  	sw	s7, 12(sp)
80002500: 23 24 81 01  	sw	s8, 8(sp)
80002504: 63 00 09 04  	beqz	s2, 0x80002544 <__call_exitprocs+0x78>
80002508: 13 0b 05 00  	mv	s6, a0
8000250c: 93 8b 05 00  	mv	s7, a1
80002510: 93 0a 10 00  	li	s5, 1
80002514: 93 09 f0 ff  	li	s3, -1
80002518: 83 24 49 00  	lw	s1, 4(s2)
8000251c: 13 84 f4 ff  	addi	s0, s1, -1
80002520: 63 42 04 02  	bltz	s0, 0x80002544 <__call_exitprocs+0x78>
80002524: 93 94 24 00  	slli	s1, s1, 2
80002528: b3 04 99 00  	add	s1, s2, s1
8000252c: 63 84 0b 04  	beqz	s7, 0x80002574 <__call_exitprocs+0xa8>
80002530: 83 a7 44 10  	lw	a5, 260(s1)
80002534: 63 80 77 05  	beq	a5, s7, 0x80002574 <__call_exitprocs+0xa8>
80002538: 13 04 f4 ff  	addi	s0, s0, -1
8000253c: 93 84 c4 ff  	addi	s1, s1, -4
80002540: e3 16 34 ff  	bne	s0, s3, 0x8000252c <__call_exitprocs+0x60>
80002544: 83 20 c1 02  	lw	ra, 44(sp)
80002548: 03 24 81 02  	lw	s0, 40(sp)
8000254c: 83 24 41 02  	lw	s1, 36(sp)
80002550: 03 29 01 02  	lw	s2, 32(sp)
80002554: 83 29 c1 01  	lw	s3, 28(sp)
80002558: 03 2a 81 01  	lw	s4, 24(sp)
8000255c: 83 2a 41 01  	lw	s5, 20(sp)
80002560: 03 2b 01 01  	lw	s6, 16(sp)
80002564: 83 2b c1 00  	lw	s7, 12(sp)
80002568: 03 2c 81 00  	lw	s8, 8(sp)
8000256c: 13 01 01 03  	addi	sp, sp, 48
80002570: 67 80 00 00  	ret
80002574: 83 27 49 00  	lw	a5, 4(s2)
80002578: 83 a6 44 00  	lw	a3, 4(s1)
8000257c: 93 87 f7 ff  	addi	a5, a5, -1
80002580: 63 8e 87 04  	beq	a5, s0, 0x800025dc <__call_exitprocs+0x110>
80002584: 23 a2 04 00  	sw	zero, 4(s1)
80002588: e3 88 06 fa  	beqz	a3, 0x80002538 <__call_exitprocs+0x6c>
8000258c: 83 27 89 18  	lw	a5, 392(s2)
80002590: 33 97 8a 00  	sll	a4, s5, s0
80002594: 03 2c 49 00  	lw	s8, 4(s2)
80002598: b3 77 f7 00  	and	a5, a4, a5
8000259c: 63 92 07 02  	bnez	a5, 0x800025c0 <__call_exitprocs+0xf4>
800025a0: e7 80 06 00  	jalr	a3
800025a4: 03 27 49 00  	lw	a4, 4(s2)
800025a8: 83 27 8a 14  	lw	a5, 328(s4)
800025ac: 63 14 87 01  	bne	a4, s8, 0x800025b4 <__call_exitprocs+0xe8>
800025b0: e3 84 27 f9  	beq	a5, s2, 0x80002538 <__call_exitprocs+0x6c>
800025b4: e3 88 07 f8  	beqz	a5, 0x80002544 <__call_exitprocs+0x78>
800025b8: 13 89 07 00  	mv	s2, a5
800025bc: 6f f0 df f5  	j	0x80002518 <__call_exitprocs+0x4c>
800025c0: 83 27 c9 18  	lw	a5, 396(s2)
800025c4: 83 a5 44 08  	lw	a1, 132(s1)
800025c8: 33 77 f7 00  	and	a4, a4, a5
800025cc: 63 1c 07 00  	bnez	a4, 0x800025e4 <__call_exitprocs+0x118>
800025d0: 13 05 0b 00  	mv	a0, s6
800025d4: e7 80 06 00  	jalr	a3
800025d8: 6f f0 df fc  	j	0x800025a4 <__call_exitprocs+0xd8>
800025dc: 23 22 89 00  	sw	s0, 4(s2)
800025e0: 6f f0 9f fa  	j	0x80002588 <__call_exitprocs+0xbc>
800025e4: 13 85 05 00  	mv	a0, a1
800025e8: e7 80 06 00  	jalr	a3
800025ec: 6f f0 9f fb  	j	0x800025a4 <__call_exitprocs+0xd8>

800025f0 <__clzsi2>:
800025f0: b7 07 01 00  	lui	a5, 16
800025f4: 63 7a f5 02  	bgeu	a0, a5, 0x80002628 <__clzsi2+0x38>
800025f8: 93 37 05 10  	sltiu	a5, a0, 256
800025fc: 93 c7 17 00  	xori	a5, a5, 1
80002600: 93 97 37 00  	slli	a5, a5, 3
80002604: 13 07 00 02  	li	a4, 32
80002608: 33 07 f7 40  	sub	a4, a4, a5
8000260c: 33 55 f5 00  	srl	a0, a0, a5
80002610: 97 07 00 00  	auipc	a5, 0
80002614: 93 87 47 40  	addi	a5, a5, 1028
80002618: b3 87 a7 00  	add	a5, a5, a0
8000261c: 03 c5 07 00  	lbu	a0, 0(a5)
80002620: 33 05 a7 40  	sub	a0, a4, a0
80002624: 67 80 00 00  	ret
80002628: 37 07 00 01  	lui	a4, 4096
8000262c: 93 07 00 01  	li	a5, 16
80002630: e3 6a e5 fc  	bltu	a0, a4, 0x80002604 <__clzsi2+0x14>
80002634: 93 07 80 01  	li	a5, 24
80002638: 6f f0 df fc  	j	0x80002604 <__clzsi2+0x14>

Disassembly of section .rodata:

8000263c <.rodata>:
8000263c: db 0f c9 c0  	<unknown>
80002640: 00 00        	<unknown>
80002642: 80 3d        	<unknown>

80002644 <npio2_hw>:
80002644: 00 0f        	<unknown>
80002646: c9 3f        	<unknown>
80002648: 00 0f        	<unknown>
8000264a: 49 40        	<unknown>
8000264c: 00 cb        	<unknown>
8000264e: 96 40        	<unknown>
80002650: 00 0f        	<unknown>
80002652: c9 40        	<unknown>
80002654: 00 53        	<unknown>
80002656: fb 40 00 cb  	<unknown>
8000265a: 16 41        	<unknown>
8000265c: 00 ed        	<unknown>
8000265e: 2f 41 00 0f  	<unknown>
80002662: 49 41        	<unknown>
80002664: 00 31        	<unknown>
80002666: 62 41        	<unknown>
80002668: 00 53        	<unknown>
8000266a: 7b 41 00 3a  	<unknown>
8000266e: 8a 41        	<unknown>
80002670: 00 cb        	<unknown>
80002672: 96 41        	<unknown>
80002674: 00 5c        	<unknown>
80002676: a3 41 00 ed  	<unknown>
8000267a: af 41 00 7e  	<unknown>
8000267e: bc 41        	<unknown>
80002680: 00 0f        	<unknown>
80002682: c9 41        	<unknown>
80002684: 00 a0        	<unknown>
80002686: d5 41        	<unknown>
80002688: 00 31        	<unknown>
8000268a: e2 41        	<unknown>
8000268c: 00 c2        	<unknown>
8000268e: ee 41        	<unknown>
80002690: 00 53        	<unknown>
80002692: fb 41 00 f2  	<unknown>
80002696: 03 42 00 3a  	lbu	tp, 928(zero)
8000269a: 0a 42        	<unknown>
8000269c: 00 83        	<unknown>
8000269e: 10 42        	<unknown>
800026a0: 00 cb        	<unknown>
800026a2: 16 42        	<unknown>
800026a4: 00 14        	<unknown>
800026a6: 1d 42        	<unknown>
800026a8: 00 5c        	<unknown>
800026aa: 23 42 00 a5  	<unknown>
800026ae: 29 42        	<unknown>
800026b0: 00 ed        	<unknown>
800026b2: 2f 42 00 36  	<unknown>
800026b6: 36 42        	<unknown>
800026b8: 00 7e        	<unknown>
800026ba: 3c 42        	<unknown>
800026bc: 00 c7        	<unknown>
800026be: 42 42        	<unknown>
800026c0: 00 0f        	<unknown>
800026c2: 49 42        	<unknown>

800026c4 <two_over_pi>:
800026c4: a2 00        	<unknown>
800026c6: 00 00        	<unknown>
800026c8: f9 00        	<unknown>
800026ca: 00 00        	<unknown>
800026cc: 83 00 00 00  	lb	ra, 0(zero)
800026d0: 6e 00        	<unknown>
800026d2: 00 00        	<unknown>
800026d4: 4e 00        	<unknown>
800026d6: 00 00        	<unknown>
800026d8: 44 00        	<unknown>
800026da: 00 00        	<unknown>
800026dc: 15 00        	<unknown>
800026de: 00 00        	<unknown>
800026e0: 29 00        	<unknown>
800026e2: 00 00        	<unknown>
800026e4: fc 00        	<unknown>
800026e6: 00 00        	<unknown>
800026e8: 27 00 00 00  	<unknown>
800026ec: 57 00 00 00  	<unknown>
800026f0: d1 00        	<unknown>
800026f2: 00 00        	<unknown>
800026f4: f5 00        	<unknown>
800026f6: 00 00        	<unknown>
800026f8: 34 00        	<unknown>
800026fa: 00 00        	<unknown>
800026fc: dd 00        	<unknown>
800026fe: 00 00        	<unknown>
80002700: c0 00        	<unknown>
80002702: 00 00        	<unknown>
80002704: db 00 00 00  	<unknown>
80002708: 62 00        	<unknown>
8000270a: 00 00        	<unknown>
8000270c: 95 00        	<unknown>
8000270e: 00 00        	<unknown>
80002710: 99 00        	<unknown>
80002712: 00 00        	<unknown>
80002714: 3c 00        	<unknown>
80002716: 00 00        	<unknown>
80002718: 43 00 00 00  	fmadd.s	ft0, ft0, ft0, ft0, rne
8000271c: 90 00        	<unknown>
8000271e: 00 00        	<unknown>
80002720: 41 00        	<unknown>
80002722: 00 00        	<unknown>
80002724: fe 00        	<unknown>
80002726: 00 00        	<unknown>
80002728: 51 00        	<unknown>
8000272a: 00 00        	<unknown>
8000272c: 63 00 00 00  	beqz	zero, 0x8000272c <two_over_pi+0x68>
80002730: ab 00 00 00  	vx_tex	ra, 0, zero, zero, zero
80002734: de 00        	<unknown>
80002736: 00 00        	<unknown>
80002738: bb 00 00 00  	<unknown>
8000273c: c5 00        	<unknown>
8000273e: 00 00        	<unknown>
80002740: 61 00        	<unknown>
80002742: 00 00        	<unknown>
80002744: b7 00 00 00  	lui	ra, 0
80002748: 24 00        	<unknown>
8000274a: 00 00        	<unknown>
8000274c: 6e 00        	<unknown>
8000274e: 00 00        	<unknown>
80002750: 3a 00        	<unknown>
80002752: 00 00        	<unknown>
80002754: 42 00        	<unknown>
80002756: 00 00        	<unknown>
80002758: 4d 00        	<unknown>
8000275a: 00 00        	<unknown>
8000275c: d2 00        	<unknown>
8000275e: 00 00        	<unknown>
80002760: e0 00        	<unknown>
80002762: 00 00        	<unknown>
80002764: 06 00        	<unknown>
80002766: 00 00        	<unknown>
80002768: 49 00        	<unknown>
8000276a: 00 00        	<unknown>
8000276c: 2e 00        	<unknown>
8000276e: 00 00        	<unknown>
80002770: ea 00        	<unknown>
80002772: 00 00        	<unknown>
80002774: 09 00        	<unknown>
80002776: 00 00        	<unknown>
80002778: d1 00        	<unknown>
8000277a: 00 00        	<unknown>
8000277c: 92 00        	<unknown>
8000277e: 00 00        	<unknown>
80002780: 1c 00        	<unknown>
80002782: 00 00        	<unknown>
80002784: fe 00        	<unknown>
80002786: 00 00        	<unknown>
80002788: 1d 00        	<unknown>
8000278a: 00 00        	<unknown>
8000278c: eb 00 00 00  	<unknown>
80002790: 1c 00        	<unknown>
80002792: 00 00        	<unknown>
80002794: b1 00        	<unknown>
80002796: 00 00        	<unknown>
80002798: 29 00        	<unknown>
8000279a: 00 00        	<unknown>
8000279c: a7 00 00 00  	<unknown>
800027a0: 3e 00        	<unknown>
800027a2: 00 00        	<unknown>
800027a4: e8 00        	<unknown>
800027a6: 00 00        	<unknown>
800027a8: 82 00        	<unknown>
800027aa: 00 00        	<unknown>
800027ac: 35 00        	<unknown>
800027ae: 00 00        	<unknown>
800027b0: f5 00        	<unknown>
800027b2: 00 00        	<unknown>
800027b4: 2e 00        	<unknown>
800027b6: 00 00        	<unknown>
800027b8: bb 00 00 00  	<unknown>
800027bc: 44 00        	<unknown>
800027be: 00 00        	<unknown>
800027c0: 84 00        	<unknown>
800027c2: 00 00        	<unknown>
800027c4: e9 00        	<unknown>
800027c6: 00 00        	<unknown>
800027c8: 9c 00        	<unknown>
800027ca: 00 00        	<unknown>
800027cc: 70 00        	<unknown>
800027ce: 00 00        	<unknown>
800027d0: 26 00        	<unknown>
800027d2: 00 00        	<unknown>
800027d4: b4 00        	<unknown>
800027d6: 00 00        	<unknown>
800027d8: 5f 00 00 00  	<unknown>
800027dc: 7e 00        	<unknown>
800027de: 00 00        	<unknown>
800027e0: 41 00        	<unknown>
800027e2: 00 00        	<unknown>
800027e4: 39 00        	<unknown>
800027e6: 00 00        	<unknown>
800027e8: 91 00        	<unknown>
800027ea: 00 00        	<unknown>
800027ec: d6 00        	<unknown>
800027ee: 00 00        	<unknown>
800027f0: 39 00        	<unknown>
800027f2: 00 00        	<unknown>
800027f4: 83 00 00 00  	lb	ra, 0(zero)
800027f8: 53 00 00 00  	fadd.s	ft0, ft0, ft0, rne
800027fc: 39 00        	<unknown>
800027fe: 00 00        	<unknown>
80002800: f4 00        	<unknown>
80002802: 00 00        	<unknown>
80002804: 9c 00        	<unknown>
80002806: 00 00        	<unknown>
80002808: 84 00        	<unknown>
8000280a: 00 00        	<unknown>
8000280c: 5f 00 00 00  	<unknown>
80002810: 8b 00 00 00  	<unknown>
80002814: bd 00        	<unknown>
80002816: 00 00        	<unknown>
80002818: f9 00        	<unknown>
8000281a: 00 00        	<unknown>
8000281c: 28 00        	<unknown>
8000281e: 00 00        	<unknown>
80002820: 3b 00 00 00  	<unknown>
80002824: 1f 00 00 00  	<unknown>
80002828: f8 00        	<unknown>
8000282a: 00 00        	<unknown>
8000282c: 97 00 00 00  	auipc	ra, 0
80002830: ff 00 00 00  	<unknown>
80002834: de 00        	<unknown>
80002836: 00 00        	<unknown>
80002838: 05 00        	<unknown>
8000283a: 00 00        	<unknown>
8000283c: 98 00        	<unknown>
8000283e: 00 00        	<unknown>
80002840: 0f 00 00 00  	fence	0, 0
80002844: ef 00 00 00  	jal	0x80002844 <two_over_pi+0x180>
80002848: 2f 00 00 00  	<unknown>
8000284c: 11 00        	<unknown>
8000284e: 00 00        	<unknown>
80002850: 8b 00 00 00  	<unknown>
80002854: 5a 00        	<unknown>
80002856: 00 00        	<unknown>
80002858: 0a 00        	<unknown>
8000285a: 00 00        	<unknown>
8000285c: 6d 00        	<unknown>
8000285e: 00 00        	<unknown>
80002860: 1f 00 00 00  	<unknown>
80002864: 6d 00        	<unknown>
80002866: 00 00        	<unknown>
80002868: 36 00        	<unknown>
8000286a: 00 00        	<unknown>
8000286c: 7e 00        	<unknown>
8000286e: 00 00        	<unknown>
80002870: cf 00 00 00  	fnmadd.s	ft1, ft0, ft0, ft0, rne
80002874: 27 00 00 00  	<unknown>
80002878: cb 00 00 00  	fnmsub.s	ft1, ft0, ft0, ft0, rne
8000287c: 09 00        	<unknown>
8000287e: 00 00        	<unknown>
80002880: b7 00 00 00  	lui	ra, 0
80002884: 4f 00 00 00  	fnmadd.s	ft0, ft0, ft0, ft0, rne
80002888: 46 00        	<unknown>
8000288a: 00 00        	<unknown>
8000288c: 3f 00 00 00  	<unknown>
80002890: 66 00        	<unknown>
80002892: 00 00        	<unknown>
80002894: 9e 00        	<unknown>
80002896: 00 00        	<unknown>
80002898: 5f 00 00 00  	<unknown>
8000289c: ea 00        	<unknown>
8000289e: 00 00        	<unknown>
800028a0: 2d 00        	<unknown>
800028a2: 00 00        	<unknown>
800028a4: 75 00        	<unknown>
800028a6: 00 00        	<unknown>
800028a8: 27 00 00 00  	<unknown>
800028ac: ba 00        	<unknown>
800028ae: 00 00        	<unknown>
800028b0: c7 00 00 00  	fmsub.s	ft1, ft0, ft0, ft0, rne
800028b4: eb 00 00 00  	<unknown>
800028b8: e5 00        	<unknown>
800028ba: 00 00        	<unknown>
800028bc: f1 00        	<unknown>
800028be: 00 00        	<unknown>
800028c0: 7b 00 00 00  	<unknown>
800028c4: 3d 00        	<unknown>
800028c6: 00 00        	<unknown>
800028c8: 07 00 00 00  	<unknown>
800028cc: 39 00        	<unknown>
800028ce: 00 00        	<unknown>
800028d0: f7 00 00 00  	<unknown>
800028d4: 8a 00        	<unknown>
800028d6: 00 00        	<unknown>
800028d8: 52 00        	<unknown>
800028da: 00 00        	<unknown>
800028dc: 92 00        	<unknown>
800028de: 00 00        	<unknown>
800028e0: ea 00        	<unknown>
800028e2: 00 00        	<unknown>
800028e4: 6b 00 00 00  	<unknown>
800028e8: fb 00 00 00  	<unknown>
800028ec: 5f 00 00 00  	<unknown>
800028f0: b1 00        	<unknown>
800028f2: 00 00        	<unknown>
800028f4: 1f 00 00 00  	<unknown>
800028f8: 8d 00        	<unknown>
800028fa: 00 00        	<unknown>
800028fc: 5d 00        	<unknown>
800028fe: 00 00        	<unknown>
80002900: 08 00        	<unknown>
80002902: 00 00        	<unknown>
80002904: 56 00        	<unknown>
80002906: 00 00        	<unknown>
80002908: 03 00 00 00  	lb	zero, 0(zero)
8000290c: 30 00        	<unknown>
8000290e: 00 00        	<unknown>
80002910: 46 00        	<unknown>
80002912: 00 00        	<unknown>
80002914: fc 00        	<unknown>
80002916: 00 00        	<unknown>
80002918: 7b 00 00 00  	<unknown>
8000291c: 6b 00 00 00  	<unknown>
80002920: ab 00 00 00  	vx_tex	ra, 0, zero, zero, zero
80002924: f0 00        	<unknown>
80002926: 00 00        	<unknown>
80002928: cf 00 00 00  	fnmadd.s	ft1, ft0, ft0, ft0, rne
8000292c: bc 00        	<unknown>
8000292e: 00 00        	<unknown>
80002930: 20 00        	<unknown>
80002932: 00 00        	<unknown>
80002934: 9a 00        	<unknown>
80002936: 00 00        	<unknown>
80002938: f4 00        	<unknown>
8000293a: 00 00        	<unknown>
8000293c: 36 00        	<unknown>
8000293e: 00 00        	<unknown>
80002940: 1d 00        	<unknown>
80002942: 00 00        	<unknown>
80002944: a9 00        	<unknown>
80002946: 00 00        	<unknown>
80002948: e3 00 00 00  	beqz	zero, 0x80003148 <__clz_tab+0x734>
8000294c: 91 00        	<unknown>
8000294e: 00 00        	<unknown>
80002950: 61 00        	<unknown>
80002952: 00 00        	<unknown>
80002954: 5e 00        	<unknown>
80002956: 00 00        	<unknown>
80002958: e6 00        	<unknown>
8000295a: 00 00        	<unknown>
8000295c: 1b 00 00 00  	<unknown>
80002960: 08 00        	<unknown>
80002962: 00 00        	<unknown>
80002964: 65 00        	<unknown>
80002966: 00 00        	<unknown>
80002968: 99 00        	<unknown>
8000296a: 00 00        	<unknown>
8000296c: 85 00        	<unknown>
8000296e: 00 00        	<unknown>
80002970: 5f 00 00 00  	<unknown>
80002974: 14 00        	<unknown>
80002976: 00 00        	<unknown>
80002978: a0 00        	<unknown>
8000297a: 00 00        	<unknown>
8000297c: 68 00        	<unknown>
8000297e: 00 00        	<unknown>
80002980: 40 00        	<unknown>
80002982: 00 00        	<unknown>
80002984: 8d 00        	<unknown>
80002986: 00 00        	<unknown>
80002988: ff 00 00 00  	<unknown>
8000298c: d8 00        	<unknown>
8000298e: 00 00        	<unknown>
80002990: 80 00        	<unknown>
80002992: 00 00        	<unknown>
80002994: 4d 00        	<unknown>
80002996: 00 00        	<unknown>
80002998: 73 00 00 00  	ecall	
8000299c: 27 00 00 00  	<unknown>
800029a0: 31 00        	<unknown>
800029a2: 00 00        	<unknown>
800029a4: 06 00        	<unknown>
800029a6: 00 00        	<unknown>
800029a8: 06 00        	<unknown>
800029aa: 00 00        	<unknown>
800029ac: 15 00        	<unknown>
800029ae: 00 00        	<unknown>
800029b0: 56 00        	<unknown>
800029b2: 00 00        	<unknown>
800029b4: ca 00        	<unknown>
800029b6: 00 00        	<unknown>
800029b8: 73 00 00 00  	ecall	
800029bc: a8 00        	<unknown>
800029be: 00 00        	<unknown>
800029c0: c9 00        	<unknown>
800029c2: 00 00        	<unknown>
800029c4: 60 00        	<unknown>
800029c6: 00 00        	<unknown>
800029c8: e2 00        	<unknown>
800029ca: 00 00        	<unknown>
800029cc: 7b 00 00 00  	<unknown>
800029d0: c0 00        	<unknown>
800029d2: 00 00        	<unknown>
800029d4: 8c 00        	<unknown>
800029d6: 00 00        	<unknown>
800029d8: 6b 00 00 00  	<unknown>

800029dc <PIo2>:
800029dc: 00 00        	<unknown>
800029de: c9 3f        	<unknown>
800029e0: 00 00        	<unknown>
800029e2: f0 39        	<unknown>
800029e4: 00 00        	<unknown>
800029e6: da 37        	<unknown>
800029e8: 00 00        	<unknown>
800029ea: a2 33        	<unknown>
800029ec: 00 00        	<unknown>
800029ee: 84 2e        	<unknown>
800029f0: 00 00        	<unknown>
800029f2: 50 2b        	<unknown>
800029f4: 00 00        	<unknown>
800029f6: c2 27        	<unknown>
800029f8: 00 00        	<unknown>
800029fa: d0 22        	<unknown>
800029fc: 00 00        	<unknown>
800029fe: c4 1f        	<unknown>
80002a00: 00 00        	<unknown>
80002a02: c6 1b        	<unknown>
80002a04: 00 00        	<unknown>
80002a06: 44 17        	<unknown>

80002a08 <init_jk>:
80002a08: 04 00        	<unknown>
80002a0a: 00 00        	<unknown>
80002a0c: 07 00 00 00  	<unknown>
80002a10: 09 00        	<unknown>
80002a12: 00 00        	<unknown>

80002a14 <__clz_tab>:
80002a14: 00 01        	<unknown>
80002a16: 02 02        	<unknown>
80002a18: 03 03 03 03  	lb	t1, 48(t1)
80002a1c: 04 04        	<unknown>
80002a1e: 04 04        	<unknown>
80002a20: 04 04        	<unknown>
80002a22: 04 04        	<unknown>
80002a24: 05 05        	<unknown>
80002a26: 05 05        	<unknown>
80002a28: 05 05        	<unknown>
80002a2a: 05 05        	<unknown>
80002a2c: 05 05        	<unknown>
80002a2e: 05 05        	<unknown>
80002a30: 05 05        	<unknown>
80002a32: 05 05        	<unknown>
80002a34: 06 06        	<unknown>
80002a36: 06 06        	<unknown>
80002a38: 06 06        	<unknown>
80002a3a: 06 06        	<unknown>
80002a3c: 06 06        	<unknown>
80002a3e: 06 06        	<unknown>
80002a40: 06 06        	<unknown>
80002a42: 06 06        	<unknown>
80002a44: 06 06        	<unknown>
80002a46: 06 06        	<unknown>
80002a48: 06 06        	<unknown>
80002a4a: 06 06        	<unknown>
80002a4c: 06 06        	<unknown>
80002a4e: 06 06        	<unknown>
80002a50: 06 06        	<unknown>
80002a52: 06 06        	<unknown>
80002a54: 07 07 07 07  	<unknown>
80002a58: 07 07 07 07  	<unknown>
80002a5c: 07 07 07 07  	<unknown>
80002a60: 07 07 07 07  	<unknown>
80002a64: 07 07 07 07  	<unknown>
80002a68: 07 07 07 07  	<unknown>
80002a6c: 07 07 07 07  	<unknown>
80002a70: 07 07 07 07  	<unknown>
80002a74: 07 07 07 07  	<unknown>
80002a78: 07 07 07 07  	<unknown>
80002a7c: 07 07 07 07  	<unknown>
80002a80: 07 07 07 07  	<unknown>
80002a84: 07 07 07 07  	<unknown>
80002a88: 07 07 07 07  	<unknown>
80002a8c: 07 07 07 07  	<unknown>
80002a90: 07 07 07 07  	<unknown>
80002a94: 08 08        	<unknown>
80002a96: 08 08        	<unknown>
80002a98: 08 08        	<unknown>
80002a9a: 08 08        	<unknown>
80002a9c: 08 08        	<unknown>
80002a9e: 08 08        	<unknown>
80002aa0: 08 08        	<unknown>
80002aa2: 08 08        	<unknown>
80002aa4: 08 08        	<unknown>
80002aa6: 08 08        	<unknown>
80002aa8: 08 08        	<unknown>
80002aaa: 08 08        	<unknown>
80002aac: 08 08        	<unknown>
80002aae: 08 08        	<unknown>
80002ab0: 08 08        	<unknown>
80002ab2: 08 08        	<unknown>
80002ab4: 08 08        	<unknown>
80002ab6: 08 08        	<unknown>
80002ab8: 08 08        	<unknown>
80002aba: 08 08        	<unknown>
80002abc: 08 08        	<unknown>
80002abe: 08 08        	<unknown>
80002ac0: 08 08        	<unknown>
80002ac2: 08 08        	<unknown>
80002ac4: 08 08        	<unknown>
80002ac6: 08 08        	<unknown>
80002ac8: 08 08        	<unknown>
80002aca: 08 08        	<unknown>
80002acc: 08 08        	<unknown>
80002ace: 08 08        	<unknown>
80002ad0: 08 08        	<unknown>
80002ad2: 08 08        	<unknown>
80002ad4: 08 08        	<unknown>
80002ad6: 08 08        	<unknown>
80002ad8: 08 08        	<unknown>
80002ada: 08 08        	<unknown>
80002adc: 08 08        	<unknown>
80002ade: 08 08        	<unknown>
80002ae0: 08 08        	<unknown>
80002ae2: 08 08        	<unknown>
80002ae4: 08 08        	<unknown>
80002ae6: 08 08        	<unknown>
80002ae8: 08 08        	<unknown>
80002aea: 08 08        	<unknown>
80002aec: 08 08        	<unknown>
80002aee: 08 08        	<unknown>
80002af0: 08 08        	<unknown>
80002af2: 08 08        	<unknown>
80002af4: 08 08        	<unknown>
80002af6: 08 08        	<unknown>
80002af8: 08 08        	<unknown>
80002afa: 08 08        	<unknown>
80002afc: 08 08        	<unknown>
80002afe: 08 08        	<unknown>
80002b00: 08 08        	<unknown>
80002b02: 08 08        	<unknown>
80002b04: 08 08        	<unknown>
80002b06: 08 08        	<unknown>
80002b08: 08 08        	<unknown>
80002b0a: 08 08        	<unknown>
80002b0c: 08 08        	<unknown>
80002b0e: 08 08        	<unknown>
80002b10: 08 08        	<unknown>
80002b12: 08 08        	<unknown>

Disassembly of section .init_array:

80003b14 <__tdata_start>:
80003b14: b8 00        	<unknown>
80003b16: 00 80        	<unknown>

Disassembly of section .data:

80003b18 <impure_data>:
80003b18: 00 00        	<unknown>
80003b1a: 00 00        	<unknown>
80003b1c: 04 3e        	<unknown>
80003b1e: 00 80        	<unknown>
80003b20: 6c 3e        	<unknown>
80003b22: 00 80        	<unknown>
80003b24: d4 3e        	<unknown>
80003b26: 00 80        	<unknown>
		...
80003bc0: 01 00        	<unknown>
80003bc2: 00 00        	<unknown>
80003bc4: 00 00        	<unknown>
80003bc6: 00 00        	<unknown>
80003bc8: 0e 33        	<unknown>
80003bca: cd ab        	<unknown>
80003bcc: 34 12        	<unknown>
80003bce: 6d e6        	<unknown>
80003bd0: ec de        	<unknown>
80003bd2: 05 00        	<unknown>
80003bd4: 0b 00 00 00  	vx_tmc	zero
		...

Disassembly of section .sdata:

80003f40 <__SDATA_BEGIN__>:
80003f40: 80 0f        	<unknown>
80003f42: c9 3f        	<unknown>
80003f44: 43 44 35 37  	<unknown>
80003f48: 00 44        	<unknown>
80003f4a: 35 37        	<unknown>
80003f4c: 08 a3        	<unknown>
80003f4e: 85 2e        	<unknown>
80003f50: 84 f9        	<unknown>
80003f52: 22 3f        	<unknown>
80003f54: 00 00        	<unknown>
80003f56: 00 3f        	<unknown>
80003f58: 00 a3        	<unknown>
80003f5a: 85 2e        	<unknown>
80003f5c: 32 31        	<unknown>
80003f5e: 8d 24        	<unknown>
80003f60: 00 00        	<unknown>
80003f62: 80 43        	<unknown>
80003f64: 00 00        	<unknown>
80003f66: 38 3f        	<unknown>
80003f68: 00 00        	<unknown>
80003f6a: 90 3e        	<unknown>
80003f6c: 00 00        	<unknown>
80003f6e: 80 3f        	<unknown>
80003f70: 4e d7        	<unknown>
80003f72: 47 ad f6 74  	<unknown>
80003f76: 0f 31 7c f2  	<unknown>
80003f7a: 93 b4 01 0d  	sltiu	s1, gp, 208
80003f7e: d0 37        	<unknown>
80003f80: 61 0b        	<unknown>
80003f82: b6 ba        	<unknown>
80003f84: ab aa 2a 3d  	<unknown>
80003f88: 00 00        	<unknown>
80003f8a: 80 3b        	<unknown>
80003f8c: 00 00        	<unknown>
80003f8e: 00 3e        	<unknown>
80003f90: 00 00        	<unknown>
80003f92: 00 41        	<unknown>
80003f94: 00 00        	<unknown>
80003f96: 00 80        	<unknown>
80003f98: d3 c9 2e 2f  	<unknown>
80003f9c: 34 2f        	<unknown>
80003f9e: d7 b2 1b ef  	<unknown>
80003fa2: 38 36        	<unknown>
80003fa4: 01 0d        	<unknown>
80003fa6: 50 b9        	<unknown>
80003fa8: 89 88        	<unknown>
80003faa: 08 3c        	<unknown>
80003fac: ab aa 2a be  	<unknown>
80003fb0: ab aa 2a 3e  	<unknown>
80003fb4: 00 00        	<unknown>
80003fb6: 80 bf        	<unknown>
80003fb8: ca f2        	<unknown>
80003fba: 49 71        	<unknown>
80003fbc: 00 00        	<unknown>
80003fbe: 00 4c        	<unknown>
80003fc0: 60 42        	<unknown>
80003fc2: a2 0d        	<unknown>
80003fc4: 00 00        	<unknown>
80003fc6: 00 33        	<unknown>

80003fc8 <_global_impure_ptr>:
80003fc8: 18 3b        	<unknown>
80003fca: 00 80        	<unknown>

Disassembly of section .bss:

80003fcc <g_wspawn_args>:
...

Disassembly of section .comment:

00000000 <.comment>:
       0: 63 6c 61 6e  	bltu	sp, t1, 0x6f8 <.comment+0x6f8>
       4: 67 20 76 65  	<unknown>
       8: 72 73        	<unknown>
       a: 69 6f        	<unknown>
       c: 6e 20        	<unknown>
       e: 31 36        	<unknown>
      10: 2e 30        	<unknown>
      12: 2e 36        	<unknown>
      14: 20 28        	<unknown>
      16: 68 74        	<unknown>
      18: 74 70        	<unknown>
      1a: 73 3a 2f 2f  	csrrc	s4, 754, t5
      1e: 67 69 74 68  	<unknown>
      22: 75 62        	<unknown>
      24: 2e 63        	<unknown>
      26: 6f 6d 2f 76  	jal	s10, 0xf6788 <.comment+0xf6788>
      2a: 6f 72 74 65  	jal	tp, 0x47e80 <.comment+0x47e80>
      2e: 78 67        	<unknown>
      30: 70 67        	<unknown>
      32: 70 75        	<unknown>
      34: 2f 6c 6c 76  	<unknown>
      38: 6d 2e        	<unknown>
      3a: 67 69 74 20  	<unknown>
      3e: 35 38        	<unknown>
      40: 38 31        	<unknown>
      42: 31 62        	<unknown>
      44: 66 61        	<unknown>
      46: 36 31        	<unknown>
      48: 61 35        	<unknown>
      4a: 30 33        	<unknown>
      4c: 66 64        	<unknown>
      4e: 34 61        	<unknown>
      50: 35 66        	<unknown>
      52: 30 64        	<unknown>
      54: 63 37 62 35  	<unknown>
      58: 37 38 30 32  	lui	a6, 205571
      5c: 66 61        	<unknown>
      5e: 65 35        	<unknown>
      60: 31 63        	<unknown>
      62: 33 66 35 64  	<unknown>
      66: 29 00        	<unknown>
      68: 47 43 43 3a  	<unknown>
      6c: 20 28        	<unknown>
      6e: 67 32 65 65  	<unknown>
      72: 35 65        	<unknown>
      74: 34 33        	<unknown>
      76: 30 30        	<unknown>
      78: 31 38        	<unknown>
      7a: 2d 64        	<unknown>
      7c: 69 72        	<unknown>
      7e: 74 79        	<unknown>
      80: 29 20        	<unknown>
      82: 31 32        	<unknown>
      84: 2e 32        	<unknown>
      86: 2e 30        	<unknown>
      88: 00 47        	<unknown>
      8a: 43 43 3a 20  	fmadd.s	ft6, fs4, ft3, ft4, rmm
      8e: 28 47        	<unknown>
      90: 4e 55        	<unknown>
      92: 29 20        	<unknown>
      94: 31 32        	<unknown>
      96: 2e 32        	<unknown>
      98: 2e 30        	<unknown>
      9a: 00           	<unknown>

Disassembly of section .riscv.attributes:

00000000 <.riscv.attributes>:
       0: 41 40        	<unknown>
       2: 00 00        	<unknown>
       4: 00 72        	<unknown>
       6: 69 73        	<unknown>
       8: 63 76 00 01  	bgeu	zero, a6, 0x14 <.comment+0x14>
       c: 36 00        	<unknown>
       e: 00 00        	<unknown>
      10: 04 10        	<unknown>
      12: 05 72        	<unknown>
      14: 76 33        	<unknown>
      16: 32 69        	<unknown>
      18: 32 70        	<unknown>
      1a: 31 5f        	<unknown>
      1c: 6d 32        	<unknown>
      1e: 70 30        	<unknown>
      20: 5f 61 32 70  	<unknown>
      24: 31 5f        	<unknown>
      26: 66 32        	<unknown>
      28: 70 32        	<unknown>
      2a: 5f 7a 69 63  	<unknown>
      2e: 73 72 32 70  	csrrci	tp, 1795, 4
      32: 30 5f        	<unknown>
      34: 7a 6d        	<unknown>
      36: 6d 75        	<unknown>
      38: 6c 31        	<unknown>
      3a: 70 30        	<unknown>
      3c: 00 08        	<unknown>
      3e: 01 0a        	<unknown>
      40: 0b           	<unknown>

Disassembly of section .debug_aranges:

00000000 <.debug_aranges>:
       0: 1c 00        	<unknown>
       2: 00 00        	<unknown>
       4: 02 00        	<unknown>
       6: 00 00        	<unknown>
       8: 00 00        	<unknown>
       a: 04 00        	<unknown>
       c: 00 00        	<unknown>
       e: 00 00        	<unknown>
      10: f0 25        	<unknown>
      12: 00 80        	<unknown>
      14: 4c 00        	<unknown>
		...
      1e: 00 00        	<unknown>
      20: 14 00        	<unknown>
      22: 00 00        	<unknown>
      24: 02 00        	<unknown>
      26: 42 01        	<unknown>
      28: 00 00        	<unknown>
      2a: 04 00        	<unknown>
		...

Disassembly of section .debug_info:

00000000 <.debug_info>:
       0: 3e 01        	<unknown>
       2: 00 00        	<unknown>
       4: 05 00        	<unknown>
       6: 01 04        	<unknown>
       8: 00 00        	<unknown>
       a: 00 00        	<unknown>
       c: 04 2b        	<unknown>
       e: 00 00        	<unknown>
      10: 00 1d        	<unknown>
      12: 00 00        	<unknown>
      14: 00 00        	<unknown>
      16: 21 00        	<unknown>
      18: 00 00        	<unknown>
      1a: f0 25        	<unknown>
      1c: 00 80        	<unknown>
      1e: 4c 00        	<unknown>
      20: 00 00        	<unknown>
      22: 00 00        	<unknown>
      24: 00 00        	<unknown>
      26: 05 04        	<unknown>
      28: 05 69        	<unknown>
      2a: 6e 74        	<unknown>
      2c: 00 01        	<unknown>
      2e: 04 07        	<unknown>
      30: f2 00        	<unknown>
      32: 00 00        	<unknown>
      34: 01 08        	<unknown>
      36: 05 00        	<unknown>
      38: 00 00        	<unknown>
      3a: 00 01        	<unknown>
      3c: 10 04        	<unknown>
      3e: 1f 01 00 00  	<unknown>
      42: 01 01        	<unknown>
      44: 06 01        	<unknown>
      46: 01 00        	<unknown>
      48: 00 01        	<unknown>
      4a: 01 08        	<unknown>
      4c: ff 00 00 00  	<unknown>
      50: 01 02        	<unknown>
      52: 05 5c        	<unknown>
      54: 01 00        	<unknown>
      56: 00 01        	<unknown>
      58: 02 07        	<unknown>
      5a: 2b 01 00 00  	vx_tex	sp, 0, zero, zero, zero
      5e: 01 04        	<unknown>
      60: 05 05        	<unknown>
      62: 00 00        	<unknown>
      64: 00 01        	<unknown>
      66: 04 07        	<unknown>
      68: ed 00        	<unknown>
      6a: 00 00        	<unknown>
      6c: 01 08        	<unknown>
      6e: 07 e8 00 00  	<unknown>
      72: 00 01        	<unknown>
      74: 01 08        	<unknown>
      76: 08 01        	<unknown>
      78: 00 00        	<unknown>
      7a: 02 4c        	<unknown>
      7c: 01 00        	<unknown>
      7e: 00 7b        	<unknown>
      80: 16 49        	<unknown>
      82: 00 00        	<unknown>
      84: 00 03        	<unknown>
      86: 7a 00        	<unknown>
      88: 00 00        	<unknown>
      8a: 02 55        	<unknown>
      8c: 01 00        	<unknown>
      8e: 00 80        	<unknown>
      90: 0f 26 00 00  	<unknown>
      94: 00 02        	<unknown>
      96: 54 01        	<unknown>
      98: 00 00        	<unknown>
      9a: 81 16        	<unknown>
      9c: 2d 00        	<unknown>
      9e: 00 00        	<unknown>
      a0: 01 04        	<unknown>
      a2: 04 46        	<unknown>
      a4: 01 00        	<unknown>
      a6: 00 01        	<unknown>
      a8: 08 03        	<unknown>
      aa: 3e 01        	<unknown>
      ac: 00 00        	<unknown>
      ae: 01 08        	<unknown>
      b0: 04 24        	<unknown>
      b2: 01 00        	<unknown>
      b4: 00 01        	<unknown>
      b6: 10 03        	<unknown>
      b8: 17 00 00 00  	auipc	zero, 0
      bc: 01 20        	<unknown>
      be: 03 17 01 00  	lh	a4, 0(sp)
      c2: 00 06        	<unknown>
      c4: 85 00        	<unknown>
      c6: 00 00        	<unknown>
      c8: d3 00 00 00  	fadd.s	ft1, ft0, ft0, rne
      cc: 07 2d 00 00  	flw	fs10, 0(zero)
      d0: 00 ff        	<unknown>
      d2: 00 03        	<unknown>
      d4: c3 00 00 00  	fmadd.s	ft1, ft0, ft0, ft0, rne
      d8: 08 0d        	<unknown>
      da: 01 00        	<unknown>
      dc: 00 02        	<unknown>
      de: 02 02        	<unknown>
      e0: 16 d3        	<unknown>
      e2: 00 00        	<unknown>
      e4: 00 09        	<unknown>
      e6: 0e 00        	<unknown>
      e8: 00 00        	<unknown>
      ea: 01 ae        	<unknown>
      ec: 02 01        	<unknown>
      ee: 26 00        	<unknown>
      f0: 00 00        	<unknown>
      f2: f0 25        	<unknown>
      f4: 00 80        	<unknown>
      f6: 4c 00        	<unknown>
      f8: 00 00        	<unknown>
      fa: 01 9c        	<unknown>
      fc: 0a 78        	<unknown>
      fe: 00 01        	<unknown>
     100: ae 02        	<unknown>
     102: 12 95        	<unknown>
     104: 00 00        	<unknown>
     106: 00 0c        	<unknown>
     108: 00 00        	<unknown>
     10a: 00 0b        	<unknown>
     10c: 72 65        	<unknown>
     10e: 74 00        	<unknown>
     110: 01 b0        	<unknown>
     112: 02 09        	<unknown>
     114: 8a 00        	<unknown>
     116: 00 00        	<unknown>
     118: 0c 0c        	<unknown>
     11a: 00 00        	<unknown>
     11c: 00 0d        	<unknown>
     11e: 26 00        	<unknown>
     120: 00 00        	<unknown>
     122: 01 b2        	<unknown>
     124: 02 03        	<unknown>
     126: 95 00        	<unknown>
     128: 00 00        	<unknown>
     12a: 31 00        	<unknown>
     12c: 00 00        	<unknown>
     12e: 0e 5f        	<unknown>
     130: 5f 61 00 01  	<unknown>
     134: b2 02        	<unknown>
     136: 03 95 00 00  	lh	a0, 0(ra)
     13a: 00 56        	<unknown>
     13c: 00 00        	<unknown>
     13e: 00 00        	<unknown>
     140: 00 00        	<unknown>
     142: d4 00        	<unknown>
     144: 00 00        	<unknown>
     146: 05 00        	<unknown>
     148: 01 04        	<unknown>
     14a: ca 00        	<unknown>
     14c: 00 00        	<unknown>
     14e: 03 2b 00 00  	lw	s6, 0(zero)
     152: 00 1d        	<unknown>
     154: 00 00        	<unknown>
     156: 00 00        	<unknown>
     158: 21 00        	<unknown>
     15a: 00 00        	<unknown>
     15c: cb 00 00 00  	fnmsub.s	ft1, ft0, ft0, ft0, rne
     160: 04 04        	<unknown>
     162: 05 69        	<unknown>
     164: 6e 74        	<unknown>
     166: 00 01        	<unknown>
     168: 04 07        	<unknown>
     16a: f2 00        	<unknown>
     16c: 00 00        	<unknown>
     16e: 01 08        	<unknown>
     170: 05 00        	<unknown>
     172: 00 00        	<unknown>
     174: 00 01        	<unknown>
     176: 10 04        	<unknown>
     178: 1f 01 00 00  	<unknown>
     17c: 01 01        	<unknown>
     17e: 06 01        	<unknown>
     180: 01 00        	<unknown>
     182: 00 01        	<unknown>
     184: 01 08        	<unknown>
     186: ff 00 00 00  	<unknown>
     18a: 01 02        	<unknown>
     18c: 05 5c        	<unknown>
     18e: 01 00        	<unknown>
     190: 00 01        	<unknown>
     192: 02 07        	<unknown>
     194: 2b 01 00 00  	vx_tex	sp, 0, zero, zero, zero
     198: 01 04        	<unknown>
     19a: 05 05        	<unknown>
     19c: 00 00        	<unknown>
     19e: 00 01        	<unknown>
     1a0: 04 07        	<unknown>
     1a2: ed 00        	<unknown>
     1a4: 00 00        	<unknown>
     1a6: 01 08        	<unknown>
     1a8: 07 e8 00 00  	<unknown>
     1ac: 00 01        	<unknown>
     1ae: 01 08        	<unknown>
     1b0: 08 01        	<unknown>
     1b2: 00 00        	<unknown>
     1b4: 05 4c        	<unknown>
     1b6: 01 00        	<unknown>
     1b8: 00 01        	<unknown>
     1ba: 7b 16 41 00  	<unknown>
     1be: 00 00        	<unknown>
     1c0: 02 72        	<unknown>
     1c2: 00 00        	<unknown>
     1c4: 00 01        	<unknown>
     1c6: 04 04        	<unknown>
     1c8: 46 01        	<unknown>
     1ca: 00 00        	<unknown>
     1cc: 01 08        	<unknown>
     1ce: 03 3e 01 00  	<unknown>
     1d2: 00 01        	<unknown>
     1d4: 08 04        	<unknown>
     1d6: 24 01        	<unknown>
     1d8: 00 00        	<unknown>
     1da: 01 10        	<unknown>
     1dc: 03 17 00 00  	lh	a4, 0(zero)
     1e0: 00 01        	<unknown>
     1e2: 20 03        	<unknown>
     1e4: 17 01 00 00  	auipc	sp, 0
     1e8: 06 7e        	<unknown>
     1ea: 00 00        	<unknown>
     1ec: 00 b6        	<unknown>
     1ee: 00 00        	<unknown>
     1f0: 00 07        	<unknown>
     1f2: 25 00        	<unknown>
     1f4: 00 00        	<unknown>
     1f6: ff 00 02 a6  	<unknown>
     1fa: 00 00        	<unknown>
     1fc: 00 08        	<unknown>
     1fe: 0d 01        	<unknown>
     200: 00 00        	<unknown>
     202: 01 02        	<unknown>
     204: 02 16        	<unknown>
     206: b6 00        	<unknown>
     208: 00 00        	<unknown>
     20a: 09 bb        	<unknown>
     20c: 00 00        	<unknown>
     20e: 00 02        	<unknown>
     210: 9e 02        	<unknown>
     212: 0f 05 03 14  	<unknown>
     216: 2a 00        	<unknown>
     218: 80 00        	<unknown>

Disassembly of section .debug_abbrev:

00000000 <.debug_abbrev>:
       0: 01 24        	<unknown>
       2: 00 0b        	<unknown>
       4: 0b 3e 0b 03  	<unknown>
       8: 0e 00        	<unknown>
       a: 00 02        	<unknown>
       c: 16 00        	<unknown>
       e: 03 0e 3a 21  	lb	t3, 531(s4)
      12: 02 3b        	<unknown>
      14: 0b 39 0b 49  	<unknown>
      18: 13 00 00 03  	li	zero, 48
      1c: 26 00        	<unknown>
      1e: 49 13        	<unknown>
      20: 00 00        	<unknown>
      22: 04 11        	<unknown>
      24: 01 25        	<unknown>
      26: 0e 13        	<unknown>
      28: 0b 03 1f 1b  	<unknown>
      2c: 1f 11 01 12  	<unknown>
      30: 06 10        	<unknown>
      32: 17 00 00 05  	auipc	zero, 20480
      36: 24 00        	<unknown>
      38: 0b 0b 3e 0b  	<unknown>
      3c: 03 08 00 00  	lb	a6, 0(zero)
      40: 06 01        	<unknown>
      42: 01 49        	<unknown>
      44: 13 01 13 00  	addi	sp, t1, 1
      48: 00 07        	<unknown>
      4a: 21 00        	<unknown>
      4c: 49 13        	<unknown>
      4e: 2f 0b 00 00  	<unknown>
      52: 08 34        	<unknown>
      54: 00 03        	<unknown>
      56: 0e 3a        	<unknown>
      58: 0b 3b 05 39  	<unknown>
      5c: 0b 49 13 3f  	<unknown>
      60: 19 3c        	<unknown>
      62: 19 00        	<unknown>
      64: 00 09        	<unknown>
      66: 2e 01        	<unknown>
      68: 3f 19 03 0e  	<unknown>
      6c: 3a 0b        	<unknown>
      6e: 3b 05 39 0b  	<unknown>
      72: 27 19 49 13  	<unknown>
      76: 11 01        	<unknown>
      78: 12 06        	<unknown>
      7a: 40 18        	<unknown>
      7c: 7a 19        	<unknown>
      7e: 00 00        	<unknown>
      80: 0a 05        	<unknown>
      82: 00 03        	<unknown>
      84: 08 3a        	<unknown>
      86: 0b 3b 05 39  	<unknown>
      8a: 0b 49 13 02  	<unknown>
      8e: 17 00 00 0b  	auipc	zero, 45056
      92: 34 00        	<unknown>
      94: 03 08 3a 0b  	lb	a6, 179(s4)
      98: 3b 05 39 0b  	<unknown>
      9c: 49 13        	<unknown>
      9e: 00 00        	<unknown>
      a0: 0c 0b        	<unknown>
      a2: 01 55        	<unknown>
      a4: 17 00 00 0d  	auipc	zero, 53248
      a8: 34 00        	<unknown>
      aa: 03 0e 3a 0b  	lb	t3, 179(s4)
      ae: 3b 05 39 0b  	<unknown>
      b2: 49 13        	<unknown>
      b4: 02 17        	<unknown>
      b6: 00 00        	<unknown>
      b8: 0e 34        	<unknown>
      ba: 00 03        	<unknown>
      bc: 08 3a        	<unknown>
      be: 0b 3b 05 39  	<unknown>
      c2: 0b 49 13 02  	<unknown>
      c6: 17 00 00 00  	auipc	zero, 0
      ca: 01 24        	<unknown>
      cc: 00 0b        	<unknown>
      ce: 0b 3e 0b 03  	<unknown>
      d2: 0e 00        	<unknown>
      d4: 00 02        	<unknown>
      d6: 26 00        	<unknown>
      d8: 49 13        	<unknown>
      da: 00 00        	<unknown>
      dc: 03 11 01 25  	lh	sp, 592(sp)
      e0: 0e 13        	<unknown>
      e2: 0b 03 1f 1b  	<unknown>
      e6: 1f 10 17 00  	<unknown>
      ea: 00 04        	<unknown>
      ec: 24 00        	<unknown>
      ee: 0b 0b 3e 0b  	<unknown>
      f2: 03 08 00 00  	lb	a6, 0(zero)
      f6: 05 16        	<unknown>
      f8: 00 03        	<unknown>
      fa: 0e 3a        	<unknown>
      fc: 0b 3b 0b 39  	<unknown>
     100: 0b 49 13 00  	<unknown>
     104: 00 06        	<unknown>
     106: 01 01        	<unknown>
     108: 49 13        	<unknown>
     10a: 01 13        	<unknown>
     10c: 00 00        	<unknown>
     10e: 07 21 00 49  	flw	ft2, 1168(zero)
     112: 13 2f 0b 00  	slti	t5, s6, 0
     116: 00 08        	<unknown>
     118: 34 00        	<unknown>
     11a: 03 0e 3a 0b  	lb	t3, 179(s4)
     11e: 3b 05 39 0b  	<unknown>
     122: 49 13        	<unknown>
     124: 3f 19 3c 19  	<unknown>
     128: 00 00        	<unknown>
     12a: 09 34        	<unknown>
     12c: 00 47        	<unknown>
     12e: 13 3a 0b 3b  	sltiu	s4, s6, 944
     132: 05 39        	<unknown>
     134: 0b 02 18 00  	<unknown>
     138: 00 00        	<unknown>

Disassembly of section .debug_line:

00000000 <.debug_line>:
       0: c7 00 00 00  	fmsub.s	ft1, ft0, ft0, ft0, rne
       4: 05 00        	<unknown>
       6: 04 00        	<unknown>
       8: 33 00 00 00  	add	zero, zero, zero
       c: 01 01        	<unknown>
       e: 01 fb        	<unknown>
      10: 0e 0d        	<unknown>
      12: 00 01        	<unknown>
      14: 01 01        	<unknown>
      16: 01 00        	<unknown>
      18: 00 00        	<unknown>
      1a: 01 00        	<unknown>
      1c: 00 01        	<unknown>
      1e: 01 01        	<unknown>
      20: 1f 02 21 00  	<unknown>
      24: 00 00        	<unknown>
      26: 81 00        	<unknown>
      28: 00 00        	<unknown>
      2a: 02 01        	<unknown>
      2c: 1f 02 0f 03  	<unknown>
      30: 17 00 00 00  	auipc	zero, 0
      34: 01 17        	<unknown>
      36: 00 00        	<unknown>
      38: 00 01        	<unknown>
      3a: 98 00        	<unknown>
      3c: 00 00        	<unknown>
      3e: 01 05        	<unknown>
      40: 01 00        	<unknown>
      42: 05 02        	<unknown>
      44: f0 25        	<unknown>
      46: 00 80        	<unknown>
      48: 03 ae 05 01  	lw	t3, 16(a1)
      4c: 05 03        	<unknown>
      4e: 03 01 09 00  	lb	sp, 0(s2)
      52: 00 01        	<unknown>
      54: 03 02 09 00  	lb	tp, 0(s2)
      58: 00 01        	<unknown>
      5a: 03 00 09 00  	lb	zero, 0(s2)
      5e: 00 01        	<unknown>
      60: 03 00 09 00  	lb	zero, 0(s2)
      64: 00 01        	<unknown>
      66: 03 00 09 00  	lb	zero, 0(s2)
      6a: 00 01        	<unknown>
      6c: 03 00 09 00  	lb	zero, 0(s2)
      70: 00 01        	<unknown>
      72: 00 02        	<unknown>
      74: 04 03        	<unknown>
      76: 06 03        	<unknown>
      78: 00 09        	<unknown>
      7a: 08 00        	<unknown>
      7c: 01 00        	<unknown>
      7e: 02 04        	<unknown>
      80: 0e 06        	<unknown>
      82: 03 00 09 0c  	lb	zero, 192(s2)
      86: 00 01        	<unknown>
      88: 00 02        	<unknown>
      8a: 04 0e        	<unknown>
      8c: 03 00 09 00  	lb	zero, 0(s2)
      90: 00 01        	<unknown>
      92: 00 02        	<unknown>
      94: 04 0e        	<unknown>
      96: 03 02 09 00  	lb	tp, 0(s2)
      9a: 00 01        	<unknown>
      9c: 00 02        	<unknown>
      9e: 04 0e        	<unknown>
      a0: 06 03        	<unknown>
      a2: 7e 09        	<unknown>
      a4: 00 00        	<unknown>
      a6: 01 05        	<unknown>
      a8: 01 00        	<unknown>
      aa: 02 04        	<unknown>
      ac: 0e 03        	<unknown>
      ae: 03 09 1c 00  	lb	s2, 1(s8)
      b2: 01 05        	<unknown>
      b4: 03 00 02 04  	lb	zero, 64(tp)
      b8: 04 03        	<unknown>
      ba: 7d 09        	<unknown>
      bc: 08 00        	<unknown>
      be: 01 03        	<unknown>
      c0: 00 09        	<unknown>
      c2: 0c 00        	<unknown>
      c4: 01 09        	<unknown>
      c6: 08 00        	<unknown>
      c8: 00 01        	<unknown>
      ca: 01 3b        	<unknown>
      cc: 00 00        	<unknown>
      ce: 00 05        	<unknown>
      d0: 00 04        	<unknown>
      d2: 00 33        	<unknown>
      d4: 00 00        	<unknown>
      d6: 00 01        	<unknown>
      d8: 01 01        	<unknown>
      da: fb 0e 0d 00  	<unknown>
      de: 01 01        	<unknown>
      e0: 01 01        	<unknown>
      e2: 00 00        	<unknown>
      e4: 00 01        	<unknown>
      e6: 00 00        	<unknown>
      e8: 01 01        	<unknown>
      ea: 01 1f        	<unknown>
      ec: 02 21        	<unknown>
      ee: 00 00        	<unknown>
      f0: 00 81        	<unknown>
      f2: 00 00        	<unknown>
      f4: 00 02        	<unknown>
      f6: 01 1f        	<unknown>
      f8: 02 0f        	<unknown>
      fa: 03 17 00 00  	lh	a4, 0(zero)
      fe: 00 01        	<unknown>
     100: 98 00        	<unknown>
     102: 00 00        	<unknown>
     104: 01 17        	<unknown>
     106: 00 00        	<unknown>
     108: 00 01        	<unknown>

Disassembly of section .debug_frame:

00000000 <.debug_frame>:
       0: 0c 00        	<unknown>
       2: 00 00        	<unknown>
       4: ff ff ff ff  	<unknown>
       8: 03 00 01 7c  	lb	zero, 1984(sp)
       c: 01 0d        	<unknown>
       e: 02 00        	<unknown>
      10: 0c 00        	<unknown>
      12: 00 00        	<unknown>
      14: 00 00        	<unknown>
      16: 00 00        	<unknown>
      18: f0 25        	<unknown>
      1a: 00 80        	<unknown>
      1c: 4c 00        	<unknown>
      1e: 00 00        	<unknown>

Disassembly of section .debug_str:

00000000 <.debug_str>:
       0: 6c 6f        	<unknown>
       2: 6e 67        	<unknown>
       4: 20 6c        	<unknown>
       6: 6f 6e 67 20  	jal	t3, 0x7620c <.debug_info+0x7620c>
       a: 69 6e        	<unknown>
       c: 74 00        	<unknown>
       e: 5f 5f 63 6c  	<unknown>
      12: 7a 73        	<unknown>
      14: 69 32        	<unknown>
      16: 00 63        	<unknown>
      18: 6f 6d 70 6c  	jal	s10, 0x6ede <.debug_info+0x6ede>
      1c: 65 78        	<unknown>
      1e: 20 64        	<unknown>
      20: 6f 75 62 6c  	jal	a0, 0x276e6 <.debug_info+0x276e6>
      24: 65 00        	<unknown>
      26: 5f 5f 78 72  	<unknown>
      2a: 00 47        	<unknown>
      2c: 4e 55        	<unknown>
      2e: 20 43        	<unknown>
      30: 31 37        	<unknown>
      32: 20 31        	<unknown>
      34: 32 2e        	<unknown>
      36: 32 2e        	<unknown>
      38: 30 20        	<unknown>
      3a: 2d 6d        	<unknown>
      3c: 63 6d 6f 64  	bltu	t5, t1, 0x696 <.debug_info+0x696>
      40: 65 6c        	<unknown>
      42: 3d 6d        	<unknown>
      44: 65 64        	<unknown>
      46: 61 6e        	<unknown>
      48: 79 20        	<unknown>
      4a: 2d 6d        	<unknown>
      4c: 63 6d 6f 64  	bltu	t5, t1, 0x6a6 <.debug_info+0x6a6>
      50: 65 6c        	<unknown>
      52: 3d 6d        	<unknown>
      54: 65 64        	<unknown>
      56: 61 6e        	<unknown>
      58: 79 20        	<unknown>
      5a: 2d 6d        	<unknown>
      5c: 74 75        	<unknown>
      5e: 6e 65        	<unknown>
      60: 3d 72        	<unknown>
      62: 6f 63 6b 65  	jal	t1, 0xb66b8 <.debug_info+0xb66b8>
      66: 74 20        	<unknown>
      68: 2d 6d        	<unknown>
      6a: 61 62        	<unknown>
      6c: 69 3d        	<unknown>
      6e: 69 6c        	<unknown>
      70: 70 33        	<unknown>
      72: 32 66        	<unknown>
      74: 20 2d        	<unknown>
      76: 6d 69        	<unknown>
      78: 73 61 2d 73  	csrrsi	sp, mhpmevent18h, 26
      7c: 70 65        	<unknown>
      7e: 63 3d 32 30  	<unknown>
      82: 31 39        	<unknown>
      84: 31 32        	<unknown>
      86: 31 33        	<unknown>
      88: 20 2d        	<unknown>
      8a: 6d 61        	<unknown>
      8c: 72 63        	<unknown>
      8e: 68 3d        	<unknown>
      90: 72 76        	<unknown>
      92: 33 32 69 6d  	<unknown>
      96: 66 5f        	<unknown>
      98: 7a 69        	<unknown>
      9a: 63 73 72 20  	bgeu	tp, t2, 0x2a0 <.debug_info+0x2a0>
      9e: 2d 67        	<unknown>
      a0: 20 2d        	<unknown>
      a2: 4f 73 20 2d  	<unknown>
      a6: 4f 32 20 2d  	<unknown>
      aa: 4f 73 20 2d  	<unknown>
      ae: 66 62        	<unknown>
      b0: 75 69        	<unknown>
      b2: 6c 64        	<unknown>
      b4: 69 6e        	<unknown>
      b6: 67 2d 6c 69  	<unknown>
      ba: 62 67        	<unknown>
      bc: 63 63 20 2d  	bltu	zero, s2, 0x382 <.debug_info+0x382>
      c0: 66 6e        	<unknown>
      c2: 6f 2d 73 74  	jal	s10, 0x33008 <.debug_info+0x33008>
      c6: 61 63        	<unknown>
      c8: 6b 2d 70 72  	<unknown>
      cc: 6f 74 65 63  	jal	s0, 0x57702 <.debug_info+0x57702>
      d0: 74 6f        	<unknown>
      d2: 72 20        	<unknown>
      d4: 2d 66        	<unknown>
      d6: 76 69        	<unknown>
      d8: 73 69 62 69  	csrrsi	s2, 1686, 4
      dc: 6c 69        	<unknown>
      de: 74 79        	<unknown>
      e0: 3d 68        	<unknown>
      e2: 69 64        	<unknown>
      e4: 64 65        	<unknown>
      e6: 6e 00        	<unknown>
      e8: 6c 6f        	<unknown>
      ea: 6e 67        	<unknown>
      ec: 20 6c        	<unknown>
      ee: 6f 6e 67 20  	jal	t3, 0x762f4 <.debug_info+0x762f4>
      f2: 75 6e        	<unknown>
      f4: 73 69 67 6e  	csrrsi	s2, 1766, 14
      f8: 65 64        	<unknown>
      fa: 20 69        	<unknown>
      fc: 6e 74        	<unknown>
      fe: 00 75        	<unknown>
     100: 6e 73        	<unknown>
     102: 69 67        	<unknown>
     104: 6e 65        	<unknown>
     106: 64 20        	<unknown>
     108: 63 68 61 72  	bltu	sp, t1, 0x838 <.debug_info+0x838>
     10c: 00 5f        	<unknown>
     10e: 5f 63 6c 7a  	<unknown>
     112: 5f 74 61 62  	<unknown>
     116: 00 63        	<unknown>
     118: 6f 6d 70 6c  	jal	s10, 0x6fde <.debug_info+0x6fde>
     11c: 65 78        	<unknown>
     11e: 20 6c        	<unknown>
     120: 6f 6e 67 20  	jal	t3, 0x76326 <.debug_info+0x76326>
     124: 64 6f        	<unknown>
     126: 75 62        	<unknown>
     128: 6c 65        	<unknown>
     12a: 00 73        	<unknown>
     12c: 68 6f        	<unknown>
     12e: 72 74        	<unknown>
     130: 20 75        	<unknown>
     132: 6e 73        	<unknown>
     134: 69 67        	<unknown>
     136: 6e 65        	<unknown>
     138: 64 20        	<unknown>
     13a: 69 6e        	<unknown>
     13c: 74 00        	<unknown>
     13e: 63 6f 6d 70  	bltu	s10, t1, 0x85c <.debug_info+0x85c>
     142: 6c 65        	<unknown>
     144: 78 20        	<unknown>
     146: 66 6c        	<unknown>
     148: 6f 61 74 00  	jal	sp, 0x4694e <.debug_info+0x4694e>
     14c: 55 51        	<unknown>
     14e: 49 74        	<unknown>
     150: 79 70        	<unknown>
     152: 65 00        	<unknown>
     154: 55 53        	<unknown>
     156: 49 74        	<unknown>
     158: 79 70        	<unknown>
     15a: 65 00        	<unknown>
     15c: 73 68 6f 72  	csrrsi	a6, mhpmevent6h, 30
     160: 74 20        	<unknown>
     162: 69 6e        	<unknown>
     164: 74 00        	<unknown>

Disassembly of section .debug_loclists:

00000000 <.debug_loclists>:
       0: 5e 00        	<unknown>
       2: 00 00        	<unknown>
       4: 05 00        	<unknown>
       6: 04 00        	<unknown>
       8: 00 00        	<unknown>
       a: 00 00        	<unknown>
       c: 07 f0 25 00  	<unknown>
      10: 80 10        	<unknown>
      12: 26 00        	<unknown>
      14: 80 01        	<unknown>
      16: 5a 07        	<unknown>
      18: 10 26        	<unknown>
      1a: 00 80        	<unknown>
      1c: 28 26        	<unknown>
      1e: 00 80        	<unknown>
      20: 04 a3        	<unknown>
      22: 01 5a        	<unknown>
      24: 9f 07 28 26  	<unknown>
      28: 00 80        	<unknown>
      2a: 3c 26        	<unknown>
      2c: 00 80        	<unknown>
      2e: 01 5a        	<unknown>
      30: 00 07        	<unknown>
      32: f0 25        	<unknown>
      34: 00 80        	<unknown>
      36: 10 26        	<unknown>
      38: 00 80        	<unknown>
      3a: 01 5a        	<unknown>
      3c: 07 10 26 00  	<unknown>
      40: 80 28        	<unknown>
      42: 26 00        	<unknown>
      44: 80 04        	<unknown>
      46: a3 01 5a 9f  	sb	s5, -1565(s4)
      4a: 07 28 26 00  	flw	fa6, 2(a2)
      4e: 80 3c        	<unknown>
      50: 26 00        	<unknown>
      52: 80 01        	<unknown>
      54: 5a 00        	<unknown>
      56: 07 04 26 00  	<unknown>
      5a: 80 18        	<unknown>
      5c: 26 00        	<unknown>
      5e: 80 01        	<unknown>
      60: 5f           	<unknown>
      61: 00           	<unknown>

Disassembly of section .debug_rnglists:

00000000 <.debug_rnglists>:
       0: 24 00        	<unknown>
       2: 00 00        	<unknown>
       4: 05 00        	<unknown>
       6: 04 00        	<unknown>
       8: 00 00        	<unknown>
       a: 00 00        	<unknown>
       c: 06 f0        	<unknown>
       e: 25 00        	<unknown>
      10: 80 04        	<unknown>
      12: 26 00        	<unknown>
      14: 80 06        	<unknown>
      16: 04 26        	<unknown>
      18: 00 80        	<unknown>
      1a: 20 26        	<unknown>
      1c: 00 80        	<unknown>
      1e: 06 28        	<unknown>
      20: 26 00        	<unknown>
      22: 80 3c        	<unknown>
      24: 26 00        	<unknown>
      26: 80 00        	<unknown>

Disassembly of section .debug_line_str:

00000000 <.debug_line_str>:
       0: 2e 2e        	<unknown>
       2: 2f 2e 2e 2f  	<unknown>
       6: 2e 2e        	<unknown>
       8: 2f 2e 2e 2f  	<unknown>
       c: 67 63 63 2f  	<unknown>
      10: 6c 69        	<unknown>
      12: 62 67        	<unknown>
      14: 63 63 2f 6c  	bltu	t5, sp, 0x6da <.debug_info+0x6da>
      18: 69 62        	<unknown>
      1a: 67 63 63 32  	<unknown>
      1e: 2e 63        	<unknown>
      20: 00 2f        	<unknown>
      22: 68 6f        	<unknown>
      24: 6d 65        	<unknown>
      26: 2f 62 6c 61  	<unknown>
      2a: 69 73        	<unknown>
      2c: 65 2f        	<unknown>
      2e: 64 65        	<unknown>
      30: 76 2f        	<unknown>
      32: 72 69        	<unknown>
      34: 73 63 76 2d  	csrrsi	t1, 727, 12
      38: 67 6e 75 2d  	<unknown>
      3c: 74 6f        	<unknown>
      3e: 6f 6c 63 68  	jal	s8, 0x366c4 <.debug_info+0x366c4>
      42: 61 69        	<unknown>
      44: 6e 2f        	<unknown>
      46: 62 75        	<unknown>
      48: 69 6c        	<unknown>
      4a: 64 33        	<unknown>
      4c: 32 2f        	<unknown>
      4e: 62 75        	<unknown>
      50: 69 6c        	<unknown>
      52: 64 2d        	<unknown>
      54: 67 63 63 2d  	<unknown>
      58: 6e 65        	<unknown>
      5a: 77 6c 69 62  	<unknown>
      5e: 2d 73        	<unknown>
      60: 74 61        	<unknown>
      62: 67 65 32 2f  	<unknown>
      66: 72 69        	<unknown>
      68: 73 63 76 33  	csrrsi	t1, mhpmevent23, 12
      6c: 32 2d        	<unknown>
      6e: 75 6e        	<unknown>
      70: 6b 6e 6f 77  	<unknown>
      74: 6e 2d        	<unknown>
      76: 65 6c        	<unknown>
      78: 66 2f        	<unknown>
      7a: 6c 69        	<unknown>
      7c: 62 67        	<unknown>
      7e: 63 63 00 2e  	bltu	zero, zero, 0x364 <.debug_info+0x364>
      82: 2e 2f        	<unknown>
      84: 2e 2e        	<unknown>
      86: 2f 2e 2e 2f  	<unknown>
      8a: 2e 2e        	<unknown>
      8c: 2f 67 63 63  	<unknown>
      90: 2f 6c 69 62  	<unknown>
      94: 67 63 63 00  	<unknown>
      98: 6c 69        	<unknown>
      9a: 62 67        	<unknown>
      9c: 63 63 32 2e  	bltu	tp, gp, 0x382 <.debug_info+0x382>
      a0: 68 00        	<unknown>

Disassembly of section .symtab:

00000000 <.symtab>:
		...
      14: 00 00        	<unknown>
      16: 00 80        	<unknown>
      18: 00 00        	<unknown>
      1a: 00 00        	<unknown>
      1c: 03 00 01 00  	lb	zero, 0(sp)
      20: 00 00        	<unknown>
      22: 00 00        	<unknown>
      24: 84 00        	<unknown>
      26: 00 80        	<unknown>
      28: 00 00        	<unknown>
      2a: 00 00        	<unknown>
      2c: 03 00 02 00  	lb	zero, 0(tp)
      30: 00 00        	<unknown>
      32: 00 00        	<unknown>
      34: 3c 26        	<unknown>
      36: 00 80        	<unknown>
      38: 00 00        	<unknown>
      3a: 00 00        	<unknown>
      3c: 03 00 03 00  	lb	zero, 0(t1)
      40: 00 00        	<unknown>
      42: 00 00        	<unknown>
      44: 14 3b        	<unknown>
      46: 00 80        	<unknown>
      48: 00 00        	<unknown>
      4a: 00 00        	<unknown>
      4c: 03 00 04 00  	lb	zero, 0(s0)
      50: 00 00        	<unknown>
      52: 00 00        	<unknown>
      54: 18 3b        	<unknown>
      56: 00 80        	<unknown>
      58: 00 00        	<unknown>
      5a: 00 00        	<unknown>
      5c: 03 00 05 00  	lb	zero, 0(a0)
      60: 00 00        	<unknown>
      62: 00 00        	<unknown>
      64: 40 3f        	<unknown>
      66: 00 80        	<unknown>
      68: 00 00        	<unknown>
      6a: 00 00        	<unknown>
      6c: 03 00 06 00  	lb	zero, 0(a2)
      70: 00 00        	<unknown>
      72: 00 00        	<unknown>
      74: cc 3f        	<unknown>
      76: 00 80        	<unknown>
      78: 00 00        	<unknown>
      7a: 00 00        	<unknown>
      7c: 03 00 07 00  	lb	zero, 0(a4)
		...
      8c: 03 00 08 00  	lb	zero, 0(a6)
		...
      9c: 03 00 09 00  	lb	zero, 0(s2)
		...
      ac: 03 00 0a 00  	lb	zero, 0(s4)
		...
      bc: 03 00 0b 00  	lb	zero, 0(s6)
		...
      cc: 03 00 0c 00  	lb	zero, 0(s8)
		...
      dc: 03 00 0d 00  	lb	zero, 0(s10)
		...
      ec: 03 00 0e 00  	lb	zero, 0(t3)
		...
      fc: 03 00 0f 00  	lb	zero, 0(t5)
		...
     10c: 03 00 10 00  	lb	zero, 1(zero)
		...
     11c: 03 00 11 00  	lb	zero, 1(sp)
		...
     12c: 03 00 12 00  	lb	zero, 1(tp)
     130: 01 00        	<unknown>
		...
     13a: 00 00        	<unknown>
     13c: 04 00        	<unknown>
     13e: f1 ff        	<unknown>
     140: 0e 00        	<unknown>
     142: 00 00        	<unknown>
     144: 00 00        	<unknown>
     146: 00 80        	<unknown>
     148: 00 00        	<unknown>
     14a: 00 00        	<unknown>
     14c: 00 00        	<unknown>
     14e: 01 00        	<unknown>
     150: 3a 00        	<unknown>
     152: 00 00        	<unknown>
     154: d8 08        	<unknown>
     156: 00 80        	<unknown>
     158: 00 00        	<unknown>
     15a: 00 00        	<unknown>
     15c: 02 00        	<unknown>
     15e: 02 00        	<unknown>
     160: 48 00        	<unknown>
     162: 00 00        	<unknown>
     164: a4 08        	<unknown>
     166: 00 80        	<unknown>
     168: 00 00        	<unknown>
     16a: 00 00        	<unknown>
     16c: 02 00        	<unknown>
     16e: 02 00        	<unknown>
     170: 52 00        	<unknown>
     172: 00 00        	<unknown>
     174: ec 08        	<unknown>
     176: 00 80        	<unknown>
     178: 00 00        	<unknown>
     17a: 00 00        	<unknown>
     17c: 02 00        	<unknown>
     17e: 02 00        	<unknown>
     180: 0e 00        	<unknown>
     182: 00 00        	<unknown>
     184: 94 08        	<unknown>
     186: 00 80        	<unknown>
     188: 00 00        	<unknown>
     18a: 00 00        	<unknown>
     18c: 00 00        	<unknown>
     18e: 02 00        	<unknown>
     190: e6 01        	<unknown>
		...
     19a: 00 00        	<unknown>
     19c: 04 00        	<unknown>
     19e: f1 ff        	<unknown>
     1a0: 5f 00 00 00  	<unknown>
     1a4: 84 00        	<unknown>
     1a6: 00 80        	<unknown>
     1a8: 00 00        	<unknown>
     1aa: 00 00        	<unknown>
     1ac: 00 00        	<unknown>
     1ae: 02 00        	<unknown>
     1b0: 86 00        	<unknown>
		...
     1ba: 00 00        	<unknown>
     1bc: 04 00        	<unknown>
     1be: f1 ff        	<unknown>
     1c0: 96 00        	<unknown>
     1c2: 00 00        	<unknown>
     1c4: b8 00        	<unknown>
     1c6: 00 80        	<unknown>
     1c8: 18 00        	<unknown>
     1ca: 00 00        	<unknown>
     1cc: 02 00        	<unknown>
     1ce: 02 00        	<unknown>
     1d0: 5f 00 00 00  	<unknown>
     1d4: b8 00        	<unknown>
     1d6: 00 80        	<unknown>
     1d8: 00 00        	<unknown>
     1da: 00 00        	<unknown>
     1dc: 00 00        	<unknown>
     1de: 02 00        	<unknown>
     1e0: 5f 00 00 00  	<unknown>
     1e4: cc 24        	<unknown>
     1e6: 00 80        	<unknown>
     1e8: 00 00        	<unknown>
     1ea: 00 00        	<unknown>
     1ec: 00 00        	<unknown>
     1ee: 02 00        	<unknown>
     1f0: a4 00        	<unknown>
		...
     1fa: 00 00        	<unknown>
     1fc: 04 00        	<unknown>
     1fe: f1 ff        	<unknown>
     200: c0 00        	<unknown>
		...
     20a: 00 00        	<unknown>
     20c: 04 00        	<unknown>
     20e: f1 ff        	<unknown>
     210: cc 00        	<unknown>
     212: 00 00        	<unknown>
     214: fc 00        	<unknown>
     216: 00 80        	<unknown>
     218: 24 00        	<unknown>
     21a: 00 00        	<unknown>
     21c: 02 00        	<unknown>
     21e: 02 00        	<unknown>
     220: d8 00        	<unknown>
     222: 00 00        	<unknown>
     224: 20 01        	<unknown>
     226: 00 80        	<unknown>
     228: 24 00        	<unknown>
     22a: 00 00        	<unknown>
     22c: 02 00        	<unknown>
     22e: 02 00        	<unknown>
     230: e4 00        	<unknown>
		...
     23a: 00 00        	<unknown>
     23c: 04 00        	<unknown>
     23e: f1 ff        	<unknown>
     240: 0e 00        	<unknown>
     242: 00 00        	<unknown>
     244: 10 09        	<unknown>
     246: 00 80        	<unknown>
     248: 00 00        	<unknown>
     24a: 00 00        	<unknown>
     24c: 00 00        	<unknown>
     24e: 02 00        	<unknown>
     250: 0e 00        	<unknown>
     252: 00 00        	<unknown>
     254: 54 09        	<unknown>
     256: 00 80        	<unknown>
     258: 00 00        	<unknown>
     25a: 00 00        	<unknown>
     25c: 00 00        	<unknown>
     25e: 02 00        	<unknown>
     260: 0e 00        	<unknown>
     262: 00 00        	<unknown>
     264: e8 09        	<unknown>
     266: 00 80        	<unknown>
     268: 00 00        	<unknown>
     26a: 00 00        	<unknown>
     26c: 00 00        	<unknown>
     26e: 02 00        	<unknown>
     270: f2 00        	<unknown>
		...
     27a: 00 00        	<unknown>
     27c: 04 00        	<unknown>
     27e: f1 ff        	<unknown>
     280: fd 00        	<unknown>
     282: 00 00        	<unknown>
     284: 44 0a        	<unknown>
     286: 00 80        	<unknown>
     288: 5c 01        	<unknown>
     28a: 00 00        	<unknown>
     28c: 02 00        	<unknown>
     28e: 02 00        	<unknown>
     290: 0e 00        	<unknown>
     292: 00 00        	<unknown>
     294: 44 0a        	<unknown>
     296: 00 80        	<unknown>
     298: 00 00        	<unknown>
     29a: 00 00        	<unknown>
     29c: 00 00        	<unknown>
     29e: 02 00        	<unknown>
     2a0: 13 01 00 00  	li	sp, 0
     2a4: a0 0b        	<unknown>
     2a6: 00 80        	<unknown>
     2a8: 84 00        	<unknown>
     2aa: 00 00        	<unknown>
     2ac: 02 00        	<unknown>
     2ae: 02 00        	<unknown>
     2b0: 0e 00        	<unknown>
     2b2: 00 00        	<unknown>
     2b4: a0 0b        	<unknown>
     2b6: 00 80        	<unknown>
     2b8: 00 00        	<unknown>
     2ba: 00 00        	<unknown>
     2bc: 00 00        	<unknown>
     2be: 02 00        	<unknown>
     2c0: 29 01        	<unknown>
     2c2: 00 00        	<unknown>
     2c4: 24 0c        	<unknown>
     2c6: 00 80        	<unknown>
     2c8: 24 00        	<unknown>
     2ca: 00 00        	<unknown>
     2cc: 02 00        	<unknown>
     2ce: 02 00        	<unknown>
     2d0: 0e 00        	<unknown>
     2d2: 00 00        	<unknown>
     2d4: 24 0c        	<unknown>
     2d6: 00 80        	<unknown>
     2d8: 00 00        	<unknown>
     2da: 00 00        	<unknown>
     2dc: 00 00        	<unknown>
     2de: 02 00        	<unknown>
     2e0: 0e 00        	<unknown>
     2e2: 00 00        	<unknown>
     2e4: 48 0c        	<unknown>
     2e6: 00 80        	<unknown>
     2e8: 00 00        	<unknown>
     2ea: 00 00        	<unknown>
     2ec: 00 00        	<unknown>
     2ee: 02 00        	<unknown>
     2f0: 3d 01        	<unknown>
		...
     2fa: 00 00        	<unknown>
     2fc: 04 00        	<unknown>
     2fe: f1 ff        	<unknown>
     300: 0e 00        	<unknown>
     302: 00 00        	<unknown>
     304: 40 0e        	<unknown>
     306: 00 80        	<unknown>
     308: 00 00        	<unknown>
     30a: 00 00        	<unknown>
     30c: 00 00        	<unknown>
     30e: 02 00        	<unknown>
     310: 47 01 00 00  	fmsub.s	ft2, ft0, ft0, ft0, rne
		...
     31c: 04 00        	<unknown>
     31e: f1 ff        	<unknown>
     320: 5f 00 00 00  	<unknown>
     324: 58 10        	<unknown>
     326: 00 80        	<unknown>
     328: 00 00        	<unknown>
     32a: 00 00        	<unknown>
     32c: 00 00        	<unknown>
     32e: 02 00        	<unknown>
     330: 50 01        	<unknown>
		...
     33a: 00 00        	<unknown>
     33c: 04 00        	<unknown>
     33e: f1 ff        	<unknown>
     340: 5f 00 00 00  	<unknown>
     344: f8 10        	<unknown>
     346: 00 80        	<unknown>
     348: 00 00        	<unknown>
     34a: 00 00        	<unknown>
     34c: 00 00        	<unknown>
     34e: 02 00        	<unknown>
     350: 59 01        	<unknown>
		...
     35a: 00 00        	<unknown>
     35c: 04 00        	<unknown>
     35e: f1 ff        	<unknown>
     360: 5f 00 00 00  	<unknown>
     364: 9c 11        	<unknown>
     366: 00 80        	<unknown>
     368: 00 00        	<unknown>
     36a: 00 00        	<unknown>
     36c: 00 00        	<unknown>
     36e: 02 00        	<unknown>
     370: 67 01 00 00  	jalr	sp, zero
     374: c4 26        	<unknown>
     376: 00 80        	<unknown>
     378: 18 03        	<unknown>
     37a: 00 00        	<unknown>
     37c: 01 00        	<unknown>
     37e: 03 00 73 01  	lb	zero, 23(t1)
     382: 00 00        	<unknown>
     384: 44 26        	<unknown>
     386: 00 80        	<unknown>
     388: 80 00        	<unknown>
     38a: 00 00        	<unknown>
     38c: 01 00        	<unknown>
     38e: 03 00 7c 01  	lb	zero, 23(s8)
		...
     39a: 00 00        	<unknown>
     39c: 04 00        	<unknown>
     39e: f1 ff        	<unknown>
     3a0: 5f 00 00 00  	<unknown>
     3a4: b8 14        	<unknown>
     3a6: 00 80        	<unknown>
     3a8: 00 00        	<unknown>
     3aa: 00 00        	<unknown>
     3ac: 00 00        	<unknown>
     3ae: 02 00        	<unknown>
     3b0: 85 01        	<unknown>
		...
     3ba: 00 00        	<unknown>
     3bc: 04 00        	<unknown>
     3be: f1 ff        	<unknown>
     3c0: 5f 00 00 00  	<unknown>
     3c4: 04 16        	<unknown>
     3c6: 00 80        	<unknown>
     3c8: 00 00        	<unknown>
     3ca: 00 00        	<unknown>
     3cc: 00 00        	<unknown>
     3ce: 02 00        	<unknown>
     3d0: 93 01 00 00  	li	gp, 0
     3d4: 08 2a        	<unknown>
     3d6: 00 80        	<unknown>
     3d8: 0c 00        	<unknown>
     3da: 00 00        	<unknown>
     3dc: 01 00        	<unknown>
     3de: 03 00 9b 01  	lb	zero, 25(s6)
     3e2: 00 00        	<unknown>
     3e4: dc 29        	<unknown>
     3e6: 00 80        	<unknown>
     3e8: 2c 00        	<unknown>
     3ea: 00 00        	<unknown>
     3ec: 01 00        	<unknown>
     3ee: 03 00 a0 01  	lb	zero, 26(zero)
		...
     3fa: 00 00        	<unknown>
     3fc: 04 00        	<unknown>
     3fe: f1 ff        	<unknown>
     400: 5f 00 00 00  	<unknown>
     404: f4 1e        	<unknown>
     406: 00 80        	<unknown>
     408: 00 00        	<unknown>
     40a: 00 00        	<unknown>
     40c: 00 00        	<unknown>
     40e: 02 00        	<unknown>
     410: a9 01        	<unknown>
		...
     41a: 00 00        	<unknown>
     41c: 04 00        	<unknown>
     41e: f1 ff        	<unknown>
     420: 5f 00 00 00  	<unknown>
     424: a0 1f        	<unknown>
     426: 00 80        	<unknown>
     428: 00 00        	<unknown>
     42a: 00 00        	<unknown>
     42c: 00 00        	<unknown>
     42e: 02 00        	<unknown>
     430: b3 01 00 00  	add	gp, zero, zero
		...
     43c: 04 00        	<unknown>
     43e: f1 ff        	<unknown>
     440: 5f 00 00 00  	<unknown>
     444: a8 1f        	<unknown>
     446: 00 80        	<unknown>
     448: 00 00        	<unknown>
     44a: 00 00        	<unknown>
     44c: 00 00        	<unknown>
     44e: 02 00        	<unknown>
     450: be 01        	<unknown>
		...
     45a: 00 00        	<unknown>
     45c: 04 00        	<unknown>
     45e: f1 ff        	<unknown>
     460: 5f 00 00 00  	<unknown>
     464: 74 20        	<unknown>
     466: 00 80        	<unknown>
     468: 00 00        	<unknown>
     46a: 00 00        	<unknown>
     46c: 00 00        	<unknown>
     46e: 02 00        	<unknown>
     470: e4 01        	<unknown>
		...
     47a: 00 00        	<unknown>
     47c: 04 00        	<unknown>
     47e: f1 ff        	<unknown>
     480: 5f 00 00 00  	<unknown>
     484: 9c 21        	<unknown>
     486: 00 80        	<unknown>
     488: 00 00        	<unknown>
     48a: 00 00        	<unknown>
     48c: 00 00        	<unknown>
     48e: 02 00        	<unknown>
     490: ca 01        	<unknown>
		...
     49a: 00 00        	<unknown>
     49c: 04 00        	<unknown>
     49e: f1 ff        	<unknown>
     4a0: 5f 00 00 00  	<unknown>
     4a4: b0 21        	<unknown>
     4a6: 00 80        	<unknown>
     4a8: 00 00        	<unknown>
     4aa: 00 00        	<unknown>
     4ac: 00 00        	<unknown>
     4ae: 02 00        	<unknown>
     4b0: d3 01 00 00  	fadd.s	ft3, ft0, ft0, rne
		...
     4bc: 04 00        	<unknown>
     4be: f1 ff        	<unknown>
     4c0: 5f 00 00 00  	<unknown>
     4c4: 54 23        	<unknown>
     4c6: 00 80        	<unknown>
     4c8: 00 00        	<unknown>
     4ca: 00 00        	<unknown>
     4cc: 00 00        	<unknown>
     4ce: 02 00        	<unknown>
     4d0: e2 01        	<unknown>
		...
     4da: 00 00        	<unknown>
     4dc: 04 00        	<unknown>
     4de: f1 ff        	<unknown>
     4e0: 5f 00 00 00  	<unknown>
     4e4: 30 24        	<unknown>
     4e6: 00 80        	<unknown>
     4e8: 00 00        	<unknown>
     4ea: 00 00        	<unknown>
     4ec: 00 00        	<unknown>
     4ee: 02 00        	<unknown>
     4f0: ed 01        	<unknown>
		...
     4fa: 00 00        	<unknown>
     4fc: 04 00        	<unknown>
     4fe: f1 ff        	<unknown>
     500: 5f 00 00 00  	<unknown>
     504: f0 25        	<unknown>
     506: 00 80        	<unknown>
     508: 00 00        	<unknown>
     50a: 00 00        	<unknown>
     50c: 00 00        	<unknown>
     50e: 02 00        	<unknown>
     510: ed 01        	<unknown>
		...
     51a: 00 00        	<unknown>
     51c: 04 00        	<unknown>
     51e: f1 ff        	<unknown>
     520: f7 01 00 00  	<unknown>
		...
     52c: 04 00        	<unknown>
     52e: f1 ff        	<unknown>
     530: 00 02        	<unknown>
     532: 00 00        	<unknown>
     534: 18 3b        	<unknown>
     536: 00 80        	<unknown>
     538: 28 04        	<unknown>
     53a: 00 00        	<unknown>
     53c: 01 00        	<unknown>
     53e: 05 00        	<unknown>
		...
     54c: 04 00        	<unknown>
     54e: f1 ff        	<unknown>
     550: 0c 02        	<unknown>
     552: 00 00        	<unknown>
     554: 18 3b        	<unknown>
     556: 00 80        	<unknown>
     558: 00 00        	<unknown>
     55a: 00 00        	<unknown>
     55c: 00 00        	<unknown>
     55e: 05 00        	<unknown>
     560: 1d 02        	<unknown>
     562: 00 00        	<unknown>
     564: 14 3b        	<unknown>
     566: 00 80        	<unknown>
     568: 00 00        	<unknown>
     56a: 00 00        	<unknown>
     56c: 00 00        	<unknown>
     56e: 04 00        	<unknown>
     570: 2a 02        	<unknown>
     572: 00 00        	<unknown>
     574: 18 3b        	<unknown>
     576: 00 80        	<unknown>
     578: 00 00        	<unknown>
     57a: 00 00        	<unknown>
     57c: 00 00        	<unknown>
     57e: 05 00        	<unknown>
     580: 3d 02        	<unknown>
     582: 00 00        	<unknown>
     584: 14 3b        	<unknown>
     586: 00 80        	<unknown>
     588: 00 00        	<unknown>
     58a: 00 00        	<unknown>
     58c: 00 00        	<unknown>
     58e: 04 00        	<unknown>
     590: 4b 02 00 00  	fnmsub.s	ft4, ft0, ft0, ft0, rne
     594: 18 3b        	<unknown>
     596: 00 80        	<unknown>
     598: 00 00        	<unknown>
     59a: 00 00        	<unknown>
     59c: 00 00        	<unknown>
     59e: 04 00        	<unknown>
     5a0: 5c 02        	<unknown>
		...
     5ae: f1 ff        	<unknown>
     5b0: 6a 02        	<unknown>
     5b2: 00 00        	<unknown>
     5b4: 14 3b        	<unknown>
     5b6: 00 80        	<unknown>
     5b8: 00 00        	<unknown>
     5ba: 00 00        	<unknown>
     5bc: 00 00        	<unknown>
     5be: 04 00        	<unknown>
     5c0: 7e 02        	<unknown>
     5c2: 00 00        	<unknown>
     5c4: 14 3b        	<unknown>
     5c6: 00 80        	<unknown>
     5c8: 00 00        	<unknown>
     5ca: 00 00        	<unknown>
     5cc: 00 00        	<unknown>
     5ce: 04 00        	<unknown>
     5d0: 89 02        	<unknown>
     5d2: 00 00        	<unknown>
     5d4: 14 3b        	<unknown>
     5d6: 00 80        	<unknown>
     5d8: 00 00        	<unknown>
     5da: 00 00        	<unknown>
     5dc: 00 00        	<unknown>
     5de: 04 00        	<unknown>
     5e0: 9c 02        	<unknown>
     5e2: 00 00        	<unknown>
     5e4: 14 3b        	<unknown>
     5e6: 00 80        	<unknown>
     5e8: 00 00        	<unknown>
     5ea: 00 00        	<unknown>
     5ec: 00 00        	<unknown>
     5ee: 04 00        	<unknown>
     5f0: b2 02        	<unknown>
     5f2: 00 00        	<unknown>
     5f4: 9c 11        	<unknown>
     5f6: 00 80        	<unknown>
     5f8: 1c 03        	<unknown>
     5fa: 00 00        	<unknown>
     5fc: 12 00        	<unknown>
     5fe: 02 00        	<unknown>
     600: c6 02        	<unknown>
     602: 00 00        	<unknown>
     604: cc 3f        	<unknown>
     606: 00 80        	<unknown>
     608: 00 10        	<unknown>
     60a: 00 00        	<unknown>
     60c: 11 00        	<unknown>
     60e: 07 00 d4 02  	<unknown>
     612: 00 00        	<unknown>
     614: 40 3f        	<unknown>
     616: 00 80        	<unknown>
     618: 00 00        	<unknown>
     61a: 00 00        	<unknown>
     61c: 10 00        	<unknown>
     61e: 06 00        	<unknown>
     620: e4 02        	<unknown>
     622: 00 00        	<unknown>
     624: 00 09        	<unknown>
     626: 00 80        	<unknown>
     628: 00 00        	<unknown>
     62a: 00 00        	<unknown>
     62c: 12 00        	<unknown>
     62e: 02 00        	<unknown>
     630: f3 02 00 00  	<unknown>
     634: b0 21        	<unknown>
     636: 00 80        	<unknown>
     638: a4 01        	<unknown>
     63a: 00 00        	<unknown>
     63c: 12 00        	<unknown>
     63e: 02 00        	<unknown>
     640: fa 02        	<unknown>
     642: 00 00        	<unknown>
     644: 40 47        	<unknown>
     646: 00 80        	<unknown>
     648: 00 00        	<unknown>
     64a: 00 00        	<unknown>
     64c: 10 00        	<unknown>
     64e: f1 ff        	<unknown>
     650: 0b 03 00 00  	<unknown>
     654: 44 01        	<unknown>
     656: 00 80        	<unknown>
     658: 50 07        	<unknown>
     65a: 00 00        	<unknown>
     65c: 12 00        	<unknown>
     65e: 02 00        	<unknown>
     660: 2d 03        	<unknown>
     662: 00 00        	<unknown>
     664: a0 1f        	<unknown>
     666: 00 80        	<unknown>
     668: 08 00        	<unknown>
     66a: 00 00        	<unknown>
     66c: 12 00        	<unknown>
     66e: 02 00        	<unknown>
     670: 33 03 00 00  	add	t1, zero, zero
     674: c8 3f        	<unknown>
     676: 00 80        	<unknown>
     678: 04 00        	<unknown>
     67a: 00 00        	<unknown>
     67c: 11 00        	<unknown>
     67e: 06 00        	<unknown>
     680: 46 03        	<unknown>
     682: 00 00        	<unknown>
     684: 54 09        	<unknown>
     686: 00 80        	<unknown>
     688: 94 00        	<unknown>
     68a: 00 00        	<unknown>
     68c: 12 00        	<unknown>
     68e: 02 00        	<unknown>
     690: 58 03        	<unknown>
     692: 00 00        	<unknown>
     694: f4 1e        	<unknown>
     696: 00 80        	<unknown>
     698: ac 00        	<unknown>
     69a: 00 00        	<unknown>
     69c: 12 00        	<unknown>
     69e: 02 00        	<unknown>
     6a0: 66 03        	<unknown>
     6a2: 00 00        	<unknown>
     6a4: 10 09        	<unknown>
     6a6: 00 80        	<unknown>
     6a8: 44 00        	<unknown>
     6aa: 00 00        	<unknown>
     6ac: 12 00        	<unknown>
     6ae: 02 00        	<unknown>
     6b0: d3 00 00 00  	fadd.s	ft1, ft0, ft0, rne
     6b4: 58 10        	<unknown>
     6b6: 00 80        	<unknown>
     6b8: a0 00        	<unknown>
     6ba: 00 00        	<unknown>
     6bc: 12 00        	<unknown>
     6be: 02 00        	<unknown>
     6c0: 71 03        	<unknown>
     6c2: 00 00        	<unknown>
     6c4: e8 09        	<unknown>
     6c6: 00 80        	<unknown>
     6c8: 5c 00        	<unknown>
     6ca: 00 00        	<unknown>
     6cc: 12 00        	<unknown>
     6ce: 02 00        	<unknown>
     6d0: 83 03 00 00  	lb	t2, 0(zero)
     6d4: b8 14        	<unknown>
     6d6: 00 80        	<unknown>
     6d8: 4c 01        	<unknown>
     6da: 00 00        	<unknown>
     6dc: 12 00        	<unknown>
     6de: 02 00        	<unknown>
     6e0: 91 03        	<unknown>
		...
     6ea: 00 00        	<unknown>
     6ec: 10 00        	<unknown>
     6ee: f1 ff        	<unknown>
     6f0: 9e 03        	<unknown>
		...
     6fa: 00 00        	<unknown>
     6fc: 10 00        	<unknown>
     6fe: f1 ff        	<unknown>
     700: aa 03        	<unknown>
     702: 00 00        	<unknown>
     704: f0 25        	<unknown>
     706: 00 80        	<unknown>
     708: 4c 00        	<unknown>
     70a: 00 00        	<unknown>
     70c: 12 02        	<unknown>
     70e: 02 00        	<unknown>
     710: b3 03 00 00  	add	t2, zero, zero
     714: cc 24        	<unknown>
     716: 00 80        	<unknown>
     718: 24 01        	<unknown>
     71a: 00 00        	<unknown>
     71c: 12 00        	<unknown>
     71e: 02 00        	<unknown>
     720: 44 02        	<unknown>
     722: 00 00        	<unknown>
     724: 00 00        	<unknown>
     726: 00 80        	<unknown>
     728: 84 00        	<unknown>
     72a: 00 00        	<unknown>
     72c: 12 00        	<unknown>
     72e: 01 00        	<unknown>
     730: c4 03        	<unknown>
     732: 00 00        	<unknown>
     734: 30 24        	<unknown>
     736: 00 80        	<unknown>
     738: 9c 00        	<unknown>
     73a: 00 00        	<unknown>
     73c: 12 00        	<unknown>
     73e: 02 00        	<unknown>
     740: d8 03        	<unknown>
     742: 00 00        	<unknown>
     744: cc 4f        	<unknown>
     746: 00 80        	<unknown>
     748: 00 00        	<unknown>
     74a: 00 00        	<unknown>
     74c: 10 00        	<unknown>
     74e: 07 00 e4 03  	<unknown>
     752: 00 00        	<unknown>
     754: 74 20        	<unknown>
     756: 00 80        	<unknown>
     758: 28 01        	<unknown>
     75a: 00 00        	<unknown>
     75c: 12 00        	<unknown>
     75e: 02 00        	<unknown>
     760: ec 03        	<unknown>
     762: 00 00        	<unknown>
     764: cc 3f        	<unknown>
     766: 00 80        	<unknown>
     768: 00 00        	<unknown>
     76a: 00 00        	<unknown>
     76c: 10 00        	<unknown>
     76e: 07 00 f8 03  	<unknown>
     772: 00 00        	<unknown>
     774: 54 23        	<unknown>
     776: 00 80        	<unknown>
     778: dc 00        	<unknown>
     77a: 00 00        	<unknown>
     77c: 12 00        	<unknown>
     77e: 02 00        	<unknown>
     780: ff 03 00 00  	<unknown>
     784: d0 00        	<unknown>
     786: 00 80        	<unknown>
     788: 2c 00        	<unknown>
     78a: 00 00        	<unknown>
     78c: 12 00        	<unknown>
     78e: 02 00        	<unknown>
     790: 04 04        	<unknown>
     792: 00 00        	<unknown>
     794: 14 2a        	<unknown>
     796: 00 80        	<unknown>
     798: 00 01        	<unknown>
     79a: 00 00        	<unknown>
     79c: 11 02        	<unknown>
     79e: 03 00 0e 04  	lb	zero, 64(t3)
     7a2: 00 00        	<unknown>
     7a4: 9c 21        	<unknown>
     7a6: 00 80        	<unknown>
     7a8: 14 00        	<unknown>
     7aa: 00 00        	<unknown>
     7ac: 12 00        	<unknown>
     7ae: 02 00        	<unknown>
     7b0: 15 04        	<unknown>
		...
     7ba: 00 00        	<unknown>
     7bc: 10 00        	<unknown>
     7be: f1 ff        	<unknown>
     7c0: 28 04        	<unknown>
     7c2: 00 00        	<unknown>
     7c4: 00 00        	<unknown>
     7c6: 00 80        	<unknown>
     7c8: 00 00        	<unknown>
     7ca: 00 00        	<unknown>
     7cc: 10 00        	<unknown>
     7ce: f1 ff        	<unknown>
     7d0: df 00 00 00  	<unknown>
     7d4: f8 10        	<unknown>
     7d6: 00 80        	<unknown>
     7d8: a4 00        	<unknown>
     7da: 00 00        	<unknown>
     7dc: 12 00        	<unknown>
     7de: 02 00        	<unknown>
     7e0: 35 04        	<unknown>
     7e2: 00 00        	<unknown>
     7e4: 18 3b        	<unknown>
     7e6: 00 80        	<unknown>
     7e8: 00 00        	<unknown>
     7ea: 00 00        	<unknown>
     7ec: 10 00        	<unknown>
     7ee: 05 00        	<unknown>
     7f0: 44 04        	<unknown>
     7f2: 00 00        	<unknown>
     7f4: cc 3f        	<unknown>
     7f6: 00 80        	<unknown>
     7f8: 00 00        	<unknown>
     7fa: 00 00        	<unknown>
     7fc: 10 00        	<unknown>
     7fe: 06 00        	<unknown>
     800: 84 02        	<unknown>
     802: 00 00        	<unknown>
     804: cc 4f        	<unknown>
     806: 00 80        	<unknown>
     808: 00 00        	<unknown>
     80a: 00 00        	<unknown>
     80c: 10 00        	<unknown>
     80e: 07 00 59 04  	<unknown>
     812: 00 00        	<unknown>
     814: 84 00        	<unknown>
     816: 00 80        	<unknown>
     818: 34 00        	<unknown>
     81a: 00 00        	<unknown>
     81c: 12 00        	<unknown>
     81e: 02 00        	<unknown>
     820: 4b 04 00 00  	fnmsub.s	fs0, ft0, ft0, ft0, rne
     824: 40 0e        	<unknown>
     826: 00 80        	<unknown>
     828: 18 02        	<unknown>
     82a: 00 00        	<unknown>
     82c: 12 00        	<unknown>
     82e: 02 00        	<unknown>
     830: 58 04        	<unknown>
     832: 00 00        	<unknown>
     834: 94 08        	<unknown>
     836: 00 80        	<unknown>
     838: 00 00        	<unknown>
     83a: 00 00        	<unknown>
     83c: 12 00        	<unknown>
     83e: 02 00        	<unknown>
     840: 5e 04        	<unknown>
     842: 00 00        	<unknown>
     844: 04 16        	<unknown>
     846: 00 80        	<unknown>
     848: f0 08        	<unknown>
     84a: 00 00        	<unknown>
     84c: 12 00        	<unknown>
     84e: 02 00        	<unknown>
     850: 71 04        	<unknown>
     852: 00 00        	<unknown>
     854: a8 1f        	<unknown>
     856: 00 80        	<unknown>
     858: cc 00        	<unknown>
     85a: 00 00        	<unknown>
     85c: 12 00        	<unknown>
     85e: 02 00        	<unknown>
     860: 78 04        	<unknown>
     862: 00 00        	<unknown>
     864: 48 0c        	<unknown>
     866: 00 80        	<unknown>
     868: f8 01        	<unknown>
     86a: 00 00        	<unknown>
     86c: 12 00        	<unknown>
     86e: 02 00        	<unknown>

Disassembly of section .strtab:

00000000 <.strtab>:
       0: 00 76        	<unknown>
       2: 78 5f        	<unknown>
       4: 73 74 61 72  	csrrci	s0, mhpmevent6h, 2
       8: 74 2e        	<unknown>
       a: 53 2e 6f 00  	fadd.s	ft8, ft10, ft6, rdn
       e: 24 78        	<unknown>
      10: 72 76        	<unknown>
      12: 33 32 69 32  	<unknown>
      16: 70 31        	<unknown>
      18: 5f 6d 32 70  	<unknown>
      1c: 30 5f        	<unknown>
      1e: 61 32        	<unknown>
      20: 70 31        	<unknown>
      22: 5f 66 32 70  	<unknown>
      26: 32 5f        	<unknown>
      28: 7a 69        	<unknown>
      2a: 63 73 72 32  	bgeu	tp, t2, 0x350 <.symtab+0x350>
      2e: 70 30        	<unknown>
      30: 5f 7a 6d 6d  	<unknown>
      34: 75 6c        	<unknown>
      36: 31 70        	<unknown>
      38: 30 00        	<unknown>
      3a: 69 6e        	<unknown>
      3c: 69 74        	<unknown>
      3e: 5f 72 65 67  	<unknown>
      42: 73 5f 61 6c  	csrrwi	t5, 1734, 2
      46: 6c 00        	<unknown>
      48: 69 6e        	<unknown>
      4a: 69 74        	<unknown>
      4c: 5f 72 65 67  	<unknown>
      50: 73 00 69 6e  	<unknown>
      54: 69 74        	<unknown>
      56: 5f 74 6c 73  	<unknown>
      5a: 5f 61 6c 6c  	<unknown>
      5e: 00 24        	<unknown>
      60: 78 72        	<unknown>
      62: 76 33        	<unknown>
      64: 32 69        	<unknown>
      66: 32 70        	<unknown>
      68: 31 5f        	<unknown>
      6a: 6d 32        	<unknown>
      6c: 70 30        	<unknown>
      6e: 5f 66 32 70  	<unknown>
      72: 32 5f        	<unknown>
      74: 7a 69        	<unknown>
      76: 63 73 72 32  	bgeu	tp, t2, 0x39c <.symtab+0x39c>
      7a: 70 30        	<unknown>
      7c: 5f 7a 6d 6d  	<unknown>
      80: 75 6c        	<unknown>
      82: 31 70        	<unknown>
      84: 30 00        	<unknown>
      86: 5f 5f 63 61  	<unknown>
      8a: 6c 6c        	<unknown>
      8c: 5f 61 74 65  	<unknown>
      90: 78 69        	<unknown>
      92: 74 2e        	<unknown>
      94: 63 00 72 65  	beq	tp, s7, 0x6d4 <.symtab+0x6d4>
      98: 67 69 73 74  	<unknown>
      9c: 65 72        	<unknown>
      9e: 5f 66 69 6e  	<unknown>
      a2: 69 00        	<unknown>
      a4: 70 6f        	<unknown>
      a6: 63 6c 5f 76  	bltu	t5, t0, 0x81e <.symtab+0x81e>
      aa: 6f 72 74 65  	jal	tp, 0x47f00 <.symtab+0x47f00>
      ae: 78 5f        	<unknown>
      b0: 6b 65 72 6e  	<unknown>
      b4: 65 6c        	<unknown>
      b6: 5f 33 69 37  	<unknown>
      ba: 4d 30        	<unknown>
      bc: 62 2e        	<unknown>
      be: 63 00 70 61  	beq	zero, s7, 0x6be <.symtab+0x6be>
      c2: 72 61        	<unknown>
      c4: 6c 6c        	<unknown>
      c6: 65 6c        	<unknown>
      c8: 5f 62 63 00  	<unknown>
      cc: 5f 5a 37 5f  	<unknown>
      d0: 63 6c 5f 63  	bltu	t5, s5, 0x708 <.symtab+0x708>
      d4: 6f 73 66 00  	jal	t1, 0x670da <.symtab+0x670da>
      d8: 5f 5a 37 5f  	<unknown>
      dc: 63 6c 5f 73  	bltu	t5, s5, 0x814 <.symtab+0x814>
      e0: 69 6e        	<unknown>
      e2: 66 00        	<unknown>
      e4: 76 78        	<unknown>
      e6: 5f 73 79 73  	<unknown>
      ea: 63 61 6c 6c  	bltu	s8, t1, 0x7ac <.symtab+0x7ac>
      ee: 73 2e 63 00  	csrrs	t3, 6, t1
      f2: 76 78        	<unknown>
      f4: 5f 73 70 61  	<unknown>
      f8: 77 6e 2e 63  	<unknown>
      fc: 00 73        	<unknown>
      fe: 70 61        	<unknown>
     100: 77 6e 5f 6b  	<unknown>
     104: 65 72        	<unknown>
     106: 6e 65        	<unknown>
     108: 6c 5f        	<unknown>
     10a: 61 6c        	<unknown>
     10c: 6c 5f        	<unknown>
     10e: 73 74 75 62  	csrrci	s0, 1575, 10
     112: 00 73        	<unknown>
     114: 70 61        	<unknown>
     116: 77 6e 5f 6b  	<unknown>
     11a: 65 72        	<unknown>
     11c: 6e 65        	<unknown>
     11e: 6c 5f        	<unknown>
     120: 72 65        	<unknown>
     122: 6d 5f        	<unknown>
     124: 73 74 75 62  	csrrci	s0, 1575, 10
     128: 00 73        	<unknown>
     12a: 70 61        	<unknown>
     12c: 77 6e 5f 6b  	<unknown>
     130: 65 72        	<unknown>
     132: 6e 65        	<unknown>
     134: 6c 5f        	<unknown>
     136: 61 6c        	<unknown>
     138: 6c 5f        	<unknown>
     13a: 63 62 00 76  	bltu	zero, zero, 0x89e <.symtab+0x89e>
     13e: 78 5f        	<unknown>
     140: 70 65        	<unknown>
     142: 72 66        	<unknown>
     144: 2e 63        	<unknown>
     146: 00 73        	<unknown>
     148: 66 5f        	<unknown>
     14a: 63 6f 73 2e  	bltu	t1, t2, 0x448 <.symtab+0x448>
     14e: 63 00 73 66  	beq	t1, t2, 0x7ae <.symtab+0x7ae>
     152: 5f 73 69 6e  	<unknown>
     156: 2e 63        	<unknown>
     158: 00 65        	<unknown>
     15a: 66 5f        	<unknown>
     15c: 72 65        	<unknown>
     15e: 6d 5f        	<unknown>
     160: 70 69        	<unknown>
     162: 6f 32 2e 63  	jal	tp, 0xe3794 <.symtab+0xe3794>
     166: 00 74        	<unknown>
     168: 77 6f 5f 6f  	<unknown>
     16c: 76 65        	<unknown>
     16e: 72 5f        	<unknown>
     170: 70 69        	<unknown>
     172: 00 6e        	<unknown>
     174: 70 69        	<unknown>
     176: 6f 32 5f 68  	jal	tp, 0xf3ffa <.symtab+0xf3ffa>
     17a: 77 00 6b 66  	<unknown>
     17e: 5f 63 6f 73  	<unknown>
     182: 2e 63        	<unknown>
     184: 00 6b        	<unknown>
     186: 66 5f        	<unknown>
     188: 72 65        	<unknown>
     18a: 6d 5f        	<unknown>
     18c: 70 69        	<unknown>
     18e: 6f 32 2e 63  	jal	tp, 0xe37c0 <.symtab+0xe37c0>
     192: 00 69        	<unknown>
     194: 6e 69        	<unknown>
     196: 74 5f        	<unknown>
     198: 6a 6b        	<unknown>
     19a: 00 50        	<unknown>
     19c: 49 6f        	<unknown>
     19e: 32 00        	<unknown>
     1a0: 6b 66 5f 73  	<unknown>
     1a4: 69 6e        	<unknown>
     1a6: 2e 63        	<unknown>
     1a8: 00 73        	<unknown>
     1aa: 66 5f        	<unknown>
     1ac: 66 61        	<unknown>
     1ae: 62 73        	<unknown>
     1b0: 2e 63        	<unknown>
     1b2: 00 73        	<unknown>
     1b4: 66 5f        	<unknown>
     1b6: 66 6c        	<unknown>
     1b8: 6f 6f 72 2e  	jal	t5, 0x26c9e <.symtab+0x26c9e>
     1bc: 63 00 73 66  	beq	t1, t2, 0x81c <.symtab+0x81c>
     1c0: 5f 73 63 61  	<unknown>
     1c4: 6c 62        	<unknown>
     1c6: 6e 2e        	<unknown>
     1c8: 63 00 6d 65  	beq	s10, s6, 0x808 <.symtab+0x808>
     1cc: 6d 63        	<unknown>
     1ce: 70 79        	<unknown>
     1d0: 2e 63        	<unknown>
     1d2: 00 6c        	<unknown>
     1d4: 69 62        	<unknown>
     1d6: 5f 61 2d 6d  	<unknown>
     1da: 65 6d        	<unknown>
     1dc: 73 65 74 2e  	csrrsi	a0, 743, 8
     1e0: 6f 00 5f 5f  	j	0xf0fd4 <.symtab+0xf0fd4>
     1e4: 61 74        	<unknown>
     1e6: 65 78        	<unknown>
     1e8: 69 74        	<unknown>
     1ea: 2e 63        	<unknown>
     1ec: 00 6c        	<unknown>
     1ee: 69 62        	<unknown>
     1f0: 67 63 63 32  	<unknown>
     1f4: 2e 63        	<unknown>
     1f6: 00 69        	<unknown>
     1f8: 6d 70        	<unknown>
     1fa: 75 72        	<unknown>
     1fc: 65 2e        	<unknown>
     1fe: 63 00 69 6d  	beq	s2, s6, 0x8be <.symtab+0x8be>
     202: 70 75        	<unknown>
     204: 72 65        	<unknown>
     206: 5f 64 61 74  	<unknown>
     20a: 61 00        	<unknown>
     20c: 5f 5f 66 69  	<unknown>
     210: 6e 69        	<unknown>
     212: 5f 61 72 72  	<unknown>
     216: 61 79        	<unknown>
     218: 5f 65 6e 64  	<unknown>
     21c: 00 5f        	<unknown>
     21e: 5f 74 62 73  	<unknown>
     222: 73 5f 73 74  	csrrwi	t5, mseccfg, 6
     226: 61 72        	<unknown>
     228: 74 00        	<unknown>
     22a: 5f 5f 66 69  	<unknown>
     22e: 6e 69        	<unknown>
     230: 5f 61 72 72  	<unknown>
     234: 61 79        	<unknown>
     236: 5f 73 74 61  	<unknown>
     23a: 72 74        	<unknown>
     23c: 00 5f        	<unknown>
     23e: 5f 74 64 61  	<unknown>
     242: 74 61        	<unknown>
     244: 5f 73 74 61  	<unknown>
     248: 72 74        	<unknown>
     24a: 00 5f        	<unknown>
     24c: 5f 69 6e 69  	<unknown>
     250: 74 5f        	<unknown>
     252: 61 72        	<unknown>
     254: 72 61        	<unknown>
     256: 79 5f        	<unknown>
     258: 65 6e        	<unknown>
     25a: 64 00        	<unknown>
     25c: 5f 5f 74 62  	<unknown>
     260: 73 73 5f 6f  	csrrci	t1, 1781, 30
     264: 66 66        	<unknown>
     266: 73 65 74 00  	csrrsi	a0, 7, 8
     26a: 5f 5f 70 72  	<unknown>
     26e: 65 69        	<unknown>
     270: 6e 69        	<unknown>
     272: 74 5f        	<unknown>
     274: 61 72        	<unknown>
     276: 72 61        	<unknown>
     278: 79 5f        	<unknown>
     27a: 65 6e        	<unknown>
     27c: 64 00        	<unknown>
     27e: 5f 5f 74 62  	<unknown>
     282: 73 73 5f 65  	csrrci	t1, 1621, 30
     286: 6e 64        	<unknown>
     288: 00 5f        	<unknown>
     28a: 5f 69 6e 69  	<unknown>
     28e: 74 5f        	<unknown>
     290: 61 72        	<unknown>
     292: 72 61        	<unknown>
     294: 79 5f        	<unknown>
     296: 73 74 61 72  	csrrci	s0, mhpmevent6h, 2
     29a: 74 00        	<unknown>
     29c: 5f 5f 70 72  	<unknown>
     2a0: 65 69        	<unknown>
     2a2: 6e 69        	<unknown>
     2a4: 74 5f        	<unknown>
     2a6: 61 72        	<unknown>
     2a8: 72 61        	<unknown>
     2aa: 79 5f        	<unknown>
     2ac: 73 74 61 72  	csrrci	s0, mhpmevent6h, 2
     2b0: 74 00        	<unknown>
     2b2: 5f 5f 69 65  	<unknown>
     2b6: 65 65        	<unknown>
     2b8: 37 35 34 5f  	lui	a0, 389955
     2bc: 72 65        	<unknown>
     2be: 6d 5f        	<unknown>
     2c0: 70 69        	<unknown>
     2c2: 6f 32 66 00  	jal	tp, 0x632c8 <.symtab+0x632c8>
     2c6: 67 5f 77 73  	<unknown>
     2ca: 70 61        	<unknown>
     2cc: 77 6e 5f 61  	<unknown>
     2d0: 72 67        	<unknown>
     2d2: 73 00 5f 5f  	<unknown>
     2d6: 53 44 41 54  	<unknown>
     2da: 41 5f        	<unknown>
     2dc: 42 45        	<unknown>
     2de: 47 49 4e 5f  	<unknown>
     2e2: 5f 00 76 78  	<unknown>
     2e6: 5f 77 73 70  	<unknown>
     2ea: 61 77        	<unknown>
     2ec: 6e 5f        	<unknown>
     2ee: 77 61 69 74  	<unknown>
     2f2: 00 6d        	<unknown>
     2f4: 65 6d        	<unknown>
     2f6: 63 70 79 00  	bgeu	s2, t2, 0x2f6 <.symtab+0x2f6>
     2fa: 5f 5f 67 6c  	<unknown>
     2fe: 6f 62 61 6c  	jal	tp, 0x169c4 <.symtab+0x169c4>
     302: 5f 70 6f 69  	<unknown>
     306: 6e 74        	<unknown>
     308: 65 72        	<unknown>
     30a: 00 5f        	<unknown>
     30c: 70 6f        	<unknown>
     30e: 63 6c 5f 6b  	bltu	t5, s5, 0x9c6 <.symtab+0x9c6>
     312: 65 72        	<unknown>
     314: 6e 65        	<unknown>
     316: 6c 5f        	<unknown>
     318: 66 66        	<unknown>
     31a: 74 5f        	<unknown>
     31c: 72 61        	<unknown>
     31e: 64 69        	<unknown>
     320: 78 34        	<unknown>
     322: 5f 77 6f 72  	<unknown>
     326: 6b 67 72 6f  	<unknown>
     32a: 75 70        	<unknown>
     32c: 00 66        	<unknown>
     32e: 61 62        	<unknown>
     330: 73 66 00 5f  	csrrsi	a2, 1520, 0
     334: 67 6c 6f 62  	<unknown>
     338: 61 6c        	<unknown>
     33a: 5f 69 6d 70  	<unknown>
     33e: 75 72        	<unknown>
     340: 65 5f        	<unknown>
     342: 70 74        	<unknown>
     344: 72 00        	<unknown>
     346: 5f 5f 6c 69  	<unknown>
     34a: 62 63        	<unknown>
     34c: 5f 69 6e 69  	<unknown>
     350: 74 5f        	<unknown>
     352: 61 72        	<unknown>
     354: 72 61        	<unknown>
     356: 79 00        	<unknown>
     358: 5f 5f 6b 65  	<unknown>
     35c: 72 6e        	<unknown>
     35e: 65 6c        	<unknown>
     360: 5f 73 69 6e  	<unknown>
     364: 66 00        	<unknown>
     366: 5f 5f 69 6e  	<unknown>
     36a: 69 74        	<unknown>
     36c: 5f 74 6c 73  	<unknown>
     370: 00 5f        	<unknown>
     372: 5f 6c 69 62  	<unknown>
     376: 63 5f 66 69  	bge	a2, s6, 0xa14 <.symtab+0xa14>
     37a: 6e 69        	<unknown>
     37c: 5f 61 72 72  	<unknown>
     380: 61 79        	<unknown>
     382: 00 5f        	<unknown>
     384: 5f 6b 65 72  	<unknown>
     388: 6e 65        	<unknown>
     38a: 6c 5f        	<unknown>
     38c: 63 6f 73 66  	bltu	t1, t2, 0xa0a <.symtab+0xa0a>
     390: 00 5f        	<unknown>
     392: 5f 74 64 61  	<unknown>
     396: 74 61        	<unknown>
     398: 5f 73 69 7a  	<unknown>
     39c: 65 00        	<unknown>
     39e: 5f 5f 74 62  	<unknown>
     3a2: 73 73 5f 73  	csrrci	t1, mhpmevent21h, 30
     3a6: 69 7a        	<unknown>
     3a8: 65 00        	<unknown>
     3aa: 5f 5f 63 6c  	<unknown>
     3ae: 7a 73        	<unknown>
     3b0: 69 32        	<unknown>
     3b2: 00 5f        	<unknown>
     3b4: 5f 63 61 6c  	<unknown>
     3b8: 6c 5f        	<unknown>
     3ba: 65 78        	<unknown>
     3bc: 69 74        	<unknown>
     3be: 70 72        	<unknown>
     3c0: 6f 63 73 00  	jal	t1, 0x36bc6 <.symtab+0x36bc6>
     3c4: 5f 5f 72 65  	<unknown>
     3c8: 67 69 73 74  	<unknown>
     3cc: 65 72        	<unknown>
     3ce: 5f 65 78 69  	<unknown>
     3d2: 74 70        	<unknown>
     3d4: 72 6f        	<unknown>
     3d6: 63 00 5f 5f  	beq	t5, s5, 0x9b6 <.symtab+0x9b6>
     3da: 42 53        	<unknown>
     3dc: 53 5f 45 4e  	<unknown>
     3e0: 44 5f        	<unknown>
     3e2: 5f 00 73 63  	<unknown>
     3e6: 61 6c        	<unknown>
     3e8: 62 6e        	<unknown>
     3ea: 66 00        	<unknown>
     3ec: 5f 5f 62 73  	<unknown>
     3f0: 73 5f 73 74  	csrrwi	t5, mseccfg, 6
     3f4: 61 72        	<unknown>
     3f6: 74 00        	<unknown>
     3f8: 6d 65        	<unknown>
     3fa: 6d 73        	<unknown>
     3fc: 65 74        	<unknown>
     3fe: 00 6d        	<unknown>
     400: 61 69        	<unknown>
     402: 6e 00        	<unknown>
     404: 5f 5f 63 6c  	<unknown>
     408: 7a 5f        	<unknown>
     40a: 74 61        	<unknown>
     40c: 62 00        	<unknown>
     40e: 61 74        	<unknown>
     410: 65 78        	<unknown>
     412: 69 74        	<unknown>
     414: 00 5f        	<unknown>
     416: 5f 74 63 62  	<unknown>
     41a: 5f 61 6c 69  	<unknown>
     41e: 67 6e 65 64  	<unknown>
     422: 5f 73 69 7a  	<unknown>
     426: 65 00        	<unknown>
     428: 53 54 41 52  	<unknown>
     42c: 54 55        	<unknown>
     42e: 50 5f        	<unknown>
     430: 41 44        	<unknown>
     432: 44 52        	<unknown>
     434: 00 5f        	<unknown>
     436: 5f 44 41 54  	<unknown>
     43a: 41 5f        	<unknown>
     43c: 42 45        	<unknown>
     43e: 47 49 4e 5f  	<unknown>
     442: 5f 00 5f 65  	<unknown>
     446: 64 61        	<unknown>
     448: 74 61        	<unknown>
     44a: 00 76        	<unknown>
     44c: 78 5f        	<unknown>
     44e: 70 65        	<unknown>
     450: 72 66        	<unknown>
     452: 5f 64 75 6d  	<unknown>
     456: 70 00        	<unknown>
     458: 5f 65 78 69  	<unknown>
     45c: 74 00        	<unknown>
     45e: 5f 5f 6b 65  	<unknown>
     462: 72 6e        	<unknown>
     464: 65 6c        	<unknown>
     466: 5f 72 65 6d  	<unknown>
     46a: 5f 70 69 6f  	<unknown>
     46e: 32 66        	<unknown>
     470: 00 66        	<unknown>
     472: 6c 6f        	<unknown>
     474: 6f 72 66 00  	jal	tp, 0x6747a <.symtab+0x6747a>
     478: 76 78        	<unknown>
     47a: 5f 73 70 61  	<unknown>
     47e: 77 6e 5f 6b  	<unknown>
     482: 65 72        	<unknown>
     484: 6e 65        	<unknown>
     486: 6c 00        	<unknown>

Disassembly of section .shstrtab:

00000000 <.shstrtab>:
       0: 00 2e        	<unknown>
       2: 73 79 6d 74  	csrrci	s2, 1862, 26
       6: 61 62        	<unknown>
       8: 00 2e        	<unknown>
       a: 73 74 72 74  	csrrci	s0, mseccfg, 4
       e: 61 62        	<unknown>
      10: 00 2e        	<unknown>
      12: 73 68 73 74  	csrrsi	a6, mseccfg, 6
      16: 72 74        	<unknown>
      18: 61 62        	<unknown>
      1a: 00 2e        	<unknown>
      1c: 69 6e        	<unknown>
      1e: 69 74        	<unknown>
      20: 00 2e        	<unknown>
      22: 74 65        	<unknown>
      24: 78 74        	<unknown>
      26: 00 2e        	<unknown>
      28: 72 6f        	<unknown>
      2a: 64 61        	<unknown>
      2c: 74 61        	<unknown>
      2e: 00 2e        	<unknown>
      30: 69 6e        	<unknown>
      32: 69 74        	<unknown>
      34: 5f 61 72 72  	<unknown>
      38: 61 79        	<unknown>
      3a: 00 2e        	<unknown>
      3c: 64 61        	<unknown>
      3e: 74 61        	<unknown>
      40: 00 2e        	<unknown>
      42: 73 64 61 74  	csrrsi	s0, 1862, 2
      46: 61 00        	<unknown>
      48: 2e 62        	<unknown>
      4a: 73 73 00 2e  	csrrci	t1, 736, 0
      4e: 63 6f 6d 6d  	bltu	s10, s6, 0x72c <.symtab+0x72c>
      52: 65 6e        	<unknown>
      54: 74 00        	<unknown>
      56: 2e 72        	<unknown>
      58: 69 73        	<unknown>
      5a: 63 76 2e 61  	bgeu	t3, s2, 0x666 <.symtab+0x666>
      5e: 74 74        	<unknown>
      60: 72 69        	<unknown>
      62: 62 75        	<unknown>
      64: 74 65        	<unknown>
      66: 73 00 2e 64  	<unknown>
      6a: 65 62        	<unknown>
      6c: 75 67        	<unknown>
      6e: 5f 61 72 61  	<unknown>
      72: 6e 67        	<unknown>
      74: 65 73        	<unknown>
      76: 00 2e        	<unknown>
      78: 64 65        	<unknown>
      7a: 62 75        	<unknown>
      7c: 67 5f 69 6e  	<unknown>
      80: 66 6f        	<unknown>
      82: 00 2e        	<unknown>
      84: 64 65        	<unknown>
      86: 62 75        	<unknown>
      88: 67 5f 61 62  	<unknown>
      8c: 62 72        	<unknown>
      8e: 65 76        	<unknown>
      90: 00 2e        	<unknown>
      92: 64 65        	<unknown>
      94: 62 75        	<unknown>
      96: 67 5f 6c 69  	<unknown>
      9a: 6e 65        	<unknown>
      9c: 00 2e        	<unknown>
      9e: 64 65        	<unknown>
      a0: 62 75        	<unknown>
      a2: 67 5f 66 72  	<unknown>
      a6: 61 6d        	<unknown>
      a8: 65 00        	<unknown>
      aa: 2e 64        	<unknown>
      ac: 65 62        	<unknown>
      ae: 75 67        	<unknown>
      b0: 5f 73 74 72  	<unknown>
      b4: 00 2e        	<unknown>
      b6: 64 65        	<unknown>
      b8: 62 75        	<unknown>
      ba: 67 5f 6c 6f  	<unknown>
      be: 63 6c 69 73  	bltu	s2, s6, 0x7f6 <.symtab+0x7f6>
      c2: 74 73        	<unknown>
      c4: 00 2e        	<unknown>
      c6: 64 65        	<unknown>
      c8: 62 75        	<unknown>
      ca: 67 5f 72 6e  	<unknown>
      ce: 67 6c 69 73  	<unknown>
      d2: 74 73        	<unknown>
      d4: 00 2e        	<unknown>
      d6: 64 65        	<unknown>
      d8: 62 75        	<unknown>
      da: 67 5f 6c 69  	<unknown>
      de: 6e 65        	<unknown>
      e0: 5f 73 74 72  	<unknown>
      e4: 00           	<unknown>
